   1              	 .cpu cortex-m4
   2              	 .eabi_attribute 20,1
   3              	 .eabi_attribute 21,1
   4              	 .eabi_attribute 23,3
   5              	 .eabi_attribute 24,1
   6              	 .eabi_attribute 25,1
   7              	 .eabi_attribute 26,1
   8              	 .eabi_attribute 30,6
   9              	 .eabi_attribute 34,1
  10              	 .eabi_attribute 18,4
  11              	 .file "udc.c"
  12              	 .text
  13              	.Ltext0:
  14              	 .cfi_sections .debug_frame
  15              	 .section .bss.cpu_irq_critical_section_counter,"aw",%nobits
  16              	 .align 2
  19              	cpu_irq_critical_section_counter:
  20 0000 00000000 	 .space 4
  21              	 .section .bss.cpu_irq_prev_interrupt_state,"aw",%nobits
  24              	cpu_irq_prev_interrupt_state:
  25 0000 00       	 .space 1
  26              	 .section .bss.udc_device_status,"aw",%nobits
  27              	 .align 1
  30              	udc_device_status:
  31 0000 0000     	 .space 2
  32              	 .section .bss.udc_num_configuration,"aw",%nobits
  35              	udc_num_configuration:
  36 0000 00       	 .space 1
  37              	 .section .bss.udc_ptr_conf,"aw",%nobits
  38              	 .align 2
  41              	udc_ptr_conf:
  42 0000 00000000 	 .space 4
  43              	 .section .bss.udc_ptr_iface,"aw",%nobits
  44              	 .align 2
  47              	udc_ptr_iface:
  48 0000 00000000 	 .space 4
  49              	 .section .data.udc_string_desc_languageid,"aw",%progbits
  50              	 .align 2
  53              	udc_string_desc_languageid:
  54 0000 04       	 .byte 4
  55 0001 03       	 .byte 3
  56 0002 0904     	 .short 1033
  57              	 .section .data.udc_string_manufacturer_name,"aw",%progbits
  58              	 .align 2
  61              	udc_string_manufacturer_name:
  62 0000 41544D45 	 .ascii "ATMEL\000"
  62      4C00
  63              	 .section .data.udc_string_product_name,"aw",%progbits
  64              	 .align 2
  67              	udc_string_product_name:
  68 0000 574D2053 	 .ascii "WM Series (Wireless Module CDC Driver)\000"
  68      65726965 
  68      73202857 
  68      6972656C 
  68      65737320 
  69              	 .section .data.udc_string_desc,"aw",%progbits
  70              	 .align 2
  73              	udc_string_desc:
  74 0000 00       	 .space 1
  75 0001 03       	 .byte 3
  76 0002 00000000 	 .space 76
  76      00000000 
  76      00000000 
  76      00000000 
  76      00000000 
  77              	 .text
  78              	 .align 1
  79              	 .global udc_get_interface_desc
  80              	 .syntax unified
  81              	 .thumb
  82              	 .thumb_func
  83              	 .fpu softvfp
  85              	udc_get_interface_desc:
  86              	.LFB126:
  87              	 .file 1 "../../../platform/common/services/usb/udc/udc.c"
   1:../../../platform/common/services/usb/udc/udc.c **** /**
   2:../../../platform/common/services/usb/udc/udc.c ****  * \file
   3:../../../platform/common/services/usb/udc/udc.c ****  *
   4:../../../platform/common/services/usb/udc/udc.c ****  * \brief USB Device Controller (UDC)
   5:../../../platform/common/services/usb/udc/udc.c ****  *
   6:../../../platform/common/services/usb/udc/udc.c ****  * Copyright (c) 2009 - 2013 Atmel Corporation. All rights reserved.
   7:../../../platform/common/services/usb/udc/udc.c ****  *
   8:../../../platform/common/services/usb/udc/udc.c ****  * \asf_license_start
   9:../../../platform/common/services/usb/udc/udc.c ****  *
  10:../../../platform/common/services/usb/udc/udc.c ****  * \page License
  11:../../../platform/common/services/usb/udc/udc.c ****  *
  12:../../../platform/common/services/usb/udc/udc.c ****  * Redistribution and use in source and binary forms, with or without
  13:../../../platform/common/services/usb/udc/udc.c ****  * modification, are permitted provided that the following conditions are met:
  14:../../../platform/common/services/usb/udc/udc.c ****  *
  15:../../../platform/common/services/usb/udc/udc.c ****  * 1. Redistributions of source code must retain the above copyright notice,
  16:../../../platform/common/services/usb/udc/udc.c ****  *    this list of conditions and the following disclaimer.
  17:../../../platform/common/services/usb/udc/udc.c ****  *
  18:../../../platform/common/services/usb/udc/udc.c ****  * 2. Redistributions in binary form must reproduce the above copyright notice,
  19:../../../platform/common/services/usb/udc/udc.c ****  *    this list of conditions and the following disclaimer in the documentation
  20:../../../platform/common/services/usb/udc/udc.c ****  *    and/or other materials provided with the distribution.
  21:../../../platform/common/services/usb/udc/udc.c ****  *
  22:../../../platform/common/services/usb/udc/udc.c ****  * 3. The name of Atmel may not be used to endorse or promote products derived
  23:../../../platform/common/services/usb/udc/udc.c ****  *    from this software without specific prior written permission.
  24:../../../platform/common/services/usb/udc/udc.c ****  *
  25:../../../platform/common/services/usb/udc/udc.c ****  * 4. This software may only be redistributed and used in connection with an
  26:../../../platform/common/services/usb/udc/udc.c ****  *    Atmel microcontroller product.
  27:../../../platform/common/services/usb/udc/udc.c ****  *
  28:../../../platform/common/services/usb/udc/udc.c ****  * THIS SOFTWARE IS PROVIDED BY ATMEL "AS IS" AND ANY EXPRESS OR IMPLIED
  29:../../../platform/common/services/usb/udc/udc.c ****  * WARRANTIES, INCLUDING, BUT NOT LIMITED TO, THE IMPLIED WARRANTIES OF
  30:../../../platform/common/services/usb/udc/udc.c ****  * MERCHANTABILITY, FITNESS FOR A PARTICULAR PURPOSE AND NON-INFRINGEMENT ARE
  31:../../../platform/common/services/usb/udc/udc.c ****  * EXPRESSLY AND SPECIFICALLY DISCLAIMED. IN NO EVENT SHALL ATMEL BE LIABLE FOR
  32:../../../platform/common/services/usb/udc/udc.c ****  * ANY DIRECT, INDIRECT, INCIDENTAL, SPECIAL, EXEMPLARY, OR CONSEQUENTIAL
  33:../../../platform/common/services/usb/udc/udc.c ****  * DAMAGES (INCLUDING, BUT NOT LIMITED TO, PROCUREMENT OF SUBSTITUTE GOODS
  34:../../../platform/common/services/usb/udc/udc.c ****  * OR SERVICES; LOSS OF USE, DATA, OR PROFITS; OR BUSINESS INTERRUPTION)
  35:../../../platform/common/services/usb/udc/udc.c ****  * HOWEVER CAUSED AND ON ANY THEORY OF LIABILITY, WHETHER IN CONTRACT,
  36:../../../platform/common/services/usb/udc/udc.c ****  * STRICT LIABILITY, OR TORT (INCLUDING NEGLIGENCE OR OTHERWISE) ARISING IN
  37:../../../platform/common/services/usb/udc/udc.c ****  * ANY WAY OUT OF THE USE OF THIS SOFTWARE, EVEN IF ADVISED OF THE
  38:../../../platform/common/services/usb/udc/udc.c ****  * POSSIBILITY OF SUCH DAMAGE.
  39:../../../platform/common/services/usb/udc/udc.c ****  *
  40:../../../platform/common/services/usb/udc/udc.c ****  * \asf_license_stop
  41:../../../platform/common/services/usb/udc/udc.c ****  *
  42:../../../platform/common/services/usb/udc/udc.c ****  */
  43:../../../platform/common/services/usb/udc/udc.c **** 
  44:../../../platform/common/services/usb/udc/udc.c **** #include "conf_usb.h"
  45:../../../platform/common/services/usb/udc/udc.c **** #include "usb_protocol.h"
  46:../../../platform/common/services/usb/udc/udc.c **** #include "udd.h"
  47:../../../platform/common/services/usb/udc/udc.c **** #include "udc_desc.h"
  48:../../../platform/common/services/usb/udc/udc.c **** #include "udi.h"
  49:../../../platform/common/services/usb/udc/udc.c **** #include "udc.h"
  50:../../../platform/common/services/usb/udc/udc.c **** 
  51:../../../platform/common/services/usb/udc/udc.c **** /**
  52:../../../platform/common/services/usb/udc/udc.c ****  * \ingroup udc_group
  53:../../../platform/common/services/usb/udc/udc.c ****  * \defgroup udc_group_interne Implementation of UDC
  54:../../../platform/common/services/usb/udc/udc.c ****  *
  55:../../../platform/common/services/usb/udc/udc.c ****  * Internal implementation
  56:../../../platform/common/services/usb/udc/udc.c ****  * @{
  57:../../../platform/common/services/usb/udc/udc.c ****  */
  58:../../../platform/common/services/usb/udc/udc.c **** 
  59:../../../platform/common/services/usb/udc/udc.c **** //! \name Internal variables to manage the USB device
  60:../../../platform/common/services/usb/udc/udc.c **** //! @{
  61:../../../platform/common/services/usb/udc/udc.c **** 
  62:../../../platform/common/services/usb/udc/udc.c **** //! Device status state (see enum usb_device_status in usb_protocol.h)
  63:../../../platform/common/services/usb/udc/udc.c **** static le16_t udc_device_status;
  64:../../../platform/common/services/usb/udc/udc.c **** 
  65:../../../platform/common/services/usb/udc/udc.c **** //! Device Configuration number selected by the USB host
  66:../../../platform/common/services/usb/udc/udc.c **** static uint8_t udc_num_configuration = 0;
  67:../../../platform/common/services/usb/udc/udc.c **** 
  68:../../../platform/common/services/usb/udc/udc.c **** //! Pointer on the selected speed device configuration
  69:../../../platform/common/services/usb/udc/udc.c **** static udc_config_speed_t UDC_DESC_STORAGE *udc_ptr_conf;
  70:../../../platform/common/services/usb/udc/udc.c **** 
  71:../../../platform/common/services/usb/udc/udc.c **** //! Pointer on interface descriptor used by SETUP request.
  72:../../../platform/common/services/usb/udc/udc.c **** static usb_iface_desc_t UDC_DESC_STORAGE *udc_ptr_iface;
  73:../../../platform/common/services/usb/udc/udc.c **** 
  74:../../../platform/common/services/usb/udc/udc.c **** //! @}
  75:../../../platform/common/services/usb/udc/udc.c **** 
  76:../../../platform/common/services/usb/udc/udc.c **** 
  77:../../../platform/common/services/usb/udc/udc.c **** //! \name Internal structure to store the USB device main strings
  78:../../../platform/common/services/usb/udc/udc.c **** //! @{
  79:../../../platform/common/services/usb/udc/udc.c **** 
  80:../../../platform/common/services/usb/udc/udc.c **** /**
  81:../../../platform/common/services/usb/udc/udc.c ****  * \brief Language ID of USB device (US ID by default)
  82:../../../platform/common/services/usb/udc/udc.c ****  */
  83:../../../platform/common/services/usb/udc/udc.c **** COMPILER_WORD_ALIGNED
  84:../../../platform/common/services/usb/udc/udc.c **** static UDC_DESC_STORAGE usb_str_lgid_desc_t udc_string_desc_languageid = {
  85:../../../platform/common/services/usb/udc/udc.c **** 	.desc.bLength = sizeof(usb_str_lgid_desc_t),
  86:../../../platform/common/services/usb/udc/udc.c **** 	.desc.bDescriptorType = USB_DT_STRING,
  87:../../../platform/common/services/usb/udc/udc.c **** 	.string = {LE16(USB_LANGID_EN_US)}
  88:../../../platform/common/services/usb/udc/udc.c **** };
  89:../../../platform/common/services/usb/udc/udc.c **** 
  90:../../../platform/common/services/usb/udc/udc.c **** /**
  91:../../../platform/common/services/usb/udc/udc.c ****  * \brief USB device manufacture name storage
  92:../../../platform/common/services/usb/udc/udc.c ****  * String is allocated only if USB_DEVICE_MANUFACTURE_NAME is declared
  93:../../../platform/common/services/usb/udc/udc.c ****  * by usb application configuration
  94:../../../platform/common/services/usb/udc/udc.c ****  */
  95:../../../platform/common/services/usb/udc/udc.c **** #ifdef USB_DEVICE_MANUFACTURE_NAME
  96:../../../platform/common/services/usb/udc/udc.c **** static uint8_t udc_string_manufacturer_name[] = USB_DEVICE_MANUFACTURE_NAME;
  97:../../../platform/common/services/usb/udc/udc.c **** #  define USB_DEVICE_MANUFACTURE_NAME_SIZE  \
  98:../../../platform/common/services/usb/udc/udc.c **** 	(sizeof(udc_string_manufacturer_name)-1)
  99:../../../platform/common/services/usb/udc/udc.c **** #else
 100:../../../platform/common/services/usb/udc/udc.c **** #  define USB_DEVICE_MANUFACTURE_NAME_SIZE  0
 101:../../../platform/common/services/usb/udc/udc.c **** #endif
 102:../../../platform/common/services/usb/udc/udc.c **** 
 103:../../../platform/common/services/usb/udc/udc.c **** /**
 104:../../../platform/common/services/usb/udc/udc.c ****  * \brief USB device product name storage
 105:../../../platform/common/services/usb/udc/udc.c ****  * String is allocated only if USB_DEVICE_PRODUCT_NAME is declared
 106:../../../platform/common/services/usb/udc/udc.c ****  * by usb application configuration
 107:../../../platform/common/services/usb/udc/udc.c ****  */
 108:../../../platform/common/services/usb/udc/udc.c **** #ifdef USB_DEVICE_PRODUCT_NAME
 109:../../../platform/common/services/usb/udc/udc.c **** static uint8_t udc_string_product_name[] = USB_DEVICE_PRODUCT_NAME;
 110:../../../platform/common/services/usb/udc/udc.c **** #  define USB_DEVICE_PRODUCT_NAME_SIZE  (sizeof(udc_string_product_name)-1)
 111:../../../platform/common/services/usb/udc/udc.c **** #else
 112:../../../platform/common/services/usb/udc/udc.c **** #  define USB_DEVICE_PRODUCT_NAME_SIZE  0
 113:../../../platform/common/services/usb/udc/udc.c **** #endif
 114:../../../platform/common/services/usb/udc/udc.c **** 
 115:../../../platform/common/services/usb/udc/udc.c **** /**
 116:../../../platform/common/services/usb/udc/udc.c ****  * \brief Get USB device serial number
 117:../../../platform/common/services/usb/udc/udc.c ****  *
 118:../../../platform/common/services/usb/udc/udc.c ****  * Use the define USB_DEVICE_SERIAL_NAME to set static serial number.
 119:../../../platform/common/services/usb/udc/udc.c ****  *
 120:../../../platform/common/services/usb/udc/udc.c ****  * For dynamic serial number set the define USB_DEVICE_GET_SERIAL_NAME_POINTER
 121:../../../platform/common/services/usb/udc/udc.c ****  * to a suitable pointer. This will also require the serial number length
 122:../../../platform/common/services/usb/udc/udc.c ****  * define USB_DEVICE_GET_SERIAL_NAME_LENGTH.
 123:../../../platform/common/services/usb/udc/udc.c ****  */
 124:../../../platform/common/services/usb/udc/udc.c **** #if defined USB_DEVICE_GET_SERIAL_NAME_POINTER
 125:../../../platform/common/services/usb/udc/udc.c **** 	static const uint8_t *udc_get_string_serial_name(void)
 126:../../../platform/common/services/usb/udc/udc.c **** 	{
 127:../../../platform/common/services/usb/udc/udc.c **** 		return (const uint8_t *)USB_DEVICE_GET_SERIAL_NAME_POINTER;
 128:../../../platform/common/services/usb/udc/udc.c **** 	}
 129:../../../platform/common/services/usb/udc/udc.c **** #  define USB_DEVICE_SERIAL_NAME_SIZE \
 130:../../../platform/common/services/usb/udc/udc.c **** 	USB_DEVICE_GET_SERIAL_NAME_LENGTH
 131:../../../platform/common/services/usb/udc/udc.c **** #elif defined USB_DEVICE_SERIAL_NAME
 132:../../../platform/common/services/usb/udc/udc.c **** 	static const uint8_t *udc_get_string_serial_name(void)
 133:../../../platform/common/services/usb/udc/udc.c **** 	{
 134:../../../platform/common/services/usb/udc/udc.c **** 		return (const uint8_t *)USB_DEVICE_SERIAL_NAME;
 135:../../../platform/common/services/usb/udc/udc.c **** 	}
 136:../../../platform/common/services/usb/udc/udc.c **** #  define USB_DEVICE_SERIAL_NAME_SIZE \
 137:../../../platform/common/services/usb/udc/udc.c **** 	(sizeof(USB_DEVICE_SERIAL_NAME)-1)
 138:../../../platform/common/services/usb/udc/udc.c **** #else
 139:../../../platform/common/services/usb/udc/udc.c **** #  define USB_DEVICE_SERIAL_NAME_SIZE  0
 140:../../../platform/common/services/usb/udc/udc.c **** #endif
 141:../../../platform/common/services/usb/udc/udc.c **** 
 142:../../../platform/common/services/usb/udc/udc.c **** /**
 143:../../../platform/common/services/usb/udc/udc.c ****  * \brief USB device string descriptor
 144:../../../platform/common/services/usb/udc/udc.c ****  * Structure used to transfer ASCII strings to USB String descriptor structure.
 145:../../../platform/common/services/usb/udc/udc.c ****  */
 146:../../../platform/common/services/usb/udc/udc.c **** struct udc_string_desc_t {
 147:../../../platform/common/services/usb/udc/udc.c **** 	usb_str_desc_t header;
 148:../../../platform/common/services/usb/udc/udc.c **** 	le16_t string[Max(Max(USB_DEVICE_MANUFACTURE_NAME_SIZE, \
 149:../../../platform/common/services/usb/udc/udc.c **** 			USB_DEVICE_PRODUCT_NAME_SIZE), USB_DEVICE_SERIAL_NAME_SIZE)];
 150:../../../platform/common/services/usb/udc/udc.c **** };
 151:../../../platform/common/services/usb/udc/udc.c **** COMPILER_WORD_ALIGNED
 152:../../../platform/common/services/usb/udc/udc.c **** static UDC_DESC_STORAGE struct udc_string_desc_t udc_string_desc = {
 153:../../../platform/common/services/usb/udc/udc.c **** 	.header.bDescriptorType = USB_DT_STRING
 154:../../../platform/common/services/usb/udc/udc.c **** };
 155:../../../platform/common/services/usb/udc/udc.c **** //! @}
 156:../../../platform/common/services/usb/udc/udc.c **** 
 157:../../../platform/common/services/usb/udc/udc.c **** usb_iface_desc_t UDC_DESC_STORAGE *udc_get_interface_desc(void)
 158:../../../platform/common/services/usb/udc/udc.c **** {
  88              	 .loc 1 158 0
  89              	 .cfi_startproc
  90              	 
  91              	 
  92              	 
  93 0000 80B4     	 push {r7}
  94              	.LCFI0:
  95              	 .cfi_def_cfa_offset 4
  96              	 .cfi_offset 7,-4
  97 0002 00AF     	 add r7,sp,#0
  98              	.LCFI1:
  99              	 .cfi_def_cfa_register 7
 159:../../../platform/common/services/usb/udc/udc.c **** 	return udc_ptr_iface;
 100              	 .loc 1 159 0
 101 0004 024B     	 ldr r3,.L3
 102 0006 1B68     	 ldr r3,[r3]
 160:../../../platform/common/services/usb/udc/udc.c **** }
 103              	 .loc 1 160 0
 104 0008 1846     	 mov r0,r3
 105 000a BD46     	 mov sp,r7
 106              	.LCFI2:
 107              	 .cfi_def_cfa_register 13
 108              	 
 109 000c 80BC     	 pop {r7}
 110              	.LCFI3:
 111              	 .cfi_restore 7
 112              	 .cfi_def_cfa_offset 0
 113 000e 7047     	 bx lr
 114              	.L4:
 115              	 .align 2
 116              	.L3:
 117 0010 00000000 	 .word udc_ptr_iface
 118              	 .cfi_endproc
 119              	.LFE126:
 121              	 .align 1
 122              	 .syntax unified
 123              	 .thumb
 124              	 .thumb_func
 125              	 .fpu softvfp
 127              	udc_get_eof_conf:
 128              	.LFB127:
 161:../../../platform/common/services/usb/udc/udc.c **** 
 162:../../../platform/common/services/usb/udc/udc.c **** /**
 163:../../../platform/common/services/usb/udc/udc.c ****  * \brief Returns a value to check the end of USB Configuration descriptor
 164:../../../platform/common/services/usb/udc/udc.c ****  *
 165:../../../platform/common/services/usb/udc/udc.c ****  * \return address after the last byte of USB Configuration descriptor
 166:../../../platform/common/services/usb/udc/udc.c ****  */
 167:../../../platform/common/services/usb/udc/udc.c **** static usb_conf_desc_t UDC_DESC_STORAGE *udc_get_eof_conf(void)
 168:../../../platform/common/services/usb/udc/udc.c **** {
 129              	 .loc 1 168 0
 130              	 .cfi_startproc
 131              	 
 132              	 
 133              	 
 134 0014 80B4     	 push {r7}
 135              	.LCFI4:
 136              	 .cfi_def_cfa_offset 4
 137              	 .cfi_offset 7,-4
 138 0016 00AF     	 add r7,sp,#0
 139              	.LCFI5:
 140              	 .cfi_def_cfa_register 7
 169:../../../platform/common/services/usb/udc/udc.c **** 	return (UDC_DESC_STORAGE usb_conf_desc_t *) ((uint8_t *)
 170:../../../platform/common/services/usb/udc/udc.c **** 			udc_ptr_conf->desc +
 141              	 .loc 1 170 0
 142 0018 064B     	 ldr r3,.L7
 143 001a 1B68     	 ldr r3,[r3]
 144 001c 1B68     	 ldr r3,[r3]
 171:../../../platform/common/services/usb/udc/udc.c **** 			le16_to_cpu(udc_ptr_conf->desc->wTotalLength));
 145              	 .loc 1 171 0
 146 001e 054A     	 ldr r2,.L7
 147 0020 1268     	 ldr r2,[r2]
 148 0022 1268     	 ldr r2,[r2]
 149 0024 5288     	 ldrh r2,[r2,#2]
 150 0026 92B2     	 uxth r2,r2
 169:../../../platform/common/services/usb/udc/udc.c **** 	return (UDC_DESC_STORAGE usb_conf_desc_t *) ((uint8_t *)
 151              	 .loc 1 169 0
 152 0028 1344     	 add r3,r3,r2
 172:../../../platform/common/services/usb/udc/udc.c **** }
 153              	 .loc 1 172 0
 154 002a 1846     	 mov r0,r3
 155 002c BD46     	 mov sp,r7
 156              	.LCFI6:
 157              	 .cfi_def_cfa_register 13
 158              	 
 159 002e 80BC     	 pop {r7}
 160              	.LCFI7:
 161              	 .cfi_restore 7
 162              	 .cfi_def_cfa_offset 0
 163 0030 7047     	 bx lr
 164              	.L8:
 165 0032 00BF     	 .align 2
 166              	.L7:
 167 0034 00000000 	 .word udc_ptr_conf
 168              	 .cfi_endproc
 169              	.LFE127:
 171              	 .align 1
 172              	 .syntax unified
 173              	 .thumb
 174              	 .thumb_func
 175              	 .fpu softvfp
 177              	udc_next_desc_in_iface:
 178              	.LFB128:
 173:../../../platform/common/services/usb/udc/udc.c **** 
 174:../../../platform/common/services/usb/udc/udc.c **** #if (0!=USB_DEVICE_MAX_EP)
 175:../../../platform/common/services/usb/udc/udc.c **** /**
 176:../../../platform/common/services/usb/udc/udc.c ****  * \brief Search specific descriptor in global interface descriptor
 177:../../../platform/common/services/usb/udc/udc.c ****  *
 178:../../../platform/common/services/usb/udc/udc.c ****  * \param desc       Address of interface descriptor
 179:../../../platform/common/services/usb/udc/udc.c ****  *                   or previous specific descriptor found
 180:../../../platform/common/services/usb/udc/udc.c ****  * \param desc_id    Descriptor ID to search
 181:../../../platform/common/services/usb/udc/udc.c ****  *
 182:../../../platform/common/services/usb/udc/udc.c ****  * \return address of specific descriptor found
 183:../../../platform/common/services/usb/udc/udc.c ****  * \return NULL if it is the end of global interface descriptor
 184:../../../platform/common/services/usb/udc/udc.c ****  */
 185:../../../platform/common/services/usb/udc/udc.c **** static usb_conf_desc_t UDC_DESC_STORAGE *udc_next_desc_in_iface(usb_conf_desc_t
 186:../../../platform/common/services/usb/udc/udc.c **** 		UDC_DESC_STORAGE * desc, uint8_t desc_id)
 187:../../../platform/common/services/usb/udc/udc.c **** {
 179              	 .loc 1 187 0
 180              	 .cfi_startproc
 181              	 
 182              	 
 183 0038 80B5     	 push {r7,lr}
 184              	.LCFI8:
 185              	 .cfi_def_cfa_offset 8
 186              	 .cfi_offset 7,-8
 187              	 .cfi_offset 14,-4
 188 003a 84B0     	 sub sp,sp,#16
 189              	.LCFI9:
 190              	 .cfi_def_cfa_offset 24
 191 003c 00AF     	 add r7,sp,#0
 192              	.LCFI10:
 193              	 .cfi_def_cfa_register 7
 194 003e 7860     	 str r0,[r7,#4]
 195 0040 0B46     	 mov r3,r1
 196 0042 FB70     	 strb r3,[r7,#3]
 188:../../../platform/common/services/usb/udc/udc.c **** 	usb_conf_desc_t UDC_DESC_STORAGE *ptr_eof_desc;
 189:../../../platform/common/services/usb/udc/udc.c **** 
 190:../../../platform/common/services/usb/udc/udc.c **** 	ptr_eof_desc = udc_get_eof_conf();
 197              	 .loc 1 190 0
 198 0044 FFF7E6FF 	 bl udc_get_eof_conf
 199 0048 F860     	 str r0,[r7,#12]
 191:../../../platform/common/services/usb/udc/udc.c **** 	// Go to next descriptor
 192:../../../platform/common/services/usb/udc/udc.c **** 	desc = (UDC_DESC_STORAGE usb_conf_desc_t *) ((uint8_t *) desc +
 193:../../../platform/common/services/usb/udc/udc.c **** 			desc->bLength);
 200              	 .loc 1 193 0
 201 004a 7B68     	 ldr r3,[r7,#4]
 202 004c 1B78     	 ldrb r3,[r3]
 203 004e 1A46     	 mov r2,r3
 192:../../../platform/common/services/usb/udc/udc.c **** 			desc->bLength);
 204              	 .loc 1 192 0
 205 0050 7B68     	 ldr r3,[r7,#4]
 206 0052 1344     	 add r3,r3,r2
 207 0054 7B60     	 str r3,[r7,#4]
 194:../../../platform/common/services/usb/udc/udc.c **** 	// Check the end of configuration descriptor
 195:../../../platform/common/services/usb/udc/udc.c **** 	while (ptr_eof_desc > desc) {
 208              	 .loc 1 195 0
 209 0056 10E0     	 b .L10
 210              	.L15:
 196:../../../platform/common/services/usb/udc/udc.c **** 		// If new interface descriptor is found,
 197:../../../platform/common/services/usb/udc/udc.c **** 		// then it is the end of the current global interface descriptor
 198:../../../platform/common/services/usb/udc/udc.c **** 		if (USB_DT_INTERFACE == desc->bDescriptorType) {
 211              	 .loc 1 198 0
 212 0058 7B68     	 ldr r3,[r7,#4]
 213 005a 5B78     	 ldrb r3,[r3,#1]
 214 005c 042B     	 cmp r3,#4
 215 005e 11D0     	 beq .L16
 199:../../../platform/common/services/usb/udc/udc.c **** 			break; // End of global interface descriptor
 200:../../../platform/common/services/usb/udc/udc.c **** 		}
 201:../../../platform/common/services/usb/udc/udc.c **** 		if (desc_id == desc->bDescriptorType) {
 216              	 .loc 1 201 0
 217 0060 7B68     	 ldr r3,[r7,#4]
 218 0062 5B78     	 ldrb r3,[r3,#1]
 219 0064 FA78     	 ldrb r2,[r7,#3]
 220 0066 9A42     	 cmp r2,r3
 221 0068 01D1     	 bne .L13
 202:../../../platform/common/services/usb/udc/udc.c **** 			return desc; // Specific descriptor found
 222              	 .loc 1 202 0
 223 006a 7B68     	 ldr r3,[r7,#4]
 224 006c 0CE0     	 b .L14
 225              	.L13:
 203:../../../platform/common/services/usb/udc/udc.c **** 		}
 204:../../../platform/common/services/usb/udc/udc.c **** 		// Go to next descriptor
 205:../../../platform/common/services/usb/udc/udc.c **** 		desc = (UDC_DESC_STORAGE usb_conf_desc_t *) ((uint8_t *) desc +
 206:../../../platform/common/services/usb/udc/udc.c **** 				desc->bLength);
 226              	 .loc 1 206 0
 227 006e 7B68     	 ldr r3,[r7,#4]
 228 0070 1B78     	 ldrb r3,[r3]
 229 0072 1A46     	 mov r2,r3
 205:../../../platform/common/services/usb/udc/udc.c **** 				desc->bLength);
 230              	 .loc 1 205 0
 231 0074 7B68     	 ldr r3,[r7,#4]
 232 0076 1344     	 add r3,r3,r2
 233 0078 7B60     	 str r3,[r7,#4]
 234              	.L10:
 195:../../../platform/common/services/usb/udc/udc.c **** 		// If new interface descriptor is found,
 235              	 .loc 1 195 0
 236 007a FA68     	 ldr r2,[r7,#12]
 237 007c 7B68     	 ldr r3,[r7,#4]
 238 007e 9A42     	 cmp r2,r3
 239 0080 EAD8     	 bhi .L15
 240 0082 00E0     	 b .L12
 241              	.L16:
 199:../../../platform/common/services/usb/udc/udc.c **** 		}
 242              	 .loc 1 199 0
 243 0084 00BF     	 nop
 244              	.L12:
 207:../../../platform/common/services/usb/udc/udc.c **** 	}
 208:../../../platform/common/services/usb/udc/udc.c **** 	return NULL; // No specific descriptor found
 245              	 .loc 1 208 0
 246 0086 0023     	 movs r3,#0
 247              	.L14:
 209:../../../platform/common/services/usb/udc/udc.c **** }
 248              	 .loc 1 209 0
 249 0088 1846     	 mov r0,r3
 250 008a 1037     	 adds r7,r7,#16
 251              	.LCFI11:
 252              	 .cfi_def_cfa_offset 8
 253 008c BD46     	 mov sp,r7
 254              	.LCFI12:
 255              	 .cfi_def_cfa_register 13
 256              	 
 257 008e 80BD     	 pop {r7,pc}
 258              	 .cfi_endproc
 259              	.LFE128:
 261              	 .align 1
 262              	 .syntax unified
 263              	 .thumb
 264              	 .thumb_func
 265              	 .fpu softvfp
 267              	udc_update_iface_desc:
 268              	.LFB129:
 210:../../../platform/common/services/usb/udc/udc.c **** #endif
 211:../../../platform/common/services/usb/udc/udc.c **** 
 212:../../../platform/common/services/usb/udc/udc.c **** /**
 213:../../../platform/common/services/usb/udc/udc.c ****  * \brief Search an interface descriptor
 214:../../../platform/common/services/usb/udc/udc.c ****  * This routine updates the internal pointer udc_ptr_iface.
 215:../../../platform/common/services/usb/udc/udc.c ****  *
 216:../../../platform/common/services/usb/udc/udc.c ****  * \param iface_num     Interface number to find in Configuration Descriptor
 217:../../../platform/common/services/usb/udc/udc.c ****  * \param setting_num   Setting number of interface to find
 218:../../../platform/common/services/usb/udc/udc.c ****  *
 219:../../../platform/common/services/usb/udc/udc.c ****  * \return 1 if found or 0 if not found
 220:../../../platform/common/services/usb/udc/udc.c ****  */
 221:../../../platform/common/services/usb/udc/udc.c **** static bool udc_update_iface_desc(uint8_t iface_num, uint8_t setting_num)
 222:../../../platform/common/services/usb/udc/udc.c **** {
 269              	 .loc 1 222 0
 270              	 .cfi_startproc
 271              	 
 272              	 
 273 0090 80B5     	 push {r7,lr}
 274              	.LCFI13:
 275              	 .cfi_def_cfa_offset 8
 276              	 .cfi_offset 7,-8
 277              	 .cfi_offset 14,-4
 278 0092 84B0     	 sub sp,sp,#16
 279              	.LCFI14:
 280              	 .cfi_def_cfa_offset 24
 281 0094 00AF     	 add r7,sp,#0
 282              	.LCFI15:
 283              	 .cfi_def_cfa_register 7
 284 0096 0346     	 mov r3,r0
 285 0098 0A46     	 mov r2,r1
 286 009a FB71     	 strb r3,[r7,#7]
 287 009c 1346     	 mov r3,r2
 288 009e BB71     	 strb r3,[r7,#6]
 223:../../../platform/common/services/usb/udc/udc.c **** 	usb_conf_desc_t UDC_DESC_STORAGE *ptr_end_desc;
 224:../../../platform/common/services/usb/udc/udc.c **** 
 225:../../../platform/common/services/usb/udc/udc.c **** 	if (0 == udc_num_configuration) {
 289              	 .loc 1 225 0
 290 00a0 1E4B     	 ldr r3,.L24
 291 00a2 1B78     	 ldrb r3,[r3]
 292 00a4 002B     	 cmp r3,#0
 293 00a6 01D1     	 bne .L18
 226:../../../platform/common/services/usb/udc/udc.c **** 		return false;
 294              	 .loc 1 226 0
 295 00a8 0023     	 movs r3,#0
 296 00aa 32E0     	 b .L19
 297              	.L18:
 227:../../../platform/common/services/usb/udc/udc.c **** 	}
 228:../../../platform/common/services/usb/udc/udc.c **** 
 229:../../../platform/common/services/usb/udc/udc.c **** 	if (iface_num >= udc_ptr_conf->desc->bNumInterfaces) {
 298              	 .loc 1 229 0
 299 00ac 1C4B     	 ldr r3,.L24+4
 300 00ae 1B68     	 ldr r3,[r3]
 301 00b0 1B68     	 ldr r3,[r3]
 302 00b2 1B79     	 ldrb r3,[r3,#4]
 303 00b4 FA79     	 ldrb r2,[r7,#7]
 304 00b6 9A42     	 cmp r2,r3
 305 00b8 01D3     	 bcc .L20
 230:../../../platform/common/services/usb/udc/udc.c **** 		return false;
 306              	 .loc 1 230 0
 307 00ba 0023     	 movs r3,#0
 308 00bc 29E0     	 b .L19
 309              	.L20:
 231:../../../platform/common/services/usb/udc/udc.c **** 	}
 232:../../../platform/common/services/usb/udc/udc.c **** 
 233:../../../platform/common/services/usb/udc/udc.c **** 	// Start at the beginning of configuration descriptor
 234:../../../platform/common/services/usb/udc/udc.c **** 	udc_ptr_iface = (UDC_DESC_STORAGE usb_iface_desc_t *)
 235:../../../platform/common/services/usb/udc/udc.c **** 			udc_ptr_conf->desc;
 310              	 .loc 1 235 0
 311 00be 184B     	 ldr r3,.L24+4
 312 00c0 1B68     	 ldr r3,[r3]
 313 00c2 1B68     	 ldr r3,[r3]
 234:../../../platform/common/services/usb/udc/udc.c **** 			udc_ptr_conf->desc;
 314              	 .loc 1 234 0
 315 00c4 174A     	 ldr r2,.L24+8
 316 00c6 1360     	 str r3,[r2]
 236:../../../platform/common/services/usb/udc/udc.c **** 
 237:../../../platform/common/services/usb/udc/udc.c **** 	// Check the end of configuration descriptor
 238:../../../platform/common/services/usb/udc/udc.c **** 	ptr_end_desc = udc_get_eof_conf();
 317              	 .loc 1 238 0
 318 00c8 FFF7A4FF 	 bl udc_get_eof_conf
 319 00cc F860     	 str r0,[r7,#12]
 239:../../../platform/common/services/usb/udc/udc.c **** 	while (ptr_end_desc >
 320              	 .loc 1 239 0
 321 00ce 1AE0     	 b .L21
 322              	.L23:
 240:../../../platform/common/services/usb/udc/udc.c **** 			(UDC_DESC_STORAGE usb_conf_desc_t *) udc_ptr_iface) {
 241:../../../platform/common/services/usb/udc/udc.c **** 		if (USB_DT_INTERFACE == udc_ptr_iface->bDescriptorType) {
 323              	 .loc 1 241 0
 324 00d0 144B     	 ldr r3,.L24+8
 325 00d2 1B68     	 ldr r3,[r3]
 326 00d4 5B78     	 ldrb r3,[r3,#1]
 327 00d6 042B     	 cmp r3,#4
 328 00d8 0DD1     	 bne .L22
 242:../../../platform/common/services/usb/udc/udc.c **** 			// A interface descriptor is found
 243:../../../platform/common/services/usb/udc/udc.c **** 			// Check interface and alternate setting number
 244:../../../platform/common/services/usb/udc/udc.c **** 			if ((iface_num == udc_ptr_iface->bInterfaceNumber) &&
 329              	 .loc 1 244 0
 330 00da 124B     	 ldr r3,.L24+8
 331 00dc 1B68     	 ldr r3,[r3]
 332 00de 9B78     	 ldrb r3,[r3,#2]
 333 00e0 FA79     	 ldrb r2,[r7,#7]
 334 00e2 9A42     	 cmp r2,r3
 335 00e4 07D1     	 bne .L22
 245:../../../platform/common/services/usb/udc/udc.c **** 					(setting_num ==
 246:../../../platform/common/services/usb/udc/udc.c **** 					udc_ptr_iface->bAlternateSetting)) {
 336              	 .loc 1 246 0 discriminator 1
 337 00e6 0F4B     	 ldr r3,.L24+8
 338 00e8 1B68     	 ldr r3,[r3]
 339 00ea DB78     	 ldrb r3,[r3,#3]
 244:../../../platform/common/services/usb/udc/udc.c **** 					(setting_num ==
 340              	 .loc 1 244 0 discriminator 1
 341 00ec BA79     	 ldrb r2,[r7,#6]
 342 00ee 9A42     	 cmp r2,r3
 343 00f0 01D1     	 bne .L22
 247:../../../platform/common/services/usb/udc/udc.c **** 				return true; // Interface found
 344              	 .loc 1 247 0
 345 00f2 0123     	 movs r3,#1
 346 00f4 0DE0     	 b .L19
 347              	.L22:
 248:../../../platform/common/services/usb/udc/udc.c **** 			}
 249:../../../platform/common/services/usb/udc/udc.c **** 		}
 250:../../../platform/common/services/usb/udc/udc.c **** 		// Go to next descriptor
 251:../../../platform/common/services/usb/udc/udc.c **** 		udc_ptr_iface = (UDC_DESC_STORAGE usb_iface_desc_t *) (
 348              	 .loc 1 251 0
 349 00f6 0B4B     	 ldr r3,.L24+8
 350 00f8 1B68     	 ldr r3,[r3]
 252:../../../platform/common/services/usb/udc/udc.c **** 				(uint8_t *) udc_ptr_iface +
 253:../../../platform/common/services/usb/udc/udc.c **** 				udc_ptr_iface->bLength);
 351              	 .loc 1 253 0
 352 00fa 0A4A     	 ldr r2,.L24+8
 353 00fc 1268     	 ldr r2,[r2]
 354 00fe 1278     	 ldrb r2,[r2]
 251:../../../platform/common/services/usb/udc/udc.c **** 				(uint8_t *) udc_ptr_iface +
 355              	 .loc 1 251 0
 356 0100 1344     	 add r3,r3,r2
 357 0102 084A     	 ldr r2,.L24+8
 358 0104 1360     	 str r3,[r2]
 359              	.L21:
 240:../../../platform/common/services/usb/udc/udc.c **** 		if (USB_DT_INTERFACE == udc_ptr_iface->bDescriptorType) {
 360              	 .loc 1 240 0
 361 0106 074B     	 ldr r3,.L24+8
 362 0108 1B68     	 ldr r3,[r3]
 239:../../../platform/common/services/usb/udc/udc.c **** 			(UDC_DESC_STORAGE usb_conf_desc_t *) udc_ptr_iface) {
 363              	 .loc 1 239 0
 364 010a FA68     	 ldr r2,[r7,#12]
 365 010c 9A42     	 cmp r2,r3
 366 010e DFD8     	 bhi .L23
 254:../../../platform/common/services/usb/udc/udc.c **** 	}
 255:../../../platform/common/services/usb/udc/udc.c **** 	return false; // Interface not found
 367              	 .loc 1 255 0
 368 0110 0023     	 movs r3,#0
 369              	.L19:
 256:../../../platform/common/services/usb/udc/udc.c **** }
 370              	 .loc 1 256 0
 371 0112 1846     	 mov r0,r3
 372 0114 1037     	 adds r7,r7,#16
 373              	.LCFI16:
 374              	 .cfi_def_cfa_offset 8
 375 0116 BD46     	 mov sp,r7
 376              	.LCFI17:
 377              	 .cfi_def_cfa_register 13
 378              	 
 379 0118 80BD     	 pop {r7,pc}
 380              	.L25:
 381 011a 00BF     	 .align 2
 382              	.L24:
 383 011c 00000000 	 .word udc_num_configuration
 384 0120 00000000 	 .word udc_ptr_conf
 385 0124 00000000 	 .word udc_ptr_iface
 386              	 .cfi_endproc
 387              	.LFE129:
 389              	 .align 1
 390              	 .syntax unified
 391              	 .thumb
 392              	 .thumb_func
 393              	 .fpu softvfp
 395              	udc_iface_disable:
 396              	.LFB130:
 257:../../../platform/common/services/usb/udc/udc.c **** 
 258:../../../platform/common/services/usb/udc/udc.c **** /**
 259:../../../platform/common/services/usb/udc/udc.c ****  * \brief Disables an usb device interface (UDI)
 260:../../../platform/common/services/usb/udc/udc.c ****  * This routine call the UDI corresponding to interface number
 261:../../../platform/common/services/usb/udc/udc.c ****  *
 262:../../../platform/common/services/usb/udc/udc.c ****  * \param iface_num     Interface number to disable
 263:../../../platform/common/services/usb/udc/udc.c ****  *
 264:../../../platform/common/services/usb/udc/udc.c ****  * \return 1 if it is done or 0 if interface is not found
 265:../../../platform/common/services/usb/udc/udc.c ****  */
 266:../../../platform/common/services/usb/udc/udc.c **** static bool udc_iface_disable(uint8_t iface_num)
 267:../../../platform/common/services/usb/udc/udc.c **** {
 397              	 .loc 1 267 0
 398              	 .cfi_startproc
 399              	 
 400              	 
 401 0128 80B5     	 push {r7,lr}
 402              	.LCFI18:
 403              	 .cfi_def_cfa_offset 8
 404              	 .cfi_offset 7,-8
 405              	 .cfi_offset 14,-4
 406 012a 84B0     	 sub sp,sp,#16
 407              	.LCFI19:
 408              	 .cfi_def_cfa_offset 24
 409 012c 00AF     	 add r7,sp,#0
 410              	.LCFI20:
 411              	 .cfi_def_cfa_register 7
 412 012e 0346     	 mov r3,r0
 413 0130 FB71     	 strb r3,[r7,#7]
 268:../../../platform/common/services/usb/udc/udc.c **** 	udi_api_t UDC_DESC_STORAGE *udi_api;
 269:../../../platform/common/services/usb/udc/udc.c **** 
 270:../../../platform/common/services/usb/udc/udc.c **** 	// Select first alternate setting of the interface
 271:../../../platform/common/services/usb/udc/udc.c **** 	// to update udc_ptr_iface before call iface->getsetting()
 272:../../../platform/common/services/usb/udc/udc.c **** 	if (!udc_update_iface_desc(iface_num, 0)) {
 414              	 .loc 1 272 0
 415 0132 FB79     	 ldrb r3,[r7,#7]
 416 0134 0021     	 movs r1,#0
 417 0136 1846     	 mov r0,r3
 418 0138 FFF7AAFF 	 bl udc_update_iface_desc
 419 013c 0346     	 mov r3,r0
 420 013e 83F00103 	 eor r3,r3,#1
 421 0142 DBB2     	 uxtb r3,r3
 422 0144 002B     	 cmp r3,#0
 423 0146 01D0     	 beq .L27
 273:../../../platform/common/services/usb/udc/udc.c **** 		return false;
 424              	 .loc 1 273 0
 425 0148 0023     	 movs r3,#0
 426 014a 2FE0     	 b .L28
 427              	.L27:
 274:../../../platform/common/services/usb/udc/udc.c **** 	}
 275:../../../platform/common/services/usb/udc/udc.c **** 
 276:../../../platform/common/services/usb/udc/udc.c **** 	// Select the interface with the current alternate setting
 277:../../../platform/common/services/usb/udc/udc.c **** 	udi_api = udc_ptr_conf->udi_apis[iface_num];
 428              	 .loc 1 277 0
 429 014c 194B     	 ldr r3,.L35
 430 014e 1B68     	 ldr r3,[r3]
 431 0150 5A68     	 ldr r2,[r3,#4]
 432 0152 FB79     	 ldrb r3,[r7,#7]
 433 0154 9B00     	 lsls r3,r3,#2
 434 0156 1344     	 add r3,r3,r2
 435 0158 1B68     	 ldr r3,[r3]
 436 015a BB60     	 str r3,[r7,#8]
 278:../../../platform/common/services/usb/udc/udc.c **** 
 279:../../../platform/common/services/usb/udc/udc.c **** #if (0!=USB_DEVICE_MAX_EP)
 280:../../../platform/common/services/usb/udc/udc.c **** 	if (!udc_update_iface_desc(iface_num, udi_api->getsetting())) {
 437              	 .loc 1 280 0
 438 015c BB68     	 ldr r3,[r7,#8]
 439 015e DB68     	 ldr r3,[r3,#12]
 440 0160 9847     	 blx r3
 441              	.LVL0:
 442 0162 0346     	 mov r3,r0
 443 0164 1A46     	 mov r2,r3
 444 0166 FB79     	 ldrb r3,[r7,#7]
 445 0168 1146     	 mov r1,r2
 446 016a 1846     	 mov r0,r3
 447 016c FFF790FF 	 bl udc_update_iface_desc
 448 0170 0346     	 mov r3,r0
 449 0172 83F00103 	 eor r3,r3,#1
 450 0176 DBB2     	 uxtb r3,r3
 451 0178 002B     	 cmp r3,#0
 452 017a 01D0     	 beq .L29
 281:../../../platform/common/services/usb/udc/udc.c **** 		return false;
 453              	 .loc 1 281 0
 454 017c 0023     	 movs r3,#0
 455 017e 15E0     	 b .L28
 456              	.L29:
 457              	.LBB2:
 282:../../../platform/common/services/usb/udc/udc.c **** 	}
 283:../../../platform/common/services/usb/udc/udc.c **** 
 284:../../../platform/common/services/usb/udc/udc.c **** 	// Start at the beginning of interface descriptor
 285:../../../platform/common/services/usb/udc/udc.c **** 	{
 286:../../../platform/common/services/usb/udc/udc.c **** 		usb_ep_desc_t UDC_DESC_STORAGE *ep_desc;
 287:../../../platform/common/services/usb/udc/udc.c **** 		ep_desc = (UDC_DESC_STORAGE usb_ep_desc_t *) udc_ptr_iface;
 458              	 .loc 1 287 0
 459 0180 0D4B     	 ldr r3,.L35+4
 460 0182 1B68     	 ldr r3,[r3]
 461 0184 FB60     	 str r3,[r7,#12]
 462              	.L32:
 288:../../../platform/common/services/usb/udc/udc.c **** 		while (1) {
 289:../../../platform/common/services/usb/udc/udc.c **** 			// Search Endpoint descriptor included in global interface descriptor
 290:../../../platform/common/services/usb/udc/udc.c **** 			ep_desc = (UDC_DESC_STORAGE usb_ep_desc_t *)
 463              	 .loc 1 290 0
 464 0186 0521     	 movs r1,#5
 465 0188 F868     	 ldr r0,[r7,#12]
 466 018a FFF755FF 	 bl udc_next_desc_in_iface
 467 018e F860     	 str r0,[r7,#12]
 291:../../../platform/common/services/usb/udc/udc.c **** 					udc_next_desc_in_iface((UDC_DESC_STORAGE
 292:../../../platform/common/services/usb/udc/udc.c **** 					usb_conf_desc_t *)
 293:../../../platform/common/services/usb/udc/udc.c **** 					ep_desc, USB_DT_ENDPOINT);
 294:../../../platform/common/services/usb/udc/udc.c **** 			if (NULL == ep_desc) {
 468              	 .loc 1 294 0
 469 0190 FB68     	 ldr r3,[r7,#12]
 470 0192 002B     	 cmp r3,#0
 471 0194 05D0     	 beq .L34
 295:../../../platform/common/services/usb/udc/udc.c **** 				break;
 296:../../../platform/common/services/usb/udc/udc.c **** 			}
 297:../../../platform/common/services/usb/udc/udc.c **** 			// Free the endpoint used by the interface
 298:../../../platform/common/services/usb/udc/udc.c **** 			udd_ep_free(ep_desc->bEndpointAddress);
 472              	 .loc 1 298 0
 473 0196 FB68     	 ldr r3,[r7,#12]
 474 0198 9B78     	 ldrb r3,[r3,#2]
 475 019a 1846     	 mov r0,r3
 476 019c 074B     	 ldr r3,.L35+8
 477 019e 9847     	 blx r3
 478              	.LVL1:
 290:../../../platform/common/services/usb/udc/udc.c **** 					udc_next_desc_in_iface((UDC_DESC_STORAGE
 479              	 .loc 1 290 0
 480 01a0 F1E7     	 b .L32
 481              	.L34:
 295:../../../platform/common/services/usb/udc/udc.c **** 				break;
 482              	 .loc 1 295 0
 483 01a2 00BF     	 nop
 484              	.LBE2:
 299:../../../platform/common/services/usb/udc/udc.c **** 		}
 300:../../../platform/common/services/usb/udc/udc.c **** 	}
 301:../../../platform/common/services/usb/udc/udc.c **** #endif
 302:../../../platform/common/services/usb/udc/udc.c **** 
 303:../../../platform/common/services/usb/udc/udc.c **** 	// Disable interface
 304:../../../platform/common/services/usb/udc/udc.c **** 	udi_api->disable();
 485              	 .loc 1 304 0
 486 01a4 BB68     	 ldr r3,[r7,#8]
 487 01a6 5B68     	 ldr r3,[r3,#4]
 488 01a8 9847     	 blx r3
 489              	.LVL2:
 305:../../../platform/common/services/usb/udc/udc.c **** 	return true;
 490              	 .loc 1 305 0
 491 01aa 0123     	 movs r3,#1
 492              	.L28:
 306:../../../platform/common/services/usb/udc/udc.c **** }
 493              	 .loc 1 306 0
 494 01ac 1846     	 mov r0,r3
 495 01ae 1037     	 adds r7,r7,#16
 496              	.LCFI21:
 497              	 .cfi_def_cfa_offset 8
 498 01b0 BD46     	 mov sp,r7
 499              	.LCFI22:
 500              	 .cfi_def_cfa_register 13
 501              	 
 502 01b2 80BD     	 pop {r7,pc}
 503              	.L36:
 504              	 .align 2
 505              	.L35:
 506 01b4 00000000 	 .word udc_ptr_conf
 507 01b8 00000000 	 .word udc_ptr_iface
 508 01bc 00000000 	 .word udd_ep_free
 509              	 .cfi_endproc
 510              	.LFE130:
 512              	 .align 1
 513              	 .syntax unified
 514              	 .thumb
 515              	 .thumb_func
 516              	 .fpu softvfp
 518              	udc_iface_enable:
 519              	.LFB131:
 307:../../../platform/common/services/usb/udc/udc.c **** 
 308:../../../platform/common/services/usb/udc/udc.c **** /**
 309:../../../platform/common/services/usb/udc/udc.c ****  * \brief Enables an usb device interface (UDI)
 310:../../../platform/common/services/usb/udc/udc.c ****  * This routine calls the UDI corresponding
 311:../../../platform/common/services/usb/udc/udc.c ****  * to the interface and setting number.
 312:../../../platform/common/services/usb/udc/udc.c ****  *
 313:../../../platform/common/services/usb/udc/udc.c ****  * \param iface_num     Interface number to enable
 314:../../../platform/common/services/usb/udc/udc.c ****  * \param setting_num   Setting number to enable
 315:../../../platform/common/services/usb/udc/udc.c ****  *
 316:../../../platform/common/services/usb/udc/udc.c ****  * \return 1 if it is done or 0 if interface is not found
 317:../../../platform/common/services/usb/udc/udc.c ****  */
 318:../../../platform/common/services/usb/udc/udc.c **** static bool udc_iface_enable(uint8_t iface_num, uint8_t setting_num)
 319:../../../platform/common/services/usb/udc/udc.c **** {
 520              	 .loc 1 319 0
 521              	 .cfi_startproc
 522              	 
 523              	 
 524 01c0 80B5     	 push {r7,lr}
 525              	.LCFI23:
 526              	 .cfi_def_cfa_offset 8
 527              	 .cfi_offset 7,-8
 528              	 .cfi_offset 14,-4
 529 01c2 84B0     	 sub sp,sp,#16
 530              	.LCFI24:
 531              	 .cfi_def_cfa_offset 24
 532 01c4 00AF     	 add r7,sp,#0
 533              	.LCFI25:
 534              	 .cfi_def_cfa_register 7
 535 01c6 0346     	 mov r3,r0
 536 01c8 0A46     	 mov r2,r1
 537 01ca FB71     	 strb r3,[r7,#7]
 538 01cc 1346     	 mov r3,r2
 539 01ce BB71     	 strb r3,[r7,#6]
 320:../../../platform/common/services/usb/udc/udc.c **** 	// Select the interface descriptor
 321:../../../platform/common/services/usb/udc/udc.c **** 	if (!udc_update_iface_desc(iface_num, setting_num)) {
 540              	 .loc 1 321 0
 541 01d0 BA79     	 ldrb r2,[r7,#6]
 542 01d2 FB79     	 ldrb r3,[r7,#7]
 543 01d4 1146     	 mov r1,r2
 544 01d6 1846     	 mov r0,r3
 545 01d8 FFF75AFF 	 bl udc_update_iface_desc
 546 01dc 0346     	 mov r3,r0
 547 01de 83F00103 	 eor r3,r3,#1
 548 01e2 DBB2     	 uxtb r3,r3
 549 01e4 002B     	 cmp r3,#0
 550 01e6 01D0     	 beq .L38
 322:../../../platform/common/services/usb/udc/udc.c **** 		return false;
 551              	 .loc 1 322 0
 552 01e8 0023     	 movs r3,#0
 553 01ea 27E0     	 b .L39
 554              	.L38:
 323:../../../platform/common/services/usb/udc/udc.c **** 	}
 324:../../../platform/common/services/usb/udc/udc.c **** 
 325:../../../platform/common/services/usb/udc/udc.c **** #if (0!=USB_DEVICE_MAX_EP)
 326:../../../platform/common/services/usb/udc/udc.c **** 	usb_ep_desc_t UDC_DESC_STORAGE *ep_desc;
 327:../../../platform/common/services/usb/udc/udc.c **** 
 328:../../../platform/common/services/usb/udc/udc.c **** 	// Start at the beginning of the global interface descriptor
 329:../../../platform/common/services/usb/udc/udc.c **** 	ep_desc = (UDC_DESC_STORAGE usb_ep_desc_t *) udc_ptr_iface;
 555              	 .loc 1 329 0
 556 01ec 154B     	 ldr r3,.L46
 557 01ee 1B68     	 ldr r3,[r3]
 558 01f0 FB60     	 str r3,[r7,#12]
 559              	.L43:
 330:../../../platform/common/services/usb/udc/udc.c **** 	while (1) {
 331:../../../platform/common/services/usb/udc/udc.c **** 		// Search Endpoint descriptor included in the global interface descriptor
 332:../../../platform/common/services/usb/udc/udc.c **** 		ep_desc = (UDC_DESC_STORAGE usb_ep_desc_t *)
 560              	 .loc 1 332 0
 561 01f2 0521     	 movs r1,#5
 562 01f4 F868     	 ldr r0,[r7,#12]
 563 01f6 FFF71FFF 	 bl udc_next_desc_in_iface
 564 01fa F860     	 str r0,[r7,#12]
 333:../../../platform/common/services/usb/udc/udc.c **** 				udc_next_desc_in_iface((UDC_DESC_STORAGE
 334:../../../platform/common/services/usb/udc/udc.c **** 						usb_conf_desc_t *) ep_desc,
 335:../../../platform/common/services/usb/udc/udc.c **** 				USB_DT_ENDPOINT);
 336:../../../platform/common/services/usb/udc/udc.c **** 		if (NULL == ep_desc)
 565              	 .loc 1 336 0
 566 01fc FB68     	 ldr r3,[r7,#12]
 567 01fe 002B     	 cmp r3,#0
 568 0200 11D0     	 beq .L45
 337:../../../platform/common/services/usb/udc/udc.c **** 			break;
 338:../../../platform/common/services/usb/udc/udc.c **** 		// Alloc the endpoint used by the interface
 339:../../../platform/common/services/usb/udc/udc.c **** 		if (!udd_ep_alloc(ep_desc->bEndpointAddress,
 569              	 .loc 1 339 0
 570 0202 FB68     	 ldr r3,[r7,#12]
 571 0204 9878     	 ldrb r0,[r3,#2]
 572 0206 FB68     	 ldr r3,[r7,#12]
 573 0208 D978     	 ldrb r1,[r3,#3]
 574 020a FB68     	 ldr r3,[r7,#12]
 575 020c 9B88     	 ldrh r3,[r3,#4]
 576 020e 9BB2     	 uxth r3,r3
 577 0210 1A46     	 mov r2,r3
 578 0212 0D4B     	 ldr r3,.L46+4
 579 0214 9847     	 blx r3
 580              	.LVL3:
 581 0216 0346     	 mov r3,r0
 582 0218 83F00103 	 eor r3,r3,#1
 583 021c DBB2     	 uxtb r3,r3
 584 021e 002B     	 cmp r3,#0
 585 0220 E7D0     	 beq .L43
 340:../../../platform/common/services/usb/udc/udc.c **** 				ep_desc->bmAttributes,
 341:../../../platform/common/services/usb/udc/udc.c **** 				le16_to_cpu
 342:../../../platform/common/services/usb/udc/udc.c **** 				(ep_desc->wMaxPacketSize))) {
 343:../../../platform/common/services/usb/udc/udc.c **** 			return false;
 586              	 .loc 1 343 0
 587 0222 0023     	 movs r3,#0
 588 0224 0AE0     	 b .L39
 589              	.L45:
 337:../../../platform/common/services/usb/udc/udc.c **** 			break;
 590              	 .loc 1 337 0
 591 0226 00BF     	 nop
 344:../../../platform/common/services/usb/udc/udc.c **** 		}
 345:../../../platform/common/services/usb/udc/udc.c **** 	}
 346:../../../platform/common/services/usb/udc/udc.c **** #endif
 347:../../../platform/common/services/usb/udc/udc.c **** 	// Enable the interface
 348:../../../platform/common/services/usb/udc/udc.c **** 	return udc_ptr_conf->udi_apis[iface_num]->enable();
 592              	 .loc 1 348 0
 593 0228 084B     	 ldr r3,.L46+8
 594 022a 1B68     	 ldr r3,[r3]
 595 022c 5A68     	 ldr r2,[r3,#4]
 596 022e FB79     	 ldrb r3,[r7,#7]
 597 0230 9B00     	 lsls r3,r3,#2
 598 0232 1344     	 add r3,r3,r2
 599 0234 1B68     	 ldr r3,[r3]
 600 0236 1B68     	 ldr r3,[r3]
 601 0238 9847     	 blx r3
 602              	.LVL4:
 603 023a 0346     	 mov r3,r0
 604              	.L39:
 349:../../../platform/common/services/usb/udc/udc.c **** }
 605              	 .loc 1 349 0
 606 023c 1846     	 mov r0,r3
 607 023e 1037     	 adds r7,r7,#16
 608              	.LCFI26:
 609              	 .cfi_def_cfa_offset 8
 610 0240 BD46     	 mov sp,r7
 611              	.LCFI27:
 612              	 .cfi_def_cfa_register 13
 613              	 
 614 0242 80BD     	 pop {r7,pc}
 615              	.L47:
 616              	 .align 2
 617              	.L46:
 618 0244 00000000 	 .word udc_ptr_iface
 619 0248 00000000 	 .word udd_ep_alloc
 620 024c 00000000 	 .word udc_ptr_conf
 621              	 .cfi_endproc
 622              	.LFE131:
 624              	 .align 1
 625              	 .global udc_start
 626              	 .syntax unified
 627              	 .thumb
 628              	 .thumb_func
 629              	 .fpu softvfp
 631              	udc_start:
 632              	.LFB132:
 350:../../../platform/common/services/usb/udc/udc.c **** 
 351:../../../platform/common/services/usb/udc/udc.c **** /*! \brief Start the USB Device stack
 352:../../../platform/common/services/usb/udc/udc.c ****  */
 353:../../../platform/common/services/usb/udc/udc.c **** void udc_start(void)
 354:../../../platform/common/services/usb/udc/udc.c **** {
 633              	 .loc 1 354 0
 634              	 .cfi_startproc
 635              	 
 636              	 
 637 0250 80B5     	 push {r7,lr}
 638              	.LCFI28:
 639              	 .cfi_def_cfa_offset 8
 640              	 .cfi_offset 7,-8
 641              	 .cfi_offset 14,-4
 642 0252 00AF     	 add r7,sp,#0
 643              	.LCFI29:
 644              	 .cfi_def_cfa_register 7
 355:../../../platform/common/services/usb/udc/udc.c **** 	udd_enable();
 645              	 .loc 1 355 0
 646 0254 014B     	 ldr r3,.L49
 647 0256 9847     	 blx r3
 648              	.LVL5:
 356:../../../platform/common/services/usb/udc/udc.c **** }
 649              	 .loc 1 356 0
 650 0258 00BF     	 nop
 651 025a 80BD     	 pop {r7,pc}
 652              	.L50:
 653              	 .align 2
 654              	.L49:
 655 025c 00000000 	 .word udd_enable
 656              	 .cfi_endproc
 657              	.LFE132:
 659              	 .align 1
 660              	 .global udc_stop
 661              	 .syntax unified
 662              	 .thumb
 663              	 .thumb_func
 664              	 .fpu softvfp
 666              	udc_stop:
 667              	.LFB133:
 357:../../../platform/common/services/usb/udc/udc.c **** 
 358:../../../platform/common/services/usb/udc/udc.c **** /*! \brief Stop the USB Device stack
 359:../../../platform/common/services/usb/udc/udc.c ****  */
 360:../../../platform/common/services/usb/udc/udc.c **** void udc_stop(void)
 361:../../../platform/common/services/usb/udc/udc.c **** {
 668              	 .loc 1 361 0
 669              	 .cfi_startproc
 670              	 
 671              	 
 672 0260 80B5     	 push {r7,lr}
 673              	.LCFI30:
 674              	 .cfi_def_cfa_offset 8
 675              	 .cfi_offset 7,-8
 676              	 .cfi_offset 14,-4
 677 0262 00AF     	 add r7,sp,#0
 678              	.LCFI31:
 679              	 .cfi_def_cfa_register 7
 362:../../../platform/common/services/usb/udc/udc.c **** 	udd_disable();
 680              	 .loc 1 362 0
 681 0264 024B     	 ldr r3,.L52
 682 0266 9847     	 blx r3
 683              	.LVL6:
 363:../../../platform/common/services/usb/udc/udc.c **** 	udc_reset();
 684              	 .loc 1 363 0
 685 0268 FFF7FEFF 	 bl udc_reset
 364:../../../platform/common/services/usb/udc/udc.c **** }
 686              	 .loc 1 364 0
 687 026c 00BF     	 nop
 688 026e 80BD     	 pop {r7,pc}
 689              	.L53:
 690              	 .align 2
 691              	.L52:
 692 0270 00000000 	 .word udd_disable
 693              	 .cfi_endproc
 694              	.LFE133:
 696              	 .align 1
 697              	 .global udc_reset
 698              	 .syntax unified
 699              	 .thumb
 700              	 .thumb_func
 701              	 .fpu softvfp
 703              	udc_reset:
 704              	.LFB134:
 365:../../../platform/common/services/usb/udc/udc.c **** 
 366:../../../platform/common/services/usb/udc/udc.c **** /**
 367:../../../platform/common/services/usb/udc/udc.c ****  * \brief Reset the current configuration of the USB device,
 368:../../../platform/common/services/usb/udc/udc.c ****  * This routines can be called by UDD when a RESET on the USB line occurs.
 369:../../../platform/common/services/usb/udc/udc.c ****  */
 370:../../../platform/common/services/usb/udc/udc.c **** void udc_reset(void)
 371:../../../platform/common/services/usb/udc/udc.c **** {
 705              	 .loc 1 371 0
 706              	 .cfi_startproc
 707              	 
 708              	 
 709 0274 80B5     	 push {r7,lr}
 710              	.LCFI32:
 711              	 .cfi_def_cfa_offset 8
 712              	 .cfi_offset 7,-8
 713              	 .cfi_offset 14,-4
 714 0276 82B0     	 sub sp,sp,#8
 715              	.LCFI33:
 716              	 .cfi_def_cfa_offset 16
 717 0278 00AF     	 add r7,sp,#0
 718              	.LCFI34:
 719              	 .cfi_def_cfa_register 7
 372:../../../platform/common/services/usb/udc/udc.c **** 	uint8_t iface_num;
 373:../../../platform/common/services/usb/udc/udc.c **** 
 374:../../../platform/common/services/usb/udc/udc.c **** 	if (udc_num_configuration) {
 720              	 .loc 1 374 0
 721 027a 0F4B     	 ldr r3,.L58
 722 027c 1B78     	 ldrb r3,[r3]
 723 027e 002B     	 cmp r3,#0
 724 0280 10D0     	 beq .L55
 375:../../../platform/common/services/usb/udc/udc.c **** 		for (iface_num = 0;
 725              	 .loc 1 375 0
 726 0282 0023     	 movs r3,#0
 727 0284 FB71     	 strb r3,[r7,#7]
 728 0286 06E0     	 b .L56
 729              	.L57:
 376:../../../platform/common/services/usb/udc/udc.c **** 				iface_num < udc_ptr_conf->desc->bNumInterfaces;
 377:../../../platform/common/services/usb/udc/udc.c **** 				iface_num++) {
 378:../../../platform/common/services/usb/udc/udc.c **** 			udc_iface_disable(iface_num);
 730              	 .loc 1 378 0
 731 0288 FB79     	 ldrb r3,[r7,#7]
 732 028a 1846     	 mov r0,r3
 733 028c FFF74CFF 	 bl udc_iface_disable
 377:../../../platform/common/services/usb/udc/udc.c **** 			udc_iface_disable(iface_num);
 734              	 .loc 1 377 0
 735 0290 FB79     	 ldrb r3,[r7,#7]
 736 0292 0133     	 adds r3,r3,#1
 737 0294 FB71     	 strb r3,[r7,#7]
 738              	.L56:
 376:../../../platform/common/services/usb/udc/udc.c **** 				iface_num < udc_ptr_conf->desc->bNumInterfaces;
 739              	 .loc 1 376 0 discriminator 1
 740 0296 094B     	 ldr r3,.L58+4
 741 0298 1B68     	 ldr r3,[r3]
 742 029a 1B68     	 ldr r3,[r3]
 743 029c 1B79     	 ldrb r3,[r3,#4]
 375:../../../platform/common/services/usb/udc/udc.c **** 		for (iface_num = 0;
 744              	 .loc 1 375 0 discriminator 1
 745 029e FA79     	 ldrb r2,[r7,#7]
 746 02a0 9A42     	 cmp r2,r3
 747 02a2 F1D3     	 bcc .L57
 748              	.L55:
 379:../../../platform/common/services/usb/udc/udc.c **** 		}
 380:../../../platform/common/services/usb/udc/udc.c **** 	}
 381:../../../platform/common/services/usb/udc/udc.c **** 	udc_num_configuration = 0;
 749              	 .loc 1 381 0
 750 02a4 044B     	 ldr r3,.L58
 751 02a6 0022     	 movs r2,#0
 752 02a8 1A70     	 strb r2,[r3]
 382:../../../platform/common/services/usb/udc/udc.c **** #if (USB_CONFIG_ATTR_REMOTE_WAKEUP \
 383:../../../platform/common/services/usb/udc/udc.c **** 	== (USB_DEVICE_ATTR & USB_CONFIG_ATTR_REMOTE_WAKEUP))
 384:../../../platform/common/services/usb/udc/udc.c **** 	if (CPU_TO_LE16(USB_DEV_STATUS_REMOTEWAKEUP) & udc_device_status) {
 385:../../../platform/common/services/usb/udc/udc.c **** 		// Remote wakeup is enabled then disable it
 386:../../../platform/common/services/usb/udc/udc.c **** 		UDC_REMOTEWAKEUP_DISABLE();
 387:../../../platform/common/services/usb/udc/udc.c **** 	}
 388:../../../platform/common/services/usb/udc/udc.c **** #endif
 389:../../../platform/common/services/usb/udc/udc.c **** 	udc_device_status =
 753              	 .loc 1 389 0
 754 02aa 054B     	 ldr r3,.L58+8
 755 02ac 0122     	 movs r2,#1
 756 02ae 1A80     	 strh r2,[r3]
 390:../../../platform/common/services/usb/udc/udc.c **** #if (USB_DEVICE_ATTR & USB_CONFIG_ATTR_SELF_POWERED)
 391:../../../platform/common/services/usb/udc/udc.c **** 			CPU_TO_LE16(USB_DEV_STATUS_SELF_POWERED);
 392:../../../platform/common/services/usb/udc/udc.c **** #else
 393:../../../platform/common/services/usb/udc/udc.c **** 			CPU_TO_LE16(USB_DEV_STATUS_BUS_POWERED);
 394:../../../platform/common/services/usb/udc/udc.c **** #endif
 395:../../../platform/common/services/usb/udc/udc.c **** }
 757              	 .loc 1 395 0
 758 02b0 00BF     	 nop
 759 02b2 0837     	 adds r7,r7,#8
 760              	.LCFI35:
 761              	 .cfi_def_cfa_offset 8
 762 02b4 BD46     	 mov sp,r7
 763              	.LCFI36:
 764              	 .cfi_def_cfa_register 13
 765              	 
 766 02b6 80BD     	 pop {r7,pc}
 767              	.L59:
 768              	 .align 2
 769              	.L58:
 770 02b8 00000000 	 .word udc_num_configuration
 771 02bc 00000000 	 .word udc_ptr_conf
 772 02c0 00000000 	 .word udc_device_status
 773              	 .cfi_endproc
 774              	.LFE134:
 776              	 .align 1
 777              	 .global udc_sof_notify
 778              	 .syntax unified
 779              	 .thumb
 780              	 .thumb_func
 781              	 .fpu softvfp
 783              	udc_sof_notify:
 784              	.LFB135:
 396:../../../platform/common/services/usb/udc/udc.c **** 
 397:../../../platform/common/services/usb/udc/udc.c **** void udc_sof_notify(void)
 398:../../../platform/common/services/usb/udc/udc.c **** {
 785              	 .loc 1 398 0
 786              	 .cfi_startproc
 787              	 
 788              	 
 789 02c4 80B5     	 push {r7,lr}
 790              	.LCFI37:
 791              	 .cfi_def_cfa_offset 8
 792              	 .cfi_offset 7,-8
 793              	 .cfi_offset 14,-4
 794 02c6 82B0     	 sub sp,sp,#8
 795              	.LCFI38:
 796              	 .cfi_def_cfa_offset 16
 797 02c8 00AF     	 add r7,sp,#0
 798              	.LCFI39:
 799              	 .cfi_def_cfa_register 7
 399:../../../platform/common/services/usb/udc/udc.c **** 	uint8_t iface_num;
 400:../../../platform/common/services/usb/udc/udc.c **** 
 401:../../../platform/common/services/usb/udc/udc.c **** 	if (udc_num_configuration) {
 800              	 .loc 1 401 0
 801 02ca 144B     	 ldr r3,.L66
 802 02cc 1B78     	 ldrb r3,[r3]
 803 02ce 002B     	 cmp r3,#0
 804 02d0 1FD0     	 beq .L65
 402:../../../platform/common/services/usb/udc/udc.c **** 		for (iface_num = 0;
 805              	 .loc 1 402 0
 806 02d2 0023     	 movs r3,#0
 807 02d4 FB71     	 strb r3,[r7,#7]
 808 02d6 15E0     	 b .L62
 809              	.L64:
 403:../../../platform/common/services/usb/udc/udc.c **** 				iface_num < udc_ptr_conf->desc->bNumInterfaces;
 404:../../../platform/common/services/usb/udc/udc.c **** 				iface_num++) {
 405:../../../platform/common/services/usb/udc/udc.c **** 			if (udc_ptr_conf->udi_apis[iface_num]->sof_notify != NULL) {
 810              	 .loc 1 405 0
 811 02d8 114B     	 ldr r3,.L66+4
 812 02da 1B68     	 ldr r3,[r3]
 813 02dc 5A68     	 ldr r2,[r3,#4]
 814 02de FB79     	 ldrb r3,[r7,#7]
 815 02e0 9B00     	 lsls r3,r3,#2
 816 02e2 1344     	 add r3,r3,r2
 817 02e4 1B68     	 ldr r3,[r3]
 818 02e6 1B69     	 ldr r3,[r3,#16]
 819 02e8 002B     	 cmp r3,#0
 820 02ea 08D0     	 beq .L63
 406:../../../platform/common/services/usb/udc/udc.c **** 				udc_ptr_conf->udi_apis[iface_num]->sof_notify();
 821              	 .loc 1 406 0
 822 02ec 0C4B     	 ldr r3,.L66+4
 823 02ee 1B68     	 ldr r3,[r3]
 824 02f0 5A68     	 ldr r2,[r3,#4]
 825 02f2 FB79     	 ldrb r3,[r7,#7]
 826 02f4 9B00     	 lsls r3,r3,#2
 827 02f6 1344     	 add r3,r3,r2
 828 02f8 1B68     	 ldr r3,[r3]
 829 02fa 1B69     	 ldr r3,[r3,#16]
 830 02fc 9847     	 blx r3
 831              	.LVL7:
 832              	.L63:
 404:../../../platform/common/services/usb/udc/udc.c **** 			if (udc_ptr_conf->udi_apis[iface_num]->sof_notify != NULL) {
 833              	 .loc 1 404 0
 834 02fe FB79     	 ldrb r3,[r7,#7]
 835 0300 0133     	 adds r3,r3,#1
 836 0302 FB71     	 strb r3,[r7,#7]
 837              	.L62:
 403:../../../platform/common/services/usb/udc/udc.c **** 				iface_num < udc_ptr_conf->desc->bNumInterfaces;
 838              	 .loc 1 403 0 discriminator 1
 839 0304 064B     	 ldr r3,.L66+4
 840 0306 1B68     	 ldr r3,[r3]
 841 0308 1B68     	 ldr r3,[r3]
 842 030a 1B79     	 ldrb r3,[r3,#4]
 402:../../../platform/common/services/usb/udc/udc.c **** 				iface_num < udc_ptr_conf->desc->bNumInterfaces;
 843              	 .loc 1 402 0 discriminator 1
 844 030c FA79     	 ldrb r2,[r7,#7]
 845 030e 9A42     	 cmp r2,r3
 846 0310 E2D3     	 bcc .L64
 847              	.L65:
 407:../../../platform/common/services/usb/udc/udc.c **** 			}
 408:../../../platform/common/services/usb/udc/udc.c **** 		}
 409:../../../platform/common/services/usb/udc/udc.c **** 	}
 410:../../../platform/common/services/usb/udc/udc.c **** }
 848              	 .loc 1 410 0
 849 0312 00BF     	 nop
 850 0314 0837     	 adds r7,r7,#8
 851              	.LCFI40:
 852              	 .cfi_def_cfa_offset 8
 853 0316 BD46     	 mov sp,r7
 854              	.LCFI41:
 855              	 .cfi_def_cfa_register 13
 856              	 
 857 0318 80BD     	 pop {r7,pc}
 858              	.L67:
 859 031a 00BF     	 .align 2
 860              	.L66:
 861 031c 00000000 	 .word udc_num_configuration
 862 0320 00000000 	 .word udc_ptr_conf
 863              	 .cfi_endproc
 864              	.LFE135:
 866              	 .align 1
 867              	 .syntax unified
 868              	 .thumb
 869              	 .thumb_func
 870              	 .fpu softvfp
 872              	udc_req_std_dev_get_status:
 873              	.LFB136:
 411:../../../platform/common/services/usb/udc/udc.c **** 
 412:../../../platform/common/services/usb/udc/udc.c **** /**
 413:../../../platform/common/services/usb/udc/udc.c ****  * \brief Standard device request to get device status
 414:../../../platform/common/services/usb/udc/udc.c ****  *
 415:../../../platform/common/services/usb/udc/udc.c ****  * \return true if success
 416:../../../platform/common/services/usb/udc/udc.c ****  */
 417:../../../platform/common/services/usb/udc/udc.c **** static bool udc_req_std_dev_get_status(void)
 418:../../../platform/common/services/usb/udc/udc.c **** {
 874              	 .loc 1 418 0
 875              	 .cfi_startproc
 876              	 
 877              	 
 878 0324 80B5     	 push {r7,lr}
 879              	.LCFI42:
 880              	 .cfi_def_cfa_offset 8
 881              	 .cfi_offset 7,-8
 882              	 .cfi_offset 14,-4
 883 0326 00AF     	 add r7,sp,#0
 884              	.LCFI43:
 885              	 .cfi_def_cfa_register 7
 419:../../../platform/common/services/usb/udc/udc.c **** 	if (udd_g_ctrlreq.req.wLength != sizeof(udc_device_status)) {
 886              	 .loc 1 419 0
 887 0328 064B     	 ldr r3,.L71
 888 032a DB88     	 ldrh r3,[r3,#6]
 889 032c 022B     	 cmp r3,#2
 890 032e 01D0     	 beq .L69
 420:../../../platform/common/services/usb/udc/udc.c **** 		return false;
 891              	 .loc 1 420 0
 892 0330 0023     	 movs r3,#0
 893 0332 04E0     	 b .L70
 894              	.L69:
 421:../../../platform/common/services/usb/udc/udc.c **** 	}
 422:../../../platform/common/services/usb/udc/udc.c **** 
 423:../../../platform/common/services/usb/udc/udc.c **** 	udd_set_setup_payload( (uint8_t *) & udc_device_status,
 895              	 .loc 1 423 0
 896 0334 0221     	 movs r1,#2
 897 0336 0448     	 ldr r0,.L71+4
 898 0338 044B     	 ldr r3,.L71+8
 899 033a 9847     	 blx r3
 900              	.LVL8:
 424:../../../platform/common/services/usb/udc/udc.c **** 			sizeof(udc_device_status));
 425:../../../platform/common/services/usb/udc/udc.c **** 	return true;
 901              	 .loc 1 425 0
 902 033c 0123     	 movs r3,#1
 903              	.L70:
 426:../../../platform/common/services/usb/udc/udc.c **** }
 904              	 .loc 1 426 0
 905 033e 1846     	 mov r0,r3
 906 0340 80BD     	 pop {r7,pc}
 907              	.L72:
 908 0342 00BF     	 .align 2
 909              	.L71:
 910 0344 00000000 	 .word udd_g_ctrlreq
 911 0348 00000000 	 .word udc_device_status
 912 034c 00000000 	 .word udd_set_setup_payload
 913              	 .cfi_endproc
 914              	.LFE136:
 916              	 .align 1
 917              	 .syntax unified
 918              	 .thumb
 919              	 .thumb_func
 920              	 .fpu softvfp
 922              	udc_req_std_ep_get_status:
 923              	.LFB137:
 427:../../../platform/common/services/usb/udc/udc.c **** 
 428:../../../platform/common/services/usb/udc/udc.c **** #if (0!=USB_DEVICE_MAX_EP)
 429:../../../platform/common/services/usb/udc/udc.c **** /**
 430:../../../platform/common/services/usb/udc/udc.c ****  * \brief Standard endpoint request to get endpoint status
 431:../../../platform/common/services/usb/udc/udc.c ****  *
 432:../../../platform/common/services/usb/udc/udc.c ****  * \return true if success
 433:../../../platform/common/services/usb/udc/udc.c ****  */
 434:../../../platform/common/services/usb/udc/udc.c **** static bool udc_req_std_ep_get_status(void)
 435:../../../platform/common/services/usb/udc/udc.c **** {
 924              	 .loc 1 435 0
 925              	 .cfi_startproc
 926              	 
 927              	 
 928 0350 80B5     	 push {r7,lr}
 929              	.LCFI44:
 930              	 .cfi_def_cfa_offset 8
 931              	 .cfi_offset 7,-8
 932              	 .cfi_offset 14,-4
 933 0352 00AF     	 add r7,sp,#0
 934              	.LCFI45:
 935              	 .cfi_def_cfa_register 7
 436:../../../platform/common/services/usb/udc/udc.c **** 	static le16_t udc_ep_status;
 437:../../../platform/common/services/usb/udc/udc.c **** 
 438:../../../platform/common/services/usb/udc/udc.c **** 	if (udd_g_ctrlreq.req.wLength != sizeof(udc_ep_status)) {
 936              	 .loc 1 438 0
 937 0354 0B4B     	 ldr r3,.L76
 938 0356 DB88     	 ldrh r3,[r3,#6]
 939 0358 022B     	 cmp r3,#2
 940 035a 01D0     	 beq .L74
 439:../../../platform/common/services/usb/udc/udc.c **** 		return false;
 941              	 .loc 1 439 0
 942 035c 0023     	 movs r3,#0
 943 035e 0EE0     	 b .L75
 944              	.L74:
 440:../../../platform/common/services/usb/udc/udc.c **** 	}
 441:../../../platform/common/services/usb/udc/udc.c **** 
 442:../../../platform/common/services/usb/udc/udc.c **** 	udc_ep_status = udd_ep_is_halted(udd_g_ctrlreq.req.
 945              	 .loc 1 442 0
 946 0360 084B     	 ldr r3,.L76
 947 0362 9B88     	 ldrh r3,[r3,#4]
 948 0364 DBB2     	 uxtb r3,r3
 949 0366 1846     	 mov r0,r3
 950 0368 074B     	 ldr r3,.L76+4
 951 036a 9847     	 blx r3
 952              	.LVL9:
 953 036c 0346     	 mov r3,r0
 443:../../../platform/common/services/usb/udc/udc.c **** 			wIndex & 0xFF) ? CPU_TO_LE16(USB_EP_STATUS_HALTED) : 0;
 954              	 .loc 1 443 0
 955 036e 9AB2     	 uxth r2,r3
 442:../../../platform/common/services/usb/udc/udc.c **** 			wIndex & 0xFF) ? CPU_TO_LE16(USB_EP_STATUS_HALTED) : 0;
 956              	 .loc 1 442 0
 957 0370 064B     	 ldr r3,.L76+8
 958 0372 1A80     	 strh r2,[r3]
 444:../../../platform/common/services/usb/udc/udc.c **** 
 445:../../../platform/common/services/usb/udc/udc.c **** 	udd_set_setup_payload( (uint8_t *) & udc_ep_status,
 959              	 .loc 1 445 0
 960 0374 0221     	 movs r1,#2
 961 0376 0548     	 ldr r0,.L76+8
 962 0378 054B     	 ldr r3,.L76+12
 963 037a 9847     	 blx r3
 964              	.LVL10:
 446:../../../platform/common/services/usb/udc/udc.c **** 			sizeof(udc_ep_status));
 447:../../../platform/common/services/usb/udc/udc.c **** 	return true;
 965              	 .loc 1 447 0
 966 037c 0123     	 movs r3,#1
 967              	.L75:
 448:../../../platform/common/services/usb/udc/udc.c **** }
 968              	 .loc 1 448 0
 969 037e 1846     	 mov r0,r3
 970 0380 80BD     	 pop {r7,pc}
 971              	.L77:
 972 0382 00BF     	 .align 2
 973              	.L76:
 974 0384 00000000 	 .word udd_g_ctrlreq
 975 0388 00000000 	 .word udd_ep_is_halted
 976 038c 00000000 	 .word udc_ep_status.8254
 977 0390 00000000 	 .word udd_set_setup_payload
 978              	 .cfi_endproc
 979              	.LFE137:
 981              	 .align 1
 982              	 .syntax unified
 983              	 .thumb
 984              	 .thumb_func
 985              	 .fpu softvfp
 987              	udc_req_std_dev_clear_feature:
 988              	.LFB138:
 449:../../../platform/common/services/usb/udc/udc.c **** #endif
 450:../../../platform/common/services/usb/udc/udc.c **** 
 451:../../../platform/common/services/usb/udc/udc.c **** /**
 452:../../../platform/common/services/usb/udc/udc.c ****  * \brief Standard device request to change device status
 453:../../../platform/common/services/usb/udc/udc.c ****  *
 454:../../../platform/common/services/usb/udc/udc.c ****  * \return true if success
 455:../../../platform/common/services/usb/udc/udc.c ****  */
 456:../../../platform/common/services/usb/udc/udc.c **** static bool udc_req_std_dev_clear_feature(void)
 457:../../../platform/common/services/usb/udc/udc.c **** {
 989              	 .loc 1 457 0
 990              	 .cfi_startproc
 991              	 
 992              	 
 993              	 
 994 0394 80B4     	 push {r7}
 995              	.LCFI46:
 996              	 .cfi_def_cfa_offset 4
 997              	 .cfi_offset 7,-4
 998 0396 00AF     	 add r7,sp,#0
 999              	.LCFI47:
 1000              	 .cfi_def_cfa_register 7
 458:../../../platform/common/services/usb/udc/udc.c **** 	if (udd_g_ctrlreq.req.wLength) {
 1001              	 .loc 1 458 0
 1002 0398 0B4B     	 ldr r3,.L82
 1003 039a DB88     	 ldrh r3,[r3,#6]
 1004 039c 002B     	 cmp r3,#0
 1005 039e 01D0     	 beq .L79
 459:../../../platform/common/services/usb/udc/udc.c **** 		return false;
 1006              	 .loc 1 459 0
 1007 03a0 0023     	 movs r3,#0
 1008 03a2 0DE0     	 b .L80
 1009              	.L79:
 460:../../../platform/common/services/usb/udc/udc.c **** 	}
 461:../../../platform/common/services/usb/udc/udc.c **** 
 462:../../../platform/common/services/usb/udc/udc.c **** 	if (udd_g_ctrlreq.req.wValue == USB_DEV_FEATURE_REMOTE_WAKEUP) {
 1010              	 .loc 1 462 0
 1011 03a4 084B     	 ldr r3,.L82
 1012 03a6 5B88     	 ldrh r3,[r3,#2]
 1013 03a8 012B     	 cmp r3,#1
 1014 03aa 08D1     	 bne .L81
 463:../../../platform/common/services/usb/udc/udc.c **** 		udc_device_status &= CPU_TO_LE16(~(uint32_t)USB_DEV_STATUS_REMOTEWAKEUP);
 1015              	 .loc 1 463 0
 1016 03ac 074B     	 ldr r3,.L82+4
 1017 03ae 1B88     	 ldrh r3,[r3]
 1018 03b0 23F00203 	 bic r3,r3,#2
 1019 03b4 9AB2     	 uxth r2,r3
 1020 03b6 054B     	 ldr r3,.L82+4
 1021 03b8 1A80     	 strh r2,[r3]
 464:../../../platform/common/services/usb/udc/udc.c **** #if (USB_CONFIG_ATTR_REMOTE_WAKEUP \
 465:../../../platform/common/services/usb/udc/udc.c **** 	== (USB_DEVICE_ATTR & USB_CONFIG_ATTR_REMOTE_WAKEUP))
 466:../../../platform/common/services/usb/udc/udc.c **** 		UDC_REMOTEWAKEUP_DISABLE();
 467:../../../platform/common/services/usb/udc/udc.c **** #endif
 468:../../../platform/common/services/usb/udc/udc.c **** 		return true;
 1022              	 .loc 1 468 0
 1023 03ba 0123     	 movs r3,#1
 1024 03bc 00E0     	 b .L80
 1025              	.L81:
 469:../../../platform/common/services/usb/udc/udc.c **** 	}
 470:../../../platform/common/services/usb/udc/udc.c **** 	return false;
 1026              	 .loc 1 470 0
 1027 03be 0023     	 movs r3,#0
 1028              	.L80:
 471:../../../platform/common/services/usb/udc/udc.c **** }
 1029              	 .loc 1 471 0
 1030 03c0 1846     	 mov r0,r3
 1031 03c2 BD46     	 mov sp,r7
 1032              	.LCFI48:
 1033              	 .cfi_def_cfa_register 13
 1034              	 
 1035 03c4 80BC     	 pop {r7}
 1036              	.LCFI49:
 1037              	 .cfi_restore 7
 1038              	 .cfi_def_cfa_offset 0
 1039 03c6 7047     	 bx lr
 1040              	.L83:
 1041              	 .align 2
 1042              	.L82:
 1043 03c8 00000000 	 .word udd_g_ctrlreq
 1044 03cc 00000000 	 .word udc_device_status
 1045              	 .cfi_endproc
 1046              	.LFE138:
 1048              	 .align 1
 1049              	 .syntax unified
 1050              	 .thumb
 1051              	 .thumb_func
 1052              	 .fpu softvfp
 1054              	udc_req_std_ep_clear_feature:
 1055              	.LFB139:
 472:../../../platform/common/services/usb/udc/udc.c **** 
 473:../../../platform/common/services/usb/udc/udc.c **** #if (0!=USB_DEVICE_MAX_EP)
 474:../../../platform/common/services/usb/udc/udc.c **** /**
 475:../../../platform/common/services/usb/udc/udc.c ****  * \brief Standard endpoint request to clear endpoint feature
 476:../../../platform/common/services/usb/udc/udc.c ****  *
 477:../../../platform/common/services/usb/udc/udc.c ****  * \return true if success
 478:../../../platform/common/services/usb/udc/udc.c ****  */
 479:../../../platform/common/services/usb/udc/udc.c **** static bool udc_req_std_ep_clear_feature(void)
 480:../../../platform/common/services/usb/udc/udc.c **** {
 1056              	 .loc 1 480 0
 1057              	 .cfi_startproc
 1058              	 
 1059              	 
 1060 03d0 80B5     	 push {r7,lr}
 1061              	.LCFI50:
 1062              	 .cfi_def_cfa_offset 8
 1063              	 .cfi_offset 7,-8
 1064              	 .cfi_offset 14,-4
 1065 03d2 00AF     	 add r7,sp,#0
 1066              	.LCFI51:
 1067              	 .cfi_def_cfa_register 7
 481:../../../platform/common/services/usb/udc/udc.c **** 	if (udd_g_ctrlreq.req.wLength) {
 1068              	 .loc 1 481 0
 1069 03d4 0A4B     	 ldr r3,.L88
 1070 03d6 DB88     	 ldrh r3,[r3,#6]
 1071 03d8 002B     	 cmp r3,#0
 1072 03da 01D0     	 beq .L85
 482:../../../platform/common/services/usb/udc/udc.c **** 		return false;
 1073              	 .loc 1 482 0
 1074 03dc 0023     	 movs r3,#0
 1075 03de 0CE0     	 b .L86
 1076              	.L85:
 483:../../../platform/common/services/usb/udc/udc.c **** 	}
 484:../../../platform/common/services/usb/udc/udc.c **** 
 485:../../../platform/common/services/usb/udc/udc.c **** 	if (udd_g_ctrlreq.req.wValue == USB_EP_FEATURE_HALT) {
 1077              	 .loc 1 485 0
 1078 03e0 074B     	 ldr r3,.L88
 1079 03e2 5B88     	 ldrh r3,[r3,#2]
 1080 03e4 002B     	 cmp r3,#0
 1081 03e6 07D1     	 bne .L87
 486:../../../platform/common/services/usb/udc/udc.c **** 		return udd_ep_clear_halt(udd_g_ctrlreq.req.wIndex & 0xFF);
 1082              	 .loc 1 486 0
 1083 03e8 054B     	 ldr r3,.L88
 1084 03ea 9B88     	 ldrh r3,[r3,#4]
 1085 03ec DBB2     	 uxtb r3,r3
 1086 03ee 1846     	 mov r0,r3
 1087 03f0 044B     	 ldr r3,.L88+4
 1088 03f2 9847     	 blx r3
 1089              	.LVL11:
 1090 03f4 0346     	 mov r3,r0
 1091 03f6 00E0     	 b .L86
 1092              	.L87:
 487:../../../platform/common/services/usb/udc/udc.c **** 	}
 488:../../../platform/common/services/usb/udc/udc.c **** 	return false;
 1093              	 .loc 1 488 0
 1094 03f8 0023     	 movs r3,#0
 1095              	.L86:
 489:../../../platform/common/services/usb/udc/udc.c **** }
 1096              	 .loc 1 489 0
 1097 03fa 1846     	 mov r0,r3
 1098 03fc 80BD     	 pop {r7,pc}
 1099              	.L89:
 1100 03fe 00BF     	 .align 2
 1101              	.L88:
 1102 0400 00000000 	 .word udd_g_ctrlreq
 1103 0404 00000000 	 .word udd_ep_clear_halt
 1104              	 .cfi_endproc
 1105              	.LFE139:
 1107              	 .align 1
 1108              	 .syntax unified
 1109              	 .thumb
 1110              	 .thumb_func
 1111              	 .fpu softvfp
 1113              	udc_req_std_dev_set_feature:
 1114              	.LFB140:
 490:../../../platform/common/services/usb/udc/udc.c **** #endif
 491:../../../platform/common/services/usb/udc/udc.c **** 
 492:../../../platform/common/services/usb/udc/udc.c **** /**
 493:../../../platform/common/services/usb/udc/udc.c ****  * \brief Standard device request to set a feature
 494:../../../platform/common/services/usb/udc/udc.c ****  *
 495:../../../platform/common/services/usb/udc/udc.c ****  * \return true if success
 496:../../../platform/common/services/usb/udc/udc.c ****  */
 497:../../../platform/common/services/usb/udc/udc.c **** static bool udc_req_std_dev_set_feature(void)
 498:../../../platform/common/services/usb/udc/udc.c **** {
 1115              	 .loc 1 498 0
 1116              	 .cfi_startproc
 1117              	 
 1118              	 
 1119              	 
 1120 0408 80B4     	 push {r7}
 1121              	.LCFI52:
 1122              	 .cfi_def_cfa_offset 4
 1123              	 .cfi_offset 7,-4
 1124 040a 00AF     	 add r7,sp,#0
 1125              	.LCFI53:
 1126              	 .cfi_def_cfa_register 7
 499:../../../platform/common/services/usb/udc/udc.c **** 	if (udd_g_ctrlreq.req.wLength) {
 1127              	 .loc 1 499 0
 1128 040c 084B     	 ldr r3,.L96
 1129 040e DB88     	 ldrh r3,[r3,#6]
 1130 0410 002B     	 cmp r3,#0
 1131 0412 01D0     	 beq .L91
 500:../../../platform/common/services/usb/udc/udc.c **** 		return false;
 1132              	 .loc 1 500 0
 1133 0414 0023     	 movs r3,#0
 1134 0416 07E0     	 b .L92
 1135              	.L91:
 501:../../../platform/common/services/usb/udc/udc.c **** 	}
 502:../../../platform/common/services/usb/udc/udc.c **** 
 503:../../../platform/common/services/usb/udc/udc.c **** 	switch (udd_g_ctrlreq.req.wValue) {
 1136              	 .loc 1 503 0
 1137 0418 054B     	 ldr r3,.L96
 1138 041a 5B88     	 ldrh r3,[r3,#2]
 1139 041c 012B     	 cmp r3,#1
 1140 041e 02D0     	 beq .L94
 504:../../../platform/common/services/usb/udc/udc.c **** 
 505:../../../platform/common/services/usb/udc/udc.c **** 	case USB_DEV_FEATURE_REMOTE_WAKEUP:
 506:../../../platform/common/services/usb/udc/udc.c **** #if (USB_CONFIG_ATTR_REMOTE_WAKEUP \
 507:../../../platform/common/services/usb/udc/udc.c **** 	== (USB_DEVICE_ATTR & USB_CONFIG_ATTR_REMOTE_WAKEUP))
 508:../../../platform/common/services/usb/udc/udc.c **** 		udc_device_status |= CPU_TO_LE16(USB_DEV_STATUS_REMOTEWAKEUP);
 509:../../../platform/common/services/usb/udc/udc.c **** 		UDC_REMOTEWAKEUP_ENABLE();
 510:../../../platform/common/services/usb/udc/udc.c **** 		return true;
 511:../../../platform/common/services/usb/udc/udc.c **** #else
 512:../../../platform/common/services/usb/udc/udc.c **** 		return false;
 513:../../../platform/common/services/usb/udc/udc.c **** #endif
 514:../../../platform/common/services/usb/udc/udc.c **** 
 515:../../../platform/common/services/usb/udc/udc.c **** #ifdef USB_DEVICE_HS_SUPPORT
 516:../../../platform/common/services/usb/udc/udc.c **** 	case USB_DEV_FEATURE_TEST_MODE:
 517:../../../platform/common/services/usb/udc/udc.c **** 		if (!udd_is_high_speed()) {
 518:../../../platform/common/services/usb/udc/udc.c **** 			break;
 519:../../../platform/common/services/usb/udc/udc.c **** 		}
 520:../../../platform/common/services/usb/udc/udc.c **** 		if (udd_g_ctrlreq.req.wIndex & 0xff) {
 521:../../../platform/common/services/usb/udc/udc.c **** 			break;
 522:../../../platform/common/services/usb/udc/udc.c **** 		}
 523:../../../platform/common/services/usb/udc/udc.c **** 		// Unconfigure the device, terminating all ongoing requests
 524:../../../platform/common/services/usb/udc/udc.c **** 		udc_reset();
 525:../../../platform/common/services/usb/udc/udc.c **** 		switch ((udd_g_ctrlreq.req.wIndex >> 8) & 0xFF) {
 526:../../../platform/common/services/usb/udc/udc.c **** 		case USB_DEV_TEST_MODE_J:
 527:../../../platform/common/services/usb/udc/udc.c **** 			udd_g_ctrlreq.callback = udd_test_mode_j;
 528:../../../platform/common/services/usb/udc/udc.c **** 			return true;
 529:../../../platform/common/services/usb/udc/udc.c **** 
 530:../../../platform/common/services/usb/udc/udc.c **** 		case USB_DEV_TEST_MODE_K:
 531:../../../platform/common/services/usb/udc/udc.c **** 			udd_g_ctrlreq.callback = udd_test_mode_k;
 532:../../../platform/common/services/usb/udc/udc.c **** 			return true;
 533:../../../platform/common/services/usb/udc/udc.c **** 
 534:../../../platform/common/services/usb/udc/udc.c **** 		case USB_DEV_TEST_MODE_SE0_NAK:
 535:../../../platform/common/services/usb/udc/udc.c **** 			udd_g_ctrlreq.callback = udd_test_mode_se0_nak;
 536:../../../platform/common/services/usb/udc/udc.c **** 			return true;
 537:../../../platform/common/services/usb/udc/udc.c **** 
 538:../../../platform/common/services/usb/udc/udc.c **** 		case USB_DEV_TEST_MODE_PACKET:
 539:../../../platform/common/services/usb/udc/udc.c **** 			udd_g_ctrlreq.callback = udd_test_mode_packet;
 540:../../../platform/common/services/usb/udc/udc.c **** 			return true;
 541:../../../platform/common/services/usb/udc/udc.c **** 
 542:../../../platform/common/services/usb/udc/udc.c **** 		case USB_DEV_TEST_MODE_FORCE_ENABLE: // Only for downstream facing hub ports
 543:../../../platform/common/services/usb/udc/udc.c **** 		default:
 544:../../../platform/common/services/usb/udc/udc.c **** 			break;
 545:../../../platform/common/services/usb/udc/udc.c **** 		}
 546:../../../platform/common/services/usb/udc/udc.c **** 		break;
 547:../../../platform/common/services/usb/udc/udc.c **** #endif
 548:../../../platform/common/services/usb/udc/udc.c **** 	default:
 549:../../../platform/common/services/usb/udc/udc.c **** 		break;
 1141              	 .loc 1 549 0
 1142 0420 00BF     	 nop
 550:../../../platform/common/services/usb/udc/udc.c **** 	}
 551:../../../platform/common/services/usb/udc/udc.c **** 	return false;
 1143              	 .loc 1 551 0
 1144 0422 0023     	 movs r3,#0
 1145 0424 00E0     	 b .L92
 1146              	.L94:
 512:../../../platform/common/services/usb/udc/udc.c **** #endif
 1147              	 .loc 1 512 0
 1148 0426 0023     	 movs r3,#0
 1149              	.L92:
 552:../../../platform/common/services/usb/udc/udc.c **** }
 1150              	 .loc 1 552 0
 1151 0428 1846     	 mov r0,r3
 1152 042a BD46     	 mov sp,r7
 1153              	.LCFI54:
 1154              	 .cfi_def_cfa_register 13
 1155              	 
 1156 042c 80BC     	 pop {r7}
 1157              	.LCFI55:
 1158              	 .cfi_restore 7
 1159              	 .cfi_def_cfa_offset 0
 1160 042e 7047     	 bx lr
 1161              	.L97:
 1162              	 .align 2
 1163              	.L96:
 1164 0430 00000000 	 .word udd_g_ctrlreq
 1165              	 .cfi_endproc
 1166              	.LFE140:
 1168              	 .align 1
 1169              	 .syntax unified
 1170              	 .thumb
 1171              	 .thumb_func
 1172              	 .fpu softvfp
 1174              	udc_req_std_ep_set_feature:
 1175              	.LFB141:
 553:../../../platform/common/services/usb/udc/udc.c **** 
 554:../../../platform/common/services/usb/udc/udc.c **** /**
 555:../../../platform/common/services/usb/udc/udc.c ****  * \brief Standard endpoint request to halt an endpoint
 556:../../../platform/common/services/usb/udc/udc.c ****  *
 557:../../../platform/common/services/usb/udc/udc.c ****  * \return true if success
 558:../../../platform/common/services/usb/udc/udc.c ****  */
 559:../../../platform/common/services/usb/udc/udc.c **** #if (0!=USB_DEVICE_MAX_EP)
 560:../../../platform/common/services/usb/udc/udc.c **** static bool udc_req_std_ep_set_feature(void)
 561:../../../platform/common/services/usb/udc/udc.c **** {
 1176              	 .loc 1 561 0
 1177              	 .cfi_startproc
 1178              	 
 1179              	 
 1180 0434 80B5     	 push {r7,lr}
 1181              	.LCFI56:
 1182              	 .cfi_def_cfa_offset 8
 1183              	 .cfi_offset 7,-8
 1184              	 .cfi_offset 14,-4
 1185 0436 00AF     	 add r7,sp,#0
 1186              	.LCFI57:
 1187              	 .cfi_def_cfa_register 7
 562:../../../platform/common/services/usb/udc/udc.c **** 	if (udd_g_ctrlreq.req.wLength) {
 1188              	 .loc 1 562 0
 1189 0438 0D4B     	 ldr r3,.L102
 1190 043a DB88     	 ldrh r3,[r3,#6]
 1191 043c 002B     	 cmp r3,#0
 1192 043e 01D0     	 beq .L99
 563:../../../platform/common/services/usb/udc/udc.c **** 		return false;
 1193              	 .loc 1 563 0
 1194 0440 0023     	 movs r3,#0
 1195 0442 12E0     	 b .L100
 1196              	.L99:
 564:../../../platform/common/services/usb/udc/udc.c **** 	}
 565:../../../platform/common/services/usb/udc/udc.c **** 	if (udd_g_ctrlreq.req.wValue == USB_EP_FEATURE_HALT) {
 1197              	 .loc 1 565 0
 1198 0444 0A4B     	 ldr r3,.L102
 1199 0446 5B88     	 ldrh r3,[r3,#2]
 1200 0448 002B     	 cmp r3,#0
 1201 044a 0DD1     	 bne .L101
 566:../../../platform/common/services/usb/udc/udc.c **** 		udd_ep_abort(udd_g_ctrlreq.req.wIndex & 0xFF);
 1202              	 .loc 1 566 0
 1203 044c 084B     	 ldr r3,.L102
 1204 044e 9B88     	 ldrh r3,[r3,#4]
 1205 0450 DBB2     	 uxtb r3,r3
 1206 0452 1846     	 mov r0,r3
 1207 0454 074B     	 ldr r3,.L102+4
 1208 0456 9847     	 blx r3
 1209              	.LVL12:
 567:../../../platform/common/services/usb/udc/udc.c **** 		return udd_ep_set_halt(udd_g_ctrlreq.req.wIndex & 0xFF);
 1210              	 .loc 1 567 0
 1211 0458 054B     	 ldr r3,.L102
 1212 045a 9B88     	 ldrh r3,[r3,#4]
 1213 045c DBB2     	 uxtb r3,r3
 1214 045e 1846     	 mov r0,r3
 1215 0460 054B     	 ldr r3,.L102+8
 1216 0462 9847     	 blx r3
 1217              	.LVL13:
 1218 0464 0346     	 mov r3,r0
 1219 0466 00E0     	 b .L100
 1220              	.L101:
 568:../../../platform/common/services/usb/udc/udc.c **** 	}
 569:../../../platform/common/services/usb/udc/udc.c **** 	return false;
 1221              	 .loc 1 569 0
 1222 0468 0023     	 movs r3,#0
 1223              	.L100:
 570:../../../platform/common/services/usb/udc/udc.c **** }
 1224              	 .loc 1 570 0
 1225 046a 1846     	 mov r0,r3
 1226 046c 80BD     	 pop {r7,pc}
 1227              	.L103:
 1228 046e 00BF     	 .align 2
 1229              	.L102:
 1230 0470 00000000 	 .word udd_g_ctrlreq
 1231 0474 00000000 	 .word udd_ep_abort
 1232 0478 00000000 	 .word udd_ep_set_halt
 1233              	 .cfi_endproc
 1234              	.LFE141:
 1236              	 .align 1
 1237              	 .syntax unified
 1238              	 .thumb
 1239              	 .thumb_func
 1240              	 .fpu softvfp
 1242              	udc_valid_address:
 1243              	.LFB142:
 571:../../../platform/common/services/usb/udc/udc.c **** #endif
 572:../../../platform/common/services/usb/udc/udc.c **** 
 573:../../../platform/common/services/usb/udc/udc.c **** /**
 574:../../../platform/common/services/usb/udc/udc.c ****  * \brief Change the address of device
 575:../../../platform/common/services/usb/udc/udc.c ****  * Callback called at the end of request set address
 576:../../../platform/common/services/usb/udc/udc.c ****  */
 577:../../../platform/common/services/usb/udc/udc.c **** static void udc_valid_address(void)
 578:../../../platform/common/services/usb/udc/udc.c **** {
 1244              	 .loc 1 578 0
 1245              	 .cfi_startproc
 1246              	 
 1247              	 
 1248 047c 80B5     	 push {r7,lr}
 1249              	.LCFI58:
 1250              	 .cfi_def_cfa_offset 8
 1251              	 .cfi_offset 7,-8
 1252              	 .cfi_offset 14,-4
 1253 047e 00AF     	 add r7,sp,#0
 1254              	.LCFI59:
 1255              	 .cfi_def_cfa_register 7
 579:../../../platform/common/services/usb/udc/udc.c **** 	udd_set_address(udd_g_ctrlreq.req.wValue & 0x7F);
 1256              	 .loc 1 579 0
 1257 0480 054B     	 ldr r3,.L105
 1258 0482 5B88     	 ldrh r3,[r3,#2]
 1259 0484 DBB2     	 uxtb r3,r3
 1260 0486 03F07F03 	 and r3,r3,#127
 1261 048a DBB2     	 uxtb r3,r3
 1262 048c 1846     	 mov r0,r3
 1263 048e 034B     	 ldr r3,.L105+4
 1264 0490 9847     	 blx r3
 1265              	.LVL14:
 580:../../../platform/common/services/usb/udc/udc.c **** }
 1266              	 .loc 1 580 0
 1267 0492 00BF     	 nop
 1268 0494 80BD     	 pop {r7,pc}
 1269              	.L106:
 1270 0496 00BF     	 .align 2
 1271              	.L105:
 1272 0498 00000000 	 .word udd_g_ctrlreq
 1273 049c 00000000 	 .word udd_set_address
 1274              	 .cfi_endproc
 1275              	.LFE142:
 1277              	 .align 1
 1278              	 .syntax unified
 1279              	 .thumb
 1280              	 .thumb_func
 1281              	 .fpu softvfp
 1283              	udc_req_std_dev_set_address:
 1284              	.LFB143:
 581:../../../platform/common/services/usb/udc/udc.c **** 
 582:../../../platform/common/services/usb/udc/udc.c **** /**
 583:../../../platform/common/services/usb/udc/udc.c ****  * \brief Standard device request to set device address
 584:../../../platform/common/services/usb/udc/udc.c ****  *
 585:../../../platform/common/services/usb/udc/udc.c ****  * \return true if success
 586:../../../platform/common/services/usb/udc/udc.c ****  */
 587:../../../platform/common/services/usb/udc/udc.c **** static bool udc_req_std_dev_set_address(void)
 588:../../../platform/common/services/usb/udc/udc.c **** {
 1285              	 .loc 1 588 0
 1286              	 .cfi_startproc
 1287              	 
 1288              	 
 1289              	 
 1290 04a0 80B4     	 push {r7}
 1291              	.LCFI60:
 1292              	 .cfi_def_cfa_offset 4
 1293              	 .cfi_offset 7,-4
 1294 04a2 00AF     	 add r7,sp,#0
 1295              	.LCFI61:
 1296              	 .cfi_def_cfa_register 7
 589:../../../platform/common/services/usb/udc/udc.c **** 	if (udd_g_ctrlreq.req.wLength) {
 1297              	 .loc 1 589 0
 1298 04a4 064B     	 ldr r3,.L110
 1299 04a6 DB88     	 ldrh r3,[r3,#6]
 1300 04a8 002B     	 cmp r3,#0
 1301 04aa 01D0     	 beq .L108
 590:../../../platform/common/services/usb/udc/udc.c **** 		return false;
 1302              	 .loc 1 590 0
 1303 04ac 0023     	 movs r3,#0
 1304 04ae 03E0     	 b .L109
 1305              	.L108:
 591:../../../platform/common/services/usb/udc/udc.c **** 	}
 592:../../../platform/common/services/usb/udc/udc.c **** 
 593:../../../platform/common/services/usb/udc/udc.c **** 	// The address must be changed at the end of setup request after the handshake
 594:../../../platform/common/services/usb/udc/udc.c **** 	// then we use a callback to change address
 595:../../../platform/common/services/usb/udc/udc.c **** 	udd_g_ctrlreq.callback = udc_valid_address;
 1306              	 .loc 1 595 0
 1307 04b0 034B     	 ldr r3,.L110
 1308 04b2 044A     	 ldr r2,.L110+4
 1309 04b4 1A61     	 str r2,[r3,#16]
 596:../../../platform/common/services/usb/udc/udc.c **** 	return true;
 1310              	 .loc 1 596 0
 1311 04b6 0123     	 movs r3,#1
 1312              	.L109:
 597:../../../platform/common/services/usb/udc/udc.c **** }
 1313              	 .loc 1 597 0
 1314 04b8 1846     	 mov r0,r3
 1315 04ba BD46     	 mov sp,r7
 1316              	.LCFI62:
 1317              	 .cfi_def_cfa_register 13
 1318              	 
 1319 04bc 80BC     	 pop {r7}
 1320              	.LCFI63:
 1321              	 .cfi_restore 7
 1322              	 .cfi_def_cfa_offset 0
 1323 04be 7047     	 bx lr
 1324              	.L111:
 1325              	 .align 2
 1326              	.L110:
 1327 04c0 00000000 	 .word udd_g_ctrlreq
 1328 04c4 00000000 	 .word udc_valid_address
 1329              	 .cfi_endproc
 1330              	.LFE143:
 1332              	 .align 1
 1333              	 .syntax unified
 1334              	 .thumb
 1335              	 .thumb_func
 1336              	 .fpu softvfp
 1338              	udc_req_std_dev_get_str_desc:
 1339              	.LFB144:
 598:../../../platform/common/services/usb/udc/udc.c **** 
 599:../../../platform/common/services/usb/udc/udc.c **** /**
 600:../../../platform/common/services/usb/udc/udc.c ****  * \brief Standard device request to get device string descriptor
 601:../../../platform/common/services/usb/udc/udc.c ****  *
 602:../../../platform/common/services/usb/udc/udc.c ****  * \return true if success
 603:../../../platform/common/services/usb/udc/udc.c ****  */
 604:../../../platform/common/services/usb/udc/udc.c **** static bool udc_req_std_dev_get_str_desc(void)
 605:../../../platform/common/services/usb/udc/udc.c **** {
 1340              	 .loc 1 605 0
 1341              	 .cfi_startproc
 1342              	 
 1343              	 
 1344 04c8 80B5     	 push {r7,lr}
 1345              	.LCFI64:
 1346              	 .cfi_def_cfa_offset 8
 1347              	 .cfi_offset 7,-8
 1348              	 .cfi_offset 14,-4
 1349 04ca 84B0     	 sub sp,sp,#16
 1350              	.LCFI65:
 1351              	 .cfi_def_cfa_offset 24
 1352 04cc 00AF     	 add r7,sp,#0
 1353              	.LCFI66:
 1354              	 .cfi_def_cfa_register 7
 606:../../../platform/common/services/usb/udc/udc.c **** 	uint8_t i;
 607:../../../platform/common/services/usb/udc/udc.c **** 	const uint8_t *str;
 608:../../../platform/common/services/usb/udc/udc.c **** 	uint8_t str_length = 0;
 1355              	 .loc 1 608 0
 1356 04ce 0023     	 movs r3,#0
 1357 04d0 FB71     	 strb r3,[r7,#7]
 609:../../../platform/common/services/usb/udc/udc.c **** 
 610:../../../platform/common/services/usb/udc/udc.c **** 	// Link payload pointer to the string corresponding at request
 611:../../../platform/common/services/usb/udc/udc.c **** 	switch (udd_g_ctrlreq.req.wValue & 0xff) {
 1358              	 .loc 1 611 0
 1359 04d2 224B     	 ldr r3,.L123
 1360 04d4 5B88     	 ldrh r3,[r3,#2]
 1361 04d6 DBB2     	 uxtb r3,r3
 1362 04d8 012B     	 cmp r3,#1
 1363 04da 08D0     	 beq .L114
 1364 04dc 022B     	 cmp r3,#2
 1365 04de 0BD0     	 beq .L115
 1366 04e0 002B     	 cmp r3,#0
 1367 04e2 0ED1     	 bne .L122
 612:../../../platform/common/services/usb/udc/udc.c **** 	case 0:
 613:../../../platform/common/services/usb/udc/udc.c **** 		udd_set_setup_payload((uint8_t *) &udc_string_desc_languageid,
 1368              	 .loc 1 613 0
 1369 04e4 0421     	 movs r1,#4
 1370 04e6 1E48     	 ldr r0,.L123+4
 1371 04e8 1E4B     	 ldr r3,.L123+8
 1372 04ea 9847     	 blx r3
 1373              	.LVL15:
 614:../../../platform/common/services/usb/udc/udc.c **** 				sizeof(udc_string_desc_languageid));
 615:../../../platform/common/services/usb/udc/udc.c **** 		break;
 1374              	 .loc 1 615 0
 1375 04ec 0BE0     	 b .L117
 1376              	.L114:
 616:../../../platform/common/services/usb/udc/udc.c **** 
 617:../../../platform/common/services/usb/udc/udc.c **** #ifdef USB_DEVICE_MANUFACTURE_NAME
 618:../../../platform/common/services/usb/udc/udc.c **** 	case 1:
 619:../../../platform/common/services/usb/udc/udc.c **** 		str_length = USB_DEVICE_MANUFACTURE_NAME_SIZE;
 1377              	 .loc 1 619 0
 1378 04ee 0523     	 movs r3,#5
 1379 04f0 FB71     	 strb r3,[r7,#7]
 620:../../../platform/common/services/usb/udc/udc.c **** 		str = udc_string_manufacturer_name;
 1380              	 .loc 1 620 0
 1381 04f2 1D4B     	 ldr r3,.L123+12
 1382 04f4 BB60     	 str r3,[r7,#8]
 621:../../../platform/common/services/usb/udc/udc.c **** 		break;
 1383              	 .loc 1 621 0
 1384 04f6 06E0     	 b .L117
 1385              	.L115:
 622:../../../platform/common/services/usb/udc/udc.c **** #endif
 623:../../../platform/common/services/usb/udc/udc.c **** #ifdef USB_DEVICE_PRODUCT_NAME
 624:../../../platform/common/services/usb/udc/udc.c **** 	case 2:
 625:../../../platform/common/services/usb/udc/udc.c **** 		str_length = USB_DEVICE_PRODUCT_NAME_SIZE;
 1386              	 .loc 1 625 0
 1387 04f8 2623     	 movs r3,#38
 1388 04fa FB71     	 strb r3,[r7,#7]
 626:../../../platform/common/services/usb/udc/udc.c **** 		str = udc_string_product_name;
 1389              	 .loc 1 626 0
 1390 04fc 1B4B     	 ldr r3,.L123+16
 1391 04fe BB60     	 str r3,[r7,#8]
 627:../../../platform/common/services/usb/udc/udc.c **** 		break;
 1392              	 .loc 1 627 0
 1393 0500 01E0     	 b .L117
 1394              	.L122:
 628:../../../platform/common/services/usb/udc/udc.c **** #endif
 629:../../../platform/common/services/usb/udc/udc.c **** #if defined USB_DEVICE_SERIAL_NAME || defined USB_DEVICE_GET_SERIAL_NAME_POINTER
 630:../../../platform/common/services/usb/udc/udc.c **** 	case 3:
 631:../../../platform/common/services/usb/udc/udc.c **** 		str_length = USB_DEVICE_SERIAL_NAME_SIZE;
 632:../../../platform/common/services/usb/udc/udc.c **** 		str = udc_get_string_serial_name();
 633:../../../platform/common/services/usb/udc/udc.c **** 		break;
 634:../../../platform/common/services/usb/udc/udc.c **** #endif
 635:../../../platform/common/services/usb/udc/udc.c **** 	default:
 636:../../../platform/common/services/usb/udc/udc.c **** #ifdef UDC_GET_EXTRA_STRING
 637:../../../platform/common/services/usb/udc/udc.c **** 		if (UDC_GET_EXTRA_STRING()) {
 638:../../../platform/common/services/usb/udc/udc.c **** 			break;
 639:../../../platform/common/services/usb/udc/udc.c **** 		}
 640:../../../platform/common/services/usb/udc/udc.c **** #endif
 641:../../../platform/common/services/usb/udc/udc.c **** 		return false;
 1395              	 .loc 1 641 0
 1396 0502 0023     	 movs r3,#0
 1397 0504 26E0     	 b .L118
 1398              	.L117:
 642:../../../platform/common/services/usb/udc/udc.c **** 	}
 643:../../../platform/common/services/usb/udc/udc.c **** 
 644:../../../platform/common/services/usb/udc/udc.c **** 	if (str_length) {
 1399              	 .loc 1 644 0
 1400 0506 FB79     	 ldrb r3,[r7,#7]
 1401 0508 002B     	 cmp r3,#0
 1402 050a 22D0     	 beq .L119
 645:../../../platform/common/services/usb/udc/udc.c **** 		for(i = 0; i < str_length; i++) {
 1403              	 .loc 1 645 0
 1404 050c 0023     	 movs r3,#0
 1405 050e FB73     	 strb r3,[r7,#15]
 1406 0510 0DE0     	 b .L120
 1407              	.L121:
 646:../../../platform/common/services/usb/udc/udc.c **** 			udc_string_desc.string[i] = cpu_to_le16((le16_t)str[i]);
 1408              	 .loc 1 646 0 discriminator 3
 1409 0512 FB7B     	 ldrb r3,[r7,#15]
 1410 0514 FA7B     	 ldrb r2,[r7,#15]
 1411 0516 B968     	 ldr r1,[r7,#8]
 1412 0518 0A44     	 add r2,r2,r1
 1413 051a 1278     	 ldrb r2,[r2]
 1414 051c 91B2     	 uxth r1,r2
 1415 051e 144A     	 ldr r2,.L123+20
 1416 0520 5B00     	 lsls r3,r3,#1
 1417 0522 1344     	 add r3,r3,r2
 1418 0524 0A46     	 mov r2,r1
 1419 0526 5A80     	 strh r2,[r3,#2]
 645:../../../platform/common/services/usb/udc/udc.c **** 		for(i = 0; i < str_length; i++) {
 1420              	 .loc 1 645 0 discriminator 3
 1421 0528 FB7B     	 ldrb r3,[r7,#15]
 1422 052a 0133     	 adds r3,r3,#1
 1423 052c FB73     	 strb r3,[r7,#15]
 1424              	.L120:
 645:../../../platform/common/services/usb/udc/udc.c **** 		for(i = 0; i < str_length; i++) {
 1425              	 .loc 1 645 0 is_stmt 0 discriminator 1
 1426 052e FA7B     	 ldrb r2,[r7,#15]
 1427 0530 FB79     	 ldrb r3,[r7,#7]
 1428 0532 9A42     	 cmp r2,r3
 1429 0534 EDD3     	 bcc .L121
 647:../../../platform/common/services/usb/udc/udc.c **** 		}
 648:../../../platform/common/services/usb/udc/udc.c **** 
 649:../../../platform/common/services/usb/udc/udc.c **** 		udc_string_desc.header.bLength = 2 + (str_length) * 2;
 1430              	 .loc 1 649 0 is_stmt 1
 1431 0536 FB79     	 ldrb r3,[r7,#7]
 1432 0538 0133     	 adds r3,r3,#1
 1433 053a DBB2     	 uxtb r3,r3
 1434 053c 5B00     	 lsls r3,r3,#1
 1435 053e DAB2     	 uxtb r2,r3
 1436 0540 0B4B     	 ldr r3,.L123+20
 1437 0542 1A70     	 strb r2,[r3]
 650:../../../platform/common/services/usb/udc/udc.c **** 		udd_set_setup_payload(
 651:../../../platform/common/services/usb/udc/udc.c **** 			(uint8_t *) &udc_string_desc,
 652:../../../platform/common/services/usb/udc/udc.c **** 			udc_string_desc.header.bLength);
 1438              	 .loc 1 652 0
 1439 0544 0A4B     	 ldr r3,.L123+20
 1440 0546 1B78     	 ldrb r3,[r3]
 650:../../../platform/common/services/usb/udc/udc.c **** 		udd_set_setup_payload(
 1441              	 .loc 1 650 0
 1442 0548 9BB2     	 uxth r3,r3
 1443 054a 1946     	 mov r1,r3
 1444 054c 0848     	 ldr r0,.L123+20
 1445 054e 054B     	 ldr r3,.L123+8
 1446 0550 9847     	 blx r3
 1447              	.LVL16:
 1448              	.L119:
 653:../../../platform/common/services/usb/udc/udc.c **** 	}
 654:../../../platform/common/services/usb/udc/udc.c **** 
 655:../../../platform/common/services/usb/udc/udc.c **** 	return true;
 1449              	 .loc 1 655 0
 1450 0552 0123     	 movs r3,#1
 1451              	.L118:
 656:../../../platform/common/services/usb/udc/udc.c **** }
 1452              	 .loc 1 656 0
 1453 0554 1846     	 mov r0,r3
 1454 0556 1037     	 adds r7,r7,#16
 1455              	.LCFI67:
 1456              	 .cfi_def_cfa_offset 8
 1457 0558 BD46     	 mov sp,r7
 1458              	.LCFI68:
 1459              	 .cfi_def_cfa_register 13
 1460              	 
 1461 055a 80BD     	 pop {r7,pc}
 1462              	.L124:
 1463              	 .align 2
 1464              	.L123:
 1465 055c 00000000 	 .word udd_g_ctrlreq
 1466 0560 00000000 	 .word udc_string_desc_languageid
 1467 0564 00000000 	 .word udd_set_setup_payload
 1468 0568 00000000 	 .word udc_string_manufacturer_name
 1469 056c 00000000 	 .word udc_string_product_name
 1470 0570 00000000 	 .word udc_string_desc
 1471              	 .cfi_endproc
 1472              	.LFE144:
 1474              	 .align 1
 1475              	 .syntax unified
 1476              	 .thumb
 1477              	 .thumb_func
 1478              	 .fpu softvfp
 1480              	udc_req_std_dev_get_descriptor:
 1481              	.LFB145:
 657:../../../platform/common/services/usb/udc/udc.c **** 
 658:../../../platform/common/services/usb/udc/udc.c **** /**
 659:../../../platform/common/services/usb/udc/udc.c ****  * \brief Standard device request to get descriptors about USB device
 660:../../../platform/common/services/usb/udc/udc.c ****  *
 661:../../../platform/common/services/usb/udc/udc.c ****  * \return true if success
 662:../../../platform/common/services/usb/udc/udc.c ****  */
 663:../../../platform/common/services/usb/udc/udc.c **** static bool udc_req_std_dev_get_descriptor(void)
 664:../../../platform/common/services/usb/udc/udc.c **** {
 1482              	 .loc 1 664 0
 1483              	 .cfi_startproc
 1484              	 
 1485              	 
 1486 0574 80B5     	 push {r7,lr}
 1487              	.LCFI69:
 1488              	 .cfi_def_cfa_offset 8
 1489              	 .cfi_offset 7,-8
 1490              	 .cfi_offset 14,-4
 1491 0576 82B0     	 sub sp,sp,#8
 1492              	.LCFI70:
 1493              	 .cfi_def_cfa_offset 16
 1494 0578 00AF     	 add r7,sp,#0
 1495              	.LCFI71:
 1496              	 .cfi_def_cfa_register 7
 665:../../../platform/common/services/usb/udc/udc.c **** 	uint8_t conf_num;
 666:../../../platform/common/services/usb/udc/udc.c **** 
 667:../../../platform/common/services/usb/udc/udc.c **** 	conf_num = udd_g_ctrlreq.req.wValue & 0xff;
 1497              	 .loc 1 667 0
 1498 057a 294B     	 ldr r3,.L137
 1499 057c 5B88     	 ldrh r3,[r3,#2]
 1500 057e FB71     	 strb r3,[r7,#7]
 668:../../../platform/common/services/usb/udc/udc.c **** 
 669:../../../platform/common/services/usb/udc/udc.c **** 	// Check descriptor ID
 670:../../../platform/common/services/usb/udc/udc.c **** 	switch ((uint8_t) (udd_g_ctrlreq.req.wValue >> 8)) {
 1501              	 .loc 1 670 0
 1502 0580 274B     	 ldr r3,.L137
 1503 0582 5B88     	 ldrh r3,[r3,#2]
 1504 0584 1B0A     	 lsrs r3,r3,#8
 1505 0586 9BB2     	 uxth r3,r3
 1506 0588 DBB2     	 uxtb r3,r3
 1507 058a 022B     	 cmp r3,#2
 1508 058c 0ED0     	 beq .L127
 1509 058e 032B     	 cmp r3,#3
 1510 0590 2AD0     	 beq .L128
 1511 0592 012B     	 cmp r3,#1
 1512 0594 32D1     	 bne .L135
 671:../../../platform/common/services/usb/udc/udc.c **** 	case USB_DT_DEVICE:
 672:../../../platform/common/services/usb/udc/udc.c **** 		// Device descriptor requested
 673:../../../platform/common/services/usb/udc/udc.c **** #ifdef USB_DEVICE_HS_SUPPORT
 674:../../../platform/common/services/usb/udc/udc.c **** 		if (!udd_is_high_speed()) {
 675:../../../platform/common/services/usb/udc/udc.c **** 			udd_set_setup_payload(
 676:../../../platform/common/services/usb/udc/udc.c **** 				(uint8_t *) udc_config.confdev_hs,
 677:../../../platform/common/services/usb/udc/udc.c **** 				udc_config.confdev_hs->bLength);
 678:../../../platform/common/services/usb/udc/udc.c **** 		} else
 679:../../../platform/common/services/usb/udc/udc.c **** #endif
 680:../../../platform/common/services/usb/udc/udc.c **** 		{
 681:../../../platform/common/services/usb/udc/udc.c **** 			udd_set_setup_payload(
 682:../../../platform/common/services/usb/udc/udc.c **** 				(uint8_t *) udc_config.confdev_lsfs,
 1513              	 .loc 1 682 0
 1514 0596 234B     	 ldr r3,.L137+4
 1515 0598 1A68     	 ldr r2,[r3]
 683:../../../platform/common/services/usb/udc/udc.c **** 				udc_config.confdev_lsfs->bLength);
 1516              	 .loc 1 683 0
 1517 059a 224B     	 ldr r3,.L137+4
 1518 059c 1B68     	 ldr r3,[r3]
 1519 059e 1B78     	 ldrb r3,[r3]
 681:../../../platform/common/services/usb/udc/udc.c **** 				(uint8_t *) udc_config.confdev_lsfs,
 1520              	 .loc 1 681 0
 1521 05a0 9BB2     	 uxth r3,r3
 1522 05a2 1946     	 mov r1,r3
 1523 05a4 1046     	 mov r0,r2
 1524 05a6 204B     	 ldr r3,.L137+8
 1525 05a8 9847     	 blx r3
 1526              	.LVL17:
 684:../../../platform/common/services/usb/udc/udc.c **** 		}
 685:../../../platform/common/services/usb/udc/udc.c **** 		break;
 1527              	 .loc 1 685 0
 1528 05aa 2AE0     	 b .L130
 1529              	.L127:
 686:../../../platform/common/services/usb/udc/udc.c **** 
 687:../../../platform/common/services/usb/udc/udc.c **** 	case USB_DT_CONFIGURATION:
 688:../../../platform/common/services/usb/udc/udc.c **** 		// Configuration descriptor requested
 689:../../../platform/common/services/usb/udc/udc.c **** #ifdef USB_DEVICE_HS_SUPPORT
 690:../../../platform/common/services/usb/udc/udc.c **** 		if (udd_is_high_speed()) {
 691:../../../platform/common/services/usb/udc/udc.c **** 			// HS descriptor
 692:../../../platform/common/services/usb/udc/udc.c **** 			if (conf_num >= udc_config.confdev_hs->
 693:../../../platform/common/services/usb/udc/udc.c **** 					bNumConfigurations) {
 694:../../../platform/common/services/usb/udc/udc.c **** 				return false;
 695:../../../platform/common/services/usb/udc/udc.c **** 			}
 696:../../../platform/common/services/usb/udc/udc.c **** 			udd_set_setup_payload(
 697:../../../platform/common/services/usb/udc/udc.c **** 				(uint8_t *)udc_config.conf_hs[conf_num].desc,
 698:../../../platform/common/services/usb/udc/udc.c **** 				le16_to_cpu(udc_config.conf_hs[conf_num].desc->wTotalLength));
 699:../../../platform/common/services/usb/udc/udc.c **** 		} else
 700:../../../platform/common/services/usb/udc/udc.c **** #endif
 701:../../../platform/common/services/usb/udc/udc.c **** 		{
 702:../../../platform/common/services/usb/udc/udc.c **** 			// FS descriptor
 703:../../../platform/common/services/usb/udc/udc.c **** 			if (conf_num >= udc_config.confdev_lsfs->
 1530              	 .loc 1 703 0
 1531 05ac 1D4B     	 ldr r3,.L137+4
 1532 05ae 1B68     	 ldr r3,[r3]
 1533 05b0 5B7C     	 ldrb r3,[r3,#17]
 1534 05b2 FA79     	 ldrb r2,[r7,#7]
 1535 05b4 9A42     	 cmp r2,r3
 1536 05b6 01D3     	 bcc .L131
 704:../../../platform/common/services/usb/udc/udc.c **** 					bNumConfigurations) {
 705:../../../platform/common/services/usb/udc/udc.c **** 				return false;
 1537              	 .loc 1 705 0
 1538 05b8 0023     	 movs r3,#0
 1539 05ba 2DE0     	 b .L132
 1540              	.L131:
 706:../../../platform/common/services/usb/udc/udc.c **** 			}
 707:../../../platform/common/services/usb/udc/udc.c **** 			udd_set_setup_payload(
 708:../../../platform/common/services/usb/udc/udc.c **** 				(uint8_t *)udc_config.conf_lsfs[conf_num].desc,
 1541              	 .loc 1 708 0
 1542 05bc 194B     	 ldr r3,.L137+4
 1543 05be 5A68     	 ldr r2,[r3,#4]
 1544 05c0 FB79     	 ldrb r3,[r7,#7]
 1545 05c2 DB00     	 lsls r3,r3,#3
 1546 05c4 1344     	 add r3,r3,r2
 1547 05c6 1868     	 ldr r0,[r3]
 709:../../../platform/common/services/usb/udc/udc.c **** 				le16_to_cpu(udc_config.conf_lsfs[conf_num].desc->wTotalLength));
 1548              	 .loc 1 709 0
 1549 05c8 164B     	 ldr r3,.L137+4
 1550 05ca 5A68     	 ldr r2,[r3,#4]
 1551 05cc FB79     	 ldrb r3,[r7,#7]
 1552 05ce DB00     	 lsls r3,r3,#3
 1553 05d0 1344     	 add r3,r3,r2
 1554 05d2 1B68     	 ldr r3,[r3]
 707:../../../platform/common/services/usb/udc/udc.c **** 				(uint8_t *)udc_config.conf_lsfs[conf_num].desc,
 1555              	 .loc 1 707 0
 1556 05d4 5B88     	 ldrh r3,[r3,#2]
 1557 05d6 9BB2     	 uxth r3,r3
 1558 05d8 1946     	 mov r1,r3
 1559 05da 134B     	 ldr r3,.L137+8
 1560 05dc 9847     	 blx r3
 1561              	.LVL18:
 710:../../../platform/common/services/usb/udc/udc.c **** 		}
 711:../../../platform/common/services/usb/udc/udc.c **** 		((usb_conf_desc_t *) udd_g_ctrlreq.payload)->bDescriptorType =
 1562              	 .loc 1 711 0
 1563 05de 104B     	 ldr r3,.L137
 1564 05e0 9B68     	 ldr r3,[r3,#8]
 1565 05e2 0222     	 movs r2,#2
 1566 05e4 5A70     	 strb r2,[r3,#1]
 712:../../../platform/common/services/usb/udc/udc.c **** 				USB_DT_CONFIGURATION;
 713:../../../platform/common/services/usb/udc/udc.c **** 		break;
 1567              	 .loc 1 713 0
 1568 05e6 0CE0     	 b .L130
 1569              	.L128:
 714:../../../platform/common/services/usb/udc/udc.c **** 
 715:../../../platform/common/services/usb/udc/udc.c **** #ifdef USB_DEVICE_HS_SUPPORT
 716:../../../platform/common/services/usb/udc/udc.c **** 	case USB_DT_DEVICE_QUALIFIER:
 717:../../../platform/common/services/usb/udc/udc.c **** 		// Device qualifier descriptor requested
 718:../../../platform/common/services/usb/udc/udc.c **** 		udd_set_setup_payload( (uint8_t *) udc_config.qualifier,
 719:../../../platform/common/services/usb/udc/udc.c **** 				udc_config.qualifier->bLength);
 720:../../../platform/common/services/usb/udc/udc.c **** 		break;
 721:../../../platform/common/services/usb/udc/udc.c **** 
 722:../../../platform/common/services/usb/udc/udc.c **** 	case USB_DT_OTHER_SPEED_CONFIGURATION:
 723:../../../platform/common/services/usb/udc/udc.c **** 		// Other configuration descriptor requested
 724:../../../platform/common/services/usb/udc/udc.c **** 		if (!udd_is_high_speed()) {
 725:../../../platform/common/services/usb/udc/udc.c **** 			// HS descriptor
 726:../../../platform/common/services/usb/udc/udc.c **** 			if (conf_num >= udc_config.confdev_hs->
 727:../../../platform/common/services/usb/udc/udc.c **** 					bNumConfigurations) {
 728:../../../platform/common/services/usb/udc/udc.c **** 				return false;
 729:../../../platform/common/services/usb/udc/udc.c **** 			}
 730:../../../platform/common/services/usb/udc/udc.c **** 			udd_set_setup_payload(
 731:../../../platform/common/services/usb/udc/udc.c **** 				(uint8_t *)udc_config.conf_hs[conf_num].desc,
 732:../../../platform/common/services/usb/udc/udc.c **** 				le16_to_cpu(udc_config.conf_hs[conf_num].desc->wTotalLength));
 733:../../../platform/common/services/usb/udc/udc.c **** 		} else {
 734:../../../platform/common/services/usb/udc/udc.c **** 			// FS descriptor
 735:../../../platform/common/services/usb/udc/udc.c **** 			if (conf_num >= udc_config.confdev_lsfs->
 736:../../../platform/common/services/usb/udc/udc.c **** 					bNumConfigurations) {
 737:../../../platform/common/services/usb/udc/udc.c **** 				return false;
 738:../../../platform/common/services/usb/udc/udc.c **** 			}
 739:../../../platform/common/services/usb/udc/udc.c **** 			udd_set_setup_payload(
 740:../../../platform/common/services/usb/udc/udc.c **** 				(uint8_t *)udc_config.conf_lsfs[conf_num].desc,
 741:../../../platform/common/services/usb/udc/udc.c **** 				le16_to_cpu(udc_config.conf_lsfs[conf_num].desc->wTotalLength));
 742:../../../platform/common/services/usb/udc/udc.c **** 		}
 743:../../../platform/common/services/usb/udc/udc.c **** 		((usb_conf_desc_t *) udd_g_ctrlreq.payload)->bDescriptorType =
 744:../../../platform/common/services/usb/udc/udc.c **** 				USB_DT_OTHER_SPEED_CONFIGURATION;
 745:../../../platform/common/services/usb/udc/udc.c **** 		break;
 746:../../../platform/common/services/usb/udc/udc.c **** #endif
 747:../../../platform/common/services/usb/udc/udc.c **** 
 748:../../../platform/common/services/usb/udc/udc.c **** 	case USB_DT_STRING:
 749:../../../platform/common/services/usb/udc/udc.c **** 		// String descriptor requested
 750:../../../platform/common/services/usb/udc/udc.c **** 		if (!udc_req_std_dev_get_str_desc()) {
 1570              	 .loc 1 750 0
 1571 05e8 FFF76EFF 	 bl udc_req_std_dev_get_str_desc
 1572 05ec 0346     	 mov r3,r0
 1573 05ee 83F00103 	 eor r3,r3,#1
 1574 05f2 DBB2     	 uxtb r3,r3
 1575 05f4 002B     	 cmp r3,#0
 1576 05f6 03D0     	 beq .L136
 751:../../../platform/common/services/usb/udc/udc.c **** 			return false;
 1577              	 .loc 1 751 0
 1578 05f8 0023     	 movs r3,#0
 1579 05fa 0DE0     	 b .L132
 1580              	.L135:
 752:../../../platform/common/services/usb/udc/udc.c **** 		}
 753:../../../platform/common/services/usb/udc/udc.c **** 		break;
 754:../../../platform/common/services/usb/udc/udc.c **** 
 755:../../../platform/common/services/usb/udc/udc.c **** 	default:
 756:../../../platform/common/services/usb/udc/udc.c **** 		// Unknown descriptor requested
 757:../../../platform/common/services/usb/udc/udc.c **** 		return false;
 1581              	 .loc 1 757 0
 1582 05fc 0023     	 movs r3,#0
 1583 05fe 0BE0     	 b .L132
 1584              	.L136:
 753:../../../platform/common/services/usb/udc/udc.c **** 
 1585              	 .loc 1 753 0
 1586 0600 00BF     	 nop
 1587              	.L130:
 758:../../../platform/common/services/usb/udc/udc.c **** 	}
 759:../../../platform/common/services/usb/udc/udc.c **** 	// if the descriptor is larger than length requested, then reduce it
 760:../../../platform/common/services/usb/udc/udc.c **** 	if (udd_g_ctrlreq.req.wLength < udd_g_ctrlreq.payload_size) {
 1588              	 .loc 1 760 0
 1589 0602 074B     	 ldr r3,.L137
 1590 0604 DA88     	 ldrh r2,[r3,#6]
 1591 0606 064B     	 ldr r3,.L137
 1592 0608 9B89     	 ldrh r3,[r3,#12]
 1593 060a 9A42     	 cmp r2,r3
 1594 060c 03D2     	 bcs .L134
 761:../../../platform/common/services/usb/udc/udc.c **** 		udd_g_ctrlreq.payload_size = udd_g_ctrlreq.req.wLength;
 1595              	 .loc 1 761 0
 1596 060e 044B     	 ldr r3,.L137
 1597 0610 DA88     	 ldrh r2,[r3,#6]
 1598 0612 034B     	 ldr r3,.L137
 1599 0614 9A81     	 strh r2,[r3,#12]
 1600              	.L134:
 762:../../../platform/common/services/usb/udc/udc.c **** 	}
 763:../../../platform/common/services/usb/udc/udc.c **** 	return true;
 1601              	 .loc 1 763 0
 1602 0616 0123     	 movs r3,#1
 1603              	.L132:
 764:../../../platform/common/services/usb/udc/udc.c **** }
 1604              	 .loc 1 764 0
 1605 0618 1846     	 mov r0,r3
 1606 061a 0837     	 adds r7,r7,#8
 1607              	.LCFI72:
 1608              	 .cfi_def_cfa_offset 8
 1609 061c BD46     	 mov sp,r7
 1610              	.LCFI73:
 1611              	 .cfi_def_cfa_register 13
 1612              	 
 1613 061e 80BD     	 pop {r7,pc}
 1614              	.L138:
 1615              	 .align 2
 1616              	.L137:
 1617 0620 00000000 	 .word udd_g_ctrlreq
 1618 0624 00000000 	 .word udc_config
 1619 0628 00000000 	 .word udd_set_setup_payload
 1620              	 .cfi_endproc
 1621              	.LFE145:
 1623              	 .align 1
 1624              	 .syntax unified
 1625              	 .thumb
 1626              	 .thumb_func
 1627              	 .fpu softvfp
 1629              	udc_req_std_dev_get_configuration:
 1630              	.LFB146:
 765:../../../platform/common/services/usb/udc/udc.c **** 
 766:../../../platform/common/services/usb/udc/udc.c **** /**
 767:../../../platform/common/services/usb/udc/udc.c ****  * \brief Standard device request to get configuration number
 768:../../../platform/common/services/usb/udc/udc.c ****  *
 769:../../../platform/common/services/usb/udc/udc.c ****  * \return true if success
 770:../../../platform/common/services/usb/udc/udc.c ****  */
 771:../../../platform/common/services/usb/udc/udc.c **** static bool udc_req_std_dev_get_configuration(void)
 772:../../../platform/common/services/usb/udc/udc.c **** {
 1631              	 .loc 1 772 0
 1632              	 .cfi_startproc
 1633              	 
 1634              	 
 1635 062c 80B5     	 push {r7,lr}
 1636              	.LCFI74:
 1637              	 .cfi_def_cfa_offset 8
 1638              	 .cfi_offset 7,-8
 1639              	 .cfi_offset 14,-4
 1640 062e 00AF     	 add r7,sp,#0
 1641              	.LCFI75:
 1642              	 .cfi_def_cfa_register 7
 773:../../../platform/common/services/usb/udc/udc.c **** 	if (udd_g_ctrlreq.req.wLength != 1) {
 1643              	 .loc 1 773 0
 1644 0630 064B     	 ldr r3,.L142
 1645 0632 DB88     	 ldrh r3,[r3,#6]
 1646 0634 012B     	 cmp r3,#1
 1647 0636 01D0     	 beq .L140
 774:../../../platform/common/services/usb/udc/udc.c **** 		return false;
 1648              	 .loc 1 774 0
 1649 0638 0023     	 movs r3,#0
 1650 063a 04E0     	 b .L141
 1651              	.L140:
 775:../../../platform/common/services/usb/udc/udc.c **** 	}
 776:../../../platform/common/services/usb/udc/udc.c **** 
 777:../../../platform/common/services/usb/udc/udc.c **** 	udd_set_setup_payload(&udc_num_configuration,1);
 1652              	 .loc 1 777 0
 1653 063c 0121     	 movs r1,#1
 1654 063e 0448     	 ldr r0,.L142+4
 1655 0640 044B     	 ldr r3,.L142+8
 1656 0642 9847     	 blx r3
 1657              	.LVL19:
 778:../../../platform/common/services/usb/udc/udc.c **** 	return true;
 1658              	 .loc 1 778 0
 1659 0644 0123     	 movs r3,#1
 1660              	.L141:
 779:../../../platform/common/services/usb/udc/udc.c **** }
 1661              	 .loc 1 779 0
 1662 0646 1846     	 mov r0,r3
 1663 0648 80BD     	 pop {r7,pc}
 1664              	.L143:
 1665 064a 00BF     	 .align 2
 1666              	.L142:
 1667 064c 00000000 	 .word udd_g_ctrlreq
 1668 0650 00000000 	 .word udc_num_configuration
 1669 0654 00000000 	 .word udd_set_setup_payload
 1670              	 .cfi_endproc
 1671              	.LFE146:
 1673              	 .align 1
 1674              	 .syntax unified
 1675              	 .thumb
 1676              	 .thumb_func
 1677              	 .fpu softvfp
 1679              	udc_req_std_dev_set_configuration:
 1680              	.LFB147:
 780:../../../platform/common/services/usb/udc/udc.c **** 
 781:../../../platform/common/services/usb/udc/udc.c **** /**
 782:../../../platform/common/services/usb/udc/udc.c ****  * \brief Standard device request to enable a configuration
 783:../../../platform/common/services/usb/udc/udc.c ****  *
 784:../../../platform/common/services/usb/udc/udc.c ****  * \return true if success
 785:../../../platform/common/services/usb/udc/udc.c ****  */
 786:../../../platform/common/services/usb/udc/udc.c **** static bool udc_req_std_dev_set_configuration(void)
 787:../../../platform/common/services/usb/udc/udc.c **** {
 1681              	 .loc 1 787 0
 1682              	 .cfi_startproc
 1683              	 
 1684              	 
 1685 0658 80B5     	 push {r7,lr}
 1686              	.LCFI76:
 1687              	 .cfi_def_cfa_offset 8
 1688              	 .cfi_offset 7,-8
 1689              	 .cfi_offset 14,-4
 1690 065a 82B0     	 sub sp,sp,#8
 1691              	.LCFI77:
 1692              	 .cfi_def_cfa_offset 16
 1693 065c 00AF     	 add r7,sp,#0
 1694              	.LCFI78:
 1695              	 .cfi_def_cfa_register 7
 788:../../../platform/common/services/usb/udc/udc.c **** 	uint8_t iface_num;
 789:../../../platform/common/services/usb/udc/udc.c **** 
 790:../../../platform/common/services/usb/udc/udc.c **** 	// Check request length
 791:../../../platform/common/services/usb/udc/udc.c **** 	if (udd_g_ctrlreq.req.wLength) {
 1696              	 .loc 1 791 0
 1697 065e 274B     	 ldr r3,.L153
 1698 0660 DB88     	 ldrh r3,[r3,#6]
 1699 0662 002B     	 cmp r3,#0
 1700 0664 01D0     	 beq .L145
 792:../../../platform/common/services/usb/udc/udc.c **** 		return false;
 1701              	 .loc 1 792 0
 1702 0666 0023     	 movs r3,#0
 1703 0668 43E0     	 b .L146
 1704              	.L145:
 793:../../../platform/common/services/usb/udc/udc.c **** 	}
 794:../../../platform/common/services/usb/udc/udc.c **** 	// Authorize configuration only if the address is valid
 795:../../../platform/common/services/usb/udc/udc.c **** 	if (!udd_getaddress()) {
 1705              	 .loc 1 795 0
 1706 066a 254B     	 ldr r3,.L153+4
 1707 066c 9847     	 blx r3
 1708              	.LVL20:
 1709 066e 0346     	 mov r3,r0
 1710 0670 002B     	 cmp r3,#0
 1711 0672 01D1     	 bne .L147
 796:../../../platform/common/services/usb/udc/udc.c **** 		return false;
 1712              	 .loc 1 796 0
 1713 0674 0023     	 movs r3,#0
 1714 0676 3CE0     	 b .L146
 1715              	.L147:
 797:../../../platform/common/services/usb/udc/udc.c **** 	}
 798:../../../platform/common/services/usb/udc/udc.c **** 	// Check the configuration number requested
 799:../../../platform/common/services/usb/udc/udc.c **** #ifdef USB_DEVICE_HS_SUPPORT
 800:../../../platform/common/services/usb/udc/udc.c **** 	if (udd_is_high_speed()) {
 801:../../../platform/common/services/usb/udc/udc.c **** 		// HS descriptor
 802:../../../platform/common/services/usb/udc/udc.c **** 		if ((udd_g_ctrlreq.req.wValue & 0xFF) >
 803:../../../platform/common/services/usb/udc/udc.c **** 				udc_config.confdev_hs->bNumConfigurations) {
 804:../../../platform/common/services/usb/udc/udc.c **** 			return false;
 805:../../../platform/common/services/usb/udc/udc.c **** 		}
 806:../../../platform/common/services/usb/udc/udc.c **** 	} else
 807:../../../platform/common/services/usb/udc/udc.c **** #endif
 808:../../../platform/common/services/usb/udc/udc.c **** 	{
 809:../../../platform/common/services/usb/udc/udc.c **** 		// FS descriptor
 810:../../../platform/common/services/usb/udc/udc.c **** 		if ((udd_g_ctrlreq.req.wValue & 0xFF) >
 1716              	 .loc 1 810 0
 1717 0678 204B     	 ldr r3,.L153
 1718 067a 5B88     	 ldrh r3,[r3,#2]
 1719 067c DBB2     	 uxtb r3,r3
 811:../../../platform/common/services/usb/udc/udc.c **** 				udc_config.confdev_lsfs->bNumConfigurations) {
 1720              	 .loc 1 811 0
 1721 067e 214A     	 ldr r2,.L153+8
 1722 0680 1268     	 ldr r2,[r2]
 1723 0682 527C     	 ldrb r2,[r2,#17]
 810:../../../platform/common/services/usb/udc/udc.c **** 				udc_config.confdev_lsfs->bNumConfigurations) {
 1724              	 .loc 1 810 0
 1725 0684 9342     	 cmp r3,r2
 1726 0686 01DD     	 ble .L148
 812:../../../platform/common/services/usb/udc/udc.c **** 			return false;
 1727              	 .loc 1 812 0
 1728 0688 0023     	 movs r3,#0
 1729 068a 32E0     	 b .L146
 1730              	.L148:
 813:../../../platform/common/services/usb/udc/udc.c **** 		}
 814:../../../platform/common/services/usb/udc/udc.c **** 	}
 815:../../../platform/common/services/usb/udc/udc.c **** 
 816:../../../platform/common/services/usb/udc/udc.c **** 	// Reset current configuration
 817:../../../platform/common/services/usb/udc/udc.c **** 	udc_reset();
 1731              	 .loc 1 817 0
 1732 068c FFF7FEFF 	 bl udc_reset
 818:../../../platform/common/services/usb/udc/udc.c **** 
 819:../../../platform/common/services/usb/udc/udc.c **** 	// Enable new configuration
 820:../../../platform/common/services/usb/udc/udc.c **** 	udc_num_configuration = udd_g_ctrlreq.req.wValue & 0xFF;
 1733              	 .loc 1 820 0
 1734 0690 1A4B     	 ldr r3,.L153
 1735 0692 5B88     	 ldrh r3,[r3,#2]
 1736 0694 DAB2     	 uxtb r2,r3
 1737 0696 1C4B     	 ldr r3,.L153+12
 1738 0698 1A70     	 strb r2,[r3]
 821:../../../platform/common/services/usb/udc/udc.c **** 	if (udc_num_configuration == 0) {
 1739              	 .loc 1 821 0
 1740 069a 1B4B     	 ldr r3,.L153+12
 1741 069c 1B78     	 ldrb r3,[r3]
 1742 069e 002B     	 cmp r3,#0
 1743 06a0 01D1     	 bne .L149
 822:../../../platform/common/services/usb/udc/udc.c **** 		return true; // Default empty configuration requested
 1744              	 .loc 1 822 0
 1745 06a2 0123     	 movs r3,#1
 1746 06a4 25E0     	 b .L146
 1747              	.L149:
 823:../../../platform/common/services/usb/udc/udc.c **** 	}
 824:../../../platform/common/services/usb/udc/udc.c **** 	// Update pointer of the configuration descriptor
 825:../../../platform/common/services/usb/udc/udc.c **** #ifdef USB_DEVICE_HS_SUPPORT
 826:../../../platform/common/services/usb/udc/udc.c **** 	if (udd_is_high_speed()) {
 827:../../../platform/common/services/usb/udc/udc.c **** 		// HS descriptor
 828:../../../platform/common/services/usb/udc/udc.c **** 		udc_ptr_conf = &udc_config.conf_hs[udc_num_configuration - 1];
 829:../../../platform/common/services/usb/udc/udc.c **** 	} else
 830:../../../platform/common/services/usb/udc/udc.c **** #endif
 831:../../../platform/common/services/usb/udc/udc.c **** 	{
 832:../../../platform/common/services/usb/udc/udc.c **** 		// FS descriptor
 833:../../../platform/common/services/usb/udc/udc.c **** 		udc_ptr_conf = &udc_config.conf_lsfs[udc_num_configuration - 1];
 1748              	 .loc 1 833 0
 1749 06a6 174B     	 ldr r3,.L153+8
 1750 06a8 5A68     	 ldr r2,[r3,#4]
 1751 06aa 174B     	 ldr r3,.L153+12
 1752 06ac 1B78     	 ldrb r3,[r3]
 1753 06ae 03F10053 	 add r3,r3,#536870912
 1754 06b2 013B     	 subs r3,r3,#1
 1755 06b4 DB00     	 lsls r3,r3,#3
 1756 06b6 1344     	 add r3,r3,r2
 1757 06b8 144A     	 ldr r2,.L153+16
 1758 06ba 1360     	 str r3,[r2]
 834:../../../platform/common/services/usb/udc/udc.c **** 	}
 835:../../../platform/common/services/usb/udc/udc.c **** 	// Enable all interfaces of the selected configuration
 836:../../../platform/common/services/usb/udc/udc.c **** 	for (iface_num = 0; iface_num < udc_ptr_conf->desc->bNumInterfaces;
 1759              	 .loc 1 836 0
 1760 06bc 0023     	 movs r3,#0
 1761 06be FB71     	 strb r3,[r7,#7]
 1762 06c0 0FE0     	 b .L150
 1763              	.L152:
 837:../../../platform/common/services/usb/udc/udc.c **** 			iface_num++) {
 838:../../../platform/common/services/usb/udc/udc.c **** 		if (!udc_iface_enable(iface_num, 0)) {
 1764              	 .loc 1 838 0
 1765 06c2 FB79     	 ldrb r3,[r7,#7]
 1766 06c4 0021     	 movs r1,#0
 1767 06c6 1846     	 mov r0,r3
 1768 06c8 FFF77AFD 	 bl udc_iface_enable
 1769 06cc 0346     	 mov r3,r0
 1770 06ce 83F00103 	 eor r3,r3,#1
 1771 06d2 DBB2     	 uxtb r3,r3
 1772 06d4 002B     	 cmp r3,#0
 1773 06d6 01D0     	 beq .L151
 839:../../../platform/common/services/usb/udc/udc.c **** 			return false;
 1774              	 .loc 1 839 0
 1775 06d8 0023     	 movs r3,#0
 1776 06da 0AE0     	 b .L146
 1777              	.L151:
 837:../../../platform/common/services/usb/udc/udc.c **** 			iface_num++) {
 1778              	 .loc 1 837 0
 1779 06dc FB79     	 ldrb r3,[r7,#7]
 1780 06de 0133     	 adds r3,r3,#1
 1781 06e0 FB71     	 strb r3,[r7,#7]
 1782              	.L150:
 836:../../../platform/common/services/usb/udc/udc.c **** 			iface_num++) {
 1783              	 .loc 1 836 0 discriminator 1
 1784 06e2 0A4B     	 ldr r3,.L153+16
 1785 06e4 1B68     	 ldr r3,[r3]
 1786 06e6 1B68     	 ldr r3,[r3]
 1787 06e8 1B79     	 ldrb r3,[r3,#4]
 1788 06ea FA79     	 ldrb r2,[r7,#7]
 1789 06ec 9A42     	 cmp r2,r3
 1790 06ee E8D3     	 bcc .L152
 840:../../../platform/common/services/usb/udc/udc.c **** 		}
 841:../../../platform/common/services/usb/udc/udc.c **** 	}
 842:../../../platform/common/services/usb/udc/udc.c **** 	return true;
 1791              	 .loc 1 842 0
 1792 06f0 0123     	 movs r3,#1
 1793              	.L146:
 843:../../../platform/common/services/usb/udc/udc.c **** }
 1794              	 .loc 1 843 0
 1795 06f2 1846     	 mov r0,r3
 1796 06f4 0837     	 adds r7,r7,#8
 1797              	.LCFI79:
 1798              	 .cfi_def_cfa_offset 8
 1799 06f6 BD46     	 mov sp,r7
 1800              	.LCFI80:
 1801              	 .cfi_def_cfa_register 13
 1802              	 
 1803 06f8 80BD     	 pop {r7,pc}
 1804              	.L154:
 1805 06fa 00BF     	 .align 2
 1806              	.L153:
 1807 06fc 00000000 	 .word udd_g_ctrlreq
 1808 0700 00000000 	 .word udd_getaddress
 1809 0704 00000000 	 .word udc_config
 1810 0708 00000000 	 .word udc_num_configuration
 1811 070c 00000000 	 .word udc_ptr_conf
 1812              	 .cfi_endproc
 1813              	.LFE147:
 1815              	 .align 1
 1816              	 .syntax unified
 1817              	 .thumb
 1818              	 .thumb_func
 1819              	 .fpu softvfp
 1821              	udc_req_std_iface_get_setting:
 1822              	.LFB148:
 844:../../../platform/common/services/usb/udc/udc.c **** 
 845:../../../platform/common/services/usb/udc/udc.c **** /**
 846:../../../platform/common/services/usb/udc/udc.c ****  * \brief Standard interface request
 847:../../../platform/common/services/usb/udc/udc.c ****  * to get the alternate setting number of an interface
 848:../../../platform/common/services/usb/udc/udc.c ****  *
 849:../../../platform/common/services/usb/udc/udc.c ****  * \return true if success
 850:../../../platform/common/services/usb/udc/udc.c ****  */
 851:../../../platform/common/services/usb/udc/udc.c **** static bool udc_req_std_iface_get_setting(void)
 852:../../../platform/common/services/usb/udc/udc.c **** {
 1823              	 .loc 1 852 0
 1824              	 .cfi_startproc
 1825              	 
 1826              	 
 1827 0710 80B5     	 push {r7,lr}
 1828              	.LCFI81:
 1829              	 .cfi_def_cfa_offset 8
 1830              	 .cfi_offset 7,-8
 1831              	 .cfi_offset 14,-4
 1832 0712 82B0     	 sub sp,sp,#8
 1833              	.LCFI82:
 1834              	 .cfi_def_cfa_offset 16
 1835 0714 00AF     	 add r7,sp,#0
 1836              	.LCFI83:
 1837              	 .cfi_def_cfa_register 7
 853:../../../platform/common/services/usb/udc/udc.c **** 	static uint8_t udc_iface_setting;
 854:../../../platform/common/services/usb/udc/udc.c **** 	uint8_t iface_num;
 855:../../../platform/common/services/usb/udc/udc.c **** 	udi_api_t UDC_DESC_STORAGE *udi_api;
 856:../../../platform/common/services/usb/udc/udc.c **** 
 857:../../../platform/common/services/usb/udc/udc.c **** 	if (udd_g_ctrlreq.req.wLength != 1) {
 1838              	 .loc 1 857 0
 1839 0716 1E4B     	 ldr r3,.L161
 1840 0718 DB88     	 ldrh r3,[r3,#6]
 1841 071a 012B     	 cmp r3,#1
 1842 071c 01D0     	 beq .L156
 858:../../../platform/common/services/usb/udc/udc.c **** 		return false; // Error in request
 1843              	 .loc 1 858 0
 1844 071e 0023     	 movs r3,#0
 1845 0720 32E0     	 b .L157
 1846              	.L156:
 859:../../../platform/common/services/usb/udc/udc.c **** 	}
 860:../../../platform/common/services/usb/udc/udc.c **** 	if (!udc_num_configuration) {
 1847              	 .loc 1 860 0
 1848 0722 1C4B     	 ldr r3,.L161+4
 1849 0724 1B78     	 ldrb r3,[r3]
 1850 0726 002B     	 cmp r3,#0
 1851 0728 01D1     	 bne .L158
 861:../../../platform/common/services/usb/udc/udc.c **** 		return false; // The device is not is configured state yet
 1852              	 .loc 1 861 0
 1853 072a 0023     	 movs r3,#0
 1854 072c 2CE0     	 b .L157
 1855              	.L158:
 862:../../../platform/common/services/usb/udc/udc.c **** 	}
 863:../../../platform/common/services/usb/udc/udc.c **** 
 864:../../../platform/common/services/usb/udc/udc.c **** 	// Check the interface number included in the request
 865:../../../platform/common/services/usb/udc/udc.c **** 	iface_num = udd_g_ctrlreq.req.wIndex & 0xFF;
 1856              	 .loc 1 865 0
 1857 072e 184B     	 ldr r3,.L161
 1858 0730 9B88     	 ldrh r3,[r3,#4]
 1859 0732 FB71     	 strb r3,[r7,#7]
 866:../../../platform/common/services/usb/udc/udc.c **** 	if (iface_num >= udc_ptr_conf->desc->bNumInterfaces) {
 1860              	 .loc 1 866 0
 1861 0734 184B     	 ldr r3,.L161+8
 1862 0736 1B68     	 ldr r3,[r3]
 1863 0738 1B68     	 ldr r3,[r3]
 1864 073a 1B79     	 ldrb r3,[r3,#4]
 1865 073c FA79     	 ldrb r2,[r7,#7]
 1866 073e 9A42     	 cmp r2,r3
 1867 0740 01D3     	 bcc .L159
 867:../../../platform/common/services/usb/udc/udc.c **** 		return false;
 1868              	 .loc 1 867 0
 1869 0742 0023     	 movs r3,#0
 1870 0744 20E0     	 b .L157
 1871              	.L159:
 868:../../../platform/common/services/usb/udc/udc.c **** 	}
 869:../../../platform/common/services/usb/udc/udc.c **** 
 870:../../../platform/common/services/usb/udc/udc.c **** 	// Select first alternate setting of the interface to update udc_ptr_iface
 871:../../../platform/common/services/usb/udc/udc.c **** 	// before call iface->getsetting()
 872:../../../platform/common/services/usb/udc/udc.c **** 	if (!udc_update_iface_desc(iface_num, 0)) {
 1872              	 .loc 1 872 0
 1873 0746 FB79     	 ldrb r3,[r7,#7]
 1874 0748 0021     	 movs r1,#0
 1875 074a 1846     	 mov r0,r3
 1876 074c FFF7A0FC 	 bl udc_update_iface_desc
 1877 0750 0346     	 mov r3,r0
 1878 0752 83F00103 	 eor r3,r3,#1
 1879 0756 DBB2     	 uxtb r3,r3
 1880 0758 002B     	 cmp r3,#0
 1881 075a 01D0     	 beq .L160
 873:../../../platform/common/services/usb/udc/udc.c **** 		return false;
 1882              	 .loc 1 873 0
 1883 075c 0023     	 movs r3,#0
 1884 075e 13E0     	 b .L157
 1885              	.L160:
 874:../../../platform/common/services/usb/udc/udc.c **** 	}
 875:../../../platform/common/services/usb/udc/udc.c **** 	// Get alternate setting from UDI
 876:../../../platform/common/services/usb/udc/udc.c **** 	udi_api = udc_ptr_conf->udi_apis[iface_num];
 1886              	 .loc 1 876 0
 1887 0760 0D4B     	 ldr r3,.L161+8
 1888 0762 1B68     	 ldr r3,[r3]
 1889 0764 5A68     	 ldr r2,[r3,#4]
 1890 0766 FB79     	 ldrb r3,[r7,#7]
 1891 0768 9B00     	 lsls r3,r3,#2
 1892 076a 1344     	 add r3,r3,r2
 1893 076c 1B68     	 ldr r3,[r3]
 1894 076e 3B60     	 str r3,[r7]
 877:../../../platform/common/services/usb/udc/udc.c **** 	udc_iface_setting = udi_api->getsetting();
 1895              	 .loc 1 877 0
 1896 0770 3B68     	 ldr r3,[r7]
 1897 0772 DB68     	 ldr r3,[r3,#12]
 1898 0774 9847     	 blx r3
 1899              	.LVL21:
 1900 0776 0346     	 mov r3,r0
 1901 0778 1A46     	 mov r2,r3
 1902 077a 084B     	 ldr r3,.L161+12
 1903 077c 1A70     	 strb r2,[r3]
 878:../../../platform/common/services/usb/udc/udc.c **** 
 879:../../../platform/common/services/usb/udc/udc.c **** 	// Link value to payload pointer of request
 880:../../../platform/common/services/usb/udc/udc.c **** 	udd_set_setup_payload(&udc_iface_setting,1);
 1904              	 .loc 1 880 0
 1905 077e 0121     	 movs r1,#1
 1906 0780 0648     	 ldr r0,.L161+12
 1907 0782 074B     	 ldr r3,.L161+16
 1908 0784 9847     	 blx r3
 1909              	.LVL22:
 881:../../../platform/common/services/usb/udc/udc.c **** 	return true;
 1910              	 .loc 1 881 0
 1911 0786 0123     	 movs r3,#1
 1912              	.L157:
 882:../../../platform/common/services/usb/udc/udc.c **** }
 1913              	 .loc 1 882 0
 1914 0788 1846     	 mov r0,r3
 1915 078a 0837     	 adds r7,r7,#8
 1916              	.LCFI84:
 1917              	 .cfi_def_cfa_offset 8
 1918 078c BD46     	 mov sp,r7
 1919              	.LCFI85:
 1920              	 .cfi_def_cfa_register 13
 1921              	 
 1922 078e 80BD     	 pop {r7,pc}
 1923              	.L162:
 1924              	 .align 2
 1925              	.L161:
 1926 0790 00000000 	 .word udd_g_ctrlreq
 1927 0794 00000000 	 .word udc_num_configuration
 1928 0798 00000000 	 .word udc_ptr_conf
 1929 079c 00000000 	 .word udc_iface_setting.8312
 1930 07a0 00000000 	 .word udd_set_setup_payload
 1931              	 .cfi_endproc
 1932              	.LFE148:
 1934              	 .align 1
 1935              	 .syntax unified
 1936              	 .thumb
 1937              	 .thumb_func
 1938              	 .fpu softvfp
 1940              	udc_req_std_iface_set_setting:
 1941              	.LFB149:
 883:../../../platform/common/services/usb/udc/udc.c **** 
 884:../../../platform/common/services/usb/udc/udc.c **** /**
 885:../../../platform/common/services/usb/udc/udc.c ****  * \brief Standard interface request
 886:../../../platform/common/services/usb/udc/udc.c ****  * to set an alternate setting of an interface
 887:../../../platform/common/services/usb/udc/udc.c ****  *
 888:../../../platform/common/services/usb/udc/udc.c ****  * \return true if success
 889:../../../platform/common/services/usb/udc/udc.c ****  */
 890:../../../platform/common/services/usb/udc/udc.c **** static bool udc_req_std_iface_set_setting(void)
 891:../../../platform/common/services/usb/udc/udc.c **** {
 1942              	 .loc 1 891 0
 1943              	 .cfi_startproc
 1944              	 
 1945              	 
 1946 07a4 80B5     	 push {r7,lr}
 1947              	.LCFI86:
 1948              	 .cfi_def_cfa_offset 8
 1949              	 .cfi_offset 7,-8
 1950              	 .cfi_offset 14,-4
 1951 07a6 82B0     	 sub sp,sp,#8
 1952              	.LCFI87:
 1953              	 .cfi_def_cfa_offset 16
 1954 07a8 00AF     	 add r7,sp,#0
 1955              	.LCFI88:
 1956              	 .cfi_def_cfa_register 7
 892:../../../platform/common/services/usb/udc/udc.c **** 	uint8_t iface_num, setting_num;
 893:../../../platform/common/services/usb/udc/udc.c **** 
 894:../../../platform/common/services/usb/udc/udc.c **** 	if (udd_g_ctrlreq.req.wLength) {
 1957              	 .loc 1 894 0
 1958 07aa 144B     	 ldr r3,.L168
 1959 07ac DB88     	 ldrh r3,[r3,#6]
 1960 07ae 002B     	 cmp r3,#0
 1961 07b0 01D0     	 beq .L164
 895:../../../platform/common/services/usb/udc/udc.c **** 		return false; // Error in request
 1962              	 .loc 1 895 0
 1963 07b2 0023     	 movs r3,#0
 1964 07b4 1EE0     	 b .L165
 1965              	.L164:
 896:../../../platform/common/services/usb/udc/udc.c **** 	}
 897:../../../platform/common/services/usb/udc/udc.c **** 	if (!udc_num_configuration) {
 1966              	 .loc 1 897 0
 1967 07b6 124B     	 ldr r3,.L168+4
 1968 07b8 1B78     	 ldrb r3,[r3]
 1969 07ba 002B     	 cmp r3,#0
 1970 07bc 01D1     	 bne .L166
 898:../../../platform/common/services/usb/udc/udc.c **** 		return false; // The device is not is configured state yet
 1971              	 .loc 1 898 0
 1972 07be 0023     	 movs r3,#0
 1973 07c0 18E0     	 b .L165
 1974              	.L166:
 899:../../../platform/common/services/usb/udc/udc.c **** 	}
 900:../../../platform/common/services/usb/udc/udc.c **** 
 901:../../../platform/common/services/usb/udc/udc.c **** 	iface_num = udd_g_ctrlreq.req.wIndex & 0xFF;
 1975              	 .loc 1 901 0
 1976 07c2 0E4B     	 ldr r3,.L168
 1977 07c4 9B88     	 ldrh r3,[r3,#4]
 1978 07c6 FB71     	 strb r3,[r7,#7]
 902:../../../platform/common/services/usb/udc/udc.c **** 	setting_num = udd_g_ctrlreq.req.wValue & 0xFF;
 1979              	 .loc 1 902 0
 1980 07c8 0C4B     	 ldr r3,.L168
 1981 07ca 5B88     	 ldrh r3,[r3,#2]
 1982 07cc BB71     	 strb r3,[r7,#6]
 903:../../../platform/common/services/usb/udc/udc.c **** 
 904:../../../platform/common/services/usb/udc/udc.c **** 	// Disable current setting
 905:../../../platform/common/services/usb/udc/udc.c **** 	if (!udc_iface_disable(iface_num)) {
 1983              	 .loc 1 905 0
 1984 07ce FB79     	 ldrb r3,[r7,#7]
 1985 07d0 1846     	 mov r0,r3
 1986 07d2 FFF7A9FC 	 bl udc_iface_disable
 1987 07d6 0346     	 mov r3,r0
 1988 07d8 83F00103 	 eor r3,r3,#1
 1989 07dc DBB2     	 uxtb r3,r3
 1990 07de 002B     	 cmp r3,#0
 1991 07e0 01D0     	 beq .L167
 906:../../../platform/common/services/usb/udc/udc.c **** 		return false;
 1992              	 .loc 1 906 0
 1993 07e2 0023     	 movs r3,#0
 1994 07e4 06E0     	 b .L165
 1995              	.L167:
 907:../../../platform/common/services/usb/udc/udc.c **** 	}
 908:../../../platform/common/services/usb/udc/udc.c **** 
 909:../../../platform/common/services/usb/udc/udc.c **** 	// Enable new setting
 910:../../../platform/common/services/usb/udc/udc.c **** 	return udc_iface_enable(iface_num, setting_num);
 1996              	 .loc 1 910 0
 1997 07e6 BA79     	 ldrb r2,[r7,#6]
 1998 07e8 FB79     	 ldrb r3,[r7,#7]
 1999 07ea 1146     	 mov r1,r2
 2000 07ec 1846     	 mov r0,r3
 2001 07ee FFF7E7FC 	 bl udc_iface_enable
 2002 07f2 0346     	 mov r3,r0
 2003              	.L165:
 911:../../../platform/common/services/usb/udc/udc.c **** }
 2004              	 .loc 1 911 0
 2005 07f4 1846     	 mov r0,r3
 2006 07f6 0837     	 adds r7,r7,#8
 2007              	.LCFI89:
 2008              	 .cfi_def_cfa_offset 8
 2009 07f8 BD46     	 mov sp,r7
 2010              	.LCFI90:
 2011              	 .cfi_def_cfa_register 13
 2012              	 
 2013 07fa 80BD     	 pop {r7,pc}
 2014              	.L169:
 2015              	 .align 2
 2016              	.L168:
 2017 07fc 00000000 	 .word udd_g_ctrlreq
 2018 0800 00000000 	 .word udc_num_configuration
 2019              	 .cfi_endproc
 2020              	.LFE149:
 2022              	 .align 1
 2023              	 .syntax unified
 2024              	 .thumb
 2025              	 .thumb_func
 2026              	 .fpu softvfp
 2028              	udc_reqstd:
 2029              	.LFB150:
 912:../../../platform/common/services/usb/udc/udc.c **** 
 913:../../../platform/common/services/usb/udc/udc.c **** /**
 914:../../../platform/common/services/usb/udc/udc.c ****  * \brief Main routine to manage the standard USB SETUP request
 915:../../../platform/common/services/usb/udc/udc.c ****  *
 916:../../../platform/common/services/usb/udc/udc.c ****  * \return true if the request is supported
 917:../../../platform/common/services/usb/udc/udc.c ****  */
 918:../../../platform/common/services/usb/udc/udc.c **** static bool udc_reqstd(void)
 919:../../../platform/common/services/usb/udc/udc.c **** {
 2030              	 .loc 1 919 0
 2031              	 .cfi_startproc
 2032              	 
 2033              	 
 2034 0804 80B5     	 push {r7,lr}
 2035              	.LCFI91:
 2036              	 .cfi_def_cfa_offset 8
 2037              	 .cfi_offset 7,-8
 2038              	 .cfi_offset 14,-4
 2039 0806 00AF     	 add r7,sp,#0
 2040              	.LCFI92:
 2041              	 .cfi_def_cfa_register 7
 920:../../../platform/common/services/usb/udc/udc.c **** 	if (Udd_setup_is_in()) {
 2042              	 .loc 1 920 0
 2043 0808 4D4B     	 ldr r3,.L201
 2044 080a 1B78     	 ldrb r3,[r3]
 2045 080c 5BB2     	 sxtb r3,r3
 2046 080e 002B     	 cmp r3,#0
 2047 0810 3EDA     	 bge .L171
 921:../../../platform/common/services/usb/udc/udc.c **** 		// GET Standard Requests
 922:../../../platform/common/services/usb/udc/udc.c **** 		if (udd_g_ctrlreq.req.wLength == 0) {
 2048              	 .loc 1 922 0
 2049 0812 4B4B     	 ldr r3,.L201
 2050 0814 DB88     	 ldrh r3,[r3,#6]
 2051 0816 002B     	 cmp r3,#0
 2052 0818 01D1     	 bne .L172
 923:../../../platform/common/services/usb/udc/udc.c **** 			return false; // Error for USB host
 2053              	 .loc 1 923 0
 2054 081a 0023     	 movs r3,#0
 2055 081c 8EE0     	 b .L173
 2056              	.L172:
 924:../../../platform/common/services/usb/udc/udc.c **** 		}
 925:../../../platform/common/services/usb/udc/udc.c **** 
 926:../../../platform/common/services/usb/udc/udc.c **** 		if (USB_REQ_RECIP_DEVICE == Udd_setup_recipient()) {
 2057              	 .loc 1 926 0
 2058 081e 484B     	 ldr r3,.L201
 2059 0820 1B78     	 ldrb r3,[r3]
 2060 0822 03F01F03 	 and r3,r3,#31
 2061 0826 002B     	 cmp r3,#0
 2062 0828 14D1     	 bne .L174
 927:../../../platform/common/services/usb/udc/udc.c **** 			// Standard Get Device request
 928:../../../platform/common/services/usb/udc/udc.c **** 			switch (udd_g_ctrlreq.req.bRequest) {
 2063              	 .loc 1 928 0
 2064 082a 454B     	 ldr r3,.L201
 2065 082c 5B78     	 ldrb r3,[r3,#1]
 2066 082e 062B     	 cmp r3,#6
 2067 0830 08D0     	 beq .L176
 2068 0832 082B     	 cmp r3,#8
 2069 0834 0AD0     	 beq .L177
 2070 0836 002B     	 cmp r3,#0
 2071 0838 00D0     	 beq .L178
 929:../../../platform/common/services/usb/udc/udc.c **** 			case USB_REQ_GET_STATUS:
 930:../../../platform/common/services/usb/udc/udc.c **** 				return udc_req_std_dev_get_status();
 931:../../../platform/common/services/usb/udc/udc.c **** 			case USB_REQ_GET_DESCRIPTOR:
 932:../../../platform/common/services/usb/udc/udc.c **** 				return udc_req_std_dev_get_descriptor();
 933:../../../platform/common/services/usb/udc/udc.c **** 			case USB_REQ_GET_CONFIGURATION:
 934:../../../platform/common/services/usb/udc/udc.c **** 				return udc_req_std_dev_get_configuration();
 935:../../../platform/common/services/usb/udc/udc.c **** 			default:
 936:../../../platform/common/services/usb/udc/udc.c **** 				break;
 2072              	 .loc 1 936 0
 2073 083a 0BE0     	 b .L174
 2074              	.L178:
 930:../../../platform/common/services/usb/udc/udc.c **** 			case USB_REQ_GET_DESCRIPTOR:
 2075              	 .loc 1 930 0
 2076 083c FFF772FD 	 bl udc_req_std_dev_get_status
 2077 0840 0346     	 mov r3,r0
 2078 0842 7BE0     	 b .L173
 2079              	.L176:
 932:../../../platform/common/services/usb/udc/udc.c **** 			case USB_REQ_GET_CONFIGURATION:
 2080              	 .loc 1 932 0
 2081 0844 FFF796FE 	 bl udc_req_std_dev_get_descriptor
 2082 0848 0346     	 mov r3,r0
 2083 084a 77E0     	 b .L173
 2084              	.L177:
 934:../../../platform/common/services/usb/udc/udc.c **** 			default:
 2085              	 .loc 1 934 0
 2086 084c FFF7EEFE 	 bl udc_req_std_dev_get_configuration
 2087 0850 0346     	 mov r3,r0
 2088 0852 73E0     	 b .L173
 2089              	.L174:
 937:../../../platform/common/services/usb/udc/udc.c **** 			}
 938:../../../platform/common/services/usb/udc/udc.c **** 		}
 939:../../../platform/common/services/usb/udc/udc.c **** 
 940:../../../platform/common/services/usb/udc/udc.c **** 		if (USB_REQ_RECIP_INTERFACE == Udd_setup_recipient()) {
 2090              	 .loc 1 940 0
 2091 0854 3A4B     	 ldr r3,.L201
 2092 0856 1B78     	 ldrb r3,[r3]
 2093 0858 03F01F03 	 and r3,r3,#31
 2094 085c 012B     	 cmp r3,#1
 2095 085e 08D1     	 bne .L179
 941:../../../platform/common/services/usb/udc/udc.c **** 			// Standard Get Interface request
 942:../../../platform/common/services/usb/udc/udc.c **** 			switch (udd_g_ctrlreq.req.bRequest) {
 2096              	 .loc 1 942 0
 2097 0860 374B     	 ldr r3,.L201
 2098 0862 5B78     	 ldrb r3,[r3,#1]
 2099 0864 0A2B     	 cmp r3,#10
 2100 0866 00D0     	 beq .L181
 943:../../../platform/common/services/usb/udc/udc.c **** 			case USB_REQ_GET_INTERFACE:
 944:../../../platform/common/services/usb/udc/udc.c **** 				return udc_req_std_iface_get_setting();
 945:../../../platform/common/services/usb/udc/udc.c **** 			default:
 946:../../../platform/common/services/usb/udc/udc.c **** 				break;
 2101              	 .loc 1 946 0
 2102 0868 03E0     	 b .L179
 2103              	.L181:
 944:../../../platform/common/services/usb/udc/udc.c **** 			default:
 2104              	 .loc 1 944 0
 2105 086a FFF751FF 	 bl udc_req_std_iface_get_setting
 2106 086e 0346     	 mov r3,r0
 2107 0870 64E0     	 b .L173
 2108              	.L179:
 947:../../../platform/common/services/usb/udc/udc.c **** 			}
 948:../../../platform/common/services/usb/udc/udc.c **** 		}
 949:../../../platform/common/services/usb/udc/udc.c **** #if (0!=USB_DEVICE_MAX_EP)
 950:../../../platform/common/services/usb/udc/udc.c **** 		if (USB_REQ_RECIP_ENDPOINT == Udd_setup_recipient()) {
 2109              	 .loc 1 950 0
 2110 0872 334B     	 ldr r3,.L201
 2111 0874 1B78     	 ldrb r3,[r3]
 2112 0876 03F01F03 	 and r3,r3,#31
 2113 087a 022B     	 cmp r3,#2
 2114 087c 5DD1     	 bne .L185
 951:../../../platform/common/services/usb/udc/udc.c **** 			// Standard Get Endpoint request
 952:../../../platform/common/services/usb/udc/udc.c **** 			switch (udd_g_ctrlreq.req.bRequest) {
 2115              	 .loc 1 952 0
 2116 087e 304B     	 ldr r3,.L201
 2117 0880 5B78     	 ldrb r3,[r3,#1]
 2118 0882 002B     	 cmp r3,#0
 2119 0884 00D0     	 beq .L184
 953:../../../platform/common/services/usb/udc/udc.c **** 			case USB_REQ_GET_STATUS:
 954:../../../platform/common/services/usb/udc/udc.c **** 				return udc_req_std_ep_get_status();
 955:../../../platform/common/services/usb/udc/udc.c **** 			default:
 956:../../../platform/common/services/usb/udc/udc.c **** 				break;
 2120              	 .loc 1 956 0
 2121 0886 58E0     	 b .L185
 2122              	.L184:
 954:../../../platform/common/services/usb/udc/udc.c **** 			default:
 2123              	 .loc 1 954 0
 2124 0888 FFF762FD 	 bl udc_req_std_ep_get_status
 2125 088c 0346     	 mov r3,r0
 2126 088e 55E0     	 b .L173
 2127              	.L171:
 957:../../../platform/common/services/usb/udc/udc.c **** 			}
 958:../../../platform/common/services/usb/udc/udc.c **** 		}
 959:../../../platform/common/services/usb/udc/udc.c **** #endif
 960:../../../platform/common/services/usb/udc/udc.c **** 	} else {
 961:../../../platform/common/services/usb/udc/udc.c **** 		// SET Standard Requests
 962:../../../platform/common/services/usb/udc/udc.c **** 		if (USB_REQ_RECIP_DEVICE == Udd_setup_recipient()) {
 2128              	 .loc 1 962 0
 2129 0890 2B4B     	 ldr r3,.L201
 2130 0892 1B78     	 ldrb r3,[r3]
 2131 0894 03F01F03 	 and r3,r3,#31
 2132 0898 002B     	 cmp r3,#0
 2133 089a 2AD1     	 bne .L186
 963:../../../platform/common/services/usb/udc/udc.c **** 			// Standard Set Device request
 964:../../../platform/common/services/usb/udc/udc.c **** 			switch (udd_g_ctrlreq.req.bRequest) {
 2134              	 .loc 1 964 0
 2135 089c 284B     	 ldr r3,.L201
 2136 089e 5B78     	 ldrb r3,[r3,#1]
 2137 08a0 013B     	 subs r3,r3,#1
 2138 08a2 082B     	 cmp r3,#8
 2139 08a4 24D8     	 bhi .L200
 2140 08a6 01A2     	 adr r2,.L189
 2141 08a8 52F823F0 	 ldr pc,[r2,r3,lsl#2]
 2142              	 .p2align 2
 2143              	.L189:
 2144 08ac D9080000 	 .word .L188+1
 2145 08b0 F1080000 	 .word .L200+1
 2146 08b4 E1080000 	 .word .L190+1
 2147 08b8 F1080000 	 .word .L200+1
 2148 08bc D1080000 	 .word .L191+1
 2149 08c0 F1080000 	 .word .L200+1
 2150 08c4 F1080000 	 .word .L200+1
 2151 08c8 F1080000 	 .word .L200+1
 2152 08cc E9080000 	 .word .L193+1
 2153              	 .p2align 1
 2154              	.L191:
 965:../../../platform/common/services/usb/udc/udc.c **** 			case USB_REQ_SET_ADDRESS:
 966:../../../platform/common/services/usb/udc/udc.c **** 				return udc_req_std_dev_set_address();
 2155              	 .loc 1 966 0
 2156 08d0 FFF7E6FD 	 bl udc_req_std_dev_set_address
 2157 08d4 0346     	 mov r3,r0
 2158 08d6 31E0     	 b .L173
 2159              	.L188:
 967:../../../platform/common/services/usb/udc/udc.c **** 			case USB_REQ_CLEAR_FEATURE:
 968:../../../platform/common/services/usb/udc/udc.c **** 				return udc_req_std_dev_clear_feature();
 2160              	 .loc 1 968 0
 2161 08d8 FFF75CFD 	 bl udc_req_std_dev_clear_feature
 2162 08dc 0346     	 mov r3,r0
 2163 08de 2DE0     	 b .L173
 2164              	.L190:
 969:../../../platform/common/services/usb/udc/udc.c **** 			case USB_REQ_SET_FEATURE:
 970:../../../platform/common/services/usb/udc/udc.c **** 				return udc_req_std_dev_set_feature();
 2165              	 .loc 1 970 0
 2166 08e0 FFF792FD 	 bl udc_req_std_dev_set_feature
 2167 08e4 0346     	 mov r3,r0
 2168 08e6 29E0     	 b .L173
 2169              	.L193:
 971:../../../platform/common/services/usb/udc/udc.c **** 			case USB_REQ_SET_CONFIGURATION:
 972:../../../platform/common/services/usb/udc/udc.c **** 				return udc_req_std_dev_set_configuration();
 2170              	 .loc 1 972 0
 2171 08e8 FFF7B6FE 	 bl udc_req_std_dev_set_configuration
 2172 08ec 0346     	 mov r3,r0
 2173 08ee 25E0     	 b .L173
 2174              	.L200:
 973:../../../platform/common/services/usb/udc/udc.c **** 			case USB_REQ_SET_DESCRIPTOR:
 974:../../../platform/common/services/usb/udc/udc.c **** 				/* Not supported (defined as optional by the USB 2.0 spec) */
 975:../../../platform/common/services/usb/udc/udc.c **** 				break;
 976:../../../platform/common/services/usb/udc/udc.c **** 			default:
 977:../../../platform/common/services/usb/udc/udc.c **** 				break;
 2175              	 .loc 1 977 0
 2176 08f0 00BF     	 nop
 2177              	.L186:
 978:../../../platform/common/services/usb/udc/udc.c **** 			}
 979:../../../platform/common/services/usb/udc/udc.c **** 		}
 980:../../../platform/common/services/usb/udc/udc.c **** 
 981:../../../platform/common/services/usb/udc/udc.c **** 		if (USB_REQ_RECIP_INTERFACE == Udd_setup_recipient()) {
 2178              	 .loc 1 981 0
 2179 08f2 134B     	 ldr r3,.L201
 2180 08f4 1B78     	 ldrb r3,[r3]
 2181 08f6 03F01F03 	 and r3,r3,#31
 2182 08fa 012B     	 cmp r3,#1
 2183 08fc 08D1     	 bne .L194
 982:../../../platform/common/services/usb/udc/udc.c **** 			// Standard Set Interface request
 983:../../../platform/common/services/usb/udc/udc.c **** 			switch (udd_g_ctrlreq.req.bRequest) {
 2184              	 .loc 1 983 0
 2185 08fe 104B     	 ldr r3,.L201
 2186 0900 5B78     	 ldrb r3,[r3,#1]
 2187 0902 0B2B     	 cmp r3,#11
 2188 0904 00D0     	 beq .L196
 984:../../../platform/common/services/usb/udc/udc.c **** 			case USB_REQ_SET_INTERFACE:
 985:../../../platform/common/services/usb/udc/udc.c **** 				return udc_req_std_iface_set_setting();
 986:../../../platform/common/services/usb/udc/udc.c **** 			default:
 987:../../../platform/common/services/usb/udc/udc.c **** 				break;
 2189              	 .loc 1 987 0
 2190 0906 03E0     	 b .L194
 2191              	.L196:
 985:../../../platform/common/services/usb/udc/udc.c **** 			default:
 2192              	 .loc 1 985 0
 2193 0908 FFF74CFF 	 bl udc_req_std_iface_set_setting
 2194 090c 0346     	 mov r3,r0
 2195 090e 15E0     	 b .L173
 2196              	.L194:
 988:../../../platform/common/services/usb/udc/udc.c **** 			}
 989:../../../platform/common/services/usb/udc/udc.c **** 		}
 990:../../../platform/common/services/usb/udc/udc.c **** #if (0!=USB_DEVICE_MAX_EP)
 991:../../../platform/common/services/usb/udc/udc.c **** 		if (USB_REQ_RECIP_ENDPOINT == Udd_setup_recipient()) {
 2197              	 .loc 1 991 0
 2198 0910 0B4B     	 ldr r3,.L201
 2199 0912 1B78     	 ldrb r3,[r3]
 2200 0914 03F01F03 	 and r3,r3,#31
 2201 0918 022B     	 cmp r3,#2
 2202 091a 0ED1     	 bne .L185
 992:../../../platform/common/services/usb/udc/udc.c **** 			// Standard Set Endpoint request
 993:../../../platform/common/services/usb/udc/udc.c **** 			switch (udd_g_ctrlreq.req.bRequest) {
 2203              	 .loc 1 993 0
 2204 091c 084B     	 ldr r3,.L201
 2205 091e 5B78     	 ldrb r3,[r3,#1]
 2206 0920 012B     	 cmp r3,#1
 2207 0922 02D0     	 beq .L198
 2208 0924 032B     	 cmp r3,#3
 2209 0926 04D0     	 beq .L199
 994:../../../platform/common/services/usb/udc/udc.c **** 			case USB_REQ_CLEAR_FEATURE:
 995:../../../platform/common/services/usb/udc/udc.c **** 				return udc_req_std_ep_clear_feature();
 996:../../../platform/common/services/usb/udc/udc.c **** 			case USB_REQ_SET_FEATURE:
 997:../../../platform/common/services/usb/udc/udc.c **** 				return udc_req_std_ep_set_feature();
 998:../../../platform/common/services/usb/udc/udc.c **** 			default:
 999:../../../platform/common/services/usb/udc/udc.c **** 				break;
 2210              	 .loc 1 999 0
 2211 0928 07E0     	 b .L185
 2212              	.L198:
 995:../../../platform/common/services/usb/udc/udc.c **** 			case USB_REQ_SET_FEATURE:
 2213              	 .loc 1 995 0
 2214 092a FFF751FD 	 bl udc_req_std_ep_clear_feature
 2215 092e 0346     	 mov r3,r0
 2216 0930 04E0     	 b .L173
 2217              	.L199:
 997:../../../platform/common/services/usb/udc/udc.c **** 			default:
 2218              	 .loc 1 997 0
 2219 0932 FFF77FFD 	 bl udc_req_std_ep_set_feature
 2220 0936 0346     	 mov r3,r0
 2221 0938 00E0     	 b .L173
 2222              	.L185:
1000:../../../platform/common/services/usb/udc/udc.c **** 			}
1001:../../../platform/common/services/usb/udc/udc.c **** 		}
1002:../../../platform/common/services/usb/udc/udc.c **** #endif
1003:../../../platform/common/services/usb/udc/udc.c **** 	}
1004:../../../platform/common/services/usb/udc/udc.c **** 	return false;
 2223              	 .loc 1 1004 0
 2224 093a 0023     	 movs r3,#0
 2225              	.L173:
1005:../../../platform/common/services/usb/udc/udc.c **** }
 2226              	 .loc 1 1005 0
 2227 093c 1846     	 mov r0,r3
 2228 093e 80BD     	 pop {r7,pc}
 2229              	.L202:
 2230              	 .align 2
 2231              	.L201:
 2232 0940 00000000 	 .word udd_g_ctrlreq
 2233              	 .cfi_endproc
 2234              	.LFE150:
 2236              	 .align 1
 2237              	 .syntax unified
 2238              	 .thumb
 2239              	 .thumb_func
 2240              	 .fpu softvfp
 2242              	udc_req_iface:
 2243              	.LFB151:
1006:../../../platform/common/services/usb/udc/udc.c **** 
1007:../../../platform/common/services/usb/udc/udc.c **** /**
1008:../../../platform/common/services/usb/udc/udc.c ****  * \brief Send the SETUP interface request to UDI
1009:../../../platform/common/services/usb/udc/udc.c ****  *
1010:../../../platform/common/services/usb/udc/udc.c ****  * \return true if the request is supported
1011:../../../platform/common/services/usb/udc/udc.c ****  */
1012:../../../platform/common/services/usb/udc/udc.c **** static bool udc_req_iface(void)
1013:../../../platform/common/services/usb/udc/udc.c **** {
 2244              	 .loc 1 1013 0
 2245              	 .cfi_startproc
 2246              	 
 2247              	 
 2248 0944 80B5     	 push {r7,lr}
 2249              	.LCFI93:
 2250              	 .cfi_def_cfa_offset 8
 2251              	 .cfi_offset 7,-8
 2252              	 .cfi_offset 14,-4
 2253 0946 82B0     	 sub sp,sp,#8
 2254              	.LCFI94:
 2255              	 .cfi_def_cfa_offset 16
 2256 0948 00AF     	 add r7,sp,#0
 2257              	.LCFI95:
 2258              	 .cfi_def_cfa_register 7
1014:../../../platform/common/services/usb/udc/udc.c **** 	uint8_t iface_num;
1015:../../../platform/common/services/usb/udc/udc.c **** 	udi_api_t UDC_DESC_STORAGE *udi_api;
1016:../../../platform/common/services/usb/udc/udc.c **** 
1017:../../../platform/common/services/usb/udc/udc.c **** 	if (0 == udc_num_configuration) {
 2259              	 .loc 1 1017 0
 2260 094a 204B     	 ldr r3,.L209
 2261 094c 1B78     	 ldrb r3,[r3]
 2262 094e 002B     	 cmp r3,#0
 2263 0950 01D1     	 bne .L204
1018:../../../platform/common/services/usb/udc/udc.c **** 		return false; // The device is not is configured state yet
 2264              	 .loc 1 1018 0
 2265 0952 0023     	 movs r3,#0
 2266 0954 36E0     	 b .L205
 2267              	.L204:
1019:../../../platform/common/services/usb/udc/udc.c **** 	}
1020:../../../platform/common/services/usb/udc/udc.c **** 	// Check interface number
1021:../../../platform/common/services/usb/udc/udc.c **** 	iface_num = udd_g_ctrlreq.req.wIndex & 0xFF;
 2268              	 .loc 1 1021 0
 2269 0956 1E4B     	 ldr r3,.L209+4
 2270 0958 9B88     	 ldrh r3,[r3,#4]
 2271 095a FB71     	 strb r3,[r7,#7]
1022:../../../platform/common/services/usb/udc/udc.c **** 	if (iface_num >= udc_ptr_conf->desc->bNumInterfaces) {
 2272              	 .loc 1 1022 0
 2273 095c 1D4B     	 ldr r3,.L209+8
 2274 095e 1B68     	 ldr r3,[r3]
 2275 0960 1B68     	 ldr r3,[r3]
 2276 0962 1B79     	 ldrb r3,[r3,#4]
 2277 0964 FA79     	 ldrb r2,[r7,#7]
 2278 0966 9A42     	 cmp r2,r3
 2279 0968 01D3     	 bcc .L206
1023:../../../platform/common/services/usb/udc/udc.c **** 		return false;
 2280              	 .loc 1 1023 0
 2281 096a 0023     	 movs r3,#0
 2282 096c 2AE0     	 b .L205
 2283              	.L206:
1024:../../../platform/common/services/usb/udc/udc.c **** 	}
1025:../../../platform/common/services/usb/udc/udc.c **** 
1026:../../../platform/common/services/usb/udc/udc.c **** 	//* To update udc_ptr_iface with the selected interface in request
1027:../../../platform/common/services/usb/udc/udc.c **** 	// Select first alternate setting of interface to update udc_ptr_iface
1028:../../../platform/common/services/usb/udc/udc.c **** 	// before calling udi_api->getsetting()
1029:../../../platform/common/services/usb/udc/udc.c **** 	if (!udc_update_iface_desc(iface_num, 0)) {
 2284              	 .loc 1 1029 0
 2285 096e FB79     	 ldrb r3,[r7,#7]
 2286 0970 0021     	 movs r1,#0
 2287 0972 1846     	 mov r0,r3
 2288 0974 FFF78CFB 	 bl udc_update_iface_desc
 2289 0978 0346     	 mov r3,r0
 2290 097a 83F00103 	 eor r3,r3,#1
 2291 097e DBB2     	 uxtb r3,r3
 2292 0980 002B     	 cmp r3,#0
 2293 0982 01D0     	 beq .L207
1030:../../../platform/common/services/usb/udc/udc.c **** 		return false;
 2294              	 .loc 1 1030 0
 2295 0984 0023     	 movs r3,#0
 2296 0986 1DE0     	 b .L205
 2297              	.L207:
1031:../../../platform/common/services/usb/udc/udc.c **** 	}
1032:../../../platform/common/services/usb/udc/udc.c **** 	// Select the interface with the current alternate setting
1033:../../../platform/common/services/usb/udc/udc.c **** 	udi_api = udc_ptr_conf->udi_apis[iface_num];
 2298              	 .loc 1 1033 0
 2299 0988 124B     	 ldr r3,.L209+8
 2300 098a 1B68     	 ldr r3,[r3]
 2301 098c 5A68     	 ldr r2,[r3,#4]
 2302 098e FB79     	 ldrb r3,[r7,#7]
 2303 0990 9B00     	 lsls r3,r3,#2
 2304 0992 1344     	 add r3,r3,r2
 2305 0994 1B68     	 ldr r3,[r3]
 2306 0996 3B60     	 str r3,[r7]
1034:../../../platform/common/services/usb/udc/udc.c **** 	if (!udc_update_iface_desc(iface_num, udi_api->getsetting())) {
 2307              	 .loc 1 1034 0
 2308 0998 3B68     	 ldr r3,[r7]
 2309 099a DB68     	 ldr r3,[r3,#12]
 2310 099c 9847     	 blx r3
 2311              	.LVL23:
 2312 099e 0346     	 mov r3,r0
 2313 09a0 1A46     	 mov r2,r3
 2314 09a2 FB79     	 ldrb r3,[r7,#7]
 2315 09a4 1146     	 mov r1,r2
 2316 09a6 1846     	 mov r0,r3
 2317 09a8 FFF772FB 	 bl udc_update_iface_desc
 2318 09ac 0346     	 mov r3,r0
 2319 09ae 83F00103 	 eor r3,r3,#1
 2320 09b2 DBB2     	 uxtb r3,r3
 2321 09b4 002B     	 cmp r3,#0
 2322 09b6 01D0     	 beq .L208
1035:../../../platform/common/services/usb/udc/udc.c **** 		return false;
 2323              	 .loc 1 1035 0
 2324 09b8 0023     	 movs r3,#0
 2325 09ba 03E0     	 b .L205
 2326              	.L208:
1036:../../../platform/common/services/usb/udc/udc.c **** 	}
1037:../../../platform/common/services/usb/udc/udc.c **** 
1038:../../../platform/common/services/usb/udc/udc.c **** 	// Send the SETUP request to the UDI corresponding to the interface number
1039:../../../platform/common/services/usb/udc/udc.c **** 	return udi_api->setup();
 2327              	 .loc 1 1039 0
 2328 09bc 3B68     	 ldr r3,[r7]
 2329 09be 9B68     	 ldr r3,[r3,#8]
 2330 09c0 9847     	 blx r3
 2331              	.LVL24:
 2332 09c2 0346     	 mov r3,r0
 2333              	.L205:
1040:../../../platform/common/services/usb/udc/udc.c **** }
 2334              	 .loc 1 1040 0
 2335 09c4 1846     	 mov r0,r3
 2336 09c6 0837     	 adds r7,r7,#8
 2337              	.LCFI96:
 2338              	 .cfi_def_cfa_offset 8
 2339 09c8 BD46     	 mov sp,r7
 2340              	.LCFI97:
 2341              	 .cfi_def_cfa_register 13
 2342              	 
 2343 09ca 80BD     	 pop {r7,pc}
 2344              	.L210:
 2345              	 .align 2
 2346              	.L209:
 2347 09cc 00000000 	 .word udc_num_configuration
 2348 09d0 00000000 	 .word udd_g_ctrlreq
 2349 09d4 00000000 	 .word udc_ptr_conf
 2350              	 .cfi_endproc
 2351              	.LFE151:
 2353              	 .align 1
 2354              	 .syntax unified
 2355              	 .thumb
 2356              	 .thumb_func
 2357              	 .fpu softvfp
 2359              	udc_req_ep:
 2360              	.LFB152:
1041:../../../platform/common/services/usb/udc/udc.c **** 
1042:../../../platform/common/services/usb/udc/udc.c **** /**
1043:../../../platform/common/services/usb/udc/udc.c ****  * \brief Send the SETUP interface request to UDI
1044:../../../platform/common/services/usb/udc/udc.c ****  *
1045:../../../platform/common/services/usb/udc/udc.c ****  * \return true if the request is supported
1046:../../../platform/common/services/usb/udc/udc.c ****  */
1047:../../../platform/common/services/usb/udc/udc.c **** static bool udc_req_ep(void)
1048:../../../platform/common/services/usb/udc/udc.c **** {
 2361              	 .loc 1 1048 0
 2362              	 .cfi_startproc
 2363              	 
 2364              	 
 2365 09d8 80B5     	 push {r7,lr}
 2366              	.LCFI98:
 2367              	 .cfi_def_cfa_offset 8
 2368              	 .cfi_offset 7,-8
 2369              	 .cfi_offset 14,-4
 2370 09da 82B0     	 sub sp,sp,#8
 2371              	.LCFI99:
 2372              	 .cfi_def_cfa_offset 16
 2373 09dc 00AF     	 add r7,sp,#0
 2374              	.LCFI100:
 2375              	 .cfi_def_cfa_register 7
1049:../../../platform/common/services/usb/udc/udc.c **** 	uint8_t iface_num;
1050:../../../platform/common/services/usb/udc/udc.c **** 	udi_api_t UDC_DESC_STORAGE *udi_api;
1051:../../../platform/common/services/usb/udc/udc.c **** 
1052:../../../platform/common/services/usb/udc/udc.c **** 	if (0 == udc_num_configuration) {
 2376              	 .loc 1 1052 0
 2377 09de 1E4B     	 ldr r3,.L218
 2378 09e0 1B78     	 ldrb r3,[r3]
 2379 09e2 002B     	 cmp r3,#0
 2380 09e4 01D1     	 bne .L212
1053:../../../platform/common/services/usb/udc/udc.c **** 		return false; // The device is not is configured state yet
 2381              	 .loc 1 1053 0
 2382 09e6 0023     	 movs r3,#0
 2383 09e8 32E0     	 b .L213
 2384              	.L212:
1054:../../../platform/common/services/usb/udc/udc.c **** 	}
1055:../../../platform/common/services/usb/udc/udc.c **** 	// Send this request on all enabled interfaces
1056:../../../platform/common/services/usb/udc/udc.c **** 	iface_num = udd_g_ctrlreq.req.wIndex & 0xFF;
 2385              	 .loc 1 1056 0
 2386 09ea 1C4B     	 ldr r3,.L218+4
 2387 09ec 9B88     	 ldrh r3,[r3,#4]
 2388 09ee FB71     	 strb r3,[r7,#7]
1057:../../../platform/common/services/usb/udc/udc.c **** 	for (iface_num = 0; iface_num < udc_ptr_conf->desc->bNumInterfaces;
 2389              	 .loc 1 1057 0
 2390 09f0 0023     	 movs r3,#0
 2391 09f2 FB71     	 strb r3,[r7,#7]
 2392 09f4 24E0     	 b .L214
 2393              	.L217:
1058:../../../platform/common/services/usb/udc/udc.c **** 			iface_num++) {
1059:../../../platform/common/services/usb/udc/udc.c **** 		// Select the interface with the current alternate setting
1060:../../../platform/common/services/usb/udc/udc.c **** 		udi_api = udc_ptr_conf->udi_apis[iface_num];
 2394              	 .loc 1 1060 0
 2395 09f6 1A4B     	 ldr r3,.L218+8
 2396 09f8 1B68     	 ldr r3,[r3]
 2397 09fa 5A68     	 ldr r2,[r3,#4]
 2398 09fc FB79     	 ldrb r3,[r7,#7]
 2399 09fe 9B00     	 lsls r3,r3,#2
 2400 0a00 1344     	 add r3,r3,r2
 2401 0a02 1B68     	 ldr r3,[r3]
 2402 0a04 3B60     	 str r3,[r7]
1061:../../../platform/common/services/usb/udc/udc.c **** 		if (!udc_update_iface_desc(iface_num, udi_api->getsetting())) {
 2403              	 .loc 1 1061 0
 2404 0a06 3B68     	 ldr r3,[r7]
 2405 0a08 DB68     	 ldr r3,[r3,#12]
 2406 0a0a 9847     	 blx r3
 2407              	.LVL25:
 2408 0a0c 0346     	 mov r3,r0
 2409 0a0e 1A46     	 mov r2,r3
 2410 0a10 FB79     	 ldrb r3,[r7,#7]
 2411 0a12 1146     	 mov r1,r2
 2412 0a14 1846     	 mov r0,r3
 2413 0a16 FFF73BFB 	 bl udc_update_iface_desc
 2414 0a1a 0346     	 mov r3,r0
 2415 0a1c 83F00103 	 eor r3,r3,#1
 2416 0a20 DBB2     	 uxtb r3,r3
 2417 0a22 002B     	 cmp r3,#0
 2418 0a24 01D0     	 beq .L215
1062:../../../platform/common/services/usb/udc/udc.c **** 			return false;
 2419              	 .loc 1 1062 0
 2420 0a26 0023     	 movs r3,#0
 2421 0a28 12E0     	 b .L213
 2422              	.L215:
1063:../../../platform/common/services/usb/udc/udc.c **** 		}
1064:../../../platform/common/services/usb/udc/udc.c **** 
1065:../../../platform/common/services/usb/udc/udc.c **** 		// Send the SETUP request to the UDI
1066:../../../platform/common/services/usb/udc/udc.c **** 		if (udi_api->setup()) {
 2423              	 .loc 1 1066 0
 2424 0a2a 3B68     	 ldr r3,[r7]
 2425 0a2c 9B68     	 ldr r3,[r3,#8]
 2426 0a2e 9847     	 blx r3
 2427              	.LVL26:
 2428 0a30 0346     	 mov r3,r0
 2429 0a32 002B     	 cmp r3,#0
 2430 0a34 01D0     	 beq .L216
1067:../../../platform/common/services/usb/udc/udc.c **** 			return true;
 2431              	 .loc 1 1067 0
 2432 0a36 0123     	 movs r3,#1
 2433 0a38 0AE0     	 b .L213
 2434              	.L216:
1058:../../../platform/common/services/usb/udc/udc.c **** 		// Select the interface with the current alternate setting
 2435              	 .loc 1 1058 0
 2436 0a3a FB79     	 ldrb r3,[r7,#7]
 2437 0a3c 0133     	 adds r3,r3,#1
 2438 0a3e FB71     	 strb r3,[r7,#7]
 2439              	.L214:
1057:../../../platform/common/services/usb/udc/udc.c **** 			iface_num++) {
 2440              	 .loc 1 1057 0 discriminator 1
 2441 0a40 074B     	 ldr r3,.L218+8
 2442 0a42 1B68     	 ldr r3,[r3]
 2443 0a44 1B68     	 ldr r3,[r3]
 2444 0a46 1B79     	 ldrb r3,[r3,#4]
 2445 0a48 FA79     	 ldrb r2,[r7,#7]
 2446 0a4a 9A42     	 cmp r2,r3
 2447 0a4c D3D3     	 bcc .L217
1068:../../../platform/common/services/usb/udc/udc.c **** 		}
1069:../../../platform/common/services/usb/udc/udc.c **** 	}
1070:../../../platform/common/services/usb/udc/udc.c **** 	return false;
 2448              	 .loc 1 1070 0
 2449 0a4e 0023     	 movs r3,#0
 2450              	.L213:
1071:../../../platform/common/services/usb/udc/udc.c **** }
 2451              	 .loc 1 1071 0
 2452 0a50 1846     	 mov r0,r3
 2453 0a52 0837     	 adds r7,r7,#8
 2454              	.LCFI101:
 2455              	 .cfi_def_cfa_offset 8
 2456 0a54 BD46     	 mov sp,r7
 2457              	.LCFI102:
 2458              	 .cfi_def_cfa_register 13
 2459              	 
 2460 0a56 80BD     	 pop {r7,pc}
 2461              	.L219:
 2462              	 .align 2
 2463              	.L218:
 2464 0a58 00000000 	 .word udc_num_configuration
 2465 0a5c 00000000 	 .word udd_g_ctrlreq
 2466 0a60 00000000 	 .word udc_ptr_conf
 2467              	 .cfi_endproc
 2468              	.LFE152:
 2470              	 .align 1
 2471              	 .global udc_process_setup
 2472              	 .syntax unified
 2473              	 .thumb
 2474              	 .thumb_func
 2475              	 .fpu softvfp
 2477              	udc_process_setup:
 2478              	.LFB153:
1072:../../../platform/common/services/usb/udc/udc.c **** 
1073:../../../platform/common/services/usb/udc/udc.c **** /**
1074:../../../platform/common/services/usb/udc/udc.c ****  * \brief Main routine to manage the USB SETUP request.
1075:../../../platform/common/services/usb/udc/udc.c ****  *
1076:../../../platform/common/services/usb/udc/udc.c ****  * This function parses a USB SETUP request and submits an appropriate
1077:../../../platform/common/services/usb/udc/udc.c ****  * response back to the host or, in the case of SETUP OUT requests
1078:../../../platform/common/services/usb/udc/udc.c ****  * with data, sets up a buffer for receiving the data payload.
1079:../../../platform/common/services/usb/udc/udc.c ****  *
1080:../../../platform/common/services/usb/udc/udc.c ****  * The main standard requests defined by the USB 2.0 standard are handled
1081:../../../platform/common/services/usb/udc/udc.c ****  * internally. The interface requests are sent to UDI, and the specific request
1082:../../../platform/common/services/usb/udc/udc.c ****  * sent to a specific application callback.
1083:../../../platform/common/services/usb/udc/udc.c ****  *
1084:../../../platform/common/services/usb/udc/udc.c ****  * \return true if the request is supported, else the request is stalled by UDD
1085:../../../platform/common/services/usb/udc/udc.c ****  */
1086:../../../platform/common/services/usb/udc/udc.c **** bool udc_process_setup(void)
1087:../../../platform/common/services/usb/udc/udc.c **** {
 2479              	 .loc 1 1087 0
 2480              	 .cfi_startproc
 2481              	 
 2482              	 
 2483 0a64 80B5     	 push {r7,lr}
 2484              	.LCFI103:
 2485              	 .cfi_def_cfa_offset 8
 2486              	 .cfi_offset 7,-8
 2487              	 .cfi_offset 14,-4
 2488 0a66 00AF     	 add r7,sp,#0
 2489              	.LCFI104:
 2490              	 .cfi_def_cfa_register 7
1088:../../../platform/common/services/usb/udc/udc.c **** 	// By default no data (receive/send) and no callbacks registered
1089:../../../platform/common/services/usb/udc/udc.c **** 	udd_g_ctrlreq.payload_size = 0;
 2491              	 .loc 1 1089 0
 2492 0a68 1E4B     	 ldr r3,.L226
 2493 0a6a 0022     	 movs r2,#0
 2494 0a6c 9A81     	 strh r2,[r3,#12]
1090:../../../platform/common/services/usb/udc/udc.c **** 	udd_g_ctrlreq.callback = NULL;
 2495              	 .loc 1 1090 0
 2496 0a6e 1D4B     	 ldr r3,.L226
 2497 0a70 0022     	 movs r2,#0
 2498 0a72 1A61     	 str r2,[r3,#16]
1091:../../../platform/common/services/usb/udc/udc.c **** 	udd_g_ctrlreq.over_under_run = NULL;
 2499              	 .loc 1 1091 0
 2500 0a74 1B4B     	 ldr r3,.L226
 2501 0a76 0022     	 movs r2,#0
 2502 0a78 5A61     	 str r2,[r3,#20]
1092:../../../platform/common/services/usb/udc/udc.c **** 
1093:../../../platform/common/services/usb/udc/udc.c **** 	if (Udd_setup_is_in()) {
 2503              	 .loc 1 1093 0
 2504 0a7a 1A4B     	 ldr r3,.L226
 2505 0a7c 1B78     	 ldrb r3,[r3]
 2506 0a7e 5BB2     	 sxtb r3,r3
 2507 0a80 002B     	 cmp r3,#0
 2508 0a82 05DA     	 bge .L221
1094:../../../platform/common/services/usb/udc/udc.c **** 		if (udd_g_ctrlreq.req.wLength == 0) {
 2509              	 .loc 1 1094 0
 2510 0a84 174B     	 ldr r3,.L226
 2511 0a86 DB88     	 ldrh r3,[r3,#6]
 2512 0a88 002B     	 cmp r3,#0
 2513 0a8a 01D1     	 bne .L221
1095:../../../platform/common/services/usb/udc/udc.c **** 			return false; // Error from USB host
 2514              	 .loc 1 1095 0
 2515 0a8c 0023     	 movs r3,#0
 2516 0a8e 27E0     	 b .L222
 2517              	.L221:
1096:../../../platform/common/services/usb/udc/udc.c **** 		}
1097:../../../platform/common/services/usb/udc/udc.c **** 	}
1098:../../../platform/common/services/usb/udc/udc.c **** 
1099:../../../platform/common/services/usb/udc/udc.c **** 	// If standard request then try to decode it in UDC
1100:../../../platform/common/services/usb/udc/udc.c **** 	if (Udd_setup_type() == USB_REQ_TYPE_STANDARD) {
 2518              	 .loc 1 1100 0
 2519 0a90 144B     	 ldr r3,.L226
 2520 0a92 1B78     	 ldrb r3,[r3]
 2521 0a94 03F06003 	 and r3,r3,#96
 2522 0a98 002B     	 cmp r3,#0
 2523 0a9a 06D1     	 bne .L223
1101:../../../platform/common/services/usb/udc/udc.c **** 		if (udc_reqstd()) {
 2524              	 .loc 1 1101 0
 2525 0a9c FFF7B2FE 	 bl udc_reqstd
 2526 0aa0 0346     	 mov r3,r0
 2527 0aa2 002B     	 cmp r3,#0
 2528 0aa4 01D0     	 beq .L223
1102:../../../platform/common/services/usb/udc/udc.c **** 			return true;
 2529              	 .loc 1 1102 0
 2530 0aa6 0123     	 movs r3,#1
 2531 0aa8 1AE0     	 b .L222
 2532              	.L223:
1103:../../../platform/common/services/usb/udc/udc.c **** 		}
1104:../../../platform/common/services/usb/udc/udc.c **** 	}
1105:../../../platform/common/services/usb/udc/udc.c **** 
1106:../../../platform/common/services/usb/udc/udc.c **** 	// If interface request then try to decode it in UDI
1107:../../../platform/common/services/usb/udc/udc.c **** 	if (Udd_setup_recipient() == USB_REQ_RECIP_INTERFACE) {
 2533              	 .loc 1 1107 0
 2534 0aaa 0E4B     	 ldr r3,.L226
 2535 0aac 1B78     	 ldrb r3,[r3]
 2536 0aae 03F01F03 	 and r3,r3,#31
 2537 0ab2 012B     	 cmp r3,#1
 2538 0ab4 06D1     	 bne .L224
1108:../../../platform/common/services/usb/udc/udc.c **** 		if (udc_req_iface()) {
 2539              	 .loc 1 1108 0
 2540 0ab6 FFF745FF 	 bl udc_req_iface
 2541 0aba 0346     	 mov r3,r0
 2542 0abc 002B     	 cmp r3,#0
 2543 0abe 01D0     	 beq .L224
1109:../../../platform/common/services/usb/udc/udc.c **** 			return true;
 2544              	 .loc 1 1109 0
 2545 0ac0 0123     	 movs r3,#1
 2546 0ac2 0DE0     	 b .L222
 2547              	.L224:
1110:../../../platform/common/services/usb/udc/udc.c **** 		}
1111:../../../platform/common/services/usb/udc/udc.c **** 	}
1112:../../../platform/common/services/usb/udc/udc.c **** 
1113:../../../platform/common/services/usb/udc/udc.c **** 	// If endpoint request then try to decode it in UDI
1114:../../../platform/common/services/usb/udc/udc.c **** 	if (Udd_setup_recipient() == USB_REQ_RECIP_ENDPOINT) {
 2548              	 .loc 1 1114 0
 2549 0ac4 074B     	 ldr r3,.L226
 2550 0ac6 1B78     	 ldrb r3,[r3]
 2551 0ac8 03F01F03 	 and r3,r3,#31
 2552 0acc 022B     	 cmp r3,#2
 2553 0ace 06D1     	 bne .L225
1115:../../../platform/common/services/usb/udc/udc.c **** 		if (udc_req_ep()) {
 2554              	 .loc 1 1115 0
 2555 0ad0 FFF782FF 	 bl udc_req_ep
 2556 0ad4 0346     	 mov r3,r0
 2557 0ad6 002B     	 cmp r3,#0
 2558 0ad8 01D0     	 beq .L225
1116:../../../platform/common/services/usb/udc/udc.c **** 			return true;
 2559              	 .loc 1 1116 0
 2560 0ada 0123     	 movs r3,#1
 2561 0adc 00E0     	 b .L222
 2562              	.L225:
1117:../../../platform/common/services/usb/udc/udc.c **** 		}
1118:../../../platform/common/services/usb/udc/udc.c **** 	}
1119:../../../platform/common/services/usb/udc/udc.c **** 
1120:../../../platform/common/services/usb/udc/udc.c **** 	// Here SETUP request unknown by UDC and UDIs
1121:../../../platform/common/services/usb/udc/udc.c **** #ifdef USB_DEVICE_SPECIFIC_REQUEST
1122:../../../platform/common/services/usb/udc/udc.c **** 	// Try to decode it in specific callback
1123:../../../platform/common/services/usb/udc/udc.c **** 	return USB_DEVICE_SPECIFIC_REQUEST(); // Ex: Vendor request,...
1124:../../../platform/common/services/usb/udc/udc.c **** #else
1125:../../../platform/common/services/usb/udc/udc.c **** 	return false;
 2563              	 .loc 1 1125 0
 2564 0ade 0023     	 movs r3,#0
 2565              	.L222:
1126:../../../platform/common/services/usb/udc/udc.c **** #endif
1127:../../../platform/common/services/usb/udc/udc.c **** }
 2566              	 .loc 1 1127 0
 2567 0ae0 1846     	 mov r0,r3
 2568 0ae2 80BD     	 pop {r7,pc}
 2569              	.L227:
 2570              	 .align 2
 2571              	.L226:
 2572 0ae4 00000000 	 .word udd_g_ctrlreq
 2573              	 .cfi_endproc
 2574              	.LFE153:
 2576              	 .section .bss.udc_ep_status.8254,"aw",%nobits
 2577              	 .align 1
 2580              	udc_ep_status.8254:
 2581 0000 0000     	 .space 2
 2582              	 .section .bss.udc_iface_setting.8312,"aw",%nobits
 2585              	udc_iface_setting.8312:
 2586 0000 00       	 .space 1
 2587              	 .text
 2588              	.Letext0:
 2589              	 .file 2 "c:\\program files (x86)\\atmel\\studio\\7.0\\toolchain\\arm\\arm-gnu-toolchain\\arm-none-eabi\\include\\machine\\_default_types.h"
 2590              	 .file 3 "c:\\program files (x86)\\atmel\\studio\\7.0\\toolchain\\arm\\arm-gnu-toolchain\\arm-none-eabi\\include\\sys\\_stdint.h"
 2591              	 .file 4 "../../../platform/thirdparty/CMSIS/include/core_cm4.h"
 2592              	 .file 5 "../../../platform/sam/utils/cmsis/sam4l/source/templates/system_sam4l.h"
 2593              	 .file 6 "c:\\program files (x86)\\atmel\\studio\\7.0\\toolchain\\arm\\arm-gnu-toolchain\\arm-none-eabi\\include\\sys\\lock.h"
 2594              	 .file 7 "c:\\program files (x86)\\atmel\\studio\\7.0\\toolchain\\arm\\arm-gnu-toolchain\\arm-none-eabi\\include\\sys\\_types.h"
 2595              	 .file 8 "c:\\program files (x86)\\atmel\\studio\\7.0\\toolchain\\arm\\arm-gnu-toolchain\\lib\\gcc\\arm-none-eabi\\6.3.1\\include\\stddef.h"
 2596              	 .file 9 "c:\\program files (x86)\\atmel\\studio\\7.0\\toolchain\\arm\\arm-gnu-toolchain\\arm-none-eabi\\include\\sys\\reent.h"
 2597              	 .file 10 "c:\\program files (x86)\\atmel\\studio\\7.0\\toolchain\\arm\\arm-gnu-toolchain\\arm-none-eabi\\include\\stdlib.h"
 2598              	 .file 11 "../../../platform/common/utils/interrupt/interrupt_sam_nvic.h"
 2599              	 .file 12 "../../../platform/sam/utils/compiler.h"
 2600              	 .file 13 "../../../platform/common/services/usb/usb_protocol.h"
 2601              	 .file 14 "../../../platform/common/services/usb/udc/udi.h"
 2602              	 .file 15 "../../../platform/common/services/usb/udc/udc_desc.h"
 2603              	 .file 16 "../../../platform/common/services/usb/udc/udd.h"
 2604              	 .file 17 "../../../platform/common/services/usb/class/cdc/device/udi_cdc.h"
 2605              	 .file 18 "../../../platform/common/utils/stdio/stdio_usb/stdio_usb.h"
DEFINED SYMBOLS
                            *ABS*:00000000 udc.c
    {standard input}:16     .bss.cpu_irq_critical_section_counter:00000000 $d
    {standard input}:19     .bss.cpu_irq_critical_section_counter:00000000 cpu_irq_critical_section_counter
    {standard input}:24     .bss.cpu_irq_prev_interrupt_state:00000000 cpu_irq_prev_interrupt_state
    {standard input}:25     .bss.cpu_irq_prev_interrupt_state:00000000 $d
    {standard input}:27     .bss.udc_device_status:00000000 $d
    {standard input}:30     .bss.udc_device_status:00000000 udc_device_status
    {standard input}:35     .bss.udc_num_configuration:00000000 udc_num_configuration
    {standard input}:36     .bss.udc_num_configuration:00000000 $d
    {standard input}:38     .bss.udc_ptr_conf:00000000 $d
    {standard input}:41     .bss.udc_ptr_conf:00000000 udc_ptr_conf
    {standard input}:44     .bss.udc_ptr_iface:00000000 $d
    {standard input}:47     .bss.udc_ptr_iface:00000000 udc_ptr_iface
    {standard input}:50     .data.udc_string_desc_languageid:00000000 $d
    {standard input}:53     .data.udc_string_desc_languageid:00000000 udc_string_desc_languageid
    {standard input}:58     .data.udc_string_manufacturer_name:00000000 $d
    {standard input}:61     .data.udc_string_manufacturer_name:00000000 udc_string_manufacturer_name
    {standard input}:64     .data.udc_string_product_name:00000000 $d
    {standard input}:67     .data.udc_string_product_name:00000000 udc_string_product_name
    {standard input}:70     .data.udc_string_desc:00000000 $d
    {standard input}:73     .data.udc_string_desc:00000000 udc_string_desc
    {standard input}:78     .text:00000000 $t
    {standard input}:85     .text:00000000 udc_get_interface_desc
    {standard input}:117    .text:00000010 $d
    {standard input}:121    .text:00000014 $t
    {standard input}:127    .text:00000014 udc_get_eof_conf
    {standard input}:167    .text:00000034 $d
    {standard input}:171    .text:00000038 $t
    {standard input}:177    .text:00000038 udc_next_desc_in_iface
    {standard input}:267    .text:00000090 udc_update_iface_desc
    {standard input}:383    .text:0000011c $d
    {standard input}:389    .text:00000128 $t
    {standard input}:395    .text:00000128 udc_iface_disable
    {standard input}:506    .text:000001b4 $d
    {standard input}:512    .text:000001c0 $t
    {standard input}:518    .text:000001c0 udc_iface_enable
    {standard input}:618    .text:00000244 $d
    {standard input}:624    .text:00000250 $t
    {standard input}:631    .text:00000250 udc_start
    {standard input}:655    .text:0000025c $d
    {standard input}:659    .text:00000260 $t
    {standard input}:666    .text:00000260 udc_stop
    {standard input}:703    .text:00000274 udc_reset
    {standard input}:692    .text:00000270 $d
    {standard input}:696    .text:00000274 $t
    {standard input}:770    .text:000002b8 $d
    {standard input}:776    .text:000002c4 $t
    {standard input}:783    .text:000002c4 udc_sof_notify
    {standard input}:861    .text:0000031c $d
    {standard input}:866    .text:00000324 $t
    {standard input}:872    .text:00000324 udc_req_std_dev_get_status
    {standard input}:910    .text:00000344 $d
    {standard input}:916    .text:00000350 $t
    {standard input}:922    .text:00000350 udc_req_std_ep_get_status
    {standard input}:974    .text:00000384 $d
    {standard input}:2580   .bss.udc_ep_status.8254:00000000 udc_ep_status.8254
    {standard input}:981    .text:00000394 $t
    {standard input}:987    .text:00000394 udc_req_std_dev_clear_feature
    {standard input}:1043   .text:000003c8 $d
    {standard input}:1048   .text:000003d0 $t
    {standard input}:1054   .text:000003d0 udc_req_std_ep_clear_feature
    {standard input}:1102   .text:00000400 $d
    {standard input}:1107   .text:00000408 $t
    {standard input}:1113   .text:00000408 udc_req_std_dev_set_feature
    {standard input}:1164   .text:00000430 $d
    {standard input}:1168   .text:00000434 $t
    {standard input}:1174   .text:00000434 udc_req_std_ep_set_feature
    {standard input}:1230   .text:00000470 $d
    {standard input}:1236   .text:0000047c $t
    {standard input}:1242   .text:0000047c udc_valid_address
    {standard input}:1272   .text:00000498 $d
    {standard input}:1277   .text:000004a0 $t
    {standard input}:1283   .text:000004a0 udc_req_std_dev_set_address
    {standard input}:1327   .text:000004c0 $d
    {standard input}:1332   .text:000004c8 $t
    {standard input}:1338   .text:000004c8 udc_req_std_dev_get_str_desc
    {standard input}:1465   .text:0000055c $d
    {standard input}:1474   .text:00000574 $t
    {standard input}:1480   .text:00000574 udc_req_std_dev_get_descriptor
    {standard input}:1617   .text:00000620 $d
    {standard input}:1623   .text:0000062c $t
    {standard input}:1629   .text:0000062c udc_req_std_dev_get_configuration
    {standard input}:1667   .text:0000064c $d
    {standard input}:1673   .text:00000658 $t
    {standard input}:1679   .text:00000658 udc_req_std_dev_set_configuration
    {standard input}:1807   .text:000006fc $d
    {standard input}:1815   .text:00000710 $t
    {standard input}:1821   .text:00000710 udc_req_std_iface_get_setting
    {standard input}:1926   .text:00000790 $d
    {standard input}:2585   .bss.udc_iface_setting.8312:00000000 udc_iface_setting.8312
    {standard input}:1934   .text:000007a4 $t
    {standard input}:1940   .text:000007a4 udc_req_std_iface_set_setting
    {standard input}:2017   .text:000007fc $d
    {standard input}:2022   .text:00000804 $t
    {standard input}:2028   .text:00000804 udc_reqstd
    {standard input}:2144   .text:000008ac $d
    {standard input}:2153   .text:000008d0 $t
    {standard input}:2232   .text:00000940 $d
    {standard input}:2236   .text:00000944 $t
    {standard input}:2242   .text:00000944 udc_req_iface
    {standard input}:2347   .text:000009cc $d
    {standard input}:2353   .text:000009d8 $t
    {standard input}:2359   .text:000009d8 udc_req_ep
    {standard input}:2464   .text:00000a58 $d
    {standard input}:2470   .text:00000a64 $t
    {standard input}:2477   .text:00000a64 udc_process_setup
    {standard input}:2572   .text:00000ae4 $d
    {standard input}:2577   .bss.udc_ep_status.8254:00000000 $d
    {standard input}:2586   .bss.udc_iface_setting.8312:00000000 $d
                     .debug_frame:00000010 $d

UNDEFINED SYMBOLS
udd_ep_free
udd_ep_alloc
udd_enable
udd_disable
udd_g_ctrlreq
udd_set_setup_payload
udd_ep_is_halted
udd_ep_clear_halt
udd_ep_abort
udd_ep_set_halt
udd_set_address
udc_config
udd_getaddress
