Archive member included to satisfy reference by file (symbol)

../../../stack/LwMesh/TDMA/services/common_hw_timer/sam/lib\libsam4l_lib_hw_timer.a(common_hw_timer.o)
                              ../../../stack/LwMesh/TDMA/sys/src/sysTimer.o (common_tc_delay)
c:/program files (x86)/atmel/studio/7.0/toolchain/arm/arm-gnu-toolchain/bin/../lib/gcc/arm-none-eabi/6.3.1/../../../../arm-none-eabi/lib/thumb/v7e-m\libg.a(lib_a-exit.o)
                              c:/program files (x86)/atmel/studio/7.0/toolchain/arm/arm-gnu-toolchain/bin/../lib/gcc/arm-none-eabi/6.3.1/../../../../arm-none-eabi/lib/thumb/v7e-m/crt0.o (exit)
c:/program files (x86)/atmel/studio/7.0/toolchain/arm/arm-gnu-toolchain/bin/../lib/gcc/arm-none-eabi/6.3.1/../../../../arm-none-eabi/lib/thumb/v7e-m\libg.a(lib_a-impure.o)
                              c:/program files (x86)/atmel/studio/7.0/toolchain/arm/arm-gnu-toolchain/bin/../lib/gcc/arm-none-eabi/6.3.1/../../../../arm-none-eabi/lib/thumb/v7e-m\libg.a(lib_a-exit.o) (_global_impure_ptr)
c:/program files (x86)/atmel/studio/7.0/toolchain/arm/arm-gnu-toolchain/bin/../lib/gcc/arm-none-eabi/6.3.1/../../../../arm-none-eabi/lib/thumb/v7e-m\libg.a(lib_a-init.o)
                              c:/program files (x86)/atmel/studio/7.0/toolchain/arm/arm-gnu-toolchain/bin/../lib/gcc/arm-none-eabi/6.3.1/../../../../arm-none-eabi/lib/thumb/v7e-m/crt0.o (__libc_init_array)
c:/program files (x86)/atmel/studio/7.0/toolchain/arm/arm-gnu-toolchain/bin/../lib/gcc/arm-none-eabi/6.3.1/../../../../arm-none-eabi/lib/thumb/v7e-m\libg.a(lib_a-memcpy.o)
                              ../../../stack/LwMesh/TDMA/nwk/src/nwkDataReq.o (memcpy)
c:/program files (x86)/atmel/studio/7.0/toolchain/arm/arm-gnu-toolchain/bin/../lib/gcc/arm-none-eabi/6.3.1/../../../../arm-none-eabi/lib/thumb/v7e-m\libg.a(lib_a-memset.o)
                              c:/program files (x86)/atmel/studio/7.0/toolchain/arm/arm-gnu-toolchain/bin/../lib/gcc/arm-none-eabi/6.3.1/../../../../arm-none-eabi/lib/thumb/v7e-m/crt0.o (memset)
c:/program files (x86)/atmel/studio/7.0/toolchain/arm/arm-gnu-toolchain/bin/../lib/gcc/arm-none-eabi/6.3.1/../../../../arm-none-eabi/lib/thumb/v7e-m\libg.a(lib_a-printf.o)
                              TC_lldn.o (printf)
c:/program files (x86)/atmel/studio/7.0/toolchain/arm/arm-gnu-toolchain/bin/../lib/gcc/arm-none-eabi/6.3.1/../../../../arm-none-eabi/lib/thumb/v7e-m\libg.a(lib_a-rand.o)
                              ../../../stack/LwMesh/TDMA/nwk/src/nwkTx.o (rand)
c:/program files (x86)/atmel/studio/7.0/toolchain/arm/arm-gnu-toolchain/bin/../lib/gcc/arm-none-eabi/6.3.1/../../../../arm-none-eabi/lib/thumb/v7e-m\libg.a(lib_a-setbuf.o)
                              ../../../platform/common/utils/stdio/stdio_usb/stdio_usb.o (setbuf)
c:/program files (x86)/atmel/studio/7.0/toolchain/arm/arm-gnu-toolchain/bin/../lib/gcc/arm-none-eabi/6.3.1/../../../../arm-none-eabi/lib/thumb/v7e-m\libg.a(lib_a-setvbuf.o)
                              c:/program files (x86)/atmel/studio/7.0/toolchain/arm/arm-gnu-toolchain/bin/../lib/gcc/arm-none-eabi/6.3.1/../../../../arm-none-eabi/lib/thumb/v7e-m\libg.a(lib_a-setbuf.o) (setvbuf)
c:/program files (x86)/atmel/studio/7.0/toolchain/arm/arm-gnu-toolchain/bin/../lib/gcc/arm-none-eabi/6.3.1/../../../../arm-none-eabi/lib/thumb/v7e-m\libg.a(lib_a-vfprintf.o)
                              c:/program files (x86)/atmel/studio/7.0/toolchain/arm/arm-gnu-toolchain/bin/../lib/gcc/arm-none-eabi/6.3.1/../../../../arm-none-eabi/lib/thumb/v7e-m\libg.a(lib_a-printf.o) (_vfprintf_r)
c:/program files (x86)/atmel/studio/7.0/toolchain/arm/arm-gnu-toolchain/bin/../lib/gcc/arm-none-eabi/6.3.1/../../../../arm-none-eabi/lib/thumb/v7e-m\libg.a(lib_a-wsetup.o)
                              c:/program files (x86)/atmel/studio/7.0/toolchain/arm/arm-gnu-toolchain/bin/../lib/gcc/arm-none-eabi/6.3.1/../../../../arm-none-eabi/lib/thumb/v7e-m\libg.a(lib_a-vfprintf.o) (__swsetup_r)
c:/program files (x86)/atmel/studio/7.0/toolchain/arm/arm-gnu-toolchain/bin/../lib/gcc/arm-none-eabi/6.3.1/../../../../arm-none-eabi/lib/thumb/v7e-m\libg.a(lib_a-__call_atexit.o)
                              c:/program files (x86)/atmel/studio/7.0/toolchain/arm/arm-gnu-toolchain/bin/../lib/gcc/arm-none-eabi/6.3.1/../../../../arm-none-eabi/lib/thumb/v7e-m\libg.a(lib_a-exit.o) (__call_exitprocs)
c:/program files (x86)/atmel/studio/7.0/toolchain/arm/arm-gnu-toolchain/bin/../lib/gcc/arm-none-eabi/6.3.1/../../../../arm-none-eabi/lib/thumb/v7e-m\libg.a(lib_a-atexit.o)
                              c:/program files (x86)/atmel/studio/7.0/toolchain/arm/arm-gnu-toolchain/bin/../lib/gcc/arm-none-eabi/6.3.1/../../../../arm-none-eabi/lib/thumb/v7e-m\libg.a(lib_a-__call_atexit.o) (atexit)
c:/program files (x86)/atmel/studio/7.0/toolchain/arm/arm-gnu-toolchain/bin/../lib/gcc/arm-none-eabi/6.3.1/../../../../arm-none-eabi/lib/thumb/v7e-m\libg.a(lib_a-dtoa.o)
                              c:/program files (x86)/atmel/studio/7.0/toolchain/arm/arm-gnu-toolchain/bin/../lib/gcc/arm-none-eabi/6.3.1/../../../../arm-none-eabi/lib/thumb/v7e-m\libg.a(lib_a-vfprintf.o) (_dtoa_r)
c:/program files (x86)/atmel/studio/7.0/toolchain/arm/arm-gnu-toolchain/bin/../lib/gcc/arm-none-eabi/6.3.1/../../../../arm-none-eabi/lib/thumb/v7e-m\libg.a(lib_a-fflush.o)
                              c:/program files (x86)/atmel/studio/7.0/toolchain/arm/arm-gnu-toolchain/bin/../lib/gcc/arm-none-eabi/6.3.1/../../../../arm-none-eabi/lib/thumb/v7e-m\libg.a(lib_a-setvbuf.o) (_fflush_r)
c:/program files (x86)/atmel/studio/7.0/toolchain/arm/arm-gnu-toolchain/bin/../lib/gcc/arm-none-eabi/6.3.1/../../../../arm-none-eabi/lib/thumb/v7e-m\libg.a(lib_a-findfp.o)
                              c:/program files (x86)/atmel/studio/7.0/toolchain/arm/arm-gnu-toolchain/bin/../lib/gcc/arm-none-eabi/6.3.1/../../../../arm-none-eabi/lib/thumb/v7e-m\libg.a(lib_a-setvbuf.o) (__sinit)
c:/program files (x86)/atmel/studio/7.0/toolchain/arm/arm-gnu-toolchain/bin/../lib/gcc/arm-none-eabi/6.3.1/../../../../arm-none-eabi/lib/thumb/v7e-m\libg.a(lib_a-fini.o)
                              c:/program files (x86)/atmel/studio/7.0/toolchain/arm/arm-gnu-toolchain/bin/../lib/gcc/arm-none-eabi/6.3.1/../../../../arm-none-eabi/lib/thumb/v7e-m\libg.a(lib_a-__call_atexit.o) (__libc_fini_array)
c:/program files (x86)/atmel/studio/7.0/toolchain/arm/arm-gnu-toolchain/bin/../lib/gcc/arm-none-eabi/6.3.1/../../../../arm-none-eabi/lib/thumb/v7e-m\libg.a(lib_a-freer.o)
                              c:/program files (x86)/atmel/studio/7.0/toolchain/arm/arm-gnu-toolchain/bin/../lib/gcc/arm-none-eabi/6.3.1/../../../../arm-none-eabi/lib/thumb/v7e-m\libg.a(lib_a-setvbuf.o) (_free_r)
c:/program files (x86)/atmel/studio/7.0/toolchain/arm/arm-gnu-toolchain/bin/../lib/gcc/arm-none-eabi/6.3.1/../../../../arm-none-eabi/lib/thumb/v7e-m\libg.a(lib_a-fwalk.o)
                              c:/program files (x86)/atmel/studio/7.0/toolchain/arm/arm-gnu-toolchain/bin/../lib/gcc/arm-none-eabi/6.3.1/../../../../arm-none-eabi/lib/thumb/v7e-m\libg.a(lib_a-findfp.o) (_fwalk)
c:/program files (x86)/atmel/studio/7.0/toolchain/arm/arm-gnu-toolchain/bin/../lib/gcc/arm-none-eabi/6.3.1/../../../../arm-none-eabi/lib/thumb/v7e-m\libg.a(lib_a-localeconv.o)
                              c:/program files (x86)/atmel/studio/7.0/toolchain/arm/arm-gnu-toolchain/bin/../lib/gcc/arm-none-eabi/6.3.1/../../../../arm-none-eabi/lib/thumb/v7e-m\libg.a(lib_a-vfprintf.o) (_localeconv_r)
c:/program files (x86)/atmel/studio/7.0/toolchain/arm/arm-gnu-toolchain/bin/../lib/gcc/arm-none-eabi/6.3.1/../../../../arm-none-eabi/lib/thumb/v7e-m\libg.a(lib_a-lock.o)
                              c:/program files (x86)/atmel/studio/7.0/toolchain/arm/arm-gnu-toolchain/bin/../lib/gcc/arm-none-eabi/6.3.1/../../../../arm-none-eabi/lib/thumb/v7e-m\libg.a(lib_a-vfprintf.o) (__retarget_lock_init_recursive)
c:/program files (x86)/atmel/studio/7.0/toolchain/arm/arm-gnu-toolchain/bin/../lib/gcc/arm-none-eabi/6.3.1/../../../../arm-none-eabi/lib/thumb/v7e-m\libg.a(lib_a-makebuf.o)
                              c:/program files (x86)/atmel/studio/7.0/toolchain/arm/arm-gnu-toolchain/bin/../lib/gcc/arm-none-eabi/6.3.1/../../../../arm-none-eabi/lib/thumb/v7e-m\libg.a(lib_a-setvbuf.o) (__swhatbuf_r)
c:/program files (x86)/atmel/studio/7.0/toolchain/arm/arm-gnu-toolchain/bin/../lib/gcc/arm-none-eabi/6.3.1/../../../../arm-none-eabi/lib/thumb/v7e-m\libg.a(lib_a-malloc.o)
                              c:/program files (x86)/atmel/studio/7.0/toolchain/arm/arm-gnu-toolchain/bin/../lib/gcc/arm-none-eabi/6.3.1/../../../../arm-none-eabi/lib/thumb/v7e-m\libg.a(lib_a-setvbuf.o) (malloc)
c:/program files (x86)/atmel/studio/7.0/toolchain/arm/arm-gnu-toolchain/bin/../lib/gcc/arm-none-eabi/6.3.1/../../../../arm-none-eabi/lib/thumb/v7e-m\libg.a(lib_a-mallocr.o)
                              c:/program files (x86)/atmel/studio/7.0/toolchain/arm/arm-gnu-toolchain/bin/../lib/gcc/arm-none-eabi/6.3.1/../../../../arm-none-eabi/lib/thumb/v7e-m\libg.a(lib_a-findfp.o) (_malloc_r)
c:/program files (x86)/atmel/studio/7.0/toolchain/arm/arm-gnu-toolchain/bin/../lib/gcc/arm-none-eabi/6.3.1/../../../../arm-none-eabi/lib/thumb/v7e-m\libg.a(lib_a-memchr.o)
                              c:/program files (x86)/atmel/studio/7.0/toolchain/arm/arm-gnu-toolchain/bin/../lib/gcc/arm-none-eabi/6.3.1/../../../../arm-none-eabi/lib/thumb/v7e-m\libg.a(lib_a-vfprintf.o) (memchr)
c:/program files (x86)/atmel/studio/7.0/toolchain/arm/arm-gnu-toolchain/bin/../lib/gcc/arm-none-eabi/6.3.1/../../../../arm-none-eabi/lib/thumb/v7e-m\libg.a(lib_a-mlock.o)
                              c:/program files (x86)/atmel/studio/7.0/toolchain/arm/arm-gnu-toolchain/bin/../lib/gcc/arm-none-eabi/6.3.1/../../../../arm-none-eabi/lib/thumb/v7e-m\libg.a(lib_a-freer.o) (__malloc_lock)
c:/program files (x86)/atmel/studio/7.0/toolchain/arm/arm-gnu-toolchain/bin/../lib/gcc/arm-none-eabi/6.3.1/../../../../arm-none-eabi/lib/thumb/v7e-m\libg.a(lib_a-mprec.o)
                              c:/program files (x86)/atmel/studio/7.0/toolchain/arm/arm-gnu-toolchain/bin/../lib/gcc/arm-none-eabi/6.3.1/../../../../arm-none-eabi/lib/thumb/v7e-m\libg.a(lib_a-dtoa.o) (_Balloc)
c:/program files (x86)/atmel/studio/7.0/toolchain/arm/arm-gnu-toolchain/bin/../lib/gcc/arm-none-eabi/6.3.1/../../../../arm-none-eabi/lib/thumb/v7e-m\libg.a(lib_a-sbrkr.o)
                              c:/program files (x86)/atmel/studio/7.0/toolchain/arm/arm-gnu-toolchain/bin/../lib/gcc/arm-none-eabi/6.3.1/../../../../arm-none-eabi/lib/thumb/v7e-m\libg.a(lib_a-freer.o) (_sbrk_r)
c:/program files (x86)/atmel/studio/7.0/toolchain/arm/arm-gnu-toolchain/bin/../lib/gcc/arm-none-eabi/6.3.1/../../../../arm-none-eabi/lib/thumb/v7e-m\libg.a(lib_a-stdio.o)
                              c:/program files (x86)/atmel/studio/7.0/toolchain/arm/arm-gnu-toolchain/bin/../lib/gcc/arm-none-eabi/6.3.1/../../../../arm-none-eabi/lib/thumb/v7e-m\libg.a(lib_a-findfp.o) (__sread)
c:/program files (x86)/atmel/studio/7.0/toolchain/arm/arm-gnu-toolchain/bin/../lib/gcc/arm-none-eabi/6.3.1/../../../../arm-none-eabi/lib/thumb/v7e-m\libg.a(lib_a-strlen.o)
                              c:/program files (x86)/atmel/studio/7.0/toolchain/arm/arm-gnu-toolchain/bin/../lib/gcc/arm-none-eabi/6.3.1/../../../../arm-none-eabi/lib/thumb/v7e-m\libg.a(lib_a-vfprintf.o) (strlen)
c:/program files (x86)/atmel/studio/7.0/toolchain/arm/arm-gnu-toolchain/bin/../lib/gcc/arm-none-eabi/6.3.1/../../../../arm-none-eabi/lib/thumb/v7e-m\libg.a(lib_a-vfiprintf.o)
                              c:/program files (x86)/atmel/studio/7.0/toolchain/arm/arm-gnu-toolchain/bin/../lib/gcc/arm-none-eabi/6.3.1/../../../../arm-none-eabi/lib/thumb/v7e-m\libg.a(lib_a-vfprintf.o) (__sprint_r)
c:/program files (x86)/atmel/studio/7.0/toolchain/arm/arm-gnu-toolchain/bin/../lib/gcc/arm-none-eabi/6.3.1/../../../../arm-none-eabi/lib/thumb/v7e-m\libg.a(lib_a-writer.o)
                              c:/program files (x86)/atmel/studio/7.0/toolchain/arm/arm-gnu-toolchain/bin/../lib/gcc/arm-none-eabi/6.3.1/../../../../arm-none-eabi/lib/thumb/v7e-m\libg.a(lib_a-stdio.o) (_write_r)
c:/program files (x86)/atmel/studio/7.0/toolchain/arm/arm-gnu-toolchain/bin/../lib/gcc/arm-none-eabi/6.3.1/../../../../arm-none-eabi/lib/thumb/v7e-m\libg.a(lib_a-__atexit.o)
                              c:/program files (x86)/atmel/studio/7.0/toolchain/arm/arm-gnu-toolchain/bin/../lib/gcc/arm-none-eabi/6.3.1/../../../../arm-none-eabi/lib/thumb/v7e-m\libg.a(lib_a-atexit.o) (__register_exitproc)
c:/program files (x86)/atmel/studio/7.0/toolchain/arm/arm-gnu-toolchain/bin/../lib/gcc/arm-none-eabi/6.3.1/../../../../arm-none-eabi/lib/thumb/v7e-m\libg.a(lib_a-callocr.o)
                              c:/program files (x86)/atmel/studio/7.0/toolchain/arm/arm-gnu-toolchain/bin/../lib/gcc/arm-none-eabi/6.3.1/../../../../arm-none-eabi/lib/thumb/v7e-m\libg.a(lib_a-mprec.o) (_calloc_r)
c:/program files (x86)/atmel/studio/7.0/toolchain/arm/arm-gnu-toolchain/bin/../lib/gcc/arm-none-eabi/6.3.1/../../../../arm-none-eabi/lib/thumb/v7e-m\libg.a(lib_a-closer.o)
                              c:/program files (x86)/atmel/studio/7.0/toolchain/arm/arm-gnu-toolchain/bin/../lib/gcc/arm-none-eabi/6.3.1/../../../../arm-none-eabi/lib/thumb/v7e-m\libg.a(lib_a-stdio.o) (_close_r)
c:/program files (x86)/atmel/studio/7.0/toolchain/arm/arm-gnu-toolchain/bin/../lib/gcc/arm-none-eabi/6.3.1/../../../../arm-none-eabi/lib/thumb/v7e-m\libg.a(lib_a-fclose.o)
                              c:/program files (x86)/atmel/studio/7.0/toolchain/arm/arm-gnu-toolchain/bin/../lib/gcc/arm-none-eabi/6.3.1/../../../../arm-none-eabi/lib/thumb/v7e-m\libg.a(lib_a-findfp.o) (_fclose_r)
c:/program files (x86)/atmel/studio/7.0/toolchain/arm/arm-gnu-toolchain/bin/../lib/gcc/arm-none-eabi/6.3.1/../../../../arm-none-eabi/lib/thumb/v7e-m\libg.a(lib_a-fputwc.o)
                              c:/program files (x86)/atmel/studio/7.0/toolchain/arm/arm-gnu-toolchain/bin/../lib/gcc/arm-none-eabi/6.3.1/../../../../arm-none-eabi/lib/thumb/v7e-m\libg.a(lib_a-vfiprintf.o) (_fputwc_r)
c:/program files (x86)/atmel/studio/7.0/toolchain/arm/arm-gnu-toolchain/bin/../lib/gcc/arm-none-eabi/6.3.1/../../../../arm-none-eabi/lib/thumb/v7e-m\libg.a(lib_a-fstatr.o)
                              c:/program files (x86)/atmel/studio/7.0/toolchain/arm/arm-gnu-toolchain/bin/../lib/gcc/arm-none-eabi/6.3.1/../../../../arm-none-eabi/lib/thumb/v7e-m\libg.a(lib_a-makebuf.o) (_fstat_r)
c:/program files (x86)/atmel/studio/7.0/toolchain/arm/arm-gnu-toolchain/bin/../lib/gcc/arm-none-eabi/6.3.1/../../../../arm-none-eabi/lib/thumb/v7e-m\libg.a(lib_a-fvwrite.o)
                              c:/program files (x86)/atmel/studio/7.0/toolchain/arm/arm-gnu-toolchain/bin/../lib/gcc/arm-none-eabi/6.3.1/../../../../arm-none-eabi/lib/thumb/v7e-m\libg.a(lib_a-vfiprintf.o) (__sfvwrite_r)
c:/program files (x86)/atmel/studio/7.0/toolchain/arm/arm-gnu-toolchain/bin/../lib/gcc/arm-none-eabi/6.3.1/../../../../arm-none-eabi/lib/thumb/v7e-m\libg.a(lib_a-isattyr.o)
                              c:/program files (x86)/atmel/studio/7.0/toolchain/arm/arm-gnu-toolchain/bin/../lib/gcc/arm-none-eabi/6.3.1/../../../../arm-none-eabi/lib/thumb/v7e-m\libg.a(lib_a-makebuf.o) (_isatty_r)
c:/program files (x86)/atmel/studio/7.0/toolchain/arm/arm-gnu-toolchain/bin/../lib/gcc/arm-none-eabi/6.3.1/../../../../arm-none-eabi/lib/thumb/v7e-m\libg.a(lib_a-locale.o)
                              c:/program files (x86)/atmel/studio/7.0/toolchain/arm/arm-gnu-toolchain/bin/../lib/gcc/arm-none-eabi/6.3.1/../../../../arm-none-eabi/lib/thumb/v7e-m\libg.a(lib_a-fputwc.o) (__locale_mb_cur_max)
c:/program files (x86)/atmel/studio/7.0/toolchain/arm/arm-gnu-toolchain/bin/../lib/gcc/arm-none-eabi/6.3.1/../../../../arm-none-eabi/lib/thumb/v7e-m\libg.a(lib_a-lseekr.o)
                              c:/program files (x86)/atmel/studio/7.0/toolchain/arm/arm-gnu-toolchain/bin/../lib/gcc/arm-none-eabi/6.3.1/../../../../arm-none-eabi/lib/thumb/v7e-m\libg.a(lib_a-stdio.o) (_lseek_r)
c:/program files (x86)/atmel/studio/7.0/toolchain/arm/arm-gnu-toolchain/bin/../lib/gcc/arm-none-eabi/6.3.1/../../../../arm-none-eabi/lib/thumb/v7e-m\libg.a(lib_a-mbtowc_r.o)
                              c:/program files (x86)/atmel/studio/7.0/toolchain/arm/arm-gnu-toolchain/bin/../lib/gcc/arm-none-eabi/6.3.1/../../../../arm-none-eabi/lib/thumb/v7e-m\libg.a(lib_a-locale.o) (__ascii_mbtowc)
c:/program files (x86)/atmel/studio/7.0/toolchain/arm/arm-gnu-toolchain/bin/../lib/gcc/arm-none-eabi/6.3.1/../../../../arm-none-eabi/lib/thumb/v7e-m\libg.a(lib_a-memmove.o)
                              c:/program files (x86)/atmel/studio/7.0/toolchain/arm/arm-gnu-toolchain/bin/../lib/gcc/arm-none-eabi/6.3.1/../../../../arm-none-eabi/lib/thumb/v7e-m\libg.a(lib_a-fvwrite.o) (memmove)
c:/program files (x86)/atmel/studio/7.0/toolchain/arm/arm-gnu-toolchain/bin/../lib/gcc/arm-none-eabi/6.3.1/../../../../arm-none-eabi/lib/thumb/v7e-m\libg.a(lib_a-readr.o)
                              c:/program files (x86)/atmel/studio/7.0/toolchain/arm/arm-gnu-toolchain/bin/../lib/gcc/arm-none-eabi/6.3.1/../../../../arm-none-eabi/lib/thumb/v7e-m\libg.a(lib_a-stdio.o) (_read_r)
c:/program files (x86)/atmel/studio/7.0/toolchain/arm/arm-gnu-toolchain/bin/../lib/gcc/arm-none-eabi/6.3.1/../../../../arm-none-eabi/lib/thumb/v7e-m\libg.a(lib_a-reallocr.o)
                              c:/program files (x86)/atmel/studio/7.0/toolchain/arm/arm-gnu-toolchain/bin/../lib/gcc/arm-none-eabi/6.3.1/../../../../arm-none-eabi/lib/thumb/v7e-m\libg.a(lib_a-fvwrite.o) (_realloc_r)
c:/program files (x86)/atmel/studio/7.0/toolchain/arm/arm-gnu-toolchain/bin/../lib/gcc/arm-none-eabi/6.3.1/../../../../arm-none-eabi/lib/thumb/v7e-m\libg.a(lib_a-reent.o)
                              c:/program files (x86)/atmel/studio/7.0/toolchain/arm/arm-gnu-toolchain/bin/../lib/gcc/arm-none-eabi/6.3.1/../../../../arm-none-eabi/lib/thumb/v7e-m\libg.a(lib_a-sbrkr.o) (errno)
c:/program files (x86)/atmel/studio/7.0/toolchain/arm/arm-gnu-toolchain/bin/../lib/gcc/arm-none-eabi/6.3.1/../../../../arm-none-eabi/lib/thumb/v7e-m\libg.a(lib_a-strcmp.o)
                              c:/program files (x86)/atmel/studio/7.0/toolchain/arm/arm-gnu-toolchain/bin/../lib/gcc/arm-none-eabi/6.3.1/../../../../arm-none-eabi/lib/thumb/v7e-m\libg.a(lib_a-locale.o) (strcmp)
c:/program files (x86)/atmel/studio/7.0/toolchain/arm/arm-gnu-toolchain/bin/../lib/gcc/arm-none-eabi/6.3.1/../../../../arm-none-eabi/lib/thumb/v7e-m\libg.a(lib_a-wbuf.o)
                              c:/program files (x86)/atmel/studio/7.0/toolchain/arm/arm-gnu-toolchain/bin/../lib/gcc/arm-none-eabi/6.3.1/../../../../arm-none-eabi/lib/thumb/v7e-m\libg.a(lib_a-fputwc.o) (__swbuf_r)
c:/program files (x86)/atmel/studio/7.0/toolchain/arm/arm-gnu-toolchain/bin/../lib/gcc/arm-none-eabi/6.3.1/../../../../arm-none-eabi/lib/thumb/v7e-m\libg.a(lib_a-wcrtomb.o)
                              c:/program files (x86)/atmel/studio/7.0/toolchain/arm/arm-gnu-toolchain/bin/../lib/gcc/arm-none-eabi/6.3.1/../../../../arm-none-eabi/lib/thumb/v7e-m\libg.a(lib_a-fputwc.o) (_wcrtomb_r)
c:/program files (x86)/atmel/studio/7.0/toolchain/arm/arm-gnu-toolchain/bin/../lib/gcc/arm-none-eabi/6.3.1/../../../../arm-none-eabi/lib/thumb/v7e-m\libg.a(lib_a-wctomb_r.o)
                              c:/program files (x86)/atmel/studio/7.0/toolchain/arm/arm-gnu-toolchain/bin/../lib/gcc/arm-none-eabi/6.3.1/../../../../arm-none-eabi/lib/thumb/v7e-m\libg.a(lib_a-locale.o) (__ascii_wctomb)
c:/program files (x86)/atmel/studio/7.0/toolchain/arm/arm-gnu-toolchain/bin/../lib/gcc/arm-none-eabi/6.3.1/../../../../arm-none-eabi/lib/thumb/v7e-m\libg.a(lib_a-ctype_.o)
                              c:/program files (x86)/atmel/studio/7.0/toolchain/arm/arm-gnu-toolchain/bin/../lib/gcc/arm-none-eabi/6.3.1/../../../../arm-none-eabi/lib/thumb/v7e-m\libg.a(lib_a-locale.o) (_ctype_)
c:/program files (x86)/atmel/studio/7.0/toolchain/arm/arm-gnu-toolchain/bin/../lib/gcc/arm-none-eabi/6.3.1/thumb/v7e-m\libgcc.a(_arm_addsubdf3.o)
                              c:/program files (x86)/atmel/studio/7.0/toolchain/arm/arm-gnu-toolchain/bin/../lib/gcc/arm-none-eabi/6.3.1/../../../../arm-none-eabi/lib/thumb/v7e-m\libg.a(lib_a-dtoa.o) (__aeabi_dsub)
c:/program files (x86)/atmel/studio/7.0/toolchain/arm/arm-gnu-toolchain/bin/../lib/gcc/arm-none-eabi/6.3.1/thumb/v7e-m\libgcc.a(_arm_muldivdf3.o)
                              c:/program files (x86)/atmel/studio/7.0/toolchain/arm/arm-gnu-toolchain/bin/../lib/gcc/arm-none-eabi/6.3.1/../../../../arm-none-eabi/lib/thumb/v7e-m\libg.a(lib_a-dtoa.o) (__aeabi_dmul)
c:/program files (x86)/atmel/studio/7.0/toolchain/arm/arm-gnu-toolchain/bin/../lib/gcc/arm-none-eabi/6.3.1/thumb/v7e-m\libgcc.a(_arm_cmpdf2.o)
                              c:/program files (x86)/atmel/studio/7.0/toolchain/arm/arm-gnu-toolchain/bin/../lib/gcc/arm-none-eabi/6.3.1/../../../../arm-none-eabi/lib/thumb/v7e-m\libg.a(lib_a-vfprintf.o) (__aeabi_dcmpeq)
c:/program files (x86)/atmel/studio/7.0/toolchain/arm/arm-gnu-toolchain/bin/../lib/gcc/arm-none-eabi/6.3.1/thumb/v7e-m\libgcc.a(_arm_unorddf2.o)
                              c:/program files (x86)/atmel/studio/7.0/toolchain/arm/arm-gnu-toolchain/bin/../lib/gcc/arm-none-eabi/6.3.1/../../../../arm-none-eabi/lib/thumb/v7e-m\libg.a(lib_a-vfprintf.o) (__aeabi_dcmpun)
c:/program files (x86)/atmel/studio/7.0/toolchain/arm/arm-gnu-toolchain/bin/../lib/gcc/arm-none-eabi/6.3.1/thumb/v7e-m\libgcc.a(_arm_fixdfsi.o)
                              c:/program files (x86)/atmel/studio/7.0/toolchain/arm/arm-gnu-toolchain/bin/../lib/gcc/arm-none-eabi/6.3.1/../../../../arm-none-eabi/lib/thumb/v7e-m\libg.a(lib_a-dtoa.o) (__aeabi_d2iz)
c:/program files (x86)/atmel/studio/7.0/toolchain/arm/arm-gnu-toolchain/bin/../lib/gcc/arm-none-eabi/6.3.1/thumb/v7e-m\libgcc.a(_aeabi_uldivmod.o)
                              c:/program files (x86)/atmel/studio/7.0/toolchain/arm/arm-gnu-toolchain/bin/../lib/gcc/arm-none-eabi/6.3.1/../../../../arm-none-eabi/lib/thumb/v7e-m\libg.a(lib_a-vfprintf.o) (__aeabi_uldivmod)
c:/program files (x86)/atmel/studio/7.0/toolchain/arm/arm-gnu-toolchain/bin/../lib/gcc/arm-none-eabi/6.3.1/thumb/v7e-m\libgcc.a(_udivmoddi4.o)
                              c:/program files (x86)/atmel/studio/7.0/toolchain/arm/arm-gnu-toolchain/bin/../lib/gcc/arm-none-eabi/6.3.1/thumb/v7e-m\libgcc.a(_aeabi_uldivmod.o) (__udivmoddi4)
c:/program files (x86)/atmel/studio/7.0/toolchain/arm/arm-gnu-toolchain/bin/../lib/gcc/arm-none-eabi/6.3.1/thumb/v7e-m\libgcc.a(_dvmd_tls.o)
                              c:/program files (x86)/atmel/studio/7.0/toolchain/arm/arm-gnu-toolchain/bin/../lib/gcc/arm-none-eabi/6.3.1/thumb/v7e-m\libgcc.a(_aeabi_uldivmod.o) (__aeabi_ldiv0)

Allocating common symbols
Common symbol       size              file

timer_multiplier    0x1               ../../../stack/LwMesh/TDMA/services/common_hw_timer/sam/lib\libsam4l_lib_hw_timer.a(common_hw_timer.o)
udd_ep_out_cache_buffer
                    0xc0              ../../../platform/sam/drivers/usbc/usbc_device.o
__lock___atexit_recursive_mutex
                    0x1               c:/program files (x86)/atmel/studio/7.0/toolchain/arm/arm-gnu-toolchain/bin/../lib/gcc/arm-none-eabi/6.3.1/../../../../arm-none-eabi/lib/thumb/v7e-m\libg.a(lib_a-lock.o)
__lock___arc4random_mutex
                    0x1               c:/program files (x86)/atmel/studio/7.0/toolchain/arm/arm-gnu-toolchain/bin/../lib/gcc/arm-none-eabi/6.3.1/../../../../arm-none-eabi/lib/thumb/v7e-m\libg.a(lib_a-lock.o)
n                   0x1               TC_lldn.o
errno               0x4               c:/program files (x86)/atmel/studio/7.0/toolchain/arm/arm-gnu-toolchain/bin/../lib/gcc/arm-none-eabi/6.3.1/../../../../arm-none-eabi/lib/thumb/v7e-m\libg.a(lib_a-reent.o)
nwkIb               0x4c              ../../../stack/LwMesh/TDMA/nwk/src/nwk.o
ast_callback_pointer
                    0x14              ../../../platform/sam/drivers/ast/ast.o
ptr_get             0x4               ../../../platform/common/utils/stdio/read.o
tmr_callback        0x4               TC_lldn.o
__lock___env_recursive_mutex
                    0x1               c:/program files (x86)/atmel/studio/7.0/toolchain/arm/arm-gnu-toolchain/bin/../lib/gcc/arm-none-eabi/6.3.1/../../../../arm-none-eabi/lib/thumb/v7e-m\libg.a(lib_a-lock.o)
__lock___sinit_recursive_mutex
                    0x1               c:/program files (x86)/atmel/studio/7.0/toolchain/arm/arm-gnu-toolchain/bin/../lib/gcc/arm-none-eabi/6.3.1/../../../../arm-none-eabi/lib/thumb/v7e-m\libg.a(lib_a-lock.o)
ptr_put             0x4               ../../../platform/common/utils/stdio/write.o
__lock___malloc_recursive_mutex
                    0x1               c:/program files (x86)/atmel/studio/7.0/toolchain/arm/arm-gnu-toolchain/bin/../lib/gcc/arm-none-eabi/6.3.1/../../../../arm-none-eabi/lib/thumb/v7e-m\libg.a(lib_a-lock.o)
SysTimerIrqCount    0x1               ../../../stack/LwMesh/TDMA/sys/src/sysTimer.o
eic_callback_pointer
                    0x24              ../../../platform/sam/drivers/eic/eic.o
udd_g_ctrlreq       0x18              ../../../platform/sam/drivers/usbc/usbc_device.o
stdio_base          0x4               ../../../platform/common/utils/stdio/write.o
sleepmgr_locks      0x8               ../../../platform/common/services/sleepmgr/sam/sleepmgr.o
ast_alarm           0x4               ../../../stack/LwMesh/TDMA/services/sleep_mgr/sam4l/sleep_mgr.o
__lock___at_quick_exit_mutex
                    0x1               c:/program files (x86)/atmel/studio/7.0/toolchain/arm/arm-gnu-toolchain/bin/../lib/gcc/arm-none-eabi/6.3.1/../../../../arm-none-eabi/lib/thumb/v7e-m\libg.a(lib_a-lock.o)
__lock___dd_hash_mutex
                    0x1               c:/program files (x86)/atmel/studio/7.0/toolchain/arm/arm-gnu-toolchain/bin/../lib/gcc/arm-none-eabi/6.3.1/../../../../arm-none-eabi/lib/thumb/v7e-m\libg.a(lib_a-lock.o)
__lock___tz_mutex   0x1               c:/program files (x86)/atmel/studio/7.0/toolchain/arm/arm-gnu-toolchain/bin/../lib/gcc/arm-none-eabi/6.3.1/../../../../arm-none-eabi/lib/thumb/v7e-m\libg.a(lib_a-lock.o)
udd_ctrl_buffer     0x40              ../../../platform/sam/drivers/usbc/usbc_device.o
ast_counter         0x4               ../../../stack/LwMesh/TDMA/services/sleep_mgr/sam4l/sleep_mgr.o
__lock___sfp_recursive_mutex
                    0x1               c:/program files (x86)/atmel/studio/7.0/toolchain/arm/arm-gnu-toolchain/bin/../lib/gcc/arm-none-eabi/6.3.1/../../../../arm-none-eabi/lib/thumb/v7e-m\libg.a(lib_a-lock.o)

Discarded input sections

 .text          0x00000000        0x0 c:/program files (x86)/atmel/studio/7.0/toolchain/arm/arm-gnu-toolchain/bin/../lib/gcc/arm-none-eabi/6.3.1/thumb/v7e-m/crti.o
 .data          0x00000000        0x0 c:/program files (x86)/atmel/studio/7.0/toolchain/arm/arm-gnu-toolchain/bin/../lib/gcc/arm-none-eabi/6.3.1/thumb/v7e-m/crti.o
 .bss           0x00000000        0x0 c:/program files (x86)/atmel/studio/7.0/toolchain/arm/arm-gnu-toolchain/bin/../lib/gcc/arm-none-eabi/6.3.1/thumb/v7e-m/crti.o
 .data          0x00000000        0x4 c:/program files (x86)/atmel/studio/7.0/toolchain/arm/arm-gnu-toolchain/bin/../lib/gcc/arm-none-eabi/6.3.1/thumb/v7e-m/crtbegin.o
 .text          0x00000000       0x74 c:/program files (x86)/atmel/studio/7.0/toolchain/arm/arm-gnu-toolchain/bin/../lib/gcc/arm-none-eabi/6.3.1/../../../../arm-none-eabi/lib/thumb/v7e-m/crt0.o
 .data          0x00000000        0x0 c:/program files (x86)/atmel/studio/7.0/toolchain/arm/arm-gnu-toolchain/bin/../lib/gcc/arm-none-eabi/6.3.1/../../../../arm-none-eabi/lib/thumb/v7e-m/crt0.o
 .bss           0x00000000        0x0 c:/program files (x86)/atmel/studio/7.0/toolchain/arm/arm-gnu-toolchain/bin/../lib/gcc/arm-none-eabi/6.3.1/../../../../arm-none-eabi/lib/thumb/v7e-m/crt0.o
 .ARM.extab     0x00000000        0x0 c:/program files (x86)/atmel/studio/7.0/toolchain/arm/arm-gnu-toolchain/bin/../lib/gcc/arm-none-eabi/6.3.1/../../../../arm-none-eabi/lib/thumb/v7e-m/crt0.o
 .ARM.exidx     0x00000000        0x8 c:/program files (x86)/atmel/studio/7.0/toolchain/arm/arm-gnu-toolchain/bin/../lib/gcc/arm-none-eabi/6.3.1/../../../../arm-none-eabi/lib/thumb/v7e-m/crt0.o
 .ARM.attributes
                0x00000000       0x1c c:/program files (x86)/atmel/studio/7.0/toolchain/arm/arm-gnu-toolchain/bin/../lib/gcc/arm-none-eabi/6.3.1/../../../../arm-none-eabi/lib/thumb/v7e-m/crt0.o
 .data          0x00000000        0x0 TC_lldn.o
 .bss           0x00000000        0x0 TC_lldn.o
 .bss.cpu_irq_critical_section_counter
                0x00000000        0x4 TC_lldn.o
 .bss.cpu_irq_prev_interrupt_state
                0x00000000        0x1 TC_lldn.o
 .bss.tTS       0x00000000        0x4 TC_lldn.o
 .data          0x00000000        0x0 ../../../stack/LwMesh/TDMA/nwk/src/nwk.o
 .bss           0x00000000        0x0 ../../../stack/LwMesh/TDMA/nwk/src/nwk.o
 .bss.cpu_irq_critical_section_counter
                0x00000000        0x4 ../../../stack/LwMesh/TDMA/nwk/src/nwk.o
 .bss.cpu_irq_prev_interrupt_state
                0x00000000        0x1 ../../../stack/LwMesh/TDMA/nwk/src/nwk.o
 .bss.tTS       0x00000000        0x4 ../../../stack/LwMesh/TDMA/nwk/src/nwk.o
 .data          0x00000000        0x0 ../../../stack/LwMesh/TDMA/nwk/src/nwkDataReq.o
 .bss           0x00000000        0x0 ../../../stack/LwMesh/TDMA/nwk/src/nwkDataReq.o
 .bss.cpu_irq_critical_section_counter
                0x00000000        0x4 ../../../stack/LwMesh/TDMA/nwk/src/nwkDataReq.o
 .bss.cpu_irq_prev_interrupt_state
                0x00000000        0x1 ../../../stack/LwMesh/TDMA/nwk/src/nwkDataReq.o
 .bss.tTS       0x00000000        0x4 ../../../stack/LwMesh/TDMA/nwk/src/nwkDataReq.o
 .data          0x00000000        0x0 ../../../stack/LwMesh/TDMA/nwk/src/nwkFrame.o
 .bss           0x00000000        0x0 ../../../stack/LwMesh/TDMA/nwk/src/nwkFrame.o
 .bss.cpu_irq_critical_section_counter
                0x00000000        0x4 ../../../stack/LwMesh/TDMA/nwk/src/nwkFrame.o
 .bss.cpu_irq_prev_interrupt_state
                0x00000000        0x1 ../../../stack/LwMesh/TDMA/nwk/src/nwkFrame.o
 .bss.tTS       0x00000000        0x4 ../../../stack/LwMesh/TDMA/nwk/src/nwkFrame.o
 .data          0x00000000        0x0 ../../../stack/LwMesh/TDMA/nwk/src/nwkGroup.o
 .bss           0x00000000        0x0 ../../../stack/LwMesh/TDMA/nwk/src/nwkGroup.o
 .bss.cpu_irq_critical_section_counter
                0x00000000        0x4 ../../../stack/LwMesh/TDMA/nwk/src/nwkGroup.o
 .bss.cpu_irq_prev_interrupt_state
                0x00000000        0x1 ../../../stack/LwMesh/TDMA/nwk/src/nwkGroup.o
 .bss.tTS       0x00000000        0x4 ../../../stack/LwMesh/TDMA/nwk/src/nwkGroup.o
 .text          0x00000000        0x0 ../../../stack/LwMesh/TDMA/nwk/src/nwkRoute.o
 .data          0x00000000        0x0 ../../../stack/LwMesh/TDMA/nwk/src/nwkRoute.o
 .bss           0x00000000        0x0 ../../../stack/LwMesh/TDMA/nwk/src/nwkRoute.o
 .bss.cpu_irq_critical_section_counter
                0x00000000        0x4 ../../../stack/LwMesh/TDMA/nwk/src/nwkRoute.o
 .bss.cpu_irq_prev_interrupt_state
                0x00000000        0x1 ../../../stack/LwMesh/TDMA/nwk/src/nwkRoute.o
 .bss.tTS       0x00000000        0x4 ../../../stack/LwMesh/TDMA/nwk/src/nwkRoute.o
 .debug_info    0x00000000      0xf7d ../../../stack/LwMesh/TDMA/nwk/src/nwkRoute.o
 .debug_abbrev  0x00000000      0x1b1 ../../../stack/LwMesh/TDMA/nwk/src/nwkRoute.o
 .debug_aranges
                0x00000000       0x18 ../../../stack/LwMesh/TDMA/nwk/src/nwkRoute.o
 .debug_line    0x00000000      0x446 ../../../stack/LwMesh/TDMA/nwk/src/nwkRoute.o
 .debug_str     0x00000000      0x9ab ../../../stack/LwMesh/TDMA/nwk/src/nwkRoute.o
 .comment       0x00000000       0x5a ../../../stack/LwMesh/TDMA/nwk/src/nwkRoute.o
 .ARM.attributes
                0x00000000       0x33 ../../../stack/LwMesh/TDMA/nwk/src/nwkRoute.o
 .text          0x00000000        0x0 ../../../stack/LwMesh/TDMA/nwk/src/nwkRouteDiscovery.o
 .data          0x00000000        0x0 ../../../stack/LwMesh/TDMA/nwk/src/nwkRouteDiscovery.o
 .bss           0x00000000        0x0 ../../../stack/LwMesh/TDMA/nwk/src/nwkRouteDiscovery.o
 .bss.cpu_irq_critical_section_counter
                0x00000000        0x4 ../../../stack/LwMesh/TDMA/nwk/src/nwkRouteDiscovery.o
 .bss.cpu_irq_prev_interrupt_state
                0x00000000        0x1 ../../../stack/LwMesh/TDMA/nwk/src/nwkRouteDiscovery.o
 .bss.tTS       0x00000000        0x4 ../../../stack/LwMesh/TDMA/nwk/src/nwkRouteDiscovery.o
 .debug_info    0x00000000      0xf7d ../../../stack/LwMesh/TDMA/nwk/src/nwkRouteDiscovery.o
 .debug_abbrev  0x00000000      0x1b1 ../../../stack/LwMesh/TDMA/nwk/src/nwkRouteDiscovery.o
 .debug_aranges
                0x00000000       0x18 ../../../stack/LwMesh/TDMA/nwk/src/nwkRouteDiscovery.o
 .debug_line    0x00000000      0x446 ../../../stack/LwMesh/TDMA/nwk/src/nwkRouteDiscovery.o
 .debug_str     0x00000000      0x9b4 ../../../stack/LwMesh/TDMA/nwk/src/nwkRouteDiscovery.o
 .comment       0x00000000       0x5a ../../../stack/LwMesh/TDMA/nwk/src/nwkRouteDiscovery.o
 .ARM.attributes
                0x00000000       0x33 ../../../stack/LwMesh/TDMA/nwk/src/nwkRouteDiscovery.o
 .data          0x00000000        0x0 ../../../stack/LwMesh/TDMA/nwk/src/nwkRx.o
 .bss           0x00000000        0x0 ../../../stack/LwMesh/TDMA/nwk/src/nwkRx.o
 .bss.cpu_irq_critical_section_counter
                0x00000000        0x4 ../../../stack/LwMesh/TDMA/nwk/src/nwkRx.o
 .bss.cpu_irq_prev_interrupt_state
                0x00000000        0x1 ../../../stack/LwMesh/TDMA/nwk/src/nwkRx.o
 .bss.tTS       0x00000000        0x4 ../../../stack/LwMesh/TDMA/nwk/src/nwkRx.o
 .text          0x00000000        0x0 ../../../stack/LwMesh/TDMA/nwk/src/nwkSecurity.o
 .data          0x00000000        0x0 ../../../stack/LwMesh/TDMA/nwk/src/nwkSecurity.o
 .bss           0x00000000        0x0 ../../../stack/LwMesh/TDMA/nwk/src/nwkSecurity.o
 .bss.cpu_irq_critical_section_counter
                0x00000000        0x4 ../../../stack/LwMesh/TDMA/nwk/src/nwkSecurity.o
 .bss.cpu_irq_prev_interrupt_state
                0x00000000        0x1 ../../../stack/LwMesh/TDMA/nwk/src/nwkSecurity.o
 .bss.tTS       0x00000000        0x4 ../../../stack/LwMesh/TDMA/nwk/src/nwkSecurity.o
 .debug_info    0x00000000      0xf7d ../../../stack/LwMesh/TDMA/nwk/src/nwkSecurity.o
 .debug_abbrev  0x00000000      0x1b1 ../../../stack/LwMesh/TDMA/nwk/src/nwkSecurity.o
 .debug_aranges
                0x00000000       0x18 ../../../stack/LwMesh/TDMA/nwk/src/nwkSecurity.o
 .debug_line    0x00000000      0x446 ../../../stack/LwMesh/TDMA/nwk/src/nwkSecurity.o
 .debug_str     0x00000000      0x9ae ../../../stack/LwMesh/TDMA/nwk/src/nwkSecurity.o
 .comment       0x00000000       0x5a ../../../stack/LwMesh/TDMA/nwk/src/nwkSecurity.o
 .ARM.attributes
                0x00000000       0x33 ../../../stack/LwMesh/TDMA/nwk/src/nwkSecurity.o
 .data          0x00000000        0x0 ../../../stack/LwMesh/TDMA/nwk/src/nwkTx.o
 .bss           0x00000000        0x0 ../../../stack/LwMesh/TDMA/nwk/src/nwkTx.o
 .bss.cpu_irq_critical_section_counter
                0x00000000        0x4 ../../../stack/LwMesh/TDMA/nwk/src/nwkTx.o
 .bss.cpu_irq_prev_interrupt_state
                0x00000000        0x1 ../../../stack/LwMesh/TDMA/nwk/src/nwkTx.o
 .bss.tTS       0x00000000        0x4 ../../../stack/LwMesh/TDMA/nwk/src/nwkTx.o
 .data          0x00000000        0x0 ../../../stack/LwMesh/TDMA/phy/AT86RF233/src/phy.o
 .bss           0x00000000        0x0 ../../../stack/LwMesh/TDMA/phy/AT86RF233/src/phy.o
 .bss.cpu_irq_critical_section_counter
                0x00000000        0x4 ../../../stack/LwMesh/TDMA/phy/AT86RF233/src/phy.o
 .bss.cpu_irq_prev_interrupt_state
                0x00000000        0x1 ../../../stack/LwMesh/TDMA/phy/AT86RF233/src/phy.o
 .bss.tTS       0x00000000        0x4 ../../../stack/LwMesh/TDMA/phy/AT86RF233/src/phy.o
 .data          0x00000000        0x0 ../../../stack/LwMesh/TDMA/sys/src/sys.o
 .bss           0x00000000        0x0 ../../../stack/LwMesh/TDMA/sys/src/sys.o
 .bss.cpu_irq_critical_section_counter
                0x00000000        0x4 ../../../stack/LwMesh/TDMA/sys/src/sys.o
 .bss.cpu_irq_prev_interrupt_state
                0x00000000        0x1 ../../../stack/LwMesh/TDMA/sys/src/sys.o
 .bss.tTS       0x00000000        0x4 ../../../stack/LwMesh/TDMA/sys/src/sys.o
 .text          0x00000000        0x0 ../../../stack/LwMesh/TDMA/sys/src/sysEncrypt.o
 .data          0x00000000        0x0 ../../../stack/LwMesh/TDMA/sys/src/sysEncrypt.o
 .bss           0x00000000        0x0 ../../../stack/LwMesh/TDMA/sys/src/sysEncrypt.o
 .bss.cpu_irq_critical_section_counter
                0x00000000        0x4 ../../../stack/LwMesh/TDMA/sys/src/sysEncrypt.o
 .bss.cpu_irq_prev_interrupt_state
                0x00000000        0x1 ../../../stack/LwMesh/TDMA/sys/src/sysEncrypt.o
 .bss.tTS       0x00000000        0x4 ../../../stack/LwMesh/TDMA/sys/src/sysEncrypt.o
 .debug_info    0x00000000      0xe2c ../../../stack/LwMesh/TDMA/sys/src/sysEncrypt.o
 .debug_abbrev  0x00000000      0x1b1 ../../../stack/LwMesh/TDMA/sys/src/sysEncrypt.o
 .debug_aranges
                0x00000000       0x18 ../../../stack/LwMesh/TDMA/sys/src/sysEncrypt.o
 .debug_line    0x00000000      0x40f ../../../stack/LwMesh/TDMA/sys/src/sysEncrypt.o
 .debug_str     0x00000000      0x915 ../../../stack/LwMesh/TDMA/sys/src/sysEncrypt.o
 .comment       0x00000000       0x5a ../../../stack/LwMesh/TDMA/sys/src/sysEncrypt.o
 .ARM.attributes
                0x00000000       0x33 ../../../stack/LwMesh/TDMA/sys/src/sysEncrypt.o
 .data          0x00000000        0x0 ../../../stack/LwMesh/TDMA/sys/src/sysTimer.o
 .bss           0x00000000        0x0 ../../../stack/LwMesh/TDMA/sys/src/sysTimer.o
 .bss.cpu_irq_critical_section_counter
                0x00000000        0x4 ../../../stack/LwMesh/TDMA/sys/src/sysTimer.o
 .bss.cpu_irq_prev_interrupt_state
                0x00000000        0x1 ../../../stack/LwMesh/TDMA/sys/src/sysTimer.o
 .data          0x00000000        0x0 ../../../stack/LwMesh/TDMA/services/common_hw_timer/sam/hw_timer.o
 .bss           0x00000000        0x0 ../../../stack/LwMesh/TDMA/services/common_hw_timer/sam/hw_timer.o
 .bss.cpu_irq_critical_section_counter
                0x00000000        0x4 ../../../stack/LwMesh/TDMA/services/common_hw_timer/sam/hw_timer.o
 .bss.cpu_irq_prev_interrupt_state
                0x00000000        0x1 ../../../stack/LwMesh/TDMA/services/common_hw_timer/sam/hw_timer.o
 .bss.tTS       0x00000000        0x4 ../../../stack/LwMesh/TDMA/services/common_hw_timer/sam/hw_timer.o
 .data          0x00000000        0x0 ../../../stack/LwMesh/TDMA/services/sal/at86rf2xx/src/sal.o
 .bss           0x00000000        0x0 ../../../stack/LwMesh/TDMA/services/sal/at86rf2xx/src/sal.o
 .bss.cpu_irq_critical_section_counter
                0x00000000        0x4 ../../../stack/LwMesh/TDMA/services/sal/at86rf2xx/src/sal.o
 .bss.cpu_irq_prev_interrupt_state
                0x00000000        0x1 ../../../stack/LwMesh/TDMA/services/sal/at86rf2xx/src/sal.o
 .bss.tTS       0x00000000        0x4 ../../../stack/LwMesh/TDMA/services/sal/at86rf2xx/src/sal.o
 .data          0x00000000        0x0 ../../../stack/LwMesh/TDMA/services/sleep_mgr/sam4l/sleep_mgr.o
 .bss           0x00000000        0x0 ../../../stack/LwMesh/TDMA/services/sleep_mgr/sam4l/sleep_mgr.o
 .bss.cpu_irq_critical_section_counter
                0x00000000        0x4 ../../../stack/LwMesh/TDMA/services/sleep_mgr/sam4l/sleep_mgr.o
 .bss.cpu_irq_prev_interrupt_state
                0x00000000        0x1 ../../../stack/LwMesh/TDMA/services/sleep_mgr/sam4l/sleep_mgr.o
 .bss.tTS       0x00000000        0x4 ../../../stack/LwMesh/TDMA/services/sleep_mgr/sam4l/sleep_mgr.o
 .data          0x00000000        0x0 ../../../stack/LwMesh/TDMA/services/trx_access/trx_access.o
 .bss           0x00000000        0x0 ../../../stack/LwMesh/TDMA/services/trx_access/trx_access.o
 .bss.cpu_irq_critical_section_counter
                0x00000000        0x4 ../../../stack/LwMesh/TDMA/services/trx_access/trx_access.o
 .bss.cpu_irq_prev_interrupt_state
                0x00000000        0x1 ../../../stack/LwMesh/TDMA/services/trx_access/trx_access.o
 .bss.tTS       0x00000000        0x4 ../../../stack/LwMesh/TDMA/services/trx_access/trx_access.o
 .text          0x00000000       0x38 ../../../platform/sam/utils/cmsis/sam4l/source/templates/system_sam4l.o
 .data          0x00000000        0x0 ../../../platform/sam/utils/cmsis/sam4l/source/templates/system_sam4l.o
 .bss           0x00000000        0x0 ../../../platform/sam/utils/cmsis/sam4l/source/templates/system_sam4l.o
 .data.SystemCoreClock
                0x00000000        0x4 ../../../platform/sam/utils/cmsis/sam4l/source/templates/system_sam4l.o
 .debug_info    0x00000000       0xf7 ../../../platform/sam/utils/cmsis/sam4l/source/templates/system_sam4l.o
 .debug_abbrev  0x00000000       0x83 ../../../platform/sam/utils/cmsis/sam4l/source/templates/system_sam4l.o
 .debug_loc     0x00000000       0x88 ../../../platform/sam/utils/cmsis/sam4l/source/templates/system_sam4l.o
 .debug_aranges
                0x00000000       0x20 ../../../platform/sam/utils/cmsis/sam4l/source/templates/system_sam4l.o
 .debug_line    0x00000000      0x1b4 ../../../platform/sam/utils/cmsis/sam4l/source/templates/system_sam4l.o
 .debug_str     0x00000000      0x25e ../../../platform/sam/utils/cmsis/sam4l/source/templates/system_sam4l.o
 .comment       0x00000000       0x5a ../../../platform/sam/utils/cmsis/sam4l/source/templates/system_sam4l.o
 .debug_frame   0x00000000       0x58 ../../../platform/sam/utils/cmsis/sam4l/source/templates/system_sam4l.o
 .ARM.attributes
                0x00000000       0x33 ../../../platform/sam/utils/cmsis/sam4l/source/templates/system_sam4l.o
 .data          0x00000000        0x0 ../../../platform/sam/utils/cmsis/sam4l/source/templates/exceptions.o
 .bss           0x00000000        0x0 ../../../platform/sam/utils/cmsis/sam4l/source/templates/exceptions.o
 .data          0x00000000        0x0 ../../../platform/sam/utils/cmsis/sam4l/source/templates/gcc/startup_sam4l.o
 .bss           0x00000000        0x0 ../../../platform/sam/utils/cmsis/sam4l/source/templates/gcc/startup_sam4l.o
 .data          0x00000000        0x0 ../../../platform/sam/utils/syscalls/gcc/syscalls.o
 .bss           0x00000000        0x0 ../../../platform/sam/utils/syscalls/gcc/syscalls.o
 .data          0x00000000        0x0 ../../../platform/sam/utils/syscalls/gcc/hardfault_handler_c.o
 .bss           0x00000000        0x0 ../../../platform/sam/utils/syscalls/gcc/hardfault_handler_c.o
 .bss.cpu_irq_critical_section_counter
                0x00000000        0x4 ../../../platform/sam/utils/syscalls/gcc/hardfault_handler_c.o
 .bss.cpu_irq_prev_interrupt_state
                0x00000000        0x1 ../../../platform/sam/utils/syscalls/gcc/hardfault_handler_c.o
 .bss.tTS       0x00000000        0x4 ../../../platform/sam/utils/syscalls/gcc/hardfault_handler_c.o
 .data          0x00000000        0x0 ../../../platform/sam/drivers/ast/ast.o
 .bss           0x00000000        0x0 ../../../platform/sam/drivers/ast/ast.o
 .bss.cpu_irq_critical_section_counter
                0x00000000        0x4 ../../../platform/sam/drivers/ast/ast.o
 .bss.cpu_irq_prev_interrupt_state
                0x00000000        0x1 ../../../platform/sam/drivers/ast/ast.o
 .bss.tTS       0x00000000        0x4 ../../../platform/sam/drivers/ast/ast.o
 .data          0x00000000        0x0 ../../../platform/sam/drivers/bpm/bpm.o
 .bss           0x00000000        0x0 ../../../platform/sam/drivers/bpm/bpm.o
 .bss.cpu_irq_critical_section_counter
                0x00000000        0x4 ../../../platform/sam/drivers/bpm/bpm.o
 .bss.cpu_irq_prev_interrupt_state
                0x00000000        0x1 ../../../platform/sam/drivers/bpm/bpm.o
 .data          0x00000000        0x0 ../../../platform/sam/drivers/flashcalw/flashcalw.o
 .bss           0x00000000        0x0 ../../../platform/sam/drivers/flashcalw/flashcalw.o
 .bss.cpu_irq_critical_section_counter
                0x00000000        0x4 ../../../platform/sam/drivers/flashcalw/flashcalw.o
 .bss.cpu_irq_prev_interrupt_state
                0x00000000        0x1 ../../../platform/sam/drivers/flashcalw/flashcalw.o
 .bss.tTS       0x00000000        0x4 ../../../platform/sam/drivers/flashcalw/flashcalw.o
 .data          0x00000000        0x0 ../../../platform/sam/drivers/gpio/gpio.o
 .bss           0x00000000        0x0 ../../../platform/sam/drivers/gpio/gpio.o
 .bss.cpu_irq_critical_section_counter
                0x00000000        0x4 ../../../platform/sam/drivers/gpio/gpio.o
 .bss.cpu_irq_prev_interrupt_state
                0x00000000        0x1 ../../../platform/sam/drivers/gpio/gpio.o
 .bss.tTS       0x00000000        0x4 ../../../platform/sam/drivers/gpio/gpio.o
 .data          0x00000000        0x0 ../../../platform/sam/drivers/eic/eic.o
 .bss           0x00000000        0x0 ../../../platform/sam/drivers/eic/eic.o
 .bss.cpu_irq_critical_section_counter
                0x00000000        0x4 ../../../platform/sam/drivers/eic/eic.o
 .bss.cpu_irq_prev_interrupt_state
                0x00000000        0x1 ../../../platform/sam/drivers/eic/eic.o
 .bss.tTS       0x00000000        0x4 ../../../platform/sam/drivers/eic/eic.o
 .data          0x00000000        0x0 ../../../platform/sam/drivers/spi/spi.o
 .bss           0x00000000        0x0 ../../../platform/sam/drivers/spi/spi.o
 .bss.cpu_irq_critical_section_counter
                0x00000000        0x4 ../../../platform/sam/drivers/spi/spi.o
 .bss.cpu_irq_prev_interrupt_state
                0x00000000        0x1 ../../../platform/sam/drivers/spi/spi.o
 .bss.tTS       0x00000000        0x4 ../../../platform/sam/drivers/spi/spi.o
 .data          0x00000000        0x0 ../../../platform/sam/drivers/tc/tc.o
 .bss           0x00000000        0x0 ../../../platform/sam/drivers/tc/tc.o
 .bss.cpu_irq_critical_section_counter
                0x00000000        0x4 ../../../platform/sam/drivers/tc/tc.o
 .bss.cpu_irq_prev_interrupt_state
                0x00000000        0x1 ../../../platform/sam/drivers/tc/tc.o
 .data          0x00000000        0x0 ../../../platform/sam/drivers/usbc/usbc_device.o
 .bss           0x00000000        0x0 ../../../platform/sam/drivers/usbc/usbc_device.o
 .bss.cpu_irq_critical_section_counter
                0x00000000        0x4 ../../../platform/sam/drivers/usbc/usbc_device.o
 .bss.cpu_irq_prev_interrupt_state
                0x00000000        0x1 ../../../platform/sam/drivers/usbc/usbc_device.o
 .bss.tTS       0x00000000        0x4 ../../../platform/sam/drivers/usbc/usbc_device.o
 .text          0x00000000     0x10d8 ../../../platform/sam/drivers/usart/usart.o
 .data          0x00000000        0x0 ../../../platform/sam/drivers/usart/usart.o
 .bss           0x00000000        0x0 ../../../platform/sam/drivers/usart/usart.o
 .bss.cpu_irq_critical_section_counter
                0x00000000        0x4 ../../../platform/sam/drivers/usart/usart.o
 .bss.cpu_irq_prev_interrupt_state
                0x00000000        0x1 ../../../platform/sam/drivers/usart/usart.o
 .bss.ul_reg_val.8022
                0x00000000        0x4 ../../../platform/sam/drivers/usart/usart.o
 .bss.ul_reg_val.8038
                0x00000000        0x4 ../../../platform/sam/drivers/usart/usart.o
 .bss.ul_reg_val.8043
                0x00000000        0x4 ../../../platform/sam/drivers/usart/usart.o
 .bss.ul_reg_val.8059
                0x00000000        0x4 ../../../platform/sam/drivers/usart/usart.o
 .bss.ul_reg_val.8065
                0x00000000        0x4 ../../../platform/sam/drivers/usart/usart.o
 .bss.ul_reg_val.8076
                0x00000000        0x4 ../../../platform/sam/drivers/usart/usart.o
 .debug_info    0x00000000     0x20fe ../../../platform/sam/drivers/usart/usart.o
 .debug_abbrev  0x00000000      0x2b6 ../../../platform/sam/drivers/usart/usart.o
 .debug_loc     0x00000000     0x1eec ../../../platform/sam/drivers/usart/usart.o
 .debug_aranges
                0x00000000       0x20 ../../../platform/sam/drivers/usart/usart.o
 .debug_line    0x00000000      0x664 ../../../platform/sam/drivers/usart/usart.o
 .debug_str     0x00000000     0x10f6 ../../../platform/sam/drivers/usart/usart.o
 .comment       0x00000000       0x5a ../../../platform/sam/drivers/usart/usart.o
 .debug_frame   0x00000000      0xdd0 ../../../platform/sam/drivers/usart/usart.o
 .ARM.attributes
                0x00000000       0x33 ../../../platform/sam/drivers/usart/usart.o
 .data          0x00000000        0x0 ../../../platform/sam/drivers/wdt/wdt_sam4l.o
 .bss           0x00000000        0x0 ../../../platform/sam/drivers/wdt/wdt_sam4l.o
 .bss.cpu_irq_critical_section_counter
                0x00000000        0x4 ../../../platform/sam/drivers/wdt/wdt_sam4l.o
 .bss.cpu_irq_prev_interrupt_state
                0x00000000        0x1 ../../../platform/sam/drivers/wdt/wdt_sam4l.o
 .bss.tTS       0x00000000        0x4 ../../../platform/sam/drivers/wdt/wdt_sam4l.o
 .data          0x00000000        0x0 ../../../platform/common/services/clock/sam4l/sysclk.o
 .bss           0x00000000        0x0 ../../../platform/common/services/clock/sam4l/sysclk.o
 .bss.cpu_irq_critical_section_counter
                0x00000000        0x4 ../../../platform/common/services/clock/sam4l/sysclk.o
 .bss.cpu_irq_prev_interrupt_state
                0x00000000        0x1 ../../../platform/common/services/clock/sam4l/sysclk.o
 .bss.tTS       0x00000000        0x4 ../../../platform/common/services/clock/sam4l/sysclk.o
 .data          0x00000000        0x0 ../../../platform/common/services/clock/sam4l/dfll.o
 .bss           0x00000000        0x0 ../../../platform/common/services/clock/sam4l/dfll.o
 .bss.cpu_irq_critical_section_counter
                0x00000000        0x4 ../../../platform/common/services/clock/sam4l/dfll.o
 .bss.cpu_irq_prev_interrupt_state
                0x00000000        0x1 ../../../platform/common/services/clock/sam4l/dfll.o
 .bss.tTS       0x00000000        0x4 ../../../platform/common/services/clock/sam4l/dfll.o
 .data          0x00000000        0x0 ../../../platform/common/services/clock/sam4l/osc.o
 .bss           0x00000000        0x0 ../../../platform/common/services/clock/sam4l/osc.o
 .bss.cpu_irq_critical_section_counter
                0x00000000        0x4 ../../../platform/common/services/clock/sam4l/osc.o
 .bss.cpu_irq_prev_interrupt_state
                0x00000000        0x1 ../../../platform/common/services/clock/sam4l/osc.o
 .bss.tTS       0x00000000        0x4 ../../../platform/common/services/clock/sam4l/osc.o
 .data          0x00000000        0x0 ../../../platform/common/services/clock/sam4l/pll.o
 .bss           0x00000000        0x0 ../../../platform/common/services/clock/sam4l/pll.o
 .bss.cpu_irq_critical_section_counter
                0x00000000        0x4 ../../../platform/common/services/clock/sam4l/pll.o
 .bss.cpu_irq_prev_interrupt_state
                0x00000000        0x1 ../../../platform/common/services/clock/sam4l/pll.o
 .bss.tTS       0x00000000        0x4 ../../../platform/common/services/clock/sam4l/pll.o
 .text          0x00000000        0x0 ../../../platform/common/services/delay/sam/cycle_counter.o
 .data          0x00000000        0x0 ../../../platform/common/services/delay/sam/cycle_counter.o
 .bss           0x00000000        0x0 ../../../platform/common/services/delay/sam/cycle_counter.o
 .bss.cpu_irq_critical_section_counter
                0x00000000        0x4 ../../../platform/common/services/delay/sam/cycle_counter.o
 .bss.cpu_irq_prev_interrupt_state
                0x00000000        0x1 ../../../platform/common/services/delay/sam/cycle_counter.o
 .text          0x00000000      0x1c8 ../../../platform/common/services/serial/usart_serial.o
 .data          0x00000000        0x0 ../../../platform/common/services/serial/usart_serial.o
 .bss           0x00000000        0x0 ../../../platform/common/services/serial/usart_serial.o
 .bss.cpu_irq_critical_section_counter
                0x00000000        0x4 ../../../platform/common/services/serial/usart_serial.o
 .bss.cpu_irq_prev_interrupt_state
                0x00000000        0x1 ../../../platform/common/services/serial/usart_serial.o
 .bss.tTS       0x00000000        0x4 ../../../platform/common/services/serial/usart_serial.o
 .debug_info    0x00000000     0x129e ../../../platform/common/services/serial/usart_serial.o
 .debug_abbrev  0x00000000      0x29b ../../../platform/common/services/serial/usart_serial.o
 .debug_loc     0x00000000      0x140 ../../../platform/common/services/serial/usart_serial.o
 .debug_aranges
                0x00000000       0x20 ../../../platform/common/services/serial/usart_serial.o
 .debug_line    0x00000000      0x5e1 ../../../platform/common/services/serial/usart_serial.o
 .debug_str     0x00000000      0xbee ../../../platform/common/services/serial/usart_serial.o
 .comment       0x00000000       0x5a ../../../platform/common/services/serial/usart_serial.o
 .debug_frame   0x00000000       0xb0 ../../../platform/common/services/serial/usart_serial.o
 .ARM.attributes
                0x00000000       0x33 ../../../platform/common/services/serial/usart_serial.o
 .data          0x00000000        0x0 ../../../platform/common/services/spi/sam_spi/spi_master.o
 .bss           0x00000000        0x0 ../../../platform/common/services/spi/sam_spi/spi_master.o
 .bss.cpu_irq_critical_section_counter
                0x00000000        0x4 ../../../platform/common/services/spi/sam_spi/spi_master.o
 .bss.cpu_irq_prev_interrupt_state
                0x00000000        0x1 ../../../platform/common/services/spi/sam_spi/spi_master.o
 .bss.tTS       0x00000000        0x4 ../../../platform/common/services/spi/sam_spi/spi_master.o
 .text          0x00000000      0x2c4 ../../../platform/common/services/spi/sam_usart_spi/usart_spi.o
 .data          0x00000000        0x0 ../../../platform/common/services/spi/sam_usart_spi/usart_spi.o
 .bss           0x00000000        0x0 ../../../platform/common/services/spi/sam_usart_spi/usart_spi.o
 .bss.cpu_irq_critical_section_counter
                0x00000000        0x4 ../../../platform/common/services/spi/sam_usart_spi/usart_spi.o
 .bss.cpu_irq_prev_interrupt_state
                0x00000000        0x1 ../../../platform/common/services/spi/sam_usart_spi/usart_spi.o
 .bss.tTS       0x00000000        0x4 ../../../platform/common/services/spi/sam_usart_spi/usart_spi.o
 .debug_info    0x00000000     0x16cc ../../../platform/common/services/spi/sam_usart_spi/usart_spi.o
 .debug_abbrev  0x00000000      0x2ee ../../../platform/common/services/spi/sam_usart_spi/usart_spi.o
 .debug_loc     0x00000000      0x4d0 ../../../platform/common/services/spi/sam_usart_spi/usart_spi.o
 .debug_aranges
                0x00000000       0x20 ../../../platform/common/services/spi/sam_usart_spi/usart_spi.o
 .debug_line    0x00000000      0x5f2 ../../../platform/common/services/spi/sam_usart_spi/usart_spi.o
 .debug_str     0x00000000      0xeec ../../../platform/common/services/spi/sam_usart_spi/usart_spi.o
 .comment       0x00000000       0x5a ../../../platform/common/services/spi/sam_usart_spi/usart_spi.o
 .debug_frame   0x00000000      0x280 ../../../platform/common/services/spi/sam_usart_spi/usart_spi.o
 .ARM.attributes
                0x00000000       0x33 ../../../platform/common/services/spi/sam_usart_spi/usart_spi.o
 .text          0x00000000        0x0 ../../../platform/common/services/sleepmgr/sam/sleepmgr.o
 .data          0x00000000        0x0 ../../../platform/common/services/sleepmgr/sam/sleepmgr.o
 .bss           0x00000000        0x0 ../../../platform/common/services/sleepmgr/sam/sleepmgr.o
 .bss.cpu_irq_critical_section_counter
                0x00000000        0x4 ../../../platform/common/services/sleepmgr/sam/sleepmgr.o
 .bss.cpu_irq_prev_interrupt_state
                0x00000000        0x1 ../../../platform/common/services/sleepmgr/sam/sleepmgr.o
 .data          0x00000000        0x0 ../../../platform/common/services/usb/udc/udc.o
 .bss           0x00000000        0x0 ../../../platform/common/services/usb/udc/udc.o
 .bss.cpu_irq_critical_section_counter
                0x00000000        0x4 ../../../platform/common/services/usb/udc/udc.o
 .bss.cpu_irq_prev_interrupt_state
                0x00000000        0x1 ../../../platform/common/services/usb/udc/udc.o
 .bss.tTS       0x00000000        0x4 ../../../platform/common/services/usb/udc/udc.o
 .data          0x00000000        0x0 ../../../platform/common/services/usb/class/cdc/device/udi_cdc.o
 .bss           0x00000000        0x0 ../../../platform/common/services/usb/class/cdc/device/udi_cdc.o
 .bss.cpu_irq_critical_section_counter
                0x00000000        0x4 ../../../platform/common/services/usb/class/cdc/device/udi_cdc.o
 .bss.cpu_irq_prev_interrupt_state
                0x00000000        0x1 ../../../platform/common/services/usb/class/cdc/device/udi_cdc.o
 .bss.tTS       0x00000000        0x4 ../../../platform/common/services/usb/class/cdc/device/udi_cdc.o
 .text          0x00000000        0x0 ../../../platform/common/services/usb/class/cdc/device/udi_cdc_desc.o
 .data          0x00000000        0x0 ../../../platform/common/services/usb/class/cdc/device/udi_cdc_desc.o
 .bss           0x00000000        0x0 ../../../platform/common/services/usb/class/cdc/device/udi_cdc_desc.o
 .bss.cpu_irq_critical_section_counter
                0x00000000        0x4 ../../../platform/common/services/usb/class/cdc/device/udi_cdc_desc.o
 .bss.cpu_irq_prev_interrupt_state
                0x00000000        0x1 ../../../platform/common/services/usb/class/cdc/device/udi_cdc_desc.o
 .bss.tTS       0x00000000        0x4 ../../../platform/common/services/usb/class/cdc/device/udi_cdc_desc.o
 .text          0x00000000       0x94 ../../../platform/common/utils/interrupt\interrupt_sam_nvic.o
 .data          0x00000000        0x0 ../../../platform/common/utils/interrupt\interrupt_sam_nvic.o
 .bss           0x00000000        0x0 ../../../platform/common/utils/interrupt\interrupt_sam_nvic.o
 .bss.cpu_irq_critical_section_counter
                0x00000000        0x4 ../../../platform/common/utils/interrupt\interrupt_sam_nvic.o
 .bss.cpu_irq_prev_interrupt_state
                0x00000000        0x1 ../../../platform/common/utils/interrupt\interrupt_sam_nvic.o
 .data          0x00000000        0x0 ../../../platform/common/utils/stdio/read.o
 .bss           0x00000000        0x0 ../../../platform/common/utils/stdio/read.o
 .bss.cpu_irq_critical_section_counter
                0x00000000        0x4 ../../../platform/common/utils/stdio/read.o
 .bss.cpu_irq_prev_interrupt_state
                0x00000000        0x1 ../../../platform/common/utils/stdio/read.o
 .data          0x00000000        0x0 ../../../platform/common/utils/stdio/write.o
 .bss           0x00000000        0x0 ../../../platform/common/utils/stdio/write.o
 .bss.cpu_irq_critical_section_counter
                0x00000000        0x4 ../../../platform/common/utils/stdio/write.o
 .bss.cpu_irq_prev_interrupt_state
                0x00000000        0x1 ../../../platform/common/utils/stdio/write.o
 .data          0x00000000        0x0 ../../../platform/common/utils/stdio/stdio_usb/stdio_usb.o
 .bss           0x00000000        0x0 ../../../platform/common/utils/stdio/stdio_usb/stdio_usb.o
 .bss.cpu_irq_critical_section_counter
                0x00000000        0x4 ../../../platform/common/utils/stdio/stdio_usb/stdio_usb.o
 .bss.cpu_irq_prev_interrupt_state
                0x00000000        0x1 ../../../platform/common/utils/stdio/stdio_usb/stdio_usb.o
 .bss.tTS       0x00000000        0x4 ../../../platform/common/utils/stdio/stdio_usb/stdio_usb.o
 .text          0x00000000      0x264 ../../../platform/thirdparty/wireless/addons/sio2host/usb/sio2host.o
 .data          0x00000000        0x0 ../../../platform/thirdparty/wireless/addons/sio2host/usb/sio2host.o
 .bss           0x00000000        0x0 ../../../platform/thirdparty/wireless/addons/sio2host/usb/sio2host.o
 .bss.cpu_irq_critical_section_counter
                0x00000000        0x4 ../../../platform/thirdparty/wireless/addons/sio2host/usb/sio2host.o
 .bss.cpu_irq_prev_interrupt_state
                0x00000000        0x1 ../../../platform/thirdparty/wireless/addons/sio2host/usb/sio2host.o
 .bss.tTS       0x00000000        0x4 ../../../platform/thirdparty/wireless/addons/sio2host/usb/sio2host.o
 .bss.serial_rx_buf
                0x00000000       0x9c ../../../platform/thirdparty/wireless/addons/sio2host/usb/sio2host.o
 .bss.serial_rx_buf_head
                0x00000000        0x1 ../../../platform/thirdparty/wireless/addons/sio2host/usb/sio2host.o
 .bss.serial_rx_buf_tail
                0x00000000        0x1 ../../../platform/thirdparty/wireless/addons/sio2host/usb/sio2host.o
 .bss.serial_rx_count
                0x00000000        0x1 ../../../platform/thirdparty/wireless/addons/sio2host/usb/sio2host.o
 .bss.usb_rx_byte_rcvd
                0x00000000        0x1 ../../../platform/thirdparty/wireless/addons/sio2host/usb/sio2host.o
 .bss.main_b_cdc_enable
                0x00000000        0x1 ../../../platform/thirdparty/wireless/addons/sio2host/usb/sio2host.o
 .debug_info    0x00000000     0x1188 ../../../platform/thirdparty/wireless/addons/sio2host/usb/sio2host.o
 .debug_abbrev  0x00000000      0x297 ../../../platform/thirdparty/wireless/addons/sio2host/usb/sio2host.o
 .debug_loc     0x00000000      0x320 ../../../platform/thirdparty/wireless/addons/sio2host/usb/sio2host.o
 .debug_aranges
                0x00000000       0x20 ../../../platform/thirdparty/wireless/addons/sio2host/usb/sio2host.o
 .debug_line    0x00000000      0x500 ../../../platform/thirdparty/wireless/addons/sio2host/usb/sio2host.o
 .debug_str     0x00000000      0xb03 ../../../platform/thirdparty/wireless/addons/sio2host/usb/sio2host.o
 .comment       0x00000000       0x5a ../../../platform/thirdparty/wireless/addons/sio2host/usb/sio2host.o
 .debug_frame   0x00000000      0x194 ../../../platform/thirdparty/wireless/addons/sio2host/usb/sio2host.o
 .ARM.attributes
                0x00000000       0x33 ../../../platform/thirdparty/wireless/addons/sio2host/usb/sio2host.o
 .data          0x00000000        0x0 ../../../board/WM400/src/board_init.o
 .bss           0x00000000        0x0 ../../../board/WM400/src/board_init.o
 .bss.cpu_irq_critical_section_counter
                0x00000000        0x4 ../../../board/WM400/src/board_init.o
 .bss.cpu_irq_prev_interrupt_state
                0x00000000        0x1 ../../../board/WM400/src/board_init.o
 .bss.tTS       0x00000000        0x4 ../../../board/WM400/src/board_init.o
 .text          0x00000000      0x130 ../../../platform/resources/buffer/src/bmm.o
 .data          0x00000000        0x0 ../../../platform/resources/buffer/src/bmm.o
 .bss           0x00000000        0x0 ../../../platform/resources/buffer/src/bmm.o
 .bss.cpu_irq_critical_section_counter
                0x00000000        0x4 ../../../platform/resources/buffer/src/bmm.o
 .bss.cpu_irq_prev_interrupt_state
                0x00000000        0x1 ../../../platform/resources/buffer/src/bmm.o
 .bss.buf_pool  0x00000000     0x2000 ../../../platform/resources/buffer/src/bmm.o
 .bss.buf_header
                0x00000000      0x280 ../../../platform/resources/buffer/src/bmm.o
 .bss.free_large_buffer_q
                0x00000000        0xc ../../../platform/resources/buffer/src/bmm.o
 .bss.free_small_buffer_q
                0x00000000        0xc ../../../platform/resources/buffer/src/bmm.o
 .debug_info    0x00000000      0xc31 ../../../platform/resources/buffer/src/bmm.o
 .debug_abbrev  0x00000000      0x1f2 ../../../platform/resources/buffer/src/bmm.o
 .debug_loc     0x00000000       0xf0 ../../../platform/resources/buffer/src/bmm.o
 .debug_aranges
                0x00000000       0x20 ../../../platform/resources/buffer/src/bmm.o
 .debug_line    0x00000000      0x3d5 ../../../platform/resources/buffer/src/bmm.o
 .debug_str     0x00000000      0x790 ../../../platform/resources/buffer/src/bmm.o
 .comment       0x00000000       0x5a ../../../platform/resources/buffer/src/bmm.o
 .debug_frame   0x00000000       0x88 ../../../platform/resources/buffer/src/bmm.o
 .ARM.attributes
                0x00000000       0x33 ../../../platform/resources/buffer/src/bmm.o
 .text          0x00000000      0x230 ../../../platform/resources/queue/src/qmm.o
 .data          0x00000000        0x0 ../../../platform/resources/queue/src/qmm.o
 .bss           0x00000000        0x0 ../../../platform/resources/queue/src/qmm.o
 .bss.cpu_irq_critical_section_counter
                0x00000000        0x4 ../../../platform/resources/queue/src/qmm.o
 .bss.cpu_irq_prev_interrupt_state
                0x00000000        0x1 ../../../platform/resources/queue/src/qmm.o
 .debug_info    0x00000000      0xe35 ../../../platform/resources/queue/src/qmm.o
 .debug_abbrev  0x00000000      0x320 ../../../platform/resources/queue/src/qmm.o
 .debug_loc     0x00000000      0x2f4 ../../../platform/resources/queue/src/qmm.o
 .debug_aranges
                0x00000000       0x20 ../../../platform/resources/queue/src/qmm.o
 .debug_line    0x00000000      0x41b ../../../platform/resources/queue/src/qmm.o
 .debug_str     0x00000000      0x862 ../../../platform/resources/queue/src/qmm.o
 .comment       0x00000000       0x5a ../../../platform/resources/queue/src/qmm.o
 .debug_frame   0x00000000      0x178 ../../../platform/resources/queue/src/qmm.o
 .ARM.attributes
                0x00000000       0x33 ../../../platform/resources/queue/src/qmm.o
 .data          0x00000000        0x0 ../../../platform/sam/utils/syscalls/gcc/hardfault_handler.o
 .bss           0x00000000        0x0 ../../../platform/sam/utils/syscalls/gcc/hardfault_handler.o
 .group         0x00000000        0x8 ../../../stack/LwMesh/TDMA/services/common_hw_timer/sam/lib\libsam4l_lib_hw_timer.a(common_hw_timer.o)
 .group         0x00000000        0x8 ../../../stack/LwMesh/TDMA/services/common_hw_timer/sam/lib\libsam4l_lib_hw_timer.a(common_hw_timer.o)
 .text          0x00000000        0x0 ../../../stack/LwMesh/TDMA/services/common_hw_timer/sam/lib\libsam4l_lib_hw_timer.a(common_hw_timer.o)
 .data          0x00000000        0x0 ../../../stack/LwMesh/TDMA/services/common_hw_timer/sam/lib\libsam4l_lib_hw_timer.a(common_hw_timer.o)
 .text.common_tc_read_count
                0x00000000       0x54 ../../../stack/LwMesh/TDMA/services/common_hw_timer/sam/lib\libsam4l_lib_hw_timer.a(common_hw_timer.o)
 .text.common_tc_compare_stop
                0x00000000       0x34 ../../../stack/LwMesh/TDMA/services/common_hw_timer/sam/lib\libsam4l_lib_hw_timer.a(common_hw_timer.o)
 .text.common_tc_overflow_stop
                0x00000000       0x1c ../../../stack/LwMesh/TDMA/services/common_hw_timer/sam/lib\libsam4l_lib_hw_timer.a(common_hw_timer.o)
 .text.common_tc_stop
                0x00000000       0x24 ../../../stack/LwMesh/TDMA/services/common_hw_timer/sam/lib\libsam4l_lib_hw_timer.a(common_hw_timer.o)
 .text.set_common_tc_overflow_callback
                0x00000000        0xc ../../../stack/LwMesh/TDMA/services/common_hw_timer/sam/lib\libsam4l_lib_hw_timer.a(common_hw_timer.o)
 .text          0x00000000        0x0 c:/program files (x86)/atmel/studio/7.0/toolchain/arm/arm-gnu-toolchain/bin/../lib/gcc/arm-none-eabi/6.3.1/../../../../arm-none-eabi/lib/thumb/v7e-m\libg.a(lib_a-exit.o)
 .data          0x00000000        0x0 c:/program files (x86)/atmel/studio/7.0/toolchain/arm/arm-gnu-toolchain/bin/../lib/gcc/arm-none-eabi/6.3.1/../../../../arm-none-eabi/lib/thumb/v7e-m\libg.a(lib_a-exit.o)
 .bss           0x00000000        0x0 c:/program files (x86)/atmel/studio/7.0/toolchain/arm/arm-gnu-toolchain/bin/../lib/gcc/arm-none-eabi/6.3.1/../../../../arm-none-eabi/lib/thumb/v7e-m\libg.a(lib_a-exit.o)
 .text.exit     0x00000000       0x20 c:/program files (x86)/atmel/studio/7.0/toolchain/arm/arm-gnu-toolchain/bin/../lib/gcc/arm-none-eabi/6.3.1/../../../../arm-none-eabi/lib/thumb/v7e-m\libg.a(lib_a-exit.o)
 .debug_frame   0x00000000       0x28 c:/program files (x86)/atmel/studio/7.0/toolchain/arm/arm-gnu-toolchain/bin/../lib/gcc/arm-none-eabi/6.3.1/../../../../arm-none-eabi/lib/thumb/v7e-m\libg.a(lib_a-exit.o)
 .ARM.attributes
                0x00000000       0x2e c:/program files (x86)/atmel/studio/7.0/toolchain/arm/arm-gnu-toolchain/bin/../lib/gcc/arm-none-eabi/6.3.1/../../../../arm-none-eabi/lib/thumb/v7e-m\libg.a(lib_a-exit.o)
 .text          0x00000000        0x0 c:/program files (x86)/atmel/studio/7.0/toolchain/arm/arm-gnu-toolchain/bin/../lib/gcc/arm-none-eabi/6.3.1/../../../../arm-none-eabi/lib/thumb/v7e-m\libg.a(lib_a-impure.o)
 .data          0x00000000        0x0 c:/program files (x86)/atmel/studio/7.0/toolchain/arm/arm-gnu-toolchain/bin/../lib/gcc/arm-none-eabi/6.3.1/../../../../arm-none-eabi/lib/thumb/v7e-m\libg.a(lib_a-impure.o)
 .bss           0x00000000        0x0 c:/program files (x86)/atmel/studio/7.0/toolchain/arm/arm-gnu-toolchain/bin/../lib/gcc/arm-none-eabi/6.3.1/../../../../arm-none-eabi/lib/thumb/v7e-m\libg.a(lib_a-impure.o)
 .text          0x00000000        0x0 c:/program files (x86)/atmel/studio/7.0/toolchain/arm/arm-gnu-toolchain/bin/../lib/gcc/arm-none-eabi/6.3.1/../../../../arm-none-eabi/lib/thumb/v7e-m\libg.a(lib_a-init.o)
 .data          0x00000000        0x0 c:/program files (x86)/atmel/studio/7.0/toolchain/arm/arm-gnu-toolchain/bin/../lib/gcc/arm-none-eabi/6.3.1/../../../../arm-none-eabi/lib/thumb/v7e-m\libg.a(lib_a-init.o)
 .bss           0x00000000        0x0 c:/program files (x86)/atmel/studio/7.0/toolchain/arm/arm-gnu-toolchain/bin/../lib/gcc/arm-none-eabi/6.3.1/../../../../arm-none-eabi/lib/thumb/v7e-m\libg.a(lib_a-init.o)
 .data          0x00000000        0x0 c:/program files (x86)/atmel/studio/7.0/toolchain/arm/arm-gnu-toolchain/bin/../lib/gcc/arm-none-eabi/6.3.1/../../../../arm-none-eabi/lib/thumb/v7e-m\libg.a(lib_a-memcpy.o)
 .bss           0x00000000        0x0 c:/program files (x86)/atmel/studio/7.0/toolchain/arm/arm-gnu-toolchain/bin/../lib/gcc/arm-none-eabi/6.3.1/../../../../arm-none-eabi/lib/thumb/v7e-m\libg.a(lib_a-memcpy.o)
 .text          0x00000000        0x0 c:/program files (x86)/atmel/studio/7.0/toolchain/arm/arm-gnu-toolchain/bin/../lib/gcc/arm-none-eabi/6.3.1/../../../../arm-none-eabi/lib/thumb/v7e-m\libg.a(lib_a-memset.o)
 .data          0x00000000        0x0 c:/program files (x86)/atmel/studio/7.0/toolchain/arm/arm-gnu-toolchain/bin/../lib/gcc/arm-none-eabi/6.3.1/../../../../arm-none-eabi/lib/thumb/v7e-m\libg.a(lib_a-memset.o)
 .bss           0x00000000        0x0 c:/program files (x86)/atmel/studio/7.0/toolchain/arm/arm-gnu-toolchain/bin/../lib/gcc/arm-none-eabi/6.3.1/../../../../arm-none-eabi/lib/thumb/v7e-m\libg.a(lib_a-memset.o)
 .text          0x00000000        0x0 c:/program files (x86)/atmel/studio/7.0/toolchain/arm/arm-gnu-toolchain/bin/../lib/gcc/arm-none-eabi/6.3.1/../../../../arm-none-eabi/lib/thumb/v7e-m\libg.a(lib_a-printf.o)
 .data          0x00000000        0x0 c:/program files (x86)/atmel/studio/7.0/toolchain/arm/arm-gnu-toolchain/bin/../lib/gcc/arm-none-eabi/6.3.1/../../../../arm-none-eabi/lib/thumb/v7e-m\libg.a(lib_a-printf.o)
 .bss           0x00000000        0x0 c:/program files (x86)/atmel/studio/7.0/toolchain/arm/arm-gnu-toolchain/bin/../lib/gcc/arm-none-eabi/6.3.1/../../../../arm-none-eabi/lib/thumb/v7e-m\libg.a(lib_a-printf.o)
 .text._printf_r
                0x00000000       0x20 c:/program files (x86)/atmel/studio/7.0/toolchain/arm/arm-gnu-toolchain/bin/../lib/gcc/arm-none-eabi/6.3.1/../../../../arm-none-eabi/lib/thumb/v7e-m\libg.a(lib_a-printf.o)
 .text          0x00000000        0x0 c:/program files (x86)/atmel/studio/7.0/toolchain/arm/arm-gnu-toolchain/bin/../lib/gcc/arm-none-eabi/6.3.1/../../../../arm-none-eabi/lib/thumb/v7e-m\libg.a(lib_a-rand.o)
 .data          0x00000000        0x0 c:/program files (x86)/atmel/studio/7.0/toolchain/arm/arm-gnu-toolchain/bin/../lib/gcc/arm-none-eabi/6.3.1/../../../../arm-none-eabi/lib/thumb/v7e-m\libg.a(lib_a-rand.o)
 .bss           0x00000000        0x0 c:/program files (x86)/atmel/studio/7.0/toolchain/arm/arm-gnu-toolchain/bin/../lib/gcc/arm-none-eabi/6.3.1/../../../../arm-none-eabi/lib/thumb/v7e-m\libg.a(lib_a-rand.o)
 .text.srand    0x00000000       0x14 c:/program files (x86)/atmel/studio/7.0/toolchain/arm/arm-gnu-toolchain/bin/../lib/gcc/arm-none-eabi/6.3.1/../../../../arm-none-eabi/lib/thumb/v7e-m\libg.a(lib_a-rand.o)
 .text          0x00000000        0x0 c:/program files (x86)/atmel/studio/7.0/toolchain/arm/arm-gnu-toolchain/bin/../lib/gcc/arm-none-eabi/6.3.1/../../../../arm-none-eabi/lib/thumb/v7e-m\libg.a(lib_a-setbuf.o)
 .data          0x00000000        0x0 c:/program files (x86)/atmel/studio/7.0/toolchain/arm/arm-gnu-toolchain/bin/../lib/gcc/arm-none-eabi/6.3.1/../../../../arm-none-eabi/lib/thumb/v7e-m\libg.a(lib_a-setbuf.o)
 .bss           0x00000000        0x0 c:/program files (x86)/atmel/studio/7.0/toolchain/arm/arm-gnu-toolchain/bin/../lib/gcc/arm-none-eabi/6.3.1/../../../../arm-none-eabi/lib/thumb/v7e-m\libg.a(lib_a-setbuf.o)
 .text          0x00000000        0x0 c:/program files (x86)/atmel/studio/7.0/toolchain/arm/arm-gnu-toolchain/bin/../lib/gcc/arm-none-eabi/6.3.1/../../../../arm-none-eabi/lib/thumb/v7e-m\libg.a(lib_a-setvbuf.o)
 .data          0x00000000        0x0 c:/program files (x86)/atmel/studio/7.0/toolchain/arm/arm-gnu-toolchain/bin/../lib/gcc/arm-none-eabi/6.3.1/../../../../arm-none-eabi/lib/thumb/v7e-m\libg.a(lib_a-setvbuf.o)
 .bss           0x00000000        0x0 c:/program files (x86)/atmel/studio/7.0/toolchain/arm/arm-gnu-toolchain/bin/../lib/gcc/arm-none-eabi/6.3.1/../../../../arm-none-eabi/lib/thumb/v7e-m\libg.a(lib_a-setvbuf.o)
 .text          0x00000000        0x0 c:/program files (x86)/atmel/studio/7.0/toolchain/arm/arm-gnu-toolchain/bin/../lib/gcc/arm-none-eabi/6.3.1/../../../../arm-none-eabi/lib/thumb/v7e-m\libg.a(lib_a-vfprintf.o)
 .data          0x00000000        0x0 c:/program files (x86)/atmel/studio/7.0/toolchain/arm/arm-gnu-toolchain/bin/../lib/gcc/arm-none-eabi/6.3.1/../../../../arm-none-eabi/lib/thumb/v7e-m\libg.a(lib_a-vfprintf.o)
 .bss           0x00000000        0x0 c:/program files (x86)/atmel/studio/7.0/toolchain/arm/arm-gnu-toolchain/bin/../lib/gcc/arm-none-eabi/6.3.1/../../../../arm-none-eabi/lib/thumb/v7e-m\libg.a(lib_a-vfprintf.o)
 .text.vfprintf
                0x00000000       0x18 c:/program files (x86)/atmel/studio/7.0/toolchain/arm/arm-gnu-toolchain/bin/../lib/gcc/arm-none-eabi/6.3.1/../../../../arm-none-eabi/lib/thumb/v7e-m\libg.a(lib_a-vfprintf.o)
 .text          0x00000000        0x0 c:/program files (x86)/atmel/studio/7.0/toolchain/arm/arm-gnu-toolchain/bin/../lib/gcc/arm-none-eabi/6.3.1/../../../../arm-none-eabi/lib/thumb/v7e-m\libg.a(lib_a-wsetup.o)
 .data          0x00000000        0x0 c:/program files (x86)/atmel/studio/7.0/toolchain/arm/arm-gnu-toolchain/bin/../lib/gcc/arm-none-eabi/6.3.1/../../../../arm-none-eabi/lib/thumb/v7e-m\libg.a(lib_a-wsetup.o)
 .bss           0x00000000        0x0 c:/program files (x86)/atmel/studio/7.0/toolchain/arm/arm-gnu-toolchain/bin/../lib/gcc/arm-none-eabi/6.3.1/../../../../arm-none-eabi/lib/thumb/v7e-m\libg.a(lib_a-wsetup.o)
 .text          0x00000000        0x0 c:/program files (x86)/atmel/studio/7.0/toolchain/arm/arm-gnu-toolchain/bin/../lib/gcc/arm-none-eabi/6.3.1/../../../../arm-none-eabi/lib/thumb/v7e-m\libg.a(lib_a-__call_atexit.o)
 .data          0x00000000        0x0 c:/program files (x86)/atmel/studio/7.0/toolchain/arm/arm-gnu-toolchain/bin/../lib/gcc/arm-none-eabi/6.3.1/../../../../arm-none-eabi/lib/thumb/v7e-m\libg.a(lib_a-__call_atexit.o)
 .bss           0x00000000        0x0 c:/program files (x86)/atmel/studio/7.0/toolchain/arm/arm-gnu-toolchain/bin/../lib/gcc/arm-none-eabi/6.3.1/../../../../arm-none-eabi/lib/thumb/v7e-m\libg.a(lib_a-__call_atexit.o)
 .text.__call_exitprocs
                0x00000000       0xe8 c:/program files (x86)/atmel/studio/7.0/toolchain/arm/arm-gnu-toolchain/bin/../lib/gcc/arm-none-eabi/6.3.1/../../../../arm-none-eabi/lib/thumb/v7e-m\libg.a(lib_a-__call_atexit.o)
 .text          0x00000000        0x0 c:/program files (x86)/atmel/studio/7.0/toolchain/arm/arm-gnu-toolchain/bin/../lib/gcc/arm-none-eabi/6.3.1/../../../../arm-none-eabi/lib/thumb/v7e-m\libg.a(lib_a-atexit.o)
 .data          0x00000000        0x0 c:/program files (x86)/atmel/studio/7.0/toolchain/arm/arm-gnu-toolchain/bin/../lib/gcc/arm-none-eabi/6.3.1/../../../../arm-none-eabi/lib/thumb/v7e-m\libg.a(lib_a-atexit.o)
 .bss           0x00000000        0x0 c:/program files (x86)/atmel/studio/7.0/toolchain/arm/arm-gnu-toolchain/bin/../lib/gcc/arm-none-eabi/6.3.1/../../../../arm-none-eabi/lib/thumb/v7e-m\libg.a(lib_a-atexit.o)
 .text          0x00000000        0x0 c:/program files (x86)/atmel/studio/7.0/toolchain/arm/arm-gnu-toolchain/bin/../lib/gcc/arm-none-eabi/6.3.1/../../../../arm-none-eabi/lib/thumb/v7e-m\libg.a(lib_a-dtoa.o)
 .data          0x00000000        0x0 c:/program files (x86)/atmel/studio/7.0/toolchain/arm/arm-gnu-toolchain/bin/../lib/gcc/arm-none-eabi/6.3.1/../../../../arm-none-eabi/lib/thumb/v7e-m\libg.a(lib_a-dtoa.o)
 .bss           0x00000000        0x0 c:/program files (x86)/atmel/studio/7.0/toolchain/arm/arm-gnu-toolchain/bin/../lib/gcc/arm-none-eabi/6.3.1/../../../../arm-none-eabi/lib/thumb/v7e-m\libg.a(lib_a-dtoa.o)
 .text          0x00000000        0x0 c:/program files (x86)/atmel/studio/7.0/toolchain/arm/arm-gnu-toolchain/bin/../lib/gcc/arm-none-eabi/6.3.1/../../../../arm-none-eabi/lib/thumb/v7e-m\libg.a(lib_a-fflush.o)
 .data          0x00000000        0x0 c:/program files (x86)/atmel/studio/7.0/toolchain/arm/arm-gnu-toolchain/bin/../lib/gcc/arm-none-eabi/6.3.1/../../../../arm-none-eabi/lib/thumb/v7e-m\libg.a(lib_a-fflush.o)
 .bss           0x00000000        0x0 c:/program files (x86)/atmel/studio/7.0/toolchain/arm/arm-gnu-toolchain/bin/../lib/gcc/arm-none-eabi/6.3.1/../../../../arm-none-eabi/lib/thumb/v7e-m\libg.a(lib_a-fflush.o)
 .text.fflush   0x00000000       0x24 c:/program files (x86)/atmel/studio/7.0/toolchain/arm/arm-gnu-toolchain/bin/../lib/gcc/arm-none-eabi/6.3.1/../../../../arm-none-eabi/lib/thumb/v7e-m\libg.a(lib_a-fflush.o)
 .text          0x00000000        0x0 c:/program files (x86)/atmel/studio/7.0/toolchain/arm/arm-gnu-toolchain/bin/../lib/gcc/arm-none-eabi/6.3.1/../../../../arm-none-eabi/lib/thumb/v7e-m\libg.a(lib_a-findfp.o)
 .data          0x00000000        0x0 c:/program files (x86)/atmel/studio/7.0/toolchain/arm/arm-gnu-toolchain/bin/../lib/gcc/arm-none-eabi/6.3.1/../../../../arm-none-eabi/lib/thumb/v7e-m\libg.a(lib_a-findfp.o)
 .bss           0x00000000        0x0 c:/program files (x86)/atmel/studio/7.0/toolchain/arm/arm-gnu-toolchain/bin/../lib/gcc/arm-none-eabi/6.3.1/../../../../arm-none-eabi/lib/thumb/v7e-m\libg.a(lib_a-findfp.o)
 .text.__fp_lock
                0x00000000       0x1c c:/program files (x86)/atmel/studio/7.0/toolchain/arm/arm-gnu-toolchain/bin/../lib/gcc/arm-none-eabi/6.3.1/../../../../arm-none-eabi/lib/thumb/v7e-m\libg.a(lib_a-findfp.o)
 .text.__fp_unlock
                0x00000000       0x1c c:/program files (x86)/atmel/studio/7.0/toolchain/arm/arm-gnu-toolchain/bin/../lib/gcc/arm-none-eabi/6.3.1/../../../../arm-none-eabi/lib/thumb/v7e-m\libg.a(lib_a-findfp.o)
 .text.__sfmoreglue
                0x00000000       0x30 c:/program files (x86)/atmel/studio/7.0/toolchain/arm/arm-gnu-toolchain/bin/../lib/gcc/arm-none-eabi/6.3.1/../../../../arm-none-eabi/lib/thumb/v7e-m\libg.a(lib_a-findfp.o)
 .text._cleanup
                0x00000000       0x14 c:/program files (x86)/atmel/studio/7.0/toolchain/arm/arm-gnu-toolchain/bin/../lib/gcc/arm-none-eabi/6.3.1/../../../../arm-none-eabi/lib/thumb/v7e-m\libg.a(lib_a-findfp.o)
 .text.__sfp    0x00000000       0xa8 c:/program files (x86)/atmel/studio/7.0/toolchain/arm/arm-gnu-toolchain/bin/../lib/gcc/arm-none-eabi/6.3.1/../../../../arm-none-eabi/lib/thumb/v7e-m\libg.a(lib_a-findfp.o)
 .text.__sinit_lock_acquire
                0x00000000        0xc c:/program files (x86)/atmel/studio/7.0/toolchain/arm/arm-gnu-toolchain/bin/../lib/gcc/arm-none-eabi/6.3.1/../../../../arm-none-eabi/lib/thumb/v7e-m\libg.a(lib_a-findfp.o)
 .text.__sinit_lock_release
                0x00000000        0xc c:/program files (x86)/atmel/studio/7.0/toolchain/arm/arm-gnu-toolchain/bin/../lib/gcc/arm-none-eabi/6.3.1/../../../../arm-none-eabi/lib/thumb/v7e-m\libg.a(lib_a-findfp.o)
 .text.__fp_lock_all
                0x00000000       0x24 c:/program files (x86)/atmel/studio/7.0/toolchain/arm/arm-gnu-toolchain/bin/../lib/gcc/arm-none-eabi/6.3.1/../../../../arm-none-eabi/lib/thumb/v7e-m\libg.a(lib_a-findfp.o)
 .text.__fp_unlock_all
                0x00000000       0x24 c:/program files (x86)/atmel/studio/7.0/toolchain/arm/arm-gnu-toolchain/bin/../lib/gcc/arm-none-eabi/6.3.1/../../../../arm-none-eabi/lib/thumb/v7e-m\libg.a(lib_a-findfp.o)
 .text          0x00000000        0x0 c:/program files (x86)/atmel/studio/7.0/toolchain/arm/arm-gnu-toolchain/bin/../lib/gcc/arm-none-eabi/6.3.1/../../../../arm-none-eabi/lib/thumb/v7e-m\libg.a(lib_a-fini.o)
 .data          0x00000000        0x0 c:/program files (x86)/atmel/studio/7.0/toolchain/arm/arm-gnu-toolchain/bin/../lib/gcc/arm-none-eabi/6.3.1/../../../../arm-none-eabi/lib/thumb/v7e-m\libg.a(lib_a-fini.o)
 .bss           0x00000000        0x0 c:/program files (x86)/atmel/studio/7.0/toolchain/arm/arm-gnu-toolchain/bin/../lib/gcc/arm-none-eabi/6.3.1/../../../../arm-none-eabi/lib/thumb/v7e-m\libg.a(lib_a-fini.o)
 .text          0x00000000        0x0 c:/program files (x86)/atmel/studio/7.0/toolchain/arm/arm-gnu-toolchain/bin/../lib/gcc/arm-none-eabi/6.3.1/../../../../arm-none-eabi/lib/thumb/v7e-m\libg.a(lib_a-freer.o)
 .data          0x00000000        0x0 c:/program files (x86)/atmel/studio/7.0/toolchain/arm/arm-gnu-toolchain/bin/../lib/gcc/arm-none-eabi/6.3.1/../../../../arm-none-eabi/lib/thumb/v7e-m\libg.a(lib_a-freer.o)
 .bss           0x00000000        0x0 c:/program files (x86)/atmel/studio/7.0/toolchain/arm/arm-gnu-toolchain/bin/../lib/gcc/arm-none-eabi/6.3.1/../../../../arm-none-eabi/lib/thumb/v7e-m\libg.a(lib_a-freer.o)
 .text          0x00000000        0x0 c:/program files (x86)/atmel/studio/7.0/toolchain/arm/arm-gnu-toolchain/bin/../lib/gcc/arm-none-eabi/6.3.1/../../../../arm-none-eabi/lib/thumb/v7e-m\libg.a(lib_a-fwalk.o)
 .data          0x00000000        0x0 c:/program files (x86)/atmel/studio/7.0/toolchain/arm/arm-gnu-toolchain/bin/../lib/gcc/arm-none-eabi/6.3.1/../../../../arm-none-eabi/lib/thumb/v7e-m\libg.a(lib_a-fwalk.o)
 .bss           0x00000000        0x0 c:/program files (x86)/atmel/studio/7.0/toolchain/arm/arm-gnu-toolchain/bin/../lib/gcc/arm-none-eabi/6.3.1/../../../../arm-none-eabi/lib/thumb/v7e-m\libg.a(lib_a-fwalk.o)
 .text._fwalk   0x00000000       0x4c c:/program files (x86)/atmel/studio/7.0/toolchain/arm/arm-gnu-toolchain/bin/../lib/gcc/arm-none-eabi/6.3.1/../../../../arm-none-eabi/lib/thumb/v7e-m\libg.a(lib_a-fwalk.o)
 .text          0x00000000        0x0 c:/program files (x86)/atmel/studio/7.0/toolchain/arm/arm-gnu-toolchain/bin/../lib/gcc/arm-none-eabi/6.3.1/../../../../arm-none-eabi/lib/thumb/v7e-m\libg.a(lib_a-localeconv.o)
 .data          0x00000000        0x0 c:/program files (x86)/atmel/studio/7.0/toolchain/arm/arm-gnu-toolchain/bin/../lib/gcc/arm-none-eabi/6.3.1/../../../../arm-none-eabi/lib/thumb/v7e-m\libg.a(lib_a-localeconv.o)
 .bss           0x00000000        0x0 c:/program files (x86)/atmel/studio/7.0/toolchain/arm/arm-gnu-toolchain/bin/../lib/gcc/arm-none-eabi/6.3.1/../../../../arm-none-eabi/lib/thumb/v7e-m\libg.a(lib_a-localeconv.o)
 .text.__localeconv_l
                0x00000000        0x4 c:/program files (x86)/atmel/studio/7.0/toolchain/arm/arm-gnu-toolchain/bin/../lib/gcc/arm-none-eabi/6.3.1/../../../../arm-none-eabi/lib/thumb/v7e-m\libg.a(lib_a-localeconv.o)
 .text.localeconv
                0x00000000       0x1c c:/program files (x86)/atmel/studio/7.0/toolchain/arm/arm-gnu-toolchain/bin/../lib/gcc/arm-none-eabi/6.3.1/../../../../arm-none-eabi/lib/thumb/v7e-m\libg.a(lib_a-localeconv.o)
 .text          0x00000000        0x0 c:/program files (x86)/atmel/studio/7.0/toolchain/arm/arm-gnu-toolchain/bin/../lib/gcc/arm-none-eabi/6.3.1/../../../../arm-none-eabi/lib/thumb/v7e-m\libg.a(lib_a-lock.o)
 .data          0x00000000        0x0 c:/program files (x86)/atmel/studio/7.0/toolchain/arm/arm-gnu-toolchain/bin/../lib/gcc/arm-none-eabi/6.3.1/../../../../arm-none-eabi/lib/thumb/v7e-m\libg.a(lib_a-lock.o)
 .bss           0x00000000        0x0 c:/program files (x86)/atmel/studio/7.0/toolchain/arm/arm-gnu-toolchain/bin/../lib/gcc/arm-none-eabi/6.3.1/../../../../arm-none-eabi/lib/thumb/v7e-m\libg.a(lib_a-lock.o)
 .text.__retarget_lock_init
                0x00000000        0x4 c:/program files (x86)/atmel/studio/7.0/toolchain/arm/arm-gnu-toolchain/bin/../lib/gcc/arm-none-eabi/6.3.1/../../../../arm-none-eabi/lib/thumb/v7e-m\libg.a(lib_a-lock.o)
 .text.__retarget_lock_close
                0x00000000        0x4 c:/program files (x86)/atmel/studio/7.0/toolchain/arm/arm-gnu-toolchain/bin/../lib/gcc/arm-none-eabi/6.3.1/../../../../arm-none-eabi/lib/thumb/v7e-m\libg.a(lib_a-lock.o)
 .text.__retarget_lock_acquire
                0x00000000        0x4 c:/program files (x86)/atmel/studio/7.0/toolchain/arm/arm-gnu-toolchain/bin/../lib/gcc/arm-none-eabi/6.3.1/../../../../arm-none-eabi/lib/thumb/v7e-m\libg.a(lib_a-lock.o)
 .text.__retarget_lock_try_acquire
                0x00000000        0x4 c:/program files (x86)/atmel/studio/7.0/toolchain/arm/arm-gnu-toolchain/bin/../lib/gcc/arm-none-eabi/6.3.1/../../../../arm-none-eabi/lib/thumb/v7e-m\libg.a(lib_a-lock.o)
 .text.__retarget_lock_try_acquire_recursive
                0x00000000        0x4 c:/program files (x86)/atmel/studio/7.0/toolchain/arm/arm-gnu-toolchain/bin/../lib/gcc/arm-none-eabi/6.3.1/../../../../arm-none-eabi/lib/thumb/v7e-m\libg.a(lib_a-lock.o)
 .text.__retarget_lock_release
                0x00000000        0x4 c:/program files (x86)/atmel/studio/7.0/toolchain/arm/arm-gnu-toolchain/bin/../lib/gcc/arm-none-eabi/6.3.1/../../../../arm-none-eabi/lib/thumb/v7e-m\libg.a(lib_a-lock.o)
 .text          0x00000000        0x0 c:/program files (x86)/atmel/studio/7.0/toolchain/arm/arm-gnu-toolchain/bin/../lib/gcc/arm-none-eabi/6.3.1/../../../../arm-none-eabi/lib/thumb/v7e-m\libg.a(lib_a-makebuf.o)
 .data          0x00000000        0x0 c:/program files (x86)/atmel/studio/7.0/toolchain/arm/arm-gnu-toolchain/bin/../lib/gcc/arm-none-eabi/6.3.1/../../../../arm-none-eabi/lib/thumb/v7e-m\libg.a(lib_a-makebuf.o)
 .bss           0x00000000        0x0 c:/program files (x86)/atmel/studio/7.0/toolchain/arm/arm-gnu-toolchain/bin/../lib/gcc/arm-none-eabi/6.3.1/../../../../arm-none-eabi/lib/thumb/v7e-m\libg.a(lib_a-makebuf.o)
 .text          0x00000000        0x0 c:/program files (x86)/atmel/studio/7.0/toolchain/arm/arm-gnu-toolchain/bin/../lib/gcc/arm-none-eabi/6.3.1/../../../../arm-none-eabi/lib/thumb/v7e-m\libg.a(lib_a-malloc.o)
 .data          0x00000000        0x0 c:/program files (x86)/atmel/studio/7.0/toolchain/arm/arm-gnu-toolchain/bin/../lib/gcc/arm-none-eabi/6.3.1/../../../../arm-none-eabi/lib/thumb/v7e-m\libg.a(lib_a-malloc.o)
 .bss           0x00000000        0x0 c:/program files (x86)/atmel/studio/7.0/toolchain/arm/arm-gnu-toolchain/bin/../lib/gcc/arm-none-eabi/6.3.1/../../../../arm-none-eabi/lib/thumb/v7e-m\libg.a(lib_a-malloc.o)
 .text.free     0x00000000       0x10 c:/program files (x86)/atmel/studio/7.0/toolchain/arm/arm-gnu-toolchain/bin/../lib/gcc/arm-none-eabi/6.3.1/../../../../arm-none-eabi/lib/thumb/v7e-m\libg.a(lib_a-malloc.o)
 .text          0x00000000        0x0 c:/program files (x86)/atmel/studio/7.0/toolchain/arm/arm-gnu-toolchain/bin/../lib/gcc/arm-none-eabi/6.3.1/../../../../arm-none-eabi/lib/thumb/v7e-m\libg.a(lib_a-mallocr.o)
 .data          0x00000000        0x0 c:/program files (x86)/atmel/studio/7.0/toolchain/arm/arm-gnu-toolchain/bin/../lib/gcc/arm-none-eabi/6.3.1/../../../../arm-none-eabi/lib/thumb/v7e-m\libg.a(lib_a-mallocr.o)
 .bss           0x00000000        0x0 c:/program files (x86)/atmel/studio/7.0/toolchain/arm/arm-gnu-toolchain/bin/../lib/gcc/arm-none-eabi/6.3.1/../../../../arm-none-eabi/lib/thumb/v7e-m\libg.a(lib_a-mallocr.o)
 .data          0x00000000        0x0 c:/program files (x86)/atmel/studio/7.0/toolchain/arm/arm-gnu-toolchain/bin/../lib/gcc/arm-none-eabi/6.3.1/../../../../arm-none-eabi/lib/thumb/v7e-m\libg.a(lib_a-memchr.o)
 .bss           0x00000000        0x0 c:/program files (x86)/atmel/studio/7.0/toolchain/arm/arm-gnu-toolchain/bin/../lib/gcc/arm-none-eabi/6.3.1/../../../../arm-none-eabi/lib/thumb/v7e-m\libg.a(lib_a-memchr.o)
 .text          0x00000000        0x0 c:/program files (x86)/atmel/studio/7.0/toolchain/arm/arm-gnu-toolchain/bin/../lib/gcc/arm-none-eabi/6.3.1/../../../../arm-none-eabi/lib/thumb/v7e-m\libg.a(lib_a-mlock.o)
 .data          0x00000000        0x0 c:/program files (x86)/atmel/studio/7.0/toolchain/arm/arm-gnu-toolchain/bin/../lib/gcc/arm-none-eabi/6.3.1/../../../../arm-none-eabi/lib/thumb/v7e-m\libg.a(lib_a-mlock.o)
 .bss           0x00000000        0x0 c:/program files (x86)/atmel/studio/7.0/toolchain/arm/arm-gnu-toolchain/bin/../lib/gcc/arm-none-eabi/6.3.1/../../../../arm-none-eabi/lib/thumb/v7e-m\libg.a(lib_a-mlock.o)
 .text          0x00000000        0x0 c:/program files (x86)/atmel/studio/7.0/toolchain/arm/arm-gnu-toolchain/bin/../lib/gcc/arm-none-eabi/6.3.1/../../../../arm-none-eabi/lib/thumb/v7e-m\libg.a(lib_a-mprec.o)
 .data          0x00000000        0x0 c:/program files (x86)/atmel/studio/7.0/toolchain/arm/arm-gnu-toolchain/bin/../lib/gcc/arm-none-eabi/6.3.1/../../../../arm-none-eabi/lib/thumb/v7e-m\libg.a(lib_a-mprec.o)
 .bss           0x00000000        0x0 c:/program files (x86)/atmel/studio/7.0/toolchain/arm/arm-gnu-toolchain/bin/../lib/gcc/arm-none-eabi/6.3.1/../../../../arm-none-eabi/lib/thumb/v7e-m\libg.a(lib_a-mprec.o)
 .text.__s2b    0x00000000       0x9c c:/program files (x86)/atmel/studio/7.0/toolchain/arm/arm-gnu-toolchain/bin/../lib/gcc/arm-none-eabi/6.3.1/../../../../arm-none-eabi/lib/thumb/v7e-m\libg.a(lib_a-mprec.o)
 .text.__ulp    0x00000000       0x44 c:/program files (x86)/atmel/studio/7.0/toolchain/arm/arm-gnu-toolchain/bin/../lib/gcc/arm-none-eabi/6.3.1/../../../../arm-none-eabi/lib/thumb/v7e-m\libg.a(lib_a-mprec.o)
 .text.__b2d    0x00000000       0xd0 c:/program files (x86)/atmel/studio/7.0/toolchain/arm/arm-gnu-toolchain/bin/../lib/gcc/arm-none-eabi/6.3.1/../../../../arm-none-eabi/lib/thumb/v7e-m\libg.a(lib_a-mprec.o)
 .text.__ratio  0x00000000       0x58 c:/program files (x86)/atmel/studio/7.0/toolchain/arm/arm-gnu-toolchain/bin/../lib/gcc/arm-none-eabi/6.3.1/../../../../arm-none-eabi/lib/thumb/v7e-m\libg.a(lib_a-mprec.o)
 .text._mprec_log10
                0x00000000       0x38 c:/program files (x86)/atmel/studio/7.0/toolchain/arm/arm-gnu-toolchain/bin/../lib/gcc/arm-none-eabi/6.3.1/../../../../arm-none-eabi/lib/thumb/v7e-m\libg.a(lib_a-mprec.o)
 .text.__copybits
                0x00000000       0x48 c:/program files (x86)/atmel/studio/7.0/toolchain/arm/arm-gnu-toolchain/bin/../lib/gcc/arm-none-eabi/6.3.1/../../../../arm-none-eabi/lib/thumb/v7e-m\libg.a(lib_a-mprec.o)
 .text.__any_on
                0x00000000       0x5c c:/program files (x86)/atmel/studio/7.0/toolchain/arm/arm-gnu-toolchain/bin/../lib/gcc/arm-none-eabi/6.3.1/../../../../arm-none-eabi/lib/thumb/v7e-m\libg.a(lib_a-mprec.o)
 .rodata.__mprec_tinytens
                0x00000000       0x28 c:/program files (x86)/atmel/studio/7.0/toolchain/arm/arm-gnu-toolchain/bin/../lib/gcc/arm-none-eabi/6.3.1/../../../../arm-none-eabi/lib/thumb/v7e-m\libg.a(lib_a-mprec.o)
 .text          0x00000000        0x0 c:/program files (x86)/atmel/studio/7.0/toolchain/arm/arm-gnu-toolchain/bin/../lib/gcc/arm-none-eabi/6.3.1/../../../../arm-none-eabi/lib/thumb/v7e-m\libg.a(lib_a-sbrkr.o)
 .data          0x00000000        0x0 c:/program files (x86)/atmel/studio/7.0/toolchain/arm/arm-gnu-toolchain/bin/../lib/gcc/arm-none-eabi/6.3.1/../../../../arm-none-eabi/lib/thumb/v7e-m\libg.a(lib_a-sbrkr.o)
 .bss           0x00000000        0x0 c:/program files (x86)/atmel/studio/7.0/toolchain/arm/arm-gnu-toolchain/bin/../lib/gcc/arm-none-eabi/6.3.1/../../../../arm-none-eabi/lib/thumb/v7e-m\libg.a(lib_a-sbrkr.o)
 .text          0x00000000        0x0 c:/program files (x86)/atmel/studio/7.0/toolchain/arm/arm-gnu-toolchain/bin/../lib/gcc/arm-none-eabi/6.3.1/../../../../arm-none-eabi/lib/thumb/v7e-m\libg.a(lib_a-stdio.o)
 .data          0x00000000        0x0 c:/program files (x86)/atmel/studio/7.0/toolchain/arm/arm-gnu-toolchain/bin/../lib/gcc/arm-none-eabi/6.3.1/../../../../arm-none-eabi/lib/thumb/v7e-m\libg.a(lib_a-stdio.o)
 .bss           0x00000000        0x0 c:/program files (x86)/atmel/studio/7.0/toolchain/arm/arm-gnu-toolchain/bin/../lib/gcc/arm-none-eabi/6.3.1/../../../../arm-none-eabi/lib/thumb/v7e-m\libg.a(lib_a-stdio.o)
 .text.__seofread
                0x00000000        0x4 c:/program files (x86)/atmel/studio/7.0/toolchain/arm/arm-gnu-toolchain/bin/../lib/gcc/arm-none-eabi/6.3.1/../../../../arm-none-eabi/lib/thumb/v7e-m\libg.a(lib_a-stdio.o)
 .data          0x00000000        0x0 c:/program files (x86)/atmel/studio/7.0/toolchain/arm/arm-gnu-toolchain/bin/../lib/gcc/arm-none-eabi/6.3.1/../../../../arm-none-eabi/lib/thumb/v7e-m\libg.a(lib_a-strlen.o)
 .bss           0x00000000        0x0 c:/program files (x86)/atmel/studio/7.0/toolchain/arm/arm-gnu-toolchain/bin/../lib/gcc/arm-none-eabi/6.3.1/../../../../arm-none-eabi/lib/thumb/v7e-m\libg.a(lib_a-strlen.o)
 .text          0x00000000        0x0 c:/program files (x86)/atmel/studio/7.0/toolchain/arm/arm-gnu-toolchain/bin/../lib/gcc/arm-none-eabi/6.3.1/../../../../arm-none-eabi/lib/thumb/v7e-m\libg.a(lib_a-vfiprintf.o)
 .data          0x00000000        0x0 c:/program files (x86)/atmel/studio/7.0/toolchain/arm/arm-gnu-toolchain/bin/../lib/gcc/arm-none-eabi/6.3.1/../../../../arm-none-eabi/lib/thumb/v7e-m\libg.a(lib_a-vfiprintf.o)
 .bss           0x00000000        0x0 c:/program files (x86)/atmel/studio/7.0/toolchain/arm/arm-gnu-toolchain/bin/../lib/gcc/arm-none-eabi/6.3.1/../../../../arm-none-eabi/lib/thumb/v7e-m\libg.a(lib_a-vfiprintf.o)
 .text._vfiprintf_r
                0x00000000      0xc90 c:/program files (x86)/atmel/studio/7.0/toolchain/arm/arm-gnu-toolchain/bin/../lib/gcc/arm-none-eabi/6.3.1/../../../../arm-none-eabi/lib/thumb/v7e-m\libg.a(lib_a-vfiprintf.o)
 .text.vfiprintf
                0x00000000       0x18 c:/program files (x86)/atmel/studio/7.0/toolchain/arm/arm-gnu-toolchain/bin/../lib/gcc/arm-none-eabi/6.3.1/../../../../arm-none-eabi/lib/thumb/v7e-m\libg.a(lib_a-vfiprintf.o)
 .text.__sbprintf
                0x00000000       0x84 c:/program files (x86)/atmel/studio/7.0/toolchain/arm/arm-gnu-toolchain/bin/../lib/gcc/arm-none-eabi/6.3.1/../../../../arm-none-eabi/lib/thumb/v7e-m\libg.a(lib_a-vfiprintf.o)
 .rodata._vfiprintf_r.str1.4
                0x00000000       0x2f c:/program files (x86)/atmel/studio/7.0/toolchain/arm/arm-gnu-toolchain/bin/../lib/gcc/arm-none-eabi/6.3.1/../../../../arm-none-eabi/lib/thumb/v7e-m\libg.a(lib_a-vfiprintf.o)
 .rodata.blanks.7217
                0x00000000       0x10 c:/program files (x86)/atmel/studio/7.0/toolchain/arm/arm-gnu-toolchain/bin/../lib/gcc/arm-none-eabi/6.3.1/../../../../arm-none-eabi/lib/thumb/v7e-m\libg.a(lib_a-vfiprintf.o)
 .rodata.zeroes.7218
                0x00000000       0x10 c:/program files (x86)/atmel/studio/7.0/toolchain/arm/arm-gnu-toolchain/bin/../lib/gcc/arm-none-eabi/6.3.1/../../../../arm-none-eabi/lib/thumb/v7e-m\libg.a(lib_a-vfiprintf.o)
 .text          0x00000000        0x0 c:/program files (x86)/atmel/studio/7.0/toolchain/arm/arm-gnu-toolchain/bin/../lib/gcc/arm-none-eabi/6.3.1/../../../../arm-none-eabi/lib/thumb/v7e-m\libg.a(lib_a-writer.o)
 .data          0x00000000        0x0 c:/program files (x86)/atmel/studio/7.0/toolchain/arm/arm-gnu-toolchain/bin/../lib/gcc/arm-none-eabi/6.3.1/../../../../arm-none-eabi/lib/thumb/v7e-m\libg.a(lib_a-writer.o)
 .bss           0x00000000        0x0 c:/program files (x86)/atmel/studio/7.0/toolchain/arm/arm-gnu-toolchain/bin/../lib/gcc/arm-none-eabi/6.3.1/../../../../arm-none-eabi/lib/thumb/v7e-m\libg.a(lib_a-writer.o)
 .text          0x00000000        0x0 c:/program files (x86)/atmel/studio/7.0/toolchain/arm/arm-gnu-toolchain/bin/../lib/gcc/arm-none-eabi/6.3.1/../../../../arm-none-eabi/lib/thumb/v7e-m\libg.a(lib_a-__atexit.o)
 .data          0x00000000        0x0 c:/program files (x86)/atmel/studio/7.0/toolchain/arm/arm-gnu-toolchain/bin/../lib/gcc/arm-none-eabi/6.3.1/../../../../arm-none-eabi/lib/thumb/v7e-m\libg.a(lib_a-__atexit.o)
 .bss           0x00000000        0x0 c:/program files (x86)/atmel/studio/7.0/toolchain/arm/arm-gnu-toolchain/bin/../lib/gcc/arm-none-eabi/6.3.1/../../../../arm-none-eabi/lib/thumb/v7e-m\libg.a(lib_a-__atexit.o)
 .text          0x00000000        0x0 c:/program files (x86)/atmel/studio/7.0/toolchain/arm/arm-gnu-toolchain/bin/../lib/gcc/arm-none-eabi/6.3.1/../../../../arm-none-eabi/lib/thumb/v7e-m\libg.a(lib_a-callocr.o)
 .data          0x00000000        0x0 c:/program files (x86)/atmel/studio/7.0/toolchain/arm/arm-gnu-toolchain/bin/../lib/gcc/arm-none-eabi/6.3.1/../../../../arm-none-eabi/lib/thumb/v7e-m\libg.a(lib_a-callocr.o)
 .bss           0x00000000        0x0 c:/program files (x86)/atmel/studio/7.0/toolchain/arm/arm-gnu-toolchain/bin/../lib/gcc/arm-none-eabi/6.3.1/../../../../arm-none-eabi/lib/thumb/v7e-m\libg.a(lib_a-callocr.o)
 .text          0x00000000        0x0 c:/program files (x86)/atmel/studio/7.0/toolchain/arm/arm-gnu-toolchain/bin/../lib/gcc/arm-none-eabi/6.3.1/../../../../arm-none-eabi/lib/thumb/v7e-m\libg.a(lib_a-closer.o)
 .data          0x00000000        0x0 c:/program files (x86)/atmel/studio/7.0/toolchain/arm/arm-gnu-toolchain/bin/../lib/gcc/arm-none-eabi/6.3.1/../../../../arm-none-eabi/lib/thumb/v7e-m\libg.a(lib_a-closer.o)
 .bss           0x00000000        0x0 c:/program files (x86)/atmel/studio/7.0/toolchain/arm/arm-gnu-toolchain/bin/../lib/gcc/arm-none-eabi/6.3.1/../../../../arm-none-eabi/lib/thumb/v7e-m\libg.a(lib_a-closer.o)
 .text          0x00000000        0x0 c:/program files (x86)/atmel/studio/7.0/toolchain/arm/arm-gnu-toolchain/bin/../lib/gcc/arm-none-eabi/6.3.1/../../../../arm-none-eabi/lib/thumb/v7e-m\libg.a(lib_a-fclose.o)
 .data          0x00000000        0x0 c:/program files (x86)/atmel/studio/7.0/toolchain/arm/arm-gnu-toolchain/bin/../lib/gcc/arm-none-eabi/6.3.1/../../../../arm-none-eabi/lib/thumb/v7e-m\libg.a(lib_a-fclose.o)
 .bss           0x00000000        0x0 c:/program files (x86)/atmel/studio/7.0/toolchain/arm/arm-gnu-toolchain/bin/../lib/gcc/arm-none-eabi/6.3.1/../../../../arm-none-eabi/lib/thumb/v7e-m\libg.a(lib_a-fclose.o)
 .text.fclose   0x00000000       0x10 c:/program files (x86)/atmel/studio/7.0/toolchain/arm/arm-gnu-toolchain/bin/../lib/gcc/arm-none-eabi/6.3.1/../../../../arm-none-eabi/lib/thumb/v7e-m\libg.a(lib_a-fclose.o)
 .text          0x00000000        0x0 c:/program files (x86)/atmel/studio/7.0/toolchain/arm/arm-gnu-toolchain/bin/../lib/gcc/arm-none-eabi/6.3.1/../../../../arm-none-eabi/lib/thumb/v7e-m\libg.a(lib_a-fputwc.o)
 .data          0x00000000        0x0 c:/program files (x86)/atmel/studio/7.0/toolchain/arm/arm-gnu-toolchain/bin/../lib/gcc/arm-none-eabi/6.3.1/../../../../arm-none-eabi/lib/thumb/v7e-m\libg.a(lib_a-fputwc.o)
 .bss           0x00000000        0x0 c:/program files (x86)/atmel/studio/7.0/toolchain/arm/arm-gnu-toolchain/bin/../lib/gcc/arm-none-eabi/6.3.1/../../../../arm-none-eabi/lib/thumb/v7e-m\libg.a(lib_a-fputwc.o)
 .text.fputwc   0x00000000       0x28 c:/program files (x86)/atmel/studio/7.0/toolchain/arm/arm-gnu-toolchain/bin/../lib/gcc/arm-none-eabi/6.3.1/../../../../arm-none-eabi/lib/thumb/v7e-m\libg.a(lib_a-fputwc.o)
 .text          0x00000000        0x0 c:/program files (x86)/atmel/studio/7.0/toolchain/arm/arm-gnu-toolchain/bin/../lib/gcc/arm-none-eabi/6.3.1/../../../../arm-none-eabi/lib/thumb/v7e-m\libg.a(lib_a-fstatr.o)
 .data          0x00000000        0x0 c:/program files (x86)/atmel/studio/7.0/toolchain/arm/arm-gnu-toolchain/bin/../lib/gcc/arm-none-eabi/6.3.1/../../../../arm-none-eabi/lib/thumb/v7e-m\libg.a(lib_a-fstatr.o)
 .bss           0x00000000        0x0 c:/program files (x86)/atmel/studio/7.0/toolchain/arm/arm-gnu-toolchain/bin/../lib/gcc/arm-none-eabi/6.3.1/../../../../arm-none-eabi/lib/thumb/v7e-m\libg.a(lib_a-fstatr.o)
 .text          0x00000000        0x0 c:/program files (x86)/atmel/studio/7.0/toolchain/arm/arm-gnu-toolchain/bin/../lib/gcc/arm-none-eabi/6.3.1/../../../../arm-none-eabi/lib/thumb/v7e-m\libg.a(lib_a-fvwrite.o)
 .data          0x00000000        0x0 c:/program files (x86)/atmel/studio/7.0/toolchain/arm/arm-gnu-toolchain/bin/../lib/gcc/arm-none-eabi/6.3.1/../../../../arm-none-eabi/lib/thumb/v7e-m\libg.a(lib_a-fvwrite.o)
 .bss           0x00000000        0x0 c:/program files (x86)/atmel/studio/7.0/toolchain/arm/arm-gnu-toolchain/bin/../lib/gcc/arm-none-eabi/6.3.1/../../../../arm-none-eabi/lib/thumb/v7e-m\libg.a(lib_a-fvwrite.o)
 .text          0x00000000        0x0 c:/program files (x86)/atmel/studio/7.0/toolchain/arm/arm-gnu-toolchain/bin/../lib/gcc/arm-none-eabi/6.3.1/../../../../arm-none-eabi/lib/thumb/v7e-m\libg.a(lib_a-isattyr.o)
 .data          0x00000000        0x0 c:/program files (x86)/atmel/studio/7.0/toolchain/arm/arm-gnu-toolchain/bin/../lib/gcc/arm-none-eabi/6.3.1/../../../../arm-none-eabi/lib/thumb/v7e-m\libg.a(lib_a-isattyr.o)
 .bss           0x00000000        0x0 c:/program files (x86)/atmel/studio/7.0/toolchain/arm/arm-gnu-toolchain/bin/../lib/gcc/arm-none-eabi/6.3.1/../../../../arm-none-eabi/lib/thumb/v7e-m\libg.a(lib_a-isattyr.o)
 .text          0x00000000        0x0 c:/program files (x86)/atmel/studio/7.0/toolchain/arm/arm-gnu-toolchain/bin/../lib/gcc/arm-none-eabi/6.3.1/../../../../arm-none-eabi/lib/thumb/v7e-m\libg.a(lib_a-locale.o)
 .data          0x00000000        0x0 c:/program files (x86)/atmel/studio/7.0/toolchain/arm/arm-gnu-toolchain/bin/../lib/gcc/arm-none-eabi/6.3.1/../../../../arm-none-eabi/lib/thumb/v7e-m\libg.a(lib_a-locale.o)
 .bss           0x00000000        0x0 c:/program files (x86)/atmel/studio/7.0/toolchain/arm/arm-gnu-toolchain/bin/../lib/gcc/arm-none-eabi/6.3.1/../../../../arm-none-eabi/lib/thumb/v7e-m\libg.a(lib_a-locale.o)
 .text._setlocale_r
                0x00000000       0x40 c:/program files (x86)/atmel/studio/7.0/toolchain/arm/arm-gnu-toolchain/bin/../lib/gcc/arm-none-eabi/6.3.1/../../../../arm-none-eabi/lib/thumb/v7e-m\libg.a(lib_a-locale.o)
 .text.__locale_ctype_ptr_l
                0x00000000        0x8 c:/program files (x86)/atmel/studio/7.0/toolchain/arm/arm-gnu-toolchain/bin/../lib/gcc/arm-none-eabi/6.3.1/../../../../arm-none-eabi/lib/thumb/v7e-m\libg.a(lib_a-locale.o)
 .text.__locale_ctype_ptr
                0x00000000       0x1c c:/program files (x86)/atmel/studio/7.0/toolchain/arm/arm-gnu-toolchain/bin/../lib/gcc/arm-none-eabi/6.3.1/../../../../arm-none-eabi/lib/thumb/v7e-m\libg.a(lib_a-locale.o)
 .text.setlocale
                0x00000000       0x10 c:/program files (x86)/atmel/studio/7.0/toolchain/arm/arm-gnu-toolchain/bin/../lib/gcc/arm-none-eabi/6.3.1/../../../../arm-none-eabi/lib/thumb/v7e-m\libg.a(lib_a-locale.o)
 .bss._PathLocale
                0x00000000        0x4 c:/program files (x86)/atmel/studio/7.0/toolchain/arm/arm-gnu-toolchain/bin/../lib/gcc/arm-none-eabi/6.3.1/../../../../arm-none-eabi/lib/thumb/v7e-m\libg.a(lib_a-locale.o)
 .text          0x00000000        0x0 c:/program files (x86)/atmel/studio/7.0/toolchain/arm/arm-gnu-toolchain/bin/../lib/gcc/arm-none-eabi/6.3.1/../../../../arm-none-eabi/lib/thumb/v7e-m\libg.a(lib_a-lseekr.o)
 .data          0x00000000        0x0 c:/program files (x86)/atmel/studio/7.0/toolchain/arm/arm-gnu-toolchain/bin/../lib/gcc/arm-none-eabi/6.3.1/../../../../arm-none-eabi/lib/thumb/v7e-m\libg.a(lib_a-lseekr.o)
 .bss           0x00000000        0x0 c:/program files (x86)/atmel/studio/7.0/toolchain/arm/arm-gnu-toolchain/bin/../lib/gcc/arm-none-eabi/6.3.1/../../../../arm-none-eabi/lib/thumb/v7e-m\libg.a(lib_a-lseekr.o)
 .text          0x00000000        0x0 c:/program files (x86)/atmel/studio/7.0/toolchain/arm/arm-gnu-toolchain/bin/../lib/gcc/arm-none-eabi/6.3.1/../../../../arm-none-eabi/lib/thumb/v7e-m\libg.a(lib_a-mbtowc_r.o)
 .data          0x00000000        0x0 c:/program files (x86)/atmel/studio/7.0/toolchain/arm/arm-gnu-toolchain/bin/../lib/gcc/arm-none-eabi/6.3.1/../../../../arm-none-eabi/lib/thumb/v7e-m\libg.a(lib_a-mbtowc_r.o)
 .bss           0x00000000        0x0 c:/program files (x86)/atmel/studio/7.0/toolchain/arm/arm-gnu-toolchain/bin/../lib/gcc/arm-none-eabi/6.3.1/../../../../arm-none-eabi/lib/thumb/v7e-m\libg.a(lib_a-mbtowc_r.o)
 .text._mbtowc_r
                0x00000000       0x24 c:/program files (x86)/atmel/studio/7.0/toolchain/arm/arm-gnu-toolchain/bin/../lib/gcc/arm-none-eabi/6.3.1/../../../../arm-none-eabi/lib/thumb/v7e-m\libg.a(lib_a-mbtowc_r.o)
 .text          0x00000000        0x0 c:/program files (x86)/atmel/studio/7.0/toolchain/arm/arm-gnu-toolchain/bin/../lib/gcc/arm-none-eabi/6.3.1/../../../../arm-none-eabi/lib/thumb/v7e-m\libg.a(lib_a-memmove.o)
 .data          0x00000000        0x0 c:/program files (x86)/atmel/studio/7.0/toolchain/arm/arm-gnu-toolchain/bin/../lib/gcc/arm-none-eabi/6.3.1/../../../../arm-none-eabi/lib/thumb/v7e-m\libg.a(lib_a-memmove.o)
 .bss           0x00000000        0x0 c:/program files (x86)/atmel/studio/7.0/toolchain/arm/arm-gnu-toolchain/bin/../lib/gcc/arm-none-eabi/6.3.1/../../../../arm-none-eabi/lib/thumb/v7e-m\libg.a(lib_a-memmove.o)
 .text          0x00000000        0x0 c:/program files (x86)/atmel/studio/7.0/toolchain/arm/arm-gnu-toolchain/bin/../lib/gcc/arm-none-eabi/6.3.1/../../../../arm-none-eabi/lib/thumb/v7e-m\libg.a(lib_a-readr.o)
 .data          0x00000000        0x0 c:/program files (x86)/atmel/studio/7.0/toolchain/arm/arm-gnu-toolchain/bin/../lib/gcc/arm-none-eabi/6.3.1/../../../../arm-none-eabi/lib/thumb/v7e-m\libg.a(lib_a-readr.o)
 .bss           0x00000000        0x0 c:/program files (x86)/atmel/studio/7.0/toolchain/arm/arm-gnu-toolchain/bin/../lib/gcc/arm-none-eabi/6.3.1/../../../../arm-none-eabi/lib/thumb/v7e-m\libg.a(lib_a-readr.o)
 .text          0x00000000        0x0 c:/program files (x86)/atmel/studio/7.0/toolchain/arm/arm-gnu-toolchain/bin/../lib/gcc/arm-none-eabi/6.3.1/../../../../arm-none-eabi/lib/thumb/v7e-m\libg.a(lib_a-reallocr.o)
 .data          0x00000000        0x0 c:/program files (x86)/atmel/studio/7.0/toolchain/arm/arm-gnu-toolchain/bin/../lib/gcc/arm-none-eabi/6.3.1/../../../../arm-none-eabi/lib/thumb/v7e-m\libg.a(lib_a-reallocr.o)
 .bss           0x00000000        0x0 c:/program files (x86)/atmel/studio/7.0/toolchain/arm/arm-gnu-toolchain/bin/../lib/gcc/arm-none-eabi/6.3.1/../../../../arm-none-eabi/lib/thumb/v7e-m\libg.a(lib_a-reallocr.o)
 .text          0x00000000        0x0 c:/program files (x86)/atmel/studio/7.0/toolchain/arm/arm-gnu-toolchain/bin/../lib/gcc/arm-none-eabi/6.3.1/../../../../arm-none-eabi/lib/thumb/v7e-m\libg.a(lib_a-reent.o)
 .data          0x00000000        0x0 c:/program files (x86)/atmel/studio/7.0/toolchain/arm/arm-gnu-toolchain/bin/../lib/gcc/arm-none-eabi/6.3.1/../../../../arm-none-eabi/lib/thumb/v7e-m\libg.a(lib_a-reent.o)
 .bss           0x00000000        0x0 c:/program files (x86)/atmel/studio/7.0/toolchain/arm/arm-gnu-toolchain/bin/../lib/gcc/arm-none-eabi/6.3.1/../../../../arm-none-eabi/lib/thumb/v7e-m\libg.a(lib_a-reent.o)
 .text.cleanup_glue
                0x00000000       0x1c c:/program files (x86)/atmel/studio/7.0/toolchain/arm/arm-gnu-toolchain/bin/../lib/gcc/arm-none-eabi/6.3.1/../../../../arm-none-eabi/lib/thumb/v7e-m\libg.a(lib_a-reent.o)
 .text._reclaim_reent
                0x00000000       0x88 c:/program files (x86)/atmel/studio/7.0/toolchain/arm/arm-gnu-toolchain/bin/../lib/gcc/arm-none-eabi/6.3.1/../../../../arm-none-eabi/lib/thumb/v7e-m\libg.a(lib_a-reent.o)
 .text          0x00000000      0x2dc c:/program files (x86)/atmel/studio/7.0/toolchain/arm/arm-gnu-toolchain/bin/../lib/gcc/arm-none-eabi/6.3.1/../../../../arm-none-eabi/lib/thumb/v7e-m\libg.a(lib_a-strcmp.o)
 .data          0x00000000        0x0 c:/program files (x86)/atmel/studio/7.0/toolchain/arm/arm-gnu-toolchain/bin/../lib/gcc/arm-none-eabi/6.3.1/../../../../arm-none-eabi/lib/thumb/v7e-m\libg.a(lib_a-strcmp.o)
 .bss           0x00000000        0x0 c:/program files (x86)/atmel/studio/7.0/toolchain/arm/arm-gnu-toolchain/bin/../lib/gcc/arm-none-eabi/6.3.1/../../../../arm-none-eabi/lib/thumb/v7e-m\libg.a(lib_a-strcmp.o)
 .debug_frame   0x00000000       0x68 c:/program files (x86)/atmel/studio/7.0/toolchain/arm/arm-gnu-toolchain/bin/../lib/gcc/arm-none-eabi/6.3.1/../../../../arm-none-eabi/lib/thumb/v7e-m\libg.a(lib_a-strcmp.o)
 .ARM.attributes
                0x00000000       0x1c c:/program files (x86)/atmel/studio/7.0/toolchain/arm/arm-gnu-toolchain/bin/../lib/gcc/arm-none-eabi/6.3.1/../../../../arm-none-eabi/lib/thumb/v7e-m\libg.a(lib_a-strcmp.o)
 .text          0x00000000        0x0 c:/program files (x86)/atmel/studio/7.0/toolchain/arm/arm-gnu-toolchain/bin/../lib/gcc/arm-none-eabi/6.3.1/../../../../arm-none-eabi/lib/thumb/v7e-m\libg.a(lib_a-wbuf.o)
 .data          0x00000000        0x0 c:/program files (x86)/atmel/studio/7.0/toolchain/arm/arm-gnu-toolchain/bin/../lib/gcc/arm-none-eabi/6.3.1/../../../../arm-none-eabi/lib/thumb/v7e-m\libg.a(lib_a-wbuf.o)
 .bss           0x00000000        0x0 c:/program files (x86)/atmel/studio/7.0/toolchain/arm/arm-gnu-toolchain/bin/../lib/gcc/arm-none-eabi/6.3.1/../../../../arm-none-eabi/lib/thumb/v7e-m\libg.a(lib_a-wbuf.o)
 .text.__swbuf  0x00000000       0x10 c:/program files (x86)/atmel/studio/7.0/toolchain/arm/arm-gnu-toolchain/bin/../lib/gcc/arm-none-eabi/6.3.1/../../../../arm-none-eabi/lib/thumb/v7e-m\libg.a(lib_a-wbuf.o)
 .text          0x00000000        0x0 c:/program files (x86)/atmel/studio/7.0/toolchain/arm/arm-gnu-toolchain/bin/../lib/gcc/arm-none-eabi/6.3.1/../../../../arm-none-eabi/lib/thumb/v7e-m\libg.a(lib_a-wcrtomb.o)
 .data          0x00000000        0x0 c:/program files (x86)/atmel/studio/7.0/toolchain/arm/arm-gnu-toolchain/bin/../lib/gcc/arm-none-eabi/6.3.1/../../../../arm-none-eabi/lib/thumb/v7e-m\libg.a(lib_a-wcrtomb.o)
 .bss           0x00000000        0x0 c:/program files (x86)/atmel/studio/7.0/toolchain/arm/arm-gnu-toolchain/bin/../lib/gcc/arm-none-eabi/6.3.1/../../../../arm-none-eabi/lib/thumb/v7e-m\libg.a(lib_a-wcrtomb.o)
 .text.wcrtomb  0x00000000       0x4c c:/program files (x86)/atmel/studio/7.0/toolchain/arm/arm-gnu-toolchain/bin/../lib/gcc/arm-none-eabi/6.3.1/../../../../arm-none-eabi/lib/thumb/v7e-m\libg.a(lib_a-wcrtomb.o)
 .text          0x00000000        0x0 c:/program files (x86)/atmel/studio/7.0/toolchain/arm/arm-gnu-toolchain/bin/../lib/gcc/arm-none-eabi/6.3.1/../../../../arm-none-eabi/lib/thumb/v7e-m\libg.a(lib_a-wctomb_r.o)
 .data          0x00000000        0x0 c:/program files (x86)/atmel/studio/7.0/toolchain/arm/arm-gnu-toolchain/bin/../lib/gcc/arm-none-eabi/6.3.1/../../../../arm-none-eabi/lib/thumb/v7e-m\libg.a(lib_a-wctomb_r.o)
 .bss           0x00000000        0x0 c:/program files (x86)/atmel/studio/7.0/toolchain/arm/arm-gnu-toolchain/bin/../lib/gcc/arm-none-eabi/6.3.1/../../../../arm-none-eabi/lib/thumb/v7e-m\libg.a(lib_a-wctomb_r.o)
 .text._wctomb_r
                0x00000000       0x24 c:/program files (x86)/atmel/studio/7.0/toolchain/arm/arm-gnu-toolchain/bin/../lib/gcc/arm-none-eabi/6.3.1/../../../../arm-none-eabi/lib/thumb/v7e-m\libg.a(lib_a-wctomb_r.o)
 .text          0x00000000        0x0 c:/program files (x86)/atmel/studio/7.0/toolchain/arm/arm-gnu-toolchain/bin/../lib/gcc/arm-none-eabi/6.3.1/../../../../arm-none-eabi/lib/thumb/v7e-m\libg.a(lib_a-ctype_.o)
 .data          0x00000000        0x0 c:/program files (x86)/atmel/studio/7.0/toolchain/arm/arm-gnu-toolchain/bin/../lib/gcc/arm-none-eabi/6.3.1/../../../../arm-none-eabi/lib/thumb/v7e-m\libg.a(lib_a-ctype_.o)
 .bss           0x00000000        0x0 c:/program files (x86)/atmel/studio/7.0/toolchain/arm/arm-gnu-toolchain/bin/../lib/gcc/arm-none-eabi/6.3.1/../../../../arm-none-eabi/lib/thumb/v7e-m\libg.a(lib_a-ctype_.o)
 .data          0x00000000        0x0 c:/program files (x86)/atmel/studio/7.0/toolchain/arm/arm-gnu-toolchain/bin/../lib/gcc/arm-none-eabi/6.3.1/thumb/v7e-m\libgcc.a(_arm_addsubdf3.o)
 .bss           0x00000000        0x0 c:/program files (x86)/atmel/studio/7.0/toolchain/arm/arm-gnu-toolchain/bin/../lib/gcc/arm-none-eabi/6.3.1/thumb/v7e-m\libgcc.a(_arm_addsubdf3.o)
 .data          0x00000000        0x0 c:/program files (x86)/atmel/studio/7.0/toolchain/arm/arm-gnu-toolchain/bin/../lib/gcc/arm-none-eabi/6.3.1/thumb/v7e-m\libgcc.a(_arm_muldivdf3.o)
 .bss           0x00000000        0x0 c:/program files (x86)/atmel/studio/7.0/toolchain/arm/arm-gnu-toolchain/bin/../lib/gcc/arm-none-eabi/6.3.1/thumb/v7e-m\libgcc.a(_arm_muldivdf3.o)
 .data          0x00000000        0x0 c:/program files (x86)/atmel/studio/7.0/toolchain/arm/arm-gnu-toolchain/bin/../lib/gcc/arm-none-eabi/6.3.1/thumb/v7e-m\libgcc.a(_arm_cmpdf2.o)
 .bss           0x00000000        0x0 c:/program files (x86)/atmel/studio/7.0/toolchain/arm/arm-gnu-toolchain/bin/../lib/gcc/arm-none-eabi/6.3.1/thumb/v7e-m\libgcc.a(_arm_cmpdf2.o)
 .data          0x00000000        0x0 c:/program files (x86)/atmel/studio/7.0/toolchain/arm/arm-gnu-toolchain/bin/../lib/gcc/arm-none-eabi/6.3.1/thumb/v7e-m\libgcc.a(_arm_unorddf2.o)
 .bss           0x00000000        0x0 c:/program files (x86)/atmel/studio/7.0/toolchain/arm/arm-gnu-toolchain/bin/../lib/gcc/arm-none-eabi/6.3.1/thumb/v7e-m\libgcc.a(_arm_unorddf2.o)
 .data          0x00000000        0x0 c:/program files (x86)/atmel/studio/7.0/toolchain/arm/arm-gnu-toolchain/bin/../lib/gcc/arm-none-eabi/6.3.1/thumb/v7e-m\libgcc.a(_arm_fixdfsi.o)
 .bss           0x00000000        0x0 c:/program files (x86)/atmel/studio/7.0/toolchain/arm/arm-gnu-toolchain/bin/../lib/gcc/arm-none-eabi/6.3.1/thumb/v7e-m\libgcc.a(_arm_fixdfsi.o)
 .data          0x00000000        0x0 c:/program files (x86)/atmel/studio/7.0/toolchain/arm/arm-gnu-toolchain/bin/../lib/gcc/arm-none-eabi/6.3.1/thumb/v7e-m\libgcc.a(_aeabi_uldivmod.o)
 .bss           0x00000000        0x0 c:/program files (x86)/atmel/studio/7.0/toolchain/arm/arm-gnu-toolchain/bin/../lib/gcc/arm-none-eabi/6.3.1/thumb/v7e-m\libgcc.a(_aeabi_uldivmod.o)
 .data          0x00000000        0x0 c:/program files (x86)/atmel/studio/7.0/toolchain/arm/arm-gnu-toolchain/bin/../lib/gcc/arm-none-eabi/6.3.1/thumb/v7e-m\libgcc.a(_udivmoddi4.o)
 .bss           0x00000000        0x0 c:/program files (x86)/atmel/studio/7.0/toolchain/arm/arm-gnu-toolchain/bin/../lib/gcc/arm-none-eabi/6.3.1/thumb/v7e-m\libgcc.a(_udivmoddi4.o)
 .ARM.extab     0x00000000        0x0 c:/program files (x86)/atmel/studio/7.0/toolchain/arm/arm-gnu-toolchain/bin/../lib/gcc/arm-none-eabi/6.3.1/thumb/v7e-m\libgcc.a(_udivmoddi4.o)
 .data          0x00000000        0x0 c:/program files (x86)/atmel/studio/7.0/toolchain/arm/arm-gnu-toolchain/bin/../lib/gcc/arm-none-eabi/6.3.1/thumb/v7e-m\libgcc.a(_dvmd_tls.o)
 .bss           0x00000000        0x0 c:/program files (x86)/atmel/studio/7.0/toolchain/arm/arm-gnu-toolchain/bin/../lib/gcc/arm-none-eabi/6.3.1/thumb/v7e-m\libgcc.a(_dvmd_tls.o)
 .text          0x00000000        0x0 c:/program files (x86)/atmel/studio/7.0/toolchain/arm/arm-gnu-toolchain/bin/../lib/gcc/arm-none-eabi/6.3.1/thumb/v7e-m/crtend.o
 .data          0x00000000        0x0 c:/program files (x86)/atmel/studio/7.0/toolchain/arm/arm-gnu-toolchain/bin/../lib/gcc/arm-none-eabi/6.3.1/thumb/v7e-m/crtend.o
 .bss           0x00000000        0x0 c:/program files (x86)/atmel/studio/7.0/toolchain/arm/arm-gnu-toolchain/bin/../lib/gcc/arm-none-eabi/6.3.1/thumb/v7e-m/crtend.o
 .eh_frame      0x00000000        0x4 c:/program files (x86)/atmel/studio/7.0/toolchain/arm/arm-gnu-toolchain/bin/../lib/gcc/arm-none-eabi/6.3.1/thumb/v7e-m/crtend.o
 .jcr           0x00000000        0x4 c:/program files (x86)/atmel/studio/7.0/toolchain/arm/arm-gnu-toolchain/bin/../lib/gcc/arm-none-eabi/6.3.1/thumb/v7e-m/crtend.o
 .ARM.attributes
                0x00000000       0x2e c:/program files (x86)/atmel/studio/7.0/toolchain/arm/arm-gnu-toolchain/bin/../lib/gcc/arm-none-eabi/6.3.1/thumb/v7e-m/crtend.o
 .text          0x00000000        0x0 c:/program files (x86)/atmel/studio/7.0/toolchain/arm/arm-gnu-toolchain/bin/../lib/gcc/arm-none-eabi/6.3.1/thumb/v7e-m/crtn.o
 .data          0x00000000        0x0 c:/program files (x86)/atmel/studio/7.0/toolchain/arm/arm-gnu-toolchain/bin/../lib/gcc/arm-none-eabi/6.3.1/thumb/v7e-m/crtn.o
 .bss           0x00000000        0x0 c:/program files (x86)/atmel/studio/7.0/toolchain/arm/arm-gnu-toolchain/bin/../lib/gcc/arm-none-eabi/6.3.1/thumb/v7e-m/crtn.o

Memory Configuration

Name             Origin             Length             Attributes
rom              0x00004000         0x0003c000         xr
ram              0x20000000         0x00008000         xrw
*default*        0x00000000         0xffffffff

Linker script and memory map

LOAD c:/program files (x86)/atmel/studio/7.0/toolchain/arm/arm-gnu-toolchain/bin/../lib/gcc/arm-none-eabi/6.3.1/thumb/v7e-m/crti.o
LOAD c:/program files (x86)/atmel/studio/7.0/toolchain/arm/arm-gnu-toolchain/bin/../lib/gcc/arm-none-eabi/6.3.1/thumb/v7e-m/crtbegin.o
LOAD c:/program files (x86)/atmel/studio/7.0/toolchain/arm/arm-gnu-toolchain/bin/../lib/gcc/arm-none-eabi/6.3.1/../../../../arm-none-eabi/lib/thumb/v7e-m/crt0.o
LOAD TC_lldn.o
LOAD ../../../stack/LwMesh/TDMA/nwk/src/nwk.o
LOAD ../../../stack/LwMesh/TDMA/nwk/src/nwkDataReq.o
LOAD ../../../stack/LwMesh/TDMA/nwk/src/nwkFrame.o
LOAD ../../../stack/LwMesh/TDMA/nwk/src/nwkGroup.o
LOAD ../../../stack/LwMesh/TDMA/nwk/src/nwkRoute.o
LOAD ../../../stack/LwMesh/TDMA/nwk/src/nwkRouteDiscovery.o
LOAD ../../../stack/LwMesh/TDMA/nwk/src/nwkRx.o
LOAD ../../../stack/LwMesh/TDMA/nwk/src/nwkSecurity.o
LOAD ../../../stack/LwMesh/TDMA/nwk/src/nwkTx.o
LOAD ../../../stack/LwMesh/TDMA/phy/AT86RF233/src/phy.o
LOAD ../../../stack/LwMesh/TDMA/sys/src/sys.o
LOAD ../../../stack/LwMesh/TDMA/sys/src/sysEncrypt.o
LOAD ../../../stack/LwMesh/TDMA/sys/src/sysTimer.o
LOAD ../../../stack/LwMesh/TDMA/services/common_hw_timer/sam/hw_timer.o
LOAD ../../../stack/LwMesh/TDMA/services/sal/at86rf2xx/src/sal.o
LOAD ../../../stack/LwMesh/TDMA/services/sleep_mgr/sam4l/sleep_mgr.o
LOAD ../../../stack/LwMesh/TDMA/services/trx_access/trx_access.o
LOAD ../../../platform/sam/utils/cmsis/sam4l/source/templates/system_sam4l.o
LOAD ../../../platform/sam/utils/cmsis/sam4l/source/templates/exceptions.o
LOAD ../../../platform/sam/utils/cmsis/sam4l/source/templates/gcc/startup_sam4l.o
LOAD ../../../platform/sam/utils/syscalls/gcc/syscalls.o
LOAD ../../../platform/sam/utils/syscalls/gcc/hardfault_handler_c.o
LOAD ../../../platform/sam/drivers/ast/ast.o
LOAD ../../../platform/sam/drivers/bpm/bpm.o
LOAD ../../../platform/sam/drivers/flashcalw/flashcalw.o
LOAD ../../../platform/sam/drivers/gpio/gpio.o
LOAD ../../../platform/sam/drivers/eic/eic.o
LOAD ../../../platform/sam/drivers/spi/spi.o
LOAD ../../../platform/sam/drivers/tc/tc.o
LOAD ../../../platform/sam/drivers/usbc/usbc_device.o
LOAD ../../../platform/sam/drivers/usart/usart.o
LOAD ../../../platform/sam/drivers/wdt/wdt_sam4l.o
LOAD ../../../platform/common/services/clock/sam4l/sysclk.o
LOAD ../../../platform/common/services/clock/sam4l/dfll.o
LOAD ../../../platform/common/services/clock/sam4l/osc.o
LOAD ../../../platform/common/services/clock/sam4l/pll.o
LOAD ../../../platform/common/services/delay/sam/cycle_counter.o
LOAD ../../../platform/common/services/serial/usart_serial.o
LOAD ../../../platform/common/services/spi/sam_spi/spi_master.o
LOAD ../../../platform/common/services/spi/sam_usart_spi/usart_spi.o
LOAD ../../../platform/common/services/sleepmgr/sam/sleepmgr.o
LOAD ../../../platform/common/services/usb/udc/udc.o
LOAD ../../../platform/common/services/usb/class/cdc/device/udi_cdc.o
LOAD ../../../platform/common/services/usb/class/cdc/device/udi_cdc_desc.o
LOAD ../../../platform/common/utils/interrupt\interrupt_sam_nvic.o
LOAD ../../../platform/common/utils/stdio/read.o
LOAD ../../../platform/common/utils/stdio/write.o
LOAD ../../../platform/common/utils/stdio/stdio_usb/stdio_usb.o
LOAD ../../../platform/thirdparty/wireless/addons/sio2host/usb/sio2host.o
LOAD ../../../board/WM400/src/board_init.o
LOAD ../../../platform/resources/buffer/src/bmm.o
LOAD ../../../platform/resources/queue/src/qmm.o
LOAD ../../../platform/sam/utils/syscalls/gcc/hardfault_handler.o
START GROUP
LOAD ../../../stack/LwMesh/TDMA/services/common_hw_timer/sam/lib\libsam4l_lib_hw_timer.a
END GROUP
START GROUP
LOAD ../../../platform/thirdparty/CMSIS/Lib/GCC\libarm_cortexM4l_math.a
LOAD c:/program files (x86)/atmel/studio/7.0/toolchain/arm/arm-gnu-toolchain/bin/../lib/gcc/arm-none-eabi/6.3.1/../../../../arm-none-eabi/lib/thumb/v7e-m\libm.a
END GROUP
                0x00001000                __stack_size__ = DEFINED (__stack_size__)?__stack_size__:0x1000
                0x20007ffc                __ram_end__ = ((ORIGIN (ram) + LENGTH (ram)) - 0x4)

.text           0x00004000    0x13834
                0x00004000                . = ALIGN (0x4)
                0x00004000                _sfixed = .
 *(.vectors .vectors.*)
 .vectors       0x00004000      0x180 ../../../platform/sam/utils/cmsis/sam4l/source/templates/gcc/startup_sam4l.o
                0x00004000                exception_table
 *(.text .text.* .gnu.linkonce.t.*)
 .text          0x00004180       0x6c c:/program files (x86)/atmel/studio/7.0/toolchain/arm/arm-gnu-toolchain/bin/../lib/gcc/arm-none-eabi/6.3.1/thumb/v7e-m/crtbegin.o
 .text          0x000041ec      0x930 TC_lldn.o
                0x00004808                hw_expiry_cb
                0x00004820                hw_overflow_cb
                0x00004838                timer_stop
                0x00004850                tc_delay
                0x0000487c                timer_init
                0x000049e0                timer_enable_cc_interrupt
                0x00004a08                tc_compare_stop
                0x00004a30                TC10_Handler
                0x00004a58                APP_TaskHandler
                0x00004aa0                main
 .text          0x00004b1c      0x1e4 ../../../stack/LwMesh/TDMA/nwk/src/nwk.o
                0x00004b1c                NWK_Init
                0x00004b90                NWK_SetAddr
                0x00004bb8                NWK_SetPanId
                0x00004be0                NWK_OpenEndpoint
                0x00004c08                NWK_Busy
                0x00004c28                NWK_Lock
                0x00004c48                NWK_Unlock
                0x00004c68                NWK_SleepReq
                0x00004c78                NWK_WakeupReq
                0x00004c88                NWK_LinearizeLqi
                0x00004ce0                NWK_TaskHandler
 .text          0x00004d00      0x594 ../../../stack/LwMesh/TDMA/nwk/src/nwkDataReq.o
                0x00004d00                nwkDataReqInit
                0x00004d18                NWK_DataReq
                0x0000524c                nwkDataReqTaskHandler
 .text          0x00005294      0x26c ../../../stack/LwMesh/TDMA/nwk/src/nwkFrame.o
                0x00005294                nwkFrameInit
                0x000052cc                nwkFrameAlloc
                0x00005374                nwkFrameAlloc_LLDN
                0x0000544c                nwkFrameFree
                0x00005478                nwkFrameNext
                0x000054c4                nwkFrameCommandInit
 .text          0x00005500      0x104 ../../../stack/LwMesh/TDMA/nwk/src/nwkGroup.o
                0x00005500                nwkGroupInit
                0x00005534                NWK_GroupAdd
                0x00005554                NWK_GroupRemove
                0x00005574                NWK_GroupIsMember
 .text          0x00005604      0xb90 ../../../stack/LwMesh/TDMA/nwk/src/nwkRx.o
                0x0000562e                nwkRxInit
                0x00005690                PHY_DataInd
                0x000058ac                NWK_SetAckControl
                0x000060fc                nwkRxTaskHandler
 .text          0x00006194      0x6d8 ../../../stack/LwMesh/TDMA/nwk/src/nwkTx.o
                0x00006194                nwkTxInit
                0x000061e0                nwkTxBeaconFrame
                0x00006250                nwkTxBeaconFrameLLDN
                0x000062cc                nwkTxMacCommandFrameLLDN
                0x00006378                nwkTxFrame
                0x0000646c                nwkTxBroadcastFrame
                0x00006550                nwkTxAckReceived
                0x00006624                nwkTxConfirm
                0x000066e4                PHY_DataConf
                0x00006730                nwkTxTaskHandler
 .text          0x0000686c      0x684 ../../../stack/LwMesh/TDMA/phy/AT86RF233/src/phy.o
                0x000068f2                PHY_Init
                0x00006978                PHY_SetTdmaMode
                0x000069ce                PHY_SetRxState
                0x000069f0                PHY_SetChannel
                0x00006a20                PHY_SetPanId
                0x00006a50                PHY_SetShortAddr
                0x00006a96                PHY_SetTxPower
                0x00006ac6                PHY_Sleep
                0x00006b30                PHY_Wakeup
                0x00006b50                PHY_DataReq
                0x00006bb0                PHY_RandomReq
                0x00006c10                PHY_EncryptReq
                0x00006c48                PHY_EdReq
                0x00006db4                PHY_SetIEEEAddr
                0x00006df8                PHY_TaskHandler
 .text          0x00006ef0       0x48 ../../../stack/LwMesh/TDMA/sys/src/sys.o
                0x00006ef0                SYS_Init
                0x00006f18                SYS_TaskHandler
 .text          0x00006f38      0x30c ../../../stack/LwMesh/TDMA/sys/src/sysTimer.o
                0x00006fbc                SYS_TimerInit
                0x00006ffc                SYS_TimerStart
                0x00007024                SYS_TimerStop
                0x00007098                SYS_TimerStarted
                0x000070d0                SYS_TimerTaskHandler
                0x0000721c                SYS_HwExpiry_Cb
 .text          0x00007244      0x3a4 ../../../stack/LwMesh/TDMA/services/common_hw_timer/sam/hw_timer.o
                0x000072f8                tmr_read_count
                0x00007314                save_cpu_interrupt
                0x00007324                restore_cpu_interrupt
                0x0000733e                tmr_stop
                0x00007358                tmr_write_cmpreg
                0x00007380                tmr_init
                0x00007400                tmr_disable_cc_interrupt
                0x00007428                tmr_enable_cc_interrupt
                0x00007450                tmr_disable_ovf_interrupt
                0x0000755c                TC00_Handler
                0x00007578                TC01_Handler
                0x00007594                TC02_Handler
                0x000075b0                TC11_Handler
                0x000075cc                TC12_Handler
 .text          0x000075e8      0x2c8 ../../../stack/LwMesh/TDMA/services/sal/at86rf2xx/src/sal.o
                0x000075e8                sal_init
                0x000075f4                sal_aes_setup
                0x00007794                sal_aes_restart
                0x00007804                _sal_aes_clean_up
                0x00007810                sal_aes_wrrd
                0x00007890                sal_aes_read
 .text          0x000078b0      0x458 ../../../stack/LwMesh/TDMA/services/sleep_mgr/sam4l/sleep_mgr.o
                0x00007c74                sm_init
                0x00007cb4                sm_sleep
 .text          0x00007d08      0x930 ../../../stack/LwMesh/TDMA/services/trx_access/trx_access.o
                0x00008064                GPIO_2_Handler
                0x000080b4                trx_spi_init
                0x00008168                PhyReset
                0x000081a4                trx_reg_read
                0x00008218                trx_reg_write
                0x00008288                trx_irq_init
                0x000082a4                trx_bit_read
                0x000082de                trx_bit_write
                0x00008348                trx_frame_read
                0x000083b4                trx_frame_write
                0x0000841c                trx_sram_write
                0x000084b0                trx_sram_read
                0x00008550                trx_aes_wrrd
 .text          0x00008638        0x6 ../../../platform/sam/utils/cmsis/sam4l/source/templates/exceptions.o
                0x00008638                DACC_Handler
                0x00008638                DebugMon_Handler
                0x00008638                TRNG_Handler
                0x00008638                SPI_Handler
                0x00008638                SysTick_Handler
                0x00008638                PDCA_10_Handler
                0x00008638                USART3_Handler
                0x00008638                AST_PER_Handler
                0x00008638                AST_CLKREADY_Handler
                0x00008638                AST_OVF_Handler
                0x00008638                PDCA_5_Handler
                0x00008638                PendSV_Handler
                0x00008638                SCIF_Handler
                0x00008638                PDCA_15_Handler
                0x00008638                CRCCU_Handler
                0x00008638                USART0_Handler
                0x00008638                TWIM3_Handler
                0x00008638                UsageFault_Handler
                0x00008638                PDCA_0_Handler
                0x00008638                PDCA_14_Handler
                0x00008638                BPM_Handler
                0x00008638                PARC_Handler
                0x00008638                WDT_Handler
                0x00008638                TWIS0_Handler
                0x00008638                PDCA_8_Handler
                0x00008638                TWIS1_Handler
                0x00008638                TWIM2_Handler
                0x00008638                AESA_Handler
                0x00008638                PDCA_13_Handler
                0x00008638                Dummy_Handler
                0x00008638                PDCA_3_Handler
                0x00008638                ABDACB_Handler
                0x00008638                CATB_Handler
                0x00008638                LCDCA_Handler
                0x00008638                USART1_Handler
                0x00008638                AST_READY_Handler
                0x00008638                PDCA_2_Handler
                0x00008638                AST_ALARM_Handler
                0x00008638                TWIM0_Handler
                0x00008638                PM_Handler
                0x00008638                PDCA_1_Handler
                0x00008638                PDCA_11_Handler
                0x00008638                ACIFC_Handler
                0x00008638                PDCA_6_Handler
                0x00008638                MemManage_Handler
                0x00008638                SVC_Handler
                0x00008638                PDCA_12_Handler
                0x00008638                PDCA_9_Handler
                0x00008638                ADCIFE_Handler
                0x00008638                PDCA_7_Handler
                0x00008638                PEVC_TR_Handler
                0x00008638                USART2_Handler
                0x00008638                TWIM1_Handler
                0x00008638                HFLASHC_Handler
                0x00008638                BSCIF_Handler
                0x00008638                IISC_Handler
                0x00008638                BusFault_Handler
                0x00008638                FREQM_Handler
                0x00008638                PDCA_4_Handler
                0x00008638                PEVC_OV_Handler
 *fill*         0x0000863e        0x2 
 .text          0x00008640       0x84 ../../../platform/sam/utils/cmsis/sam4l/source/templates/gcc/startup_sam4l.o
                0x00008640                Reset_Handler
 .text          0x000086c4      0x110 ../../../platform/sam/utils/syscalls/gcc/syscalls.o
                0x000086c4                _sbrk
                0x0000871c                link
                0x00008734                _close
                0x0000874a                _fstat
                0x00008768                _isatty
                0x0000877c                _lseek
                0x00008794                _exit
                0x000087b0                _kill
                0x000087c4                _getpid
 .text          0x000087d4       0x6c ../../../platform/sam/utils/syscalls/gcc/hardfault_handler_c.o
                0x000087d4                HardFault_Handler_C
 .text          0x00008840      0xa24 ../../../platform/sam/drivers/ast/ast.o
                0x00008a24                ast_is_enabled
                0x00008a54                ast_enable
                0x00008a74                ast_disable
                0x00008abc                ast_enable_counter_clear_on_alarm
                0x00008b04                ast_clear_prescalar
                0x00008b3c                ast_set_config
                0x00008c5a                ast_configure_digital_tuner
                0x00008d64                ast_init_digital_tuner
                0x00008dd2                ast_disable_digital_tuner
                0x00008e0a                ast_write_calendar_value
                0x00008e3e                ast_write_counter_value
                0x00008e72                ast_read_calendar_value
                0x00008e8c                ast_write_alarm0_value
                0x00008ec0                ast_write_periodic0_value
                0x00008ef4                ast_enable_interrupt
                0x00008f78                ast_disable_interrupt
                0x00008ffc                ast_clear_interrupt_flag
                0x00009080                ast_set_callback
                0x000090d8                ast_enable_wakeup
                0x00009142                ast_disable_wakeup
                0x000091ac                ast_enable_event
                0x00009208                ast_disable_event
 .text          0x00009264      0x4e8 ../../../platform/sam/drivers/bpm/bpm.o
                0x000092e8                bpm_power_scaling_cpu_failsafe
                0x00009384                bpm_power_scaling_cpu
                0x000093dc                bpm_enable_fast_wakeup
                0x0000940c                bpm_disable_fast_wakeup
                0x0000943c                bpm_set_clk32_source
                0x00009484                bpm_get_backup_wakeup_cause
                0x0000949a                bpm_enable_wakeup_source
                0x000094ba                bpm_disable_wakeup_source
                0x000094dc                bpm_enable_backup_pin
                0x000094fc                bpm_disable_backup_pin
                0x0000951e                bpm_enable_io_retention
                0x0000953c                bpm_disable_io_retention
                0x0000955a                bpm_enable_interrupt
                0x00009574                bpm_disable_interrupt
                0x0000958e                bpm_get_interrupt_mask
                0x000095a4                bpm_get_interrupt_status
                0x000095ba                bpm_clear_interrupt
                0x000095d4                bpm_get_status
                0x000095ea                bpm_get_version
                0x00009602                bpm_sleep
 .text          0x0000974c     0x12fc ../../../platform/sam/drivers/flashcalw/flashcalw.o
                0x0000974c                flashcalw_get_flash_size
                0x000097cc                flashcalw_get_page_count
                0x000097dc                flashcalw_get_page_count_per_region
                0x000097ec                flashcalw_get_page_region
                0x00009816                flashcalw_get_region_first_page_number
                0x00009832                flashcalw_get_wait_state
                0x00009854                flashcalw_set_wait_state
                0x00009884                flashcalw_set_flash_waitstate_and_readmode
                0x00009938                flashcalw_is_ready_int_enabled
                0x0000995c                flashcalw_enable_ready_int
                0x00009984                flashcalw_is_lock_error_int_enabled
                0x000099a8                flashcalw_enable_lock_error_int
                0x000099d0                flashcalw_is_prog_error_int_enabled
                0x000099f4                flashcalw_enable_prog_error_int
                0x00009a1c                flashcalw_is_ready
                0x00009a40                flashcalw_default_wait_until_ready
                0x00009a74                flashcalw_is_lock_error
                0x00009a98                flashcalw_is_programming_error
                0x00009abc                flashcalw_get_command
                0x00009ad4                flashcalw_get_page_number
                0x00009aec                flashcalw_issue_command
                0x00009b60                flashcalw_no_operation
                0x00009b72                flashcalw_erase_all
                0x00009b84                flashcalw_is_security_bit_active
                0x00009ba8                flashcalw_set_security_bit
                0x00009bba                flashcalw_is_page_region_locked
                0x00009bdc                flashcalw_is_region_locked
                0x00009c10                flashcalw_lock_page_region
                0x00009c38                flashcalw_lock_region
                0x00009c60                flashcalw_lock_all_regions
                0x00009ca8                flashcalw_read_gp_fuse_bit
                0x00009d02                flashcalw_read_gp_fuse_bitfield
                0x00009d8a                flashcalw_read_gp_fuse_byte
                0x00009dc8                flashcalw_read_all_gp_fuses
                0x00009e04                flashcalw_erase_gp_fuse_bit
                0x00009e3e                flashcalw_erase_gp_fuse_bitfield
                0x00009efc                flashcalw_erase_gp_fuse_byte
                0x00009f8c                flashcalw_erase_all_gp_fuses
                0x00009fce                flashcalw_write_gp_fuse_bit
                0x00009ffc                flashcalw_write_gp_fuse_bitfield
                0x0000a08c                flashcalw_write_gp_fuse_byte
                0x0000a0b4                flashcalw_write_all_gp_fuses
                0x0000a10c                flashcalw_set_gp_fuse_bit
                0x0000a138                flashcalw_set_gp_fuse_bitfield
                0x0000a1c8                flashcalw_set_gp_fuse_byte
                0x0000a224                flashcalw_set_all_gp_fuses
                0x0000a288                flashcalw_clear_page_buffer
                0x0000a29a                flashcalw_is_page_erased
                0x0000a2bc                flashcalw_quick_page_read
                0x0000a2da                flashcalw_erase_page
                0x0000a324                flashcalw_erase_all_pages
                0x0000a388                flashcalw_write_page
                0x0000a3a0                flashcalw_quick_user_page_read
                0x0000a3b8                flashcalw_erase_user_page
                0x0000a3ea                flashcalw_write_user_page
                0x0000a3fc                flashcalw_memset8
                0x0000a434                flashcalw_memset16
                0x0000a466                flashcalw_memset32
                0x0000a4b0                flashcalw_memset64
                0x0000a7c4                flashcalw_memcpy
                0x0000a8fc                flashcalw_picocache_enable
                0x0000a928                flashcalw_picocache_disable
                0x0000a958                flashcalw_picocache_get_status
                0x0000a96c                flashcalw_picocache_invalid_all
                0x0000a984                flashcalw_picocache_invalid_line
                0x0000a9b8                flashcalw_picocache_set_monitor_mode
                0x0000a9d4                flashcalw_picocache_enable_monitor
                0x0000a9ec                flashcalw_picocache_disable_monitor
                0x0000aa04                flashcalw_picocache_reset_monitor
                0x0000aa1c                flashcalw_picocache_get_monitor_cnt
                0x0000aa30                flashcalw_picocache_get_version
 .text          0x0000aa48      0x310 ../../../platform/sam/drivers/gpio/gpio.o
                0x0000ab40                gpio_set_pin_callback
                0x0000ac98                GPIO_0_Handler
                0x0000aca8                GPIO_1_Handler
                0x0000acba                GPIO_3_Handler
                0x0000accc                GPIO_4_Handler
                0x0000acdc                GPIO_5_Handler
                0x0000acee                GPIO_6_Handler
                0x0000ad00                GPIO_7_Handler
                0x0000ad12                GPIO_8_Handler
                0x0000ad22                GPIO_9_Handler
                0x0000ad34                GPIO_10_Handler
                0x0000ad46                GPIO_11_Handler
 .text          0x0000ad58      0x3f8 ../../../platform/sam/drivers/eic/eic.o
                0x0000af18                eic_line_set_config
                0x0000b00c                eic_disable
                0x0000b02c                eic_enable
                0x0000b04c                eic_line_set_callback
                0x0000b0d0                NMI_Handler
                0x0000b0de                EIC_1_Handler
                0x0000b0ec                EIC_2_Handler
                0x0000b0fa                EIC_3_Handler
                0x0000b108                EIC_4_Handler
                0x0000b116                EIC_5_Handler
                0x0000b124                EIC_6_Handler
                0x0000b132                EIC_7_Handler
                0x0000b140                EIC_8_Handler
 .text          0x0000b150      0x45c ../../../platform/sam/drivers/spi/spi.o
                0x0000b174                spi_enable_clock
                0x0000b190                spi_disable_clock
                0x0000b1ac                spi_set_peripheral_chip_select_value
                0x0000b1de                spi_set_delay_between_chip_select
                0x0000b20c                spi_read
                0x0000b278                spi_write
                0x0000b2f2                spi_set_clock_polarity
                0x0000b340                spi_set_clock_phase
                0x0000b38e                spi_configure_cs_behavior
                0x0000b432                spi_set_bits_per_transfer
                0x0000b47a                spi_calc_baudrate_div
                0x0000b4b4                spi_set_baudrate_div
                0x0000b502                spi_set_transfer_delay
                0x0000b55e                spi_set_writeprotect
                0x0000b594                spi_get_writeprotect_status
 .text          0x0000b5ac      0x358 ../../../platform/sam/drivers/tc/tc.o
                0x0000b5ac                tc_init
                0x0000b5e4                tc_sync_trigger
                0x0000b5fe                tc_set_block_mode
                0x0000b61a                tc_init_2bit_gray
                0x0000b640                tc_start
                0x0000b660                tc_stop
                0x0000b680                tc_read_cv
                0x0000b6a0                tc_read_ra
                0x0000b6c0                tc_read_rb
                0x0000b6e0                tc_read_rc
                0x0000b700                tc_write_ra
                0x0000b724                tc_write_rb
                0x0000b748                tc_write_rc
                0x0000b76c                tc_enable_interrupt
                0x0000b792                tc_disable_interrupt
                0x0000b7b8                tc_get_interrupt_mask
                0x0000b7da                tc_get_status
                0x0000b7fc                tc_find_mck_divisor
                0x0000b8a0                tc_set_writeprotect
                0x0000b8d4                tc_get_feature
                0x0000b8ec                tc_get_version
 .text          0x0000b904     0x1688 ../../../platform/sam/drivers/usbc/usbc_device.o
                0x0000baf0                USBC_Handler
                0x0000bc3c                udd_include_vbus_monitoring
                0x0000bc4a                udd_enable
                0x0000bd68                udd_disable
                0x0000bdb8                udd_attach
                0x0000be48                udd_detach
                0x0000be88                udd_is_high_speed
                0x0000be96                udd_set_address
                0x0000bedc                udd_getaddress
                0x0000bef8                udd_get_frame_number
                0x0000bf18                udd_get_micro_frame_number
                0x0000bf26                udd_send_remotewakeup
                0x0000bf68                udd_set_setup_payload
                0x0000bf90                udd_ep_alloc
                0x0000c068                udd_ep_free
                0x0000c0a0                udd_ep_is_halted
                0x0000c0d4                udd_ep_set_halt
                0x0000c114                udd_ep_clear_halt
                0x0000c1d0                udd_ep_run
                0x0000c328                udd_ep_abort
                0x0000c3d8                udd_ep_wait_stall_clear
 .text          0x0000cf8c      0x300 ../../../platform/sam/drivers/wdt/wdt_sam4l.o
                0x0000d028                wdt_get_config_defaults
                0x0000d064                wdt_init
                0x0000d160                wdt_enable
                0x0000d1b8                wdt_disable
                0x0000d1f4                wdt_clear
                0x0000d230                wdt_reset_mcu
 .text          0x0000d28c     0x15cc ../../../platform/common/services/clock/sam4l/sysclk.o
                0x0000da50                sysclk_priv_enable_module
                0x0000dab0                sysclk_priv_disable_module
                0x0000db10                sysclk_enable_pba_module
                0x0000db48                sysclk_disable_pba_module
                0x0000db80                sysclk_enable_pbb_module
                0x0000dbb8                sysclk_disable_pbb_module
                0x0000dbf0                sysclk_get_peripheral_bus_hz
                0x0000de4c                sysclk_enable_peripheral_clock
                0x0000e25a                sysclk_disable_peripheral_clock
                0x0000e654                sysclk_set_prescalers
                0x0000e744                sysclk_set_source
                0x0000e774                sysclk_enable_usb
                0x0000e792                sysclk_disable_usb
                0x0000e7a0                sysclk_init
 .text          0x0000e858      0x840 ../../../platform/common/services/clock/sam4l/dfll.o
                0x0000ed72                dfll_enable_open_loop
                0x0000ee54                dfll_disable_open_loop
                0x0000eebc                dfll_enable_closed_loop
                0x0000efa8                dfll_disable_closed_loop
                0x0000f010                dfll_enable_config_defaults
 .text          0x0000f098      0x34c ../../../platform/common/services/clock/sam4l/osc.o
                0x0000f11c                osc_priv_enable_osc0
                0x0000f150                osc_priv_disable_osc0
                0x0000f18c                osc_priv_enable_osc32
                0x0000f1c0                osc_priv_disable_osc32
                0x0000f204                osc_priv_enable_rc32k
                0x0000f23c                osc_priv_disable_rc32k
                0x0000f278                osc_priv_enable_rc1m
                0x0000f2b0                osc_priv_disable_rc1m
                0x0000f2ec                osc_priv_enable_rc80m
                0x0000f324                osc_priv_disable_rc80m
                0x0000f360                osc_priv_enable_rcfast
                0x0000f3a0                osc_priv_disable_rcfast
 .text          0x0000f3e4      0x150 ../../../platform/common/services/clock/sam4l/pll.o
                0x0000f468                pll_config_write
                0x0000f4ac                pll_enable
                0x0000f4f4                pll_disable
 .text          0x0000f534      0x48c ../../../platform/common/services/spi/sam_spi/spi_master.o
                0x0000f728                spi_master_init
                0x0000f780                spi_master_setup_device
                0x0000f830                spi_select_device
                0x0000f884                spi_deselect_device
                0x0000f8b8                spi_write_packet
                0x0000f924                spi_read_packet
 .text          0x0000f9c0      0xae8 ../../../platform/common/services/usb/udc/udc.o
                0x0000f9c0                udc_get_interface_desc
                0x0000fc10                udc_start
                0x0000fc20                udc_stop
                0x0000fc34                udc_reset
                0x0000fc84                udc_sof_notify
                0x00010424                udc_process_setup
 .text          0x000104a8     0x10e8 ../../../platform/common/services/usb/class/cdc/device/udi_cdc.o
                0x0001052c                udi_cdc_comm_enable
                0x0001066c                udi_cdc_data_enable
                0x0001074c                udi_cdc_comm_disable
                0x0001076c                udi_cdc_data_disable
                0x000107a4                udi_cdc_comm_setup
                0x00010860                udi_cdc_data_setup
                0x0001086e                udi_cdc_getsetting
                0x0001087c                udi_cdc_data_sof_notify
                0x00010e8c                udi_cdc_ctrl_signal_dcd
                0x00010eaa                udi_cdc_ctrl_signal_dsr
                0x00010ec8                udi_cdc_signal_framing_error
                0x00010eda                udi_cdc_signal_parity_error
                0x00010eec                udi_cdc_signal_overrun
                0x00010efe                udi_cdc_multi_ctrl_signal_dcd
                0x00010f22                udi_cdc_multi_ctrl_signal_dsr
                0x00010f46                udi_cdc_multi_signal_framing_error
                0x00010f64                udi_cdc_multi_signal_parity_error
                0x00010f82                udi_cdc_multi_signal_overrun
                0x00010fa0                udi_cdc_multi_get_nb_received_data
                0x00010ff8                udi_cdc_get_nb_received_data
                0x00011008                udi_cdc_multi_is_rx_ready
                0x0001102e                udi_cdc_is_rx_ready
                0x0001103e                udi_cdc_multi_getc
                0x00011128                udi_cdc_getc
                0x00011138                udi_cdc_multi_read_buf
                0x00011240                udi_cdc_read_buf
                0x0001125e                udi_cdc_multi_get_free_tx_buffer
                0x00011324                udi_cdc_get_free_tx_buffer
                0x00011334                udi_cdc_multi_is_tx_ready
                0x0001135a                udi_cdc_is_tx_ready
                0x0001136a                udi_cdc_multi_putc
                0x00011448                udi_cdc_putc
                0x00011462                udi_cdc_multi_write_buf
                0x00011570                udi_cdc_write_buf
 .text          0x00011590       0x54 ../../../platform/common/utils/stdio/read.o
                0x00011590                _read
 .text          0x000115e4       0x6c ../../../platform/common/utils/stdio/write.o
                0x000115e4                _write
 .text          0x00011650      0x10c ../../../platform/common/utils/stdio/stdio_usb/stdio_usb.o
                0x00011650                stdio_usb_putchar
                0x00011694                stdio_usb_getchar
                0x000116d0                stdio_usb_enable
                0x000116e8                stdio_usb_disable
                0x00011700                stdio_usb_init
 .text          0x0001175c      0x470 ../../../board/WM400/src/board_init.o
                0x00011a7a                board_init
 .text          0x00011bcc       0x12 ../../../platform/sam/utils/syscalls/gcc/hardfault_handler.o
                0x00011bcc                HardFault_Handler
 *fill*         0x00011bde        0x2 
 .text.common_tc_delay
                0x00011be0       0x98 ../../../stack/LwMesh/TDMA/services/common_hw_timer/sam/lib\libsam4l_lib_hw_timer.a(common_hw_timer.o)
                0x00011be0                common_tc_delay
 .text.common_tc_init
                0x00011c78       0x28 ../../../stack/LwMesh/TDMA/services/common_hw_timer/sam/lib\libsam4l_lib_hw_timer.a(common_hw_timer.o)
                0x00011c78                common_tc_init
 .text.tmr_ovf_callback
                0x00011ca0       0x60 ../../../stack/LwMesh/TDMA/services/common_hw_timer/sam/lib\libsam4l_lib_hw_timer.a(common_hw_timer.o)
                0x00011ca0                tmr_ovf_callback
 .text.tmr_cca_callback
                0x00011d00       0x1c ../../../stack/LwMesh/TDMA/services/common_hw_timer/sam/lib\libsam4l_lib_hw_timer.a(common_hw_timer.o)
                0x00011d00                tmr_cca_callback
 .text.set_common_tc_expiry_callback
                0x00011d1c        0xc ../../../stack/LwMesh/TDMA/services/common_hw_timer/sam/lib\libsam4l_lib_hw_timer.a(common_hw_timer.o)
                0x00011d1c                set_common_tc_expiry_callback
 .text.__libc_init_array
                0x00011d28       0x50 c:/program files (x86)/atmel/studio/7.0/toolchain/arm/arm-gnu-toolchain/bin/../lib/gcc/arm-none-eabi/6.3.1/../../../../arm-none-eabi/lib/thumb/v7e-m\libg.a(lib_a-init.o)
                0x00011d28                __libc_init_array
 .text          0x00011d78      0x134 c:/program files (x86)/atmel/studio/7.0/toolchain/arm/arm-gnu-toolchain/bin/../lib/gcc/arm-none-eabi/6.3.1/../../../../arm-none-eabi/lib/thumb/v7e-m\libg.a(lib_a-memcpy.o)
                0x00011d78                memcpy
 .text.memset   0x00011eac       0x9c c:/program files (x86)/atmel/studio/7.0/toolchain/arm/arm-gnu-toolchain/bin/../lib/gcc/arm-none-eabi/6.3.1/../../../../arm-none-eabi/lib/thumb/v7e-m\libg.a(lib_a-memset.o)
                0x00011eac                memset
 .text.printf   0x00011f48       0x28 c:/program files (x86)/atmel/studio/7.0/toolchain/arm/arm-gnu-toolchain/bin/../lib/gcc/arm-none-eabi/6.3.1/../../../../arm-none-eabi/lib/thumb/v7e-m\libg.a(lib_a-printf.o)
                0x00011f48                printf
 .text.rand     0x00011f70       0x40 c:/program files (x86)/atmel/studio/7.0/toolchain/arm/arm-gnu-toolchain/bin/../lib/gcc/arm-none-eabi/6.3.1/../../../../arm-none-eabi/lib/thumb/v7e-m\libg.a(lib_a-rand.o)
                0x00011f70                rand
 .text.setbuf   0x00011fb0       0x10 c:/program files (x86)/atmel/studio/7.0/toolchain/arm/arm-gnu-toolchain/bin/../lib/gcc/arm-none-eabi/6.3.1/../../../../arm-none-eabi/lib/thumb/v7e-m\libg.a(lib_a-setbuf.o)
                0x00011fb0                setbuf
 .text.setvbuf  0x00011fc0      0x190 c:/program files (x86)/atmel/studio/7.0/toolchain/arm/arm-gnu-toolchain/bin/../lib/gcc/arm-none-eabi/6.3.1/../../../../arm-none-eabi/lib/thumb/v7e-m\libg.a(lib_a-setvbuf.o)
                0x00011fc0                setvbuf
 .text._vfprintf_r
                0x00012150     0x1558 c:/program files (x86)/atmel/studio/7.0/toolchain/arm/arm-gnu-toolchain/bin/../lib/gcc/arm-none-eabi/6.3.1/../../../../arm-none-eabi/lib/thumb/v7e-m\libg.a(lib_a-vfprintf.o)
                0x00012150                _vfprintf_r
 .text.__sbprintf
                0x000136a8       0x84 c:/program files (x86)/atmel/studio/7.0/toolchain/arm/arm-gnu-toolchain/bin/../lib/gcc/arm-none-eabi/6.3.1/../../../../arm-none-eabi/lib/thumb/v7e-m\libg.a(lib_a-vfprintf.o)
 .text.__swsetup_r
                0x0001372c       0xc8 c:/program files (x86)/atmel/studio/7.0/toolchain/arm/arm-gnu-toolchain/bin/../lib/gcc/arm-none-eabi/6.3.1/../../../../arm-none-eabi/lib/thumb/v7e-m\libg.a(lib_a-wsetup.o)
                0x0001372c                __swsetup_r
 .text.startup.register_fini
                0x000137f4       0x14 c:/program files (x86)/atmel/studio/7.0/toolchain/arm/arm-gnu-toolchain/bin/../lib/gcc/arm-none-eabi/6.3.1/../../../../arm-none-eabi/lib/thumb/v7e-m\libg.a(lib_a-__call_atexit.o)
 .text.atexit   0x00013808        0xc c:/program files (x86)/atmel/studio/7.0/toolchain/arm/arm-gnu-toolchain/bin/../lib/gcc/arm-none-eabi/6.3.1/../../../../arm-none-eabi/lib/thumb/v7e-m\libg.a(lib_a-atexit.o)
                0x00013808                atexit
 .text.quorem   0x00013814      0x128 c:/program files (x86)/atmel/studio/7.0/toolchain/arm/arm-gnu-toolchain/bin/../lib/gcc/arm-none-eabi/6.3.1/../../../../arm-none-eabi/lib/thumb/v7e-m\libg.a(lib_a-dtoa.o)
 *fill*         0x0001393c        0x4 
 .text._dtoa_r  0x00013940      0xe54 c:/program files (x86)/atmel/studio/7.0/toolchain/arm/arm-gnu-toolchain/bin/../lib/gcc/arm-none-eabi/6.3.1/../../../../arm-none-eabi/lib/thumb/v7e-m\libg.a(lib_a-dtoa.o)
                0x00013940                _dtoa_r
 .text.__sflush_r
                0x00014794      0x140 c:/program files (x86)/atmel/studio/7.0/toolchain/arm/arm-gnu-toolchain/bin/../lib/gcc/arm-none-eabi/6.3.1/../../../../arm-none-eabi/lib/thumb/v7e-m\libg.a(lib_a-fflush.o)
                0x00014794                __sflush_r
 .text._fflush_r
                0x000148d4       0x54 c:/program files (x86)/atmel/studio/7.0/toolchain/arm/arm-gnu-toolchain/bin/../lib/gcc/arm-none-eabi/6.3.1/../../../../arm-none-eabi/lib/thumb/v7e-m\libg.a(lib_a-fflush.o)
                0x000148d4                _fflush_r
 .text._cleanup_r
                0x00014928        0xc c:/program files (x86)/atmel/studio/7.0/toolchain/arm/arm-gnu-toolchain/bin/../lib/gcc/arm-none-eabi/6.3.1/../../../../arm-none-eabi/lib/thumb/v7e-m\libg.a(lib_a-findfp.o)
                0x00014928                _cleanup_r
 .text.std.isra.0
                0x00014934       0x50 c:/program files (x86)/atmel/studio/7.0/toolchain/arm/arm-gnu-toolchain/bin/../lib/gcc/arm-none-eabi/6.3.1/../../../../arm-none-eabi/lib/thumb/v7e-m\libg.a(lib_a-findfp.o)
 .text.__sinit  0x00014984       0x58 c:/program files (x86)/atmel/studio/7.0/toolchain/arm/arm-gnu-toolchain/bin/../lib/gcc/arm-none-eabi/6.3.1/../../../../arm-none-eabi/lib/thumb/v7e-m\libg.a(lib_a-findfp.o)
                0x00014984                __sinit
 .text.__sfp_lock_acquire
                0x000149dc        0xc c:/program files (x86)/atmel/studio/7.0/toolchain/arm/arm-gnu-toolchain/bin/../lib/gcc/arm-none-eabi/6.3.1/../../../../arm-none-eabi/lib/thumb/v7e-m\libg.a(lib_a-findfp.o)
                0x000149dc                __sfp_lock_acquire
 .text.__sfp_lock_release
                0x000149e8        0xc c:/program files (x86)/atmel/studio/7.0/toolchain/arm/arm-gnu-toolchain/bin/../lib/gcc/arm-none-eabi/6.3.1/../../../../arm-none-eabi/lib/thumb/v7e-m\libg.a(lib_a-findfp.o)
                0x000149e8                __sfp_lock_release
 .text.__libc_fini_array
                0x000149f4       0x34 c:/program files (x86)/atmel/studio/7.0/toolchain/arm/arm-gnu-toolchain/bin/../lib/gcc/arm-none-eabi/6.3.1/../../../../arm-none-eabi/lib/thumb/v7e-m\libg.a(lib_a-fini.o)
                0x000149f4                __libc_fini_array
 .text._malloc_trim_r
                0x00014a28       0xa0 c:/program files (x86)/atmel/studio/7.0/toolchain/arm/arm-gnu-toolchain/bin/../lib/gcc/arm-none-eabi/6.3.1/../../../../arm-none-eabi/lib/thumb/v7e-m\libg.a(lib_a-freer.o)
                0x00014a28                _malloc_trim_r
 .text._free_r  0x00014ac8      0x1cc c:/program files (x86)/atmel/studio/7.0/toolchain/arm/arm-gnu-toolchain/bin/../lib/gcc/arm-none-eabi/6.3.1/../../../../arm-none-eabi/lib/thumb/v7e-m\libg.a(lib_a-freer.o)
                0x00014ac8                _free_r
 .text._fwalk_reent
                0x00014c94       0x54 c:/program files (x86)/atmel/studio/7.0/toolchain/arm/arm-gnu-toolchain/bin/../lib/gcc/arm-none-eabi/6.3.1/../../../../arm-none-eabi/lib/thumb/v7e-m\libg.a(lib_a-fwalk.o)
                0x00014c94                _fwalk_reent
 .text._localeconv_r
                0x00014ce8       0x1c c:/program files (x86)/atmel/studio/7.0/toolchain/arm/arm-gnu-toolchain/bin/../lib/gcc/arm-none-eabi/6.3.1/../../../../arm-none-eabi/lib/thumb/v7e-m\libg.a(lib_a-localeconv.o)
                0x00014ce8                _localeconv_r
 .text.__retarget_lock_init_recursive
                0x00014d04        0x4 c:/program files (x86)/atmel/studio/7.0/toolchain/arm/arm-gnu-toolchain/bin/../lib/gcc/arm-none-eabi/6.3.1/../../../../arm-none-eabi/lib/thumb/v7e-m\libg.a(lib_a-lock.o)
                0x00014d04                __retarget_lock_init_recursive
 .text.__retarget_lock_close_recursive
                0x00014d08        0x4 c:/program files (x86)/atmel/studio/7.0/toolchain/arm/arm-gnu-toolchain/bin/../lib/gcc/arm-none-eabi/6.3.1/../../../../arm-none-eabi/lib/thumb/v7e-m\libg.a(lib_a-lock.o)
                0x00014d08                __retarget_lock_close_recursive
 .text.__retarget_lock_acquire_recursive
                0x00014d0c        0x4 c:/program files (x86)/atmel/studio/7.0/toolchain/arm/arm-gnu-toolchain/bin/../lib/gcc/arm-none-eabi/6.3.1/../../../../arm-none-eabi/lib/thumb/v7e-m\libg.a(lib_a-lock.o)
                0x00014d0c                __retarget_lock_acquire_recursive
 .text.__retarget_lock_release_recursive
                0x00014d10        0x4 c:/program files (x86)/atmel/studio/7.0/toolchain/arm/arm-gnu-toolchain/bin/../lib/gcc/arm-none-eabi/6.3.1/../../../../arm-none-eabi/lib/thumb/v7e-m\libg.a(lib_a-lock.o)
                0x00014d10                __retarget_lock_release_recursive
 .text.__swhatbuf_r
                0x00014d14       0x5c c:/program files (x86)/atmel/studio/7.0/toolchain/arm/arm-gnu-toolchain/bin/../lib/gcc/arm-none-eabi/6.3.1/../../../../arm-none-eabi/lib/thumb/v7e-m\libg.a(lib_a-makebuf.o)
                0x00014d14                __swhatbuf_r
 .text.__smakebuf_r
                0x00014d70       0x94 c:/program files (x86)/atmel/studio/7.0/toolchain/arm/arm-gnu-toolchain/bin/../lib/gcc/arm-none-eabi/6.3.1/../../../../arm-none-eabi/lib/thumb/v7e-m\libg.a(lib_a-makebuf.o)
                0x00014d70                __smakebuf_r
 .text.malloc   0x00014e04       0x10 c:/program files (x86)/atmel/studio/7.0/toolchain/arm/arm-gnu-toolchain/bin/../lib/gcc/arm-none-eabi/6.3.1/../../../../arm-none-eabi/lib/thumb/v7e-m\libg.a(lib_a-malloc.o)
                0x00014e04                malloc
 .text._malloc_r
                0x00014e14      0x560 c:/program files (x86)/atmel/studio/7.0/toolchain/arm/arm-gnu-toolchain/bin/../lib/gcc/arm-none-eabi/6.3.1/../../../../arm-none-eabi/lib/thumb/v7e-m\libg.a(lib_a-mallocr.o)
                0x00014e14                _malloc_r
 *fill*         0x00015374        0xc 
 .text          0x00015380       0xa0 c:/program files (x86)/atmel/studio/7.0/toolchain/arm/arm-gnu-toolchain/bin/../lib/gcc/arm-none-eabi/6.3.1/../../../../arm-none-eabi/lib/thumb/v7e-m\libg.a(lib_a-memchr.o)
                0x00015380                memchr
 .text.__malloc_lock
                0x00015420        0xc c:/program files (x86)/atmel/studio/7.0/toolchain/arm/arm-gnu-toolchain/bin/../lib/gcc/arm-none-eabi/6.3.1/../../../../arm-none-eabi/lib/thumb/v7e-m\libg.a(lib_a-mlock.o)
                0x00015420                __malloc_lock
 .text.__malloc_unlock
                0x0001542c        0xc c:/program files (x86)/atmel/studio/7.0/toolchain/arm/arm-gnu-toolchain/bin/../lib/gcc/arm-none-eabi/6.3.1/../../../../arm-none-eabi/lib/thumb/v7e-m\libg.a(lib_a-mlock.o)
                0x0001542c                __malloc_unlock
 .text._Balloc  0x00015438       0x4c c:/program files (x86)/atmel/studio/7.0/toolchain/arm/arm-gnu-toolchain/bin/../lib/gcc/arm-none-eabi/6.3.1/../../../../arm-none-eabi/lib/thumb/v7e-m\libg.a(lib_a-mprec.o)
                0x00015438                _Balloc
 .text._Bfree   0x00015484       0x14 c:/program files (x86)/atmel/studio/7.0/toolchain/arm/arm-gnu-toolchain/bin/../lib/gcc/arm-none-eabi/6.3.1/../../../../arm-none-eabi/lib/thumb/v7e-m\libg.a(lib_a-mprec.o)
                0x00015484                _Bfree
 .text.__multadd
                0x00015498       0x80 c:/program files (x86)/atmel/studio/7.0/toolchain/arm/arm-gnu-toolchain/bin/../lib/gcc/arm-none-eabi/6.3.1/../../../../arm-none-eabi/lib/thumb/v7e-m\libg.a(lib_a-mprec.o)
                0x00015498                __multadd
 .text.__hi0bits
                0x00015518       0x40 c:/program files (x86)/atmel/studio/7.0/toolchain/arm/arm-gnu-toolchain/bin/../lib/gcc/arm-none-eabi/6.3.1/../../../../arm-none-eabi/lib/thumb/v7e-m\libg.a(lib_a-mprec.o)
                0x00015518                __hi0bits
 .text.__lo0bits
                0x00015558       0x60 c:/program files (x86)/atmel/studio/7.0/toolchain/arm/arm-gnu-toolchain/bin/../lib/gcc/arm-none-eabi/6.3.1/../../../../arm-none-eabi/lib/thumb/v7e-m\libg.a(lib_a-mprec.o)
                0x00015558                __lo0bits
 .text.__i2b    0x000155b8       0x14 c:/program files (x86)/atmel/studio/7.0/toolchain/arm/arm-gnu-toolchain/bin/../lib/gcc/arm-none-eabi/6.3.1/../../../../arm-none-eabi/lib/thumb/v7e-m\libg.a(lib_a-mprec.o)
                0x000155b8                __i2b
 .text.__multiply
                0x000155cc      0x124 c:/program files (x86)/atmel/studio/7.0/toolchain/arm/arm-gnu-toolchain/bin/../lib/gcc/arm-none-eabi/6.3.1/../../../../arm-none-eabi/lib/thumb/v7e-m\libg.a(lib_a-mprec.o)
                0x000155cc                __multiply
 .text.__pow5mult
                0x000156f0       0xa0 c:/program files (x86)/atmel/studio/7.0/toolchain/arm/arm-gnu-toolchain/bin/../lib/gcc/arm-none-eabi/6.3.1/../../../../arm-none-eabi/lib/thumb/v7e-m\libg.a(lib_a-mprec.o)
                0x000156f0                __pow5mult
 .text.__lshift
                0x00015790       0xa4 c:/program files (x86)/atmel/studio/7.0/toolchain/arm/arm-gnu-toolchain/bin/../lib/gcc/arm-none-eabi/6.3.1/../../../../arm-none-eabi/lib/thumb/v7e-m\libg.a(lib_a-mprec.o)
                0x00015790                __lshift
 .text.__mcmp   0x00015834       0x38 c:/program files (x86)/atmel/studio/7.0/toolchain/arm/arm-gnu-toolchain/bin/../lib/gcc/arm-none-eabi/6.3.1/../../../../arm-none-eabi/lib/thumb/v7e-m\libg.a(lib_a-mprec.o)
                0x00015834                __mcmp
 .text.__mdiff  0x0001586c      0x108 c:/program files (x86)/atmel/studio/7.0/toolchain/arm/arm-gnu-toolchain/bin/../lib/gcc/arm-none-eabi/6.3.1/../../../../arm-none-eabi/lib/thumb/v7e-m\libg.a(lib_a-mprec.o)
                0x0001586c                __mdiff
 .text.__d2b    0x00015974       0xb8 c:/program files (x86)/atmel/studio/7.0/toolchain/arm/arm-gnu-toolchain/bin/../lib/gcc/arm-none-eabi/6.3.1/../../../../arm-none-eabi/lib/thumb/v7e-m\libg.a(lib_a-mprec.o)
                0x00015974                __d2b
 .text._sbrk_r  0x00015a2c       0x24 c:/program files (x86)/atmel/studio/7.0/toolchain/arm/arm-gnu-toolchain/bin/../lib/gcc/arm-none-eabi/6.3.1/../../../../arm-none-eabi/lib/thumb/v7e-m\libg.a(lib_a-sbrkr.o)
                0x00015a2c                _sbrk_r
 .text.__sread  0x00015a50       0x24 c:/program files (x86)/atmel/studio/7.0/toolchain/arm/arm-gnu-toolchain/bin/../lib/gcc/arm-none-eabi/6.3.1/../../../../arm-none-eabi/lib/thumb/v7e-m\libg.a(lib_a-stdio.o)
                0x00015a50                __sread
 .text.__swrite
                0x00015a74       0x3c c:/program files (x86)/atmel/studio/7.0/toolchain/arm/arm-gnu-toolchain/bin/../lib/gcc/arm-none-eabi/6.3.1/../../../../arm-none-eabi/lib/thumb/v7e-m\libg.a(lib_a-stdio.o)
                0x00015a74                __swrite
 .text.__sseek  0x00015ab0       0x20 c:/program files (x86)/atmel/studio/7.0/toolchain/arm/arm-gnu-toolchain/bin/../lib/gcc/arm-none-eabi/6.3.1/../../../../arm-none-eabi/lib/thumb/v7e-m\libg.a(lib_a-stdio.o)
                0x00015ab0                __sseek
 .text.__sclose
                0x00015ad0        0x8 c:/program files (x86)/atmel/studio/7.0/toolchain/arm/arm-gnu-toolchain/bin/../lib/gcc/arm-none-eabi/6.3.1/../../../../arm-none-eabi/lib/thumb/v7e-m\libg.a(lib_a-stdio.o)
                0x00015ad0                __sclose
 *fill*         0x00015ad8       0x28 
 .text          0x00015b00       0xdc c:/program files (x86)/atmel/studio/7.0/toolchain/arm/arm-gnu-toolchain/bin/../lib/gcc/arm-none-eabi/6.3.1/../../../../arm-none-eabi/lib/thumb/v7e-m\libg.a(lib_a-strlen.o)
                0x00015b00                strlen
 .text.__sprint_r.part.0
                0x00015bdc       0x80 c:/program files (x86)/atmel/studio/7.0/toolchain/arm/arm-gnu-toolchain/bin/../lib/gcc/arm-none-eabi/6.3.1/../../../../arm-none-eabi/lib/thumb/v7e-m\libg.a(lib_a-vfiprintf.o)
 .text.__sprint_r
                0x00015c5c       0x14 c:/program files (x86)/atmel/studio/7.0/toolchain/arm/arm-gnu-toolchain/bin/../lib/gcc/arm-none-eabi/6.3.1/../../../../arm-none-eabi/lib/thumb/v7e-m\libg.a(lib_a-vfiprintf.o)
                0x00015c5c                __sprint_r
 .text._write_r
                0x00015c70       0x2c c:/program files (x86)/atmel/studio/7.0/toolchain/arm/arm-gnu-toolchain/bin/../lib/gcc/arm-none-eabi/6.3.1/../../../../arm-none-eabi/lib/thumb/v7e-m\libg.a(lib_a-writer.o)
                0x00015c70                _write_r
 .text.__register_exitproc
                0x00015c9c       0xc4 c:/program files (x86)/atmel/studio/7.0/toolchain/arm/arm-gnu-toolchain/bin/../lib/gcc/arm-none-eabi/6.3.1/../../../../arm-none-eabi/lib/thumb/v7e-m\libg.a(lib_a-__atexit.o)
                0x00015c9c                __register_exitproc
 .text._calloc_r
                0x00015d60       0x60 c:/program files (x86)/atmel/studio/7.0/toolchain/arm/arm-gnu-toolchain/bin/../lib/gcc/arm-none-eabi/6.3.1/../../../../arm-none-eabi/lib/thumb/v7e-m\libg.a(lib_a-callocr.o)
                0x00015d60                _calloc_r
 .text._close_r
                0x00015dc0       0x24 c:/program files (x86)/atmel/studio/7.0/toolchain/arm/arm-gnu-toolchain/bin/../lib/gcc/arm-none-eabi/6.3.1/../../../../arm-none-eabi/lib/thumb/v7e-m\libg.a(lib_a-closer.o)
                0x00015dc0                _close_r
 .text._fclose_r
                0x00015de4       0xc4 c:/program files (x86)/atmel/studio/7.0/toolchain/arm/arm-gnu-toolchain/bin/../lib/gcc/arm-none-eabi/6.3.1/../../../../arm-none-eabi/lib/thumb/v7e-m\libg.a(lib_a-fclose.o)
                0x00015de4                _fclose_r
 .text.__fputwc
                0x00015ea8       0xa0 c:/program files (x86)/atmel/studio/7.0/toolchain/arm/arm-gnu-toolchain/bin/../lib/gcc/arm-none-eabi/6.3.1/../../../../arm-none-eabi/lib/thumb/v7e-m\libg.a(lib_a-fputwc.o)
                0x00015ea8                __fputwc
 .text._fputwc_r
                0x00015f48       0x68 c:/program files (x86)/atmel/studio/7.0/toolchain/arm/arm-gnu-toolchain/bin/../lib/gcc/arm-none-eabi/6.3.1/../../../../arm-none-eabi/lib/thumb/v7e-m\libg.a(lib_a-fputwc.o)
                0x00015f48                _fputwc_r
 .text._fstat_r
                0x00015fb0       0x28 c:/program files (x86)/atmel/studio/7.0/toolchain/arm/arm-gnu-toolchain/bin/../lib/gcc/arm-none-eabi/6.3.1/../../../../arm-none-eabi/lib/thumb/v7e-m\libg.a(lib_a-fstatr.o)
                0x00015fb0                _fstat_r
 .text.__sfvwrite_r
                0x00015fd8      0x2f0 c:/program files (x86)/atmel/studio/7.0/toolchain/arm/arm-gnu-toolchain/bin/../lib/gcc/arm-none-eabi/6.3.1/../../../../arm-none-eabi/lib/thumb/v7e-m\libg.a(lib_a-fvwrite.o)
                0x00015fd8                __sfvwrite_r
 .text._isatty_r
                0x000162c8       0x24 c:/program files (x86)/atmel/studio/7.0/toolchain/arm/arm-gnu-toolchain/bin/../lib/gcc/arm-none-eabi/6.3.1/../../../../arm-none-eabi/lib/thumb/v7e-m\libg.a(lib_a-isattyr.o)
                0x000162c8                _isatty_r
 .text.__locale_mb_cur_max
                0x000162ec       0x1c c:/program files (x86)/atmel/studio/7.0/toolchain/arm/arm-gnu-toolchain/bin/../lib/gcc/arm-none-eabi/6.3.1/../../../../arm-none-eabi/lib/thumb/v7e-m\libg.a(lib_a-locale.o)
                0x000162ec                __locale_mb_cur_max
 .text._lseek_r
                0x00016308       0x2c c:/program files (x86)/atmel/studio/7.0/toolchain/arm/arm-gnu-toolchain/bin/../lib/gcc/arm-none-eabi/6.3.1/../../../../arm-none-eabi/lib/thumb/v7e-m\libg.a(lib_a-lseekr.o)
                0x00016308                _lseek_r
 .text.__ascii_mbtowc
                0x00016334       0x2c c:/program files (x86)/atmel/studio/7.0/toolchain/arm/arm-gnu-toolchain/bin/../lib/gcc/arm-none-eabi/6.3.1/../../../../arm-none-eabi/lib/thumb/v7e-m\libg.a(lib_a-mbtowc_r.o)
                0x00016334                __ascii_mbtowc
 .text.memmove  0x00016360       0xc8 c:/program files (x86)/atmel/studio/7.0/toolchain/arm/arm-gnu-toolchain/bin/../lib/gcc/arm-none-eabi/6.3.1/../../../../arm-none-eabi/lib/thumb/v7e-m\libg.a(lib_a-memmove.o)
                0x00016360                memmove
 .text._read_r  0x00016428       0x2c c:/program files (x86)/atmel/studio/7.0/toolchain/arm/arm-gnu-toolchain/bin/../lib/gcc/arm-none-eabi/6.3.1/../../../../arm-none-eabi/lib/thumb/v7e-m\libg.a(lib_a-readr.o)
                0x00016428                _read_r
 .text._realloc_r
                0x00016454      0x34c c:/program files (x86)/atmel/studio/7.0/toolchain/arm/arm-gnu-toolchain/bin/../lib/gcc/arm-none-eabi/6.3.1/../../../../arm-none-eabi/lib/thumb/v7e-m\libg.a(lib_a-reallocr.o)
                0x00016454                _realloc_r
 .text.__swbuf_r
                0x000167a0       0xb0 c:/program files (x86)/atmel/studio/7.0/toolchain/arm/arm-gnu-toolchain/bin/../lib/gcc/arm-none-eabi/6.3.1/../../../../arm-none-eabi/lib/thumb/v7e-m\libg.a(lib_a-wbuf.o)
                0x000167a0                __swbuf_r
 .text._wcrtomb_r
                0x00016850       0x54 c:/program files (x86)/atmel/studio/7.0/toolchain/arm/arm-gnu-toolchain/bin/../lib/gcc/arm-none-eabi/6.3.1/../../../../arm-none-eabi/lib/thumb/v7e-m\libg.a(lib_a-wcrtomb.o)
                0x00016850                _wcrtomb_r
 .text.__ascii_wctomb
                0x000168a4       0x1c c:/program files (x86)/atmel/studio/7.0/toolchain/arm/arm-gnu-toolchain/bin/../lib/gcc/arm-none-eabi/6.3.1/../../../../arm-none-eabi/lib/thumb/v7e-m\libg.a(lib_a-wctomb_r.o)
                0x000168a4                __ascii_wctomb
 .text          0x000168c0      0x370 c:/program files (x86)/atmel/studio/7.0/toolchain/arm/arm-gnu-toolchain/bin/../lib/gcc/arm-none-eabi/6.3.1/thumb/v7e-m\libgcc.a(_arm_addsubdf3.o)
                0x000168c0                __aeabi_drsub
                0x000168c8                __aeabi_dsub
                0x000168c8                __subdf3
                0x000168cc                __aeabi_dadd
                0x000168cc                __adddf3
                0x00016b44                __floatunsidf
                0x00016b44                __aeabi_ui2d
                0x00016b64                __floatsidf
                0x00016b64                __aeabi_i2d
                0x00016b88                __aeabi_f2d
                0x00016b88                __extendsfdf2
                0x00016bc4                __floatundidf
                0x00016bc4                __aeabi_ul2d
                0x00016bd4                __floatdidf
                0x00016bd4                __aeabi_l2d
 .text          0x00016c30      0x424 c:/program files (x86)/atmel/studio/7.0/toolchain/arm/arm-gnu-toolchain/bin/../lib/gcc/arm-none-eabi/6.3.1/thumb/v7e-m\libgcc.a(_arm_muldivdf3.o)
                0x00016c30                __aeabi_dmul
                0x00016c30                __muldf3
                0x00016e84                __divdf3
                0x00016e84                __aeabi_ddiv
 .text          0x00017054      0x110 c:/program files (x86)/atmel/studio/7.0/toolchain/arm/arm-gnu-toolchain/bin/../lib/gcc/arm-none-eabi/6.3.1/thumb/v7e-m\libgcc.a(_arm_cmpdf2.o)
                0x00017054                __gtdf2
                0x00017054                __gedf2
                0x0001705c                __ltdf2
                0x0001705c                __ledf2
                0x00017064                __nedf2
                0x00017064                __eqdf2
                0x00017064                __cmpdf2
                0x000170e0                __aeabi_cdrcmple
                0x000170f0                __aeabi_cdcmpeq
                0x000170f0                __aeabi_cdcmple
                0x00017100                __aeabi_dcmpeq
                0x00017114                __aeabi_dcmplt
                0x00017128                __aeabi_dcmple
                0x0001713c                __aeabi_dcmpge
                0x00017150                __aeabi_dcmpgt
 .text          0x00017164       0x2c c:/program files (x86)/atmel/studio/7.0/toolchain/arm/arm-gnu-toolchain/bin/../lib/gcc/arm-none-eabi/6.3.1/thumb/v7e-m\libgcc.a(_arm_unorddf2.o)
                0x00017164                __unorddf2
                0x00017164                __aeabi_dcmpun
 .text          0x00017190       0x50 c:/program files (x86)/atmel/studio/7.0/toolchain/arm/arm-gnu-toolchain/bin/../lib/gcc/arm-none-eabi/6.3.1/thumb/v7e-m\libgcc.a(_arm_fixdfsi.o)
                0x00017190                __aeabi_d2iz
                0x00017190                __fixdfsi
 .text          0x000171e0       0x30 c:/program files (x86)/atmel/studio/7.0/toolchain/arm/arm-gnu-toolchain/bin/../lib/gcc/arm-none-eabi/6.3.1/thumb/v7e-m\libgcc.a(_aeabi_uldivmod.o)
                0x000171e0                __aeabi_uldivmod
 .text          0x00017210      0x2dc c:/program files (x86)/atmel/studio/7.0/toolchain/arm/arm-gnu-toolchain/bin/../lib/gcc/arm-none-eabi/6.3.1/thumb/v7e-m\libgcc.a(_udivmoddi4.o)
                0x00017210                __udivmoddi4
 .text          0x000174ec        0x4 c:/program files (x86)/atmel/studio/7.0/toolchain/arm/arm-gnu-toolchain/bin/../lib/gcc/arm-none-eabi/6.3.1/thumb/v7e-m\libgcc.a(_dvmd_tls.o)
                0x000174ec                __aeabi_idiv0
                0x000174ec                __aeabi_ldiv0
 *(.glue_7t)
 .glue_7t       0x000174f0        0x0 linker stubs
 *(.glue_7)
 .glue_7        0x000174f0        0x0 linker stubs
 *(.rodata .rodata* .gnu.linkonce.r.*)
 .rodata        0x000174f0       0x5b TC_lldn.o
 *fill*         0x0001754b        0x1 
 .rodata        0x0001754c        0x9 ../../../stack/LwMesh/TDMA/nwk/src/nwk.o
 *fill*         0x00017555        0x3 
 .rodata        0x00017558       0x19 ../../../platform/sam/utils/syscalls/gcc/syscalls.o
 *fill*         0x00017571        0x3 
 .rodata        0x00017574       0x14 ../../../platform/sam/drivers/tc/tc.o
 .rodata._global_impure_ptr
                0x00017588        0x4 c:/program files (x86)/atmel/studio/7.0/toolchain/arm/arm-gnu-toolchain/bin/../lib/gcc/arm-none-eabi/6.3.1/../../../../arm-none-eabi/lib/thumb/v7e-m\libg.a(lib_a-impure.o)
                0x00017588                _global_impure_ptr
 .rodata._vfprintf_r.str1.4
                0x0001758c       0x42 c:/program files (x86)/atmel/studio/7.0/toolchain/arm/arm-gnu-toolchain/bin/../lib/gcc/arm-none-eabi/6.3.1/../../../../arm-none-eabi/lib/thumb/v7e-m\libg.a(lib_a-vfprintf.o)
 *fill*         0x000175ce        0x2 
 .rodata.blanks.7238
                0x000175d0       0x10 c:/program files (x86)/atmel/studio/7.0/toolchain/arm/arm-gnu-toolchain/bin/../lib/gcc/arm-none-eabi/6.3.1/../../../../arm-none-eabi/lib/thumb/v7e-m\libg.a(lib_a-vfprintf.o)
 .rodata.zeroes.7239
                0x000175e0       0x10 c:/program files (x86)/atmel/studio/7.0/toolchain/arm/arm-gnu-toolchain/bin/../lib/gcc/arm-none-eabi/6.3.1/../../../../arm-none-eabi/lib/thumb/v7e-m\libg.a(lib_a-vfprintf.o)
 .rodata._dtoa_r.str1.4
                0x000175f0       0x10 c:/program files (x86)/atmel/studio/7.0/toolchain/arm/arm-gnu-toolchain/bin/../lib/gcc/arm-none-eabi/6.3.1/../../../../arm-none-eabi/lib/thumb/v7e-m\libg.a(lib_a-dtoa.o)
                                 0x12 (size before relaxing)
 .rodata.__mprec_bigtens
                0x00017600       0x28 c:/program files (x86)/atmel/studio/7.0/toolchain/arm/arm-gnu-toolchain/bin/../lib/gcc/arm-none-eabi/6.3.1/../../../../arm-none-eabi/lib/thumb/v7e-m\libg.a(lib_a-mprec.o)
                0x00017600                __mprec_bigtens
 .rodata.__mprec_tens
                0x00017628       0xc8 c:/program files (x86)/atmel/studio/7.0/toolchain/arm/arm-gnu-toolchain/bin/../lib/gcc/arm-none-eabi/6.3.1/../../../../arm-none-eabi/lib/thumb/v7e-m\libg.a(lib_a-mprec.o)
                0x00017628                __mprec_tens
 .rodata.p05.6055
                0x000176f0        0xc c:/program files (x86)/atmel/studio/7.0/toolchain/arm/arm-gnu-toolchain/bin/../lib/gcc/arm-none-eabi/6.3.1/../../../../arm-none-eabi/lib/thumb/v7e-m\libg.a(lib_a-mprec.o)
 .rodata._setlocale_r.str1.4
                0x000176fc        0xa c:/program files (x86)/atmel/studio/7.0/toolchain/arm/arm-gnu-toolchain/bin/../lib/gcc/arm-none-eabi/6.3.1/../../../../arm-none-eabi/lib/thumb/v7e-m\libg.a(lib_a-locale.o)
                                  0xd (size before relaxing)
 *fill*         0x00017706        0x2 
 .rodata.str1.4
                0x00017708        0x4 c:/program files (x86)/atmel/studio/7.0/toolchain/arm/arm-gnu-toolchain/bin/../lib/gcc/arm-none-eabi/6.3.1/../../../../arm-none-eabi/lib/thumb/v7e-m\libg.a(lib_a-locale.o)
                                  0x2 (size before relaxing)
 .rodata._ctype_
                0x0001770c      0x101 c:/program files (x86)/atmel/studio/7.0/toolchain/arm/arm-gnu-toolchain/bin/../lib/gcc/arm-none-eabi/6.3.1/../../../../arm-none-eabi/lib/thumb/v7e-m\libg.a(lib_a-ctype_.o)
                0x0001770c                _ctype_
 *(.ARM.extab* .gnu.linkonce.armextab.*)
                0x00017810                . = ALIGN (0x4)
 *fill*         0x0001780d        0x3 
 *(.init)
 .init          0x00017810        0x4 c:/program files (x86)/atmel/studio/7.0/toolchain/arm/arm-gnu-toolchain/bin/../lib/gcc/arm-none-eabi/6.3.1/thumb/v7e-m/crti.o
                0x00017810                _init
 .init          0x00017814        0x8 c:/program files (x86)/atmel/studio/7.0/toolchain/arm/arm-gnu-toolchain/bin/../lib/gcc/arm-none-eabi/6.3.1/thumb/v7e-m/crtn.o
                0x0001781c                . = ALIGN (0x4)
                0x0001781c                __preinit_array_start = .
 *(.preinit_array)
                0x0001781c                __preinit_array_end = .
                0x0001781c                . = ALIGN (0x4)
                0x0001781c                __init_array_start = .
 *(SORT(.init_array.*))
 .init_array.00000
                0x0001781c        0x4 c:/program files (x86)/atmel/studio/7.0/toolchain/arm/arm-gnu-toolchain/bin/../lib/gcc/arm-none-eabi/6.3.1/../../../../arm-none-eabi/lib/thumb/v7e-m\libg.a(lib_a-__call_atexit.o)
 *(.init_array)
 .init_array    0x00017820        0x4 c:/program files (x86)/atmel/studio/7.0/toolchain/arm/arm-gnu-toolchain/bin/../lib/gcc/arm-none-eabi/6.3.1/thumb/v7e-m/crtbegin.o
                0x00017824                __init_array_end = .
                0x00017824                . = ALIGN (0x4)
 *crtbegin.o(.ctors)
 *(EXCLUDE_FILE(*crtend.o) .ctors)
 *(SORT(.ctors.*))
 *crtend.o(.ctors)
                0x00017824                . = ALIGN (0x4)
 *(.fini)
 .fini          0x00017824        0x4 c:/program files (x86)/atmel/studio/7.0/toolchain/arm/arm-gnu-toolchain/bin/../lib/gcc/arm-none-eabi/6.3.1/thumb/v7e-m/crti.o
                0x00017824                _fini
 .fini          0x00017828        0x8 c:/program files (x86)/atmel/studio/7.0/toolchain/arm/arm-gnu-toolchain/bin/../lib/gcc/arm-none-eabi/6.3.1/thumb/v7e-m/crtn.o
                0x00017830                . = ALIGN (0x4)
                0x00017830                __fini_array_start = .
 *(.fini_array)
 .fini_array    0x00017830        0x4 c:/program files (x86)/atmel/studio/7.0/toolchain/arm/arm-gnu-toolchain/bin/../lib/gcc/arm-none-eabi/6.3.1/thumb/v7e-m/crtbegin.o
 *(SORT(.fini_array.*))
                0x00017834                __fini_array_end = .
 *crtbegin.o(.dtors)
 *(EXCLUDE_FILE(*crtend.o) .dtors)
 *(SORT(.dtors.*))
 *crtend.o(.dtors)
                0x00017834                . = ALIGN (0x4)
                0x00017834                _efixed = .
                [!provide]                PROVIDE (__exidx_start, .)

.vfp11_veneer   0x00017834        0x0
 .vfp11_veneer  0x00017834        0x0 linker stubs

.v4_bx          0x00017834        0x0
 .v4_bx         0x00017834        0x0 linker stubs

.iplt           0x00017834        0x0
 .iplt          0x00017834        0x0 c:/program files (x86)/atmel/studio/7.0/toolchain/arm/arm-gnu-toolchain/bin/../lib/gcc/arm-none-eabi/6.3.1/thumb/v7e-m/crtbegin.o

.ARM.exidx      0x00017834        0x8
 *(.ARM.exidx* .gnu.linkonce.armexidx.*)
 .ARM.exidx     0x00017834        0x8 c:/program files (x86)/atmel/studio/7.0/toolchain/arm/arm-gnu-toolchain/bin/../lib/gcc/arm-none-eabi/6.3.1/thumb/v7e-m\libgcc.a(_udivmoddi4.o)
                [!provide]                PROVIDE (__exidx_end, .)

.eh_frame       0x0001783c        0x0
 .eh_frame      0x0001783c        0x0 c:/program files (x86)/atmel/studio/7.0/toolchain/arm/arm-gnu-toolchain/bin/../lib/gcc/arm-none-eabi/6.3.1/thumb/v7e-m/crtbegin.o

.rel.dyn        0x0001783c        0x0
 .rel.iplt      0x0001783c        0x0 c:/program files (x86)/atmel/studio/7.0/toolchain/arm/arm-gnu-toolchain/bin/../lib/gcc/arm-none-eabi/6.3.1/thumb/v7e-m/crtbegin.o

.jcr            0x0001783c        0x0
 .jcr           0x0001783c        0x0 c:/program files (x86)/atmel/studio/7.0/toolchain/arm/arm-gnu-toolchain/bin/../lib/gcc/arm-none-eabi/6.3.1/thumb/v7e-m/crtbegin.o

.igot.plt       0x0001783c        0x0
 .igot.plt      0x0001783c        0x0 c:/program files (x86)/atmel/studio/7.0/toolchain/arm/arm-gnu-toolchain/bin/../lib/gcc/arm-none-eabi/6.3.1/thumb/v7e-m/crtbegin.o
                0x0001783c                . = ALIGN (0x4)
                0x0001783c                _etext = .

.relocate       0x20000000      0xb58 load address 0x0001783c
                0x20000000                . = ALIGN (0x4)
                0x20000000                _srelocate = .
 *(.ramfunc .ramfunc.*)
 .ramfunc       0x20000000       0x74 ../../../platform/sam/drivers/bpm/bpm.o
                0x20000000                bpm_ps_no_halt_exec
 .ramfunc       0x20000074        0xa ../../../platform/common/services/delay/sam/cycle_counter.o
                0x20000074                portable_delay_cycles
 *(.data .data.*)
 .data.appState
                0x2000007e        0x1 TC_lldn.o
                0x2000007e                appState
 .data.last_dir
                0x2000007f        0x1 ../../../stack/LwMesh/TDMA/services/sal/at86rf2xx/src/sal.o
 .data.SPI_AT86RFX_DEVICE
                0x20000080        0x4 ../../../stack/LwMesh/TDMA/services/trx_access/trx_access.o
                0x20000080                SPI_AT86RFX_DEVICE
 .data.flashcalw_wait_until_ready
                0x20000084        0x4 ../../../platform/sam/drivers/flashcalw/flashcalw.o
                0x20000084                flashcalw_wait_until_ready
 .data.udc_string_desc_languageid
                0x20000088        0x4 ../../../platform/common/services/usb/udc/udc.o
 .data.udc_string_manufacturer_name
                0x2000008c        0x6 ../../../platform/common/services/usb/udc/udc.o
 *fill*         0x20000092        0x2 
 .data.udc_string_product_name
                0x20000094       0x27 ../../../platform/common/services/usb/udc/udc.o
 *fill*         0x200000bb        0x1 
 .data.udc_string_desc
                0x200000bc       0x4e ../../../platform/common/services/usb/udc/udc.o
 *fill*         0x2000010a        0x2 
 .data.udi_api_cdc_comm
                0x2000010c       0x14 ../../../platform/common/services/usb/class/cdc/device/udi_cdc.o
                0x2000010c                udi_api_cdc_comm
 .data.udi_api_cdc_data
                0x20000120       0x14 ../../../platform/common/services/usb/class/cdc/device/udi_cdc.o
                0x20000120                udi_api_cdc_data
 .data.udc_device_desc
                0x20000134       0x12 ../../../platform/common/services/usb/class/cdc/device/udi_cdc_desc.o
                0x20000134                udc_device_desc
 *fill*         0x20000146        0x2 
 .data.udc_desc_fs
                0x20000148       0x43 ../../../platform/common/services/usb/class/cdc/device/udi_cdc_desc.o
                0x20000148                udc_desc_fs
 *fill*         0x2000018b        0x1 
 .data.udi_apis
                0x2000018c        0x8 ../../../platform/common/services/usb/class/cdc/device/udi_cdc_desc.o
                0x2000018c                udi_apis
 .data.udc_config_fs
                0x20000194        0x8 ../../../platform/common/services/usb/class/cdc/device/udi_cdc_desc.o
                0x20000194                udc_config_fs
 .data.udc_config
                0x2000019c        0x8 ../../../platform/common/services/usb/class/cdc/device/udi_cdc_desc.o
                0x2000019c                udc_config
 .data.g_interrupt_enabled
                0x200001a4        0x1 ../../../platform/common/utils/interrupt\interrupt_sam_nvic.o
                0x200001a4                g_interrupt_enabled
 *fill*         0x200001a5        0x3 
 .data._impure_ptr
                0x200001a8        0x4 c:/program files (x86)/atmel/studio/7.0/toolchain/arm/arm-gnu-toolchain/bin/../lib/gcc/arm-none-eabi/6.3.1/../../../../arm-none-eabi/lib/thumb/v7e-m\libg.a(lib_a-impure.o)
                0x200001a8                _impure_ptr
 *fill*         0x200001ac        0x4 
 .data.impure_data
                0x200001b0      0x428 c:/program files (x86)/atmel/studio/7.0/toolchain/arm/arm-gnu-toolchain/bin/../lib/gcc/arm-none-eabi/6.3.1/../../../../arm-none-eabi/lib/thumb/v7e-m\libg.a(lib_a-impure.o)
 .data.__atexit_recursive_mutex
                0x200005d8        0x4 c:/program files (x86)/atmel/studio/7.0/toolchain/arm/arm-gnu-toolchain/bin/../lib/gcc/arm-none-eabi/6.3.1/../../../../arm-none-eabi/lib/thumb/v7e-m\libg.a(lib_a-__call_atexit.o)
                0x200005d8                __atexit_recursive_mutex
 .data.__malloc_av_
                0x200005dc      0x408 c:/program files (x86)/atmel/studio/7.0/toolchain/arm/arm-gnu-toolchain/bin/../lib/gcc/arm-none-eabi/6.3.1/../../../../arm-none-eabi/lib/thumb/v7e-m\libg.a(lib_a-mallocr.o)
                0x200005dc                __malloc_av_
 .data.__malloc_sbrk_base
                0x200009e4        0x4 c:/program files (x86)/atmel/studio/7.0/toolchain/arm/arm-gnu-toolchain/bin/../lib/gcc/arm-none-eabi/6.3.1/../../../../arm-none-eabi/lib/thumb/v7e-m\libg.a(lib_a-mallocr.o)
                0x200009e4                __malloc_sbrk_base
 .data.__malloc_trim_threshold
                0x200009e8        0x4 c:/program files (x86)/atmel/studio/7.0/toolchain/arm/arm-gnu-toolchain/bin/../lib/gcc/arm-none-eabi/6.3.1/../../../../arm-none-eabi/lib/thumb/v7e-m\libg.a(lib_a-mallocr.o)
                0x200009e8                __malloc_trim_threshold
 .data.__global_locale
                0x200009ec      0x16c c:/program files (x86)/atmel/studio/7.0/toolchain/arm/arm-gnu-toolchain/bin/../lib/gcc/arm-none-eabi/6.3.1/../../../../arm-none-eabi/lib/thumb/v7e-m\libg.a(lib_a-locale.o)
                0x200009ec                __global_locale
                0x20000b58                . = ALIGN (0x4)
                0x20000b58                _erelocate = .

.bss            0x20000b60     0x1638 load address 0x000183a0
                0x20000b60                . = ALIGN (0x4)
                0x20000b60                _sbss = .
                0x20000b60                _szero = .
 *(.bss .bss.*)
 .bss           0x20000b60       0x1c c:/program files (x86)/atmel/studio/7.0/toolchain/arm/arm-gnu-toolchain/bin/../lib/gcc/arm-none-eabi/6.3.1/thumb/v7e-m/crtbegin.o
 .bss.tmrComputeData
                0x20000b7c       0x14 TC_lldn.o
 .bss.nwkDataReqQueue
                0x20000b90        0x4 ../../../stack/LwMesh/TDMA/nwk/src/nwkDataReq.o
 .bss.nwkFrameFrames
                0x20000b94      0xb04 ../../../stack/LwMesh/TDMA/nwk/src/nwkFrame.o
 .bss.nwkGroups
                0x20001698        0x6 ../../../stack/LwMesh/TDMA/nwk/src/nwkGroup.o
 *fill*         0x2000169e        0x2 
 .bss.nwkRxDuplicateRejectionTable
                0x200016a0      0x12c ../../../stack/LwMesh/TDMA/nwk/src/nwkRx.o
 .bss.nwkRxAckControl
                0x200017cc        0x1 ../../../stack/LwMesh/TDMA/nwk/src/nwkRx.o
 *fill*         0x200017cd        0x3 
 .bss.nwkRxDuplicateRejectionTimer
                0x200017d0       0x14 ../../../stack/LwMesh/TDMA/nwk/src/nwkRx.o
 .bss.nwkTxPhyActiveFrame
                0x200017e4        0x4 ../../../stack/LwMesh/TDMA/nwk/src/nwkTx.o
 .bss.nwkTxAckWaitTimer
                0x200017e8       0x14 ../../../stack/LwMesh/TDMA/nwk/src/nwkTx.o
 .bss.nwkTxDelayTimer
                0x200017fc       0x14 ../../../stack/LwMesh/TDMA/nwk/src/nwkTx.o
 .bss.phyState  0x20001810        0x1 ../../../stack/LwMesh/TDMA/phy/AT86RF233/src/phy.o
 *fill*         0x20001811        0x3 
 .bss.phyRxBuffer
                0x20001814       0x80 ../../../stack/LwMesh/TDMA/phy/AT86RF233/src/phy.o
 .bss.phyRxState
                0x20001894        0x1 ../../../stack/LwMesh/TDMA/phy/AT86RF233/src/phy.o
 *fill*         0x20001895        0x3 
 .bss.timers    0x20001898        0x4 ../../../stack/LwMesh/TDMA/sys/src/sysTimer.o
 .bss.setup_flag
                0x2000189c        0x1 ../../../stack/LwMesh/TDMA/services/sal/at86rf2xx/src/sal.o
 .bss.dec_initialized
                0x2000189d        0x1 ../../../stack/LwMesh/TDMA/services/sal/at86rf2xx/src/sal.o
 *fill*         0x2000189e        0x2 
 .bss.aes_buf   0x200018a0       0x12 ../../../stack/LwMesh/TDMA/services/sal/at86rf2xx/src/sal.o
 *fill*         0x200018b2        0x2 
 .bss.enc_key   0x200018b4       0x10 ../../../stack/LwMesh/TDMA/services/sal/at86rf2xx/src/sal.o
 .bss.dec_key   0x200018c4       0x10 ../../../stack/LwMesh/TDMA/services/sal/at86rf2xx/src/sal.o
 .bss.irq_hdl_trx
                0x200018d4        0x4 ../../../stack/LwMesh/TDMA/services/trx_access/trx_access.o
 .bss.heap.5297
                0x200018d8        0x4 ../../../platform/sam/utils/syscalls/gcc/syscalls.o
 .bss.stacked_r0.8186
                0x200018dc        0x4 ../../../platform/sam/utils/syscalls/gcc/hardfault_handler_c.o
 .bss.stacked_r1.8187
                0x200018e0        0x4 ../../../platform/sam/utils/syscalls/gcc/hardfault_handler_c.o
 .bss.stacked_r2.8188
                0x200018e4        0x4 ../../../platform/sam/utils/syscalls/gcc/hardfault_handler_c.o
 .bss.stacked_r3.8189
                0x200018e8        0x4 ../../../platform/sam/utils/syscalls/gcc/hardfault_handler_c.o
 .bss.stacked_r12.8190
                0x200018ec        0x4 ../../../platform/sam/utils/syscalls/gcc/hardfault_handler_c.o
 .bss.stacked_lr.8191
                0x200018f0        0x4 ../../../platform/sam/utils/syscalls/gcc/hardfault_handler_c.o
 .bss.stacked_pc.8192
                0x200018f4        0x4 ../../../platform/sam/utils/syscalls/gcc/hardfault_handler_c.o
 .bss.stacked_psr.8193
                0x200018f8        0x4 ../../../platform/sam/utils/syscalls/gcc/hardfault_handler_c.o
 .bss.flashcalw_error_status
                0x200018fc        0x4 ../../../platform/sam/drivers/flashcalw/flashcalw.o
 .bss.gpio_int_sources
                0x20001900       0x30 ../../../platform/sam/drivers/gpio/gpio.o
 .bss.gpio_nb_sources
                0x20001930        0x4 ../../../platform/sam/drivers/gpio/gpio.o
 .bss.reg_value.8780
                0x20001934        0x4 ../../../platform/sam/drivers/spi/spi.o
 .bss.udd_b_idle
                0x20001938        0x1 ../../../platform/sam/drivers/usbc/usbc_device.o
 *fill*         0x20001939        0x7 
 .bss.udd_g_ep_table
                0x20001940       0x80 ../../../platform/sam/drivers/usbc/usbc_device.o
 .bss.udd_ep_control_state
                0x200019c0        0x1 ../../../platform/sam/drivers/usbc/usbc_device.o
 *fill*         0x200019c1        0x1 
 .bss.udd_ctrl_prev_payload_nb_trans
                0x200019c2        0x2 ../../../platform/sam/drivers/usbc/usbc_device.o
 .bss.udd_ctrl_payload_nb_trans
                0x200019c4        0x2 ../../../platform/sam/drivers/usbc/usbc_device.o
 *fill*         0x200019c6        0x2 
 .bss.udd_ep_job
                0x200019c8       0x3c ../../../platform/sam/drivers/usbc/usbc_device.o
 .bss.b_shortpacket.9372
                0x20001a04        0x1 ../../../platform/sam/drivers/usbc/usbc_device.o
 .bss.open_loop_done.8576
                0x20001a05        0x1 ../../../platform/common/services/clock/sam4l/dfll.o
 .bss.udc_device_status
                0x20001a06        0x2 ../../../platform/common/services/usb/udc/udc.o
 .bss.udc_num_configuration
                0x20001a08        0x1 ../../../platform/common/services/usb/udc/udc.o
 *fill*         0x20001a09        0x3 
 .bss.udc_ptr_conf
                0x20001a0c        0x4 ../../../platform/common/services/usb/udc/udc.o
 .bss.udc_ptr_iface
                0x20001a10        0x4 ../../../platform/common/services/usb/udc/udc.o
 .bss.udc_ep_status.8256
                0x20001a14        0x2 ../../../platform/common/services/usb/udc/udc.o
 .bss.udc_iface_setting.8314
                0x20001a16        0x1 ../../../platform/common/services/usb/udc/udc.o
 *fill*         0x20001a17        0x1 
 .bss.udi_cdc_line_coding
                0x20001a18        0x7 ../../../platform/common/services/usb/class/cdc/device/udi_cdc.o
 *fill*         0x20001a1f        0x1 
 .bss.udi_cdc_serial_state_msg_ongoing
                0x20001a20        0x1 ../../../platform/common/services/usb/class/cdc/device/udi_cdc.o
 *fill*         0x20001a21        0x3 
 .bss.udi_cdc_state
                0x20001a24        0x2 ../../../platform/common/services/usb/class/cdc/device/udi_cdc.o
 *fill*         0x20001a26        0x2 
 .bss.uid_cdc_state_msg
                0x20001a28        0xa ../../../platform/common/services/usb/class/cdc/device/udi_cdc.o
 .bss.udi_cdc_nb_comm_enabled
                0x20001a32        0x1 ../../../platform/common/services/usb/class/cdc/device/udi_cdc.o
 .bss.udi_cdc_nb_data_enabled
                0x20001a33        0x1 ../../../platform/common/services/usb/class/cdc/device/udi_cdc.o
 .bss.udi_cdc_data_running
                0x20001a34        0x1 ../../../platform/common/services/usb/class/cdc/device/udi_cdc.o
 *fill*         0x20001a35        0x3 
 .bss.udi_cdc_rx_buf
                0x20001a38      0x280 ../../../platform/common/services/usb/class/cdc/device/udi_cdc.o
 .bss.udi_cdc_rx_buf_nb
                0x20001cb8        0x4 ../../../platform/common/services/usb/class/cdc/device/udi_cdc.o
 .bss.udi_cdc_rx_buf_sel
                0x20001cbc        0x1 ../../../platform/common/services/usb/class/cdc/device/udi_cdc.o
 *fill*         0x20001cbd        0x3 
 .bss.udi_cdc_rx_pos
                0x20001cc0        0x2 ../../../platform/common/services/usb/class/cdc/device/udi_cdc.o
 *fill*         0x20001cc2        0x2 
 .bss.udi_cdc_rx_trans_ongoing
                0x20001cc4        0x1 ../../../platform/common/services/usb/class/cdc/device/udi_cdc.o
 *fill*         0x20001cc5        0x3 
 .bss.udi_cdc_tx_buf
                0x20001cc8      0x280 ../../../platform/common/services/usb/class/cdc/device/udi_cdc.o
 .bss.udi_cdc_tx_buf_nb
                0x20001f48        0x4 ../../../platform/common/services/usb/class/cdc/device/udi_cdc.o
 .bss.udi_cdc_tx_buf_sel
                0x20001f4c        0x1 ../../../platform/common/services/usb/class/cdc/device/udi_cdc.o
 *fill*         0x20001f4d        0x3 
 .bss.udi_cdc_tx_sof_num
                0x20001f50        0x2 ../../../platform/common/services/usb/class/cdc/device/udi_cdc.o
 *fill*         0x20001f52        0x2 
 .bss.udi_cdc_tx_trans_ongoing
                0x20001f54        0x1 ../../../platform/common/services/usb/class/cdc/device/udi_cdc.o
 *fill*         0x20001f55        0x3 
 .bss.udi_cdc_tx_both_buf_to_send
                0x20001f58        0x1 ../../../platform/common/services/usb/class/cdc/device/udi_cdc.o
 .bss.port_notify.8461
                0x20001f59        0x1 ../../../platform/common/services/usb/class/cdc/device/udi_cdc.o
 .bss.sof_zlp_counter.8531
                0x20001f5a        0x2 ../../../platform/common/services/usb/class/cdc/device/udi_cdc.o
 .bss.stdio_usb_interface_enable
                0x20001f5c        0x1 ../../../platform/common/utils/stdio/stdio_usb/stdio_usb.o
 *fill*         0x20001f5d        0x3 
 .bss           0x20001f60       0x14 ../../../stack/LwMesh/TDMA/services/common_hw_timer/sam/lib\libsam4l_lib_hw_timer.a(common_hw_timer.o)
 .bss.__malloc_current_mallinfo
                0x20001f74       0x28 c:/program files (x86)/atmel/studio/7.0/toolchain/arm/arm-gnu-toolchain/bin/../lib/gcc/arm-none-eabi/6.3.1/../../../../arm-none-eabi/lib/thumb/v7e-m\libg.a(lib_a-mallocr.o)
                0x20001f74                __malloc_current_mallinfo
 .bss.__malloc_max_sbrked_mem
                0x20001f9c        0x4 c:/program files (x86)/atmel/studio/7.0/toolchain/arm/arm-gnu-toolchain/bin/../lib/gcc/arm-none-eabi/6.3.1/../../../../arm-none-eabi/lib/thumb/v7e-m\libg.a(lib_a-mallocr.o)
                0x20001f9c                __malloc_max_sbrked_mem
 .bss.__malloc_max_total_mem
                0x20001fa0        0x4 c:/program files (x86)/atmel/studio/7.0/toolchain/arm/arm-gnu-toolchain/bin/../lib/gcc/arm-none-eabi/6.3.1/../../../../arm-none-eabi/lib/thumb/v7e-m\libg.a(lib_a-mallocr.o)
                0x20001fa0                __malloc_max_total_mem
 .bss.__malloc_top_pad
                0x20001fa4        0x4 c:/program files (x86)/atmel/studio/7.0/toolchain/arm/arm-gnu-toolchain/bin/../lib/gcc/arm-none-eabi/6.3.1/../../../../arm-none-eabi/lib/thumb/v7e-m\libg.a(lib_a-mallocr.o)
                0x20001fa4                __malloc_top_pad
 *(COMMON)
 COMMON         0x20001fa8        0x8 TC_lldn.o
                0x20001fa8                n
                0x20001fac                tmr_callback
 COMMON         0x20001fb0       0x4c ../../../stack/LwMesh/TDMA/nwk/src/nwk.o
                0x20001fb0                nwkIb
 COMMON         0x20001ffc        0x1 ../../../stack/LwMesh/TDMA/sys/src/sysTimer.o
                0x20001ffc                SysTimerIrqCount
 *fill*         0x20001ffd        0x3 
 COMMON         0x20002000        0x8 ../../../stack/LwMesh/TDMA/services/sleep_mgr/sam4l/sleep_mgr.o
                0x20002000                ast_alarm
                0x20002004                ast_counter
 COMMON         0x20002008       0x14 ../../../platform/sam/drivers/ast/ast.o
                0x20002008                ast_callback_pointer
 COMMON         0x2000201c       0x24 ../../../platform/sam/drivers/eic/eic.o
                0x2000201c                eic_callback_pointer
 COMMON         0x20002040      0x118 ../../../platform/sam/drivers/usbc/usbc_device.o
                0x20002040                udd_ep_out_cache_buffer
                0x20002100                udd_g_ctrlreq
                0x20002118                udd_ctrl_buffer
 COMMON         0x20002158        0x8 ../../../platform/common/services/sleepmgr/sam/sleepmgr.o
                0x20002158                sleepmgr_locks
 COMMON         0x20002160        0x4 ../../../platform/common/utils/stdio/read.o
                0x20002160                ptr_get
 COMMON         0x20002164        0x8 ../../../platform/common/utils/stdio/write.o
                0x20002164                ptr_put
                0x20002168                stdio_base
 COMMON         0x2000216c        0x1 ../../../stack/LwMesh/TDMA/services/common_hw_timer/sam/lib\libsam4l_lib_hw_timer.a(common_hw_timer.o)
                0x2000216c                timer_multiplier
 *fill*         0x2000216d        0x3 
 COMMON         0x20002170       0x21 c:/program files (x86)/atmel/studio/7.0/toolchain/arm/arm-gnu-toolchain/bin/../lib/gcc/arm-none-eabi/6.3.1/../../../../arm-none-eabi/lib/thumb/v7e-m\libg.a(lib_a-lock.o)
                0x20002170                __lock___atexit_recursive_mutex
                0x20002174                __lock___arc4random_mutex
                0x20002178                __lock___env_recursive_mutex
                0x2000217c                __lock___sinit_recursive_mutex
                0x20002180                __lock___malloc_recursive_mutex
                0x20002184                __lock___at_quick_exit_mutex
                0x20002188                __lock___dd_hash_mutex
                0x2000218c                __lock___tz_mutex
                0x20002190                __lock___sfp_recursive_mutex
 *fill*         0x20002191        0x3 
 COMMON         0x20002194        0x4 c:/program files (x86)/atmel/studio/7.0/toolchain/arm/arm-gnu-toolchain/bin/../lib/gcc/arm-none-eabi/6.3.1/../../../../arm-none-eabi/lib/thumb/v7e-m\libg.a(lib_a-reent.o)
                0x20002194                errno
                0x20002198                . = ALIGN (0x4)
                0x20002198                _ebss = .
                0x20002198                _ezero = .

.stack          0x20002198     0x1000 load address 0x000199d8
                0x20002198                . = ALIGN (0x8)
                0x20002198                _sstack = .
                0x20003198                . = (. + __stack_size__)
 *fill*         0x20002198     0x1000 
                0x20003198                . = ALIGN (0x8)
                0x20003198                _estack = .
                0x20003198                . = ALIGN (0x4)
                0x20003198                _end = .
START GROUP
LOAD c:/program files (x86)/atmel/studio/7.0/toolchain/arm/arm-gnu-toolchain/bin/../lib/gcc/arm-none-eabi/6.3.1/thumb/v7e-m\libgcc.a
LOAD c:/program files (x86)/atmel/studio/7.0/toolchain/arm/arm-gnu-toolchain/bin/../lib/gcc/arm-none-eabi/6.3.1/../../../../arm-none-eabi/lib/thumb/v7e-m\libg.a
LOAD c:/program files (x86)/atmel/studio/7.0/toolchain/arm/arm-gnu-toolchain/bin/../lib/gcc/arm-none-eabi/6.3.1/../../../../arm-none-eabi/lib/thumb/v7e-m\libc.a
END GROUP
LOAD c:/program files (x86)/atmel/studio/7.0/toolchain/arm/arm-gnu-toolchain/bin/../lib/gcc/arm-none-eabi/6.3.1/thumb/v7e-m/crtend.o
LOAD c:/program files (x86)/atmel/studio/7.0/toolchain/arm/arm-gnu-toolchain/bin/../lib/gcc/arm-none-eabi/6.3.1/thumb/v7e-m/crtn.o
OUTPUT(exp2_sam4lc2b_wm400_coordinator.elf elf32-littlearm)

.ARM.attributes
                0x00000000       0x2a
 .ARM.attributes
                0x00000000       0x1e c:/program files (x86)/atmel/studio/7.0/toolchain/arm/arm-gnu-toolchain/bin/../lib/gcc/arm-none-eabi/6.3.1/thumb/v7e-m/crti.o
 .ARM.attributes
                0x0000001e       0x2e c:/program files (x86)/atmel/studio/7.0/toolchain/arm/arm-gnu-toolchain/bin/../lib/gcc/arm-none-eabi/6.3.1/thumb/v7e-m/crtbegin.o
 .ARM.attributes
                0x0000004c       0x33 TC_lldn.o
 .ARM.attributes
                0x0000007f       0x33 ../../../stack/LwMesh/TDMA/nwk/src/nwk.o
 .ARM.attributes
                0x000000b2       0x33 ../../../stack/LwMesh/TDMA/nwk/src/nwkDataReq.o
 .ARM.attributes
                0x000000e5       0x33 ../../../stack/LwMesh/TDMA/nwk/src/nwkFrame.o
 .ARM.attributes
                0x00000118       0x33 ../../../stack/LwMesh/TDMA/nwk/src/nwkGroup.o
 .ARM.attributes
                0x0000014b       0x33 ../../../stack/LwMesh/TDMA/nwk/src/nwkRx.o
 .ARM.attributes
                0x0000017e       0x33 ../../../stack/LwMesh/TDMA/nwk/src/nwkTx.o
 .ARM.attributes
                0x000001b1       0x33 ../../../stack/LwMesh/TDMA/phy/AT86RF233/src/phy.o
 .ARM.attributes
                0x000001e4       0x33 ../../../stack/LwMesh/TDMA/sys/src/sys.o
 .ARM.attributes
                0x00000217       0x33 ../../../stack/LwMesh/TDMA/sys/src/sysTimer.o
 .ARM.attributes
                0x0000024a       0x33 ../../../stack/LwMesh/TDMA/services/common_hw_timer/sam/hw_timer.o
 .ARM.attributes
                0x0000027d       0x33 ../../../stack/LwMesh/TDMA/services/sal/at86rf2xx/src/sal.o
 .ARM.attributes
                0x000002b0       0x33 ../../../stack/LwMesh/TDMA/services/sleep_mgr/sam4l/sleep_mgr.o
 .ARM.attributes
                0x000002e3       0x33 ../../../stack/LwMesh/TDMA/services/trx_access/trx_access.o
 .ARM.attributes
                0x00000316       0x33 ../../../platform/sam/utils/cmsis/sam4l/source/templates/exceptions.o
 .ARM.attributes
                0x00000349       0x33 ../../../platform/sam/utils/cmsis/sam4l/source/templates/gcc/startup_sam4l.o
 .ARM.attributes
                0x0000037c       0x33 ../../../platform/sam/utils/syscalls/gcc/syscalls.o
 .ARM.attributes
                0x000003af       0x33 ../../../platform/sam/utils/syscalls/gcc/hardfault_handler_c.o
 .ARM.attributes
                0x000003e2       0x33 ../../../platform/sam/drivers/ast/ast.o
 .ARM.attributes
                0x00000415       0x33 ../../../platform/sam/drivers/bpm/bpm.o
 .ARM.attributes
                0x00000448       0x33 ../../../platform/sam/drivers/flashcalw/flashcalw.o
 .ARM.attributes
                0x0000047b       0x33 ../../../platform/sam/drivers/gpio/gpio.o
 .ARM.attributes
                0x000004ae       0x33 ../../../platform/sam/drivers/eic/eic.o
 .ARM.attributes
                0x000004e1       0x33 ../../../platform/sam/drivers/spi/spi.o
 .ARM.attributes
                0x00000514       0x33 ../../../platform/sam/drivers/tc/tc.o
 .ARM.attributes
                0x00000547       0x33 ../../../platform/sam/drivers/usbc/usbc_device.o
 .ARM.attributes
                0x0000057a       0x33 ../../../platform/sam/drivers/wdt/wdt_sam4l.o
 .ARM.attributes
                0x000005ad       0x33 ../../../platform/common/services/clock/sam4l/sysclk.o
 .ARM.attributes
                0x000005e0       0x33 ../../../platform/common/services/clock/sam4l/dfll.o
 .ARM.attributes
                0x00000613       0x33 ../../../platform/common/services/clock/sam4l/osc.o
 .ARM.attributes
                0x00000646       0x33 ../../../platform/common/services/clock/sam4l/pll.o
 .ARM.attributes
                0x00000679       0x33 ../../../platform/common/services/delay/sam/cycle_counter.o
 .ARM.attributes
                0x000006ac       0x33 ../../../platform/common/services/spi/sam_spi/spi_master.o
 .ARM.attributes
                0x000006df       0x33 ../../../platform/common/services/sleepmgr/sam/sleepmgr.o
 .ARM.attributes
                0x00000712       0x33 ../../../platform/common/services/usb/udc/udc.o
 .ARM.attributes
                0x00000745       0x33 ../../../platform/common/services/usb/class/cdc/device/udi_cdc.o
 .ARM.attributes
                0x00000778       0x33 ../../../platform/common/services/usb/class/cdc/device/udi_cdc_desc.o
 .ARM.attributes
                0x000007ab       0x33 ../../../platform/common/utils/interrupt\interrupt_sam_nvic.o
 .ARM.attributes
                0x000007de       0x33 ../../../platform/common/utils/stdio/read.o
 .ARM.attributes
                0x00000811       0x33 ../../../platform/common/utils/stdio/write.o
 .ARM.attributes
                0x00000844       0x33 ../../../platform/common/utils/stdio/stdio_usb/stdio_usb.o
 .ARM.attributes
                0x00000877       0x33 ../../../board/WM400/src/board_init.o
 .ARM.attributes
                0x000008aa       0x21 ../../../platform/sam/utils/syscalls/gcc/hardfault_handler.o
 .ARM.attributes
                0x000008cb       0x33 ../../../stack/LwMesh/TDMA/services/common_hw_timer/sam/lib\libsam4l_lib_hw_timer.a(common_hw_timer.o)
 .ARM.attributes
                0x000008fe       0x2e c:/program files (x86)/atmel/studio/7.0/toolchain/arm/arm-gnu-toolchain/bin/../lib/gcc/arm-none-eabi/6.3.1/../../../../arm-none-eabi/lib/thumb/v7e-m\libg.a(lib_a-impure.o)
 .ARM.attributes
                0x0000092c       0x2e c:/program files (x86)/atmel/studio/7.0/toolchain/arm/arm-gnu-toolchain/bin/../lib/gcc/arm-none-eabi/6.3.1/../../../../arm-none-eabi/lib/thumb/v7e-m\libg.a(lib_a-init.o)
 .ARM.attributes
                0x0000095a       0x1c c:/program files (x86)/atmel/studio/7.0/toolchain/arm/arm-gnu-toolchain/bin/../lib/gcc/arm-none-eabi/6.3.1/../../../../arm-none-eabi/lib/thumb/v7e-m\libg.a(lib_a-memcpy.o)
 .ARM.attributes
                0x00000976       0x2e c:/program files (x86)/atmel/studio/7.0/toolchain/arm/arm-gnu-toolchain/bin/../lib/gcc/arm-none-eabi/6.3.1/../../../../arm-none-eabi/lib/thumb/v7e-m\libg.a(lib_a-memset.o)
 .ARM.attributes
                0x000009a4       0x2e c:/program files (x86)/atmel/studio/7.0/toolchain/arm/arm-gnu-toolchain/bin/../lib/gcc/arm-none-eabi/6.3.1/../../../../arm-none-eabi/lib/thumb/v7e-m\libg.a(lib_a-printf.o)
 .ARM.attributes
                0x000009d2       0x2e c:/program files (x86)/atmel/studio/7.0/toolchain/arm/arm-gnu-toolchain/bin/../lib/gcc/arm-none-eabi/6.3.1/../../../../arm-none-eabi/lib/thumb/v7e-m\libg.a(lib_a-rand.o)
 .ARM.attributes
                0x00000a00       0x2e c:/program files (x86)/atmel/studio/7.0/toolchain/arm/arm-gnu-toolchain/bin/../lib/gcc/arm-none-eabi/6.3.1/../../../../arm-none-eabi/lib/thumb/v7e-m\libg.a(lib_a-setbuf.o)
 .ARM.attributes
                0x00000a2e       0x2e c:/program files (x86)/atmel/studio/7.0/toolchain/arm/arm-gnu-toolchain/bin/../lib/gcc/arm-none-eabi/6.3.1/../../../../arm-none-eabi/lib/thumb/v7e-m\libg.a(lib_a-setvbuf.o)
 .ARM.attributes
                0x00000a5c       0x2e c:/program files (x86)/atmel/studio/7.0/toolchain/arm/arm-gnu-toolchain/bin/../lib/gcc/arm-none-eabi/6.3.1/../../../../arm-none-eabi/lib/thumb/v7e-m\libg.a(lib_a-vfprintf.o)
 .ARM.attributes
                0x00000a8a       0x2e c:/program files (x86)/atmel/studio/7.0/toolchain/arm/arm-gnu-toolchain/bin/../lib/gcc/arm-none-eabi/6.3.1/../../../../arm-none-eabi/lib/thumb/v7e-m\libg.a(lib_a-wsetup.o)
 .ARM.attributes
                0x00000ab8       0x2e c:/program files (x86)/atmel/studio/7.0/toolchain/arm/arm-gnu-toolchain/bin/../lib/gcc/arm-none-eabi/6.3.1/../../../../arm-none-eabi/lib/thumb/v7e-m\libg.a(lib_a-__call_atexit.o)
 .ARM.attributes
                0x00000ae6       0x2e c:/program files (x86)/atmel/studio/7.0/toolchain/arm/arm-gnu-toolchain/bin/../lib/gcc/arm-none-eabi/6.3.1/../../../../arm-none-eabi/lib/thumb/v7e-m\libg.a(lib_a-atexit.o)
 .ARM.attributes
                0x00000b14       0x2e c:/program files (x86)/atmel/studio/7.0/toolchain/arm/arm-gnu-toolchain/bin/../lib/gcc/arm-none-eabi/6.3.1/../../../../arm-none-eabi/lib/thumb/v7e-m\libg.a(lib_a-dtoa.o)
 .ARM.attributes
                0x00000b42       0x2e c:/program files (x86)/atmel/studio/7.0/toolchain/arm/arm-gnu-toolchain/bin/../lib/gcc/arm-none-eabi/6.3.1/../../../../arm-none-eabi/lib/thumb/v7e-m\libg.a(lib_a-fflush.o)
 .ARM.attributes
                0x00000b70       0x2e c:/program files (x86)/atmel/studio/7.0/toolchain/arm/arm-gnu-toolchain/bin/../lib/gcc/arm-none-eabi/6.3.1/../../../../arm-none-eabi/lib/thumb/v7e-m\libg.a(lib_a-findfp.o)
 .ARM.attributes
                0x00000b9e       0x2e c:/program files (x86)/atmel/studio/7.0/toolchain/arm/arm-gnu-toolchain/bin/../lib/gcc/arm-none-eabi/6.3.1/../../../../arm-none-eabi/lib/thumb/v7e-m\libg.a(lib_a-fini.o)
 .ARM.attributes
                0x00000bcc       0x2e c:/program files (x86)/atmel/studio/7.0/toolchain/arm/arm-gnu-toolchain/bin/../lib/gcc/arm-none-eabi/6.3.1/../../../../arm-none-eabi/lib/thumb/v7e-m\libg.a(lib_a-freer.o)
 .ARM.attributes
                0x00000bfa       0x2e c:/program files (x86)/atmel/studio/7.0/toolchain/arm/arm-gnu-toolchain/bin/../lib/gcc/arm-none-eabi/6.3.1/../../../../arm-none-eabi/lib/thumb/v7e-m\libg.a(lib_a-fwalk.o)
 .ARM.attributes
                0x00000c28       0x2e c:/program files (x86)/atmel/studio/7.0/toolchain/arm/arm-gnu-toolchain/bin/../lib/gcc/arm-none-eabi/6.3.1/../../../../arm-none-eabi/lib/thumb/v7e-m\libg.a(lib_a-localeconv.o)
 .ARM.attributes
                0x00000c56       0x2e c:/program files (x86)/atmel/studio/7.0/toolchain/arm/arm-gnu-toolchain/bin/../lib/gcc/arm-none-eabi/6.3.1/../../../../arm-none-eabi/lib/thumb/v7e-m\libg.a(lib_a-lock.o)
 .ARM.attributes
                0x00000c84       0x2e c:/program files (x86)/atmel/studio/7.0/toolchain/arm/arm-gnu-toolchain/bin/../lib/gcc/arm-none-eabi/6.3.1/../../../../arm-none-eabi/lib/thumb/v7e-m\libg.a(lib_a-makebuf.o)
 .ARM.attributes
                0x00000cb2       0x2e c:/program files (x86)/atmel/studio/7.0/toolchain/arm/arm-gnu-toolchain/bin/../lib/gcc/arm-none-eabi/6.3.1/../../../../arm-none-eabi/lib/thumb/v7e-m\libg.a(lib_a-malloc.o)
 .ARM.attributes
                0x00000ce0       0x2e c:/program files (x86)/atmel/studio/7.0/toolchain/arm/arm-gnu-toolchain/bin/../lib/gcc/arm-none-eabi/6.3.1/../../../../arm-none-eabi/lib/thumb/v7e-m\libg.a(lib_a-mallocr.o)
 .ARM.attributes
                0x00000d0e       0x1c c:/program files (x86)/atmel/studio/7.0/toolchain/arm/arm-gnu-toolchain/bin/../lib/gcc/arm-none-eabi/6.3.1/../../../../arm-none-eabi/lib/thumb/v7e-m\libg.a(lib_a-memchr.o)
 .ARM.attributes
                0x00000d2a       0x2e c:/program files (x86)/atmel/studio/7.0/toolchain/arm/arm-gnu-toolchain/bin/../lib/gcc/arm-none-eabi/6.3.1/../../../../arm-none-eabi/lib/thumb/v7e-m\libg.a(lib_a-mlock.o)
 .ARM.attributes
                0x00000d58       0x2e c:/program files (x86)/atmel/studio/7.0/toolchain/arm/arm-gnu-toolchain/bin/../lib/gcc/arm-none-eabi/6.3.1/../../../../arm-none-eabi/lib/thumb/v7e-m\libg.a(lib_a-mprec.o)
 .ARM.attributes
                0x00000d86       0x2e c:/program files (x86)/atmel/studio/7.0/toolchain/arm/arm-gnu-toolchain/bin/../lib/gcc/arm-none-eabi/6.3.1/../../../../arm-none-eabi/lib/thumb/v7e-m\libg.a(lib_a-sbrkr.o)
 .ARM.attributes
                0x00000db4       0x2e c:/program files (x86)/atmel/studio/7.0/toolchain/arm/arm-gnu-toolchain/bin/../lib/gcc/arm-none-eabi/6.3.1/../../../../arm-none-eabi/lib/thumb/v7e-m\libg.a(lib_a-stdio.o)
 .ARM.attributes
                0x00000de2       0x1c c:/program files (x86)/atmel/studio/7.0/toolchain/arm/arm-gnu-toolchain/bin/../lib/gcc/arm-none-eabi/6.3.1/../../../../arm-none-eabi/lib/thumb/v7e-m\libg.a(lib_a-strlen.o)
 .ARM.attributes
                0x00000dfe       0x2e c:/program files (x86)/atmel/studio/7.0/toolchain/arm/arm-gnu-toolchain/bin/../lib/gcc/arm-none-eabi/6.3.1/../../../../arm-none-eabi/lib/thumb/v7e-m\libg.a(lib_a-vfiprintf.o)
 .ARM.attributes
                0x00000e2c       0x2e c:/program files (x86)/atmel/studio/7.0/toolchain/arm/arm-gnu-toolchain/bin/../lib/gcc/arm-none-eabi/6.3.1/../../../../arm-none-eabi/lib/thumb/v7e-m\libg.a(lib_a-writer.o)
 .ARM.attributes
                0x00000e5a       0x2e c:/program files (x86)/atmel/studio/7.0/toolchain/arm/arm-gnu-toolchain/bin/../lib/gcc/arm-none-eabi/6.3.1/../../../../arm-none-eabi/lib/thumb/v7e-m\libg.a(lib_a-__atexit.o)
 .ARM.attributes
                0x00000e88       0x2e c:/program files (x86)/atmel/studio/7.0/toolchain/arm/arm-gnu-toolchain/bin/../lib/gcc/arm-none-eabi/6.3.1/../../../../arm-none-eabi/lib/thumb/v7e-m\libg.a(lib_a-callocr.o)
 .ARM.attributes
                0x00000eb6       0x2e c:/program files (x86)/atmel/studio/7.0/toolchain/arm/arm-gnu-toolchain/bin/../lib/gcc/arm-none-eabi/6.3.1/../../../../arm-none-eabi/lib/thumb/v7e-m\libg.a(lib_a-closer.o)
 .ARM.attributes
                0x00000ee4       0x2e c:/program files (x86)/atmel/studio/7.0/toolchain/arm/arm-gnu-toolchain/bin/../lib/gcc/arm-none-eabi/6.3.1/../../../../arm-none-eabi/lib/thumb/v7e-m\libg.a(lib_a-fclose.o)
 .ARM.attributes
                0x00000f12       0x2e c:/program files (x86)/atmel/studio/7.0/toolchain/arm/arm-gnu-toolchain/bin/../lib/gcc/arm-none-eabi/6.3.1/../../../../arm-none-eabi/lib/thumb/v7e-m\libg.a(lib_a-fputwc.o)
 .ARM.attributes
                0x00000f40       0x2e c:/program files (x86)/atmel/studio/7.0/toolchain/arm/arm-gnu-toolchain/bin/../lib/gcc/arm-none-eabi/6.3.1/../../../../arm-none-eabi/lib/thumb/v7e-m\libg.a(lib_a-fstatr.o)
 .ARM.attributes
                0x00000f6e       0x2e c:/program files (x86)/atmel/studio/7.0/toolchain/arm/arm-gnu-toolchain/bin/../lib/gcc/arm-none-eabi/6.3.1/../../../../arm-none-eabi/lib/thumb/v7e-m\libg.a(lib_a-fvwrite.o)
 .ARM.attributes
                0x00000f9c       0x2e c:/program files (x86)/atmel/studio/7.0/toolchain/arm/arm-gnu-toolchain/bin/../lib/gcc/arm-none-eabi/6.3.1/../../../../arm-none-eabi/lib/thumb/v7e-m\libg.a(lib_a-isattyr.o)
 .ARM.attributes
                0x00000fca       0x2e c:/program files (x86)/atmel/studio/7.0/toolchain/arm/arm-gnu-toolchain/bin/../lib/gcc/arm-none-eabi/6.3.1/../../../../arm-none-eabi/lib/thumb/v7e-m\libg.a(lib_a-locale.o)
 .ARM.attributes
                0x00000ff8       0x2e c:/program files (x86)/atmel/studio/7.0/toolchain/arm/arm-gnu-toolchain/bin/../lib/gcc/arm-none-eabi/6.3.1/../../../../arm-none-eabi/lib/thumb/v7e-m\libg.a(lib_a-lseekr.o)
 .ARM.attributes
                0x00001026       0x2e c:/program files (x86)/atmel/studio/7.0/toolchain/arm/arm-gnu-toolchain/bin/../lib/gcc/arm-none-eabi/6.3.1/../../../../arm-none-eabi/lib/thumb/v7e-m\libg.a(lib_a-mbtowc_r.o)
 .ARM.attributes
                0x00001054       0x2e c:/program files (x86)/atmel/studio/7.0/toolchain/arm/arm-gnu-toolchain/bin/../lib/gcc/arm-none-eabi/6.3.1/../../../../arm-none-eabi/lib/thumb/v7e-m\libg.a(lib_a-memmove.o)
 .ARM.attributes
                0x00001082       0x2e c:/program files (x86)/atmel/studio/7.0/toolchain/arm/arm-gnu-toolchain/bin/../lib/gcc/arm-none-eabi/6.3.1/../../../../arm-none-eabi/lib/thumb/v7e-m\libg.a(lib_a-readr.o)
 .ARM.attributes
                0x000010b0       0x2e c:/program files (x86)/atmel/studio/7.0/toolchain/arm/arm-gnu-toolchain/bin/../lib/gcc/arm-none-eabi/6.3.1/../../../../arm-none-eabi/lib/thumb/v7e-m\libg.a(lib_a-reallocr.o)
 .ARM.attributes
                0x000010de       0x2e c:/program files (x86)/atmel/studio/7.0/toolchain/arm/arm-gnu-toolchain/bin/../lib/gcc/arm-none-eabi/6.3.1/../../../../arm-none-eabi/lib/thumb/v7e-m\libg.a(lib_a-reent.o)
 .ARM.attributes
                0x0000110c       0x2e c:/program files (x86)/atmel/studio/7.0/toolchain/arm/arm-gnu-toolchain/bin/../lib/gcc/arm-none-eabi/6.3.1/../../../../arm-none-eabi/lib/thumb/v7e-m\libg.a(lib_a-wbuf.o)
 .ARM.attributes
                0x0000113a       0x2e c:/program files (x86)/atmel/studio/7.0/toolchain/arm/arm-gnu-toolchain/bin/../lib/gcc/arm-none-eabi/6.3.1/../../../../arm-none-eabi/lib/thumb/v7e-m\libg.a(lib_a-wcrtomb.o)
 .ARM.attributes
                0x00001168       0x2e c:/program files (x86)/atmel/studio/7.0/toolchain/arm/arm-gnu-toolchain/bin/../lib/gcc/arm-none-eabi/6.3.1/../../../../arm-none-eabi/lib/thumb/v7e-m\libg.a(lib_a-wctomb_r.o)
 .ARM.attributes
                0x00001196       0x2e c:/program files (x86)/atmel/studio/7.0/toolchain/arm/arm-gnu-toolchain/bin/../lib/gcc/arm-none-eabi/6.3.1/../../../../arm-none-eabi/lib/thumb/v7e-m\libg.a(lib_a-ctype_.o)
 .ARM.attributes
                0x000011c4       0x1e c:/program files (x86)/atmel/studio/7.0/toolchain/arm/arm-gnu-toolchain/bin/../lib/gcc/arm-none-eabi/6.3.1/thumb/v7e-m\libgcc.a(_arm_addsubdf3.o)
 .ARM.attributes
                0x000011e2       0x1e c:/program files (x86)/atmel/studio/7.0/toolchain/arm/arm-gnu-toolchain/bin/../lib/gcc/arm-none-eabi/6.3.1/thumb/v7e-m\libgcc.a(_arm_muldivdf3.o)
 .ARM.attributes
                0x00001200       0x1e c:/program files (x86)/atmel/studio/7.0/toolchain/arm/arm-gnu-toolchain/bin/../lib/gcc/arm-none-eabi/6.3.1/thumb/v7e-m\libgcc.a(_arm_cmpdf2.o)
 .ARM.attributes
                0x0000121e       0x1e c:/program files (x86)/atmel/studio/7.0/toolchain/arm/arm-gnu-toolchain/bin/../lib/gcc/arm-none-eabi/6.3.1/thumb/v7e-m\libgcc.a(_arm_unorddf2.o)
 .ARM.attributes
                0x0000123c       0x1e c:/program files (x86)/atmel/studio/7.0/toolchain/arm/arm-gnu-toolchain/bin/../lib/gcc/arm-none-eabi/6.3.1/thumb/v7e-m\libgcc.a(_arm_fixdfsi.o)
 .ARM.attributes
                0x0000125a       0x1e c:/program files (x86)/atmel/studio/7.0/toolchain/arm/arm-gnu-toolchain/bin/../lib/gcc/arm-none-eabi/6.3.1/thumb/v7e-m\libgcc.a(_aeabi_uldivmod.o)
 .ARM.attributes
                0x00001278       0x2e c:/program files (x86)/atmel/studio/7.0/toolchain/arm/arm-gnu-toolchain/bin/../lib/gcc/arm-none-eabi/6.3.1/thumb/v7e-m\libgcc.a(_udivmoddi4.o)
 .ARM.attributes
                0x000012a6       0x1e c:/program files (x86)/atmel/studio/7.0/toolchain/arm/arm-gnu-toolchain/bin/../lib/gcc/arm-none-eabi/6.3.1/thumb/v7e-m\libgcc.a(_dvmd_tls.o)
 .ARM.attributes
                0x000012c4       0x1e c:/program files (x86)/atmel/studio/7.0/toolchain/arm/arm-gnu-toolchain/bin/../lib/gcc/arm-none-eabi/6.3.1/thumb/v7e-m/crtn.o

.comment        0x00000000       0x8c
 .comment       0x00000000       0x59 TC_lldn.o
                                 0x5a (size before relaxing)
 .comment       0x00000059       0x5a ../../../stack/LwMesh/TDMA/nwk/src/nwk.o
 .comment       0x00000059       0x5a ../../../stack/LwMesh/TDMA/nwk/src/nwkDataReq.o
 .comment       0x00000059       0x5a ../../../stack/LwMesh/TDMA/nwk/src/nwkFrame.o
 .comment       0x00000059       0x5a ../../../stack/LwMesh/TDMA/nwk/src/nwkGroup.o
 .comment       0x00000059       0x5a ../../../stack/LwMesh/TDMA/nwk/src/nwkRx.o
 .comment       0x00000059       0x5a ../../../stack/LwMesh/TDMA/nwk/src/nwkTx.o
 .comment       0x00000059       0x5a ../../../stack/LwMesh/TDMA/phy/AT86RF233/src/phy.o
 .comment       0x00000059       0x5a ../../../stack/LwMesh/TDMA/sys/src/sys.o
 .comment       0x00000059       0x5a ../../../stack/LwMesh/TDMA/sys/src/sysTimer.o
 .comment       0x00000059       0x5a ../../../stack/LwMesh/TDMA/services/common_hw_timer/sam/hw_timer.o
 .comment       0x00000059       0x5a ../../../stack/LwMesh/TDMA/services/sal/at86rf2xx/src/sal.o
 .comment       0x00000059       0x5a ../../../stack/LwMesh/TDMA/services/sleep_mgr/sam4l/sleep_mgr.o
 .comment       0x00000059       0x5a ../../../stack/LwMesh/TDMA/services/trx_access/trx_access.o
 .comment       0x00000059       0x5a ../../../platform/sam/utils/cmsis/sam4l/source/templates/exceptions.o
 .comment       0x00000059       0x5a ../../../platform/sam/utils/cmsis/sam4l/source/templates/gcc/startup_sam4l.o
 .comment       0x00000059       0x5a ../../../platform/sam/utils/syscalls/gcc/syscalls.o
 .comment       0x00000059       0x5a ../../../platform/sam/utils/syscalls/gcc/hardfault_handler_c.o
 .comment       0x00000059       0x5a ../../../platform/sam/drivers/ast/ast.o
 .comment       0x00000059       0x5a ../../../platform/sam/drivers/bpm/bpm.o
 .comment       0x00000059       0x5a ../../../platform/sam/drivers/flashcalw/flashcalw.o
 .comment       0x00000059       0x5a ../../../platform/sam/drivers/gpio/gpio.o
 .comment       0x00000059       0x5a ../../../platform/sam/drivers/eic/eic.o
 .comment       0x00000059       0x5a ../../../platform/sam/drivers/spi/spi.o
 .comment       0x00000059       0x5a ../../../platform/sam/drivers/tc/tc.o
 .comment       0x00000059       0x5a ../../../platform/sam/drivers/usbc/usbc_device.o
 .comment       0x00000059       0x5a ../../../platform/sam/drivers/wdt/wdt_sam4l.o
 .comment       0x00000059       0x5a ../../../platform/common/services/clock/sam4l/sysclk.o
 .comment       0x00000059       0x5a ../../../platform/common/services/clock/sam4l/dfll.o
 .comment       0x00000059       0x5a ../../../platform/common/services/clock/sam4l/osc.o
 .comment       0x00000059       0x5a ../../../platform/common/services/clock/sam4l/pll.o
 .comment       0x00000059       0x5a ../../../platform/common/services/delay/sam/cycle_counter.o
 .comment       0x00000059       0x5a ../../../platform/common/services/spi/sam_spi/spi_master.o
 .comment       0x00000059       0x5a ../../../platform/common/services/sleepmgr/sam/sleepmgr.o
 .comment       0x00000059       0x5a ../../../platform/common/services/usb/udc/udc.o
 .comment       0x00000059       0x5a ../../../platform/common/services/usb/class/cdc/device/udi_cdc.o
 .comment       0x00000059       0x5a ../../../platform/common/services/usb/class/cdc/device/udi_cdc_desc.o
 .comment       0x00000059       0x5a ../../../platform/common/utils/interrupt\interrupt_sam_nvic.o
 .comment       0x00000059       0x5a ../../../platform/common/utils/stdio/read.o
 .comment       0x00000059       0x5a ../../../platform/common/utils/stdio/write.o
 .comment       0x00000059       0x5a ../../../platform/common/utils/stdio/stdio_usb/stdio_usb.o
 .comment       0x00000059       0x5a ../../../board/WM400/src/board_init.o
 .comment       0x00000059       0x33 ../../../stack/LwMesh/TDMA/services/common_hw_timer/sam/lib\libsam4l_lib_hw_timer.a(common_hw_timer.o)
                                 0x34 (size before relaxing)

.debug_info     0x00000000    0x3b3ae
 .debug_info    0x00000000     0x24a8 TC_lldn.o
 .debug_info    0x000024a8     0x1266 ../../../stack/LwMesh/TDMA/nwk/src/nwk.o
 .debug_info    0x0000370e     0x1950 ../../../stack/LwMesh/TDMA/nwk/src/nwkDataReq.o
 .debug_info    0x0000505e     0x1677 ../../../stack/LwMesh/TDMA/nwk/src/nwkFrame.o
 .debug_info    0x000066d5      0xf6e ../../../stack/LwMesh/TDMA/nwk/src/nwkGroup.o
 .debug_info    0x00007643     0x1dc6 ../../../stack/LwMesh/TDMA/nwk/src/nwkRx.o
 .debug_info    0x00009409     0x1acf ../../../stack/LwMesh/TDMA/nwk/src/nwkTx.o
 .debug_info    0x0000aed8     0x1d8a ../../../stack/LwMesh/TDMA/phy/AT86RF233/src/phy.o
 .debug_info    0x0000cc62     0x1055 ../../../stack/LwMesh/TDMA/sys/src/sys.o
 .debug_info    0x0000dcb7      0xe1b ../../../stack/LwMesh/TDMA/sys/src/sysTimer.o
 .debug_info    0x0000ead2     0x188c ../../../stack/LwMesh/TDMA/services/common_hw_timer/sam/hw_timer.o
 .debug_info    0x0001035e     0x10d6 ../../../stack/LwMesh/TDMA/services/sal/at86rf2xx/src/sal.o
 .debug_info    0x00011434     0x20e5 ../../../stack/LwMesh/TDMA/services/sleep_mgr/sam4l/sleep_mgr.o
 .debug_info    0x00013519     0x28d0 ../../../stack/LwMesh/TDMA/services/trx_access/trx_access.o
 .debug_info    0x00015de9       0xd6 ../../../platform/sam/utils/cmsis/sam4l/source/templates/exceptions.o
 .debug_info    0x00015ebf      0x3c1 ../../../platform/sam/utils/cmsis/sam4l/source/templates/gcc/startup_sam4l.o
 .debug_info    0x00016280      0xdd2 ../../../platform/sam/utils/syscalls/gcc/syscalls.o
 .debug_info    0x00017052      0xeeb ../../../platform/sam/utils/syscalls/gcc/hardfault_handler_c.o
 .debug_info    0x00017f3d     0x2025 ../../../platform/sam/drivers/ast/ast.o
 .debug_info    0x00019f62     0x1707 ../../../platform/sam/drivers/bpm/bpm.o
 .debug_info    0x0001b669     0x2334 ../../../platform/sam/drivers/flashcalw/flashcalw.o
 .debug_info    0x0001d99d     0x1dfe ../../../platform/sam/drivers/gpio/gpio.o
 .debug_info    0x0001f79b     0x1a5b ../../../platform/sam/drivers/eic/eic.o
 .debug_info    0x000211f6     0x14ce ../../../platform/sam/drivers/spi/spi.o
 .debug_info    0x000226c4     0x1224 ../../../platform/sam/drivers/tc/tc.o
 .debug_info    0x000238e8     0x3243 ../../../platform/sam/drivers/usbc/usbc_device.o
 .debug_info    0x00026b2b     0x1391 ../../../platform/sam/drivers/wdt/wdt_sam4l.o
 .debug_info    0x00027ebc     0x25f1 ../../../platform/common/services/clock/sam4l/sysclk.o
 .debug_info    0x0002a4ad     0x1c03 ../../../platform/common/services/clock/sam4l/dfll.o
 .debug_info    0x0002c0b0     0x17b7 ../../../platform/common/services/clock/sam4l/osc.o
 .debug_info    0x0002d867     0x1380 ../../../platform/common/services/clock/sam4l/pll.o
 .debug_info    0x0002ebe7      0xa41 ../../../platform/common/services/delay/sam/cycle_counter.o
 .debug_info    0x0002f628     0x1772 ../../../platform/common/services/spi/sam_spi/spi_master.o
 .debug_info    0x00030d9a      0xa96 ../../../platform/common/services/sleepmgr/sam/sleepmgr.o
 .debug_info    0x00031830     0x1807 ../../../platform/common/services/usb/udc/udc.o
 .debug_info    0x00033037     0x1e34 ../../../platform/common/services/usb/class/cdc/device/udi_cdc.o
 .debug_info    0x00034e6b     0x125a ../../../platform/common/services/usb/class/cdc/device/udi_cdc_desc.o
 .debug_info    0x000360c5      0xafe ../../../platform/common/utils/interrupt\interrupt_sam_nvic.o
 .debug_info    0x00036bc3      0xab1 ../../../platform/common/utils/stdio/read.o
 .debug_info    0x00037674      0xaba ../../../platform/common/utils/stdio/write.o
 .debug_info    0x0003812e      0xf65 ../../../platform/common/utils/stdio/stdio_usb/stdio_usb.o
 .debug_info    0x00039093     0x1f66 ../../../board/WM400/src/board_init.o
 .debug_info    0x0003aff9       0xc2 ../../../platform/sam/utils/syscalls/gcc/hardfault_handler.o
 .debug_info    0x0003b0bb      0x2f3 ../../../stack/LwMesh/TDMA/services/common_hw_timer/sam/lib\libsam4l_lib_hw_timer.a(common_hw_timer.o)

.debug_abbrev   0x00000000     0x79db
 .debug_abbrev  0x00000000      0x3bc TC_lldn.o
 .debug_abbrev  0x000003bc      0x279 ../../../stack/LwMesh/TDMA/nwk/src/nwk.o
 .debug_abbrev  0x00000635      0x30e ../../../stack/LwMesh/TDMA/nwk/src/nwkDataReq.o
 .debug_abbrev  0x00000943      0x266 ../../../stack/LwMesh/TDMA/nwk/src/nwkFrame.o
 .debug_abbrev  0x00000ba9      0x246 ../../../stack/LwMesh/TDMA/nwk/src/nwkGroup.o
 .debug_abbrev  0x00000def      0x37c ../../../stack/LwMesh/TDMA/nwk/src/nwkRx.o
 .debug_abbrev  0x0000116b      0x34c ../../../stack/LwMesh/TDMA/nwk/src/nwkTx.o
 .debug_abbrev  0x000014b7      0x41a ../../../stack/LwMesh/TDMA/phy/AT86RF233/src/phy.o
 .debug_abbrev  0x000018d1      0x1ec ../../../stack/LwMesh/TDMA/sys/src/sys.o
 .debug_abbrev  0x00001abd      0x2ef ../../../stack/LwMesh/TDMA/sys/src/sysTimer.o
 .debug_abbrev  0x00001dac      0x3c0 ../../../stack/LwMesh/TDMA/services/common_hw_timer/sam/hw_timer.o
 .debug_abbrev  0x0000216c      0x2a6 ../../../stack/LwMesh/TDMA/services/sal/at86rf2xx/src/sal.o
 .debug_abbrev  0x00002412      0x3a8 ../../../stack/LwMesh/TDMA/services/sleep_mgr/sam4l/sleep_mgr.o
 .debug_abbrev  0x000027ba      0x4a8 ../../../stack/LwMesh/TDMA/services/trx_access/trx_access.o
 .debug_abbrev  0x00002c62       0x78 ../../../platform/sam/utils/cmsis/sam4l/source/templates/exceptions.o
 .debug_abbrev  0x00002cda      0x118 ../../../platform/sam/utils/cmsis/sam4l/source/templates/gcc/startup_sam4l.o
 .debug_abbrev  0x00002df2      0x22b ../../../platform/sam/utils/syscalls/gcc/syscalls.o
 .debug_abbrev  0x0000301d      0x1de ../../../platform/sam/utils/syscalls/gcc/hardfault_handler_c.o
 .debug_abbrev  0x000031fb      0x3fd ../../../platform/sam/drivers/ast/ast.o
 .debug_abbrev  0x000035f8      0x2e7 ../../../platform/sam/drivers/bpm/bpm.o
 .debug_abbrev  0x000038df      0x402 ../../../platform/sam/drivers/flashcalw/flashcalw.o
 .debug_abbrev  0x00003ce1      0x305 ../../../platform/sam/drivers/gpio/gpio.o
 .debug_abbrev  0x00003fe6      0x370 ../../../platform/sam/drivers/eic/eic.o
 .debug_abbrev  0x00004356      0x2e0 ../../../platform/sam/drivers/spi/spi.o
 .debug_abbrev  0x00004636      0x252 ../../../platform/sam/drivers/tc/tc.o
 .debug_abbrev  0x00004888      0x4cf ../../../platform/sam/drivers/usbc/usbc_device.o
 .debug_abbrev  0x00004d57      0x2e3 ../../../platform/sam/drivers/wdt/wdt_sam4l.o
 .debug_abbrev  0x0000503a      0x44d ../../../platform/common/services/clock/sam4l/sysclk.o
 .debug_abbrev  0x00005487      0x358 ../../../platform/common/services/clock/sam4l/dfll.o
 .debug_abbrev  0x000057df      0x287 ../../../platform/common/services/clock/sam4l/osc.o
 .debug_abbrev  0x00005a66      0x296 ../../../platform/common/services/clock/sam4l/pll.o
 .debug_abbrev  0x00005cfc      0x1b0 ../../../platform/common/services/delay/sam/cycle_counter.o
 .debug_abbrev  0x00005eac      0x31e ../../../platform/common/services/spi/sam_spi/spi_master.o
 .debug_abbrev  0x000061ca      0x1af ../../../platform/common/services/sleepmgr/sam/sleepmgr.o
 .debug_abbrev  0x00006379      0x362 ../../../platform/common/services/usb/udc/udc.o
 .debug_abbrev  0x000066db      0x45c ../../../platform/common/services/usb/class/cdc/device/udi_cdc.o
 .debug_abbrev  0x00006b37      0x1e9 ../../../platform/common/services/usb/class/cdc/device/udi_cdc_desc.o
 .debug_abbrev  0x00006d20      0x20f ../../../platform/common/utils/interrupt\interrupt_sam_nvic.o
 .debug_abbrev  0x00006f2f      0x1d5 ../../../platform/common/utils/stdio/read.o
 .debug_abbrev  0x00007104      0x1d5 ../../../platform/common/utils/stdio/write.o
 .debug_abbrev  0x000072d9      0x25b ../../../platform/common/utils/stdio/stdio_usb/stdio_usb.o
 .debug_abbrev  0x00007534      0x365 ../../../board/WM400/src/board_init.o
 .debug_abbrev  0x00007899       0x14 ../../../platform/sam/utils/syscalls/gcc/hardfault_handler.o
 .debug_abbrev  0x000078ad      0x12e ../../../stack/LwMesh/TDMA/services/common_hw_timer/sam/lib\libsam4l_lib_hw_timer.a(common_hw_timer.o)

.debug_loc      0x00000000     0xc947
 .debug_loc     0x00000000      0x880 TC_lldn.o
 .debug_loc     0x00000880      0x2f8 ../../../stack/LwMesh/TDMA/nwk/src/nwk.o
 .debug_loc     0x00000b78      0x1e0 ../../../stack/LwMesh/TDMA/nwk/src/nwkDataReq.o
 .debug_loc     0x00000d58      0x210 ../../../stack/LwMesh/TDMA/nwk/src/nwkFrame.o
 .debug_loc     0x00000f68      0x1b4 ../../../stack/LwMesh/TDMA/nwk/src/nwkGroup.o
 .debug_loc     0x0000111c      0x518 ../../../stack/LwMesh/TDMA/nwk/src/nwkRx.o
 .debug_loc     0x00001634      0x440 ../../../stack/LwMesh/TDMA/nwk/src/nwkTx.o
 .debug_loc     0x00001a74      0x654 ../../../stack/LwMesh/TDMA/phy/AT86RF233/src/phy.o
 .debug_loc     0x000020c8       0x58 ../../../stack/LwMesh/TDMA/sys/src/sys.o
 .debug_loc     0x00002120      0x314 ../../../stack/LwMesh/TDMA/sys/src/sysTimer.o
 .debug_loc     0x00002434      0x4d8 ../../../stack/LwMesh/TDMA/services/common_hw_timer/sam/hw_timer.o
 .debug_loc     0x0000290c      0x1c8 ../../../stack/LwMesh/TDMA/services/sal/at86rf2xx/src/sal.o
 .debug_loc     0x00002ad4      0x524 ../../../stack/LwMesh/TDMA/services/sleep_mgr/sam4l/sleep_mgr.o
 .debug_loc     0x00002ff8      0x832 ../../../stack/LwMesh/TDMA/services/trx_access/trx_access.o
 .debug_loc     0x0000382a       0x2c ../../../platform/sam/utils/cmsis/sam4l/source/templates/exceptions.o
 .debug_loc     0x00003856       0x38 ../../../platform/sam/utils/cmsis/sam4l/source/templates/gcc/startup_sam4l.o
 .debug_loc     0x0000388e      0x300 ../../../platform/sam/utils/syscalls/gcc/syscalls.o
 .debug_loc     0x00003b8e       0x38 ../../../platform/sam/utils/syscalls/gcc/hardfault_handler_c.o
 .debug_loc     0x00003bc6      0xa60 ../../../platform/sam/drivers/ast/ast.o
 .debug_loc     0x00004626      0x888 ../../../platform/sam/drivers/bpm/bpm.o
 .debug_loc     0x00004eae     0x1468 ../../../platform/sam/drivers/flashcalw/flashcalw.o
 .debug_loc     0x00006316      0x450 ../../../platform/sam/drivers/gpio/gpio.o
 .debug_loc     0x00006766      0x640 ../../../platform/sam/drivers/eic/eic.o
 .debug_loc     0x00006da6      0x590 ../../../platform/sam/drivers/spi/spi.o
 .debug_loc     0x00007336      0x78e ../../../platform/sam/drivers/tc/tc.o
 .debug_loc     0x00007ac4      0xd18 ../../../platform/sam/drivers/usbc/usbc_device.o
 .debug_loc     0x000087dc      0x2b8 ../../../platform/sam/drivers/wdt/wdt_sam4l.o
 .debug_loc     0x00008a94      0xe44 ../../../platform/common/services/clock/sam4l/sysclk.o
 .debug_loc     0x000098d8      0x714 ../../../platform/common/services/clock/sam4l/dfll.o
 .debug_loc     0x00009fec      0x4c8 ../../../platform/common/services/clock/sam4l/osc.o
 .debug_loc     0x0000a4b4      0x1f8 ../../../platform/common/services/clock/sam4l/pll.o
 .debug_loc     0x0000a6ac      0x79c ../../../platform/common/services/spi/sam_spi/spi_master.o
 .debug_loc     0x0000ae48      0x71c ../../../platform/common/services/usb/udc/udc.o
 .debug_loc     0x0000b564      0xd1c ../../../platform/common/services/usb/class/cdc/device/udi_cdc.o
 .debug_loc     0x0000c280       0xa0 ../../../platform/common/utils/interrupt\interrupt_sam_nvic.o
 .debug_loc     0x0000c320       0x50 ../../../platform/common/utils/stdio/read.o
 .debug_loc     0x0000c370       0x50 ../../../platform/common/utils/stdio/write.o
 .debug_loc     0x0000c3c0      0x154 ../../../platform/common/utils/stdio/stdio_usb/stdio_usb.o
 .debug_loc     0x0000c514      0x24a ../../../board/WM400/src/board_init.o
 .debug_loc     0x0000c75e      0x1e9 ../../../stack/LwMesh/TDMA/services/common_hw_timer/sam/lib\libsam4l_lib_hw_timer.a(common_hw_timer.o)

.debug_aranges  0x00000000      0x5c0
 .debug_aranges
                0x00000000       0x20 TC_lldn.o
 .debug_aranges
                0x00000020       0x20 ../../../stack/LwMesh/TDMA/nwk/src/nwk.o
 .debug_aranges
                0x00000040       0x20 ../../../stack/LwMesh/TDMA/nwk/src/nwkDataReq.o
 .debug_aranges
                0x00000060       0x20 ../../../stack/LwMesh/TDMA/nwk/src/nwkFrame.o
 .debug_aranges
                0x00000080       0x20 ../../../stack/LwMesh/TDMA/nwk/src/nwkGroup.o
 .debug_aranges
                0x000000a0       0x20 ../../../stack/LwMesh/TDMA/nwk/src/nwkRx.o
 .debug_aranges
                0x000000c0       0x20 ../../../stack/LwMesh/TDMA/nwk/src/nwkTx.o
 .debug_aranges
                0x000000e0       0x20 ../../../stack/LwMesh/TDMA/phy/AT86RF233/src/phy.o
 .debug_aranges
                0x00000100       0x20 ../../../stack/LwMesh/TDMA/sys/src/sys.o
 .debug_aranges
                0x00000120       0x20 ../../../stack/LwMesh/TDMA/sys/src/sysTimer.o
 .debug_aranges
                0x00000140       0x20 ../../../stack/LwMesh/TDMA/services/common_hw_timer/sam/hw_timer.o
 .debug_aranges
                0x00000160       0x20 ../../../stack/LwMesh/TDMA/services/sal/at86rf2xx/src/sal.o
 .debug_aranges
                0x00000180       0x20 ../../../stack/LwMesh/TDMA/services/sleep_mgr/sam4l/sleep_mgr.o
 .debug_aranges
                0x000001a0       0x20 ../../../stack/LwMesh/TDMA/services/trx_access/trx_access.o
 .debug_aranges
                0x000001c0       0x20 ../../../platform/sam/utils/cmsis/sam4l/source/templates/exceptions.o
 .debug_aranges
                0x000001e0       0x20 ../../../platform/sam/utils/cmsis/sam4l/source/templates/gcc/startup_sam4l.o
 .debug_aranges
                0x00000200       0x20 ../../../platform/sam/utils/syscalls/gcc/syscalls.o
 .debug_aranges
                0x00000220       0x20 ../../../platform/sam/utils/syscalls/gcc/hardfault_handler_c.o
 .debug_aranges
                0x00000240       0x20 ../../../platform/sam/drivers/ast/ast.o
 .debug_aranges
                0x00000260       0x28 ../../../platform/sam/drivers/bpm/bpm.o
 .debug_aranges
                0x00000288       0x20 ../../../platform/sam/drivers/flashcalw/flashcalw.o
 .debug_aranges
                0x000002a8       0x20 ../../../platform/sam/drivers/gpio/gpio.o
 .debug_aranges
                0x000002c8       0x20 ../../../platform/sam/drivers/eic/eic.o
 .debug_aranges
                0x000002e8       0x20 ../../../platform/sam/drivers/spi/spi.o
 .debug_aranges
                0x00000308       0x20 ../../../platform/sam/drivers/tc/tc.o
 .debug_aranges
                0x00000328       0x20 ../../../platform/sam/drivers/usbc/usbc_device.o
 .debug_aranges
                0x00000348       0x20 ../../../platform/sam/drivers/wdt/wdt_sam4l.o
 .debug_aranges
                0x00000368       0x20 ../../../platform/common/services/clock/sam4l/sysclk.o
 .debug_aranges
                0x00000388       0x20 ../../../platform/common/services/clock/sam4l/dfll.o
 .debug_aranges
                0x000003a8       0x20 ../../../platform/common/services/clock/sam4l/osc.o
 .debug_aranges
                0x000003c8       0x20 ../../../platform/common/services/clock/sam4l/pll.o
 .debug_aranges
                0x000003e8       0x20 ../../../platform/common/services/delay/sam/cycle_counter.o
 .debug_aranges
                0x00000408       0x20 ../../../platform/common/services/spi/sam_spi/spi_master.o
 .debug_aranges
                0x00000428       0x18 ../../../platform/common/services/sleepmgr/sam/sleepmgr.o
 .debug_aranges
                0x00000440       0x20 ../../../platform/common/services/usb/udc/udc.o
 .debug_aranges
                0x00000460       0x20 ../../../platform/common/services/usb/class/cdc/device/udi_cdc.o
 .debug_aranges
                0x00000480       0x18 ../../../platform/common/services/usb/class/cdc/device/udi_cdc_desc.o
 .debug_aranges
                0x00000498       0x20 ../../../platform/common/utils/interrupt\interrupt_sam_nvic.o
 .debug_aranges
                0x000004b8       0x20 ../../../platform/common/utils/stdio/read.o
 .debug_aranges
                0x000004d8       0x20 ../../../platform/common/utils/stdio/write.o
 .debug_aranges
                0x000004f8       0x20 ../../../platform/common/utils/stdio/stdio_usb/stdio_usb.o
 .debug_aranges
                0x00000518       0x20 ../../../board/WM400/src/board_init.o
 .debug_aranges
                0x00000538       0x20 ../../../platform/sam/utils/syscalls/gcc/hardfault_handler.o
 .debug_aranges
                0x00000558       0x68 ../../../stack/LwMesh/TDMA/services/common_hw_timer/sam/lib\libsam4l_lib_hw_timer.a(common_hw_timer.o)

.debug_line     0x00000000     0xf13e
 .debug_line    0x00000000      0x8ac TC_lldn.o
 .debug_line    0x000008ac      0x54a ../../../stack/LwMesh/TDMA/nwk/src/nwk.o
 .debug_line    0x00000df6      0x573 ../../../stack/LwMesh/TDMA/nwk/src/nwkDataReq.o
 .debug_line    0x00001369      0x50a ../../../stack/LwMesh/TDMA/nwk/src/nwkFrame.o
 .debug_line    0x00001873      0x490 ../../../stack/LwMesh/TDMA/nwk/src/nwkGroup.o
 .debug_line    0x00001d03      0x7be ../../../stack/LwMesh/TDMA/nwk/src/nwkRx.o
 .debug_line    0x000024c1      0x617 ../../../stack/LwMesh/TDMA/nwk/src/nwkTx.o
 .debug_line    0x00002ad8      0x7ad ../../../stack/LwMesh/TDMA/phy/AT86RF233/src/phy.o
 .debug_line    0x00003285      0x528 ../../../stack/LwMesh/TDMA/sys/src/sys.o
 .debug_line    0x000037ad      0x47f ../../../stack/LwMesh/TDMA/sys/src/sysTimer.o
 .debug_line    0x00003c2c      0x683 ../../../stack/LwMesh/TDMA/services/common_hw_timer/sam/hw_timer.o
 .debug_line    0x000042af      0x549 ../../../stack/LwMesh/TDMA/services/sal/at86rf2xx/src/sal.o
 .debug_line    0x000047f8      0x787 ../../../stack/LwMesh/TDMA/services/sleep_mgr/sam4l/sleep_mgr.o
 .debug_line    0x00004f7f      0x83f ../../../stack/LwMesh/TDMA/services/trx_access/trx_access.o
 .debug_line    0x000057be      0x1af ../../../platform/sam/utils/cmsis/sam4l/source/templates/exceptions.o
 .debug_line    0x0000596d      0x210 ../../../platform/sam/utils/cmsis/sam4l/source/templates/gcc/startup_sam4l.o
 .debug_line    0x00005b7d      0x298 ../../../platform/sam/utils/syscalls/gcc/syscalls.o
 .debug_line    0x00005e15      0x472 ../../../platform/sam/utils/syscalls/gcc/hardfault_handler_c.o
 .debug_line    0x00006287      0x83e ../../../platform/sam/drivers/ast/ast.o
 .debug_line    0x00006ac5      0x4cd ../../../platform/sam/drivers/bpm/bpm.o
 .debug_line    0x00006f92      0x963 ../../../platform/sam/drivers/flashcalw/flashcalw.o
 .debug_line    0x000078f5      0x5ee ../../../platform/sam/drivers/gpio/gpio.o
 .debug_line    0x00007ee3      0x6b4 ../../../platform/sam/drivers/eic/eic.o
 .debug_line    0x00008597      0x5ab ../../../platform/sam/drivers/spi/spi.o
 .debug_line    0x00008b42      0x41d ../../../platform/sam/drivers/tc/tc.o
 .debug_line    0x00008f5f      0x9a1 ../../../platform/sam/drivers/usbc/usbc_device.o
 .debug_line    0x00009900      0x628 ../../../platform/sam/drivers/wdt/wdt_sam4l.o
 .debug_line    0x00009f28      0x9fd ../../../platform/common/services/clock/sam4l/sysclk.o
 .debug_line    0x0000a925      0x749 ../../../platform/common/services/clock/sam4l/dfll.o
 .debug_line    0x0000b06e      0x5b8 ../../../platform/common/services/clock/sam4l/osc.o
 .debug_line    0x0000b626      0x55c ../../../platform/common/services/clock/sam4l/pll.o
 .debug_line    0x0000bb82      0x31d ../../../platform/common/services/delay/sam/cycle_counter.o
 .debug_line    0x0000be9f      0x651 ../../../platform/common/services/spi/sam_spi/spi_master.o
 .debug_line    0x0000c4f0      0x34a ../../../platform/common/services/sleepmgr/sam/sleepmgr.o
 .debug_line    0x0000c83a      0x5e0 ../../../platform/common/services/usb/udc/udc.o
 .debug_line    0x0000ce1a      0x696 ../../../platform/common/services/usb/class/cdc/device/udi_cdc.o
 .debug_line    0x0000d4b0      0x467 ../../../platform/common/services/usb/class/cdc/device/udi_cdc_desc.o
 .debug_line    0x0000d917      0x357 ../../../platform/common/utils/interrupt\interrupt_sam_nvic.o
 .debug_line    0x0000dc6e      0x32d ../../../platform/common/utils/stdio/read.o
 .debug_line    0x0000df9b      0x32a ../../../platform/common/utils/stdio/write.o
 .debug_line    0x0000e2c5      0x468 ../../../platform/common/utils/stdio/stdio_usb/stdio_usb.o
 .debug_line    0x0000e72d      0x6de ../../../board/WM400/src/board_init.o
 .debug_line    0x0000ee0b       0x70 ../../../platform/sam/utils/syscalls/gcc/hardfault_handler.o
 .debug_line    0x0000ee7b      0x2c3 ../../../stack/LwMesh/TDMA/services/common_hw_timer/sam/lib\libsam4l_lib_hw_timer.a(common_hw_timer.o)

.debug_str      0x00000000     0xb15b
 .debug_str     0x00000000     0x1796 TC_lldn.o
                               0x19d9 (size before relaxing)
 .debug_str     0x00001796      0x15d ../../../stack/LwMesh/TDMA/nwk/src/nwk.o
                                0xae2 (size before relaxing)
 .debug_str     0x000018f3      0x659 ../../../stack/LwMesh/TDMA/nwk/src/nwkDataReq.o
                               0x102f (size before relaxing)
 .debug_str     0x00001f4c       0x91 ../../../stack/LwMesh/TDMA/nwk/src/nwkFrame.o
                                0xd5b (size before relaxing)
 .debug_str     0x00001fdd       0x81 ../../../stack/LwMesh/TDMA/nwk/src/nwkGroup.o
                                0x973 (size before relaxing)
 .debug_str     0x0000205e      0x436 ../../../stack/LwMesh/TDMA/nwk/src/nwkRx.o
                               0x130e (size before relaxing)
 .debug_str     0x00002494      0x1e8 ../../../stack/LwMesh/TDMA/nwk/src/nwkTx.o
                               0x1172 (size before relaxing)
 .debug_str     0x0000267c      0x6d8 ../../../stack/LwMesh/TDMA/phy/AT86RF233/src/phy.o
                               0x114e (size before relaxing)
 .debug_str     0x00002d54       0x55 ../../../stack/LwMesh/TDMA/sys/src/sys.o
                                0xa1d (size before relaxing)
 .debug_str     0x00002da9      0x122 ../../../stack/LwMesh/TDMA/sys/src/sysTimer.o
                                0x845 (size before relaxing)
 .debug_str     0x00002ecb      0x168 ../../../stack/LwMesh/TDMA/services/common_hw_timer/sam/hw_timer.o
                               0x1156 (size before relaxing)
 .debug_str     0x00003033       0xed ../../../stack/LwMesh/TDMA/services/sal/at86rf2xx/src/sal.o
                                0xa4a (size before relaxing)
 .debug_str     0x00003120      0x558 ../../../stack/LwMesh/TDMA/services/sleep_mgr/sam4l/sleep_mgr.o
                               0x181a (size before relaxing)
 .debug_str     0x00003678      0x30f ../../../stack/LwMesh/TDMA/services/trx_access/trx_access.o
                               0x16f4 (size before relaxing)
 .debug_str     0x00003987       0x54 ../../../platform/sam/utils/cmsis/sam4l/source/templates/exceptions.o
                                0x249 (size before relaxing)
 .debug_str     0x000039db      0x12f ../../../platform/sam/utils/cmsis/sam4l/source/templates/gcc/startup_sam4l.o
                                0x345 (size before relaxing)
 .debug_str     0x00003b0a      0x190 ../../../platform/sam/utils/syscalls/gcc/syscalls.o
                                0x7b4 (size before relaxing)
 .debug_str     0x00003c9a       0xbc ../../../platform/sam/utils/syscalls/gcc/hardfault_handler_c.o
                                0x9a1 (size before relaxing)
 .debug_str     0x00003d56      0x2c9 ../../../platform/sam/drivers/ast/ast.o
                               0x1579 (size before relaxing)
 .debug_str     0x0000401f      0x206 ../../../platform/sam/drivers/bpm/bpm.o
                                0xc6a (size before relaxing)
 .debug_str     0x00004225      0xaa6 ../../../platform/sam/drivers/flashcalw/flashcalw.o
                               0x14cc (size before relaxing)
 .debug_str     0x00004ccb      0x173 ../../../platform/sam/drivers/gpio/gpio.o
                               0x144f (size before relaxing)
 .debug_str     0x00004e3e      0x20e ../../../platform/sam/drivers/eic/eic.o
                               0x120c (size before relaxing)
 .debug_str     0x0000504c      0x30e ../../../platform/sam/drivers/spi/spi.o
                                0xd09 (size before relaxing)
 .debug_str     0x0000535a      0x172 ../../../platform/sam/drivers/tc/tc.o
                                0x911 (size before relaxing)
 .debug_str     0x000054cc     0x1085 ../../../platform/sam/drivers/usbc/usbc_device.o
                               0x21c7 (size before relaxing)
 .debug_str     0x00006551      0x404 ../../../platform/sam/drivers/wdt/wdt_sam4l.o
                                0xf26 (size before relaxing)
 .debug_str     0x00006955      0x2d1 ../../../platform/common/services/clock/sam4l/sysclk.o
                               0x17ee (size before relaxing)
 .debug_str     0x00006c26      0x1f9 ../../../platform/common/services/clock/sam4l/dfll.o
                               0x126c (size before relaxing)
 .debug_str     0x00006e1f       0xbd ../../../platform/common/services/clock/sam4l/osc.o
                                0xed6 (size before relaxing)
 .debug_str     0x00006edc       0x51 ../../../platform/common/services/clock/sam4l/pll.o
                                0xc0c (size before relaxing)
 .debug_str     0x00006f2d       0x3c ../../../platform/common/services/delay/sam/cycle_counter.o
                                0x697 (size before relaxing)
 .debug_str     0x00006f69      0x29d ../../../platform/common/services/spi/sam_spi/spi_master.o
                               0x1054 (size before relaxing)
 .debug_str     0x00007206       0x3a ../../../platform/common/services/sleepmgr/sam/sleepmgr.o
                                0x742 (size before relaxing)
 .debug_str     0x00007240      0x7d6 ../../../platform/common/services/usb/udc/udc.o
                               0x1192 (size before relaxing)
 .debug_str     0x00007a16      0x801 ../../../platform/common/services/usb/class/cdc/device/udi_cdc.o
                               0x1246 (size before relaxing)
 .debug_str     0x00008217      0x1ab ../../../platform/common/services/usb/class/cdc/device/udi_cdc_desc.o
                                0xc99 (size before relaxing)
 .debug_str     0x000083c2       0x6c ../../../platform/common/utils/interrupt\interrupt_sam_nvic.o
                                0x6e7 (size before relaxing)
 .debug_str     0x0000842e       0x33 ../../../platform/common/utils/stdio/read.o
                                0x690 (size before relaxing)
 .debug_str     0x00008461       0x2d ../../../platform/common/utils/stdio/write.o
                                0x691 (size before relaxing)
 .debug_str     0x0000848e       0x81 ../../../platform/common/utils/stdio/stdio_usb/stdio_usb.o
                                0x9c8 (size before relaxing)
 .debug_str     0x0000850f       0xd8 ../../../board/WM400/src/board_init.o
                               0x133b (size before relaxing)
 .debug_str     0x000085e7     0x2b74 ../../../stack/LwMesh/TDMA/services/common_hw_timer/sam/lib\libsam4l_lib_hw_timer.a(common_hw_timer.o)
                               0x2ce9 (size before relaxing)

.debug_frame    0x00000000     0x7910
 .debug_frame   0x00000000      0x444 TC_lldn.o
 .debug_frame   0x00000444      0x198 ../../../stack/LwMesh/TDMA/nwk/src/nwk.o
 .debug_frame   0x000005dc       0xfc ../../../stack/LwMesh/TDMA/nwk/src/nwkDataReq.o
 .debug_frame   0x000006d8      0x104 ../../../stack/LwMesh/TDMA/nwk/src/nwkFrame.o
 .debug_frame   0x000007dc       0xd8 ../../../stack/LwMesh/TDMA/nwk/src/nwkGroup.o
 .debug_frame   0x000008b4      0x290 ../../../stack/LwMesh/TDMA/nwk/src/nwkRx.o
 .debug_frame   0x00000b44      0x214 ../../../stack/LwMesh/TDMA/nwk/src/nwkTx.o
 .debug_frame   0x00000d58      0x344 ../../../stack/LwMesh/TDMA/phy/AT86RF233/src/phy.o
 .debug_frame   0x0000109c       0x48 ../../../stack/LwMesh/TDMA/sys/src/sys.o
 .debug_frame   0x000010e4      0x188 ../../../stack/LwMesh/TDMA/sys/src/sysTimer.o
 .debug_frame   0x0000126c      0x2ac ../../../stack/LwMesh/TDMA/services/common_hw_timer/sam/hw_timer.o
 .debug_frame   0x00001518       0xfc ../../../stack/LwMesh/TDMA/services/sal/at86rf2xx/src/sal.o
 .debug_frame   0x00001614      0x288 ../../../stack/LwMesh/TDMA/services/sleep_mgr/sam4l/sleep_mgr.o
 .debug_frame   0x0000189c      0x3f0 ../../../stack/LwMesh/TDMA/services/trx_access/trx_access.o
 .debug_frame   0x00001c8c       0x2c ../../../platform/sam/utils/cmsis/sam4l/source/templates/exceptions.o
 .debug_frame   0x00001cb8       0x30 ../../../platform/sam/utils/cmsis/sam4l/source/templates/gcc/startup_sam4l.o
 .debug_frame   0x00001ce8      0x16c ../../../platform/sam/utils/syscalls/gcc/syscalls.o
 .debug_frame   0x00001e54       0x2c ../../../platform/sam/utils/syscalls/gcc/hardfault_handler_c.o
 .debug_frame   0x00001e80      0x510 ../../../platform/sam/drivers/ast/ast.o
 .debug_frame   0x00002390      0x3d0 ../../../platform/sam/drivers/bpm/bpm.o
 .debug_frame   0x00002760      0xadc ../../../platform/sam/drivers/flashcalw/flashcalw.o
 .debug_frame   0x0000323c      0x25c ../../../platform/sam/drivers/gpio/gpio.o
 .debug_frame   0x00003498      0x33c ../../../platform/sam/drivers/eic/eic.o
 .debug_frame   0x000037d4      0x290 ../../../platform/sam/drivers/spi/spi.o
 .debug_frame   0x00003a64      0x364 ../../../platform/sam/drivers/tc/tc.o
 .debug_frame   0x00003dc8      0x698 ../../../platform/sam/drivers/usbc/usbc_device.o
 .debug_frame   0x00004460      0x168 ../../../platform/sam/drivers/wdt/wdt_sam4l.o
 .debug_frame   0x000045c8      0x710 ../../../platform/common/services/clock/sam4l/sysclk.o
 .debug_frame   0x00004cd8      0x358 ../../../platform/common/services/clock/sam4l/dfll.o
 .debug_frame   0x00005030      0x268 ../../../platform/common/services/clock/sam4l/osc.o
 .debug_frame   0x00005298      0x100 ../../../platform/common/services/clock/sam4l/pll.o
 .debug_frame   0x00005398       0x20 ../../../platform/common/services/delay/sam/cycle_counter.o
 .debug_frame   0x000053b8      0x39c ../../../platform/common/services/spi/sam_spi/spi_master.o
 .debug_frame   0x00005754      0x3e4 ../../../platform/common/services/usb/udc/udc.o
 .debug_frame   0x00005b38      0x6e8 ../../../platform/common/services/usb/class/cdc/device/udi_cdc.o
 .debug_frame   0x00006220       0x5c ../../../platform/common/utils/interrupt\interrupt_sam_nvic.o
 .debug_frame   0x0000627c       0x38 ../../../platform/common/utils/stdio/read.o
 .debug_frame   0x000062b4       0x38 ../../../platform/common/utils/stdio/write.o
 .debug_frame   0x000062ec       0xc4 ../../../platform/common/utils/stdio/stdio_usb/stdio_usb.o
 .debug_frame   0x000063b0      0x11c ../../../board/WM400/src/board_init.o
 .debug_frame   0x000064cc       0xf0 ../../../stack/LwMesh/TDMA/services/common_hw_timer/sam/lib\libsam4l_lib_hw_timer.a(common_hw_timer.o)
 .debug_frame   0x000065bc       0x2c c:/program files (x86)/atmel/studio/7.0/toolchain/arm/arm-gnu-toolchain/bin/../lib/gcc/arm-none-eabi/6.3.1/../../../../arm-none-eabi/lib/thumb/v7e-m\libg.a(lib_a-init.o)
 .debug_frame   0x000065e8       0x34 c:/program files (x86)/atmel/studio/7.0/toolchain/arm/arm-gnu-toolchain/bin/../lib/gcc/arm-none-eabi/6.3.1/../../../../arm-none-eabi/lib/thumb/v7e-m\libg.a(lib_a-memset.o)
 .debug_frame   0x0000661c       0x74 c:/program files (x86)/atmel/studio/7.0/toolchain/arm/arm-gnu-toolchain/bin/../lib/gcc/arm-none-eabi/6.3.1/../../../../arm-none-eabi/lib/thumb/v7e-m\libg.a(lib_a-printf.o)
 .debug_frame   0x00006690       0x3c c:/program files (x86)/atmel/studio/7.0/toolchain/arm/arm-gnu-toolchain/bin/../lib/gcc/arm-none-eabi/6.3.1/../../../../arm-none-eabi/lib/thumb/v7e-m\libg.a(lib_a-rand.o)
 .debug_frame   0x000066cc       0x20 c:/program files (x86)/atmel/studio/7.0/toolchain/arm/arm-gnu-toolchain/bin/../lib/gcc/arm-none-eabi/6.3.1/../../../../arm-none-eabi/lib/thumb/v7e-m\libg.a(lib_a-setbuf.o)
 .debug_frame   0x000066ec       0x48 c:/program files (x86)/atmel/studio/7.0/toolchain/arm/arm-gnu-toolchain/bin/../lib/gcc/arm-none-eabi/6.3.1/../../../../arm-none-eabi/lib/thumb/v7e-m\libg.a(lib_a-setvbuf.o)
 .debug_frame   0x00006734       0x94 c:/program files (x86)/atmel/studio/7.0/toolchain/arm/arm-gnu-toolchain/bin/../lib/gcc/arm-none-eabi/6.3.1/../../../../arm-none-eabi/lib/thumb/v7e-m\libg.a(lib_a-vfprintf.o)
 .debug_frame   0x000067c8       0x2c c:/program files (x86)/atmel/studio/7.0/toolchain/arm/arm-gnu-toolchain/bin/../lib/gcc/arm-none-eabi/6.3.1/../../../../arm-none-eabi/lib/thumb/v7e-m\libg.a(lib_a-wsetup.o)
 .debug_frame   0x000067f4       0x5c c:/program files (x86)/atmel/studio/7.0/toolchain/arm/arm-gnu-toolchain/bin/../lib/gcc/arm-none-eabi/6.3.1/../../../../arm-none-eabi/lib/thumb/v7e-m\libg.a(lib_a-__call_atexit.o)
 .debug_frame   0x00006850       0x20 c:/program files (x86)/atmel/studio/7.0/toolchain/arm/arm-gnu-toolchain/bin/../lib/gcc/arm-none-eabi/6.3.1/../../../../arm-none-eabi/lib/thumb/v7e-m\libg.a(lib_a-atexit.o)
 .debug_frame   0x00006870       0x88 c:/program files (x86)/atmel/studio/7.0/toolchain/arm/arm-gnu-toolchain/bin/../lib/gcc/arm-none-eabi/6.3.1/../../../../arm-none-eabi/lib/thumb/v7e-m\libg.a(lib_a-dtoa.o)
 .debug_frame   0x000068f8       0x5c c:/program files (x86)/atmel/studio/7.0/toolchain/arm/arm-gnu-toolchain/bin/../lib/gcc/arm-none-eabi/6.3.1/../../../../arm-none-eabi/lib/thumb/v7e-m\libg.a(lib_a-fflush.o)
 .debug_frame   0x00006954      0x148 c:/program files (x86)/atmel/studio/7.0/toolchain/arm/arm-gnu-toolchain/bin/../lib/gcc/arm-none-eabi/6.3.1/../../../../arm-none-eabi/lib/thumb/v7e-m\libg.a(lib_a-findfp.o)
 .debug_frame   0x00006a9c       0x34 c:/program files (x86)/atmel/studio/7.0/toolchain/arm/arm-gnu-toolchain/bin/../lib/gcc/arm-none-eabi/6.3.1/../../../../arm-none-eabi/lib/thumb/v7e-m\libg.a(lib_a-fini.o)
 .debug_frame   0x00006ad0       0x74 c:/program files (x86)/atmel/studio/7.0/toolchain/arm/arm-gnu-toolchain/bin/../lib/gcc/arm-none-eabi/6.3.1/../../../../arm-none-eabi/lib/thumb/v7e-m\libg.a(lib_a-freer.o)
 .debug_frame   0x00006b44       0x54 c:/program files (x86)/atmel/studio/7.0/toolchain/arm/arm-gnu-toolchain/bin/../lib/gcc/arm-none-eabi/6.3.1/../../../../arm-none-eabi/lib/thumb/v7e-m\libg.a(lib_a-fwalk.o)
 .debug_frame   0x00006b98       0x40 c:/program files (x86)/atmel/studio/7.0/toolchain/arm/arm-gnu-toolchain/bin/../lib/gcc/arm-none-eabi/6.3.1/../../../../arm-none-eabi/lib/thumb/v7e-m\libg.a(lib_a-localeconv.o)
 .debug_frame   0x00006bd8       0xb0 c:/program files (x86)/atmel/studio/7.0/toolchain/arm/arm-gnu-toolchain/bin/../lib/gcc/arm-none-eabi/6.3.1/../../../../arm-none-eabi/lib/thumb/v7e-m\libg.a(lib_a-lock.o)
 .debug_frame   0x00006c88       0x68 c:/program files (x86)/atmel/studio/7.0/toolchain/arm/arm-gnu-toolchain/bin/../lib/gcc/arm-none-eabi/6.3.1/../../../../arm-none-eabi/lib/thumb/v7e-m\libg.a(lib_a-makebuf.o)
 .debug_frame   0x00006cf0       0x30 c:/program files (x86)/atmel/studio/7.0/toolchain/arm/arm-gnu-toolchain/bin/../lib/gcc/arm-none-eabi/6.3.1/../../../../arm-none-eabi/lib/thumb/v7e-m\libg.a(lib_a-malloc.o)
 .debug_frame   0x00006d20       0x58 c:/program files (x86)/atmel/studio/7.0/toolchain/arm/arm-gnu-toolchain/bin/../lib/gcc/arm-none-eabi/6.3.1/../../../../arm-none-eabi/lib/thumb/v7e-m\libg.a(lib_a-mallocr.o)
 .debug_frame   0x00006d78       0x30 c:/program files (x86)/atmel/studio/7.0/toolchain/arm/arm-gnu-toolchain/bin/../lib/gcc/arm-none-eabi/6.3.1/../../../../arm-none-eabi/lib/thumb/v7e-m\libg.a(lib_a-mlock.o)
 .debug_frame   0x00006da8      0x25c c:/program files (x86)/atmel/studio/7.0/toolchain/arm/arm-gnu-toolchain/bin/../lib/gcc/arm-none-eabi/6.3.1/../../../../arm-none-eabi/lib/thumb/v7e-m\libg.a(lib_a-mprec.o)
 .debug_frame   0x00007004       0x2c c:/program files (x86)/atmel/studio/7.0/toolchain/arm/arm-gnu-toolchain/bin/../lib/gcc/arm-none-eabi/6.3.1/../../../../arm-none-eabi/lib/thumb/v7e-m\libg.a(lib_a-sbrkr.o)
 .debug_frame   0x00007030       0x88 c:/program files (x86)/atmel/studio/7.0/toolchain/arm/arm-gnu-toolchain/bin/../lib/gcc/arm-none-eabi/6.3.1/../../../../arm-none-eabi/lib/thumb/v7e-m\libg.a(lib_a-stdio.o)
 .debug_frame   0x000070b8       0xd8 c:/program files (x86)/atmel/studio/7.0/toolchain/arm/arm-gnu-toolchain/bin/../lib/gcc/arm-none-eabi/6.3.1/../../../../arm-none-eabi/lib/thumb/v7e-m\libg.a(lib_a-vfiprintf.o)
 .debug_frame   0x00007190       0x2c c:/program files (x86)/atmel/studio/7.0/toolchain/arm/arm-gnu-toolchain/bin/../lib/gcc/arm-none-eabi/6.3.1/../../../../arm-none-eabi/lib/thumb/v7e-m\libg.a(lib_a-writer.o)
 .debug_frame   0x000071bc       0x34 c:/program files (x86)/atmel/studio/7.0/toolchain/arm/arm-gnu-toolchain/bin/../lib/gcc/arm-none-eabi/6.3.1/../../../../arm-none-eabi/lib/thumb/v7e-m\libg.a(lib_a-__atexit.o)
 .debug_frame   0x000071f0       0x28 c:/program files (x86)/atmel/studio/7.0/toolchain/arm/arm-gnu-toolchain/bin/../lib/gcc/arm-none-eabi/6.3.1/../../../../arm-none-eabi/lib/thumb/v7e-m\libg.a(lib_a-callocr.o)
 .debug_frame   0x00007218       0x2c c:/program files (x86)/atmel/studio/7.0/toolchain/arm/arm-gnu-toolchain/bin/../lib/gcc/arm-none-eabi/6.3.1/../../../../arm-none-eabi/lib/thumb/v7e-m\libg.a(lib_a-closer.o)
 .debug_frame   0x00007244       0x3c c:/program files (x86)/atmel/studio/7.0/toolchain/arm/arm-gnu-toolchain/bin/../lib/gcc/arm-none-eabi/6.3.1/../../../../arm-none-eabi/lib/thumb/v7e-m\libg.a(lib_a-fclose.o)
 .debug_frame   0x00007280       0x94 c:/program files (x86)/atmel/studio/7.0/toolchain/arm/arm-gnu-toolchain/bin/../lib/gcc/arm-none-eabi/6.3.1/../../../../arm-none-eabi/lib/thumb/v7e-m\libg.a(lib_a-fputwc.o)
 .debug_frame   0x00007314       0x2c c:/program files (x86)/atmel/studio/7.0/toolchain/arm/arm-gnu-toolchain/bin/../lib/gcc/arm-none-eabi/6.3.1/../../../../arm-none-eabi/lib/thumb/v7e-m\libg.a(lib_a-fstatr.o)
 .debug_frame   0x00007340       0x68 c:/program files (x86)/atmel/studio/7.0/toolchain/arm/arm-gnu-toolchain/bin/../lib/gcc/arm-none-eabi/6.3.1/../../../../arm-none-eabi/lib/thumb/v7e-m\libg.a(lib_a-fvwrite.o)
 .debug_frame   0x000073a8       0x2c c:/program files (x86)/atmel/studio/7.0/toolchain/arm/arm-gnu-toolchain/bin/../lib/gcc/arm-none-eabi/6.3.1/../../../../arm-none-eabi/lib/thumb/v7e-m\libg.a(lib_a-isattyr.o)
 .debug_frame   0x000073d4       0x6c c:/program files (x86)/atmel/studio/7.0/toolchain/arm/arm-gnu-toolchain/bin/../lib/gcc/arm-none-eabi/6.3.1/../../../../arm-none-eabi/lib/thumb/v7e-m\libg.a(lib_a-locale.o)
 .debug_frame   0x00007440       0x2c c:/program files (x86)/atmel/studio/7.0/toolchain/arm/arm-gnu-toolchain/bin/../lib/gcc/arm-none-eabi/6.3.1/../../../../arm-none-eabi/lib/thumb/v7e-m\libg.a(lib_a-lseekr.o)
 .debug_frame   0x0000746c       0x4c c:/program files (x86)/atmel/studio/7.0/toolchain/arm/arm-gnu-toolchain/bin/../lib/gcc/arm-none-eabi/6.3.1/../../../../arm-none-eabi/lib/thumb/v7e-m\libg.a(lib_a-mbtowc_r.o)
 .debug_frame   0x000074b8       0x30 c:/program files (x86)/atmel/studio/7.0/toolchain/arm/arm-gnu-toolchain/bin/../lib/gcc/arm-none-eabi/6.3.1/../../../../arm-none-eabi/lib/thumb/v7e-m\libg.a(lib_a-memmove.o)
 .debug_frame   0x000074e8       0x2c c:/program files (x86)/atmel/studio/7.0/toolchain/arm/arm-gnu-toolchain/bin/../lib/gcc/arm-none-eabi/6.3.1/../../../../arm-none-eabi/lib/thumb/v7e-m\libg.a(lib_a-readr.o)
 .debug_frame   0x00007514       0x68 c:/program files (x86)/atmel/studio/7.0/toolchain/arm/arm-gnu-toolchain/bin/../lib/gcc/arm-none-eabi/6.3.1/../../../../arm-none-eabi/lib/thumb/v7e-m\libg.a(lib_a-reallocr.o)
 .debug_frame   0x0000757c       0x58 c:/program files (x86)/atmel/studio/7.0/toolchain/arm/arm-gnu-toolchain/bin/../lib/gcc/arm-none-eabi/6.3.1/../../../../arm-none-eabi/lib/thumb/v7e-m\libg.a(lib_a-reent.o)
 .debug_frame   0x000075d4       0x40 c:/program files (x86)/atmel/studio/7.0/toolchain/arm/arm-gnu-toolchain/bin/../lib/gcc/arm-none-eabi/6.3.1/../../../../arm-none-eabi/lib/thumb/v7e-m\libg.a(lib_a-wbuf.o)
 .debug_frame   0x00007614       0x5c c:/program files (x86)/atmel/studio/7.0/toolchain/arm/arm-gnu-toolchain/bin/../lib/gcc/arm-none-eabi/6.3.1/../../../../arm-none-eabi/lib/thumb/v7e-m\libg.a(lib_a-wcrtomb.o)
 .debug_frame   0x00007670       0x3c c:/program files (x86)/atmel/studio/7.0/toolchain/arm/arm-gnu-toolchain/bin/../lib/gcc/arm-none-eabi/6.3.1/../../../../arm-none-eabi/lib/thumb/v7e-m\libg.a(lib_a-wctomb_r.o)
 .debug_frame   0x000076ac       0xac c:/program files (x86)/atmel/studio/7.0/toolchain/arm/arm-gnu-toolchain/bin/../lib/gcc/arm-none-eabi/6.3.1/thumb/v7e-m\libgcc.a(_arm_addsubdf3.o)
 .debug_frame   0x00007758       0x50 c:/program files (x86)/atmel/studio/7.0/toolchain/arm/arm-gnu-toolchain/bin/../lib/gcc/arm-none-eabi/6.3.1/thumb/v7e-m\libgcc.a(_arm_muldivdf3.o)
 .debug_frame   0x000077a8       0xc4 c:/program files (x86)/atmel/studio/7.0/toolchain/arm/arm-gnu-toolchain/bin/../lib/gcc/arm-none-eabi/6.3.1/thumb/v7e-m\libgcc.a(_arm_cmpdf2.o)
 .debug_frame   0x0000786c       0x20 c:/program files (x86)/atmel/studio/7.0/toolchain/arm/arm-gnu-toolchain/bin/../lib/gcc/arm-none-eabi/6.3.1/thumb/v7e-m\libgcc.a(_arm_unorddf2.o)
 .debug_frame   0x0000788c       0x24 c:/program files (x86)/atmel/studio/7.0/toolchain/arm/arm-gnu-toolchain/bin/../lib/gcc/arm-none-eabi/6.3.1/thumb/v7e-m\libgcc.a(_arm_fixdfsi.o)
 .debug_frame   0x000078b0       0x2c c:/program files (x86)/atmel/studio/7.0/toolchain/arm/arm-gnu-toolchain/bin/../lib/gcc/arm-none-eabi/6.3.1/thumb/v7e-m\libgcc.a(_aeabi_uldivmod.o)
 .debug_frame   0x000078dc       0x34 c:/program files (x86)/atmel/studio/7.0/toolchain/arm/arm-gnu-toolchain/bin/../lib/gcc/arm-none-eabi/6.3.1/thumb/v7e-m\libgcc.a(_udivmoddi4.o)

.debug_ranges   0x00000000      0x188
 .debug_ranges  0x00000000       0x18 ../../../stack/LwMesh/TDMA/phy/AT86RF233/src/phy.o
 .debug_ranges  0x00000018       0x30 ../../../stack/LwMesh/TDMA/sys/src/sysTimer.o
 .debug_ranges  0x00000048       0x60 ../../../stack/LwMesh/TDMA/services/trx_access/trx_access.o
 .debug_ranges  0x000000a8       0x18 ../../../platform/sam/drivers/bpm/bpm.o
 .debug_ranges  0x000000c0       0x10 ../../../platform/common/services/delay/sam/cycle_counter.o
 .debug_ranges  0x000000d0       0x60 ../../../board/WM400/src/board_init.o
 .debug_ranges  0x00000130       0x58 ../../../stack/LwMesh/TDMA/services/common_hw_timer/sam/lib\libsam4l_lib_hw_timer.a(common_hw_timer.o)

.debug_macro    0x00000000      0xa70
 .debug_macro   0x00000000      0x84c ../../../stack/LwMesh/TDMA/services/common_hw_timer/sam/lib\libsam4l_lib_hw_timer.a(common_hw_timer.o)
 .debug_macro   0x0000084c      0x214 ../../../stack/LwMesh/TDMA/services/common_hw_timer/sam/lib\libsam4l_lib_hw_timer.a(common_hw_timer.o)
 .debug_macro   0x00000a60       0x10 ../../../stack/LwMesh/TDMA/services/common_hw_timer/sam/lib\libsam4l_lib_hw_timer.a(common_hw_timer.o)

Cross Reference Table

Symbol                                            File
ABDACB_Handler                                    ../../../platform/sam/utils/cmsis/sam4l/source/templates/exceptions.o
                                                  ../../../platform/sam/utils/cmsis/sam4l/source/templates/gcc/startup_sam4l.o
ACIFC_Handler                                     ../../../platform/sam/utils/cmsis/sam4l/source/templates/exceptions.o
                                                  ../../../platform/sam/utils/cmsis/sam4l/source/templates/gcc/startup_sam4l.o
ADCIFE_Handler                                    ../../../platform/sam/utils/cmsis/sam4l/source/templates/exceptions.o
                                                  ../../../platform/sam/utils/cmsis/sam4l/source/templates/gcc/startup_sam4l.o
AESA_Handler                                      ../../../platform/sam/utils/cmsis/sam4l/source/templates/exceptions.o
                                                  ../../../platform/sam/utils/cmsis/sam4l/source/templates/gcc/startup_sam4l.o
APP_TaskHandler                                   TC_lldn.o
AST_ALARM_Handler                                 ../../../platform/sam/utils/cmsis/sam4l/source/templates/exceptions.o
                                                  ../../../platform/sam/utils/cmsis/sam4l/source/templates/gcc/startup_sam4l.o
AST_CLKREADY_Handler                              ../../../platform/sam/utils/cmsis/sam4l/source/templates/exceptions.o
                                                  ../../../platform/sam/utils/cmsis/sam4l/source/templates/gcc/startup_sam4l.o
AST_OVF_Handler                                   ../../../platform/sam/utils/cmsis/sam4l/source/templates/exceptions.o
                                                  ../../../platform/sam/utils/cmsis/sam4l/source/templates/gcc/startup_sam4l.o
AST_PER_Handler                                   ../../../platform/sam/utils/cmsis/sam4l/source/templates/exceptions.o
                                                  ../../../platform/sam/utils/cmsis/sam4l/source/templates/gcc/startup_sam4l.o
AST_READY_Handler                                 ../../../platform/sam/utils/cmsis/sam4l/source/templates/exceptions.o
                                                  ../../../platform/sam/utils/cmsis/sam4l/source/templates/gcc/startup_sam4l.o
BPM_Handler                                       ../../../platform/sam/utils/cmsis/sam4l/source/templates/exceptions.o
                                                  ../../../platform/sam/utils/cmsis/sam4l/source/templates/gcc/startup_sam4l.o
BSCIF_Handler                                     ../../../platform/sam/utils/cmsis/sam4l/source/templates/exceptions.o
                                                  ../../../platform/sam/utils/cmsis/sam4l/source/templates/gcc/startup_sam4l.o
BusFault_Handler                                  ../../../platform/sam/utils/cmsis/sam4l/source/templates/exceptions.o
                                                  ../../../platform/sam/utils/cmsis/sam4l/source/templates/gcc/startup_sam4l.o
CATB_Handler                                      ../../../platform/sam/utils/cmsis/sam4l/source/templates/exceptions.o
                                                  ../../../platform/sam/utils/cmsis/sam4l/source/templates/gcc/startup_sam4l.o
CRCCU_Handler                                     ../../../platform/sam/utils/cmsis/sam4l/source/templates/exceptions.o
                                                  ../../../platform/sam/utils/cmsis/sam4l/source/templates/gcc/startup_sam4l.o
DACC_Handler                                      ../../../platform/sam/utils/cmsis/sam4l/source/templates/exceptions.o
                                                  ../../../platform/sam/utils/cmsis/sam4l/source/templates/gcc/startup_sam4l.o
DebugMon_Handler                                  ../../../platform/sam/utils/cmsis/sam4l/source/templates/exceptions.o
                                                  ../../../platform/sam/utils/cmsis/sam4l/source/templates/gcc/startup_sam4l.o
Dummy_Handler                                     ../../../platform/sam/utils/cmsis/sam4l/source/templates/exceptions.o
                                                  ../../../platform/sam/utils/cmsis/sam4l/source/templates/gcc/startup_sam4l.o
EIC_1_Handler                                     ../../../platform/sam/drivers/eic/eic.o
                                                  ../../../platform/sam/utils/cmsis/sam4l/source/templates/exceptions.o
                                                  ../../../platform/sam/utils/cmsis/sam4l/source/templates/gcc/startup_sam4l.o
EIC_2_Handler                                     ../../../platform/sam/drivers/eic/eic.o
                                                  ../../../platform/sam/utils/cmsis/sam4l/source/templates/exceptions.o
                                                  ../../../platform/sam/utils/cmsis/sam4l/source/templates/gcc/startup_sam4l.o
EIC_3_Handler                                     ../../../platform/sam/drivers/eic/eic.o
                                                  ../../../platform/sam/utils/cmsis/sam4l/source/templates/exceptions.o
                                                  ../../../platform/sam/utils/cmsis/sam4l/source/templates/gcc/startup_sam4l.o
EIC_4_Handler                                     ../../../platform/sam/drivers/eic/eic.o
                                                  ../../../platform/sam/utils/cmsis/sam4l/source/templates/exceptions.o
                                                  ../../../platform/sam/utils/cmsis/sam4l/source/templates/gcc/startup_sam4l.o
EIC_5_Handler                                     ../../../platform/sam/drivers/eic/eic.o
                                                  ../../../platform/sam/utils/cmsis/sam4l/source/templates/exceptions.o
                                                  ../../../platform/sam/utils/cmsis/sam4l/source/templates/gcc/startup_sam4l.o
EIC_6_Handler                                     ../../../platform/sam/drivers/eic/eic.o
                                                  ../../../platform/sam/utils/cmsis/sam4l/source/templates/exceptions.o
                                                  ../../../platform/sam/utils/cmsis/sam4l/source/templates/gcc/startup_sam4l.o
EIC_7_Handler                                     ../../../platform/sam/drivers/eic/eic.o
                                                  ../../../platform/sam/utils/cmsis/sam4l/source/templates/exceptions.o
                                                  ../../../platform/sam/utils/cmsis/sam4l/source/templates/gcc/startup_sam4l.o
EIC_8_Handler                                     ../../../platform/sam/drivers/eic/eic.o
                                                  ../../../platform/sam/utils/cmsis/sam4l/source/templates/exceptions.o
                                                  ../../../platform/sam/utils/cmsis/sam4l/source/templates/gcc/startup_sam4l.o
FREQM_Handler                                     ../../../platform/sam/utils/cmsis/sam4l/source/templates/exceptions.o
                                                  ../../../platform/sam/utils/cmsis/sam4l/source/templates/gcc/startup_sam4l.o
GPIO_0_Handler                                    ../../../platform/sam/drivers/gpio/gpio.o
                                                  ../../../platform/sam/utils/cmsis/sam4l/source/templates/exceptions.o
                                                  ../../../platform/sam/utils/cmsis/sam4l/source/templates/gcc/startup_sam4l.o
GPIO_10_Handler                                   ../../../platform/sam/drivers/gpio/gpio.o
                                                  ../../../platform/sam/utils/cmsis/sam4l/source/templates/exceptions.o
                                                  ../../../platform/sam/utils/cmsis/sam4l/source/templates/gcc/startup_sam4l.o
GPIO_11_Handler                                   ../../../platform/sam/drivers/gpio/gpio.o
                                                  ../../../platform/sam/utils/cmsis/sam4l/source/templates/exceptions.o
                                                  ../../../platform/sam/utils/cmsis/sam4l/source/templates/gcc/startup_sam4l.o
GPIO_1_Handler                                    ../../../platform/sam/drivers/gpio/gpio.o
                                                  ../../../platform/sam/utils/cmsis/sam4l/source/templates/exceptions.o
                                                  ../../../platform/sam/utils/cmsis/sam4l/source/templates/gcc/startup_sam4l.o
GPIO_2_Handler                                    ../../../stack/LwMesh/TDMA/services/trx_access/trx_access.o
                                                  ../../../platform/sam/utils/cmsis/sam4l/source/templates/gcc/startup_sam4l.o
GPIO_3_Handler                                    ../../../platform/sam/drivers/gpio/gpio.o
                                                  ../../../platform/sam/utils/cmsis/sam4l/source/templates/exceptions.o
                                                  ../../../platform/sam/utils/cmsis/sam4l/source/templates/gcc/startup_sam4l.o
GPIO_4_Handler                                    ../../../platform/sam/drivers/gpio/gpio.o
                                                  ../../../platform/sam/utils/cmsis/sam4l/source/templates/exceptions.o
                                                  ../../../platform/sam/utils/cmsis/sam4l/source/templates/gcc/startup_sam4l.o
GPIO_5_Handler                                    ../../../platform/sam/drivers/gpio/gpio.o
                                                  ../../../platform/sam/utils/cmsis/sam4l/source/templates/exceptions.o
                                                  ../../../platform/sam/utils/cmsis/sam4l/source/templates/gcc/startup_sam4l.o
GPIO_6_Handler                                    ../../../platform/sam/drivers/gpio/gpio.o
                                                  ../../../platform/sam/utils/cmsis/sam4l/source/templates/exceptions.o
                                                  ../../../platform/sam/utils/cmsis/sam4l/source/templates/gcc/startup_sam4l.o
GPIO_7_Handler                                    ../../../platform/sam/drivers/gpio/gpio.o
                                                  ../../../platform/sam/utils/cmsis/sam4l/source/templates/exceptions.o
                                                  ../../../platform/sam/utils/cmsis/sam4l/source/templates/gcc/startup_sam4l.o
GPIO_8_Handler                                    ../../../platform/sam/drivers/gpio/gpio.o
                                                  ../../../platform/sam/utils/cmsis/sam4l/source/templates/exceptions.o
                                                  ../../../platform/sam/utils/cmsis/sam4l/source/templates/gcc/startup_sam4l.o
GPIO_9_Handler                                    ../../../platform/sam/drivers/gpio/gpio.o
                                                  ../../../platform/sam/utils/cmsis/sam4l/source/templates/exceptions.o
                                                  ../../../platform/sam/utils/cmsis/sam4l/source/templates/gcc/startup_sam4l.o
HFLASHC_Handler                                   ../../../platform/sam/utils/cmsis/sam4l/source/templates/exceptions.o
                                                  ../../../platform/sam/utils/cmsis/sam4l/source/templates/gcc/startup_sam4l.o
HardFault_Handler                                 ../../../platform/sam/utils/syscalls/gcc/hardfault_handler.o
                                                  ../../../platform/sam/utils/cmsis/sam4l/source/templates/exceptions.o
                                                  ../../../platform/sam/utils/cmsis/sam4l/source/templates/gcc/startup_sam4l.o
HardFault_Handler_C                               ../../../platform/sam/utils/syscalls/gcc/hardfault_handler_c.o
                                                  ../../../platform/sam/utils/syscalls/gcc/hardfault_handler.o
IISC_Handler                                      ../../../platform/sam/utils/cmsis/sam4l/source/templates/exceptions.o
                                                  ../../../platform/sam/utils/cmsis/sam4l/source/templates/gcc/startup_sam4l.o
LCDCA_Handler                                     ../../../platform/sam/utils/cmsis/sam4l/source/templates/exceptions.o
                                                  ../../../platform/sam/utils/cmsis/sam4l/source/templates/gcc/startup_sam4l.o
MemManage_Handler                                 ../../../platform/sam/utils/cmsis/sam4l/source/templates/exceptions.o
                                                  ../../../platform/sam/utils/cmsis/sam4l/source/templates/gcc/startup_sam4l.o
NMI_Handler                                       ../../../platform/sam/drivers/eic/eic.o
                                                  ../../../platform/sam/utils/cmsis/sam4l/source/templates/exceptions.o
                                                  ../../../platform/sam/utils/cmsis/sam4l/source/templates/gcc/startup_sam4l.o
NWK_Busy                                          ../../../stack/LwMesh/TDMA/nwk/src/nwk.o
NWK_DataReq                                       ../../../stack/LwMesh/TDMA/nwk/src/nwkDataReq.o
NWK_GroupAdd                                      ../../../stack/LwMesh/TDMA/nwk/src/nwkGroup.o
NWK_GroupIsMember                                 ../../../stack/LwMesh/TDMA/nwk/src/nwkGroup.o
                                                  ../../../stack/LwMesh/TDMA/nwk/src/nwkRx.o
NWK_GroupRemove                                   ../../../stack/LwMesh/TDMA/nwk/src/nwkGroup.o
NWK_Init                                          ../../../stack/LwMesh/TDMA/nwk/src/nwk.o
                                                  ../../../stack/LwMesh/TDMA/sys/src/sys.o
NWK_LinearizeLqi                                  ../../../stack/LwMesh/TDMA/nwk/src/nwk.o
NWK_Lock                                          ../../../stack/LwMesh/TDMA/nwk/src/nwk.o
NWK_OpenEndpoint                                  ../../../stack/LwMesh/TDMA/nwk/src/nwk.o
                                                  ../../../stack/LwMesh/TDMA/nwk/src/nwkRx.o
NWK_SetAckControl                                 ../../../stack/LwMesh/TDMA/nwk/src/nwkRx.o
NWK_SetAddr                                       ../../../stack/LwMesh/TDMA/nwk/src/nwk.o
NWK_SetPanId                                      ../../../stack/LwMesh/TDMA/nwk/src/nwk.o
NWK_SleepReq                                      ../../../stack/LwMesh/TDMA/nwk/src/nwk.o
NWK_TaskHandler                                   ../../../stack/LwMesh/TDMA/nwk/src/nwk.o
                                                  ../../../stack/LwMesh/TDMA/sys/src/sys.o
NWK_Unlock                                        ../../../stack/LwMesh/TDMA/nwk/src/nwk.o
NWK_WakeupReq                                     ../../../stack/LwMesh/TDMA/nwk/src/nwk.o
PARC_Handler                                      ../../../platform/sam/utils/cmsis/sam4l/source/templates/exceptions.o
                                                  ../../../platform/sam/utils/cmsis/sam4l/source/templates/gcc/startup_sam4l.o
PDCA_0_Handler                                    ../../../platform/sam/utils/cmsis/sam4l/source/templates/exceptions.o
                                                  ../../../platform/sam/utils/cmsis/sam4l/source/templates/gcc/startup_sam4l.o
PDCA_10_Handler                                   ../../../platform/sam/utils/cmsis/sam4l/source/templates/exceptions.o
                                                  ../../../platform/sam/utils/cmsis/sam4l/source/templates/gcc/startup_sam4l.o
PDCA_11_Handler                                   ../../../platform/sam/utils/cmsis/sam4l/source/templates/exceptions.o
                                                  ../../../platform/sam/utils/cmsis/sam4l/source/templates/gcc/startup_sam4l.o
PDCA_12_Handler                                   ../../../platform/sam/utils/cmsis/sam4l/source/templates/exceptions.o
                                                  ../../../platform/sam/utils/cmsis/sam4l/source/templates/gcc/startup_sam4l.o
PDCA_13_Handler                                   ../../../platform/sam/utils/cmsis/sam4l/source/templates/exceptions.o
                                                  ../../../platform/sam/utils/cmsis/sam4l/source/templates/gcc/startup_sam4l.o
PDCA_14_Handler                                   ../../../platform/sam/utils/cmsis/sam4l/source/templates/exceptions.o
                                                  ../../../platform/sam/utils/cmsis/sam4l/source/templates/gcc/startup_sam4l.o
PDCA_15_Handler                                   ../../../platform/sam/utils/cmsis/sam4l/source/templates/exceptions.o
                                                  ../../../platform/sam/utils/cmsis/sam4l/source/templates/gcc/startup_sam4l.o
PDCA_1_Handler                                    ../../../platform/sam/utils/cmsis/sam4l/source/templates/exceptions.o
                                                  ../../../platform/sam/utils/cmsis/sam4l/source/templates/gcc/startup_sam4l.o
PDCA_2_Handler                                    ../../../platform/sam/utils/cmsis/sam4l/source/templates/exceptions.o
                                                  ../../../platform/sam/utils/cmsis/sam4l/source/templates/gcc/startup_sam4l.o
PDCA_3_Handler                                    ../../../platform/sam/utils/cmsis/sam4l/source/templates/exceptions.o
                                                  ../../../platform/sam/utils/cmsis/sam4l/source/templates/gcc/startup_sam4l.o
PDCA_4_Handler                                    ../../../platform/sam/utils/cmsis/sam4l/source/templates/exceptions.o
                                                  ../../../platform/sam/utils/cmsis/sam4l/source/templates/gcc/startup_sam4l.o
PDCA_5_Handler                                    ../../../platform/sam/utils/cmsis/sam4l/source/templates/exceptions.o
                                                  ../../../platform/sam/utils/cmsis/sam4l/source/templates/gcc/startup_sam4l.o
PDCA_6_Handler                                    ../../../platform/sam/utils/cmsis/sam4l/source/templates/exceptions.o
                                                  ../../../platform/sam/utils/cmsis/sam4l/source/templates/gcc/startup_sam4l.o
PDCA_7_Handler                                    ../../../platform/sam/utils/cmsis/sam4l/source/templates/exceptions.o
                                                  ../../../platform/sam/utils/cmsis/sam4l/source/templates/gcc/startup_sam4l.o
PDCA_8_Handler                                    ../../../platform/sam/utils/cmsis/sam4l/source/templates/exceptions.o
                                                  ../../../platform/sam/utils/cmsis/sam4l/source/templates/gcc/startup_sam4l.o
PDCA_9_Handler                                    ../../../platform/sam/utils/cmsis/sam4l/source/templates/exceptions.o
                                                  ../../../platform/sam/utils/cmsis/sam4l/source/templates/gcc/startup_sam4l.o
PEVC_OV_Handler                                   ../../../platform/sam/utils/cmsis/sam4l/source/templates/exceptions.o
                                                  ../../../platform/sam/utils/cmsis/sam4l/source/templates/gcc/startup_sam4l.o
PEVC_TR_Handler                                   ../../../platform/sam/utils/cmsis/sam4l/source/templates/exceptions.o
                                                  ../../../platform/sam/utils/cmsis/sam4l/source/templates/gcc/startup_sam4l.o
PHY_DataConf                                      ../../../stack/LwMesh/TDMA/nwk/src/nwkTx.o
                                                  ../../../stack/LwMesh/TDMA/phy/AT86RF233/src/phy.o
PHY_DataInd                                       ../../../stack/LwMesh/TDMA/nwk/src/nwkRx.o
                                                  ../../../stack/LwMesh/TDMA/phy/AT86RF233/src/phy.o
PHY_DataReq                                       ../../../stack/LwMesh/TDMA/phy/AT86RF233/src/phy.o
                                                  ../../../stack/LwMesh/TDMA/nwk/src/nwkTx.o
PHY_EdReq                                         ../../../stack/LwMesh/TDMA/phy/AT86RF233/src/phy.o
PHY_EncryptReq                                    ../../../stack/LwMesh/TDMA/phy/AT86RF233/src/phy.o
PHY_Init                                          ../../../stack/LwMesh/TDMA/phy/AT86RF233/src/phy.o
                                                  ../../../stack/LwMesh/TDMA/sys/src/sys.o
PHY_RandomReq                                     ../../../stack/LwMesh/TDMA/phy/AT86RF233/src/phy.o
PHY_SetChannel                                    ../../../stack/LwMesh/TDMA/phy/AT86RF233/src/phy.o
PHY_SetIEEEAddr                                   ../../../stack/LwMesh/TDMA/phy/AT86RF233/src/phy.o
PHY_SetPanId                                      ../../../stack/LwMesh/TDMA/phy/AT86RF233/src/phy.o
                                                  ../../../stack/LwMesh/TDMA/nwk/src/nwk.o
PHY_SetRxState                                    ../../../stack/LwMesh/TDMA/phy/AT86RF233/src/phy.o
PHY_SetShortAddr                                  ../../../stack/LwMesh/TDMA/phy/AT86RF233/src/phy.o
                                                  ../../../stack/LwMesh/TDMA/nwk/src/nwk.o
PHY_SetTdmaMode                                   ../../../stack/LwMesh/TDMA/phy/AT86RF233/src/phy.o
                                                  TC_lldn.o
PHY_SetTxPower                                    ../../../stack/LwMesh/TDMA/phy/AT86RF233/src/phy.o
PHY_Sleep                                         ../../../stack/LwMesh/TDMA/phy/AT86RF233/src/phy.o
                                                  ../../../stack/LwMesh/TDMA/nwk/src/nwk.o
PHY_TaskHandler                                   ../../../stack/LwMesh/TDMA/phy/AT86RF233/src/phy.o
                                                  ../../../stack/LwMesh/TDMA/sys/src/sys.o
PHY_Wakeup                                        ../../../stack/LwMesh/TDMA/phy/AT86RF233/src/phy.o
                                                  ../../../stack/LwMesh/TDMA/nwk/src/nwk.o
PM_Handler                                        ../../../platform/sam/utils/cmsis/sam4l/source/templates/exceptions.o
                                                  ../../../platform/sam/utils/cmsis/sam4l/source/templates/gcc/startup_sam4l.o
PendSV_Handler                                    ../../../platform/sam/utils/cmsis/sam4l/source/templates/exceptions.o
                                                  ../../../platform/sam/utils/cmsis/sam4l/source/templates/gcc/startup_sam4l.o
PhyReset                                          ../../../stack/LwMesh/TDMA/services/trx_access/trx_access.o
                                                  ../../../stack/LwMesh/TDMA/phy/AT86RF233/src/phy.o
Reset_Handler                                     ../../../platform/sam/utils/cmsis/sam4l/source/templates/gcc/startup_sam4l.o
                                                  ../../../platform/sam/utils/cmsis/sam4l/source/templates/exceptions.o
SCIF_Handler                                      ../../../platform/sam/utils/cmsis/sam4l/source/templates/exceptions.o
                                                  ../../../platform/sam/utils/cmsis/sam4l/source/templates/gcc/startup_sam4l.o
SPI_AT86RFX_DEVICE                                ../../../stack/LwMesh/TDMA/services/trx_access/trx_access.o
SPI_Handler                                       ../../../platform/sam/utils/cmsis/sam4l/source/templates/exceptions.o
                                                  ../../../platform/sam/utils/cmsis/sam4l/source/templates/gcc/startup_sam4l.o
SVC_Handler                                       ../../../platform/sam/utils/cmsis/sam4l/source/templates/exceptions.o
                                                  ../../../platform/sam/utils/cmsis/sam4l/source/templates/gcc/startup_sam4l.o
SYS_HwExpiry_Cb                                   ../../../stack/LwMesh/TDMA/sys/src/sysTimer.o
SYS_Init                                          ../../../stack/LwMesh/TDMA/sys/src/sys.o
                                                  TC_lldn.o
SYS_TaskHandler                                   ../../../stack/LwMesh/TDMA/sys/src/sys.o
                                                  TC_lldn.o
SYS_TimerInit                                     ../../../stack/LwMesh/TDMA/sys/src/sysTimer.o
                                                  ../../../stack/LwMesh/TDMA/sys/src/sys.o
SYS_TimerStart                                    ../../../stack/LwMesh/TDMA/sys/src/sysTimer.o
                                                  ../../../stack/LwMesh/TDMA/nwk/src/nwkTx.o
                                                  ../../../stack/LwMesh/TDMA/nwk/src/nwkRx.o
                                                  TC_lldn.o
SYS_TimerStarted                                  ../../../stack/LwMesh/TDMA/sys/src/sysTimer.o
SYS_TimerStop                                     ../../../stack/LwMesh/TDMA/sys/src/sysTimer.o
SYS_TimerTaskHandler                              ../../../stack/LwMesh/TDMA/sys/src/sysTimer.o
                                                  ../../../stack/LwMesh/TDMA/sys/src/sys.o
SysTick_Handler                                   ../../../platform/sam/utils/cmsis/sam4l/source/templates/exceptions.o
                                                  ../../../platform/sam/utils/cmsis/sam4l/source/templates/gcc/startup_sam4l.o
SysTimerIrqCount                                  ../../../stack/LwMesh/TDMA/sys/src/sysTimer.o
SystemCoreClock                                   ../../../platform/sam/utils/cmsis/sam4l/source/templates/system_sam4l.o
SystemCoreClockUpdate                             ../../../platform/sam/utils/cmsis/sam4l/source/templates/system_sam4l.o
SystemInit                                        ../../../platform/sam/utils/cmsis/sam4l/source/templates/system_sam4l.o
TC00_Handler                                      ../../../stack/LwMesh/TDMA/services/common_hw_timer/sam/hw_timer.o
                                                  ../../../platform/sam/utils/cmsis/sam4l/source/templates/gcc/startup_sam4l.o
TC01_Handler                                      ../../../stack/LwMesh/TDMA/services/common_hw_timer/sam/hw_timer.o
                                                  ../../../platform/sam/utils/cmsis/sam4l/source/templates/gcc/startup_sam4l.o
TC02_Handler                                      ../../../stack/LwMesh/TDMA/services/common_hw_timer/sam/hw_timer.o
                                                  ../../../platform/sam/utils/cmsis/sam4l/source/templates/gcc/startup_sam4l.o
TC10_Handler                                      TC_lldn.o
                                                  ../../../platform/sam/utils/cmsis/sam4l/source/templates/gcc/startup_sam4l.o
TC11_Handler                                      ../../../stack/LwMesh/TDMA/services/common_hw_timer/sam/hw_timer.o
                                                  ../../../platform/sam/utils/cmsis/sam4l/source/templates/gcc/startup_sam4l.o
TC12_Handler                                      ../../../stack/LwMesh/TDMA/services/common_hw_timer/sam/hw_timer.o
                                                  ../../../platform/sam/utils/cmsis/sam4l/source/templates/gcc/startup_sam4l.o
TRNG_Handler                                      ../../../platform/sam/utils/cmsis/sam4l/source/templates/exceptions.o
                                                  ../../../platform/sam/utils/cmsis/sam4l/source/templates/gcc/startup_sam4l.o
TWIM0_Handler                                     ../../../platform/sam/utils/cmsis/sam4l/source/templates/exceptions.o
                                                  ../../../platform/sam/utils/cmsis/sam4l/source/templates/gcc/startup_sam4l.o
TWIM1_Handler                                     ../../../platform/sam/utils/cmsis/sam4l/source/templates/exceptions.o
                                                  ../../../platform/sam/utils/cmsis/sam4l/source/templates/gcc/startup_sam4l.o
TWIM2_Handler                                     ../../../platform/sam/utils/cmsis/sam4l/source/templates/exceptions.o
                                                  ../../../platform/sam/utils/cmsis/sam4l/source/templates/gcc/startup_sam4l.o
TWIM3_Handler                                     ../../../platform/sam/utils/cmsis/sam4l/source/templates/exceptions.o
                                                  ../../../platform/sam/utils/cmsis/sam4l/source/templates/gcc/startup_sam4l.o
TWIS0_Handler                                     ../../../platform/sam/utils/cmsis/sam4l/source/templates/exceptions.o
                                                  ../../../platform/sam/utils/cmsis/sam4l/source/templates/gcc/startup_sam4l.o
TWIS1_Handler                                     ../../../platform/sam/utils/cmsis/sam4l/source/templates/exceptions.o
                                                  ../../../platform/sam/utils/cmsis/sam4l/source/templates/gcc/startup_sam4l.o
USART0_Handler                                    ../../../platform/sam/utils/cmsis/sam4l/source/templates/exceptions.o
                                                  ../../../platform/sam/utils/cmsis/sam4l/source/templates/gcc/startup_sam4l.o
USART1_Handler                                    ../../../platform/sam/utils/cmsis/sam4l/source/templates/exceptions.o
                                                  ../../../platform/sam/utils/cmsis/sam4l/source/templates/gcc/startup_sam4l.o
USART2_Handler                                    ../../../platform/sam/utils/cmsis/sam4l/source/templates/exceptions.o
                                                  ../../../platform/sam/utils/cmsis/sam4l/source/templates/gcc/startup_sam4l.o
USART3_Handler                                    ../../../platform/sam/utils/cmsis/sam4l/source/templates/exceptions.o
                                                  ../../../platform/sam/utils/cmsis/sam4l/source/templates/gcc/startup_sam4l.o
USBC_Handler                                      ../../../platform/sam/drivers/usbc/usbc_device.o
                                                  ../../../platform/sam/utils/cmsis/sam4l/source/templates/exceptions.o
                                                  ../../../platform/sam/utils/cmsis/sam4l/source/templates/gcc/startup_sam4l.o
UsageFault_Handler                                ../../../platform/sam/utils/cmsis/sam4l/source/templates/exceptions.o
                                                  ../../../platform/sam/utils/cmsis/sam4l/source/templates/gcc/startup_sam4l.o
WDT_Handler                                       ../../../platform/sam/utils/cmsis/sam4l/source/templates/exceptions.o
                                                  ../../../platform/sam/utils/cmsis/sam4l/source/templates/gcc/startup_sam4l.o
_Balloc                                           c:/program files (x86)/atmel/studio/7.0/toolchain/arm/arm-gnu-toolchain/bin/../lib/gcc/arm-none-eabi/6.3.1/../../../../arm-none-eabi/lib/thumb/v7e-m\libg.a(lib_a-mprec.o)
                                                  c:/program files (x86)/atmel/studio/7.0/toolchain/arm/arm-gnu-toolchain/bin/../lib/gcc/arm-none-eabi/6.3.1/../../../../arm-none-eabi/lib/thumb/v7e-m\libg.a(lib_a-dtoa.o)
_Bfree                                            c:/program files (x86)/atmel/studio/7.0/toolchain/arm/arm-gnu-toolchain/bin/../lib/gcc/arm-none-eabi/6.3.1/../../../../arm-none-eabi/lib/thumb/v7e-m\libg.a(lib_a-mprec.o)
                                                  c:/program files (x86)/atmel/studio/7.0/toolchain/arm/arm-gnu-toolchain/bin/../lib/gcc/arm-none-eabi/6.3.1/../../../../arm-none-eabi/lib/thumb/v7e-m\libg.a(lib_a-dtoa.o)
_Jv_RegisterClasses                               c:/program files (x86)/atmel/studio/7.0/toolchain/arm/arm-gnu-toolchain/bin/../lib/gcc/arm-none-eabi/6.3.1/thumb/v7e-m/crtbegin.o
_PathLocale                                       c:/program files (x86)/atmel/studio/7.0/toolchain/arm/arm-gnu-toolchain/bin/../lib/gcc/arm-none-eabi/6.3.1/../../../../arm-none-eabi/lib/thumb/v7e-m\libg.a(lib_a-locale.o)
__adddf3                                          c:/program files (x86)/atmel/studio/7.0/toolchain/arm/arm-gnu-toolchain/bin/../lib/gcc/arm-none-eabi/6.3.1/thumb/v7e-m\libgcc.a(_arm_addsubdf3.o)
__aeabi_cdcmpeq                                   c:/program files (x86)/atmel/studio/7.0/toolchain/arm/arm-gnu-toolchain/bin/../lib/gcc/arm-none-eabi/6.3.1/thumb/v7e-m\libgcc.a(_arm_cmpdf2.o)
__aeabi_cdcmple                                   c:/program files (x86)/atmel/studio/7.0/toolchain/arm/arm-gnu-toolchain/bin/../lib/gcc/arm-none-eabi/6.3.1/thumb/v7e-m\libgcc.a(_arm_cmpdf2.o)
__aeabi_cdrcmple                                  c:/program files (x86)/atmel/studio/7.0/toolchain/arm/arm-gnu-toolchain/bin/../lib/gcc/arm-none-eabi/6.3.1/thumb/v7e-m\libgcc.a(_arm_cmpdf2.o)
__aeabi_d2iz                                      c:/program files (x86)/atmel/studio/7.0/toolchain/arm/arm-gnu-toolchain/bin/../lib/gcc/arm-none-eabi/6.3.1/thumb/v7e-m\libgcc.a(_arm_fixdfsi.o)
                                                  c:/program files (x86)/atmel/studio/7.0/toolchain/arm/arm-gnu-toolchain/bin/../lib/gcc/arm-none-eabi/6.3.1/../../../../arm-none-eabi/lib/thumb/v7e-m\libg.a(lib_a-dtoa.o)
__aeabi_dadd                                      c:/program files (x86)/atmel/studio/7.0/toolchain/arm/arm-gnu-toolchain/bin/../lib/gcc/arm-none-eabi/6.3.1/thumb/v7e-m\libgcc.a(_arm_addsubdf3.o)
                                                  c:/program files (x86)/atmel/studio/7.0/toolchain/arm/arm-gnu-toolchain/bin/../lib/gcc/arm-none-eabi/6.3.1/../../../../arm-none-eabi/lib/thumb/v7e-m\libg.a(lib_a-dtoa.o)
__aeabi_dcmpeq                                    c:/program files (x86)/atmel/studio/7.0/toolchain/arm/arm-gnu-toolchain/bin/../lib/gcc/arm-none-eabi/6.3.1/thumb/v7e-m\libgcc.a(_arm_cmpdf2.o)
                                                  c:/program files (x86)/atmel/studio/7.0/toolchain/arm/arm-gnu-toolchain/bin/../lib/gcc/arm-none-eabi/6.3.1/../../../../arm-none-eabi/lib/thumb/v7e-m\libg.a(lib_a-dtoa.o)
                                                  c:/program files (x86)/atmel/studio/7.0/toolchain/arm/arm-gnu-toolchain/bin/../lib/gcc/arm-none-eabi/6.3.1/../../../../arm-none-eabi/lib/thumb/v7e-m\libg.a(lib_a-vfprintf.o)
__aeabi_dcmpge                                    c:/program files (x86)/atmel/studio/7.0/toolchain/arm/arm-gnu-toolchain/bin/../lib/gcc/arm-none-eabi/6.3.1/thumb/v7e-m\libgcc.a(_arm_cmpdf2.o)
                                                  c:/program files (x86)/atmel/studio/7.0/toolchain/arm/arm-gnu-toolchain/bin/../lib/gcc/arm-none-eabi/6.3.1/../../../../arm-none-eabi/lib/thumb/v7e-m\libg.a(lib_a-dtoa.o)
__aeabi_dcmpgt                                    c:/program files (x86)/atmel/studio/7.0/toolchain/arm/arm-gnu-toolchain/bin/../lib/gcc/arm-none-eabi/6.3.1/thumb/v7e-m\libgcc.a(_arm_cmpdf2.o)
                                                  c:/program files (x86)/atmel/studio/7.0/toolchain/arm/arm-gnu-toolchain/bin/../lib/gcc/arm-none-eabi/6.3.1/../../../../arm-none-eabi/lib/thumb/v7e-m\libg.a(lib_a-dtoa.o)
__aeabi_dcmple                                    c:/program files (x86)/atmel/studio/7.0/toolchain/arm/arm-gnu-toolchain/bin/../lib/gcc/arm-none-eabi/6.3.1/thumb/v7e-m\libgcc.a(_arm_cmpdf2.o)
                                                  c:/program files (x86)/atmel/studio/7.0/toolchain/arm/arm-gnu-toolchain/bin/../lib/gcc/arm-none-eabi/6.3.1/../../../../arm-none-eabi/lib/thumb/v7e-m\libg.a(lib_a-vfprintf.o)
__aeabi_dcmplt                                    c:/program files (x86)/atmel/studio/7.0/toolchain/arm/arm-gnu-toolchain/bin/../lib/gcc/arm-none-eabi/6.3.1/thumb/v7e-m\libgcc.a(_arm_cmpdf2.o)
                                                  c:/program files (x86)/atmel/studio/7.0/toolchain/arm/arm-gnu-toolchain/bin/../lib/gcc/arm-none-eabi/6.3.1/../../../../arm-none-eabi/lib/thumb/v7e-m\libg.a(lib_a-dtoa.o)
                                                  c:/program files (x86)/atmel/studio/7.0/toolchain/arm/arm-gnu-toolchain/bin/../lib/gcc/arm-none-eabi/6.3.1/../../../../arm-none-eabi/lib/thumb/v7e-m\libg.a(lib_a-vfprintf.o)
__aeabi_dcmpun                                    c:/program files (x86)/atmel/studio/7.0/toolchain/arm/arm-gnu-toolchain/bin/../lib/gcc/arm-none-eabi/6.3.1/thumb/v7e-m\libgcc.a(_arm_unorddf2.o)
                                                  c:/program files (x86)/atmel/studio/7.0/toolchain/arm/arm-gnu-toolchain/bin/../lib/gcc/arm-none-eabi/6.3.1/../../../../arm-none-eabi/lib/thumb/v7e-m\libg.a(lib_a-vfprintf.o)
__aeabi_ddiv                                      c:/program files (x86)/atmel/studio/7.0/toolchain/arm/arm-gnu-toolchain/bin/../lib/gcc/arm-none-eabi/6.3.1/thumb/v7e-m\libgcc.a(_arm_muldivdf3.o)
                                                  c:/program files (x86)/atmel/studio/7.0/toolchain/arm/arm-gnu-toolchain/bin/../lib/gcc/arm-none-eabi/6.3.1/../../../../arm-none-eabi/lib/thumb/v7e-m\libg.a(lib_a-mprec.o)
                                                  c:/program files (x86)/atmel/studio/7.0/toolchain/arm/arm-gnu-toolchain/bin/../lib/gcc/arm-none-eabi/6.3.1/../../../../arm-none-eabi/lib/thumb/v7e-m\libg.a(lib_a-dtoa.o)
__aeabi_dmul                                      c:/program files (x86)/atmel/studio/7.0/toolchain/arm/arm-gnu-toolchain/bin/../lib/gcc/arm-none-eabi/6.3.1/thumb/v7e-m\libgcc.a(_arm_muldivdf3.o)
                                                  c:/program files (x86)/atmel/studio/7.0/toolchain/arm/arm-gnu-toolchain/bin/../lib/gcc/arm-none-eabi/6.3.1/../../../../arm-none-eabi/lib/thumb/v7e-m\libg.a(lib_a-mprec.o)
                                                  c:/program files (x86)/atmel/studio/7.0/toolchain/arm/arm-gnu-toolchain/bin/../lib/gcc/arm-none-eabi/6.3.1/../../../../arm-none-eabi/lib/thumb/v7e-m\libg.a(lib_a-dtoa.o)
__aeabi_drsub                                     c:/program files (x86)/atmel/studio/7.0/toolchain/arm/arm-gnu-toolchain/bin/../lib/gcc/arm-none-eabi/6.3.1/thumb/v7e-m\libgcc.a(_arm_addsubdf3.o)
__aeabi_dsub                                      c:/program files (x86)/atmel/studio/7.0/toolchain/arm/arm-gnu-toolchain/bin/../lib/gcc/arm-none-eabi/6.3.1/thumb/v7e-m\libgcc.a(_arm_addsubdf3.o)
                                                  c:/program files (x86)/atmel/studio/7.0/toolchain/arm/arm-gnu-toolchain/bin/../lib/gcc/arm-none-eabi/6.3.1/../../../../arm-none-eabi/lib/thumb/v7e-m\libg.a(lib_a-dtoa.o)
__aeabi_f2d                                       c:/program files (x86)/atmel/studio/7.0/toolchain/arm/arm-gnu-toolchain/bin/../lib/gcc/arm-none-eabi/6.3.1/thumb/v7e-m\libgcc.a(_arm_addsubdf3.o)
__aeabi_i2d                                       c:/program files (x86)/atmel/studio/7.0/toolchain/arm/arm-gnu-toolchain/bin/../lib/gcc/arm-none-eabi/6.3.1/thumb/v7e-m\libgcc.a(_arm_addsubdf3.o)
                                                  c:/program files (x86)/atmel/studio/7.0/toolchain/arm/arm-gnu-toolchain/bin/../lib/gcc/arm-none-eabi/6.3.1/../../../../arm-none-eabi/lib/thumb/v7e-m\libg.a(lib_a-dtoa.o)
__aeabi_idiv0                                     c:/program files (x86)/atmel/studio/7.0/toolchain/arm/arm-gnu-toolchain/bin/../lib/gcc/arm-none-eabi/6.3.1/thumb/v7e-m\libgcc.a(_dvmd_tls.o)
__aeabi_l2d                                       c:/program files (x86)/atmel/studio/7.0/toolchain/arm/arm-gnu-toolchain/bin/../lib/gcc/arm-none-eabi/6.3.1/thumb/v7e-m\libgcc.a(_arm_addsubdf3.o)
__aeabi_ldiv0                                     c:/program files (x86)/atmel/studio/7.0/toolchain/arm/arm-gnu-toolchain/bin/../lib/gcc/arm-none-eabi/6.3.1/thumb/v7e-m\libgcc.a(_dvmd_tls.o)
                                                  c:/program files (x86)/atmel/studio/7.0/toolchain/arm/arm-gnu-toolchain/bin/../lib/gcc/arm-none-eabi/6.3.1/thumb/v7e-m\libgcc.a(_aeabi_uldivmod.o)
__aeabi_ui2d                                      c:/program files (x86)/atmel/studio/7.0/toolchain/arm/arm-gnu-toolchain/bin/../lib/gcc/arm-none-eabi/6.3.1/thumb/v7e-m\libgcc.a(_arm_addsubdf3.o)
                                                  c:/program files (x86)/atmel/studio/7.0/toolchain/arm/arm-gnu-toolchain/bin/../lib/gcc/arm-none-eabi/6.3.1/../../../../arm-none-eabi/lib/thumb/v7e-m\libg.a(lib_a-dtoa.o)
__aeabi_ul2d                                      c:/program files (x86)/atmel/studio/7.0/toolchain/arm/arm-gnu-toolchain/bin/../lib/gcc/arm-none-eabi/6.3.1/thumb/v7e-m\libgcc.a(_arm_addsubdf3.o)
__aeabi_uldivmod                                  c:/program files (x86)/atmel/studio/7.0/toolchain/arm/arm-gnu-toolchain/bin/../lib/gcc/arm-none-eabi/6.3.1/thumb/v7e-m\libgcc.a(_aeabi_uldivmod.o)
                                                  c:/program files (x86)/atmel/studio/7.0/toolchain/arm/arm-gnu-toolchain/bin/../lib/gcc/arm-none-eabi/6.3.1/../../../../arm-none-eabi/lib/thumb/v7e-m\libg.a(lib_a-vfiprintf.o)
                                                  c:/program files (x86)/atmel/studio/7.0/toolchain/arm/arm-gnu-toolchain/bin/../lib/gcc/arm-none-eabi/6.3.1/../../../../arm-none-eabi/lib/thumb/v7e-m\libg.a(lib_a-vfprintf.o)
__any_on                                          c:/program files (x86)/atmel/studio/7.0/toolchain/arm/arm-gnu-toolchain/bin/../lib/gcc/arm-none-eabi/6.3.1/../../../../arm-none-eabi/lib/thumb/v7e-m\libg.a(lib_a-mprec.o)
__ascii_mbtowc                                    c:/program files (x86)/atmel/studio/7.0/toolchain/arm/arm-gnu-toolchain/bin/../lib/gcc/arm-none-eabi/6.3.1/../../../../arm-none-eabi/lib/thumb/v7e-m\libg.a(lib_a-mbtowc_r.o)
                                                  c:/program files (x86)/atmel/studio/7.0/toolchain/arm/arm-gnu-toolchain/bin/../lib/gcc/arm-none-eabi/6.3.1/../../../../arm-none-eabi/lib/thumb/v7e-m\libg.a(lib_a-locale.o)
__ascii_wctomb                                    c:/program files (x86)/atmel/studio/7.0/toolchain/arm/arm-gnu-toolchain/bin/../lib/gcc/arm-none-eabi/6.3.1/../../../../arm-none-eabi/lib/thumb/v7e-m\libg.a(lib_a-wctomb_r.o)
                                                  c:/program files (x86)/atmel/studio/7.0/toolchain/arm/arm-gnu-toolchain/bin/../lib/gcc/arm-none-eabi/6.3.1/../../../../arm-none-eabi/lib/thumb/v7e-m\libg.a(lib_a-locale.o)
__atexit_recursive_mutex                          c:/program files (x86)/atmel/studio/7.0/toolchain/arm/arm-gnu-toolchain/bin/../lib/gcc/arm-none-eabi/6.3.1/../../../../arm-none-eabi/lib/thumb/v7e-m\libg.a(lib_a-__call_atexit.o)
                                                  c:/program files (x86)/atmel/studio/7.0/toolchain/arm/arm-gnu-toolchain/bin/../lib/gcc/arm-none-eabi/6.3.1/../../../../arm-none-eabi/lib/thumb/v7e-m\libg.a(lib_a-__atexit.o)
__b2d                                             c:/program files (x86)/atmel/studio/7.0/toolchain/arm/arm-gnu-toolchain/bin/../lib/gcc/arm-none-eabi/6.3.1/../../../../arm-none-eabi/lib/thumb/v7e-m\libg.a(lib_a-mprec.o)
__bss_end__                                       c:/program files (x86)/atmel/studio/7.0/toolchain/arm/arm-gnu-toolchain/bin/../lib/gcc/arm-none-eabi/6.3.1/../../../../arm-none-eabi/lib/thumb/v7e-m/crt0.o
__bss_start__                                     c:/program files (x86)/atmel/studio/7.0/toolchain/arm/arm-gnu-toolchain/bin/../lib/gcc/arm-none-eabi/6.3.1/../../../../arm-none-eabi/lib/thumb/v7e-m/crt0.o
__call_exitprocs                                  c:/program files (x86)/atmel/studio/7.0/toolchain/arm/arm-gnu-toolchain/bin/../lib/gcc/arm-none-eabi/6.3.1/../../../../arm-none-eabi/lib/thumb/v7e-m\libg.a(lib_a-__call_atexit.o)
                                                  c:/program files (x86)/atmel/studio/7.0/toolchain/arm/arm-gnu-toolchain/bin/../lib/gcc/arm-none-eabi/6.3.1/../../../../arm-none-eabi/lib/thumb/v7e-m\libg.a(lib_a-exit.o)
__cmpdf2                                          c:/program files (x86)/atmel/studio/7.0/toolchain/arm/arm-gnu-toolchain/bin/../lib/gcc/arm-none-eabi/6.3.1/thumb/v7e-m\libgcc.a(_arm_cmpdf2.o)
__copybits                                        c:/program files (x86)/atmel/studio/7.0/toolchain/arm/arm-gnu-toolchain/bin/../lib/gcc/arm-none-eabi/6.3.1/../../../../arm-none-eabi/lib/thumb/v7e-m\libg.a(lib_a-mprec.o)
__d2b                                             c:/program files (x86)/atmel/studio/7.0/toolchain/arm/arm-gnu-toolchain/bin/../lib/gcc/arm-none-eabi/6.3.1/../../../../arm-none-eabi/lib/thumb/v7e-m\libg.a(lib_a-mprec.o)
                                                  c:/program files (x86)/atmel/studio/7.0/toolchain/arm/arm-gnu-toolchain/bin/../lib/gcc/arm-none-eabi/6.3.1/../../../../arm-none-eabi/lib/thumb/v7e-m\libg.a(lib_a-dtoa.o)
__deregister_frame_info                           c:/program files (x86)/atmel/studio/7.0/toolchain/arm/arm-gnu-toolchain/bin/../lib/gcc/arm-none-eabi/6.3.1/thumb/v7e-m/crtbegin.o
__divdf3                                          c:/program files (x86)/atmel/studio/7.0/toolchain/arm/arm-gnu-toolchain/bin/../lib/gcc/arm-none-eabi/6.3.1/thumb/v7e-m\libgcc.a(_arm_muldivdf3.o)
__dso_handle                                      c:/program files (x86)/atmel/studio/7.0/toolchain/arm/arm-gnu-toolchain/bin/../lib/gcc/arm-none-eabi/6.3.1/thumb/v7e-m/crtbegin.o
__eqdf2                                           c:/program files (x86)/atmel/studio/7.0/toolchain/arm/arm-gnu-toolchain/bin/../lib/gcc/arm-none-eabi/6.3.1/thumb/v7e-m\libgcc.a(_arm_cmpdf2.o)
__extendsfdf2                                     c:/program files (x86)/atmel/studio/7.0/toolchain/arm/arm-gnu-toolchain/bin/../lib/gcc/arm-none-eabi/6.3.1/thumb/v7e-m\libgcc.a(_arm_addsubdf3.o)
__fini_array_end                                  c:/program files (x86)/atmel/studio/7.0/toolchain/arm/arm-gnu-toolchain/bin/../lib/gcc/arm-none-eabi/6.3.1/../../../../arm-none-eabi/lib/thumb/v7e-m\libg.a(lib_a-fini.o)
__fini_array_start                                c:/program files (x86)/atmel/studio/7.0/toolchain/arm/arm-gnu-toolchain/bin/../lib/gcc/arm-none-eabi/6.3.1/../../../../arm-none-eabi/lib/thumb/v7e-m\libg.a(lib_a-fini.o)
__fixdfsi                                         c:/program files (x86)/atmel/studio/7.0/toolchain/arm/arm-gnu-toolchain/bin/../lib/gcc/arm-none-eabi/6.3.1/thumb/v7e-m\libgcc.a(_arm_fixdfsi.o)
__floatdidf                                       c:/program files (x86)/atmel/studio/7.0/toolchain/arm/arm-gnu-toolchain/bin/../lib/gcc/arm-none-eabi/6.3.1/thumb/v7e-m\libgcc.a(_arm_addsubdf3.o)
__floatsidf                                       c:/program files (x86)/atmel/studio/7.0/toolchain/arm/arm-gnu-toolchain/bin/../lib/gcc/arm-none-eabi/6.3.1/thumb/v7e-m\libgcc.a(_arm_addsubdf3.o)
__floatundidf                                     c:/program files (x86)/atmel/studio/7.0/toolchain/arm/arm-gnu-toolchain/bin/../lib/gcc/arm-none-eabi/6.3.1/thumb/v7e-m\libgcc.a(_arm_addsubdf3.o)
__floatunsidf                                     c:/program files (x86)/atmel/studio/7.0/toolchain/arm/arm-gnu-toolchain/bin/../lib/gcc/arm-none-eabi/6.3.1/thumb/v7e-m\libgcc.a(_arm_addsubdf3.o)
__fp_lock_all                                     c:/program files (x86)/atmel/studio/7.0/toolchain/arm/arm-gnu-toolchain/bin/../lib/gcc/arm-none-eabi/6.3.1/../../../../arm-none-eabi/lib/thumb/v7e-m\libg.a(lib_a-findfp.o)
__fp_unlock_all                                   c:/program files (x86)/atmel/studio/7.0/toolchain/arm/arm-gnu-toolchain/bin/../lib/gcc/arm-none-eabi/6.3.1/../../../../arm-none-eabi/lib/thumb/v7e-m\libg.a(lib_a-findfp.o)
__fputwc                                          c:/program files (x86)/atmel/studio/7.0/toolchain/arm/arm-gnu-toolchain/bin/../lib/gcc/arm-none-eabi/6.3.1/../../../../arm-none-eabi/lib/thumb/v7e-m\libg.a(lib_a-fputwc.o)
__gedf2                                           c:/program files (x86)/atmel/studio/7.0/toolchain/arm/arm-gnu-toolchain/bin/../lib/gcc/arm-none-eabi/6.3.1/thumb/v7e-m\libgcc.a(_arm_cmpdf2.o)
__global_locale                                   c:/program files (x86)/atmel/studio/7.0/toolchain/arm/arm-gnu-toolchain/bin/../lib/gcc/arm-none-eabi/6.3.1/../../../../arm-none-eabi/lib/thumb/v7e-m\libg.a(lib_a-locale.o)
                                                  c:/program files (x86)/atmel/studio/7.0/toolchain/arm/arm-gnu-toolchain/bin/../lib/gcc/arm-none-eabi/6.3.1/../../../../arm-none-eabi/lib/thumb/v7e-m\libg.a(lib_a-wctomb_r.o)
                                                  c:/program files (x86)/atmel/studio/7.0/toolchain/arm/arm-gnu-toolchain/bin/../lib/gcc/arm-none-eabi/6.3.1/../../../../arm-none-eabi/lib/thumb/v7e-m\libg.a(lib_a-wcrtomb.o)
                                                  c:/program files (x86)/atmel/studio/7.0/toolchain/arm/arm-gnu-toolchain/bin/../lib/gcc/arm-none-eabi/6.3.1/../../../../arm-none-eabi/lib/thumb/v7e-m\libg.a(lib_a-mbtowc_r.o)
                                                  c:/program files (x86)/atmel/studio/7.0/toolchain/arm/arm-gnu-toolchain/bin/../lib/gcc/arm-none-eabi/6.3.1/../../../../arm-none-eabi/lib/thumb/v7e-m\libg.a(lib_a-localeconv.o)
__gtdf2                                           c:/program files (x86)/atmel/studio/7.0/toolchain/arm/arm-gnu-toolchain/bin/../lib/gcc/arm-none-eabi/6.3.1/thumb/v7e-m\libgcc.a(_arm_cmpdf2.o)
__hi0bits                                         c:/program files (x86)/atmel/studio/7.0/toolchain/arm/arm-gnu-toolchain/bin/../lib/gcc/arm-none-eabi/6.3.1/../../../../arm-none-eabi/lib/thumb/v7e-m\libg.a(lib_a-mprec.o)
                                                  c:/program files (x86)/atmel/studio/7.0/toolchain/arm/arm-gnu-toolchain/bin/../lib/gcc/arm-none-eabi/6.3.1/../../../../arm-none-eabi/lib/thumb/v7e-m\libg.a(lib_a-dtoa.o)
__i2b                                             c:/program files (x86)/atmel/studio/7.0/toolchain/arm/arm-gnu-toolchain/bin/../lib/gcc/arm-none-eabi/6.3.1/../../../../arm-none-eabi/lib/thumb/v7e-m\libg.a(lib_a-mprec.o)
                                                  c:/program files (x86)/atmel/studio/7.0/toolchain/arm/arm-gnu-toolchain/bin/../lib/gcc/arm-none-eabi/6.3.1/../../../../arm-none-eabi/lib/thumb/v7e-m\libg.a(lib_a-dtoa.o)
__init_array_end                                  c:/program files (x86)/atmel/studio/7.0/toolchain/arm/arm-gnu-toolchain/bin/../lib/gcc/arm-none-eabi/6.3.1/../../../../arm-none-eabi/lib/thumb/v7e-m\libg.a(lib_a-init.o)
__init_array_start                                c:/program files (x86)/atmel/studio/7.0/toolchain/arm/arm-gnu-toolchain/bin/../lib/gcc/arm-none-eabi/6.3.1/../../../../arm-none-eabi/lib/thumb/v7e-m\libg.a(lib_a-init.o)
__ledf2                                           c:/program files (x86)/atmel/studio/7.0/toolchain/arm/arm-gnu-toolchain/bin/../lib/gcc/arm-none-eabi/6.3.1/thumb/v7e-m\libgcc.a(_arm_cmpdf2.o)
__libc_fini                                       c:/program files (x86)/atmel/studio/7.0/toolchain/arm/arm-gnu-toolchain/bin/../lib/gcc/arm-none-eabi/6.3.1/../../../../arm-none-eabi/lib/thumb/v7e-m\libg.a(lib_a-__call_atexit.o)
__libc_fini_array                                 c:/program files (x86)/atmel/studio/7.0/toolchain/arm/arm-gnu-toolchain/bin/../lib/gcc/arm-none-eabi/6.3.1/../../../../arm-none-eabi/lib/thumb/v7e-m\libg.a(lib_a-fini.o)
                                                  c:/program files (x86)/atmel/studio/7.0/toolchain/arm/arm-gnu-toolchain/bin/../lib/gcc/arm-none-eabi/6.3.1/../../../../arm-none-eabi/lib/thumb/v7e-m\libg.a(lib_a-__call_atexit.o)
                                                  c:/program files (x86)/atmel/studio/7.0/toolchain/arm/arm-gnu-toolchain/bin/../lib/gcc/arm-none-eabi/6.3.1/../../../../arm-none-eabi/lib/thumb/v7e-m/crt0.o
__libc_init_array                                 c:/program files (x86)/atmel/studio/7.0/toolchain/arm/arm-gnu-toolchain/bin/../lib/gcc/arm-none-eabi/6.3.1/../../../../arm-none-eabi/lib/thumb/v7e-m\libg.a(lib_a-init.o)
                                                  ../../../platform/sam/utils/cmsis/sam4l/source/templates/gcc/startup_sam4l.o
                                                  c:/program files (x86)/atmel/studio/7.0/toolchain/arm/arm-gnu-toolchain/bin/../lib/gcc/arm-none-eabi/6.3.1/../../../../arm-none-eabi/lib/thumb/v7e-m/crt0.o
__lo0bits                                         c:/program files (x86)/atmel/studio/7.0/toolchain/arm/arm-gnu-toolchain/bin/../lib/gcc/arm-none-eabi/6.3.1/../../../../arm-none-eabi/lib/thumb/v7e-m\libg.a(lib_a-mprec.o)
__locale_ctype_ptr                                c:/program files (x86)/atmel/studio/7.0/toolchain/arm/arm-gnu-toolchain/bin/../lib/gcc/arm-none-eabi/6.3.1/../../../../arm-none-eabi/lib/thumb/v7e-m\libg.a(lib_a-locale.o)
__locale_ctype_ptr_l                              c:/program files (x86)/atmel/studio/7.0/toolchain/arm/arm-gnu-toolchain/bin/../lib/gcc/arm-none-eabi/6.3.1/../../../../arm-none-eabi/lib/thumb/v7e-m\libg.a(lib_a-locale.o)
__locale_mb_cur_max                               c:/program files (x86)/atmel/studio/7.0/toolchain/arm/arm-gnu-toolchain/bin/../lib/gcc/arm-none-eabi/6.3.1/../../../../arm-none-eabi/lib/thumb/v7e-m\libg.a(lib_a-locale.o)
                                                  c:/program files (x86)/atmel/studio/7.0/toolchain/arm/arm-gnu-toolchain/bin/../lib/gcc/arm-none-eabi/6.3.1/../../../../arm-none-eabi/lib/thumb/v7e-m\libg.a(lib_a-fputwc.o)
__localeconv_l                                    c:/program files (x86)/atmel/studio/7.0/toolchain/arm/arm-gnu-toolchain/bin/../lib/gcc/arm-none-eabi/6.3.1/../../../../arm-none-eabi/lib/thumb/v7e-m\libg.a(lib_a-localeconv.o)
__lock___arc4random_mutex                         c:/program files (x86)/atmel/studio/7.0/toolchain/arm/arm-gnu-toolchain/bin/../lib/gcc/arm-none-eabi/6.3.1/../../../../arm-none-eabi/lib/thumb/v7e-m\libg.a(lib_a-lock.o)
__lock___at_quick_exit_mutex                      c:/program files (x86)/atmel/studio/7.0/toolchain/arm/arm-gnu-toolchain/bin/../lib/gcc/arm-none-eabi/6.3.1/../../../../arm-none-eabi/lib/thumb/v7e-m\libg.a(lib_a-lock.o)
__lock___atexit_recursive_mutex                   c:/program files (x86)/atmel/studio/7.0/toolchain/arm/arm-gnu-toolchain/bin/../lib/gcc/arm-none-eabi/6.3.1/../../../../arm-none-eabi/lib/thumb/v7e-m\libg.a(lib_a-lock.o)
                                                  c:/program files (x86)/atmel/studio/7.0/toolchain/arm/arm-gnu-toolchain/bin/../lib/gcc/arm-none-eabi/6.3.1/../../../../arm-none-eabi/lib/thumb/v7e-m\libg.a(lib_a-__call_atexit.o)
__lock___dd_hash_mutex                            c:/program files (x86)/atmel/studio/7.0/toolchain/arm/arm-gnu-toolchain/bin/../lib/gcc/arm-none-eabi/6.3.1/../../../../arm-none-eabi/lib/thumb/v7e-m\libg.a(lib_a-lock.o)
__lock___env_recursive_mutex                      c:/program files (x86)/atmel/studio/7.0/toolchain/arm/arm-gnu-toolchain/bin/../lib/gcc/arm-none-eabi/6.3.1/../../../../arm-none-eabi/lib/thumb/v7e-m\libg.a(lib_a-lock.o)
__lock___malloc_recursive_mutex                   c:/program files (x86)/atmel/studio/7.0/toolchain/arm/arm-gnu-toolchain/bin/../lib/gcc/arm-none-eabi/6.3.1/../../../../arm-none-eabi/lib/thumb/v7e-m\libg.a(lib_a-lock.o)
                                                  c:/program files (x86)/atmel/studio/7.0/toolchain/arm/arm-gnu-toolchain/bin/../lib/gcc/arm-none-eabi/6.3.1/../../../../arm-none-eabi/lib/thumb/v7e-m\libg.a(lib_a-mlock.o)
__lock___sfp_recursive_mutex                      c:/program files (x86)/atmel/studio/7.0/toolchain/arm/arm-gnu-toolchain/bin/../lib/gcc/arm-none-eabi/6.3.1/../../../../arm-none-eabi/lib/thumb/v7e-m\libg.a(lib_a-lock.o)
                                                  c:/program files (x86)/atmel/studio/7.0/toolchain/arm/arm-gnu-toolchain/bin/../lib/gcc/arm-none-eabi/6.3.1/../../../../arm-none-eabi/lib/thumb/v7e-m\libg.a(lib_a-findfp.o)
__lock___sinit_recursive_mutex                    c:/program files (x86)/atmel/studio/7.0/toolchain/arm/arm-gnu-toolchain/bin/../lib/gcc/arm-none-eabi/6.3.1/../../../../arm-none-eabi/lib/thumb/v7e-m\libg.a(lib_a-lock.o)
                                                  c:/program files (x86)/atmel/studio/7.0/toolchain/arm/arm-gnu-toolchain/bin/../lib/gcc/arm-none-eabi/6.3.1/../../../../arm-none-eabi/lib/thumb/v7e-m\libg.a(lib_a-findfp.o)
__lock___tz_mutex                                 c:/program files (x86)/atmel/studio/7.0/toolchain/arm/arm-gnu-toolchain/bin/../lib/gcc/arm-none-eabi/6.3.1/../../../../arm-none-eabi/lib/thumb/v7e-m\libg.a(lib_a-lock.o)
__lshift                                          c:/program files (x86)/atmel/studio/7.0/toolchain/arm/arm-gnu-toolchain/bin/../lib/gcc/arm-none-eabi/6.3.1/../../../../arm-none-eabi/lib/thumb/v7e-m\libg.a(lib_a-mprec.o)
                                                  c:/program files (x86)/atmel/studio/7.0/toolchain/arm/arm-gnu-toolchain/bin/../lib/gcc/arm-none-eabi/6.3.1/../../../../arm-none-eabi/lib/thumb/v7e-m\libg.a(lib_a-dtoa.o)
__ltdf2                                           c:/program files (x86)/atmel/studio/7.0/toolchain/arm/arm-gnu-toolchain/bin/../lib/gcc/arm-none-eabi/6.3.1/thumb/v7e-m\libgcc.a(_arm_cmpdf2.o)
__malloc_av_                                      c:/program files (x86)/atmel/studio/7.0/toolchain/arm/arm-gnu-toolchain/bin/../lib/gcc/arm-none-eabi/6.3.1/../../../../arm-none-eabi/lib/thumb/v7e-m\libg.a(lib_a-mallocr.o)
                                                  c:/program files (x86)/atmel/studio/7.0/toolchain/arm/arm-gnu-toolchain/bin/../lib/gcc/arm-none-eabi/6.3.1/../../../../arm-none-eabi/lib/thumb/v7e-m\libg.a(lib_a-reallocr.o)
                                                  c:/program files (x86)/atmel/studio/7.0/toolchain/arm/arm-gnu-toolchain/bin/../lib/gcc/arm-none-eabi/6.3.1/../../../../arm-none-eabi/lib/thumb/v7e-m\libg.a(lib_a-freer.o)
__malloc_current_mallinfo                         c:/program files (x86)/atmel/studio/7.0/toolchain/arm/arm-gnu-toolchain/bin/../lib/gcc/arm-none-eabi/6.3.1/../../../../arm-none-eabi/lib/thumb/v7e-m\libg.a(lib_a-mallocr.o)
                                                  c:/program files (x86)/atmel/studio/7.0/toolchain/arm/arm-gnu-toolchain/bin/../lib/gcc/arm-none-eabi/6.3.1/../../../../arm-none-eabi/lib/thumb/v7e-m\libg.a(lib_a-freer.o)
__malloc_lock                                     c:/program files (x86)/atmel/studio/7.0/toolchain/arm/arm-gnu-toolchain/bin/../lib/gcc/arm-none-eabi/6.3.1/../../../../arm-none-eabi/lib/thumb/v7e-m\libg.a(lib_a-mlock.o)
                                                  c:/program files (x86)/atmel/studio/7.0/toolchain/arm/arm-gnu-toolchain/bin/../lib/gcc/arm-none-eabi/6.3.1/../../../../arm-none-eabi/lib/thumb/v7e-m\libg.a(lib_a-reallocr.o)
                                                  c:/program files (x86)/atmel/studio/7.0/toolchain/arm/arm-gnu-toolchain/bin/../lib/gcc/arm-none-eabi/6.3.1/../../../../arm-none-eabi/lib/thumb/v7e-m\libg.a(lib_a-mallocr.o)
                                                  c:/program files (x86)/atmel/studio/7.0/toolchain/arm/arm-gnu-toolchain/bin/../lib/gcc/arm-none-eabi/6.3.1/../../../../arm-none-eabi/lib/thumb/v7e-m\libg.a(lib_a-freer.o)
__malloc_max_sbrked_mem                           c:/program files (x86)/atmel/studio/7.0/toolchain/arm/arm-gnu-toolchain/bin/../lib/gcc/arm-none-eabi/6.3.1/../../../../arm-none-eabi/lib/thumb/v7e-m\libg.a(lib_a-mallocr.o)
__malloc_max_total_mem                            c:/program files (x86)/atmel/studio/7.0/toolchain/arm/arm-gnu-toolchain/bin/../lib/gcc/arm-none-eabi/6.3.1/../../../../arm-none-eabi/lib/thumb/v7e-m\libg.a(lib_a-mallocr.o)
__malloc_sbrk_base                                c:/program files (x86)/atmel/studio/7.0/toolchain/arm/arm-gnu-toolchain/bin/../lib/gcc/arm-none-eabi/6.3.1/../../../../arm-none-eabi/lib/thumb/v7e-m\libg.a(lib_a-mallocr.o)
                                                  c:/program files (x86)/atmel/studio/7.0/toolchain/arm/arm-gnu-toolchain/bin/../lib/gcc/arm-none-eabi/6.3.1/../../../../arm-none-eabi/lib/thumb/v7e-m\libg.a(lib_a-freer.o)
__malloc_top_pad                                  c:/program files (x86)/atmel/studio/7.0/toolchain/arm/arm-gnu-toolchain/bin/../lib/gcc/arm-none-eabi/6.3.1/../../../../arm-none-eabi/lib/thumb/v7e-m\libg.a(lib_a-mallocr.o)
                                                  c:/program files (x86)/atmel/studio/7.0/toolchain/arm/arm-gnu-toolchain/bin/../lib/gcc/arm-none-eabi/6.3.1/../../../../arm-none-eabi/lib/thumb/v7e-m\libg.a(lib_a-freer.o)
__malloc_trim_threshold                           c:/program files (x86)/atmel/studio/7.0/toolchain/arm/arm-gnu-toolchain/bin/../lib/gcc/arm-none-eabi/6.3.1/../../../../arm-none-eabi/lib/thumb/v7e-m\libg.a(lib_a-mallocr.o)
                                                  c:/program files (x86)/atmel/studio/7.0/toolchain/arm/arm-gnu-toolchain/bin/../lib/gcc/arm-none-eabi/6.3.1/../../../../arm-none-eabi/lib/thumb/v7e-m\libg.a(lib_a-freer.o)
__malloc_unlock                                   c:/program files (x86)/atmel/studio/7.0/toolchain/arm/arm-gnu-toolchain/bin/../lib/gcc/arm-none-eabi/6.3.1/../../../../arm-none-eabi/lib/thumb/v7e-m\libg.a(lib_a-mlock.o)
                                                  c:/program files (x86)/atmel/studio/7.0/toolchain/arm/arm-gnu-toolchain/bin/../lib/gcc/arm-none-eabi/6.3.1/../../../../arm-none-eabi/lib/thumb/v7e-m\libg.a(lib_a-reallocr.o)
                                                  c:/program files (x86)/atmel/studio/7.0/toolchain/arm/arm-gnu-toolchain/bin/../lib/gcc/arm-none-eabi/6.3.1/../../../../arm-none-eabi/lib/thumb/v7e-m\libg.a(lib_a-mallocr.o)
                                                  c:/program files (x86)/atmel/studio/7.0/toolchain/arm/arm-gnu-toolchain/bin/../lib/gcc/arm-none-eabi/6.3.1/../../../../arm-none-eabi/lib/thumb/v7e-m\libg.a(lib_a-freer.o)
__mcmp                                            c:/program files (x86)/atmel/studio/7.0/toolchain/arm/arm-gnu-toolchain/bin/../lib/gcc/arm-none-eabi/6.3.1/../../../../arm-none-eabi/lib/thumb/v7e-m\libg.a(lib_a-mprec.o)
                                                  c:/program files (x86)/atmel/studio/7.0/toolchain/arm/arm-gnu-toolchain/bin/../lib/gcc/arm-none-eabi/6.3.1/../../../../arm-none-eabi/lib/thumb/v7e-m\libg.a(lib_a-dtoa.o)
__mdiff                                           c:/program files (x86)/atmel/studio/7.0/toolchain/arm/arm-gnu-toolchain/bin/../lib/gcc/arm-none-eabi/6.3.1/../../../../arm-none-eabi/lib/thumb/v7e-m\libg.a(lib_a-mprec.o)
                                                  c:/program files (x86)/atmel/studio/7.0/toolchain/arm/arm-gnu-toolchain/bin/../lib/gcc/arm-none-eabi/6.3.1/../../../../arm-none-eabi/lib/thumb/v7e-m\libg.a(lib_a-dtoa.o)
__mprec_bigtens                                   c:/program files (x86)/atmel/studio/7.0/toolchain/arm/arm-gnu-toolchain/bin/../lib/gcc/arm-none-eabi/6.3.1/../../../../arm-none-eabi/lib/thumb/v7e-m\libg.a(lib_a-mprec.o)
                                                  c:/program files (x86)/atmel/studio/7.0/toolchain/arm/arm-gnu-toolchain/bin/../lib/gcc/arm-none-eabi/6.3.1/../../../../arm-none-eabi/lib/thumb/v7e-m\libg.a(lib_a-dtoa.o)
__mprec_tens                                      c:/program files (x86)/atmel/studio/7.0/toolchain/arm/arm-gnu-toolchain/bin/../lib/gcc/arm-none-eabi/6.3.1/../../../../arm-none-eabi/lib/thumb/v7e-m\libg.a(lib_a-mprec.o)
                                                  c:/program files (x86)/atmel/studio/7.0/toolchain/arm/arm-gnu-toolchain/bin/../lib/gcc/arm-none-eabi/6.3.1/../../../../arm-none-eabi/lib/thumb/v7e-m\libg.a(lib_a-dtoa.o)
__mprec_tinytens                                  c:/program files (x86)/atmel/studio/7.0/toolchain/arm/arm-gnu-toolchain/bin/../lib/gcc/arm-none-eabi/6.3.1/../../../../arm-none-eabi/lib/thumb/v7e-m\libg.a(lib_a-mprec.o)
__muldf3                                          c:/program files (x86)/atmel/studio/7.0/toolchain/arm/arm-gnu-toolchain/bin/../lib/gcc/arm-none-eabi/6.3.1/thumb/v7e-m\libgcc.a(_arm_muldivdf3.o)
__multadd                                         c:/program files (x86)/atmel/studio/7.0/toolchain/arm/arm-gnu-toolchain/bin/../lib/gcc/arm-none-eabi/6.3.1/../../../../arm-none-eabi/lib/thumb/v7e-m\libg.a(lib_a-mprec.o)
                                                  c:/program files (x86)/atmel/studio/7.0/toolchain/arm/arm-gnu-toolchain/bin/../lib/gcc/arm-none-eabi/6.3.1/../../../../arm-none-eabi/lib/thumb/v7e-m\libg.a(lib_a-dtoa.o)
__multiply                                        c:/program files (x86)/atmel/studio/7.0/toolchain/arm/arm-gnu-toolchain/bin/../lib/gcc/arm-none-eabi/6.3.1/../../../../arm-none-eabi/lib/thumb/v7e-m\libg.a(lib_a-mprec.o)
                                                  c:/program files (x86)/atmel/studio/7.0/toolchain/arm/arm-gnu-toolchain/bin/../lib/gcc/arm-none-eabi/6.3.1/../../../../arm-none-eabi/lib/thumb/v7e-m\libg.a(lib_a-dtoa.o)
__nedf2                                           c:/program files (x86)/atmel/studio/7.0/toolchain/arm/arm-gnu-toolchain/bin/../lib/gcc/arm-none-eabi/6.3.1/thumb/v7e-m\libgcc.a(_arm_cmpdf2.o)
__pow5mult                                        c:/program files (x86)/atmel/studio/7.0/toolchain/arm/arm-gnu-toolchain/bin/../lib/gcc/arm-none-eabi/6.3.1/../../../../arm-none-eabi/lib/thumb/v7e-m\libg.a(lib_a-mprec.o)
                                                  c:/program files (x86)/atmel/studio/7.0/toolchain/arm/arm-gnu-toolchain/bin/../lib/gcc/arm-none-eabi/6.3.1/../../../../arm-none-eabi/lib/thumb/v7e-m\libg.a(lib_a-dtoa.o)
__preinit_array_end                               c:/program files (x86)/atmel/studio/7.0/toolchain/arm/arm-gnu-toolchain/bin/../lib/gcc/arm-none-eabi/6.3.1/../../../../arm-none-eabi/lib/thumb/v7e-m\libg.a(lib_a-init.o)
__preinit_array_start                             c:/program files (x86)/atmel/studio/7.0/toolchain/arm/arm-gnu-toolchain/bin/../lib/gcc/arm-none-eabi/6.3.1/../../../../arm-none-eabi/lib/thumb/v7e-m\libg.a(lib_a-init.o)
__ram_end__                                       ../../../platform/sam/utils/syscalls/gcc/syscalls.o
__ratio                                           c:/program files (x86)/atmel/studio/7.0/toolchain/arm/arm-gnu-toolchain/bin/../lib/gcc/arm-none-eabi/6.3.1/../../../../arm-none-eabi/lib/thumb/v7e-m\libg.a(lib_a-mprec.o)
__register_exitproc                               c:/program files (x86)/atmel/studio/7.0/toolchain/arm/arm-gnu-toolchain/bin/../lib/gcc/arm-none-eabi/6.3.1/../../../../arm-none-eabi/lib/thumb/v7e-m\libg.a(lib_a-__atexit.o)
                                                  c:/program files (x86)/atmel/studio/7.0/toolchain/arm/arm-gnu-toolchain/bin/../lib/gcc/arm-none-eabi/6.3.1/../../../../arm-none-eabi/lib/thumb/v7e-m\libg.a(lib_a-atexit.o)
__register_frame_info                             c:/program files (x86)/atmel/studio/7.0/toolchain/arm/arm-gnu-toolchain/bin/../lib/gcc/arm-none-eabi/6.3.1/thumb/v7e-m/crtbegin.o
__retarget_lock_acquire                           c:/program files (x86)/atmel/studio/7.0/toolchain/arm/arm-gnu-toolchain/bin/../lib/gcc/arm-none-eabi/6.3.1/../../../../arm-none-eabi/lib/thumb/v7e-m\libg.a(lib_a-lock.o)
__retarget_lock_acquire_recursive                 c:/program files (x86)/atmel/studio/7.0/toolchain/arm/arm-gnu-toolchain/bin/../lib/gcc/arm-none-eabi/6.3.1/../../../../arm-none-eabi/lib/thumb/v7e-m\libg.a(lib_a-lock.o)
                                                  c:/program files (x86)/atmel/studio/7.0/toolchain/arm/arm-gnu-toolchain/bin/../lib/gcc/arm-none-eabi/6.3.1/../../../../arm-none-eabi/lib/thumb/v7e-m\libg.a(lib_a-fputwc.o)
                                                  c:/program files (x86)/atmel/studio/7.0/toolchain/arm/arm-gnu-toolchain/bin/../lib/gcc/arm-none-eabi/6.3.1/../../../../arm-none-eabi/lib/thumb/v7e-m\libg.a(lib_a-fclose.o)
                                                  c:/program files (x86)/atmel/studio/7.0/toolchain/arm/arm-gnu-toolchain/bin/../lib/gcc/arm-none-eabi/6.3.1/../../../../arm-none-eabi/lib/thumb/v7e-m\libg.a(lib_a-__atexit.o)
                                                  c:/program files (x86)/atmel/studio/7.0/toolchain/arm/arm-gnu-toolchain/bin/../lib/gcc/arm-none-eabi/6.3.1/../../../../arm-none-eabi/lib/thumb/v7e-m\libg.a(lib_a-vfiprintf.o)
                                                  c:/program files (x86)/atmel/studio/7.0/toolchain/arm/arm-gnu-toolchain/bin/../lib/gcc/arm-none-eabi/6.3.1/../../../../arm-none-eabi/lib/thumb/v7e-m\libg.a(lib_a-mlock.o)
                                                  c:/program files (x86)/atmel/studio/7.0/toolchain/arm/arm-gnu-toolchain/bin/../lib/gcc/arm-none-eabi/6.3.1/../../../../arm-none-eabi/lib/thumb/v7e-m\libg.a(lib_a-findfp.o)
                                                  c:/program files (x86)/atmel/studio/7.0/toolchain/arm/arm-gnu-toolchain/bin/../lib/gcc/arm-none-eabi/6.3.1/../../../../arm-none-eabi/lib/thumb/v7e-m\libg.a(lib_a-fflush.o)
                                                  c:/program files (x86)/atmel/studio/7.0/toolchain/arm/arm-gnu-toolchain/bin/../lib/gcc/arm-none-eabi/6.3.1/../../../../arm-none-eabi/lib/thumb/v7e-m\libg.a(lib_a-__call_atexit.o)
                                                  c:/program files (x86)/atmel/studio/7.0/toolchain/arm/arm-gnu-toolchain/bin/../lib/gcc/arm-none-eabi/6.3.1/../../../../arm-none-eabi/lib/thumb/v7e-m\libg.a(lib_a-vfprintf.o)
                                                  c:/program files (x86)/atmel/studio/7.0/toolchain/arm/arm-gnu-toolchain/bin/../lib/gcc/arm-none-eabi/6.3.1/../../../../arm-none-eabi/lib/thumb/v7e-m\libg.a(lib_a-setvbuf.o)
__retarget_lock_close                             c:/program files (x86)/atmel/studio/7.0/toolchain/arm/arm-gnu-toolchain/bin/../lib/gcc/arm-none-eabi/6.3.1/../../../../arm-none-eabi/lib/thumb/v7e-m\libg.a(lib_a-lock.o)
__retarget_lock_close_recursive                   c:/program files (x86)/atmel/studio/7.0/toolchain/arm/arm-gnu-toolchain/bin/../lib/gcc/arm-none-eabi/6.3.1/../../../../arm-none-eabi/lib/thumb/v7e-m\libg.a(lib_a-lock.o)
                                                  c:/program files (x86)/atmel/studio/7.0/toolchain/arm/arm-gnu-toolchain/bin/../lib/gcc/arm-none-eabi/6.3.1/../../../../arm-none-eabi/lib/thumb/v7e-m\libg.a(lib_a-fclose.o)
                                                  c:/program files (x86)/atmel/studio/7.0/toolchain/arm/arm-gnu-toolchain/bin/../lib/gcc/arm-none-eabi/6.3.1/../../../../arm-none-eabi/lib/thumb/v7e-m\libg.a(lib_a-vfiprintf.o)
                                                  c:/program files (x86)/atmel/studio/7.0/toolchain/arm/arm-gnu-toolchain/bin/../lib/gcc/arm-none-eabi/6.3.1/../../../../arm-none-eabi/lib/thumb/v7e-m\libg.a(lib_a-vfprintf.o)
__retarget_lock_init                              c:/program files (x86)/atmel/studio/7.0/toolchain/arm/arm-gnu-toolchain/bin/../lib/gcc/arm-none-eabi/6.3.1/../../../../arm-none-eabi/lib/thumb/v7e-m\libg.a(lib_a-lock.o)
__retarget_lock_init_recursive                    c:/program files (x86)/atmel/studio/7.0/toolchain/arm/arm-gnu-toolchain/bin/../lib/gcc/arm-none-eabi/6.3.1/../../../../arm-none-eabi/lib/thumb/v7e-m\libg.a(lib_a-lock.o)
                                                  c:/program files (x86)/atmel/studio/7.0/toolchain/arm/arm-gnu-toolchain/bin/../lib/gcc/arm-none-eabi/6.3.1/../../../../arm-none-eabi/lib/thumb/v7e-m\libg.a(lib_a-vfiprintf.o)
                                                  c:/program files (x86)/atmel/studio/7.0/toolchain/arm/arm-gnu-toolchain/bin/../lib/gcc/arm-none-eabi/6.3.1/../../../../arm-none-eabi/lib/thumb/v7e-m\libg.a(lib_a-findfp.o)
                                                  c:/program files (x86)/atmel/studio/7.0/toolchain/arm/arm-gnu-toolchain/bin/../lib/gcc/arm-none-eabi/6.3.1/../../../../arm-none-eabi/lib/thumb/v7e-m\libg.a(lib_a-vfprintf.o)
__retarget_lock_release                           c:/program files (x86)/atmel/studio/7.0/toolchain/arm/arm-gnu-toolchain/bin/../lib/gcc/arm-none-eabi/6.3.1/../../../../arm-none-eabi/lib/thumb/v7e-m\libg.a(lib_a-lock.o)
__retarget_lock_release_recursive                 c:/program files (x86)/atmel/studio/7.0/toolchain/arm/arm-gnu-toolchain/bin/../lib/gcc/arm-none-eabi/6.3.1/../../../../arm-none-eabi/lib/thumb/v7e-m\libg.a(lib_a-lock.o)
                                                  c:/program files (x86)/atmel/studio/7.0/toolchain/arm/arm-gnu-toolchain/bin/../lib/gcc/arm-none-eabi/6.3.1/../../../../arm-none-eabi/lib/thumb/v7e-m\libg.a(lib_a-fputwc.o)
                                                  c:/program files (x86)/atmel/studio/7.0/toolchain/arm/arm-gnu-toolchain/bin/../lib/gcc/arm-none-eabi/6.3.1/../../../../arm-none-eabi/lib/thumb/v7e-m\libg.a(lib_a-fclose.o)
                                                  c:/program files (x86)/atmel/studio/7.0/toolchain/arm/arm-gnu-toolchain/bin/../lib/gcc/arm-none-eabi/6.3.1/../../../../arm-none-eabi/lib/thumb/v7e-m\libg.a(lib_a-__atexit.o)
                                                  c:/program files (x86)/atmel/studio/7.0/toolchain/arm/arm-gnu-toolchain/bin/../lib/gcc/arm-none-eabi/6.3.1/../../../../arm-none-eabi/lib/thumb/v7e-m\libg.a(lib_a-vfiprintf.o)
                                                  c:/program files (x86)/atmel/studio/7.0/toolchain/arm/arm-gnu-toolchain/bin/../lib/gcc/arm-none-eabi/6.3.1/../../../../arm-none-eabi/lib/thumb/v7e-m\libg.a(lib_a-mlock.o)
                                                  c:/program files (x86)/atmel/studio/7.0/toolchain/arm/arm-gnu-toolchain/bin/../lib/gcc/arm-none-eabi/6.3.1/../../../../arm-none-eabi/lib/thumb/v7e-m\libg.a(lib_a-findfp.o)
                                                  c:/program files (x86)/atmel/studio/7.0/toolchain/arm/arm-gnu-toolchain/bin/../lib/gcc/arm-none-eabi/6.3.1/../../../../arm-none-eabi/lib/thumb/v7e-m\libg.a(lib_a-fflush.o)
                                                  c:/program files (x86)/atmel/studio/7.0/toolchain/arm/arm-gnu-toolchain/bin/../lib/gcc/arm-none-eabi/6.3.1/../../../../arm-none-eabi/lib/thumb/v7e-m\libg.a(lib_a-__call_atexit.o)
                                                  c:/program files (x86)/atmel/studio/7.0/toolchain/arm/arm-gnu-toolchain/bin/../lib/gcc/arm-none-eabi/6.3.1/../../../../arm-none-eabi/lib/thumb/v7e-m\libg.a(lib_a-vfprintf.o)
                                                  c:/program files (x86)/atmel/studio/7.0/toolchain/arm/arm-gnu-toolchain/bin/../lib/gcc/arm-none-eabi/6.3.1/../../../../arm-none-eabi/lib/thumb/v7e-m\libg.a(lib_a-setvbuf.o)
__retarget_lock_try_acquire                       c:/program files (x86)/atmel/studio/7.0/toolchain/arm/arm-gnu-toolchain/bin/../lib/gcc/arm-none-eabi/6.3.1/../../../../arm-none-eabi/lib/thumb/v7e-m\libg.a(lib_a-lock.o)
__retarget_lock_try_acquire_recursive             c:/program files (x86)/atmel/studio/7.0/toolchain/arm/arm-gnu-toolchain/bin/../lib/gcc/arm-none-eabi/6.3.1/../../../../arm-none-eabi/lib/thumb/v7e-m\libg.a(lib_a-lock.o)
__s2b                                             c:/program files (x86)/atmel/studio/7.0/toolchain/arm/arm-gnu-toolchain/bin/../lib/gcc/arm-none-eabi/6.3.1/../../../../arm-none-eabi/lib/thumb/v7e-m\libg.a(lib_a-mprec.o)
__sclose                                          c:/program files (x86)/atmel/studio/7.0/toolchain/arm/arm-gnu-toolchain/bin/../lib/gcc/arm-none-eabi/6.3.1/../../../../arm-none-eabi/lib/thumb/v7e-m\libg.a(lib_a-stdio.o)
                                                  c:/program files (x86)/atmel/studio/7.0/toolchain/arm/arm-gnu-toolchain/bin/../lib/gcc/arm-none-eabi/6.3.1/../../../../arm-none-eabi/lib/thumb/v7e-m\libg.a(lib_a-findfp.o)
__seofread                                        c:/program files (x86)/atmel/studio/7.0/toolchain/arm/arm-gnu-toolchain/bin/../lib/gcc/arm-none-eabi/6.3.1/../../../../arm-none-eabi/lib/thumb/v7e-m\libg.a(lib_a-stdio.o)
__sflush_r                                        c:/program files (x86)/atmel/studio/7.0/toolchain/arm/arm-gnu-toolchain/bin/../lib/gcc/arm-none-eabi/6.3.1/../../../../arm-none-eabi/lib/thumb/v7e-m\libg.a(lib_a-fflush.o)
                                                  c:/program files (x86)/atmel/studio/7.0/toolchain/arm/arm-gnu-toolchain/bin/../lib/gcc/arm-none-eabi/6.3.1/../../../../arm-none-eabi/lib/thumb/v7e-m\libg.a(lib_a-fclose.o)
__sfmoreglue                                      c:/program files (x86)/atmel/studio/7.0/toolchain/arm/arm-gnu-toolchain/bin/../lib/gcc/arm-none-eabi/6.3.1/../../../../arm-none-eabi/lib/thumb/v7e-m\libg.a(lib_a-findfp.o)
__sfp                                             c:/program files (x86)/atmel/studio/7.0/toolchain/arm/arm-gnu-toolchain/bin/../lib/gcc/arm-none-eabi/6.3.1/../../../../arm-none-eabi/lib/thumb/v7e-m\libg.a(lib_a-findfp.o)
__sfp_lock_acquire                                c:/program files (x86)/atmel/studio/7.0/toolchain/arm/arm-gnu-toolchain/bin/../lib/gcc/arm-none-eabi/6.3.1/../../../../arm-none-eabi/lib/thumb/v7e-m\libg.a(lib_a-findfp.o)
                                                  c:/program files (x86)/atmel/studio/7.0/toolchain/arm/arm-gnu-toolchain/bin/../lib/gcc/arm-none-eabi/6.3.1/../../../../arm-none-eabi/lib/thumb/v7e-m\libg.a(lib_a-fclose.o)
__sfp_lock_release                                c:/program files (x86)/atmel/studio/7.0/toolchain/arm/arm-gnu-toolchain/bin/../lib/gcc/arm-none-eabi/6.3.1/../../../../arm-none-eabi/lib/thumb/v7e-m\libg.a(lib_a-findfp.o)
                                                  c:/program files (x86)/atmel/studio/7.0/toolchain/arm/arm-gnu-toolchain/bin/../lib/gcc/arm-none-eabi/6.3.1/../../../../arm-none-eabi/lib/thumb/v7e-m\libg.a(lib_a-fclose.o)
__sfvwrite_r                                      c:/program files (x86)/atmel/studio/7.0/toolchain/arm/arm-gnu-toolchain/bin/../lib/gcc/arm-none-eabi/6.3.1/../../../../arm-none-eabi/lib/thumb/v7e-m\libg.a(lib_a-fvwrite.o)
                                                  c:/program files (x86)/atmel/studio/7.0/toolchain/arm/arm-gnu-toolchain/bin/../lib/gcc/arm-none-eabi/6.3.1/../../../../arm-none-eabi/lib/thumb/v7e-m\libg.a(lib_a-vfiprintf.o)
__sinit                                           c:/program files (x86)/atmel/studio/7.0/toolchain/arm/arm-gnu-toolchain/bin/../lib/gcc/arm-none-eabi/6.3.1/../../../../arm-none-eabi/lib/thumb/v7e-m\libg.a(lib_a-findfp.o)
                                                  c:/program files (x86)/atmel/studio/7.0/toolchain/arm/arm-gnu-toolchain/bin/../lib/gcc/arm-none-eabi/6.3.1/../../../../arm-none-eabi/lib/thumb/v7e-m\libg.a(lib_a-wbuf.o)
                                                  c:/program files (x86)/atmel/studio/7.0/toolchain/arm/arm-gnu-toolchain/bin/../lib/gcc/arm-none-eabi/6.3.1/../../../../arm-none-eabi/lib/thumb/v7e-m\libg.a(lib_a-fputwc.o)
                                                  c:/program files (x86)/atmel/studio/7.0/toolchain/arm/arm-gnu-toolchain/bin/../lib/gcc/arm-none-eabi/6.3.1/../../../../arm-none-eabi/lib/thumb/v7e-m\libg.a(lib_a-fclose.o)
                                                  c:/program files (x86)/atmel/studio/7.0/toolchain/arm/arm-gnu-toolchain/bin/../lib/gcc/arm-none-eabi/6.3.1/../../../../arm-none-eabi/lib/thumb/v7e-m\libg.a(lib_a-vfiprintf.o)
                                                  c:/program files (x86)/atmel/studio/7.0/toolchain/arm/arm-gnu-toolchain/bin/../lib/gcc/arm-none-eabi/6.3.1/../../../../arm-none-eabi/lib/thumb/v7e-m\libg.a(lib_a-fflush.o)
                                                  c:/program files (x86)/atmel/studio/7.0/toolchain/arm/arm-gnu-toolchain/bin/../lib/gcc/arm-none-eabi/6.3.1/../../../../arm-none-eabi/lib/thumb/v7e-m\libg.a(lib_a-wsetup.o)
                                                  c:/program files (x86)/atmel/studio/7.0/toolchain/arm/arm-gnu-toolchain/bin/../lib/gcc/arm-none-eabi/6.3.1/../../../../arm-none-eabi/lib/thumb/v7e-m\libg.a(lib_a-vfprintf.o)
                                                  c:/program files (x86)/atmel/studio/7.0/toolchain/arm/arm-gnu-toolchain/bin/../lib/gcc/arm-none-eabi/6.3.1/../../../../arm-none-eabi/lib/thumb/v7e-m\libg.a(lib_a-setvbuf.o)
__sinit_lock_acquire                              c:/program files (x86)/atmel/studio/7.0/toolchain/arm/arm-gnu-toolchain/bin/../lib/gcc/arm-none-eabi/6.3.1/../../../../arm-none-eabi/lib/thumb/v7e-m\libg.a(lib_a-findfp.o)
__sinit_lock_release                              c:/program files (x86)/atmel/studio/7.0/toolchain/arm/arm-gnu-toolchain/bin/../lib/gcc/arm-none-eabi/6.3.1/../../../../arm-none-eabi/lib/thumb/v7e-m\libg.a(lib_a-findfp.o)
__smakebuf_r                                      c:/program files (x86)/atmel/studio/7.0/toolchain/arm/arm-gnu-toolchain/bin/../lib/gcc/arm-none-eabi/6.3.1/../../../../arm-none-eabi/lib/thumb/v7e-m\libg.a(lib_a-makebuf.o)
                                                  c:/program files (x86)/atmel/studio/7.0/toolchain/arm/arm-gnu-toolchain/bin/../lib/gcc/arm-none-eabi/6.3.1/../../../../arm-none-eabi/lib/thumb/v7e-m\libg.a(lib_a-wsetup.o)
__sprint_r                                        c:/program files (x86)/atmel/studio/7.0/toolchain/arm/arm-gnu-toolchain/bin/../lib/gcc/arm-none-eabi/6.3.1/../../../../arm-none-eabi/lib/thumb/v7e-m\libg.a(lib_a-vfiprintf.o)
                                                  c:/program files (x86)/atmel/studio/7.0/toolchain/arm/arm-gnu-toolchain/bin/../lib/gcc/arm-none-eabi/6.3.1/../../../../arm-none-eabi/lib/thumb/v7e-m\libg.a(lib_a-vfprintf.o)
__sread                                           c:/program files (x86)/atmel/studio/7.0/toolchain/arm/arm-gnu-toolchain/bin/../lib/gcc/arm-none-eabi/6.3.1/../../../../arm-none-eabi/lib/thumb/v7e-m\libg.a(lib_a-stdio.o)
                                                  c:/program files (x86)/atmel/studio/7.0/toolchain/arm/arm-gnu-toolchain/bin/../lib/gcc/arm-none-eabi/6.3.1/../../../../arm-none-eabi/lib/thumb/v7e-m\libg.a(lib_a-findfp.o)
__sseek                                           c:/program files (x86)/atmel/studio/7.0/toolchain/arm/arm-gnu-toolchain/bin/../lib/gcc/arm-none-eabi/6.3.1/../../../../arm-none-eabi/lib/thumb/v7e-m\libg.a(lib_a-stdio.o)
                                                  c:/program files (x86)/atmel/studio/7.0/toolchain/arm/arm-gnu-toolchain/bin/../lib/gcc/arm-none-eabi/6.3.1/../../../../arm-none-eabi/lib/thumb/v7e-m\libg.a(lib_a-findfp.o)
__stack                                           c:/program files (x86)/atmel/studio/7.0/toolchain/arm/arm-gnu-toolchain/bin/../lib/gcc/arm-none-eabi/6.3.1/../../../../arm-none-eabi/lib/thumb/v7e-m/crt0.o
__subdf3                                          c:/program files (x86)/atmel/studio/7.0/toolchain/arm/arm-gnu-toolchain/bin/../lib/gcc/arm-none-eabi/6.3.1/thumb/v7e-m\libgcc.a(_arm_addsubdf3.o)
__swbuf                                           c:/program files (x86)/atmel/studio/7.0/toolchain/arm/arm-gnu-toolchain/bin/../lib/gcc/arm-none-eabi/6.3.1/../../../../arm-none-eabi/lib/thumb/v7e-m\libg.a(lib_a-wbuf.o)
__swbuf_r                                         c:/program files (x86)/atmel/studio/7.0/toolchain/arm/arm-gnu-toolchain/bin/../lib/gcc/arm-none-eabi/6.3.1/../../../../arm-none-eabi/lib/thumb/v7e-m\libg.a(lib_a-wbuf.o)
                                                  c:/program files (x86)/atmel/studio/7.0/toolchain/arm/arm-gnu-toolchain/bin/../lib/gcc/arm-none-eabi/6.3.1/../../../../arm-none-eabi/lib/thumb/v7e-m\libg.a(lib_a-fputwc.o)
__swhatbuf_r                                      c:/program files (x86)/atmel/studio/7.0/toolchain/arm/arm-gnu-toolchain/bin/../lib/gcc/arm-none-eabi/6.3.1/../../../../arm-none-eabi/lib/thumb/v7e-m\libg.a(lib_a-makebuf.o)
                                                  c:/program files (x86)/atmel/studio/7.0/toolchain/arm/arm-gnu-toolchain/bin/../lib/gcc/arm-none-eabi/6.3.1/../../../../arm-none-eabi/lib/thumb/v7e-m\libg.a(lib_a-setvbuf.o)
__swrite                                          c:/program files (x86)/atmel/studio/7.0/toolchain/arm/arm-gnu-toolchain/bin/../lib/gcc/arm-none-eabi/6.3.1/../../../../arm-none-eabi/lib/thumb/v7e-m\libg.a(lib_a-stdio.o)
                                                  c:/program files (x86)/atmel/studio/7.0/toolchain/arm/arm-gnu-toolchain/bin/../lib/gcc/arm-none-eabi/6.3.1/../../../../arm-none-eabi/lib/thumb/v7e-m\libg.a(lib_a-findfp.o)
__swsetup_r                                       c:/program files (x86)/atmel/studio/7.0/toolchain/arm/arm-gnu-toolchain/bin/../lib/gcc/arm-none-eabi/6.3.1/../../../../arm-none-eabi/lib/thumb/v7e-m\libg.a(lib_a-wsetup.o)
                                                  c:/program files (x86)/atmel/studio/7.0/toolchain/arm/arm-gnu-toolchain/bin/../lib/gcc/arm-none-eabi/6.3.1/../../../../arm-none-eabi/lib/thumb/v7e-m\libg.a(lib_a-wbuf.o)
                                                  c:/program files (x86)/atmel/studio/7.0/toolchain/arm/arm-gnu-toolchain/bin/../lib/gcc/arm-none-eabi/6.3.1/../../../../arm-none-eabi/lib/thumb/v7e-m\libg.a(lib_a-fvwrite.o)
                                                  c:/program files (x86)/atmel/studio/7.0/toolchain/arm/arm-gnu-toolchain/bin/../lib/gcc/arm-none-eabi/6.3.1/../../../../arm-none-eabi/lib/thumb/v7e-m\libg.a(lib_a-vfiprintf.o)
                                                  c:/program files (x86)/atmel/studio/7.0/toolchain/arm/arm-gnu-toolchain/bin/../lib/gcc/arm-none-eabi/6.3.1/../../../../arm-none-eabi/lib/thumb/v7e-m\libg.a(lib_a-vfprintf.o)
__udivmoddi4                                      c:/program files (x86)/atmel/studio/7.0/toolchain/arm/arm-gnu-toolchain/bin/../lib/gcc/arm-none-eabi/6.3.1/thumb/v7e-m\libgcc.a(_udivmoddi4.o)
                                                  c:/program files (x86)/atmel/studio/7.0/toolchain/arm/arm-gnu-toolchain/bin/../lib/gcc/arm-none-eabi/6.3.1/thumb/v7e-m\libgcc.a(_aeabi_uldivmod.o)
__ulp                                             c:/program files (x86)/atmel/studio/7.0/toolchain/arm/arm-gnu-toolchain/bin/../lib/gcc/arm-none-eabi/6.3.1/../../../../arm-none-eabi/lib/thumb/v7e-m\libg.a(lib_a-mprec.o)
__unorddf2                                        c:/program files (x86)/atmel/studio/7.0/toolchain/arm/arm-gnu-toolchain/bin/../lib/gcc/arm-none-eabi/6.3.1/thumb/v7e-m\libgcc.a(_arm_unorddf2.o)
_calloc_r                                         c:/program files (x86)/atmel/studio/7.0/toolchain/arm/arm-gnu-toolchain/bin/../lib/gcc/arm-none-eabi/6.3.1/../../../../arm-none-eabi/lib/thumb/v7e-m\libg.a(lib_a-callocr.o)
                                                  c:/program files (x86)/atmel/studio/7.0/toolchain/arm/arm-gnu-toolchain/bin/../lib/gcc/arm-none-eabi/6.3.1/../../../../arm-none-eabi/lib/thumb/v7e-m\libg.a(lib_a-mprec.o)
_cleanup                                          c:/program files (x86)/atmel/studio/7.0/toolchain/arm/arm-gnu-toolchain/bin/../lib/gcc/arm-none-eabi/6.3.1/../../../../arm-none-eabi/lib/thumb/v7e-m\libg.a(lib_a-findfp.o)
_cleanup_r                                        c:/program files (x86)/atmel/studio/7.0/toolchain/arm/arm-gnu-toolchain/bin/../lib/gcc/arm-none-eabi/6.3.1/../../../../arm-none-eabi/lib/thumb/v7e-m\libg.a(lib_a-findfp.o)
                                                  c:/program files (x86)/atmel/studio/7.0/toolchain/arm/arm-gnu-toolchain/bin/../lib/gcc/arm-none-eabi/6.3.1/../../../../arm-none-eabi/lib/thumb/v7e-m\libg.a(lib_a-makebuf.o)
_close                                            ../../../platform/sam/utils/syscalls/gcc/syscalls.o
                                                  c:/program files (x86)/atmel/studio/7.0/toolchain/arm/arm-gnu-toolchain/bin/../lib/gcc/arm-none-eabi/6.3.1/../../../../arm-none-eabi/lib/thumb/v7e-m\libg.a(lib_a-closer.o)
_close_r                                          c:/program files (x86)/atmel/studio/7.0/toolchain/arm/arm-gnu-toolchain/bin/../lib/gcc/arm-none-eabi/6.3.1/../../../../arm-none-eabi/lib/thumb/v7e-m\libg.a(lib_a-closer.o)
                                                  c:/program files (x86)/atmel/studio/7.0/toolchain/arm/arm-gnu-toolchain/bin/../lib/gcc/arm-none-eabi/6.3.1/../../../../arm-none-eabi/lib/thumb/v7e-m\libg.a(lib_a-stdio.o)
_ctype_                                           c:/program files (x86)/atmel/studio/7.0/toolchain/arm/arm-gnu-toolchain/bin/../lib/gcc/arm-none-eabi/6.3.1/../../../../arm-none-eabi/lib/thumb/v7e-m\libg.a(lib_a-ctype_.o)
                                                  c:/program files (x86)/atmel/studio/7.0/toolchain/arm/arm-gnu-toolchain/bin/../lib/gcc/arm-none-eabi/6.3.1/../../../../arm-none-eabi/lib/thumb/v7e-m\libg.a(lib_a-locale.o)
_dtoa_r                                           c:/program files (x86)/atmel/studio/7.0/toolchain/arm/arm-gnu-toolchain/bin/../lib/gcc/arm-none-eabi/6.3.1/../../../../arm-none-eabi/lib/thumb/v7e-m\libg.a(lib_a-dtoa.o)
                                                  c:/program files (x86)/atmel/studio/7.0/toolchain/arm/arm-gnu-toolchain/bin/../lib/gcc/arm-none-eabi/6.3.1/../../../../arm-none-eabi/lib/thumb/v7e-m\libg.a(lib_a-vfprintf.o)
_end                                              ../../../platform/sam/utils/syscalls/gcc/syscalls.o
_erelocate                                        ../../../platform/sam/utils/cmsis/sam4l/source/templates/gcc/startup_sam4l.o
_estack                                           ../../../platform/sam/utils/cmsis/sam4l/source/templates/gcc/startup_sam4l.o
_etext                                            ../../../platform/sam/utils/cmsis/sam4l/source/templates/gcc/startup_sam4l.o
_exit                                             ../../../platform/sam/utils/syscalls/gcc/syscalls.o
                                                  c:/program files (x86)/atmel/studio/7.0/toolchain/arm/arm-gnu-toolchain/bin/../lib/gcc/arm-none-eabi/6.3.1/../../../../arm-none-eabi/lib/thumb/v7e-m\libg.a(lib_a-exit.o)
_ezero                                            ../../../platform/sam/utils/cmsis/sam4l/source/templates/gcc/startup_sam4l.o
_fclose_r                                         c:/program files (x86)/atmel/studio/7.0/toolchain/arm/arm-gnu-toolchain/bin/../lib/gcc/arm-none-eabi/6.3.1/../../../../arm-none-eabi/lib/thumb/v7e-m\libg.a(lib_a-fclose.o)
                                                  c:/program files (x86)/atmel/studio/7.0/toolchain/arm/arm-gnu-toolchain/bin/../lib/gcc/arm-none-eabi/6.3.1/../../../../arm-none-eabi/lib/thumb/v7e-m\libg.a(lib_a-findfp.o)
_fflush_r                                         c:/program files (x86)/atmel/studio/7.0/toolchain/arm/arm-gnu-toolchain/bin/../lib/gcc/arm-none-eabi/6.3.1/../../../../arm-none-eabi/lib/thumb/v7e-m\libg.a(lib_a-fflush.o)
                                                  c:/program files (x86)/atmel/studio/7.0/toolchain/arm/arm-gnu-toolchain/bin/../lib/gcc/arm-none-eabi/6.3.1/../../../../arm-none-eabi/lib/thumb/v7e-m\libg.a(lib_a-wbuf.o)
                                                  c:/program files (x86)/atmel/studio/7.0/toolchain/arm/arm-gnu-toolchain/bin/../lib/gcc/arm-none-eabi/6.3.1/../../../../arm-none-eabi/lib/thumb/v7e-m\libg.a(lib_a-fvwrite.o)
                                                  c:/program files (x86)/atmel/studio/7.0/toolchain/arm/arm-gnu-toolchain/bin/../lib/gcc/arm-none-eabi/6.3.1/../../../../arm-none-eabi/lib/thumb/v7e-m\libg.a(lib_a-vfiprintf.o)
                                                  c:/program files (x86)/atmel/studio/7.0/toolchain/arm/arm-gnu-toolchain/bin/../lib/gcc/arm-none-eabi/6.3.1/../../../../arm-none-eabi/lib/thumb/v7e-m\libg.a(lib_a-vfprintf.o)
                                                  c:/program files (x86)/atmel/studio/7.0/toolchain/arm/arm-gnu-toolchain/bin/../lib/gcc/arm-none-eabi/6.3.1/../../../../arm-none-eabi/lib/thumb/v7e-m\libg.a(lib_a-setvbuf.o)
_fini                                             c:/program files (x86)/atmel/studio/7.0/toolchain/arm/arm-gnu-toolchain/bin/../lib/gcc/arm-none-eabi/6.3.1/thumb/v7e-m/crti.o
                                                  c:/program files (x86)/atmel/studio/7.0/toolchain/arm/arm-gnu-toolchain/bin/../lib/gcc/arm-none-eabi/6.3.1/../../../../arm-none-eabi/lib/thumb/v7e-m\libg.a(lib_a-fini.o)
_fputwc_r                                         c:/program files (x86)/atmel/studio/7.0/toolchain/arm/arm-gnu-toolchain/bin/../lib/gcc/arm-none-eabi/6.3.1/../../../../arm-none-eabi/lib/thumb/v7e-m\libg.a(lib_a-fputwc.o)
                                                  c:/program files (x86)/atmel/studio/7.0/toolchain/arm/arm-gnu-toolchain/bin/../lib/gcc/arm-none-eabi/6.3.1/../../../../arm-none-eabi/lib/thumb/v7e-m\libg.a(lib_a-vfiprintf.o)
_free_r                                           c:/program files (x86)/atmel/studio/7.0/toolchain/arm/arm-gnu-toolchain/bin/../lib/gcc/arm-none-eabi/6.3.1/../../../../arm-none-eabi/lib/thumb/v7e-m\libg.a(lib_a-freer.o)
                                                  c:/program files (x86)/atmel/studio/7.0/toolchain/arm/arm-gnu-toolchain/bin/../lib/gcc/arm-none-eabi/6.3.1/../../../../arm-none-eabi/lib/thumb/v7e-m\libg.a(lib_a-reent.o)
                                                  c:/program files (x86)/atmel/studio/7.0/toolchain/arm/arm-gnu-toolchain/bin/../lib/gcc/arm-none-eabi/6.3.1/../../../../arm-none-eabi/lib/thumb/v7e-m\libg.a(lib_a-reallocr.o)
                                                  c:/program files (x86)/atmel/studio/7.0/toolchain/arm/arm-gnu-toolchain/bin/../lib/gcc/arm-none-eabi/6.3.1/../../../../arm-none-eabi/lib/thumb/v7e-m\libg.a(lib_a-fvwrite.o)
                                                  c:/program files (x86)/atmel/studio/7.0/toolchain/arm/arm-gnu-toolchain/bin/../lib/gcc/arm-none-eabi/6.3.1/../../../../arm-none-eabi/lib/thumb/v7e-m\libg.a(lib_a-fclose.o)
                                                  c:/program files (x86)/atmel/studio/7.0/toolchain/arm/arm-gnu-toolchain/bin/../lib/gcc/arm-none-eabi/6.3.1/../../../../arm-none-eabi/lib/thumb/v7e-m\libg.a(lib_a-mallocr.o)
                                                  c:/program files (x86)/atmel/studio/7.0/toolchain/arm/arm-gnu-toolchain/bin/../lib/gcc/arm-none-eabi/6.3.1/../../../../arm-none-eabi/lib/thumb/v7e-m\libg.a(lib_a-malloc.o)
                                                  c:/program files (x86)/atmel/studio/7.0/toolchain/arm/arm-gnu-toolchain/bin/../lib/gcc/arm-none-eabi/6.3.1/../../../../arm-none-eabi/lib/thumb/v7e-m\libg.a(lib_a-fflush.o)
                                                  c:/program files (x86)/atmel/studio/7.0/toolchain/arm/arm-gnu-toolchain/bin/../lib/gcc/arm-none-eabi/6.3.1/../../../../arm-none-eabi/lib/thumb/v7e-m\libg.a(lib_a-wsetup.o)
                                                  c:/program files (x86)/atmel/studio/7.0/toolchain/arm/arm-gnu-toolchain/bin/../lib/gcc/arm-none-eabi/6.3.1/../../../../arm-none-eabi/lib/thumb/v7e-m\libg.a(lib_a-setvbuf.o)
_fstat                                            ../../../platform/sam/utils/syscalls/gcc/syscalls.o
                                                  c:/program files (x86)/atmel/studio/7.0/toolchain/arm/arm-gnu-toolchain/bin/../lib/gcc/arm-none-eabi/6.3.1/../../../../arm-none-eabi/lib/thumb/v7e-m\libg.a(lib_a-fstatr.o)
_fstat_r                                          c:/program files (x86)/atmel/studio/7.0/toolchain/arm/arm-gnu-toolchain/bin/../lib/gcc/arm-none-eabi/6.3.1/../../../../arm-none-eabi/lib/thumb/v7e-m\libg.a(lib_a-fstatr.o)
                                                  c:/program files (x86)/atmel/studio/7.0/toolchain/arm/arm-gnu-toolchain/bin/../lib/gcc/arm-none-eabi/6.3.1/../../../../arm-none-eabi/lib/thumb/v7e-m\libg.a(lib_a-makebuf.o)
_fwalk                                            c:/program files (x86)/atmel/studio/7.0/toolchain/arm/arm-gnu-toolchain/bin/../lib/gcc/arm-none-eabi/6.3.1/../../../../arm-none-eabi/lib/thumb/v7e-m\libg.a(lib_a-fwalk.o)
                                                  c:/program files (x86)/atmel/studio/7.0/toolchain/arm/arm-gnu-toolchain/bin/../lib/gcc/arm-none-eabi/6.3.1/../../../../arm-none-eabi/lib/thumb/v7e-m\libg.a(lib_a-findfp.o)
_fwalk_reent                                      c:/program files (x86)/atmel/studio/7.0/toolchain/arm/arm-gnu-toolchain/bin/../lib/gcc/arm-none-eabi/6.3.1/../../../../arm-none-eabi/lib/thumb/v7e-m\libg.a(lib_a-fwalk.o)
                                                  c:/program files (x86)/atmel/studio/7.0/toolchain/arm/arm-gnu-toolchain/bin/../lib/gcc/arm-none-eabi/6.3.1/../../../../arm-none-eabi/lib/thumb/v7e-m\libg.a(lib_a-findfp.o)
                                                  c:/program files (x86)/atmel/studio/7.0/toolchain/arm/arm-gnu-toolchain/bin/../lib/gcc/arm-none-eabi/6.3.1/../../../../arm-none-eabi/lib/thumb/v7e-m\libg.a(lib_a-fflush.o)
_getpid                                           ../../../platform/sam/utils/syscalls/gcc/syscalls.o
_global_impure_ptr                                c:/program files (x86)/atmel/studio/7.0/toolchain/arm/arm-gnu-toolchain/bin/../lib/gcc/arm-none-eabi/6.3.1/../../../../arm-none-eabi/lib/thumb/v7e-m\libg.a(lib_a-impure.o)
                                                  c:/program files (x86)/atmel/studio/7.0/toolchain/arm/arm-gnu-toolchain/bin/../lib/gcc/arm-none-eabi/6.3.1/../../../../arm-none-eabi/lib/thumb/v7e-m\libg.a(lib_a-__atexit.o)
                                                  c:/program files (x86)/atmel/studio/7.0/toolchain/arm/arm-gnu-toolchain/bin/../lib/gcc/arm-none-eabi/6.3.1/../../../../arm-none-eabi/lib/thumb/v7e-m\libg.a(lib_a-findfp.o)
                                                  c:/program files (x86)/atmel/studio/7.0/toolchain/arm/arm-gnu-toolchain/bin/../lib/gcc/arm-none-eabi/6.3.1/../../../../arm-none-eabi/lib/thumb/v7e-m\libg.a(lib_a-fflush.o)
                                                  c:/program files (x86)/atmel/studio/7.0/toolchain/arm/arm-gnu-toolchain/bin/../lib/gcc/arm-none-eabi/6.3.1/../../../../arm-none-eabi/lib/thumb/v7e-m\libg.a(lib_a-__call_atexit.o)
                                                  c:/program files (x86)/atmel/studio/7.0/toolchain/arm/arm-gnu-toolchain/bin/../lib/gcc/arm-none-eabi/6.3.1/../../../../arm-none-eabi/lib/thumb/v7e-m\libg.a(lib_a-exit.o)
_impure_ptr                                       c:/program files (x86)/atmel/studio/7.0/toolchain/arm/arm-gnu-toolchain/bin/../lib/gcc/arm-none-eabi/6.3.1/../../../../arm-none-eabi/lib/thumb/v7e-m\libg.a(lib_a-impure.o)
                                                  c:/program files (x86)/atmel/studio/7.0/toolchain/arm/arm-gnu-toolchain/bin/../lib/gcc/arm-none-eabi/6.3.1/../../../../arm-none-eabi/lib/thumb/v7e-m\libg.a(lib_a-wctomb_r.o)
                                                  c:/program files (x86)/atmel/studio/7.0/toolchain/arm/arm-gnu-toolchain/bin/../lib/gcc/arm-none-eabi/6.3.1/../../../../arm-none-eabi/lib/thumb/v7e-m\libg.a(lib_a-wcrtomb.o)
                                                  c:/program files (x86)/atmel/studio/7.0/toolchain/arm/arm-gnu-toolchain/bin/../lib/gcc/arm-none-eabi/6.3.1/../../../../arm-none-eabi/lib/thumb/v7e-m\libg.a(lib_a-wbuf.o)
                                                  c:/program files (x86)/atmel/studio/7.0/toolchain/arm/arm-gnu-toolchain/bin/../lib/gcc/arm-none-eabi/6.3.1/../../../../arm-none-eabi/lib/thumb/v7e-m\libg.a(lib_a-reent.o)
                                                  c:/program files (x86)/atmel/studio/7.0/toolchain/arm/arm-gnu-toolchain/bin/../lib/gcc/arm-none-eabi/6.3.1/../../../../arm-none-eabi/lib/thumb/v7e-m\libg.a(lib_a-mbtowc_r.o)
                                                  c:/program files (x86)/atmel/studio/7.0/toolchain/arm/arm-gnu-toolchain/bin/../lib/gcc/arm-none-eabi/6.3.1/../../../../arm-none-eabi/lib/thumb/v7e-m\libg.a(lib_a-locale.o)
                                                  c:/program files (x86)/atmel/studio/7.0/toolchain/arm/arm-gnu-toolchain/bin/../lib/gcc/arm-none-eabi/6.3.1/../../../../arm-none-eabi/lib/thumb/v7e-m\libg.a(lib_a-fputwc.o)
                                                  c:/program files (x86)/atmel/studio/7.0/toolchain/arm/arm-gnu-toolchain/bin/../lib/gcc/arm-none-eabi/6.3.1/../../../../arm-none-eabi/lib/thumb/v7e-m\libg.a(lib_a-fclose.o)
                                                  c:/program files (x86)/atmel/studio/7.0/toolchain/arm/arm-gnu-toolchain/bin/../lib/gcc/arm-none-eabi/6.3.1/../../../../arm-none-eabi/lib/thumb/v7e-m\libg.a(lib_a-vfiprintf.o)
                                                  c:/program files (x86)/atmel/studio/7.0/toolchain/arm/arm-gnu-toolchain/bin/../lib/gcc/arm-none-eabi/6.3.1/../../../../arm-none-eabi/lib/thumb/v7e-m\libg.a(lib_a-malloc.o)
                                                  c:/program files (x86)/atmel/studio/7.0/toolchain/arm/arm-gnu-toolchain/bin/../lib/gcc/arm-none-eabi/6.3.1/../../../../arm-none-eabi/lib/thumb/v7e-m\libg.a(lib_a-localeconv.o)
                                                  c:/program files (x86)/atmel/studio/7.0/toolchain/arm/arm-gnu-toolchain/bin/../lib/gcc/arm-none-eabi/6.3.1/../../../../arm-none-eabi/lib/thumb/v7e-m\libg.a(lib_a-findfp.o)
                                                  c:/program files (x86)/atmel/studio/7.0/toolchain/arm/arm-gnu-toolchain/bin/../lib/gcc/arm-none-eabi/6.3.1/../../../../arm-none-eabi/lib/thumb/v7e-m\libg.a(lib_a-fflush.o)
                                                  c:/program files (x86)/atmel/studio/7.0/toolchain/arm/arm-gnu-toolchain/bin/../lib/gcc/arm-none-eabi/6.3.1/../../../../arm-none-eabi/lib/thumb/v7e-m\libg.a(lib_a-wsetup.o)
                                                  c:/program files (x86)/atmel/studio/7.0/toolchain/arm/arm-gnu-toolchain/bin/../lib/gcc/arm-none-eabi/6.3.1/../../../../arm-none-eabi/lib/thumb/v7e-m\libg.a(lib_a-vfprintf.o)
                                                  c:/program files (x86)/atmel/studio/7.0/toolchain/arm/arm-gnu-toolchain/bin/../lib/gcc/arm-none-eabi/6.3.1/../../../../arm-none-eabi/lib/thumb/v7e-m\libg.a(lib_a-setvbuf.o)
                                                  c:/program files (x86)/atmel/studio/7.0/toolchain/arm/arm-gnu-toolchain/bin/../lib/gcc/arm-none-eabi/6.3.1/../../../../arm-none-eabi/lib/thumb/v7e-m\libg.a(lib_a-rand.o)
                                                  c:/program files (x86)/atmel/studio/7.0/toolchain/arm/arm-gnu-toolchain/bin/../lib/gcc/arm-none-eabi/6.3.1/../../../../arm-none-eabi/lib/thumb/v7e-m\libg.a(lib_a-printf.o)
                                                  ../../../platform/common/utils/stdio/stdio_usb/stdio_usb.o
_init                                             c:/program files (x86)/atmel/studio/7.0/toolchain/arm/arm-gnu-toolchain/bin/../lib/gcc/arm-none-eabi/6.3.1/thumb/v7e-m/crti.o
                                                  c:/program files (x86)/atmel/studio/7.0/toolchain/arm/arm-gnu-toolchain/bin/../lib/gcc/arm-none-eabi/6.3.1/../../../../arm-none-eabi/lib/thumb/v7e-m\libg.a(lib_a-init.o)
_isatty                                           ../../../platform/sam/utils/syscalls/gcc/syscalls.o
                                                  c:/program files (x86)/atmel/studio/7.0/toolchain/arm/arm-gnu-toolchain/bin/../lib/gcc/arm-none-eabi/6.3.1/../../../../arm-none-eabi/lib/thumb/v7e-m\libg.a(lib_a-isattyr.o)
_isatty_r                                         c:/program files (x86)/atmel/studio/7.0/toolchain/arm/arm-gnu-toolchain/bin/../lib/gcc/arm-none-eabi/6.3.1/../../../../arm-none-eabi/lib/thumb/v7e-m\libg.a(lib_a-isattyr.o)
                                                  c:/program files (x86)/atmel/studio/7.0/toolchain/arm/arm-gnu-toolchain/bin/../lib/gcc/arm-none-eabi/6.3.1/../../../../arm-none-eabi/lib/thumb/v7e-m\libg.a(lib_a-makebuf.o)
_kill                                             ../../../platform/sam/utils/syscalls/gcc/syscalls.o
_localeconv_r                                     c:/program files (x86)/atmel/studio/7.0/toolchain/arm/arm-gnu-toolchain/bin/../lib/gcc/arm-none-eabi/6.3.1/../../../../arm-none-eabi/lib/thumb/v7e-m\libg.a(lib_a-localeconv.o)
                                                  c:/program files (x86)/atmel/studio/7.0/toolchain/arm/arm-gnu-toolchain/bin/../lib/gcc/arm-none-eabi/6.3.1/../../../../arm-none-eabi/lib/thumb/v7e-m\libg.a(lib_a-vfprintf.o)
_lseek                                            ../../../platform/sam/utils/syscalls/gcc/syscalls.o
                                                  c:/program files (x86)/atmel/studio/7.0/toolchain/arm/arm-gnu-toolchain/bin/../lib/gcc/arm-none-eabi/6.3.1/../../../../arm-none-eabi/lib/thumb/v7e-m\libg.a(lib_a-lseekr.o)
_lseek_r                                          c:/program files (x86)/atmel/studio/7.0/toolchain/arm/arm-gnu-toolchain/bin/../lib/gcc/arm-none-eabi/6.3.1/../../../../arm-none-eabi/lib/thumb/v7e-m\libg.a(lib_a-lseekr.o)
                                                  c:/program files (x86)/atmel/studio/7.0/toolchain/arm/arm-gnu-toolchain/bin/../lib/gcc/arm-none-eabi/6.3.1/../../../../arm-none-eabi/lib/thumb/v7e-m\libg.a(lib_a-stdio.o)
_mainCRTStartup                                   c:/program files (x86)/atmel/studio/7.0/toolchain/arm/arm-gnu-toolchain/bin/../lib/gcc/arm-none-eabi/6.3.1/../../../../arm-none-eabi/lib/thumb/v7e-m/crt0.o
_malloc_r                                         c:/program files (x86)/atmel/studio/7.0/toolchain/arm/arm-gnu-toolchain/bin/../lib/gcc/arm-none-eabi/6.3.1/../../../../arm-none-eabi/lib/thumb/v7e-m\libg.a(lib_a-mallocr.o)
                                                  c:/program files (x86)/atmel/studio/7.0/toolchain/arm/arm-gnu-toolchain/bin/../lib/gcc/arm-none-eabi/6.3.1/../../../../arm-none-eabi/lib/thumb/v7e-m\libg.a(lib_a-reallocr.o)
                                                  c:/program files (x86)/atmel/studio/7.0/toolchain/arm/arm-gnu-toolchain/bin/../lib/gcc/arm-none-eabi/6.3.1/../../../../arm-none-eabi/lib/thumb/v7e-m\libg.a(lib_a-fvwrite.o)
                                                  c:/program files (x86)/atmel/studio/7.0/toolchain/arm/arm-gnu-toolchain/bin/../lib/gcc/arm-none-eabi/6.3.1/../../../../arm-none-eabi/lib/thumb/v7e-m\libg.a(lib_a-callocr.o)
                                                  c:/program files (x86)/atmel/studio/7.0/toolchain/arm/arm-gnu-toolchain/bin/../lib/gcc/arm-none-eabi/6.3.1/../../../../arm-none-eabi/lib/thumb/v7e-m\libg.a(lib_a-malloc.o)
                                                  c:/program files (x86)/atmel/studio/7.0/toolchain/arm/arm-gnu-toolchain/bin/../lib/gcc/arm-none-eabi/6.3.1/../../../../arm-none-eabi/lib/thumb/v7e-m\libg.a(lib_a-makebuf.o)
                                                  c:/program files (x86)/atmel/studio/7.0/toolchain/arm/arm-gnu-toolchain/bin/../lib/gcc/arm-none-eabi/6.3.1/../../../../arm-none-eabi/lib/thumb/v7e-m\libg.a(lib_a-findfp.o)
_malloc_trim_r                                    c:/program files (x86)/atmel/studio/7.0/toolchain/arm/arm-gnu-toolchain/bin/../lib/gcc/arm-none-eabi/6.3.1/../../../../arm-none-eabi/lib/thumb/v7e-m\libg.a(lib_a-freer.o)
_mbtowc_r                                         c:/program files (x86)/atmel/studio/7.0/toolchain/arm/arm-gnu-toolchain/bin/../lib/gcc/arm-none-eabi/6.3.1/../../../../arm-none-eabi/lib/thumb/v7e-m\libg.a(lib_a-mbtowc_r.o)
_mprec_log10                                      c:/program files (x86)/atmel/studio/7.0/toolchain/arm/arm-gnu-toolchain/bin/../lib/gcc/arm-none-eabi/6.3.1/../../../../arm-none-eabi/lib/thumb/v7e-m\libg.a(lib_a-mprec.o)
_printf_r                                         c:/program files (x86)/atmel/studio/7.0/toolchain/arm/arm-gnu-toolchain/bin/../lib/gcc/arm-none-eabi/6.3.1/../../../../arm-none-eabi/lib/thumb/v7e-m\libg.a(lib_a-printf.o)
_read                                             ../../../platform/common/utils/stdio/read.o
                                                  c:/program files (x86)/atmel/studio/7.0/toolchain/arm/arm-gnu-toolchain/bin/../lib/gcc/arm-none-eabi/6.3.1/../../../../arm-none-eabi/lib/thumb/v7e-m\libg.a(lib_a-readr.o)
_read_r                                           c:/program files (x86)/atmel/studio/7.0/toolchain/arm/arm-gnu-toolchain/bin/../lib/gcc/arm-none-eabi/6.3.1/../../../../arm-none-eabi/lib/thumb/v7e-m\libg.a(lib_a-readr.o)
                                                  c:/program files (x86)/atmel/studio/7.0/toolchain/arm/arm-gnu-toolchain/bin/../lib/gcc/arm-none-eabi/6.3.1/../../../../arm-none-eabi/lib/thumb/v7e-m\libg.a(lib_a-stdio.o)
_realloc_r                                        c:/program files (x86)/atmel/studio/7.0/toolchain/arm/arm-gnu-toolchain/bin/../lib/gcc/arm-none-eabi/6.3.1/../../../../arm-none-eabi/lib/thumb/v7e-m\libg.a(lib_a-reallocr.o)
                                                  c:/program files (x86)/atmel/studio/7.0/toolchain/arm/arm-gnu-toolchain/bin/../lib/gcc/arm-none-eabi/6.3.1/../../../../arm-none-eabi/lib/thumb/v7e-m\libg.a(lib_a-fvwrite.o)
_reclaim_reent                                    c:/program files (x86)/atmel/studio/7.0/toolchain/arm/arm-gnu-toolchain/bin/../lib/gcc/arm-none-eabi/6.3.1/../../../../arm-none-eabi/lib/thumb/v7e-m\libg.a(lib_a-reent.o)
_sal_aes_clean_up                                 ../../../stack/LwMesh/TDMA/services/sal/at86rf2xx/src/sal.o
_sbrk                                             ../../../platform/sam/utils/syscalls/gcc/syscalls.o
                                                  c:/program files (x86)/atmel/studio/7.0/toolchain/arm/arm-gnu-toolchain/bin/../lib/gcc/arm-none-eabi/6.3.1/../../../../arm-none-eabi/lib/thumb/v7e-m\libg.a(lib_a-sbrkr.o)
_sbrk_r                                           c:/program files (x86)/atmel/studio/7.0/toolchain/arm/arm-gnu-toolchain/bin/../lib/gcc/arm-none-eabi/6.3.1/../../../../arm-none-eabi/lib/thumb/v7e-m\libg.a(lib_a-sbrkr.o)
                                                  c:/program files (x86)/atmel/studio/7.0/toolchain/arm/arm-gnu-toolchain/bin/../lib/gcc/arm-none-eabi/6.3.1/../../../../arm-none-eabi/lib/thumb/v7e-m\libg.a(lib_a-mallocr.o)
                                                  c:/program files (x86)/atmel/studio/7.0/toolchain/arm/arm-gnu-toolchain/bin/../lib/gcc/arm-none-eabi/6.3.1/../../../../arm-none-eabi/lib/thumb/v7e-m\libg.a(lib_a-freer.o)
_setlocale_r                                      c:/program files (x86)/atmel/studio/7.0/toolchain/arm/arm-gnu-toolchain/bin/../lib/gcc/arm-none-eabi/6.3.1/../../../../arm-none-eabi/lib/thumb/v7e-m\libg.a(lib_a-locale.o)
_sfixed                                           ../../../platform/sam/utils/cmsis/sam4l/source/templates/gcc/startup_sam4l.o
_srelocate                                        ../../../platform/sam/utils/cmsis/sam4l/source/templates/gcc/startup_sam4l.o
_start                                            c:/program files (x86)/atmel/studio/7.0/toolchain/arm/arm-gnu-toolchain/bin/../lib/gcc/arm-none-eabi/6.3.1/../../../../arm-none-eabi/lib/thumb/v7e-m/crt0.o
_szero                                            ../../../platform/sam/utils/cmsis/sam4l/source/templates/gcc/startup_sam4l.o
_vfiprintf_r                                      c:/program files (x86)/atmel/studio/7.0/toolchain/arm/arm-gnu-toolchain/bin/../lib/gcc/arm-none-eabi/6.3.1/../../../../arm-none-eabi/lib/thumb/v7e-m\libg.a(lib_a-vfiprintf.o)
_vfprintf_r                                       c:/program files (x86)/atmel/studio/7.0/toolchain/arm/arm-gnu-toolchain/bin/../lib/gcc/arm-none-eabi/6.3.1/../../../../arm-none-eabi/lib/thumb/v7e-m\libg.a(lib_a-vfprintf.o)
                                                  c:/program files (x86)/atmel/studio/7.0/toolchain/arm/arm-gnu-toolchain/bin/../lib/gcc/arm-none-eabi/6.3.1/../../../../arm-none-eabi/lib/thumb/v7e-m\libg.a(lib_a-printf.o)
_wcrtomb_r                                        c:/program files (x86)/atmel/studio/7.0/toolchain/arm/arm-gnu-toolchain/bin/../lib/gcc/arm-none-eabi/6.3.1/../../../../arm-none-eabi/lib/thumb/v7e-m\libg.a(lib_a-wcrtomb.o)
                                                  c:/program files (x86)/atmel/studio/7.0/toolchain/arm/arm-gnu-toolchain/bin/../lib/gcc/arm-none-eabi/6.3.1/../../../../arm-none-eabi/lib/thumb/v7e-m\libg.a(lib_a-fputwc.o)
_wctomb_r                                         c:/program files (x86)/atmel/studio/7.0/toolchain/arm/arm-gnu-toolchain/bin/../lib/gcc/arm-none-eabi/6.3.1/../../../../arm-none-eabi/lib/thumb/v7e-m\libg.a(lib_a-wctomb_r.o)
_write                                            ../../../platform/common/utils/stdio/write.o
                                                  c:/program files (x86)/atmel/studio/7.0/toolchain/arm/arm-gnu-toolchain/bin/../lib/gcc/arm-none-eabi/6.3.1/../../../../arm-none-eabi/lib/thumb/v7e-m\libg.a(lib_a-writer.o)
_write_r                                          c:/program files (x86)/atmel/studio/7.0/toolchain/arm/arm-gnu-toolchain/bin/../lib/gcc/arm-none-eabi/6.3.1/../../../../arm-none-eabi/lib/thumb/v7e-m\libg.a(lib_a-writer.o)
                                                  c:/program files (x86)/atmel/studio/7.0/toolchain/arm/arm-gnu-toolchain/bin/../lib/gcc/arm-none-eabi/6.3.1/../../../../arm-none-eabi/lib/thumb/v7e-m\libg.a(lib_a-stdio.o)
appState                                          TC_lldn.o
ast_alarm                                         ../../../stack/LwMesh/TDMA/services/sleep_mgr/sam4l/sleep_mgr.o
ast_callback_pointer                              ../../../platform/sam/drivers/ast/ast.o
ast_clear_interrupt_flag                          ../../../platform/sam/drivers/ast/ast.o
                                                  ../../../stack/LwMesh/TDMA/services/sleep_mgr/sam4l/sleep_mgr.o
ast_clear_prescalar                               ../../../platform/sam/drivers/ast/ast.o
ast_configure_digital_tuner                       ../../../platform/sam/drivers/ast/ast.o
ast_counter                                       ../../../stack/LwMesh/TDMA/services/sleep_mgr/sam4l/sleep_mgr.o
ast_disable                                       ../../../platform/sam/drivers/ast/ast.o
ast_disable_digital_tuner                         ../../../platform/sam/drivers/ast/ast.o
ast_disable_event                                 ../../../platform/sam/drivers/ast/ast.o
ast_disable_interrupt                             ../../../platform/sam/drivers/ast/ast.o
                                                  ../../../stack/LwMesh/TDMA/services/sleep_mgr/sam4l/sleep_mgr.o
ast_disable_wakeup                                ../../../platform/sam/drivers/ast/ast.o
ast_enable                                        ../../../platform/sam/drivers/ast/ast.o
                                                  ../../../stack/LwMesh/TDMA/services/sleep_mgr/sam4l/sleep_mgr.o
ast_enable_counter_clear_on_alarm                 ../../../platform/sam/drivers/ast/ast.o
ast_enable_event                                  ../../../platform/sam/drivers/ast/ast.o
ast_enable_interrupt                              ../../../platform/sam/drivers/ast/ast.o
                                                  ../../../stack/LwMesh/TDMA/services/sleep_mgr/sam4l/sleep_mgr.o
ast_enable_wakeup                                 ../../../platform/sam/drivers/ast/ast.o
                                                  ../../../stack/LwMesh/TDMA/services/sleep_mgr/sam4l/sleep_mgr.o
ast_init_digital_tuner                            ../../../platform/sam/drivers/ast/ast.o
ast_is_enabled                                    ../../../platform/sam/drivers/ast/ast.o
ast_read_calendar_value                           ../../../platform/sam/drivers/ast/ast.o
ast_set_callback                                  ../../../platform/sam/drivers/ast/ast.o
                                                  ../../../stack/LwMesh/TDMA/services/sleep_mgr/sam4l/sleep_mgr.o
ast_set_config                                    ../../../platform/sam/drivers/ast/ast.o
                                                  ../../../stack/LwMesh/TDMA/services/sleep_mgr/sam4l/sleep_mgr.o
ast_write_alarm0_value                            ../../../platform/sam/drivers/ast/ast.o
                                                  ../../../stack/LwMesh/TDMA/services/sleep_mgr/sam4l/sleep_mgr.o
ast_write_calendar_value                          ../../../platform/sam/drivers/ast/ast.o
ast_write_counter_value                           ../../../platform/sam/drivers/ast/ast.o
ast_write_periodic0_value                         ../../../platform/sam/drivers/ast/ast.o
atexit                                            c:/program files (x86)/atmel/studio/7.0/toolchain/arm/arm-gnu-toolchain/bin/../lib/gcc/arm-none-eabi/6.3.1/../../../../arm-none-eabi/lib/thumb/v7e-m\libg.a(lib_a-atexit.o)
                                                  c:/program files (x86)/atmel/studio/7.0/toolchain/arm/arm-gnu-toolchain/bin/../lib/gcc/arm-none-eabi/6.3.1/../../../../arm-none-eabi/lib/thumb/v7e-m\libg.a(lib_a-__call_atexit.o)
                                                  c:/program files (x86)/atmel/studio/7.0/toolchain/arm/arm-gnu-toolchain/bin/../lib/gcc/arm-none-eabi/6.3.1/../../../../arm-none-eabi/lib/thumb/v7e-m/crt0.o
bmm_buffer_alloc                                  ../../../platform/resources/buffer/src/bmm.o
bmm_buffer_free                                   ../../../platform/resources/buffer/src/bmm.o
                                                  ../../../platform/resources/queue/src/qmm.o
bmm_buffer_init                                   ../../../platform/resources/buffer/src/bmm.o
board_init                                        ../../../board/WM400/src/board_init.o
                                                  TC_lldn.o
bpm_clear_interrupt                               ../../../platform/sam/drivers/bpm/bpm.o
bpm_disable_backup_pin                            ../../../platform/sam/drivers/bpm/bpm.o
bpm_disable_fast_wakeup                           ../../../platform/sam/drivers/bpm/bpm.o
bpm_disable_interrupt                             ../../../platform/sam/drivers/bpm/bpm.o
bpm_disable_io_retention                          ../../../platform/sam/drivers/bpm/bpm.o
bpm_disable_wakeup_source                         ../../../platform/sam/drivers/bpm/bpm.o
bpm_enable_backup_pin                             ../../../platform/sam/drivers/bpm/bpm.o
bpm_enable_fast_wakeup                            ../../../platform/sam/drivers/bpm/bpm.o
                                                  ../../../platform/sam/drivers/usbc/usbc_device.o
bpm_enable_interrupt                              ../../../platform/sam/drivers/bpm/bpm.o
bpm_enable_io_retention                           ../../../platform/sam/drivers/bpm/bpm.o
bpm_enable_wakeup_source                          ../../../platform/sam/drivers/bpm/bpm.o
                                                  ../../../stack/LwMesh/TDMA/services/sleep_mgr/sam4l/sleep_mgr.o
bpm_get_backup_wakeup_cause                       ../../../platform/sam/drivers/bpm/bpm.o
bpm_get_interrupt_mask                            ../../../platform/sam/drivers/bpm/bpm.o
bpm_get_interrupt_status                          ../../../platform/sam/drivers/bpm/bpm.o
bpm_get_status                                    ../../../platform/sam/drivers/bpm/bpm.o
                                                  ../../../platform/common/services/clock/sam4l/sysclk.o
bpm_get_version                                   ../../../platform/sam/drivers/bpm/bpm.o
bpm_power_scaling_cpu                             ../../../platform/sam/drivers/bpm/bpm.o
                                                  ../../../platform/common/services/clock/sam4l/sysclk.o
bpm_power_scaling_cpu_failsafe                    ../../../platform/sam/drivers/bpm/bpm.o
                                                  ../../../platform/common/services/clock/sam4l/sysclk.o
bpm_ps_no_halt_exec                               ../../../platform/sam/drivers/bpm/bpm.o
bpm_set_clk32_source                              ../../../platform/sam/drivers/bpm/bpm.o
                                                  ../../../stack/LwMesh/TDMA/services/sleep_mgr/sam4l/sleep_mgr.o
bpm_sleep                                         ../../../platform/sam/drivers/bpm/bpm.o
                                                  ../../../stack/LwMesh/TDMA/services/sleep_mgr/sam4l/sleep_mgr.o
cleanup_glue                                      c:/program files (x86)/atmel/studio/7.0/toolchain/arm/arm-gnu-toolchain/bin/../lib/gcc/arm-none-eabi/6.3.1/../../../../arm-none-eabi/lib/thumb/v7e-m\libg.a(lib_a-reent.o)
common_tc_compare_stop                            ../../../stack/LwMesh/TDMA/services/common_hw_timer/sam/lib\libsam4l_lib_hw_timer.a(common_hw_timer.o)
common_tc_delay                                   ../../../stack/LwMesh/TDMA/services/common_hw_timer/sam/lib\libsam4l_lib_hw_timer.a(common_hw_timer.o)
                                                  ../../../stack/LwMesh/TDMA/sys/src/sysTimer.o
common_tc_init                                    ../../../stack/LwMesh/TDMA/services/common_hw_timer/sam/lib\libsam4l_lib_hw_timer.a(common_hw_timer.o)
                                                  ../../../stack/LwMesh/TDMA/sys/src/sysTimer.o
common_tc_overflow_stop                           ../../../stack/LwMesh/TDMA/services/common_hw_timer/sam/lib\libsam4l_lib_hw_timer.a(common_hw_timer.o)
common_tc_read_count                              ../../../stack/LwMesh/TDMA/services/common_hw_timer/sam/lib\libsam4l_lib_hw_timer.a(common_hw_timer.o)
common_tc_stop                                    ../../../stack/LwMesh/TDMA/services/common_hw_timer/sam/lib\libsam4l_lib_hw_timer.a(common_hw_timer.o)
cpu_irq_enter_critical                            ../../../platform/common/utils/interrupt\interrupt_sam_nvic.o
cpu_irq_leave_critical                            ../../../platform/common/utils/interrupt\interrupt_sam_nvic.o
dfll_disable_closed_loop                          ../../../platform/common/services/clock/sam4l/dfll.o
dfll_disable_open_loop                            ../../../platform/common/services/clock/sam4l/dfll.o
dfll_enable_closed_loop                           ../../../platform/common/services/clock/sam4l/dfll.o
dfll_enable_config_defaults                       ../../../platform/common/services/clock/sam4l/dfll.o
                                                  ../../../platform/common/services/clock/sam4l/sysclk.o
                                                  TC_lldn.o
dfll_enable_open_loop                             ../../../platform/common/services/clock/sam4l/dfll.o
dtr_cb                                            ../../../platform/thirdparty/wireless/addons/sio2host/usb/sio2host.o
eic_callback_pointer                              ../../../platform/sam/drivers/eic/eic.o
eic_disable                                       ../../../platform/sam/drivers/eic/eic.o
eic_enable                                        ../../../platform/sam/drivers/eic/eic.o
eic_line_set_callback                             ../../../platform/sam/drivers/eic/eic.o
eic_line_set_config                               ../../../platform/sam/drivers/eic/eic.o
errno                                             c:/program files (x86)/atmel/studio/7.0/toolchain/arm/arm-gnu-toolchain/bin/../lib/gcc/arm-none-eabi/6.3.1/../../../../arm-none-eabi/lib/thumb/v7e-m\libg.a(lib_a-reent.o)
                                                  c:/program files (x86)/atmel/studio/7.0/toolchain/arm/arm-gnu-toolchain/bin/../lib/gcc/arm-none-eabi/6.3.1/../../../../arm-none-eabi/lib/thumb/v7e-m\libg.a(lib_a-readr.o)
                                                  c:/program files (x86)/atmel/studio/7.0/toolchain/arm/arm-gnu-toolchain/bin/../lib/gcc/arm-none-eabi/6.3.1/../../../../arm-none-eabi/lib/thumb/v7e-m\libg.a(lib_a-lseekr.o)
                                                  c:/program files (x86)/atmel/studio/7.0/toolchain/arm/arm-gnu-toolchain/bin/../lib/gcc/arm-none-eabi/6.3.1/../../../../arm-none-eabi/lib/thumb/v7e-m\libg.a(lib_a-isattyr.o)
                                                  c:/program files (x86)/atmel/studio/7.0/toolchain/arm/arm-gnu-toolchain/bin/../lib/gcc/arm-none-eabi/6.3.1/../../../../arm-none-eabi/lib/thumb/v7e-m\libg.a(lib_a-fstatr.o)
                                                  c:/program files (x86)/atmel/studio/7.0/toolchain/arm/arm-gnu-toolchain/bin/../lib/gcc/arm-none-eabi/6.3.1/../../../../arm-none-eabi/lib/thumb/v7e-m\libg.a(lib_a-closer.o)
                                                  c:/program files (x86)/atmel/studio/7.0/toolchain/arm/arm-gnu-toolchain/bin/../lib/gcc/arm-none-eabi/6.3.1/../../../../arm-none-eabi/lib/thumb/v7e-m\libg.a(lib_a-writer.o)
                                                  c:/program files (x86)/atmel/studio/7.0/toolchain/arm/arm-gnu-toolchain/bin/../lib/gcc/arm-none-eabi/6.3.1/../../../../arm-none-eabi/lib/thumb/v7e-m\libg.a(lib_a-sbrkr.o)
exception_table                                   ../../../platform/sam/utils/cmsis/sam4l/source/templates/gcc/startup_sam4l.o
exit                                              c:/program files (x86)/atmel/studio/7.0/toolchain/arm/arm-gnu-toolchain/bin/../lib/gcc/arm-none-eabi/6.3.1/../../../../arm-none-eabi/lib/thumb/v7e-m\libg.a(lib_a-exit.o)
                                                  c:/program files (x86)/atmel/studio/7.0/toolchain/arm/arm-gnu-toolchain/bin/../lib/gcc/arm-none-eabi/6.3.1/../../../../arm-none-eabi/lib/thumb/v7e-m/crt0.o
fclose                                            c:/program files (x86)/atmel/studio/7.0/toolchain/arm/arm-gnu-toolchain/bin/../lib/gcc/arm-none-eabi/6.3.1/../../../../arm-none-eabi/lib/thumb/v7e-m\libg.a(lib_a-fclose.o)
fflush                                            c:/program files (x86)/atmel/studio/7.0/toolchain/arm/arm-gnu-toolchain/bin/../lib/gcc/arm-none-eabi/6.3.1/../../../../arm-none-eabi/lib/thumb/v7e-m\libg.a(lib_a-fflush.o)
flashcalw_clear_page_buffer                       ../../../platform/sam/drivers/flashcalw/flashcalw.o
flashcalw_default_wait_until_ready                ../../../platform/sam/drivers/flashcalw/flashcalw.o
flashcalw_enable_lock_error_int                   ../../../platform/sam/drivers/flashcalw/flashcalw.o
flashcalw_enable_prog_error_int                   ../../../platform/sam/drivers/flashcalw/flashcalw.o
flashcalw_enable_ready_int                        ../../../platform/sam/drivers/flashcalw/flashcalw.o
flashcalw_erase_all                               ../../../platform/sam/drivers/flashcalw/flashcalw.o
flashcalw_erase_all_gp_fuses                      ../../../platform/sam/drivers/flashcalw/flashcalw.o
flashcalw_erase_all_pages                         ../../../platform/sam/drivers/flashcalw/flashcalw.o
flashcalw_erase_gp_fuse_bit                       ../../../platform/sam/drivers/flashcalw/flashcalw.o
flashcalw_erase_gp_fuse_bitfield                  ../../../platform/sam/drivers/flashcalw/flashcalw.o
flashcalw_erase_gp_fuse_byte                      ../../../platform/sam/drivers/flashcalw/flashcalw.o
flashcalw_erase_page                              ../../../platform/sam/drivers/flashcalw/flashcalw.o
flashcalw_erase_user_page                         ../../../platform/sam/drivers/flashcalw/flashcalw.o
flashcalw_get_command                             ../../../platform/sam/drivers/flashcalw/flashcalw.o
flashcalw_get_flash_size                          ../../../platform/sam/drivers/flashcalw/flashcalw.o
flashcalw_get_page_count                          ../../../platform/sam/drivers/flashcalw/flashcalw.o
flashcalw_get_page_count_per_region               ../../../platform/sam/drivers/flashcalw/flashcalw.o
flashcalw_get_page_number                         ../../../platform/sam/drivers/flashcalw/flashcalw.o
flashcalw_get_page_region                         ../../../platform/sam/drivers/flashcalw/flashcalw.o
flashcalw_get_region_first_page_number            ../../../platform/sam/drivers/flashcalw/flashcalw.o
flashcalw_get_wait_state                          ../../../platform/sam/drivers/flashcalw/flashcalw.o
flashcalw_is_lock_error                           ../../../platform/sam/drivers/flashcalw/flashcalw.o
flashcalw_is_lock_error_int_enabled               ../../../platform/sam/drivers/flashcalw/flashcalw.o
flashcalw_is_page_erased                          ../../../platform/sam/drivers/flashcalw/flashcalw.o
flashcalw_is_page_region_locked                   ../../../platform/sam/drivers/flashcalw/flashcalw.o
flashcalw_is_prog_error_int_enabled               ../../../platform/sam/drivers/flashcalw/flashcalw.o
flashcalw_is_programming_error                    ../../../platform/sam/drivers/flashcalw/flashcalw.o
flashcalw_is_ready                                ../../../platform/sam/drivers/flashcalw/flashcalw.o
flashcalw_is_ready_int_enabled                    ../../../platform/sam/drivers/flashcalw/flashcalw.o
flashcalw_is_region_locked                        ../../../platform/sam/drivers/flashcalw/flashcalw.o
flashcalw_is_security_bit_active                  ../../../platform/sam/drivers/flashcalw/flashcalw.o
flashcalw_issue_command                           ../../../platform/sam/drivers/flashcalw/flashcalw.o
flashcalw_lock_all_regions                        ../../../platform/sam/drivers/flashcalw/flashcalw.o
flashcalw_lock_page_region                        ../../../platform/sam/drivers/flashcalw/flashcalw.o
flashcalw_lock_region                             ../../../platform/sam/drivers/flashcalw/flashcalw.o
flashcalw_memcpy                                  ../../../platform/sam/drivers/flashcalw/flashcalw.o
flashcalw_memset16                                ../../../platform/sam/drivers/flashcalw/flashcalw.o
flashcalw_memset32                                ../../../platform/sam/drivers/flashcalw/flashcalw.o
flashcalw_memset64                                ../../../platform/sam/drivers/flashcalw/flashcalw.o
flashcalw_memset8                                 ../../../platform/sam/drivers/flashcalw/flashcalw.o
flashcalw_no_operation                            ../../../platform/sam/drivers/flashcalw/flashcalw.o
flashcalw_picocache_disable                       ../../../platform/sam/drivers/flashcalw/flashcalw.o
flashcalw_picocache_disable_monitor               ../../../platform/sam/drivers/flashcalw/flashcalw.o
flashcalw_picocache_enable                        ../../../platform/sam/drivers/flashcalw/flashcalw.o
flashcalw_picocache_enable_monitor                ../../../platform/sam/drivers/flashcalw/flashcalw.o
flashcalw_picocache_get_monitor_cnt               ../../../platform/sam/drivers/flashcalw/flashcalw.o
flashcalw_picocache_get_status                    ../../../platform/sam/drivers/flashcalw/flashcalw.o
flashcalw_picocache_get_version                   ../../../platform/sam/drivers/flashcalw/flashcalw.o
flashcalw_picocache_invalid_all                   ../../../platform/sam/drivers/flashcalw/flashcalw.o
flashcalw_picocache_invalid_line                  ../../../platform/sam/drivers/flashcalw/flashcalw.o
flashcalw_picocache_reset_monitor                 ../../../platform/sam/drivers/flashcalw/flashcalw.o
flashcalw_picocache_set_monitor_mode              ../../../platform/sam/drivers/flashcalw/flashcalw.o
flashcalw_quick_page_read                         ../../../platform/sam/drivers/flashcalw/flashcalw.o
flashcalw_quick_user_page_read                    ../../../platform/sam/drivers/flashcalw/flashcalw.o
flashcalw_read_all_gp_fuses                       ../../../platform/sam/drivers/flashcalw/flashcalw.o
flashcalw_read_gp_fuse_bit                        ../../../platform/sam/drivers/flashcalw/flashcalw.o
flashcalw_read_gp_fuse_bitfield                   ../../../platform/sam/drivers/flashcalw/flashcalw.o
flashcalw_read_gp_fuse_byte                       ../../../platform/sam/drivers/flashcalw/flashcalw.o
flashcalw_set_all_gp_fuses                        ../../../platform/sam/drivers/flashcalw/flashcalw.o
flashcalw_set_flash_waitstate_and_readmode        ../../../platform/sam/drivers/flashcalw/flashcalw.o
                                                  ../../../platform/common/services/clock/sam4l/sysclk.o
flashcalw_set_gp_fuse_bit                         ../../../platform/sam/drivers/flashcalw/flashcalw.o
flashcalw_set_gp_fuse_bitfield                    ../../../platform/sam/drivers/flashcalw/flashcalw.o
flashcalw_set_gp_fuse_byte                        ../../../platform/sam/drivers/flashcalw/flashcalw.o
flashcalw_set_security_bit                        ../../../platform/sam/drivers/flashcalw/flashcalw.o
flashcalw_set_wait_state                          ../../../platform/sam/drivers/flashcalw/flashcalw.o
flashcalw_wait_until_ready                        ../../../platform/sam/drivers/flashcalw/flashcalw.o
flashcalw_write_all_gp_fuses                      ../../../platform/sam/drivers/flashcalw/flashcalw.o
flashcalw_write_gp_fuse_bit                       ../../../platform/sam/drivers/flashcalw/flashcalw.o
flashcalw_write_gp_fuse_bitfield                  ../../../platform/sam/drivers/flashcalw/flashcalw.o
flashcalw_write_gp_fuse_byte                      ../../../platform/sam/drivers/flashcalw/flashcalw.o
flashcalw_write_page                              ../../../platform/sam/drivers/flashcalw/flashcalw.o
flashcalw_write_user_page                         ../../../platform/sam/drivers/flashcalw/flashcalw.o
fputwc                                            c:/program files (x86)/atmel/studio/7.0/toolchain/arm/arm-gnu-toolchain/bin/../lib/gcc/arm-none-eabi/6.3.1/../../../../arm-none-eabi/lib/thumb/v7e-m\libg.a(lib_a-fputwc.o)
free                                              c:/program files (x86)/atmel/studio/7.0/toolchain/arm/arm-gnu-toolchain/bin/../lib/gcc/arm-none-eabi/6.3.1/../../../../arm-none-eabi/lib/thumb/v7e-m\libg.a(lib_a-malloc.o)
                                                  c:/program files (x86)/atmel/studio/7.0/toolchain/arm/arm-gnu-toolchain/bin/../lib/gcc/arm-none-eabi/6.3.1/../../../../arm-none-eabi/lib/thumb/v7e-m\libg.a(lib_a-__call_atexit.o)
g_interrupt_enabled                               ../../../platform/common/utils/interrupt\interrupt_sam_nvic.o
                                                  ../../../platform/resources/queue/src/qmm.o
                                                  ../../../platform/thirdparty/wireless/addons/sio2host/usb/sio2host.o
                                                  ../../../platform/common/services/usb/class/cdc/device/udi_cdc.o
                                                  ../../../platform/common/services/clock/sam4l/pll.o
                                                  ../../../platform/common/services/clock/sam4l/osc.o
                                                  ../../../platform/common/services/clock/sam4l/dfll.o
                                                  ../../../platform/common/services/clock/sam4l/sysclk.o
                                                  ../../../platform/sam/drivers/wdt/wdt_sam4l.o
                                                  ../../../platform/sam/drivers/usbc/usbc_device.o
                                                  ../../../platform/sam/drivers/eic/eic.o
                                                  ../../../platform/sam/drivers/bpm/bpm.o
                                                  ../../../platform/sam/drivers/ast/ast.o
                                                  ../../../stack/LwMesh/TDMA/services/trx_access/trx_access.o
                                                  ../../../stack/LwMesh/TDMA/services/sleep_mgr/sam4l/sleep_mgr.o
                                                  ../../../stack/LwMesh/TDMA/services/common_hw_timer/sam/hw_timer.o
                                                  ../../../stack/LwMesh/TDMA/sys/src/sysTimer.o
                                                  TC_lldn.o
gpio_set_pin_callback                             ../../../platform/sam/drivers/gpio/gpio.o
hardware_init_hook                                c:/program files (x86)/atmel/studio/7.0/toolchain/arm/arm-gnu-toolchain/bin/../lib/gcc/arm-none-eabi/6.3.1/../../../../arm-none-eabi/lib/thumb/v7e-m/crt0.o
hw_expiry_cb                                      TC_lldn.o
hw_overflow_cb                                    TC_lldn.o
link                                              ../../../platform/sam/utils/syscalls/gcc/syscalls.o
localeconv                                        c:/program files (x86)/atmel/studio/7.0/toolchain/arm/arm-gnu-toolchain/bin/../lib/gcc/arm-none-eabi/6.3.1/../../../../arm-none-eabi/lib/thumb/v7e-m\libg.a(lib_a-localeconv.o)
main                                              TC_lldn.o
                                                  ../../../platform/sam/utils/cmsis/sam4l/source/templates/gcc/startup_sam4l.o
                                                  c:/program files (x86)/atmel/studio/7.0/toolchain/arm/arm-gnu-toolchain/bin/../lib/gcc/arm-none-eabi/6.3.1/../../../../arm-none-eabi/lib/thumb/v7e-m/crt0.o
main_cdc_disable                                  ../../../platform/thirdparty/wireless/addons/sio2host/usb/sio2host.o
main_cdc_enable                                   ../../../platform/thirdparty/wireless/addons/sio2host/usb/sio2host.o
malloc                                            c:/program files (x86)/atmel/studio/7.0/toolchain/arm/arm-gnu-toolchain/bin/../lib/gcc/arm-none-eabi/6.3.1/../../../../arm-none-eabi/lib/thumb/v7e-m\libg.a(lib_a-malloc.o)
                                                  c:/program files (x86)/atmel/studio/7.0/toolchain/arm/arm-gnu-toolchain/bin/../lib/gcc/arm-none-eabi/6.3.1/../../../../arm-none-eabi/lib/thumb/v7e-m\libg.a(lib_a-__atexit.o)
                                                  c:/program files (x86)/atmel/studio/7.0/toolchain/arm/arm-gnu-toolchain/bin/../lib/gcc/arm-none-eabi/6.3.1/../../../../arm-none-eabi/lib/thumb/v7e-m\libg.a(lib_a-setvbuf.o)
memchr                                            c:/program files (x86)/atmel/studio/7.0/toolchain/arm/arm-gnu-toolchain/bin/../lib/gcc/arm-none-eabi/6.3.1/../../../../arm-none-eabi/lib/thumb/v7e-m\libg.a(lib_a-memchr.o)
                                                  c:/program files (x86)/atmel/studio/7.0/toolchain/arm/arm-gnu-toolchain/bin/../lib/gcc/arm-none-eabi/6.3.1/../../../../arm-none-eabi/lib/thumb/v7e-m\libg.a(lib_a-fvwrite.o)
                                                  c:/program files (x86)/atmel/studio/7.0/toolchain/arm/arm-gnu-toolchain/bin/../lib/gcc/arm-none-eabi/6.3.1/../../../../arm-none-eabi/lib/thumb/v7e-m\libg.a(lib_a-vfiprintf.o)
                                                  c:/program files (x86)/atmel/studio/7.0/toolchain/arm/arm-gnu-toolchain/bin/../lib/gcc/arm-none-eabi/6.3.1/../../../../arm-none-eabi/lib/thumb/v7e-m\libg.a(lib_a-vfprintf.o)
memcpy                                            c:/program files (x86)/atmel/studio/7.0/toolchain/arm/arm-gnu-toolchain/bin/../lib/gcc/arm-none-eabi/6.3.1/../../../../arm-none-eabi/lib/thumb/v7e-m\libg.a(lib_a-memcpy.o)
                                                  c:/program files (x86)/atmel/studio/7.0/toolchain/arm/arm-gnu-toolchain/bin/../lib/gcc/arm-none-eabi/6.3.1/../../../../arm-none-eabi/lib/thumb/v7e-m\libg.a(lib_a-fvwrite.o)
                                                  c:/program files (x86)/atmel/studio/7.0/toolchain/arm/arm-gnu-toolchain/bin/../lib/gcc/arm-none-eabi/6.3.1/../../../../arm-none-eabi/lib/thumb/v7e-m\libg.a(lib_a-mprec.o)
                                                  c:/program files (x86)/atmel/studio/7.0/toolchain/arm/arm-gnu-toolchain/bin/../lib/gcc/arm-none-eabi/6.3.1/../../../../arm-none-eabi/lib/thumb/v7e-m\libg.a(lib_a-dtoa.o)
                                                  ../../../platform/common/services/usb/class/cdc/device/udi_cdc.o
                                                  ../../../platform/sam/drivers/usbc/usbc_device.o
                                                  ../../../stack/LwMesh/TDMA/services/sal/at86rf2xx/src/sal.o
                                                  ../../../stack/LwMesh/TDMA/nwk/src/nwkTx.o
                                                  ../../../stack/LwMesh/TDMA/nwk/src/nwkRx.o
                                                  ../../../stack/LwMesh/TDMA/nwk/src/nwkDataReq.o
memmove                                           c:/program files (x86)/atmel/studio/7.0/toolchain/arm/arm-gnu-toolchain/bin/../lib/gcc/arm-none-eabi/6.3.1/../../../../arm-none-eabi/lib/thumb/v7e-m\libg.a(lib_a-memmove.o)
                                                  c:/program files (x86)/atmel/studio/7.0/toolchain/arm/arm-gnu-toolchain/bin/../lib/gcc/arm-none-eabi/6.3.1/../../../../arm-none-eabi/lib/thumb/v7e-m\libg.a(lib_a-reallocr.o)
                                                  c:/program files (x86)/atmel/studio/7.0/toolchain/arm/arm-gnu-toolchain/bin/../lib/gcc/arm-none-eabi/6.3.1/../../../../arm-none-eabi/lib/thumb/v7e-m\libg.a(lib_a-fvwrite.o)
memset                                            c:/program files (x86)/atmel/studio/7.0/toolchain/arm/arm-gnu-toolchain/bin/../lib/gcc/arm-none-eabi/6.3.1/../../../../arm-none-eabi/lib/thumb/v7e-m\libg.a(lib_a-memset.o)
                                                  c:/program files (x86)/atmel/studio/7.0/toolchain/arm/arm-gnu-toolchain/bin/../lib/gcc/arm-none-eabi/6.3.1/../../../../arm-none-eabi/lib/thumb/v7e-m\libg.a(lib_a-callocr.o)
                                                  c:/program files (x86)/atmel/studio/7.0/toolchain/arm/arm-gnu-toolchain/bin/../lib/gcc/arm-none-eabi/6.3.1/../../../../arm-none-eabi/lib/thumb/v7e-m\libg.a(lib_a-findfp.o)
                                                  ../../../platform/sam/drivers/usbc/usbc_device.o
                                                  ../../../platform/sam/drivers/flashcalw/flashcalw.o
                                                  ../../../stack/LwMesh/TDMA/nwk/src/nwkFrame.o
                                                  c:/program files (x86)/atmel/studio/7.0/toolchain/arm/arm-gnu-toolchain/bin/../lib/gcc/arm-none-eabi/6.3.1/../../../../arm-none-eabi/lib/thumb/v7e-m/crt0.o
n                                                 ../../../board/WM400/src/board_init.o
                                                  ../../../platform/thirdparty/wireless/addons/sio2host/usb/sio2host.o
                                                  ../../../platform/common/utils/stdio/stdio_usb/stdio_usb.o
                                                  ../../../platform/common/services/usb/class/cdc/device/udi_cdc_desc.o
                                                  ../../../platform/common/services/usb/class/cdc/device/udi_cdc.o
                                                  ../../../platform/common/services/usb/udc/udc.o
                                                  ../../../platform/common/services/spi/sam_usart_spi/usart_spi.o
                                                  ../../../platform/common/services/spi/sam_spi/spi_master.o
                                                  ../../../platform/common/services/serial/usart_serial.o
                                                  ../../../platform/common/services/clock/sam4l/pll.o
                                                  ../../../platform/common/services/clock/sam4l/osc.o
                                                  ../../../platform/common/services/clock/sam4l/dfll.o
                                                  ../../../platform/common/services/clock/sam4l/sysclk.o
                                                  ../../../platform/sam/drivers/wdt/wdt_sam4l.o
                                                  ../../../platform/sam/drivers/usbc/usbc_device.o
                                                  ../../../platform/sam/drivers/spi/spi.o
                                                  ../../../platform/sam/drivers/eic/eic.o
                                                  ../../../platform/sam/drivers/gpio/gpio.o
                                                  ../../../platform/sam/drivers/flashcalw/flashcalw.o
                                                  ../../../platform/sam/drivers/ast/ast.o
                                                  ../../../platform/sam/utils/syscalls/gcc/hardfault_handler_c.o
                                                  ../../../stack/LwMesh/TDMA/services/trx_access/trx_access.o
                                                  ../../../stack/LwMesh/TDMA/services/sleep_mgr/sam4l/sleep_mgr.o
                                                  ../../../stack/LwMesh/TDMA/services/sal/at86rf2xx/src/sal.o
                                                  ../../../stack/LwMesh/TDMA/services/common_hw_timer/sam/hw_timer.o
                                                  ../../../stack/LwMesh/TDMA/sys/src/sysEncrypt.o
                                                  ../../../stack/LwMesh/TDMA/sys/src/sys.o
                                                  ../../../stack/LwMesh/TDMA/phy/AT86RF233/src/phy.o
                                                  ../../../stack/LwMesh/TDMA/nwk/src/nwkTx.o
                                                  ../../../stack/LwMesh/TDMA/nwk/src/nwkSecurity.o
                                                  ../../../stack/LwMesh/TDMA/nwk/src/nwkRx.o
                                                  ../../../stack/LwMesh/TDMA/nwk/src/nwkRouteDiscovery.o
                                                  ../../../stack/LwMesh/TDMA/nwk/src/nwkRoute.o
                                                  ../../../stack/LwMesh/TDMA/nwk/src/nwkGroup.o
                                                  ../../../stack/LwMesh/TDMA/nwk/src/nwkFrame.o
                                                  ../../../stack/LwMesh/TDMA/nwk/src/nwkDataReq.o
                                                  ../../../stack/LwMesh/TDMA/nwk/src/nwk.o
                                                  TC_lldn.o
nwkDataReqInit                                    ../../../stack/LwMesh/TDMA/nwk/src/nwkDataReq.o
                                                  ../../../stack/LwMesh/TDMA/nwk/src/nwk.o
nwkDataReqTaskHandler                             ../../../stack/LwMesh/TDMA/nwk/src/nwkDataReq.o
                                                  ../../../stack/LwMesh/TDMA/nwk/src/nwk.o
nwkFrameAlloc                                     ../../../stack/LwMesh/TDMA/nwk/src/nwkFrame.o
                                                  ../../../stack/LwMesh/TDMA/nwk/src/nwkTx.o
                                                  ../../../stack/LwMesh/TDMA/nwk/src/nwkRx.o
                                                  ../../../stack/LwMesh/TDMA/nwk/src/nwkDataReq.o
nwkFrameAlloc_LLDN                                ../../../stack/LwMesh/TDMA/nwk/src/nwkFrame.o
                                                  ../../../stack/LwMesh/TDMA/nwk/src/nwkRx.o
                                                  ../../../stack/LwMesh/TDMA/nwk/src/nwkDataReq.o
nwkFrameCommandInit                               ../../../stack/LwMesh/TDMA/nwk/src/nwkFrame.o
                                                  ../../../stack/LwMesh/TDMA/nwk/src/nwkRx.o
nwkFrameFree                                      ../../../stack/LwMesh/TDMA/nwk/src/nwkFrame.o
                                                  ../../../stack/LwMesh/TDMA/nwk/src/nwkTx.o
                                                  ../../../stack/LwMesh/TDMA/nwk/src/nwkRx.o
                                                  ../../../stack/LwMesh/TDMA/nwk/src/nwkDataReq.o
nwkFrameInit                                      ../../../stack/LwMesh/TDMA/nwk/src/nwkFrame.o
                                                  ../../../stack/LwMesh/TDMA/nwk/src/nwk.o
nwkFrameNext                                      ../../../stack/LwMesh/TDMA/nwk/src/nwkFrame.o
                                                  ../../../stack/LwMesh/TDMA/nwk/src/nwkTx.o
                                                  ../../../stack/LwMesh/TDMA/nwk/src/nwkRx.o
nwkGroupInit                                      ../../../stack/LwMesh/TDMA/nwk/src/nwkGroup.o
                                                  ../../../stack/LwMesh/TDMA/nwk/src/nwk.o
nwkIb                                             ../../../stack/LwMesh/TDMA/nwk/src/nwk.o
                                                  ../../../stack/LwMesh/TDMA/nwk/src/nwkTx.o
                                                  ../../../stack/LwMesh/TDMA/nwk/src/nwkRx.o
                                                  ../../../stack/LwMesh/TDMA/nwk/src/nwkFrame.o
                                                  ../../../stack/LwMesh/TDMA/nwk/src/nwkDataReq.o
nwkRxInit                                         ../../../stack/LwMesh/TDMA/nwk/src/nwkRx.o
                                                  ../../../stack/LwMesh/TDMA/nwk/src/nwk.o
nwkRxTaskHandler                                  ../../../stack/LwMesh/TDMA/nwk/src/nwkRx.o
                                                  ../../../stack/LwMesh/TDMA/nwk/src/nwk.o
nwkTxAckReceived                                  ../../../stack/LwMesh/TDMA/nwk/src/nwkTx.o
                                                  ../../../stack/LwMesh/TDMA/nwk/src/nwkRx.o
nwkTxBeaconFrame                                  ../../../stack/LwMesh/TDMA/nwk/src/nwkTx.o
                                                  ../../../stack/LwMesh/TDMA/nwk/src/nwkDataReq.o
nwkTxBeaconFrameLLDN                              ../../../stack/LwMesh/TDMA/nwk/src/nwkTx.o
                                                  ../../../stack/LwMesh/TDMA/nwk/src/nwkDataReq.o
nwkTxBroadcastFrame                               ../../../stack/LwMesh/TDMA/nwk/src/nwkTx.o
                                                  ../../../stack/LwMesh/TDMA/nwk/src/nwkRx.o
nwkTxConfirm                                      ../../../stack/LwMesh/TDMA/nwk/src/nwkTx.o
nwkTxFrame                                        ../../../stack/LwMesh/TDMA/nwk/src/nwkTx.o
                                                  ../../../stack/LwMesh/TDMA/nwk/src/nwkRx.o
                                                  ../../../stack/LwMesh/TDMA/nwk/src/nwkDataReq.o
nwkTxInit                                         ../../../stack/LwMesh/TDMA/nwk/src/nwkTx.o
                                                  ../../../stack/LwMesh/TDMA/nwk/src/nwk.o
nwkTxMacCommandFrameLLDN                          ../../../stack/LwMesh/TDMA/nwk/src/nwkTx.o
                                                  ../../../stack/LwMesh/TDMA/nwk/src/nwkDataReq.o
nwkTxTaskHandler                                  ../../../stack/LwMesh/TDMA/nwk/src/nwkTx.o
                                                  ../../../stack/LwMesh/TDMA/nwk/src/nwk.o
osc_priv_disable_osc0                             ../../../platform/common/services/clock/sam4l/osc.o
osc_priv_disable_osc32                            ../../../platform/common/services/clock/sam4l/osc.o
osc_priv_disable_rc1m                             ../../../platform/common/services/clock/sam4l/osc.o
osc_priv_disable_rc32k                            ../../../platform/common/services/clock/sam4l/osc.o
osc_priv_disable_rc80m                            ../../../platform/common/services/clock/sam4l/osc.o
osc_priv_disable_rcfast                           ../../../platform/common/services/clock/sam4l/osc.o
osc_priv_enable_osc0                              ../../../platform/common/services/clock/sam4l/osc.o
                                                  ../../../platform/common/services/clock/sam4l/dfll.o
                                                  ../../../platform/common/services/clock/sam4l/sysclk.o
                                                  ../../../stack/LwMesh/TDMA/services/sleep_mgr/sam4l/sleep_mgr.o
                                                  TC_lldn.o
osc_priv_enable_osc32                             ../../../platform/common/services/clock/sam4l/osc.o
                                                  ../../../platform/common/services/clock/sam4l/dfll.o
                                                  ../../../platform/common/services/clock/sam4l/sysclk.o
                                                  ../../../stack/LwMesh/TDMA/services/sleep_mgr/sam4l/sleep_mgr.o
                                                  TC_lldn.o
osc_priv_enable_rc1m                              ../../../platform/common/services/clock/sam4l/osc.o
                                                  ../../../platform/common/services/clock/sam4l/dfll.o
                                                  ../../../platform/common/services/clock/sam4l/sysclk.o
                                                  ../../../stack/LwMesh/TDMA/services/sleep_mgr/sam4l/sleep_mgr.o
                                                  TC_lldn.o
osc_priv_enable_rc32k                             ../../../platform/common/services/clock/sam4l/osc.o
                                                  ../../../platform/common/services/clock/sam4l/dfll.o
                                                  ../../../platform/common/services/clock/sam4l/sysclk.o
                                                  ../../../stack/LwMesh/TDMA/services/sleep_mgr/sam4l/sleep_mgr.o
                                                  TC_lldn.o
osc_priv_enable_rc80m                             ../../../platform/common/services/clock/sam4l/osc.o
                                                  ../../../platform/common/services/clock/sam4l/dfll.o
                                                  ../../../platform/common/services/clock/sam4l/sysclk.o
                                                  ../../../stack/LwMesh/TDMA/services/sleep_mgr/sam4l/sleep_mgr.o
                                                  TC_lldn.o
osc_priv_enable_rcfast                            ../../../platform/common/services/clock/sam4l/osc.o
                                                  ../../../platform/common/services/clock/sam4l/dfll.o
                                                  ../../../platform/common/services/clock/sam4l/sysclk.o
                                                  ../../../stack/LwMesh/TDMA/services/sleep_mgr/sam4l/sleep_mgr.o
                                                  TC_lldn.o
pll_config_write                                  ../../../platform/common/services/clock/sam4l/pll.o
pll_disable                                       ../../../platform/common/services/clock/sam4l/pll.o
pll_enable                                        ../../../platform/common/services/clock/sam4l/pll.o
                                                  ../../../platform/common/services/clock/sam4l/sysclk.o
                                                  TC_lldn.o
portable_delay_cycles                             ../../../platform/common/services/delay/sam/cycle_counter.o
                                                  ../../../stack/LwMesh/TDMA/services/trx_access/trx_access.o
                                                  ../../../stack/LwMesh/TDMA/services/sal/at86rf2xx/src/sal.o
                                                  ../../../stack/LwMesh/TDMA/phy/AT86RF233/src/phy.o
printf                                            c:/program files (x86)/atmel/studio/7.0/toolchain/arm/arm-gnu-toolchain/bin/../lib/gcc/arm-none-eabi/6.3.1/../../../../arm-none-eabi/lib/thumb/v7e-m\libg.a(lib_a-printf.o)
                                                  ../../../platform/sam/utils/syscalls/gcc/syscalls.o
                                                  TC_lldn.o
ptr_get                                           ../../../platform/common/utils/stdio/read.o
                                                  ../../../platform/common/utils/stdio/stdio_usb/stdio_usb.o
ptr_put                                           ../../../platform/common/utils/stdio/write.o
                                                  ../../../platform/common/utils/stdio/stdio_usb/stdio_usb.o
qmm_queue_append                                  ../../../platform/resources/queue/src/qmm.o
                                                  ../../../platform/resources/buffer/src/bmm.o
qmm_queue_flush                                   ../../../platform/resources/queue/src/qmm.o
qmm_queue_init                                    ../../../platform/resources/queue/src/qmm.o
                                                  ../../../platform/resources/buffer/src/bmm.o
qmm_queue_read                                    ../../../platform/resources/queue/src/qmm.o
qmm_queue_remove                                  ../../../platform/resources/queue/src/qmm.o
                                                  ../../../platform/resources/buffer/src/bmm.o
rand                                              c:/program files (x86)/atmel/studio/7.0/toolchain/arm/arm-gnu-toolchain/bin/../lib/gcc/arm-none-eabi/6.3.1/../../../../arm-none-eabi/lib/thumb/v7e-m\libg.a(lib_a-rand.o)
                                                  ../../../stack/LwMesh/TDMA/nwk/src/nwkTx.o
restore_cpu_interrupt                             ../../../stack/LwMesh/TDMA/services/common_hw_timer/sam/hw_timer.o
                                                  ../../../stack/LwMesh/TDMA/services/common_hw_timer/sam/lib\libsam4l_lib_hw_timer.a(common_hw_timer.o)
sal_aes_read                                      ../../../stack/LwMesh/TDMA/services/sal/at86rf2xx/src/sal.o
                                                  ../../../stack/LwMesh/TDMA/phy/AT86RF233/src/phy.o
sal_aes_restart                                   ../../../stack/LwMesh/TDMA/services/sal/at86rf2xx/src/sal.o
sal_aes_setup                                     ../../../stack/LwMesh/TDMA/services/sal/at86rf2xx/src/sal.o
                                                  ../../../stack/LwMesh/TDMA/phy/AT86RF233/src/phy.o
sal_aes_wrrd                                      ../../../stack/LwMesh/TDMA/services/sal/at86rf2xx/src/sal.o
                                                  ../../../stack/LwMesh/TDMA/phy/AT86RF233/src/phy.o
sal_init                                          ../../../stack/LwMesh/TDMA/services/sal/at86rf2xx/src/sal.o
                                                  ../../../stack/LwMesh/TDMA/sys/src/sys.o
save_cpu_interrupt                                ../../../stack/LwMesh/TDMA/services/common_hw_timer/sam/hw_timer.o
                                                  ../../../stack/LwMesh/TDMA/services/common_hw_timer/sam/lib\libsam4l_lib_hw_timer.a(common_hw_timer.o)
set_common_tc_expiry_callback                     ../../../stack/LwMesh/TDMA/services/common_hw_timer/sam/lib\libsam4l_lib_hw_timer.a(common_hw_timer.o)
                                                  ../../../stack/LwMesh/TDMA/sys/src/sysTimer.o
set_common_tc_overflow_callback                   ../../../stack/LwMesh/TDMA/services/common_hw_timer/sam/lib\libsam4l_lib_hw_timer.a(common_hw_timer.o)
setbuf                                            c:/program files (x86)/atmel/studio/7.0/toolchain/arm/arm-gnu-toolchain/bin/../lib/gcc/arm-none-eabi/6.3.1/../../../../arm-none-eabi/lib/thumb/v7e-m\libg.a(lib_a-setbuf.o)
                                                  ../../../platform/common/utils/stdio/stdio_usb/stdio_usb.o
setlocale                                         c:/program files (x86)/atmel/studio/7.0/toolchain/arm/arm-gnu-toolchain/bin/../lib/gcc/arm-none-eabi/6.3.1/../../../../arm-none-eabi/lib/thumb/v7e-m\libg.a(lib_a-locale.o)
setvbuf                                           c:/program files (x86)/atmel/studio/7.0/toolchain/arm/arm-gnu-toolchain/bin/../lib/gcc/arm-none-eabi/6.3.1/../../../../arm-none-eabi/lib/thumb/v7e-m\libg.a(lib_a-setvbuf.o)
                                                  c:/program files (x86)/atmel/studio/7.0/toolchain/arm/arm-gnu-toolchain/bin/../lib/gcc/arm-none-eabi/6.3.1/../../../../arm-none-eabi/lib/thumb/v7e-m\libg.a(lib_a-setbuf.o)
sio2host_getchar                                  ../../../platform/thirdparty/wireless/addons/sio2host/usb/sio2host.o
sio2host_getchar_nowait                           ../../../platform/thirdparty/wireless/addons/sio2host/usb/sio2host.o
sio2host_init                                     ../../../platform/thirdparty/wireless/addons/sio2host/usb/sio2host.o
sio2host_putchar                                  ../../../platform/thirdparty/wireless/addons/sio2host/usb/sio2host.o
sio2host_rx                                       ../../../platform/thirdparty/wireless/addons/sio2host/usb/sio2host.o
sio2host_tx                                       ../../../platform/thirdparty/wireless/addons/sio2host/usb/sio2host.o
sleepmgr_locks                                    ../../../platform/common/services/sleepmgr/sam/sleepmgr.o
                                                  ../../../platform/sam/drivers/usbc/usbc_device.o
                                                  ../../../platform/sam/drivers/eic/eic.o
                                                  ../../../platform/sam/drivers/ast/ast.o
                                                  ../../../stack/LwMesh/TDMA/services/sleep_mgr/sam4l/sleep_mgr.o
sm_init                                           ../../../stack/LwMesh/TDMA/services/sleep_mgr/sam4l/sleep_mgr.o
                                                  TC_lldn.o
sm_sleep                                          ../../../stack/LwMesh/TDMA/services/sleep_mgr/sam4l/sleep_mgr.o
software_init_hook                                c:/program files (x86)/atmel/studio/7.0/toolchain/arm/arm-gnu-toolchain/bin/../lib/gcc/arm-none-eabi/6.3.1/../../../../arm-none-eabi/lib/thumb/v7e-m/crt0.o
spi_calc_baudrate_div                             ../../../platform/sam/drivers/spi/spi.o
                                                  ../../../platform/common/services/spi/sam_spi/spi_master.o
spi_configure_cs_behavior                         ../../../platform/sam/drivers/spi/spi.o
                                                  ../../../platform/common/services/spi/sam_spi/spi_master.o
spi_deselect_device                               ../../../platform/common/services/spi/sam_spi/spi_master.o
                                                  ../../../stack/LwMesh/TDMA/services/trx_access/trx_access.o
spi_disable_clock                                 ../../../platform/sam/drivers/spi/spi.o
spi_enable_clock                                  ../../../platform/sam/drivers/spi/spi.o
                                                  ../../../platform/common/services/spi/sam_spi/spi_master.o
spi_get_writeprotect_status                       ../../../platform/sam/drivers/spi/spi.o
spi_master_init                                   ../../../platform/common/services/spi/sam_spi/spi_master.o
                                                  ../../../stack/LwMesh/TDMA/services/trx_access/trx_access.o
spi_master_setup_device                           ../../../platform/common/services/spi/sam_spi/spi_master.o
                                                  ../../../stack/LwMesh/TDMA/services/trx_access/trx_access.o
spi_read                                          ../../../platform/sam/drivers/spi/spi.o
spi_read_packet                                   ../../../platform/common/services/spi/sam_spi/spi_master.o
                                                  ../../../stack/LwMesh/TDMA/services/trx_access/trx_access.o
spi_select_device                                 ../../../platform/common/services/spi/sam_spi/spi_master.o
                                                  ../../../stack/LwMesh/TDMA/services/trx_access/trx_access.o
spi_set_baudrate_div                              ../../../platform/sam/drivers/spi/spi.o
                                                  ../../../platform/common/services/spi/sam_spi/spi_master.o
spi_set_bits_per_transfer                         ../../../platform/sam/drivers/spi/spi.o
                                                  ../../../platform/common/services/spi/sam_spi/spi_master.o
spi_set_clock_phase                               ../../../platform/sam/drivers/spi/spi.o
                                                  ../../../platform/common/services/spi/sam_spi/spi_master.o
spi_set_clock_polarity                            ../../../platform/sam/drivers/spi/spi.o
                                                  ../../../platform/common/services/spi/sam_spi/spi_master.o
spi_set_delay_between_chip_select                 ../../../platform/sam/drivers/spi/spi.o
                                                  ../../../platform/common/services/spi/sam_spi/spi_master.o
spi_set_peripheral_chip_select_value              ../../../platform/sam/drivers/spi/spi.o
                                                  ../../../platform/common/services/spi/sam_spi/spi_master.o
spi_set_transfer_delay                            ../../../platform/sam/drivers/spi/spi.o
                                                  ../../../platform/common/services/spi/sam_spi/spi_master.o
spi_set_writeprotect                              ../../../platform/sam/drivers/spi/spi.o
spi_write                                         ../../../platform/sam/drivers/spi/spi.o
spi_write_packet                                  ../../../platform/common/services/spi/sam_spi/spi_master.o
                                                  ../../../stack/LwMesh/TDMA/services/trx_access/trx_access.o
srand                                             c:/program files (x86)/atmel/studio/7.0/toolchain/arm/arm-gnu-toolchain/bin/../lib/gcc/arm-none-eabi/6.3.1/../../../../arm-none-eabi/lib/thumb/v7e-m\libg.a(lib_a-rand.o)
stdio_base                                        ../../../platform/common/utils/stdio/write.o
                                                  ../../../platform/common/utils/stdio/stdio_usb/stdio_usb.o
                                                  ../../../platform/common/utils/stdio/read.o
stdio_usb_disable                                 ../../../platform/common/utils/stdio/stdio_usb/stdio_usb.o
                                                  ../../../platform/thirdparty/wireless/addons/sio2host/usb/sio2host.o
                                                  ../../../platform/common/services/usb/class/cdc/device/udi_cdc.o
stdio_usb_enable                                  ../../../platform/common/utils/stdio/stdio_usb/stdio_usb.o
                                                  ../../../platform/thirdparty/wireless/addons/sio2host/usb/sio2host.o
                                                  ../../../platform/common/services/usb/class/cdc/device/udi_cdc.o
stdio_usb_getchar                                 ../../../platform/common/utils/stdio/stdio_usb/stdio_usb.o
stdio_usb_init                                    ../../../platform/common/utils/stdio/stdio_usb/stdio_usb.o
                                                  ../../../platform/thirdparty/wireless/addons/sio2host/usb/sio2host.o
                                                  TC_lldn.o
stdio_usb_putchar                                 ../../../platform/common/utils/stdio/stdio_usb/stdio_usb.o
strcmp                                            c:/program files (x86)/atmel/studio/7.0/toolchain/arm/arm-gnu-toolchain/bin/../lib/gcc/arm-none-eabi/6.3.1/../../../../arm-none-eabi/lib/thumb/v7e-m\libg.a(lib_a-strcmp.o)
                                                  c:/program files (x86)/atmel/studio/7.0/toolchain/arm/arm-gnu-toolchain/bin/../lib/gcc/arm-none-eabi/6.3.1/../../../../arm-none-eabi/lib/thumb/v7e-m\libg.a(lib_a-locale.o)
strlen                                            c:/program files (x86)/atmel/studio/7.0/toolchain/arm/arm-gnu-toolchain/bin/../lib/gcc/arm-none-eabi/6.3.1/../../../../arm-none-eabi/lib/thumb/v7e-m\libg.a(lib_a-strlen.o)
                                                  c:/program files (x86)/atmel/studio/7.0/toolchain/arm/arm-gnu-toolchain/bin/../lib/gcc/arm-none-eabi/6.3.1/../../../../arm-none-eabi/lib/thumb/v7e-m\libg.a(lib_a-vfiprintf.o)
                                                  c:/program files (x86)/atmel/studio/7.0/toolchain/arm/arm-gnu-toolchain/bin/../lib/gcc/arm-none-eabi/6.3.1/../../../../arm-none-eabi/lib/thumb/v7e-m\libg.a(lib_a-vfprintf.o)
sysclk_disable_pba_module                         ../../../platform/common/services/clock/sam4l/sysclk.o
sysclk_disable_pbb_module                         ../../../platform/common/services/clock/sam4l/sysclk.o
sysclk_disable_peripheral_clock                   ../../../platform/common/services/clock/sam4l/sysclk.o
                                                  ../../../platform/sam/drivers/wdt/wdt_sam4l.o
                                                  ../../../platform/sam/drivers/spi/spi.o
                                                  ../../../platform/sam/drivers/eic/eic.o
                                                  ../../../platform/sam/drivers/flashcalw/flashcalw.o
                                                  ../../../platform/sam/drivers/ast/ast.o
sysclk_disable_usb                                ../../../platform/common/services/clock/sam4l/sysclk.o
                                                  ../../../platform/sam/drivers/usbc/usbc_device.o
sysclk_enable_pba_module                          ../../../platform/common/services/clock/sam4l/sysclk.o
sysclk_enable_pbb_module                          ../../../platform/common/services/clock/sam4l/sysclk.o
sysclk_enable_peripheral_clock                    ../../../platform/common/services/clock/sam4l/sysclk.o
                                                  ../../../board/WM400/src/board_init.o
                                                  ../../../platform/common/services/spi/sam_usart_spi/usart_spi.o
                                                  ../../../platform/sam/drivers/wdt/wdt_sam4l.o
                                                  ../../../platform/sam/drivers/spi/spi.o
                                                  ../../../platform/sam/drivers/eic/eic.o
                                                  ../../../platform/sam/drivers/flashcalw/flashcalw.o
                                                  ../../../platform/sam/drivers/ast/ast.o
                                                  ../../../stack/LwMesh/TDMA/services/common_hw_timer/sam/hw_timer.o
                                                  TC_lldn.o
sysclk_enable_usb                                 ../../../platform/common/services/clock/sam4l/sysclk.o
                                                  ../../../platform/sam/drivers/usbc/usbc_device.o
sysclk_get_peripheral_bus_hz                      ../../../platform/common/services/clock/sam4l/sysclk.o
                                                  ../../../stack/LwMesh/TDMA/services/common_hw_timer/sam/hw_timer.o
                                                  TC_lldn.o
sysclk_init                                       ../../../platform/common/services/clock/sam4l/sysclk.o
                                                  TC_lldn.o
sysclk_priv_disable_module                        ../../../platform/common/services/clock/sam4l/sysclk.o
sysclk_priv_enable_module                         ../../../platform/common/services/clock/sam4l/sysclk.o
sysclk_set_prescalers                             ../../../platform/common/services/clock/sam4l/sysclk.o
sysclk_set_source                                 ../../../platform/common/services/clock/sam4l/sysclk.o
tc_compare_stop                                   TC_lldn.o
tc_delay                                          TC_lldn.o
tc_disable_interrupt                              ../../../platform/sam/drivers/tc/tc.o
                                                  ../../../stack/LwMesh/TDMA/services/common_hw_timer/sam/hw_timer.o
                                                  TC_lldn.o
tc_enable_interrupt                               ../../../platform/sam/drivers/tc/tc.o
                                                  ../../../stack/LwMesh/TDMA/services/common_hw_timer/sam/hw_timer.o
                                                  TC_lldn.o
tc_find_mck_divisor                               ../../../platform/sam/drivers/tc/tc.o
tc_get_feature                                    ../../../platform/sam/drivers/tc/tc.o
tc_get_interrupt_mask                             ../../../platform/sam/drivers/tc/tc.o
                                                  ../../../stack/LwMesh/TDMA/services/common_hw_timer/sam/hw_timer.o
                                                  TC_lldn.o
tc_get_status                                     ../../../platform/sam/drivers/tc/tc.o
                                                  ../../../stack/LwMesh/TDMA/services/common_hw_timer/sam/hw_timer.o
                                                  TC_lldn.o
tc_get_version                                    ../../../platform/sam/drivers/tc/tc.o
tc_init                                           ../../../platform/sam/drivers/tc/tc.o
                                                  ../../../stack/LwMesh/TDMA/services/common_hw_timer/sam/hw_timer.o
                                                  TC_lldn.o
tc_init_2bit_gray                                 ../../../platform/sam/drivers/tc/tc.o
tc_read_cv                                        ../../../platform/sam/drivers/tc/tc.o
                                                  ../../../stack/LwMesh/TDMA/services/common_hw_timer/sam/hw_timer.o
tc_read_ra                                        ../../../platform/sam/drivers/tc/tc.o
tc_read_rb                                        ../../../platform/sam/drivers/tc/tc.o
tc_read_rc                                        ../../../platform/sam/drivers/tc/tc.o
tc_set_block_mode                                 ../../../platform/sam/drivers/tc/tc.o
tc_set_writeprotect                               ../../../platform/sam/drivers/tc/tc.o
tc_start                                          ../../../platform/sam/drivers/tc/tc.o
                                                  ../../../stack/LwMesh/TDMA/services/common_hw_timer/sam/hw_timer.o
                                                  TC_lldn.o
tc_stop                                           ../../../platform/sam/drivers/tc/tc.o
                                                  ../../../stack/LwMesh/TDMA/services/common_hw_timer/sam/hw_timer.o
                                                  TC_lldn.o
tc_sync_trigger                                   ../../../platform/sam/drivers/tc/tc.o
tc_write_ra                                       ../../../platform/sam/drivers/tc/tc.o
tc_write_rb                                       ../../../platform/sam/drivers/tc/tc.o
tc_write_rc                                       ../../../platform/sam/drivers/tc/tc.o
                                                  ../../../stack/LwMesh/TDMA/services/common_hw_timer/sam/hw_timer.o
                                                  TC_lldn.o
timer_enable_cc_interrupt                         TC_lldn.o
timer_init                                        TC_lldn.o
timer_multiplier                                  ../../../stack/LwMesh/TDMA/services/common_hw_timer/sam/lib\libsam4l_lib_hw_timer.a(common_hw_timer.o)
timer_stop                                        TC_lldn.o
tmr_callback                                      ../../../stack/LwMesh/TDMA/services/common_hw_timer/sam/hw_timer.o
                                                  TC_lldn.o
tmr_cca_callback                                  ../../../stack/LwMesh/TDMA/services/common_hw_timer/sam/lib\libsam4l_lib_hw_timer.a(common_hw_timer.o)
                                                  ../../../stack/LwMesh/TDMA/services/common_hw_timer/sam/hw_timer.o
tmr_disable_cc_interrupt                          ../../../stack/LwMesh/TDMA/services/common_hw_timer/sam/hw_timer.o
                                                  ../../../stack/LwMesh/TDMA/services/common_hw_timer/sam/lib\libsam4l_lib_hw_timer.a(common_hw_timer.o)
tmr_disable_ovf_interrupt                         ../../../stack/LwMesh/TDMA/services/common_hw_timer/sam/hw_timer.o
                                                  ../../../stack/LwMesh/TDMA/services/common_hw_timer/sam/lib\libsam4l_lib_hw_timer.a(common_hw_timer.o)
tmr_enable_cc_interrupt                           ../../../stack/LwMesh/TDMA/services/common_hw_timer/sam/hw_timer.o
                                                  ../../../stack/LwMesh/TDMA/services/common_hw_timer/sam/lib\libsam4l_lib_hw_timer.a(common_hw_timer.o)
tmr_init                                          ../../../stack/LwMesh/TDMA/services/common_hw_timer/sam/hw_timer.o
                                                  ../../../stack/LwMesh/TDMA/services/common_hw_timer/sam/lib\libsam4l_lib_hw_timer.a(common_hw_timer.o)
tmr_ovf_callback                                  ../../../stack/LwMesh/TDMA/services/common_hw_timer/sam/lib\libsam4l_lib_hw_timer.a(common_hw_timer.o)
                                                  ../../../stack/LwMesh/TDMA/services/common_hw_timer/sam/hw_timer.o
tmr_read_count                                    ../../../stack/LwMesh/TDMA/services/common_hw_timer/sam/hw_timer.o
                                                  ../../../stack/LwMesh/TDMA/services/common_hw_timer/sam/lib\libsam4l_lib_hw_timer.a(common_hw_timer.o)
tmr_stop                                          ../../../stack/LwMesh/TDMA/services/common_hw_timer/sam/hw_timer.o
                                                  ../../../stack/LwMesh/TDMA/services/common_hw_timer/sam/lib\libsam4l_lib_hw_timer.a(common_hw_timer.o)
tmr_write_cmpreg                                  ../../../stack/LwMesh/TDMA/services/common_hw_timer/sam/hw_timer.o
                                                  ../../../stack/LwMesh/TDMA/services/common_hw_timer/sam/lib\libsam4l_lib_hw_timer.a(common_hw_timer.o)
trx_aes_wrrd                                      ../../../stack/LwMesh/TDMA/services/trx_access/trx_access.o
                                                  ../../../stack/LwMesh/TDMA/services/sal/at86rf2xx/src/sal.o
trx_bit_read                                      ../../../stack/LwMesh/TDMA/services/trx_access/trx_access.o
trx_bit_write                                     ../../../stack/LwMesh/TDMA/services/trx_access/trx_access.o
trx_frame_read                                    ../../../stack/LwMesh/TDMA/services/trx_access/trx_access.o
                                                  ../../../stack/LwMesh/TDMA/phy/AT86RF233/src/phy.o
trx_frame_write                                   ../../../stack/LwMesh/TDMA/services/trx_access/trx_access.o
                                                  ../../../stack/LwMesh/TDMA/phy/AT86RF233/src/phy.o
trx_irq_init                                      ../../../stack/LwMesh/TDMA/services/trx_access/trx_access.o
trx_reg_read                                      ../../../stack/LwMesh/TDMA/services/trx_access/trx_access.o
                                                  ../../../stack/LwMesh/TDMA/phy/AT86RF233/src/phy.o
trx_reg_write                                     ../../../stack/LwMesh/TDMA/services/trx_access/trx_access.o
                                                  ../../../stack/LwMesh/TDMA/phy/AT86RF233/src/phy.o
trx_spi_init                                      ../../../stack/LwMesh/TDMA/services/trx_access/trx_access.o
                                                  ../../../stack/LwMesh/TDMA/phy/AT86RF233/src/phy.o
trx_sram_read                                     ../../../stack/LwMesh/TDMA/services/trx_access/trx_access.o
                                                  ../../../stack/LwMesh/TDMA/services/sal/at86rf2xx/src/sal.o
trx_sram_write                                    ../../../stack/LwMesh/TDMA/services/trx_access/trx_access.o
                                                  ../../../stack/LwMesh/TDMA/services/sal/at86rf2xx/src/sal.o
udc_config                                        ../../../platform/common/services/usb/class/cdc/device/udi_cdc_desc.o
                                                  ../../../platform/common/services/usb/udc/udc.o
udc_config_fs                                     ../../../platform/common/services/usb/class/cdc/device/udi_cdc_desc.o
udc_desc_fs                                       ../../../platform/common/services/usb/class/cdc/device/udi_cdc_desc.o
udc_device_desc                                   ../../../platform/common/services/usb/class/cdc/device/udi_cdc_desc.o
udc_get_interface_desc                            ../../../platform/common/services/usb/udc/udc.o
udc_process_setup                                 ../../../platform/common/services/usb/udc/udc.o
                                                  ../../../platform/sam/drivers/usbc/usbc_device.o
udc_reset                                         ../../../platform/common/services/usb/udc/udc.o
                                                  ../../../platform/sam/drivers/usbc/usbc_device.o
udc_sof_notify                                    ../../../platform/common/services/usb/udc/udc.o
                                                  ../../../platform/sam/drivers/usbc/usbc_device.o
udc_start                                         ../../../platform/common/services/usb/udc/udc.o
                                                  ../../../platform/common/utils/stdio/stdio_usb/stdio_usb.o
udc_stop                                          ../../../platform/common/services/usb/udc/udc.o
udd_attach                                        ../../../platform/sam/drivers/usbc/usbc_device.o
udd_ctrl_buffer                                   ../../../platform/sam/drivers/usbc/usbc_device.o
udd_detach                                        ../../../platform/sam/drivers/usbc/usbc_device.o
udd_disable                                       ../../../platform/sam/drivers/usbc/usbc_device.o
                                                  ../../../platform/common/services/usb/udc/udc.o
udd_enable                                        ../../../platform/sam/drivers/usbc/usbc_device.o
                                                  ../../../platform/common/services/usb/udc/udc.o
udd_ep_abort                                      ../../../platform/sam/drivers/usbc/usbc_device.o
                                                  ../../../platform/common/services/usb/udc/udc.o
udd_ep_alloc                                      ../../../platform/sam/drivers/usbc/usbc_device.o
                                                  ../../../platform/common/services/usb/udc/udc.o
udd_ep_clear_halt                                 ../../../platform/sam/drivers/usbc/usbc_device.o
                                                  ../../../platform/common/services/usb/udc/udc.o
udd_ep_free                                       ../../../platform/sam/drivers/usbc/usbc_device.o
                                                  ../../../platform/common/services/usb/udc/udc.o
udd_ep_is_halted                                  ../../../platform/sam/drivers/usbc/usbc_device.o
                                                  ../../../platform/common/services/usb/udc/udc.o
udd_ep_out_cache_buffer                           ../../../platform/sam/drivers/usbc/usbc_device.o
udd_ep_run                                        ../../../platform/sam/drivers/usbc/usbc_device.o
                                                  ../../../platform/common/services/usb/class/cdc/device/udi_cdc.o
udd_ep_set_halt                                   ../../../platform/sam/drivers/usbc/usbc_device.o
                                                  ../../../platform/common/services/usb/udc/udc.o
udd_ep_wait_stall_clear                           ../../../platform/sam/drivers/usbc/usbc_device.o
udd_g_ctrlreq                                     ../../../platform/sam/drivers/usbc/usbc_device.o
                                                  ../../../platform/common/services/usb/class/cdc/device/udi_cdc.o
                                                  ../../../platform/common/services/usb/udc/udc.o
udd_get_frame_number                              ../../../platform/sam/drivers/usbc/usbc_device.o
                                                  ../../../platform/common/services/usb/class/cdc/device/udi_cdc.o
udd_get_micro_frame_number                        ../../../platform/sam/drivers/usbc/usbc_device.o
                                                  ../../../platform/common/services/usb/class/cdc/device/udi_cdc.o
udd_getaddress                                    ../../../platform/sam/drivers/usbc/usbc_device.o
                                                  ../../../platform/common/services/usb/udc/udc.o
udd_include_vbus_monitoring                       ../../../platform/sam/drivers/usbc/usbc_device.o
udd_is_high_speed                                 ../../../platform/sam/drivers/usbc/usbc_device.o
                                                  ../../../platform/common/services/usb/class/cdc/device/udi_cdc.o
udd_send_remotewakeup                             ../../../platform/sam/drivers/usbc/usbc_device.o
udd_set_address                                   ../../../platform/sam/drivers/usbc/usbc_device.o
                                                  ../../../platform/common/services/usb/udc/udc.o
udd_set_setup_payload                             ../../../platform/sam/drivers/usbc/usbc_device.o
                                                  ../../../platform/common/services/usb/udc/udc.o
udi_api_cdc_comm                                  ../../../platform/common/services/usb/class/cdc/device/udi_cdc.o
                                                  ../../../platform/common/services/usb/class/cdc/device/udi_cdc_desc.o
udi_api_cdc_data                                  ../../../platform/common/services/usb/class/cdc/device/udi_cdc.o
                                                  ../../../platform/common/services/usb/class/cdc/device/udi_cdc_desc.o
udi_apis                                          ../../../platform/common/services/usb/class/cdc/device/udi_cdc_desc.o
udi_cdc_comm_disable                              ../../../platform/common/services/usb/class/cdc/device/udi_cdc.o
udi_cdc_comm_enable                               ../../../platform/common/services/usb/class/cdc/device/udi_cdc.o
udi_cdc_comm_setup                                ../../../platform/common/services/usb/class/cdc/device/udi_cdc.o
udi_cdc_ctrl_signal_dcd                           ../../../platform/common/services/usb/class/cdc/device/udi_cdc.o
udi_cdc_ctrl_signal_dsr                           ../../../platform/common/services/usb/class/cdc/device/udi_cdc.o
udi_cdc_data_disable                              ../../../platform/common/services/usb/class/cdc/device/udi_cdc.o
udi_cdc_data_enable                               ../../../platform/common/services/usb/class/cdc/device/udi_cdc.o
udi_cdc_data_setup                                ../../../platform/common/services/usb/class/cdc/device/udi_cdc.o
udi_cdc_data_sof_notify                           ../../../platform/common/services/usb/class/cdc/device/udi_cdc.o
udi_cdc_get_free_tx_buffer                        ../../../platform/common/services/usb/class/cdc/device/udi_cdc.o
udi_cdc_get_nb_received_data                      ../../../platform/common/services/usb/class/cdc/device/udi_cdc.o
udi_cdc_getc                                      ../../../platform/common/services/usb/class/cdc/device/udi_cdc.o
                                                  ../../../platform/thirdparty/wireless/addons/sio2host/usb/sio2host.o
                                                  ../../../platform/common/utils/stdio/stdio_usb/stdio_usb.o
udi_cdc_getsetting                                ../../../platform/common/services/usb/class/cdc/device/udi_cdc.o
udi_cdc_is_rx_ready                               ../../../platform/common/services/usb/class/cdc/device/udi_cdc.o
                                                  ../../../platform/thirdparty/wireless/addons/sio2host/usb/sio2host.o
udi_cdc_is_tx_ready                               ../../../platform/common/services/usb/class/cdc/device/udi_cdc.o
udi_cdc_multi_ctrl_signal_dcd                     ../../../platform/common/services/usb/class/cdc/device/udi_cdc.o
udi_cdc_multi_ctrl_signal_dsr                     ../../../platform/common/services/usb/class/cdc/device/udi_cdc.o
udi_cdc_multi_get_free_tx_buffer                  ../../../platform/common/services/usb/class/cdc/device/udi_cdc.o
udi_cdc_multi_get_nb_received_data                ../../../platform/common/services/usb/class/cdc/device/udi_cdc.o
udi_cdc_multi_getc                                ../../../platform/common/services/usb/class/cdc/device/udi_cdc.o
udi_cdc_multi_is_rx_ready                         ../../../platform/common/services/usb/class/cdc/device/udi_cdc.o
udi_cdc_multi_is_tx_ready                         ../../../platform/common/services/usb/class/cdc/device/udi_cdc.o
udi_cdc_multi_putc                                ../../../platform/common/services/usb/class/cdc/device/udi_cdc.o
udi_cdc_multi_read_buf                            ../../../platform/common/services/usb/class/cdc/device/udi_cdc.o
udi_cdc_multi_signal_framing_error                ../../../platform/common/services/usb/class/cdc/device/udi_cdc.o
udi_cdc_multi_signal_overrun                      ../../../platform/common/services/usb/class/cdc/device/udi_cdc.o
udi_cdc_multi_signal_parity_error                 ../../../platform/common/services/usb/class/cdc/device/udi_cdc.o
udi_cdc_multi_write_buf                           ../../../platform/common/services/usb/class/cdc/device/udi_cdc.o
udi_cdc_putc                                      ../../../platform/common/services/usb/class/cdc/device/udi_cdc.o
                                                  ../../../platform/common/utils/stdio/stdio_usb/stdio_usb.o
udi_cdc_read_buf                                  ../../../platform/common/services/usb/class/cdc/device/udi_cdc.o
udi_cdc_signal_framing_error                      ../../../platform/common/services/usb/class/cdc/device/udi_cdc.o
udi_cdc_signal_overrun                            ../../../platform/common/services/usb/class/cdc/device/udi_cdc.o
udi_cdc_signal_parity_error                       ../../../platform/common/services/usb/class/cdc/device/udi_cdc.o
udi_cdc_write_buf                                 ../../../platform/common/services/usb/class/cdc/device/udi_cdc.o
                                                  ../../../platform/thirdparty/wireless/addons/sio2host/usb/sio2host.o
usart_disable_interrupt                           ../../../platform/sam/drivers/usart/usart.o
usart_disable_rx                                  ../../../platform/sam/drivers/usart/usart.o
                                                  ../../../platform/common/services/spi/sam_usart_spi/usart_spi.o
usart_disable_tx                                  ../../../platform/sam/drivers/usart/usart.o
                                                  ../../../platform/common/services/spi/sam_usart_spi/usart_spi.o
usart_disable_writeprotect                        ../../../platform/sam/drivers/usart/usart.o
usart_drive_DTR_pin_high                          ../../../platform/sam/drivers/usart/usart.o
usart_drive_DTR_pin_low                           ../../../platform/sam/drivers/usart/usart.o
usart_drive_RTS_pin_high                          ../../../platform/sam/drivers/usart/usart.o
usart_drive_RTS_pin_low                           ../../../platform/sam/drivers/usart/usart.o
usart_enable_interrupt                            ../../../platform/sam/drivers/usart/usart.o
usart_enable_rx                                   ../../../platform/sam/drivers/usart/usart.o
                                                  ../../../platform/common/services/spi/sam_usart_spi/usart_spi.o
usart_enable_tx                                   ../../../platform/sam/drivers/usart/usart.o
                                                  ../../../platform/common/services/spi/sam_usart_spi/usart_spi.o
usart_enable_writeprotect                         ../../../platform/sam/drivers/usart/usart.o
usart_get_error_number                            ../../../platform/sam/drivers/usart/usart.o
usart_get_interrupt_mask                          ../../../platform/sam/drivers/usart/usart.o
usart_get_status                                  ../../../platform/sam/drivers/usart/usart.o
usart_get_version                                 ../../../platform/sam/drivers/usart/usart.o
usart_get_writeprotect_status                     ../../../platform/sam/drivers/usart/usart.o
usart_getchar                                     ../../../platform/sam/drivers/usart/usart.o
                                                  ../../../platform/common/services/spi/sam_usart_spi/usart_spi.o
usart_init_hw_handshaking                         ../../../platform/sam/drivers/usart/usart.o
usart_init_irda                                   ../../../platform/sam/drivers/usart/usart.o
usart_init_iso7816                                ../../../platform/sam/drivers/usart/usart.o
usart_init_lin_master                             ../../../platform/sam/drivers/usart/usart.o
usart_init_lin_slave                              ../../../platform/sam/drivers/usart/usart.o
usart_init_modem                                  ../../../platform/sam/drivers/usart/usart.o
usart_init_rs232                                  ../../../platform/sam/drivers/usart/usart.o
usart_init_rs485                                  ../../../platform/sam/drivers/usart/usart.o
usart_init_spi_master                             ../../../platform/sam/drivers/usart/usart.o
                                                  ../../../platform/common/services/spi/sam_usart_spi/usart_spi.o
usart_init_spi_slave                              ../../../platform/sam/drivers/usart/usart.o
usart_init_sync_master                            ../../../platform/sam/drivers/usart/usart.o
usart_init_sync_slave                             ../../../platform/sam/drivers/usart/usart.o
usart_is_rx_buf_end                               ../../../platform/sam/drivers/usart/usart.o
usart_is_rx_buf_full                              ../../../platform/sam/drivers/usart/usart.o
                                                  ../../../platform/common/services/spi/sam_usart_spi/usart_spi.o
usart_is_rx_ready                                 ../../../platform/sam/drivers/usart/usart.o
                                                  ../../../platform/common/services/spi/sam_usart_spi/usart_spi.o
usart_is_tx_buf_empty                             ../../../platform/sam/drivers/usart/usart.o
usart_is_tx_buf_end                               ../../../platform/sam/drivers/usart/usart.o
usart_is_tx_empty                                 ../../../platform/sam/drivers/usart/usart.o
                                                  ../../../platform/common/services/spi/sam_usart_spi/usart_spi.o
usart_is_tx_ready                                 ../../../platform/sam/drivers/usart/usart.o
                                                  ../../../platform/common/services/spi/sam_usart_spi/usart_spi.o
usart_lin_abort_tx                                ../../../platform/sam/drivers/usart/usart.o
usart_lin_disable_checksum                        ../../../platform/sam/drivers/usart/usart.o
usart_lin_disable_frame_slot                      ../../../platform/sam/drivers/usart/usart.o
usart_lin_disable_parity                          ../../../platform/sam/drivers/usart/usart.o
usart_lin_disable_pdc_mode                        ../../../platform/sam/drivers/usart/usart.o
usart_lin_enable_checksum                         ../../../platform/sam/drivers/usart/usart.o
usart_lin_enable_frame_slot                       ../../../platform/sam/drivers/usart/usart.o
usart_lin_enable_parity                           ../../../platform/sam/drivers/usart/usart.o
usart_lin_enable_pdc_mode                         ../../../platform/sam/drivers/usart/usart.o
usart_lin_get_data_length                         ../../../platform/sam/drivers/usart/usart.o
usart_lin_read_identifier                         ../../../platform/sam/drivers/usart/usart.o
usart_lin_send_wakeup_signal                      ../../../platform/sam/drivers/usart/usart.o
usart_lin_set_checksum_type                       ../../../platform/sam/drivers/usart/usart.o
usart_lin_set_data_len_mode                       ../../../platform/sam/drivers/usart/usart.o
usart_lin_set_node_action                         ../../../platform/sam/drivers/usart/usart.o
usart_lin_set_response_data_len                   ../../../platform/sam/drivers/usart/usart.o
usart_lin_set_tx_identifier                       ../../../platform/sam/drivers/usart/usart.o
usart_lin_set_wakeup_signal_type                  ../../../platform/sam/drivers/usart/usart.o
usart_man_disable_drift_compensation              ../../../platform/sam/drivers/usart/usart.o
usart_man_enable_drift_compensation               ../../../platform/sam/drivers/usart/usart.o
usart_man_set_rx_polarity                         ../../../platform/sam/drivers/usart/usart.o
usart_man_set_rx_pre_len                          ../../../platform/sam/drivers/usart/usart.o
usart_man_set_rx_pre_pattern                      ../../../platform/sam/drivers/usart/usart.o
usart_man_set_tx_polarity                         ../../../platform/sam/drivers/usart/usart.o
usart_man_set_tx_pre_len                          ../../../platform/sam/drivers/usart/usart.o
usart_man_set_tx_pre_pattern                      ../../../platform/sam/drivers/usart/usart.o
usart_putchar                                     ../../../platform/sam/drivers/usart/usart.o
                                                  ../../../platform/common/services/spi/sam_usart_spi/usart_spi.o
usart_read                                        ../../../platform/sam/drivers/usart/usart.o
                                                  ../../../platform/common/services/serial/usart_serial.o
usart_reset                                       ../../../platform/sam/drivers/usart/usart.o
usart_reset_iterations                            ../../../platform/sam/drivers/usart/usart.o
usart_reset_nack                                  ../../../platform/sam/drivers/usart/usart.o
usart_reset_rx                                    ../../../platform/sam/drivers/usart/usart.o
usart_reset_status                                ../../../platform/sam/drivers/usart/usart.o
usart_reset_tx                                    ../../../platform/sam/drivers/usart/usart.o
usart_restart_rx_timeout                          ../../../platform/sam/drivers/usart/usart.o
usart_send_address                                ../../../platform/sam/drivers/usart/usart.o
usart_serial_read_packet                          ../../../platform/common/services/serial/usart_serial.o
usart_serial_write_packet                         ../../../platform/common/services/serial/usart_serial.o
usart_set_rx_timeout                              ../../../platform/sam/drivers/usart/usart.o
usart_set_tx_timeguard                            ../../../platform/sam/drivers/usart/usart.o
usart_spi_deselect_device                         ../../../platform/common/services/spi/sam_usart_spi/usart_spi.o
usart_spi_disable                                 ../../../platform/common/services/spi/sam_usart_spi/usart_spi.o
usart_spi_enable                                  ../../../platform/common/services/spi/sam_usart_spi/usart_spi.o
usart_spi_force_chip_select                       ../../../platform/sam/drivers/usart/usart.o
                                                  ../../../platform/common/services/spi/sam_usart_spi/usart_spi.o
usart_spi_init                                    ../../../platform/common/services/spi/sam_usart_spi/usart_spi.o
usart_spi_is_rx_full                              ../../../platform/common/services/spi/sam_usart_spi/usart_spi.o
usart_spi_is_rx_ready                             ../../../platform/common/services/spi/sam_usart_spi/usart_spi.o
usart_spi_is_tx_empty                             ../../../platform/common/services/spi/sam_usart_spi/usart_spi.o
usart_spi_is_tx_ready                             ../../../platform/common/services/spi/sam_usart_spi/usart_spi.o
usart_spi_read_packet                             ../../../platform/common/services/spi/sam_usart_spi/usart_spi.o
usart_spi_read_single                             ../../../platform/common/services/spi/sam_usart_spi/usart_spi.o
usart_spi_release_chip_select                     ../../../platform/sam/drivers/usart/usart.o
                                                  ../../../platform/common/services/spi/sam_usart_spi/usart_spi.o
usart_spi_select_device                           ../../../platform/common/services/spi/sam_usart_spi/usart_spi.o
usart_spi_setup_device                            ../../../platform/common/services/spi/sam_usart_spi/usart_spi.o
usart_spi_write_packet                            ../../../platform/common/services/spi/sam_usart_spi/usart_spi.o
usart_spi_write_single                            ../../../platform/common/services/spi/sam_usart_spi/usart_spi.o
usart_start_rx_timeout                            ../../../platform/sam/drivers/usart/usart.o
usart_start_tx_break                              ../../../platform/sam/drivers/usart/usart.o
usart_stop_tx_break                               ../../../platform/sam/drivers/usart/usart.o
usart_write                                       ../../../platform/sam/drivers/usart/usart.o
                                                  ../../../platform/common/services/serial/usart_serial.o
usart_write_line                                  ../../../platform/sam/drivers/usart/usart.o
usb_rx_notify                                     ../../../platform/thirdparty/wireless/addons/sio2host/usb/sio2host.o
vfiprintf                                         c:/program files (x86)/atmel/studio/7.0/toolchain/arm/arm-gnu-toolchain/bin/../lib/gcc/arm-none-eabi/6.3.1/../../../../arm-none-eabi/lib/thumb/v7e-m\libg.a(lib_a-vfiprintf.o)
vfprintf                                          c:/program files (x86)/atmel/studio/7.0/toolchain/arm/arm-gnu-toolchain/bin/../lib/gcc/arm-none-eabi/6.3.1/../../../../arm-none-eabi/lib/thumb/v7e-m\libg.a(lib_a-vfprintf.o)
wcrtomb                                           c:/program files (x86)/atmel/studio/7.0/toolchain/arm/arm-gnu-toolchain/bin/../lib/gcc/arm-none-eabi/6.3.1/../../../../arm-none-eabi/lib/thumb/v7e-m\libg.a(lib_a-wcrtomb.o)
wdt_clear                                         ../../../platform/sam/drivers/wdt/wdt_sam4l.o
wdt_disable                                       ../../../platform/sam/drivers/wdt/wdt_sam4l.o
                                                  ../../../board/WM400/src/board_init.o
wdt_enable                                        ../../../platform/sam/drivers/wdt/wdt_sam4l.o
wdt_get_config_defaults                           ../../../platform/sam/drivers/wdt/wdt_sam4l.o
                                                  ../../../board/WM400/src/board_init.o
wdt_init                                          ../../../platform/sam/drivers/wdt/wdt_sam4l.o
                                                  ../../../board/WM400/src/board_init.o
wdt_reset_mcu                                     ../../../platform/sam/drivers/wdt/wdt_sam4l.o
