   1               		.file	"teste_envio.c"
   2               	__SP_H__ = 0x3e
   3               	__SP_L__ = 0x3d
   4               	__SREG__ = 0x3f
   5               	__RAMPZ__ = 0x3b
   6               	__tmp_reg__ = 0
   7               	__zero_reg__ = 1
   8               		.text
   9               	.Ltext0:
  10               		.cfi_sections	.debug_frame
  11               		.comm	n,1,1
  12               		.section	.bss.tTS,"aw",@nobits
  15               	tTS:
  16 0000 0000 0000 		.zero	4
  17               		.text
  19               	sysclk_get_main_hz:
  20               	.LFB67:
  21               		.file 1 "../../../platform/common/services/clock/mega/sysclk.h"
   1:../../../platform/common/services/clock/mega/sysclk.h **** /**
   2:../../../platform/common/services/clock/mega/sysclk.h ****  * \file
   3:../../../platform/common/services/clock/mega/sysclk.h ****  *
   4:../../../platform/common/services/clock/mega/sysclk.h ****  * \brief Chip-specific system clock management functions
   5:../../../platform/common/services/clock/mega/sysclk.h ****  *
   6:../../../platform/common/services/clock/mega/sysclk.h ****  * Copyright (c) 2012 Atmel Corporation. All rights reserved.
   7:../../../platform/common/services/clock/mega/sysclk.h ****  *
   8:../../../platform/common/services/clock/mega/sysclk.h ****  * \asf_license_start
   9:../../../platform/common/services/clock/mega/sysclk.h ****  *
  10:../../../platform/common/services/clock/mega/sysclk.h ****  * \page License
  11:../../../platform/common/services/clock/mega/sysclk.h ****  *
  12:../../../platform/common/services/clock/mega/sysclk.h ****  * Redistribution and use in source and binary forms, with or without
  13:../../../platform/common/services/clock/mega/sysclk.h ****  * modification, are permitted provided that the following conditions are met:
  14:../../../platform/common/services/clock/mega/sysclk.h ****  *
  15:../../../platform/common/services/clock/mega/sysclk.h ****  * 1. Redistributions of source code must retain the above copyright notice,
  16:../../../platform/common/services/clock/mega/sysclk.h ****  *    this list of conditions and the following disclaimer.
  17:../../../platform/common/services/clock/mega/sysclk.h ****  *
  18:../../../platform/common/services/clock/mega/sysclk.h ****  * 2. Redistributions in binary form must reproduce the above copyright notice,
  19:../../../platform/common/services/clock/mega/sysclk.h ****  *    this list of conditions and the following disclaimer in the documentation
  20:../../../platform/common/services/clock/mega/sysclk.h ****  *    and/or other materials provided with the distribution.
  21:../../../platform/common/services/clock/mega/sysclk.h ****  *
  22:../../../platform/common/services/clock/mega/sysclk.h ****  * 3. The name of Atmel may not be used to endorse or promote products derived
  23:../../../platform/common/services/clock/mega/sysclk.h ****  *    from this software without specific prior written permission.
  24:../../../platform/common/services/clock/mega/sysclk.h ****  *
  25:../../../platform/common/services/clock/mega/sysclk.h ****  * 4. This software may only be redistributed and used in connection with an
  26:../../../platform/common/services/clock/mega/sysclk.h ****  *    Atmel microcontroller product.
  27:../../../platform/common/services/clock/mega/sysclk.h ****  *
  28:../../../platform/common/services/clock/mega/sysclk.h ****  * THIS SOFTWARE IS PROVIDED BY ATMEL "AS IS" AND ANY EXPRESS OR IMPLIED
  29:../../../platform/common/services/clock/mega/sysclk.h ****  * WARRANTIES, INCLUDING, BUT NOT LIMITED TO, THE IMPLIED WARRANTIES OF
  30:../../../platform/common/services/clock/mega/sysclk.h ****  * MERCHANTABILITY, FITNESS FOR A PARTICULAR PURPOSE AND NON-INFRINGEMENT ARE
  31:../../../platform/common/services/clock/mega/sysclk.h ****  * EXPRESSLY AND SPECIFICALLY DISCLAIMED. IN NO EVENT SHALL ATMEL BE LIABLE FOR
  32:../../../platform/common/services/clock/mega/sysclk.h ****  * ANY DIRECT, INDIRECT, INCIDENTAL, SPECIAL, EXEMPLARY, OR CONSEQUENTIAL
  33:../../../platform/common/services/clock/mega/sysclk.h ****  * DAMAGES (INCLUDING, BUT NOT LIMITED TO, PROCUREMENT OF SUBSTITUTE GOODS
  34:../../../platform/common/services/clock/mega/sysclk.h ****  * OR SERVICES; LOSS OF USE, DATA, OR PROFITS; OR BUSINESS INTERRUPTION)
  35:../../../platform/common/services/clock/mega/sysclk.h ****  * HOWEVER CAUSED AND ON ANY THEORY OF LIABILITY, WHETHER IN CONTRACT,
  36:../../../platform/common/services/clock/mega/sysclk.h ****  * STRICT LIABILITY, OR TORT (INCLUDING NEGLIGENCE OR OTHERWISE) ARISING IN
  37:../../../platform/common/services/clock/mega/sysclk.h ****  * ANY WAY OUT OF THE USE OF THIS SOFTWARE, EVEN IF ADVISED OF THE
  38:../../../platform/common/services/clock/mega/sysclk.h ****  * POSSIBILITY OF SUCH DAMAGE.
  39:../../../platform/common/services/clock/mega/sysclk.h ****  *
  40:../../../platform/common/services/clock/mega/sysclk.h ****  * \asf_license_stop
  41:../../../platform/common/services/clock/mega/sysclk.h ****  *
  42:../../../platform/common/services/clock/mega/sysclk.h ****  */
  43:../../../platform/common/services/clock/mega/sysclk.h **** #ifndef MEGA_SYSCLK_H_INCLUDED
  44:../../../platform/common/services/clock/mega/sysclk.h **** #define MEGA_SYSCLK_H_INCLUDED
  45:../../../platform/common/services/clock/mega/sysclk.h **** 
  46:../../../platform/common/services/clock/mega/sysclk.h **** #include <board.h>
  47:../../../platform/common/services/clock/mega/sysclk.h **** #include <compiler.h>
  48:../../../platform/common/services/clock/mega/sysclk.h **** #include <parts.h>
  49:../../../platform/common/services/clock/mega/sysclk.h **** 
  50:../../../platform/common/services/clock/mega/sysclk.h **** /* Include clock configuration for the project. */
  51:../../../platform/common/services/clock/mega/sysclk.h **** #include <conf_clock.h>
  52:../../../platform/common/services/clock/mega/sysclk.h **** 
  53:../../../platform/common/services/clock/mega/sysclk.h **** #ifdef __cplusplus
  54:../../../platform/common/services/clock/mega/sysclk.h **** extern "C" {
  55:../../../platform/common/services/clock/mega/sysclk.h **** #endif
  56:../../../platform/common/services/clock/mega/sysclk.h **** #define ASM __asm__
  57:../../../platform/common/services/clock/mega/sysclk.h **** 
  58:../../../platform/common/services/clock/mega/sysclk.h **** /* CONFIG_SYSCLK_PSDIV  to use default if not defined*/
  59:../../../platform/common/services/clock/mega/sysclk.h **** #ifndef CONFIG_SYSCLK_PSDIV
  60:../../../platform/common/services/clock/mega/sysclk.h **** # define CONFIG_SYSCLK_PSDIV    SYSCLK_PSDIV_8
  61:../../../platform/common/services/clock/mega/sysclk.h **** #endif
  62:../../../platform/common/services/clock/mega/sysclk.h **** 
  63:../../../platform/common/services/clock/mega/sysclk.h **** /* ! \name Prescaler Setting (relative to CLKsys) */
  64:../../../platform/common/services/clock/mega/sysclk.h **** /* @{ */
  65:../../../platform/common/services/clock/mega/sysclk.h **** #define SYSCLK_PSDIV_1      0   /* !< Do not prescale */
  66:../../../platform/common/services/clock/mega/sysclk.h **** #define SYSCLK_PSDIV_2      1   /* !< Prescale CLKper4 by 2 */
  67:../../../platform/common/services/clock/mega/sysclk.h **** #define SYSCLK_PSDIV_4      2   /* !< Prescale CLKper4 by 4 */
  68:../../../platform/common/services/clock/mega/sysclk.h **** #define SYSCLK_PSDIV_8      3   /* !< Prescale CLKper4 by 8 */
  69:../../../platform/common/services/clock/mega/sysclk.h **** #define SYSCLK_PSDIV_16     4   /* !< Prescale CLKper4 by 16 */
  70:../../../platform/common/services/clock/mega/sysclk.h **** #define SYSCLK_PSDIV_32     5   /* !< Prescale CLKper4 by 32 */
  71:../../../platform/common/services/clock/mega/sysclk.h **** #define SYSCLK_PSDIV_64     6   /* !< Prescale CLKper4 by 64 */
  72:../../../platform/common/services/clock/mega/sysclk.h **** #define SYSCLK_PSDIV_128    7   /* !< Prescale CLKper4 by 128 */
  73:../../../platform/common/services/clock/mega/sysclk.h **** #define SYSCLK_PSDIV_256    8   /* !< Prescale CLKper4 by 256 */
  74:../../../platform/common/services/clock/mega/sysclk.h **** 
  75:../../../platform/common/services/clock/mega/sysclk.h **** /* @} */
  76:../../../platform/common/services/clock/mega/sysclk.h **** 
  77:../../../platform/common/services/clock/mega/sysclk.h **** #if MEGA_RF || MEGA_XX0_1 || MEGA_XX4 || MEGA_XX4_A
  78:../../../platform/common/services/clock/mega/sysclk.h **** 
  79:../../../platform/common/services/clock/mega/sysclk.h **** #define NUMBER_OF_POWER_REG       2
  80:../../../platform/common/services/clock/mega/sysclk.h **** /*Starting Address for power reduction*/
  81:../../../platform/common/services/clock/mega/sysclk.h **** #define POWER_REG_ADD             PRR0
  82:../../../platform/common/services/clock/mega/sysclk.h **** 
  83:../../../platform/common/services/clock/mega/sysclk.h **** /* ! \name Power Reduction  Clock Port Numbers */
  84:../../../platform/common/services/clock/mega/sysclk.h **** enum power_red_id {
  85:../../../platform/common/services/clock/mega/sysclk.h **** 	POWER_RED_REG0,     /* !< Devices on PRR0 */
  86:../../../platform/common/services/clock/mega/sysclk.h **** #if !MEGA_XX4 || !MEGA_XX4_A || MEGA_XX0_1
  87:../../../platform/common/services/clock/mega/sysclk.h **** 	POWER_RED_REG1,     /* !< Devices on PRR1 */
  88:../../../platform/common/services/clock/mega/sysclk.h **** #endif
  89:../../../platform/common/services/clock/mega/sysclk.h **** };
  90:../../../platform/common/services/clock/mega/sysclk.h **** #endif
  91:../../../platform/common/services/clock/mega/sysclk.h **** 
  92:../../../platform/common/services/clock/mega/sysclk.h **** /****************************************************
  93:../../../platform/common/services/clock/mega/sysclk.h ****  * Given a dummy type but not used for these groups
  94:../../../platform/common/services/clock/mega/sysclk.h ****  * to support for otherthen megaRF device.
  95:../../../platform/common/services/clock/mega/sysclk.h ****  **************************************************/
  96:../../../platform/common/services/clock/mega/sysclk.h **** #if MEGA_XX8 || MEGA_XX8_A || MEGA_UNSPECIFIED
  97:../../../platform/common/services/clock/mega/sysclk.h **** #define NUMBER_OF_POWER_REG       1
  98:../../../platform/common/services/clock/mega/sysclk.h **** /*Starting Address for power reduction*/
  99:../../../platform/common/services/clock/mega/sysclk.h **** #define POWER_REG_ADD             PRR
 100:../../../platform/common/services/clock/mega/sysclk.h **** 
 101:../../../platform/common/services/clock/mega/sysclk.h **** /* ! \name Power Reduction  Clock Port Numbers */
 102:../../../platform/common/services/clock/mega/sysclk.h **** enum power_red_id {
 103:../../../platform/common/services/clock/mega/sysclk.h **** 	POWER_RED_REG0,     /* !< Devices on PRR */
 104:../../../platform/common/services/clock/mega/sysclk.h **** };
 105:../../../platform/common/services/clock/mega/sysclk.h **** #endif
 106:../../../platform/common/services/clock/mega/sysclk.h **** 
 107:../../../platform/common/services/clock/mega/sysclk.h **** /* Bit mask for the power reduction register based on */
 108:../../../platform/common/services/clock/mega/sysclk.h **** /*   MCU ARCH.                                        */
 109:../../../platform/common/services/clock/mega/sysclk.h **** #if MEGA_RF
 110:../../../platform/common/services/clock/mega/sysclk.h **** /*Bit mask for PRR2 */
 111:../../../platform/common/services/clock/mega/sysclk.h **** 
 112:../../../platform/common/services/clock/mega/sysclk.h **** #define PRRAM0_bm                       1 << PRRAM0
 113:../../../platform/common/services/clock/mega/sysclk.h **** #define PRRAM1_bm                       1 << PRRAM1
 114:../../../platform/common/services/clock/mega/sysclk.h **** #define PRRAM2_bm                       1 << PRRAM2
 115:../../../platform/common/services/clock/mega/sysclk.h **** #define PRRAM3_bm                       1 << PRRAM3
 116:../../../platform/common/services/clock/mega/sysclk.h **** #endif
 117:../../../platform/common/services/clock/mega/sysclk.h **** 
 118:../../../platform/common/services/clock/mega/sysclk.h **** /*Bit mask for the power reduction 0 or PRR*/
 119:../../../platform/common/services/clock/mega/sysclk.h **** #if !MEGA_XX_UN0 && !MEGA_XX_UN0
 120:../../../platform/common/services/clock/mega/sysclk.h **** #define PRADC_bm                        1 << PRADC
 121:../../../platform/common/services/clock/mega/sysclk.h **** #define PRUSART0_bm                     1 << PRUSART0
 122:../../../platform/common/services/clock/mega/sysclk.h **** #define PRSPI_bm                        1 << PRSPI
 123:../../../platform/common/services/clock/mega/sysclk.h **** #define PRTIM1_bm                       1 << PRTIM1
 124:../../../platform/common/services/clock/mega/sysclk.h **** #endif
 125:../../../platform/common/services/clock/mega/sysclk.h **** 
 126:../../../platform/common/services/clock/mega/sysclk.h **** #if MEGA_RF
 127:../../../platform/common/services/clock/mega/sysclk.h **** #define PRPGA_bm                        1 << PRPGA
 128:../../../platform/common/services/clock/mega/sysclk.h **** #endif
 129:../../../platform/common/services/clock/mega/sysclk.h **** 
 130:../../../platform/common/services/clock/mega/sysclk.h **** #if !MEGA_UNSPECIFIED
 131:../../../platform/common/services/clock/mega/sysclk.h **** #define PRTIM0_bm                       1 << PRTIM0
 132:../../../platform/common/services/clock/mega/sysclk.h **** #define PRTIM2_bm                       1 << PRTIM2
 133:../../../platform/common/services/clock/mega/sysclk.h **** #define PRTWI_bm                        1 << PRTWI
 134:../../../platform/common/services/clock/mega/sysclk.h **** #endif
 135:../../../platform/common/services/clock/mega/sysclk.h **** 
 136:../../../platform/common/services/clock/mega/sysclk.h **** #if MEGA_XX_UN2
 137:../../../platform/common/services/clock/mega/sysclk.h **** #define PRLCD_bm                        1 << PRLCD
 138:../../../platform/common/services/clock/mega/sysclk.h **** #endif
 139:../../../platform/common/services/clock/mega/sysclk.h **** 
 140:../../../platform/common/services/clock/mega/sysclk.h **** /*Bit mask for  PRR1  */
 141:../../../platform/common/services/clock/mega/sysclk.h **** #ifdef PRR1
 142:../../../platform/common/services/clock/mega/sysclk.h **** #if (MEGA_XX4 || MEGA_XX4_A)
 143:../../../platform/common/services/clock/mega/sysclk.h **** #define PRTIM3_bm                       1 << PRTIM3
 144:../../../platform/common/services/clock/mega/sysclk.h **** #endif
 145:../../../platform/common/services/clock/mega/sysclk.h **** #endif
 146:../../../platform/common/services/clock/mega/sysclk.h **** 
 147:../../../platform/common/services/clock/mega/sysclk.h **** #if MEGA_RF || MEGA_XX4 || MEGA_XX4_A
 148:../../../platform/common/services/clock/mega/sysclk.h **** #define PRUSART1_bm                     1 << PRUSART1
 149:../../../platform/common/services/clock/mega/sysclk.h **** #define PRUSART2_bm                     1 << PRUSART2
 150:../../../platform/common/services/clock/mega/sysclk.h **** #define PRUSART3_bm                     1 << PRUSART3
 151:../../../platform/common/services/clock/mega/sysclk.h **** #define PRTIM3_bm                       1 << PRTIM3
 152:../../../platform/common/services/clock/mega/sysclk.h **** #define PRTIM4_bm                       1 << PRTIM4
 153:../../../platform/common/services/clock/mega/sysclk.h **** #define PRTIM5_bm                       1 << PRTIM5
 154:../../../platform/common/services/clock/mega/sysclk.h **** #endif
 155:../../../platform/common/services/clock/mega/sysclk.h **** 
 156:../../../platform/common/services/clock/mega/sysclk.h **** #if MEGA_RF
 157:../../../platform/common/services/clock/mega/sysclk.h **** #define PRTRX24_bm                      1 << PRTRX24
 158:../../../platform/common/services/clock/mega/sysclk.h **** #endif
 159:../../../platform/common/services/clock/mega/sysclk.h **** 
 160:../../../platform/common/services/clock/mega/sysclk.h **** /**
 161:../../../platform/common/services/clock/mega/sysclk.h ****  * \name Querying the system clock and its derived clocks
 162:../../../platform/common/services/clock/mega/sysclk.h ****  */
 163:../../../platform/common/services/clock/mega/sysclk.h **** /* @{ */
 164:../../../platform/common/services/clock/mega/sysclk.h **** 
 165:../../../platform/common/services/clock/mega/sysclk.h **** /**
 166:../../../platform/common/services/clock/mega/sysclk.h ****  * \brief Return the current rate in Hz of the main system clock
 167:../../../platform/common/services/clock/mega/sysclk.h ****  * To know the clock value at what frequency the main clock is running
 168:../../../platform/common/services/clock/mega/sysclk.h ****  * \return Frequency of the main system clock, in Hz.
 169:../../../platform/common/services/clock/mega/sysclk.h ****  * \todo : please initialize the SYSCLK_SOURCE in conf_clock.h file for
 170:../../../platform/common/services/clock/mega/sysclk.h ****  * configured source clock using fuses.
 171:../../../platform/common/services/clock/mega/sysclk.h ****  * \eg. #define SYSCLK_SOURCE SYSCLK_SRC_RC16MHZ to use internal RC
 172:../../../platform/common/services/clock/mega/sysclk.h ****  * oscillator for clock source.
 173:../../../platform/common/services/clock/mega/sysclk.h ****  */
 174:../../../platform/common/services/clock/mega/sysclk.h **** static inline uint32_t sysclk_get_main_hz(void)
 175:../../../platform/common/services/clock/mega/sysclk.h **** {
  22               		.loc 1 175 0
  23               		.cfi_startproc
  24 0000 CF93      		push r28
  25               	.LCFI0:
  26               		.cfi_def_cfa_offset 3
  27               		.cfi_offset 28, -2
  28 0002 DF93      		push r29
  29               	.LCFI1:
  30               		.cfi_def_cfa_offset 4
  31               		.cfi_offset 29, -3
  32 0004 CDB7      		in r28,__SP_L__
  33 0006 DEB7      		in r29,__SP_H__
  34               	.LCFI2:
  35               		.cfi_def_cfa_register 28
  36               	/* prologue: function */
  37               	/* frame size = 0 */
  38               	/* stack size = 2 */
  39               	.L__stack_usage = 2
 176:../../../platform/common/services/clock/mega/sysclk.h **** 	switch (SYSCLK_SOURCE) {
 177:../../../platform/common/services/clock/mega/sysclk.h **** 	case SYSCLK_SRC_RC16MHZ:
 178:../../../platform/common/services/clock/mega/sysclk.h **** 		return 16000000UL;
 179:../../../platform/common/services/clock/mega/sysclk.h **** 
 180:../../../platform/common/services/clock/mega/sysclk.h **** 	case SYSCLK_SRC_RC128KHZ:
 181:../../../platform/common/services/clock/mega/sysclk.h **** 		return 128000UL;
 182:../../../platform/common/services/clock/mega/sysclk.h **** 
 183:../../../platform/common/services/clock/mega/sysclk.h **** #if MEGA_RF
 184:../../../platform/common/services/clock/mega/sysclk.h **** 	case SYSCLK_SRC_TRS16MHZ:
 185:../../../platform/common/services/clock/mega/sysclk.h **** 		return 16000000UL;
  40               		.loc 1 185 0
  41 0008 80E0      		ldi r24,0
  42 000a 94E2      		ldi r25,lo8(36)
  43 000c A4EF      		ldi r26,lo8(-12)
  44 000e B0E0      		ldi r27,0
 186:../../../platform/common/services/clock/mega/sysclk.h **** #endif
 187:../../../platform/common/services/clock/mega/sysclk.h **** #ifdef BOARD_EXTERNAL_CLK
 188:../../../platform/common/services/clock/mega/sysclk.h **** 	case SYSCLK_SRC_EXTERNAL:
 189:../../../platform/common/services/clock/mega/sysclk.h **** 		return BOARD_EXTERNAL_CLK;
 190:../../../platform/common/services/clock/mega/sysclk.h **** #endif
 191:../../../platform/common/services/clock/mega/sysclk.h **** 	default:
 192:../../../platform/common/services/clock/mega/sysclk.h **** 
 193:../../../platform/common/services/clock/mega/sysclk.h **** 		return 1000000UL;
 194:../../../platform/common/services/clock/mega/sysclk.h **** 	}
 195:../../../platform/common/services/clock/mega/sysclk.h **** }
  45               		.loc 1 195 0
  46 0010 BC01      		movw r22,r24
  47 0012 CD01      		movw r24,r26
  48               	/* epilogue start */
  49 0014 DF91      		pop r29
  50 0016 CF91      		pop r28
  51 0018 0895      		ret
  52               		.cfi_endproc
  53               	.LFE67:
  56               	sysclk_get_source_clock_hz:
  57               	.LFB68:
 196:../../../platform/common/services/clock/mega/sysclk.h **** 
 197:../../../platform/common/services/clock/mega/sysclk.h **** /**
 198:../../../platform/common/services/clock/mega/sysclk.h ****  * \brief Return the current rate in Hz of source clock in Hz.
 199:../../../platform/common/services/clock/mega/sysclk.h ****  *
 200:../../../platform/common/services/clock/mega/sysclk.h ****  * This clock always runs at the same rate as the CPU clock unless the divider
 201:../../../platform/common/services/clock/mega/sysclk.h ****  * is set.
 202:../../../platform/common/services/clock/mega/sysclk.h ****  *
 203:../../../platform/common/services/clock/mega/sysclk.h ****  * \return Frequency of the system clock, in Hz.
 204:../../../platform/common/services/clock/mega/sysclk.h ****  */
 205:../../../platform/common/services/clock/mega/sysclk.h **** static inline uint32_t sysclk_get_source_clock_hz(void)
 206:../../../platform/common/services/clock/mega/sysclk.h **** {
  58               		.loc 1 206 0
  59               		.cfi_startproc
  60 001a CF93      		push r28
  61               	.LCFI3:
  62               		.cfi_def_cfa_offset 3
  63               		.cfi_offset 28, -2
  64 001c DF93      		push r29
  65               	.LCFI4:
  66               		.cfi_def_cfa_offset 4
  67               		.cfi_offset 29, -3
  68 001e CDB7      		in r28,__SP_L__
  69 0020 DEB7      		in r29,__SP_H__
  70               	.LCFI5:
  71               		.cfi_def_cfa_register 28
  72               	/* prologue: function */
  73               	/* frame size = 0 */
  74               	/* stack size = 2 */
  75               	.L__stack_usage = 2
 207:../../../platform/common/services/clock/mega/sysclk.h **** 	switch (CONFIG_SYSCLK_PSDIV) {
 208:../../../platform/common/services/clock/mega/sysclk.h **** 	case SYSCLK_PSDIV_1: /* Fall through */
 209:../../../platform/common/services/clock/mega/sysclk.h **** 		if (SYSCLK_SOURCE == SYSCLK_SRC_RC16MHZ ||
 210:../../../platform/common/services/clock/mega/sysclk.h **** 				SYSCLK_SOURCE == SYSCLK_SRC_RC128KHZ) {
 211:../../../platform/common/services/clock/mega/sysclk.h **** 			return sysclk_get_main_hz() / 2;
 212:../../../platform/common/services/clock/mega/sysclk.h **** 		} else {
 213:../../../platform/common/services/clock/mega/sysclk.h **** 			return sysclk_get_main_hz();
  76               		.loc 1 213 0
  77 0022 0E94 0000 		call sysclk_get_main_hz
  78 0026 DC01      		movw r26,r24
  79 0028 CB01      		movw r24,r22
 214:../../../platform/common/services/clock/mega/sysclk.h **** 		}
 215:../../../platform/common/services/clock/mega/sysclk.h **** 
 216:../../../platform/common/services/clock/mega/sysclk.h **** 	case SYSCLK_PSDIV_2:
 217:../../../platform/common/services/clock/mega/sysclk.h **** 		if (SYSCLK_SOURCE == SYSCLK_SRC_RC16MHZ ||
 218:../../../platform/common/services/clock/mega/sysclk.h **** 				SYSCLK_SOURCE == SYSCLK_SRC_RC128KHZ) {
 219:../../../platform/common/services/clock/mega/sysclk.h **** 			return sysclk_get_main_hz() / 4;
 220:../../../platform/common/services/clock/mega/sysclk.h **** 		} else {
 221:../../../platform/common/services/clock/mega/sysclk.h **** 			return sysclk_get_main_hz() / 2;
 222:../../../platform/common/services/clock/mega/sysclk.h **** 		}
 223:../../../platform/common/services/clock/mega/sysclk.h **** 
 224:../../../platform/common/services/clock/mega/sysclk.h **** 	case SYSCLK_PSDIV_4:
 225:../../../platform/common/services/clock/mega/sysclk.h **** 		if (SYSCLK_SOURCE == SYSCLK_SRC_RC16MHZ ||
 226:../../../platform/common/services/clock/mega/sysclk.h **** 				SYSCLK_SOURCE == SYSCLK_SRC_RC128KHZ) {
 227:../../../platform/common/services/clock/mega/sysclk.h **** 			return sysclk_get_main_hz() / 8;
 228:../../../platform/common/services/clock/mega/sysclk.h **** 		} else {
 229:../../../platform/common/services/clock/mega/sysclk.h **** 			return sysclk_get_main_hz() / 4;
 230:../../../platform/common/services/clock/mega/sysclk.h **** 		}
 231:../../../platform/common/services/clock/mega/sysclk.h **** 
 232:../../../platform/common/services/clock/mega/sysclk.h **** 	case SYSCLK_PSDIV_8:
 233:../../../platform/common/services/clock/mega/sysclk.h **** 		if (SYSCLK_SOURCE == SYSCLK_SRC_RC16MHZ ||
 234:../../../platform/common/services/clock/mega/sysclk.h **** 				SYSCLK_SOURCE == SYSCLK_SRC_RC128KHZ) {
 235:../../../platform/common/services/clock/mega/sysclk.h **** 			return sysclk_get_main_hz() / 16;
 236:../../../platform/common/services/clock/mega/sysclk.h **** 		} else {
 237:../../../platform/common/services/clock/mega/sysclk.h **** 			return sysclk_get_main_hz() / 8;
 238:../../../platform/common/services/clock/mega/sysclk.h **** 		}
 239:../../../platform/common/services/clock/mega/sysclk.h **** 
 240:../../../platform/common/services/clock/mega/sysclk.h **** 	case SYSCLK_PSDIV_16:
 241:../../../platform/common/services/clock/mega/sysclk.h **** 		if (SYSCLK_SOURCE == SYSCLK_SRC_RC16MHZ ||
 242:../../../platform/common/services/clock/mega/sysclk.h **** 				SYSCLK_SOURCE == SYSCLK_SRC_RC128KHZ) {
 243:../../../platform/common/services/clock/mega/sysclk.h **** 			return sysclk_get_main_hz() / 32;
 244:../../../platform/common/services/clock/mega/sysclk.h **** 		} else {
 245:../../../platform/common/services/clock/mega/sysclk.h **** 			return sysclk_get_main_hz() / 16;
 246:../../../platform/common/services/clock/mega/sysclk.h **** 		}
 247:../../../platform/common/services/clock/mega/sysclk.h **** 
 248:../../../platform/common/services/clock/mega/sysclk.h **** 	case SYSCLK_PSDIV_32:
 249:../../../platform/common/services/clock/mega/sysclk.h **** 		if (SYSCLK_SOURCE == SYSCLK_SRC_RC16MHZ ||
 250:../../../platform/common/services/clock/mega/sysclk.h **** 				SYSCLK_SOURCE == SYSCLK_SRC_RC128KHZ) {
 251:../../../platform/common/services/clock/mega/sysclk.h **** 			return sysclk_get_main_hz() / 64;
 252:../../../platform/common/services/clock/mega/sysclk.h **** 		} else {
 253:../../../platform/common/services/clock/mega/sysclk.h **** 			return sysclk_get_main_hz() / 32;
 254:../../../platform/common/services/clock/mega/sysclk.h **** 		}
 255:../../../platform/common/services/clock/mega/sysclk.h **** 
 256:../../../platform/common/services/clock/mega/sysclk.h **** 	case SYSCLK_PSDIV_64:
 257:../../../platform/common/services/clock/mega/sysclk.h **** 		if (SYSCLK_SOURCE == SYSCLK_SRC_RC16MHZ ||
 258:../../../platform/common/services/clock/mega/sysclk.h **** 				SYSCLK_SOURCE == SYSCLK_SRC_RC128KHZ) {
 259:../../../platform/common/services/clock/mega/sysclk.h **** 			return sysclk_get_main_hz() / 128;
 260:../../../platform/common/services/clock/mega/sysclk.h **** 		} else {
 261:../../../platform/common/services/clock/mega/sysclk.h **** 			return sysclk_get_main_hz() / 64;
 262:../../../platform/common/services/clock/mega/sysclk.h **** 		}
 263:../../../platform/common/services/clock/mega/sysclk.h **** 
 264:../../../platform/common/services/clock/mega/sysclk.h **** 	case SYSCLK_PSDIV_128:
 265:../../../platform/common/services/clock/mega/sysclk.h **** 		if (SYSCLK_SOURCE == SYSCLK_SRC_RC16MHZ ||
 266:../../../platform/common/services/clock/mega/sysclk.h **** 				SYSCLK_SOURCE == SYSCLK_SRC_RC128KHZ) {
 267:../../../platform/common/services/clock/mega/sysclk.h **** 			return sysclk_get_main_hz() / 256;
 268:../../../platform/common/services/clock/mega/sysclk.h **** 		} else {
 269:../../../platform/common/services/clock/mega/sysclk.h **** 			return sysclk_get_main_hz() / 128;
 270:../../../platform/common/services/clock/mega/sysclk.h **** 		}
 271:../../../platform/common/services/clock/mega/sysclk.h **** 
 272:../../../platform/common/services/clock/mega/sysclk.h **** 	case SYSCLK_PSDIV_256:
 273:../../../platform/common/services/clock/mega/sysclk.h **** 		if (SYSCLK_SOURCE == SYSCLK_SRC_RC16MHZ ||
 274:../../../platform/common/services/clock/mega/sysclk.h **** 				SYSCLK_SOURCE == SYSCLK_SRC_RC128KHZ) {
 275:../../../platform/common/services/clock/mega/sysclk.h **** 			return sysclk_get_main_hz() / 512;
 276:../../../platform/common/services/clock/mega/sysclk.h **** 		} else {
 277:../../../platform/common/services/clock/mega/sysclk.h **** 			return sysclk_get_main_hz() / 256;
 278:../../../platform/common/services/clock/mega/sysclk.h **** 		}
 279:../../../platform/common/services/clock/mega/sysclk.h **** 
 280:../../../platform/common/services/clock/mega/sysclk.h **** 	default:
 281:../../../platform/common/services/clock/mega/sysclk.h **** 		/*Invalide case*/
 282:../../../platform/common/services/clock/mega/sysclk.h **** 		return 0;
 283:../../../platform/common/services/clock/mega/sysclk.h **** 	}
 284:../../../platform/common/services/clock/mega/sysclk.h **** }
  80               		.loc 1 284 0
  81 002a BC01      		movw r22,r24
  82 002c CD01      		movw r24,r26
  83               	/* epilogue start */
  84 002e DF91      		pop r29
  85 0030 CF91      		pop r28
  86 0032 0895      		ret
  87               		.cfi_endproc
  88               	.LFE68:
  90               		.section	.progmem.data.baudctrl_1mhz,"a",@progbits
  93               	baudctrl_1mhz:
  94 0000 3300      		.word	51
  95 0002 1900      		.word	25
  96 0004 0C00      		.word	12
  97 0006 0600      		.word	6
  98 0008 0300      		.word	3
  99 000a 0200      		.word	2
 100 000c 0100      		.word	1
 101 000e FF00      		.word	255
 102               		.section	.progmem.data.baudctrl_8mhz,"a",@progbits
 105               	baudctrl_8mhz:
 106 0000 A001      		.word	416
 107 0002 CF00      		.word	207
 108 0004 6700      		.word	103
 109 0006 3300      		.word	51
 110 0008 1900      		.word	25
 111 000a 0C00      		.word	12
 112 000c 0700      		.word	7
 113 000e 0800      		.word	8
 114               		.section	.progmem.data.baudctrl_16mhz,"a",@progbits
 117               	baudctrl_16mhz:
 118 0000 4003      		.word	832
 119 0002 A001      		.word	416
 120 0004 CF00      		.word	207
 121 0006 6700      		.word	103
 122 0008 3300      		.word	51
 123 000a 1900      		.word	25
 124 000c 1000      		.word	16
 125 000e 1000      		.word	16
 126               		.text
 128               	usart_double_baud_enable:
 129               	.LFB101:
 130               		.file 2 "../../../platform/mega_rf/drivers/usart/usart_megarf.h"
   1:../../../platform/mega_rf/drivers/usart/usart_megarf.h **** /**
   2:../../../platform/mega_rf/drivers/usart/usart_megarf.h ****  * \file
   3:../../../platform/mega_rf/drivers/usart/usart_megarf.h ****  *
   4:../../../platform/mega_rf/drivers/usart/usart_megarf.h ****  * \brief USART driver for AVR MEGARF.
   5:../../../platform/mega_rf/drivers/usart/usart_megarf.h ****  *
   6:../../../platform/mega_rf/drivers/usart/usart_megarf.h ****  * This file contains basic functions for the AVR MEGA USART, with support for
   7:../../../platform/mega_rf/drivers/usart/usart_megarf.h ****  * all modes, settings and clock speeds.
   8:../../../platform/mega_rf/drivers/usart/usart_megarf.h ****  *
   9:../../../platform/mega_rf/drivers/usart/usart_megarf.h ****  * Copyright (c) 2013-2015 Atmel Corporation. All rights reserved.
  10:../../../platform/mega_rf/drivers/usart/usart_megarf.h ****  *
  11:../../../platform/mega_rf/drivers/usart/usart_megarf.h ****  * \asf_license_start
  12:../../../platform/mega_rf/drivers/usart/usart_megarf.h ****  *
  13:../../../platform/mega_rf/drivers/usart/usart_megarf.h ****  * \page License
  14:../../../platform/mega_rf/drivers/usart/usart_megarf.h ****  *
  15:../../../platform/mega_rf/drivers/usart/usart_megarf.h ****  * Redistribution and use in source and binary forms, with or without
  16:../../../platform/mega_rf/drivers/usart/usart_megarf.h ****  * modification, are permitted provided that the following conditions are met:
  17:../../../platform/mega_rf/drivers/usart/usart_megarf.h ****  *
  18:../../../platform/mega_rf/drivers/usart/usart_megarf.h ****  * 1. Redistributions of source code must retain the above copyright notice,
  19:../../../platform/mega_rf/drivers/usart/usart_megarf.h ****  *    this list of conditions and the following disclaimer.
  20:../../../platform/mega_rf/drivers/usart/usart_megarf.h ****  *
  21:../../../platform/mega_rf/drivers/usart/usart_megarf.h ****  * 2. Redistributions in binary form must reproduce the above copyright notice,
  22:../../../platform/mega_rf/drivers/usart/usart_megarf.h ****  *    this list of conditions and the following disclaimer in the documentation
  23:../../../platform/mega_rf/drivers/usart/usart_megarf.h ****  *    and/or other materials provided with the distribution.
  24:../../../platform/mega_rf/drivers/usart/usart_megarf.h ****  *
  25:../../../platform/mega_rf/drivers/usart/usart_megarf.h ****  * 3. The name of Atmel may not be used to endorse or promote products derived
  26:../../../platform/mega_rf/drivers/usart/usart_megarf.h ****  *    from this software without specific prior written permission.
  27:../../../platform/mega_rf/drivers/usart/usart_megarf.h ****  *
  28:../../../platform/mega_rf/drivers/usart/usart_megarf.h ****  * 4. This software may only be redistributed and used in connection with an
  29:../../../platform/mega_rf/drivers/usart/usart_megarf.h ****  *    Atmel microcontroller product.
  30:../../../platform/mega_rf/drivers/usart/usart_megarf.h ****  *
  31:../../../platform/mega_rf/drivers/usart/usart_megarf.h ****  * THIS SOFTWARE IS PROVIDED BY ATMEL "AS IS" AND ANY EXPRESS OR IMPLIED
  32:../../../platform/mega_rf/drivers/usart/usart_megarf.h ****  * WARRANTIES, INCLUDING, BUT NOT LIMITED TO, THE IMPLIED WARRANTIES OF
  33:../../../platform/mega_rf/drivers/usart/usart_megarf.h ****  * MERCHANTABILITY, FITNESS FOR A PARTICULAR PURPOSE AND NON-INFRINGEMENT ARE
  34:../../../platform/mega_rf/drivers/usart/usart_megarf.h ****  * EXPRESSLY AND SPECIFICALLY DISCLAIMED. IN NO EVENT SHALL ATMEL BE LIABLE FOR
  35:../../../platform/mega_rf/drivers/usart/usart_megarf.h ****  * ANY DIRECT, INDIRECT, INCIDENTAL, SPECIAL, EXEMPLARY, OR CONSEQUENTIAL
  36:../../../platform/mega_rf/drivers/usart/usart_megarf.h ****  * DAMAGES (INCLUDING, BUT NOT LIMITED TO, PROCUREMENT OF SUBSTITUTE GOODS
  37:../../../platform/mega_rf/drivers/usart/usart_megarf.h ****  * OR SERVICES; LOSS OF USE, DATA, OR PROFITS; OR BUSINESS INTERRUPTION)
  38:../../../platform/mega_rf/drivers/usart/usart_megarf.h ****  * HOWEVER CAUSED AND ON ANY THEORY OF LIABILITY, WHETHER IN CONTRACT,
  39:../../../platform/mega_rf/drivers/usart/usart_megarf.h ****  * STRICT LIABILITY, OR TORT (INCLUDING NEGLIGENCE OR OTHERWISE) ARISING IN
  40:../../../platform/mega_rf/drivers/usart/usart_megarf.h ****  * ANY WAY OUT OF THE USE OF THIS SOFTWARE, EVEN IF ADVISED OF THE
  41:../../../platform/mega_rf/drivers/usart/usart_megarf.h ****  * POSSIBILITY OF SUCH DAMAGE.
  42:../../../platform/mega_rf/drivers/usart/usart_megarf.h ****  *
  43:../../../platform/mega_rf/drivers/usart/usart_megarf.h ****  * \asf_license_stop
  44:../../../platform/mega_rf/drivers/usart/usart_megarf.h ****  *
  45:../../../platform/mega_rf/drivers/usart/usart_megarf.h ****  */
  46:../../../platform/mega_rf/drivers/usart/usart_megarf.h **** #ifndef _USART_MEGARF_H_
  47:../../../platform/mega_rf/drivers/usart/usart_megarf.h **** #define _USART_MEGARF_H_
  48:../../../platform/mega_rf/drivers/usart/usart_megarf.h **** 
  49:../../../platform/mega_rf/drivers/usart/usart_megarf.h **** #ifdef __cplusplus
  50:../../../platform/mega_rf/drivers/usart/usart_megarf.h **** extern "C" {
  51:../../../platform/mega_rf/drivers/usart/usart_megarf.h **** #endif
  52:../../../platform/mega_rf/drivers/usart/usart_megarf.h **** 
  53:../../../platform/mega_rf/drivers/usart/usart_megarf.h **** #include "compiler.h"
  54:../../../platform/mega_rf/drivers/usart/usart_megarf.h **** #include "status_codes.h"
  55:../../../platform/mega_rf/drivers/usart/usart_megarf.h **** 
  56:../../../platform/mega_rf/drivers/usart/usart_megarf.h **** /**
  57:../../../platform/mega_rf/drivers/usart/usart_megarf.h ****  * \defgroup megarf_usart_group USART module (USART)
  58:../../../platform/mega_rf/drivers/usart/usart_megarf.h ****  *
  59:../../../platform/mega_rf/drivers/usart/usart_megarf.h ****  * See \ref megarf_usart_quickstart.
  60:../../../platform/mega_rf/drivers/usart/usart_megarf.h ****  *
  61:../../../platform/mega_rf/drivers/usart/usart_megarf.h ****  * This is a driver for configuring, enabling, disabling and use of the on-chip
  62:../../../platform/mega_rf/drivers/usart/usart_megarf.h ****  * USART.
  63:../../../platform/mega_rf/drivers/usart/usart_megarf.h ****  *
  64:../../../platform/mega_rf/drivers/usart/usart_megarf.h ****  * \section dependencies Dependencies
  65:../../../platform/mega_rf/drivers/usart/usart_megarf.h ****  *
  66:../../../platform/mega_rf/drivers/usart/usart_megarf.h ****  * The USART module depends on the following modules:
  67:../../../platform/mega_rf/drivers/usart/usart_megarf.h ****  *  - \ref sysclk_group for peripheral clock control.
  68:../../../platform/mega_rf/drivers/usart/usart_megarf.h ****  *  - \ref port_driver_group for peripheral io port control.
  69:../../../platform/mega_rf/drivers/usart/usart_megarf.h ****  *
  70:../../../platform/mega_rf/drivers/usart/usart_megarf.h ****  * @{
  71:../../../platform/mega_rf/drivers/usart/usart_megarf.h ****  */
  72:../../../platform/mega_rf/drivers/usart/usart_megarf.h **** 
  73:../../../platform/mega_rf/drivers/usart/usart_megarf.h **** /* ! Offset in lookup table for baudrate 1200 */
  74:../../../platform/mega_rf/drivers/usart/usart_megarf.h **** #define USART_BAUD_1200      0x00
  75:../../../platform/mega_rf/drivers/usart/usart_megarf.h **** /* ! Offset in lookup table for baudrate 2400 */
  76:../../../platform/mega_rf/drivers/usart/usart_megarf.h **** #define USART_BAUD_2400      0x01
  77:../../../platform/mega_rf/drivers/usart/usart_megarf.h **** /* ! Offset in lookup table for baudrate 4800 */
  78:../../../platform/mega_rf/drivers/usart/usart_megarf.h **** #define USART_BAUD_4800      0x02
  79:../../../platform/mega_rf/drivers/usart/usart_megarf.h **** /* ! Offset in lookup table for baudrate 9600 */
  80:../../../platform/mega_rf/drivers/usart/usart_megarf.h **** #define USART_BAUD_9600      0x03
  81:../../../platform/mega_rf/drivers/usart/usart_megarf.h **** /* ! Offset in lookup table for baudrate 19200 */
  82:../../../platform/mega_rf/drivers/usart/usart_megarf.h **** #define USART_BAUD_19200     0x04
  83:../../../platform/mega_rf/drivers/usart/usart_megarf.h **** /* ! Offset in lookup table for baudrate 38400 */
  84:../../../platform/mega_rf/drivers/usart/usart_megarf.h **** #define USART_BAUD_38400     0x05
  85:../../../platform/mega_rf/drivers/usart/usart_megarf.h **** /* ! Offset in lookup table for baudrate 57600 */
  86:../../../platform/mega_rf/drivers/usart/usart_megarf.h **** #define USART_BAUD_57600     0x06
  87:../../../platform/mega_rf/drivers/usart/usart_megarf.h **** /* ! Offset in lookup table for baudrate 115200 */
  88:../../../platform/mega_rf/drivers/usart/usart_megarf.h **** #define USART_BAUD_115200    0x07
  89:../../../platform/mega_rf/drivers/usart/usart_megarf.h **** /* ! Baudrate not in lookup table */
  90:../../../platform/mega_rf/drivers/usart/usart_megarf.h **** #define USART_BAUD_UNDEFINED 0xFF
  91:../../../platform/mega_rf/drivers/usart/usart_megarf.h **** 
  92:../../../platform/mega_rf/drivers/usart/usart_megarf.h **** typedef volatile uint8_t register8_t;
  93:../../../platform/mega_rf/drivers/usart/usart_megarf.h **** typedef volatile uint16_t register16_t;
  94:../../../platform/mega_rf/drivers/usart/usart_megarf.h **** /* Universal Synchronous/Asynchronous Receiver/Transmitter */
  95:../../../platform/mega_rf/drivers/usart/usart_megarf.h **** typedef struct USART_struct {
  96:../../../platform/mega_rf/drivers/usart/usart_megarf.h **** 	register8_t UCSRnA;  /* Control Register A */
  97:../../../platform/mega_rf/drivers/usart/usart_megarf.h **** 	register8_t UCSRnB;  /* Control Register B */
  98:../../../platform/mega_rf/drivers/usart/usart_megarf.h **** 	register8_t UCSRnC;  /* Control Register C */
  99:../../../platform/mega_rf/drivers/usart/usart_megarf.h **** 	register8_t reserved;
 100:../../../platform/mega_rf/drivers/usart/usart_megarf.h **** 	register16_t UBRR;  /* Baud Rate Register Value */
 101:../../../platform/mega_rf/drivers/usart/usart_megarf.h **** 	register8_t UDR;  /* I/O Data Register */
 102:../../../platform/mega_rf/drivers/usart/usart_megarf.h **** } USART_t;
 103:../../../platform/mega_rf/drivers/usart/usart_megarf.h **** 
 104:../../../platform/mega_rf/drivers/usart/usart_megarf.h **** #define USARTA0    (*(USART_t *)0xC0)   /* Universal Asynchronous
 105:../../../platform/mega_rf/drivers/usart/usart_megarf.h **** 	                                 * Receiver-Transmitter A0 */
 106:../../../platform/mega_rf/drivers/usart/usart_megarf.h **** #define USARTA1    (*(USART_t *)0XC8)   /* Universal Asynchronous
 107:../../../platform/mega_rf/drivers/usart/usart_megarf.h **** 	                                 * Receiver-Transmitter A1 */
 108:../../../platform/mega_rf/drivers/usart/usart_megarf.h **** 
 109:../../../platform/mega_rf/drivers/usart/usart_megarf.h **** /* USART.UCSRxA  bit masks and bit positions */
 110:../../../platform/mega_rf/drivers/usart/usart_megarf.h **** #define USART_RXC_bm  0x80 /* RX complete bit mask.*/
 111:../../../platform/mega_rf/drivers/usart/usart_megarf.h **** #define USART_RXC_bp  7 /* RX complete bit position.*/
 112:../../../platform/mega_rf/drivers/usart/usart_megarf.h **** 
 113:../../../platform/mega_rf/drivers/usart/usart_megarf.h **** #define USART_TXC_bm  0x40 /* TX complete bit mask.*/
 114:../../../platform/mega_rf/drivers/usart/usart_megarf.h **** #define USART_TXC_bp  6 /* TX complete bit position.*/
 115:../../../platform/mega_rf/drivers/usart/usart_megarf.h **** 
 116:../../../platform/mega_rf/drivers/usart/usart_megarf.h **** #define USART_DRE_bm  0x20 /* DATA Register Empty Bit mask.*/
 117:../../../platform/mega_rf/drivers/usart/usart_megarf.h **** #define USART_DRE_bp  5 /*  DATA Register Empty bit position.*/
 118:../../../platform/mega_rf/drivers/usart/usart_megarf.h **** 
 119:../../../platform/mega_rf/drivers/usart/usart_megarf.h **** #define USART_FE_bm   0x10 /* Frame Error bit mask.*/
 120:../../../platform/mega_rf/drivers/usart/usart_megarf.h **** #define USART_FE_bp   4 /*Frame error bit position.*/
 121:../../../platform/mega_rf/drivers/usart/usart_megarf.h **** 
 122:../../../platform/mega_rf/drivers/usart/usart_megarf.h **** #define USART_DOR_bm  0x08 /* Data Over Run bit mask.*/
 123:../../../platform/mega_rf/drivers/usart/usart_megarf.h **** #define USART_DOR_bp  3 /* Data Over Run bit position.*/
 124:../../../platform/mega_rf/drivers/usart/usart_megarf.h **** 
 125:../../../platform/mega_rf/drivers/usart/usart_megarf.h **** #define USART_UPE_bm  0x04 /* Parity error bit mask.*/
 126:../../../platform/mega_rf/drivers/usart/usart_megarf.h **** #define USART_UPE_bp  2 /* Parity error bit position.*/
 127:../../../platform/mega_rf/drivers/usart/usart_megarf.h **** 
 128:../../../platform/mega_rf/drivers/usart/usart_megarf.h **** #define USART_U2X_bm  0x02 /* Double TX speed bit mask.*/
 129:../../../platform/mega_rf/drivers/usart/usart_megarf.h **** #define USART_U2X_bp  1 /* Double TX speed bit position.*/
 130:../../../platform/mega_rf/drivers/usart/usart_megarf.h **** 
 131:../../../platform/mega_rf/drivers/usart/usart_megarf.h **** #define USART_MPCM_bm  0x01 /* Multi Processor bit mask.*/
 132:../../../platform/mega_rf/drivers/usart/usart_megarf.h **** #define USART_MPMC_bp  0 /* Multi processor bit position.*/
 133:../../../platform/mega_rf/drivers/usart/usart_megarf.h **** 
 134:../../../platform/mega_rf/drivers/usart/usart_megarf.h **** /* USART.UCSRxB  bit masks and bit positions */
 135:../../../platform/mega_rf/drivers/usart/usart_megarf.h **** #define USART_RXCIE_bm  0x80 /* RX complete interrupt Enable bit mask.*/
 136:../../../platform/mega_rf/drivers/usart/usart_megarf.h **** #define USART_RXCIE_bp  7 /* RX complete interrupt Enable bit position.*/
 137:../../../platform/mega_rf/drivers/usart/usart_megarf.h **** 
 138:../../../platform/mega_rf/drivers/usart/usart_megarf.h **** #define USART_TXCIE_bm  0x40 /* TX complete interrupt Enable bit mask.*/
 139:../../../platform/mega_rf/drivers/usart/usart_megarf.h **** #define USART_TXCIE_bp  6 /* TX complete interrupt Enable bit position.*/
 140:../../../platform/mega_rf/drivers/usart/usart_megarf.h **** 
 141:../../../platform/mega_rf/drivers/usart/usart_megarf.h **** #define USART_DRIE_bm  0x20 /* Data register empty interrupt Enable bit mask.*/
 142:../../../platform/mega_rf/drivers/usart/usart_megarf.h **** #define USART_DRIE_bp  5 /* Data register empty interrupt Enable bit position.*/
 143:../../../platform/mega_rf/drivers/usart/usart_megarf.h **** 
 144:../../../platform/mega_rf/drivers/usart/usart_megarf.h **** #define USART_RXEN_bm  0x10  /* Receiver Enable bit mask. */
 145:../../../platform/mega_rf/drivers/usart/usart_megarf.h **** #define USART_RXEN_bp  4  /* Receiver Enable bit position. */
 146:../../../platform/mega_rf/drivers/usart/usart_megarf.h **** 
 147:../../../platform/mega_rf/drivers/usart/usart_megarf.h **** #define USART_TXEN_bm  0x08  /* Transmitter Enable bit mask. */
 148:../../../platform/mega_rf/drivers/usart/usart_megarf.h **** #define USART_TXEN_bp  3  /* Transmitter Enable bit position. */
 149:../../../platform/mega_rf/drivers/usart/usart_megarf.h **** 
 150:../../../platform/mega_rf/drivers/usart/usart_megarf.h **** #define USART_CHSIZE2_bm  0x04  /* Character Size bit mask. */
 151:../../../platform/mega_rf/drivers/usart/usart_megarf.h **** #define USART_CHSIZE2_bp  2 /* Character Size bit position. */
 152:../../../platform/mega_rf/drivers/usart/usart_megarf.h **** 
 153:../../../platform/mega_rf/drivers/usart/usart_megarf.h **** #define USART_RXB8_bm  0x02  /* Transmit bit 8 bit mask. */
 154:../../../platform/mega_rf/drivers/usart/usart_megarf.h **** #define USART_RXB8_bp  1  /* Transmit bit 8 bit position. */
 155:../../../platform/mega_rf/drivers/usart/usart_megarf.h **** 
 156:../../../platform/mega_rf/drivers/usart/usart_megarf.h **** #define USART_TXB8_bm  0x01  /* Transmit bit 8 bit mask. */
 157:../../../platform/mega_rf/drivers/usart/usart_megarf.h **** #define USART_TXB8_bp  0  /* Transmit bit 8 bit position. */
 158:../../../platform/mega_rf/drivers/usart/usart_megarf.h **** 
 159:../../../platform/mega_rf/drivers/usart/usart_megarf.h **** /* USART.UCSRxC  bit masks and bit positions */
 160:../../../platform/mega_rf/drivers/usart/usart_megarf.h **** #define USART_UMSEL01_gm  0xC0 /* USART Mode Select 01 grp mask.*/
 161:../../../platform/mega_rf/drivers/usart/usart_megarf.h **** #define USART_UMSEL01_gp  6 /* USART Mode Select 01 grp position.*/
 162:../../../platform/mega_rf/drivers/usart/usart_megarf.h **** 
 163:../../../platform/mega_rf/drivers/usart/usart_megarf.h **** #define USART_UMSEL01_bm  0x80 /* USART Mode Select 01 bit mask.*/
 164:../../../platform/mega_rf/drivers/usart/usart_megarf.h **** #define USART_UMSEL01_bp  7 /* USART Mode Select 01 bit position.*/
 165:../../../platform/mega_rf/drivers/usart/usart_megarf.h **** 
 166:../../../platform/mega_rf/drivers/usart/usart_megarf.h **** #define USART_UMSEL00_bm  0x40 /* USART Mode Select 00 bit mask.*/
 167:../../../platform/mega_rf/drivers/usart/usart_megarf.h **** #define USART_UMSEL00_bp  6 /* USART Mode Select 00 bit position.*/
 168:../../../platform/mega_rf/drivers/usart/usart_megarf.h **** 
 169:../../../platform/mega_rf/drivers/usart/usart_megarf.h **** #define USART_PMODE_gm  0x30 /* USART Parity Mode Select grp mask.*/
 170:../../../platform/mega_rf/drivers/usart/usart_megarf.h **** #define USART_PMODE_gp  4 /* USART Parity Mode Select grp position.*/
 171:../../../platform/mega_rf/drivers/usart/usart_megarf.h **** 
 172:../../../platform/mega_rf/drivers/usart/usart_megarf.h **** #define USART_PMODE01_bm  0x20 /* USART Parity Mode Select 01 bit mask.*/
 173:../../../platform/mega_rf/drivers/usart/usart_megarf.h **** #define USART_PMODE01_bp  5 /* USART Parity Mode Select 01 bit position.*/
 174:../../../platform/mega_rf/drivers/usart/usart_megarf.h **** 
 175:../../../platform/mega_rf/drivers/usart/usart_megarf.h **** #define USART_PMODE00_bm  0x10 /* USART Parity Mode Select 00 bit mask.*/
 176:../../../platform/mega_rf/drivers/usart/usart_megarf.h **** #define USART_PMODE00_bp  4 /* USART Parity Mode Select 00 bit position.*/
 177:../../../platform/mega_rf/drivers/usart/usart_megarf.h **** 
 178:../../../platform/mega_rf/drivers/usart/usart_megarf.h **** #define USART_STOPB_bm  0x08 /* USART stop bit mask.*/
 179:../../../platform/mega_rf/drivers/usart/usart_megarf.h **** #define USART_STOPB_bp  3 /* USART stop bit Position.*/
 180:../../../platform/mega_rf/drivers/usart/usart_megarf.h **** 
 181:../../../platform/mega_rf/drivers/usart/usart_megarf.h **** #define USART_CHSIZE01C_gm  0x06  /* Character Size 10 bit 1 mask. */
 182:../../../platform/mega_rf/drivers/usart/usart_megarf.h **** #define USART_CHSIZE01C_gp  1 /* Character Size 10 bit position. */
 183:../../../platform/mega_rf/drivers/usart/usart_megarf.h **** 
 184:../../../platform/mega_rf/drivers/usart/usart_megarf.h **** #define USART_CHSIZE01_bm  0x04  /* Character Size 10 bit 1 mask. */
 185:../../../platform/mega_rf/drivers/usart/usart_megarf.h **** #define USART_CHSIZE01_bp  2 /* Character Size 10 bit position. */
 186:../../../platform/mega_rf/drivers/usart/usart_megarf.h **** 
 187:../../../platform/mega_rf/drivers/usart/usart_megarf.h **** #define USART_CHSIZE00_bm  0x02  /* Character Size 00 bit 1 mask. */
 188:../../../platform/mega_rf/drivers/usart/usart_megarf.h **** #define USART_CHSIZE00_bp  1 /* Character Size bit 00 position. */
 189:../../../platform/mega_rf/drivers/usart/usart_megarf.h **** 
 190:../../../platform/mega_rf/drivers/usart/usart_megarf.h **** #define USART_UCPOL_bm  0x01  /* Sync mode Pol bit 1 mask. */
 191:../../../platform/mega_rf/drivers/usart/usart_megarf.h **** #define USART_UCPOL_bp  0 /*Sync mode Pol bit 0 position */
 192:../../../platform/mega_rf/drivers/usart/usart_megarf.h **** 
 193:../../../platform/mega_rf/drivers/usart/usart_megarf.h **** #define USART_UCPHA_bm 0x02 /* Clock Phase bit mask. */
 194:../../../platform/mega_rf/drivers/usart/usart_megarf.h **** #define USART_UCPHA_bp 1 /* Clock Phase bit position. */
 195:../../../platform/mega_rf/drivers/usart/usart_megarf.h **** 
 196:../../../platform/mega_rf/drivers/usart/usart_megarf.h **** #define USART_DORD_bm 0x04 /* Data order bit mask. */
 197:../../../platform/mega_rf/drivers/usart/usart_megarf.h **** #define USART_DORD_bp 2 /* Data order bit position. */
 198:../../../platform/mega_rf/drivers/usart/usart_megarf.h **** 
 199:../../../platform/mega_rf/drivers/usart/usart_megarf.h **** /* Character Size */
 200:../../../platform/mega_rf/drivers/usart/usart_megarf.h **** typedef enum USART_CHSIZE_enum {
 201:../../../platform/mega_rf/drivers/usart/usart_megarf.h **** 	USART_CHSIZE_5BIT_gc = (0x00),  /* Character size: 5 bit */
 202:../../../platform/mega_rf/drivers/usart/usart_megarf.h **** 	USART_CHSIZE_6BIT_gc = (0x01),  /* Character size: 6 bit */
 203:../../../platform/mega_rf/drivers/usart/usart_megarf.h **** 	USART_CHSIZE_7BIT_gc = (0x02),  /* Character size: 7 bit */
 204:../../../platform/mega_rf/drivers/usart/usart_megarf.h **** 	USART_CHSIZE_8BIT_gc = (0x03),  /* Character size: 8 bit */
 205:../../../platform/mega_rf/drivers/usart/usart_megarf.h **** 	USART_CHSIZE_9BIT_gc = (0x07),  /* Character size: 9 bit */
 206:../../../platform/mega_rf/drivers/usart/usart_megarf.h **** } USART_CHSIZE_t;
 207:../../../platform/mega_rf/drivers/usart/usart_megarf.h **** 
 208:../../../platform/mega_rf/drivers/usart/usart_megarf.h **** /* Communication Mode */
 209:../../../platform/mega_rf/drivers/usart/usart_megarf.h **** typedef enum USART_CMODE_enum {
 210:../../../platform/mega_rf/drivers/usart/usart_megarf.h **** 	USART_CMODE_ASYNCHRONOUS_gc = (0x00 << USART_UMSEL01_gp),  /*
 211:../../../platform/mega_rf/drivers/usart/usart_megarf.h **** 	                                                            *
 212:../../../platform/mega_rf/drivers/usart/usart_megarf.h **** 	                                                            *
 213:../../../platform/mega_rf/drivers/usart/usart_megarf.h **** 	                                                            *Asynchronous
 214:../../../platform/mega_rf/drivers/usart/usart_megarf.h **** 	                                                            * Mode */
 215:../../../platform/mega_rf/drivers/usart/usart_megarf.h **** 	USART_CMODE_SYNCHRONOUS_gc = (0x01 << USART_UMSEL01_gp),  /* Synchronous
 216:../../../platform/mega_rf/drivers/usart/usart_megarf.h **** 	                                                           * Mode */
 217:../../../platform/mega_rf/drivers/usart/usart_megarf.h **** 	USART_CMODE_IRDA_gc = (0x02 << USART_UMSEL01_gp),  /* IrDA Mode */
 218:../../../platform/mega_rf/drivers/usart/usart_megarf.h **** 	USART_CMODE_MSPI_gc = (0x03 << USART_UMSEL01_gp),  /* Master SPI Mode */
 219:../../../platform/mega_rf/drivers/usart/usart_megarf.h **** } USART_CMODE_t;
 220:../../../platform/mega_rf/drivers/usart/usart_megarf.h **** 
 221:../../../platform/mega_rf/drivers/usart/usart_megarf.h **** /* Parity Mode */
 222:../../../platform/mega_rf/drivers/usart/usart_megarf.h **** typedef enum USART_PMODE_enum {
 223:../../../platform/mega_rf/drivers/usart/usart_megarf.h **** 	USART_PMODE_DISABLED_gc = (0x00 << USART_PMODE_gp),  /* No Parity */
 224:../../../platform/mega_rf/drivers/usart/usart_megarf.h **** 	USART_PMODE_EVEN_gc = (0x02 << USART_PMODE_gp),  /* Even Parity */
 225:../../../platform/mega_rf/drivers/usart/usart_megarf.h **** 	USART_PMODE_ODD_gc = (0x03 << USART_PMODE_gp),  /* Odd Parity */
 226:../../../platform/mega_rf/drivers/usart/usart_megarf.h **** } USART_PMODE_t;
 227:../../../platform/mega_rf/drivers/usart/usart_megarf.h **** 
 228:../../../platform/mega_rf/drivers/usart/usart_megarf.h **** /* ! Lookup table containing baudctrl values for CPU frequency 1 Mhz */
 229:../../../platform/mega_rf/drivers/usart/usart_megarf.h **** static PROGMEM_DECLARE(uint16_t, baudctrl_1mhz[]) = {
 230:../../../platform/mega_rf/drivers/usart/usart_megarf.h **** 	0x0033, /* Baud: 1200 */
 231:../../../platform/mega_rf/drivers/usart/usart_megarf.h **** 	0x0019, /* Baud: 2400 */
 232:../../../platform/mega_rf/drivers/usart/usart_megarf.h **** 	0x000C, /* Baud: 4800 */
 233:../../../platform/mega_rf/drivers/usart/usart_megarf.h **** 	0x0006, /* Baud: 9600 */
 234:../../../platform/mega_rf/drivers/usart/usart_megarf.h **** 	0x0003, /* Baud: 19200 */
 235:../../../platform/mega_rf/drivers/usart/usart_megarf.h **** 	0x0002, /* Baud: 38400 */
 236:../../../platform/mega_rf/drivers/usart/usart_megarf.h **** 	0x0001, /* Baud: 57600 */
 237:../../../platform/mega_rf/drivers/usart/usart_megarf.h **** 	USART_BAUD_UNDEFINED, /* Baud: 115200 */
 238:../../../platform/mega_rf/drivers/usart/usart_megarf.h **** };
 239:../../../platform/mega_rf/drivers/usart/usart_megarf.h **** 
 240:../../../platform/mega_rf/drivers/usart/usart_megarf.h **** /* ! Lookup table containing baudctrl values for CPU frequency 8 Mhz */
 241:../../../platform/mega_rf/drivers/usart/usart_megarf.h **** static PROGMEM_DECLARE(uint16_t, baudctrl_8mhz[]) = {
 242:../../../platform/mega_rf/drivers/usart/usart_megarf.h **** 	0x01A0, /* Baud: 1200 */
 243:../../../platform/mega_rf/drivers/usart/usart_megarf.h **** 	0x00CF, /* Baud: 2400 */
 244:../../../platform/mega_rf/drivers/usart/usart_megarf.h **** 	0x0067, /* Baud: 4800 */
 245:../../../platform/mega_rf/drivers/usart/usart_megarf.h **** 	0x0033, /* Baud: 9600 */
 246:../../../platform/mega_rf/drivers/usart/usart_megarf.h **** 	0x0019, /* Baud: 19200 */
 247:../../../platform/mega_rf/drivers/usart/usart_megarf.h **** 	0x000C, /* Baud: 38400 */
 248:../../../platform/mega_rf/drivers/usart/usart_megarf.h **** 	0x0007, /* Baud: 57600 */
 249:../../../platform/mega_rf/drivers/usart/usart_megarf.h **** 	0x0008, /* Baud: 115200 */
 250:../../../platform/mega_rf/drivers/usart/usart_megarf.h **** };
 251:../../../platform/mega_rf/drivers/usart/usart_megarf.h **** 
 252:../../../platform/mega_rf/drivers/usart/usart_megarf.h **** /* ! Lookup table containing baudctrl values for CPU frequency 16 Mhz */
 253:../../../platform/mega_rf/drivers/usart/usart_megarf.h **** static PROGMEM_DECLARE(uint16_t, baudctrl_16mhz[]) = {
 254:../../../platform/mega_rf/drivers/usart/usart_megarf.h **** 	0x0340, /* Baud: 1200 */
 255:../../../platform/mega_rf/drivers/usart/usart_megarf.h **** 	0x01A0, /* Baud: 2400 */
 256:../../../platform/mega_rf/drivers/usart/usart_megarf.h **** 	0x00CF, /* Baud: 4800 */
 257:../../../platform/mega_rf/drivers/usart/usart_megarf.h **** 	0x0067, /* Baud: 9600 */
 258:../../../platform/mega_rf/drivers/usart/usart_megarf.h **** 	0x0033, /* Baud: 19200 */
 259:../../../platform/mega_rf/drivers/usart/usart_megarf.h **** 	0x0019, /* Baud: 38400 */
 260:../../../platform/mega_rf/drivers/usart/usart_megarf.h **** 	0x0010, /* Baud: 57600 */
 261:../../../platform/mega_rf/drivers/usart/usart_megarf.h **** 	0x0010, /* Baud: 115200 */
 262:../../../platform/mega_rf/drivers/usart/usart_megarf.h **** };
 263:../../../platform/mega_rf/drivers/usart/usart_megarf.h **** 
 264:../../../platform/mega_rf/drivers/usart/usart_megarf.h **** 
 265:../../../platform/mega_rf/drivers/usart/usart_megarf.h **** /* ! Input parameters when initializing RS232 and similar modes. */
 266:../../../platform/mega_rf/drivers/usart/usart_megarf.h **** typedef struct usart_rs232_options {
 267:../../../platform/mega_rf/drivers/usart/usart_megarf.h **** 	/* ! Set baud rate of the USART (unused in slave modes). */
 268:../../../platform/mega_rf/drivers/usart/usart_megarf.h **** 	uint32_t baudrate;
 269:../../../platform/mega_rf/drivers/usart/usart_megarf.h **** 
 270:../../../platform/mega_rf/drivers/usart/usart_megarf.h **** 	/* ! Number of bits to transmit as a character (5 to 9). */
 271:../../../platform/mega_rf/drivers/usart/usart_megarf.h **** 	USART_CHSIZE_t charlength;
 272:../../../platform/mega_rf/drivers/usart/usart_megarf.h **** 
 273:../../../platform/mega_rf/drivers/usart/usart_megarf.h **** 	/* ! Parity type: USART_PMODE_DISABLED_gc, USART_PMODE_EVEN_gc, */
 274:../../../platform/mega_rf/drivers/usart/usart_megarf.h **** 	/* ! USART_PMODE_ODD_gc. */
 275:../../../platform/mega_rf/drivers/usart/usart_megarf.h **** 	USART_PMODE_t paritytype;
 276:../../../platform/mega_rf/drivers/usart/usart_megarf.h **** 
 277:../../../platform/mega_rf/drivers/usart/usart_megarf.h **** 	/* ! Number of stop bits between two characters: */
 278:../../../platform/mega_rf/drivers/usart/usart_megarf.h **** 	/* ! true: 2 stop bits */
 279:../../../platform/mega_rf/drivers/usart/usart_megarf.h **** 	/* ! false: 1 stop bit */
 280:../../../platform/mega_rf/drivers/usart/usart_megarf.h **** 	bool stopbits;
 281:../../../platform/mega_rf/drivers/usart/usart_megarf.h **** } usart_rs232_options_t;
 282:../../../platform/mega_rf/drivers/usart/usart_megarf.h **** 
 283:../../../platform/mega_rf/drivers/usart/usart_megarf.h **** /* ! Input parameters when initializing SPI master mode. */
 284:../../../platform/mega_rf/drivers/usart/usart_megarf.h **** typedef struct usart_spi_options {
 285:../../../platform/mega_rf/drivers/usart/usart_megarf.h **** 	/* ! Set baud rate of the USART in SPI mode. */
 286:../../../platform/mega_rf/drivers/usart/usart_megarf.h **** 	uint32_t baudrate;
 287:../../../platform/mega_rf/drivers/usart/usart_megarf.h **** 
 288:../../../platform/mega_rf/drivers/usart/usart_megarf.h **** 	/* ! SPI transmission mode. */
 289:../../../platform/mega_rf/drivers/usart/usart_megarf.h **** 	uint8_t spimode;
 290:../../../platform/mega_rf/drivers/usart/usart_megarf.h **** 
 291:../../../platform/mega_rf/drivers/usart/usart_megarf.h **** 	uint8_t data_order;
 292:../../../platform/mega_rf/drivers/usart/usart_megarf.h **** } usart_spi_options_t;
 293:../../../platform/mega_rf/drivers/usart/usart_megarf.h **** 
 294:../../../platform/mega_rf/drivers/usart/usart_megarf.h **** 
 295:../../../platform/mega_rf/drivers/usart/usart_megarf.h **** /**
 296:../../../platform/mega_rf/drivers/usart/usart_megarf.h ****  * \brief Enable USART receiver.
 297:../../../platform/mega_rf/drivers/usart/usart_megarf.h ****  *
 298:../../../platform/mega_rf/drivers/usart/usart_megarf.h ****  * \param usart Pointer to the USART module
 299:../../../platform/mega_rf/drivers/usart/usart_megarf.h ****  */
 300:../../../platform/mega_rf/drivers/usart/usart_megarf.h **** static inline void usart_rx_enable(USART_t *usart)
 301:../../../platform/mega_rf/drivers/usart/usart_megarf.h **** {
 302:../../../platform/mega_rf/drivers/usart/usart_megarf.h **** 	(usart)->UCSRnB |= USART_RXEN_bm;
 303:../../../platform/mega_rf/drivers/usart/usart_megarf.h **** }
 304:../../../platform/mega_rf/drivers/usart/usart_megarf.h **** 
 305:../../../platform/mega_rf/drivers/usart/usart_megarf.h **** /**
 306:../../../platform/mega_rf/drivers/usart/usart_megarf.h ****  * \brief Disable USART receiver.
 307:../../../platform/mega_rf/drivers/usart/usart_megarf.h ****  *
 308:../../../platform/mega_rf/drivers/usart/usart_megarf.h ****  * \param usart Pointer to the USART module.
 309:../../../platform/mega_rf/drivers/usart/usart_megarf.h ****  */
 310:../../../platform/mega_rf/drivers/usart/usart_megarf.h **** static inline void usart_rx_disable(USART_t *usart)
 311:../../../platform/mega_rf/drivers/usart/usart_megarf.h **** {
 312:../../../platform/mega_rf/drivers/usart/usart_megarf.h **** 	(usart)->UCSRnB &= ~USART_RXEN_bm;
 313:../../../platform/mega_rf/drivers/usart/usart_megarf.h **** }
 314:../../../platform/mega_rf/drivers/usart/usart_megarf.h **** 
 315:../../../platform/mega_rf/drivers/usart/usart_megarf.h **** /**
 316:../../../platform/mega_rf/drivers/usart/usart_megarf.h ****  * \brief  Configure the USART frame format.
 317:../../../platform/mega_rf/drivers/usart/usart_megarf.h ****  *
 318:../../../platform/mega_rf/drivers/usart/usart_megarf.h ****  *  Sets the frame format, Frame Size, parity mode and number of stop bits.
 319:../../../platform/mega_rf/drivers/usart/usart_megarf.h ****  *
 320:../../../platform/mega_rf/drivers/usart/usart_megarf.h ****  *  \param usart Pointer to the USART module
 321:../../../platform/mega_rf/drivers/usart/usart_megarf.h ****  *  \param charSize The character size. Use USART_CHSIZE_t type.
 322:../../../platform/mega_rf/drivers/usart/usart_megarf.h ****  *  \param parityMode The parity Mode. Use USART_PMODE_t type.
 323:../../../platform/mega_rf/drivers/usart/usart_megarf.h ****  *  \param twoStopBits Enable two stop bit mode. Use bool type.
 324:../../../platform/mega_rf/drivers/usart/usart_megarf.h ****  */
 325:../../../platform/mega_rf/drivers/usart/usart_megarf.h **** static inline void usart_format_set(USART_t *usart, USART_CHSIZE_t charSize,
 326:../../../platform/mega_rf/drivers/usart/usart_megarf.h **** 		USART_PMODE_t parityMode, bool twoStopBits)
 327:../../../platform/mega_rf/drivers/usart/usart_megarf.h **** {
 328:../../../platform/mega_rf/drivers/usart/usart_megarf.h **** 	(usart)->UCSRnC
 329:../../../platform/mega_rf/drivers/usart/usart_megarf.h **** 		= ((usart)->UCSRnC &
 330:../../../platform/mega_rf/drivers/usart/usart_megarf.h **** 			(~USART_CHSIZE01C_gm)) | ((charSize & 0x03)
 331:../../../platform/mega_rf/drivers/usart/usart_megarf.h **** 			<< USART_CHSIZE01C_gp);
 332:../../../platform/mega_rf/drivers/usart/usart_megarf.h **** 	(usart)->UCSRnB
 333:../../../platform/mega_rf/drivers/usart/usart_megarf.h **** 		= ((usart)->UCSRnB &
 334:../../../platform/mega_rf/drivers/usart/usart_megarf.h **** 			(~USART_CHSIZE2_bm)) | ((charSize & 0x04)
 335:../../../platform/mega_rf/drivers/usart/usart_megarf.h **** 			<< USART_CHSIZE2_bp);
 336:../../../platform/mega_rf/drivers/usart/usart_megarf.h **** 
 337:../../../platform/mega_rf/drivers/usart/usart_megarf.h **** 	(usart)->UCSRnC = ((usart)->UCSRnC & (~USART_PMODE_gm)) | parityMode;
 338:../../../platform/mega_rf/drivers/usart/usart_megarf.h **** 
 339:../../../platform/mega_rf/drivers/usart/usart_megarf.h **** 	(usart)->UCSRnC = ((usart)->UCSRnC & (~USART_STOPB_bm)) | (twoStopBits
 340:../../../platform/mega_rf/drivers/usart/usart_megarf.h **** 			<< USART_STOPB_bp);
 341:../../../platform/mega_rf/drivers/usart/usart_megarf.h **** }
 342:../../../platform/mega_rf/drivers/usart/usart_megarf.h **** 
 343:../../../platform/mega_rf/drivers/usart/usart_megarf.h **** /**
 344:../../../platform/mega_rf/drivers/usart/usart_megarf.h ****  * \brief Enable USART transmitter.
 345:../../../platform/mega_rf/drivers/usart/usart_megarf.h ****  *
 346:../../../platform/mega_rf/drivers/usart/usart_megarf.h ****  * \param usart Pointer to the USART module.
 347:../../../platform/mega_rf/drivers/usart/usart_megarf.h ****  */
 348:../../../platform/mega_rf/drivers/usart/usart_megarf.h **** static inline void usart_tx_enable(USART_t *usart)
 349:../../../platform/mega_rf/drivers/usart/usart_megarf.h **** {
 350:../../../platform/mega_rf/drivers/usart/usart_megarf.h **** 	(usart)->UCSRnB |= USART_TXEN_bm;
 351:../../../platform/mega_rf/drivers/usart/usart_megarf.h **** }
 352:../../../platform/mega_rf/drivers/usart/usart_megarf.h **** 
 353:../../../platform/mega_rf/drivers/usart/usart_megarf.h **** /**
 354:../../../platform/mega_rf/drivers/usart/usart_megarf.h ****  * \brief Disable USART transmitter.
 355:../../../platform/mega_rf/drivers/usart/usart_megarf.h ****  *
 356:../../../platform/mega_rf/drivers/usart/usart_megarf.h ****  * \param usart Pointer to the USART module.
 357:../../../platform/mega_rf/drivers/usart/usart_megarf.h ****  */
 358:../../../platform/mega_rf/drivers/usart/usart_megarf.h **** static inline void usart_tx_disable(USART_t *usart)
 359:../../../platform/mega_rf/drivers/usart/usart_megarf.h **** {
 360:../../../platform/mega_rf/drivers/usart/usart_megarf.h **** 	(usart)->UCSRnB &= ~USART_TXEN_bm;
 361:../../../platform/mega_rf/drivers/usart/usart_megarf.h **** }
 362:../../../platform/mega_rf/drivers/usart/usart_megarf.h **** 
 363:../../../platform/mega_rf/drivers/usart/usart_megarf.h **** /**
 364:../../../platform/mega_rf/drivers/usart/usart_megarf.h ****  * \brief Enable USART transmit complete interrupt.
 365:../../../platform/mega_rf/drivers/usart/usart_megarf.h ****  *
 366:../../../platform/mega_rf/drivers/usart/usart_megarf.h ****  * \param usart Pointer to the USART module.
 367:../../../platform/mega_rf/drivers/usart/usart_megarf.h ****  */
 368:../../../platform/mega_rf/drivers/usart/usart_megarf.h **** static inline void usart_tx_complete_interrupt_enable(USART_t *usart)
 369:../../../platform/mega_rf/drivers/usart/usart_megarf.h **** {
 370:../../../platform/mega_rf/drivers/usart/usart_megarf.h **** 	(usart)->UCSRnB |= USART_TXC_bm;
 371:../../../platform/mega_rf/drivers/usart/usart_megarf.h **** }
 372:../../../platform/mega_rf/drivers/usart/usart_megarf.h **** 
 373:../../../platform/mega_rf/drivers/usart/usart_megarf.h **** /**
 374:../../../platform/mega_rf/drivers/usart/usart_megarf.h ****  * \brief Enable USART receive complete interrupt.
 375:../../../platform/mega_rf/drivers/usart/usart_megarf.h ****  *
 376:../../../platform/mega_rf/drivers/usart/usart_megarf.h ****  * \param usart Pointer to the USART module.
 377:../../../platform/mega_rf/drivers/usart/usart_megarf.h ****  */
 378:../../../platform/mega_rf/drivers/usart/usart_megarf.h **** static inline void usart_rx_complete_interrupt_enable(USART_t *usart)
 379:../../../platform/mega_rf/drivers/usart/usart_megarf.h **** {
 380:../../../platform/mega_rf/drivers/usart/usart_megarf.h **** 	(usart)->UCSRnB |= USART_RXC_bm;
 381:../../../platform/mega_rf/drivers/usart/usart_megarf.h **** }
 382:../../../platform/mega_rf/drivers/usart/usart_megarf.h **** 
 383:../../../platform/mega_rf/drivers/usart/usart_megarf.h **** /**
 384:../../../platform/mega_rf/drivers/usart/usart_megarf.h ****  * \brief Enable USART data register empty interrupt.
 385:../../../platform/mega_rf/drivers/usart/usart_megarf.h ****  *
 386:../../../platform/mega_rf/drivers/usart/usart_megarf.h ****  * \param usart Pointer to the USART module.
 387:../../../platform/mega_rf/drivers/usart/usart_megarf.h ****  */
 388:../../../platform/mega_rf/drivers/usart/usart_megarf.h **** static inline void usart_data_empty_interrupt_enable(USART_t *usart)
 389:../../../platform/mega_rf/drivers/usart/usart_megarf.h **** {
 390:../../../platform/mega_rf/drivers/usart/usart_megarf.h **** 	(usart)->UCSRnB |= USART_DRIE_bm;
 391:../../../platform/mega_rf/drivers/usart/usart_megarf.h **** }
 392:../../../platform/mega_rf/drivers/usart/usart_megarf.h **** 
 393:../../../platform/mega_rf/drivers/usart/usart_megarf.h **** /**
 394:../../../platform/mega_rf/drivers/usart/usart_megarf.h ****  * \brief Disable USART transmit complete interrupt.
 395:../../../platform/mega_rf/drivers/usart/usart_megarf.h ****  *
 396:../../../platform/mega_rf/drivers/usart/usart_megarf.h ****  * \param usart Pointer to the USART module.
 397:../../../platform/mega_rf/drivers/usart/usart_megarf.h ****  */
 398:../../../platform/mega_rf/drivers/usart/usart_megarf.h **** static inline void usart_tx_complete_interrupt_disable(USART_t *usart)
 399:../../../platform/mega_rf/drivers/usart/usart_megarf.h **** {
 400:../../../platform/mega_rf/drivers/usart/usart_megarf.h **** 	(usart)->UCSRnB &= ~USART_TXC_bm;
 401:../../../platform/mega_rf/drivers/usart/usart_megarf.h **** }
 402:../../../platform/mega_rf/drivers/usart/usart_megarf.h **** 
 403:../../../platform/mega_rf/drivers/usart/usart_megarf.h **** /**
 404:../../../platform/mega_rf/drivers/usart/usart_megarf.h ****  * \brief Disable USART receive complete interrupt.
 405:../../../platform/mega_rf/drivers/usart/usart_megarf.h ****  *
 406:../../../platform/mega_rf/drivers/usart/usart_megarf.h ****  * \param usart Pointer to the USART module.
 407:../../../platform/mega_rf/drivers/usart/usart_megarf.h ****  */
 408:../../../platform/mega_rf/drivers/usart/usart_megarf.h **** static inline void usart_rx_complete_interrupt_disable(USART_t *usart)
 409:../../../platform/mega_rf/drivers/usart/usart_megarf.h **** {
 410:../../../platform/mega_rf/drivers/usart/usart_megarf.h **** 	(usart)->UCSRnB &= ~USART_RXC_bm;
 411:../../../platform/mega_rf/drivers/usart/usart_megarf.h **** }
 412:../../../platform/mega_rf/drivers/usart/usart_megarf.h **** 
 413:../../../platform/mega_rf/drivers/usart/usart_megarf.h **** /**
 414:../../../platform/mega_rf/drivers/usart/usart_megarf.h ****  * \brief Disable USART data register empty interrupt.
 415:../../../platform/mega_rf/drivers/usart/usart_megarf.h ****  *
 416:../../../platform/mega_rf/drivers/usart/usart_megarf.h ****  * \param usart Pointer to the USART module.
 417:../../../platform/mega_rf/drivers/usart/usart_megarf.h ****  */
 418:../../../platform/mega_rf/drivers/usart/usart_megarf.h **** static inline void usart_data_empty_interrupt_disable(USART_t *usart)
 419:../../../platform/mega_rf/drivers/usart/usart_megarf.h **** {
 420:../../../platform/mega_rf/drivers/usart/usart_megarf.h **** 	(usart)->UCSRnB &= ~USART_DRIE_bm;
 421:../../../platform/mega_rf/drivers/usart/usart_megarf.h **** }
 422:../../../platform/mega_rf/drivers/usart/usart_megarf.h **** 
 423:../../../platform/mega_rf/drivers/usart/usart_megarf.h **** /**
 424:../../../platform/mega_rf/drivers/usart/usart_megarf.h ****  * \brief Set the mode the USART run in.
 425:../../../platform/mega_rf/drivers/usart/usart_megarf.h ****  *
 426:../../../platform/mega_rf/drivers/usart/usart_megarf.h ****  * Set the mode the USART run in. The default mode is asynchronous mode.
 427:../../../platform/mega_rf/drivers/usart/usart_megarf.h ****  *
 428:../../../platform/mega_rf/drivers/usart/usart_megarf.h ****  * \param usart Pointer to the USART module register section.
 429:../../../platform/mega_rf/drivers/usart/usart_megarf.h ****  * \param usartmode Selects the USART mode. Use USART_CMODE_t type.
 430:../../../platform/mega_rf/drivers/usart/usart_megarf.h ****  *
 431:../../../platform/mega_rf/drivers/usart/usart_megarf.h ****  * USART modes:
 432:../../../platform/mega_rf/drivers/usart/usart_megarf.h ****  * - 0x0        : Asynchronous mode.
 433:../../../platform/mega_rf/drivers/usart/usart_megarf.h ****  * - 0x1        : Synchronous mode.
 434:../../../platform/mega_rf/drivers/usart/usart_megarf.h ****  * - 0x2        : IrDA mode.
 435:../../../platform/mega_rf/drivers/usart/usart_megarf.h ****  * - 0x3        : Master SPI mode.
 436:../../../platform/mega_rf/drivers/usart/usart_megarf.h ****  */
 437:../../../platform/mega_rf/drivers/usart/usart_megarf.h **** static inline void usart_set_mode(USART_t *usart, USART_CMODE_t usartmode)
 438:../../../platform/mega_rf/drivers/usart/usart_megarf.h **** {
 439:../../../platform/mega_rf/drivers/usart/usart_megarf.h **** 	(usart)->UCSRnC = ((usart)->UCSRnC & (~USART_UMSEL01_gm)) | usartmode;
 440:../../../platform/mega_rf/drivers/usart/usart_megarf.h **** }
 441:../../../platform/mega_rf/drivers/usart/usart_megarf.h **** 
 442:../../../platform/mega_rf/drivers/usart/usart_megarf.h **** /**
 443:../../../platform/mega_rf/drivers/usart/usart_megarf.h ****  * \brief Check if data register empty flag is set.
 444:../../../platform/mega_rf/drivers/usart/usart_megarf.h ****  *
 445:../../../platform/mega_rf/drivers/usart/usart_megarf.h ****  * \param usart The USART module.
 446:../../../platform/mega_rf/drivers/usart/usart_megarf.h ****  */
 447:../../../platform/mega_rf/drivers/usart/usart_megarf.h **** static inline bool usart_data_register_is_empty(USART_t *usart)
 448:../../../platform/mega_rf/drivers/usart/usart_megarf.h **** {
 449:../../../platform/mega_rf/drivers/usart/usart_megarf.h **** 	return (usart)->UCSRnA & USART_DRE_bm;
 450:../../../platform/mega_rf/drivers/usart/usart_megarf.h **** }
 451:../../../platform/mega_rf/drivers/usart/usart_megarf.h **** 
 452:../../../platform/mega_rf/drivers/usart/usart_megarf.h **** /**
 453:../../../platform/mega_rf/drivers/usart/usart_megarf.h ****  * \brief Checks if the RX complete interrupt flag is set.
 454:../../../platform/mega_rf/drivers/usart/usart_megarf.h ****  *
 455:../../../platform/mega_rf/drivers/usart/usart_megarf.h ****  * Checks if the RX complete interrupt flag is set.
 456:../../../platform/mega_rf/drivers/usart/usart_megarf.h ****  *
 457:../../../platform/mega_rf/drivers/usart/usart_megarf.h ****  * \param usart The USART module.
 458:../../../platform/mega_rf/drivers/usart/usart_megarf.h ****  */
 459:../../../platform/mega_rf/drivers/usart/usart_megarf.h **** static inline bool usart_rx_is_complete(USART_t *usart)
 460:../../../platform/mega_rf/drivers/usart/usart_megarf.h **** {
 461:../../../platform/mega_rf/drivers/usart/usart_megarf.h **** 	return (usart)->UCSRnA & USART_RXC_bm;
 462:../../../platform/mega_rf/drivers/usart/usart_megarf.h **** }
 463:../../../platform/mega_rf/drivers/usart/usart_megarf.h **** 
 464:../../../platform/mega_rf/drivers/usart/usart_megarf.h **** /**
 465:../../../platform/mega_rf/drivers/usart/usart_megarf.h ****  * \brief Checks if the TX complete interrupt flag is set.
 466:../../../platform/mega_rf/drivers/usart/usart_megarf.h ****  *
 467:../../../platform/mega_rf/drivers/usart/usart_megarf.h ****  * Checks if the TX complete interrupt flag is set.
 468:../../../platform/mega_rf/drivers/usart/usart_megarf.h ****  *
 469:../../../platform/mega_rf/drivers/usart/usart_megarf.h ****  * \param usart The USART module.
 470:../../../platform/mega_rf/drivers/usart/usart_megarf.h ****  */
 471:../../../platform/mega_rf/drivers/usart/usart_megarf.h **** static inline bool usart_tx_is_complete(USART_t *usart)
 472:../../../platform/mega_rf/drivers/usart/usart_megarf.h **** {
 473:../../../platform/mega_rf/drivers/usart/usart_megarf.h **** 	return (usart)->UCSRnA & USART_TXC_bm;
 474:../../../platform/mega_rf/drivers/usart/usart_megarf.h **** }
 475:../../../platform/mega_rf/drivers/usart/usart_megarf.h **** 
 476:../../../platform/mega_rf/drivers/usart/usart_megarf.h **** /**
 477:../../../platform/mega_rf/drivers/usart/usart_megarf.h ****  * \brief Clear TX complete interrupt flag.
 478:../../../platform/mega_rf/drivers/usart/usart_megarf.h ****  * TX flag is clear after complete transmission, automatically.
 479:../../../platform/mega_rf/drivers/usart/usart_megarf.h ****  * \param usart The USART module.
 480:../../../platform/mega_rf/drivers/usart/usart_megarf.h ****  */
 481:../../../platform/mega_rf/drivers/usart/usart_megarf.h **** static inline void usart_clear_tx_complete(USART_t *usart)
 482:../../../platform/mega_rf/drivers/usart/usart_megarf.h **** {
 483:../../../platform/mega_rf/drivers/usart/usart_megarf.h ****          usart->UCSRnA |=  USART_TXC_bm;
 484:../../../platform/mega_rf/drivers/usart/usart_megarf.h **** }
 485:../../../platform/mega_rf/drivers/usart/usart_megarf.h **** 
 486:../../../platform/mega_rf/drivers/usart/usart_megarf.h **** /**
 487:../../../platform/mega_rf/drivers/usart/usart_megarf.h ****  * \brief Write a data to the USART data register.
 488:../../../platform/mega_rf/drivers/usart/usart_megarf.h ****  *
 489:../../../platform/mega_rf/drivers/usart/usart_megarf.h ****  * \param usart The USART module.
 490:../../../platform/mega_rf/drivers/usart/usart_megarf.h ****  * \param txdata The data to be transmitted.
 491:../../../platform/mega_rf/drivers/usart/usart_megarf.h ****  */
 492:../../../platform/mega_rf/drivers/usart/usart_megarf.h **** static inline void usart_put(USART_t *usart, uint8_t txdata)
 493:../../../platform/mega_rf/drivers/usart/usart_megarf.h **** {
 494:../../../platform/mega_rf/drivers/usart/usart_megarf.h **** 	(usart)->UDR = txdata;
 495:../../../platform/mega_rf/drivers/usart/usart_megarf.h **** }
 496:../../../platform/mega_rf/drivers/usart/usart_megarf.h **** 
 497:../../../platform/mega_rf/drivers/usart/usart_megarf.h **** /**
 498:../../../platform/mega_rf/drivers/usart/usart_megarf.h ****  * \brief  Read a data to the USART data register.
 499:../../../platform/mega_rf/drivers/usart/usart_megarf.h ****  *
 500:../../../platform/mega_rf/drivers/usart/usart_megarf.h ****  * \param usart The USART module.
 501:../../../platform/mega_rf/drivers/usart/usart_megarf.h ****  *
 502:../../../platform/mega_rf/drivers/usart/usart_megarf.h ****  * \return The received data
 503:../../../platform/mega_rf/drivers/usart/usart_megarf.h ****  */
 504:../../../platform/mega_rf/drivers/usart/usart_megarf.h **** static inline uint8_t usart_get(USART_t *usart)
 505:../../../platform/mega_rf/drivers/usart/usart_megarf.h **** {
 506:../../../platform/mega_rf/drivers/usart/usart_megarf.h **** 	return (usart)->UDR;
 507:../../../platform/mega_rf/drivers/usart/usart_megarf.h **** }
 508:../../../platform/mega_rf/drivers/usart/usart_megarf.h **** 
 509:../../../platform/mega_rf/drivers/usart/usart_megarf.h **** /**
 510:../../../platform/mega_rf/drivers/usart/usart_megarf.h ****  * \brief Double the USART transmission speed.
 511:../../../platform/mega_rf/drivers/usart/usart_megarf.h ****  *
 512:../../../platform/mega_rf/drivers/usart/usart_megarf.h ****  * \param usart The USART module.
 513:../../../platform/mega_rf/drivers/usart/usart_megarf.h ****  */
 514:../../../platform/mega_rf/drivers/usart/usart_megarf.h **** static inline void usart_double_baud_enable(USART_t *usart)
 515:../../../platform/mega_rf/drivers/usart/usart_megarf.h **** {
 131               		.loc 2 515 0
 132               		.cfi_startproc
 133 0034 CF93      		push r28
 134               	.LCFI6:
 135               		.cfi_def_cfa_offset 3
 136               		.cfi_offset 28, -2
 137 0036 DF93      		push r29
 138               	.LCFI7:
 139               		.cfi_def_cfa_offset 4
 140               		.cfi_offset 29, -3
 141 0038 00D0      		rcall .
 142               	.LCFI8:
 143               		.cfi_def_cfa_offset 6
 144 003a CDB7      		in r28,__SP_L__
 145 003c DEB7      		in r29,__SP_H__
 146               	.LCFI9:
 147               		.cfi_def_cfa_register 28
 148               	/* prologue: function */
 149               	/* frame size = 2 */
 150               	/* stack size = 4 */
 151               	.L__stack_usage = 4
 152 003e 9A83      		std Y+2,r25
 153 0040 8983      		std Y+1,r24
 516:../../../platform/mega_rf/drivers/usart/usart_megarf.h **** 	usart->UCSRnA |=  USART_U2X_bm;
 154               		.loc 2 516 0
 155 0042 8981      		ldd r24,Y+1
 156 0044 9A81      		ldd r25,Y+2
 157 0046 FC01      		movw r30,r24
 158 0048 8081      		ld r24,Z
 159 004a 282F      		mov r18,r24
 160 004c 2260      		ori r18,lo8(2)
 161 004e 8981      		ldd r24,Y+1
 162 0050 9A81      		ldd r25,Y+2
 163 0052 FC01      		movw r30,r24
 164 0054 2083      		st Z,r18
 517:../../../platform/mega_rf/drivers/usart/usart_megarf.h **** }
 165               		.loc 2 517 0
 166 0056 0000      		nop
 167               	/* epilogue start */
 168 0058 0F90      		pop __tmp_reg__
 169 005a 0F90      		pop __tmp_reg__
 170 005c DF91      		pop r29
 171 005e CF91      		pop r28
 172 0060 0895      		ret
 173               		.cfi_endproc
 174               	.LFE101:
 177               	usart_serial_init:
 178               	.LFB104:
 179               		.file 3 "../../../platform/common/services/serial/megarf_usart/usart_serial.h"
   1:../../../platform/common/services/serial/megarf_usart/usart_serial.h **** /**
   2:../../../platform/common/services/serial/megarf_usart/usart_serial.h ****  * \file
   3:../../../platform/common/services/serial/megarf_usart/usart_serial.h ****  *
   4:../../../platform/common/services/serial/megarf_usart/usart_serial.h ****  * \brief This file defines a useful set of functions for the Serial interface on 
   5:../../../platform/common/services/serial/megarf_usart/usart_serial.h ****  * AVR MEGARF devices.
   6:../../../platform/common/services/serial/megarf_usart/usart_serial.h ****  *
   7:../../../platform/common/services/serial/megarf_usart/usart_serial.h ****  * Copyright (c) 2013 Atmel Corporation. All rights reserved.
   8:../../../platform/common/services/serial/megarf_usart/usart_serial.h ****  *
   9:../../../platform/common/services/serial/megarf_usart/usart_serial.h ****  * \asf_license_start
  10:../../../platform/common/services/serial/megarf_usart/usart_serial.h ****  *
  11:../../../platform/common/services/serial/megarf_usart/usart_serial.h ****  * \page License
  12:../../../platform/common/services/serial/megarf_usart/usart_serial.h ****  *
  13:../../../platform/common/services/serial/megarf_usart/usart_serial.h ****  * Redistribution and use in source and binary forms, with or without
  14:../../../platform/common/services/serial/megarf_usart/usart_serial.h ****  * modification, are permitted provided that the following conditions are met:
  15:../../../platform/common/services/serial/megarf_usart/usart_serial.h ****  *
  16:../../../platform/common/services/serial/megarf_usart/usart_serial.h ****  * 1. Redistributions of source code must retain the above copyright notice,
  17:../../../platform/common/services/serial/megarf_usart/usart_serial.h ****  *    this list of conditions and the following disclaimer.
  18:../../../platform/common/services/serial/megarf_usart/usart_serial.h ****  *
  19:../../../platform/common/services/serial/megarf_usart/usart_serial.h ****  * 2. Redistributions in binary form must reproduce the above copyright notice,
  20:../../../platform/common/services/serial/megarf_usart/usart_serial.h ****  *    this list of conditions and the following disclaimer in the documentation
  21:../../../platform/common/services/serial/megarf_usart/usart_serial.h ****  *    and/or other materials provided with the distribution.
  22:../../../platform/common/services/serial/megarf_usart/usart_serial.h ****  *
  23:../../../platform/common/services/serial/megarf_usart/usart_serial.h ****  * 3. The name of Atmel may not be used to endorse or promote products derived
  24:../../../platform/common/services/serial/megarf_usart/usart_serial.h ****  *    from this software without specific prior written permission.
  25:../../../platform/common/services/serial/megarf_usart/usart_serial.h ****  *
  26:../../../platform/common/services/serial/megarf_usart/usart_serial.h ****  * 4. This software may only be redistributed and used in connection with an
  27:../../../platform/common/services/serial/megarf_usart/usart_serial.h ****  *    Atmel microcontroller product.
  28:../../../platform/common/services/serial/megarf_usart/usart_serial.h ****  *
  29:../../../platform/common/services/serial/megarf_usart/usart_serial.h ****  * THIS SOFTWARE IS PROVIDED BY ATMEL "AS IS" AND ANY EXPRESS OR IMPLIED
  30:../../../platform/common/services/serial/megarf_usart/usart_serial.h ****  * WARRANTIES, INCLUDING, BUT NOT LIMITED TO, THE IMPLIED WARRANTIES OF
  31:../../../platform/common/services/serial/megarf_usart/usart_serial.h ****  * MERCHANTABILITY, FITNESS FOR A PARTICULAR PURPOSE AND NON-INFRINGEMENT ARE
  32:../../../platform/common/services/serial/megarf_usart/usart_serial.h ****  * EXPRESSLY AND SPECIFICALLY DISCLAIMED. IN NO EVENT SHALL ATMEL BE LIABLE FOR
  33:../../../platform/common/services/serial/megarf_usart/usart_serial.h ****  * ANY DIRECT, INDIRECT, INCIDENTAL, SPECIAL, EXEMPLARY, OR CONSEQUENTIAL
  34:../../../platform/common/services/serial/megarf_usart/usart_serial.h ****  * DAMAGES (INCLUDING, BUT NOT LIMITED TO, PROCUREMENT OF SUBSTITUTE GOODS
  35:../../../platform/common/services/serial/megarf_usart/usart_serial.h ****  * OR SERVICES; LOSS OF USE, DATA, OR PROFITS; OR BUSINESS INTERRUPTION)
  36:../../../platform/common/services/serial/megarf_usart/usart_serial.h ****  * HOWEVER CAUSED AND ON ANY THEORY OF LIABILITY, WHETHER IN CONTRACT,
  37:../../../platform/common/services/serial/megarf_usart/usart_serial.h ****  * STRICT LIABILITY, OR TORT (INCLUDING NEGLIGENCE OR OTHERWISE) ARISING IN
  38:../../../platform/common/services/serial/megarf_usart/usart_serial.h ****  * ANY WAY OUT OF THE USE OF THIS SOFTWARE, EVEN IF ADVISED OF THE
  39:../../../platform/common/services/serial/megarf_usart/usart_serial.h ****  * POSSIBILITY OF SUCH DAMAGE.
  40:../../../platform/common/services/serial/megarf_usart/usart_serial.h ****  *
  41:../../../platform/common/services/serial/megarf_usart/usart_serial.h ****  * \asf_license_stop
  42:../../../platform/common/services/serial/megarf_usart/usart_serial.h ****  *
  43:../../../platform/common/services/serial/megarf_usart/usart_serial.h ****  */
  44:../../../platform/common/services/serial/megarf_usart/usart_serial.h **** #ifndef _USART_SERIAL_H_
  45:../../../platform/common/services/serial/megarf_usart/usart_serial.h **** #define _USART_SERIAL_H_
  46:../../../platform/common/services/serial/megarf_usart/usart_serial.h **** 
  47:../../../platform/common/services/serial/megarf_usart/usart_serial.h **** #ifdef __cplusplus
  48:../../../platform/common/services/serial/megarf_usart/usart_serial.h **** extern "C" {
  49:../../../platform/common/services/serial/megarf_usart/usart_serial.h **** #endif
  50:../../../platform/common/services/serial/megarf_usart/usart_serial.h **** 
  51:../../../platform/common/services/serial/megarf_usart/usart_serial.h **** #include "compiler.h"
  52:../../../platform/common/services/serial/megarf_usart/usart_serial.h **** #include "sysclk.h"
  53:../../../platform/common/services/serial/megarf_usart/usart_serial.h **** #include "status_codes.h"
  54:../../../platform/common/services/serial/megarf_usart/usart_serial.h **** #include "usart_megarf.h"
  55:../../../platform/common/services/serial/megarf_usart/usart_serial.h **** 
  56:../../../platform/common/services/serial/megarf_usart/usart_serial.h **** /*! \name Serial Management Configuration
  57:../../../platform/common/services/serial/megarf_usart/usart_serial.h ****  */
  58:../../../platform/common/services/serial/megarf_usart/usart_serial.h **** /* ! @{ */
  59:../../../platform/common/services/serial/megarf_usart/usart_serial.h **** #include "conf_usart_serial.h"
  60:../../../platform/common/services/serial/megarf_usart/usart_serial.h **** /* ! @} */
  61:../../../platform/common/services/serial/megarf_usart/usart_serial.h **** 
  62:../../../platform/common/services/serial/megarf_usart/usart_serial.h **** typedef usart_rs232_options_t usart_serial_options_t;
  63:../../../platform/common/services/serial/megarf_usart/usart_serial.h **** 
  64:../../../platform/common/services/serial/megarf_usart/usart_serial.h **** typedef USART_t *usart_if;
  65:../../../platform/common/services/serial/megarf_usart/usart_serial.h **** 
  66:../../../platform/common/services/serial/megarf_usart/usart_serial.h **** /*! \brief Initializes the Usart in master mode.
  67:../../../platform/common/services/serial/megarf_usart/usart_serial.h ****  *
  68:../../../platform/common/services/serial/megarf_usart/usart_serial.h ****  * \param usart       Base address of the USART instance.
  69:../../../platform/common/services/serial/megarf_usart/usart_serial.h ****  * \param options     Options needed to set up RS232 communication (see \ref
  70:../../../platform/common/services/serial/megarf_usart/usart_serial.h ****  * usart_serial_options_t).
  71:../../../platform/common/services/serial/megarf_usart/usart_serial.h ****  *
  72:../../../platform/common/services/serial/megarf_usart/usart_serial.h ****  * \retval true if the initialization was successful
  73:../../../platform/common/services/serial/megarf_usart/usart_serial.h ****  * \retval false if initialization failed (error in baud rate calculation)
  74:../../../platform/common/services/serial/megarf_usart/usart_serial.h ****  */
  75:../../../platform/common/services/serial/megarf_usart/usart_serial.h **** static inline bool usart_serial_init(usart_if usart, const
  76:../../../platform/common/services/serial/megarf_usart/usart_serial.h **** 		usart_serial_options_t *options)
  77:../../../platform/common/services/serial/megarf_usart/usart_serial.h **** {
 180               		.loc 3 77 0
 181               		.cfi_startproc
 182 0062 CF93      		push r28
 183               	.LCFI10:
 184               		.cfi_def_cfa_offset 3
 185               		.cfi_offset 28, -2
 186 0064 DF93      		push r29
 187               	.LCFI11:
 188               		.cfi_def_cfa_offset 4
 189               		.cfi_offset 29, -3
 190 0066 CDB7      		in r28,__SP_L__
 191 0068 DEB7      		in r29,__SP_H__
 192               	.LCFI12:
 193               		.cfi_def_cfa_register 28
 194 006a 2B97      		sbiw r28,11
 195               	.LCFI13:
 196               		.cfi_def_cfa_offset 15
 197 006c 0FB6      		in __tmp_reg__,__SREG__
 198 006e F894      		cli
 199 0070 DEBF      		out __SP_H__,r29
 200 0072 0FBE      		out __SREG__,__tmp_reg__
 201 0074 CDBF      		out __SP_L__,r28
 202               	/* prologue: function */
 203               	/* frame size = 11 */
 204               	/* stack size = 13 */
 205               	.L__stack_usage = 13
 206 0076 9987      		std Y+9,r25
 207 0078 8887      		std Y+8,r24
 208 007a 7B87      		std Y+11,r23
 209 007c 6A87      		std Y+10,r22
  78:../../../platform/common/services/serial/megarf_usart/usart_serial.h **** 	/* USART options. */
  79:../../../platform/common/services/serial/megarf_usart/usart_serial.h **** 	usart_rs232_options_t usart_rs232_options;
  80:../../../platform/common/services/serial/megarf_usart/usart_serial.h **** 	usart_rs232_options.charlength   = options->charlength;
 210               		.loc 3 80 0
 211 007e 8A85      		ldd r24,Y+10
 212 0080 9B85      		ldd r25,Y+11
 213 0082 FC01      		movw r30,r24
 214 0084 8481      		ldd r24,Z+4
 215 0086 8D83      		std Y+5,r24
  81:../../../platform/common/services/serial/megarf_usart/usart_serial.h **** 	usart_rs232_options.paritytype   = options->paritytype;
 216               		.loc 3 81 0
 217 0088 8A85      		ldd r24,Y+10
 218 008a 9B85      		ldd r25,Y+11
 219 008c FC01      		movw r30,r24
 220 008e 8581      		ldd r24,Z+5
 221 0090 8E83      		std Y+6,r24
  82:../../../platform/common/services/serial/megarf_usart/usart_serial.h **** 	usart_rs232_options.stopbits     = options->stopbits;
 222               		.loc 3 82 0
 223 0092 8A85      		ldd r24,Y+10
 224 0094 9B85      		ldd r25,Y+11
 225 0096 FC01      		movw r30,r24
 226 0098 8681      		ldd r24,Z+6
 227 009a 8F83      		std Y+7,r24
  83:../../../platform/common/services/serial/megarf_usart/usart_serial.h **** 	usart_rs232_options.baudrate     = options->baudrate;
 228               		.loc 3 83 0
 229 009c 8A85      		ldd r24,Y+10
 230 009e 9B85      		ldd r25,Y+11
 231 00a0 FC01      		movw r30,r24
 232 00a2 8081      		ld r24,Z
 233 00a4 9181      		ldd r25,Z+1
 234 00a6 A281      		ldd r26,Z+2
 235 00a8 B381      		ldd r27,Z+3
 236 00aa 8983      		std Y+1,r24
 237 00ac 9A83      		std Y+2,r25
 238 00ae AB83      		std Y+3,r26
 239 00b0 BC83      		std Y+4,r27
  84:../../../platform/common/services/serial/megarf_usart/usart_serial.h **** 
  85:../../../platform/common/services/serial/megarf_usart/usart_serial.h **** 	if (usart_init_rs232(usart, &usart_rs232_options)) {
 240               		.loc 3 85 0
 241 00b2 8885      		ldd r24,Y+8
 242 00b4 9985      		ldd r25,Y+9
 243 00b6 9E01      		movw r18,r28
 244 00b8 2F5F      		subi r18,-1
 245 00ba 3F4F      		sbci r19,-1
 246 00bc B901      		movw r22,r18
 247 00be 0E94 0000 		call usart_init_rs232
 248 00c2 8823      		tst r24
 249 00c4 01F0      		breq .L7
  86:../../../platform/common/services/serial/megarf_usart/usart_serial.h **** 		return true;
 250               		.loc 3 86 0
 251 00c6 81E0      		ldi r24,lo8(1)
 252 00c8 00C0      		rjmp .L9
 253               	.L7:
  87:../../../platform/common/services/serial/megarf_usart/usart_serial.h **** 	} else {
  88:../../../platform/common/services/serial/megarf_usart/usart_serial.h **** 		return false;
 254               		.loc 3 88 0
 255 00ca 80E0      		ldi r24,0
 256               	.L9:
 257               	/* epilogue start */
  89:../../../platform/common/services/serial/megarf_usart/usart_serial.h **** 	}
  90:../../../platform/common/services/serial/megarf_usart/usart_serial.h **** }
 258               		.loc 3 90 0 discriminator 1
 259 00cc 2B96      		adiw r28,11
 260 00ce 0FB6      		in __tmp_reg__,__SREG__
 261 00d0 F894      		cli
 262 00d2 DEBF      		out __SP_H__,r29
 263 00d4 0FBE      		out __SREG__,__tmp_reg__
 264 00d6 CDBF      		out __SP_L__,r28
 265 00d8 DF91      		pop r29
 266 00da CF91      		pop r28
 267 00dc 0895      		ret
 268               		.cfi_endproc
 269               	.LFE104:
 272               	usart_serial_putchar:
 273               	.LFB105:
  91:../../../platform/common/services/serial/megarf_usart/usart_serial.h **** 
  92:../../../platform/common/services/serial/megarf_usart/usart_serial.h **** /*! \brief Sends a character with the USART.
  93:../../../platform/common/services/serial/megarf_usart/usart_serial.h ****  *
  94:../../../platform/common/services/serial/megarf_usart/usart_serial.h ****  * \param usart   Base address of the USART instance.
  95:../../../platform/common/services/serial/megarf_usart/usart_serial.h ****  * \param c       Character to write.
  96:../../../platform/common/services/serial/megarf_usart/usart_serial.h ****  *
  97:../../../platform/common/services/serial/megarf_usart/usart_serial.h ****  * \return Status code
  98:../../../platform/common/services/serial/megarf_usart/usart_serial.h ****  */
  99:../../../platform/common/services/serial/megarf_usart/usart_serial.h **** static inline status_code_t usart_serial_putchar(usart_if usart, uint8_t c)
 100:../../../platform/common/services/serial/megarf_usart/usart_serial.h **** {
 274               		.loc 3 100 0
 275               		.cfi_startproc
 276 00de CF93      		push r28
 277               	.LCFI14:
 278               		.cfi_def_cfa_offset 3
 279               		.cfi_offset 28, -2
 280 00e0 DF93      		push r29
 281               	.LCFI15:
 282               		.cfi_def_cfa_offset 4
 283               		.cfi_offset 29, -3
 284 00e2 00D0      		rcall .
 285 00e4 1F92      		push __zero_reg__
 286               	.LCFI16:
 287               		.cfi_def_cfa_offset 7
 288 00e6 CDB7      		in r28,__SP_L__
 289 00e8 DEB7      		in r29,__SP_H__
 290               	.LCFI17:
 291               		.cfi_def_cfa_register 28
 292               	/* prologue: function */
 293               	/* frame size = 3 */
 294               	/* stack size = 5 */
 295               	.L__stack_usage = 5
 296 00ea 9A83      		std Y+2,r25
 297 00ec 8983      		std Y+1,r24
 298 00ee 6B83      		std Y+3,r22
 101:../../../platform/common/services/serial/megarf_usart/usart_serial.h **** 	return usart_putchar(usart, c);
 299               		.loc 3 101 0
 300 00f0 8981      		ldd r24,Y+1
 301 00f2 9A81      		ldd r25,Y+2
 302 00f4 6B81      		ldd r22,Y+3
 303 00f6 0E94 0000 		call usart_putchar
 304               	/* epilogue start */
 102:../../../platform/common/services/serial/megarf_usart/usart_serial.h **** }
 305               		.loc 3 102 0
 306 00fa 0F90      		pop __tmp_reg__
 307 00fc 0F90      		pop __tmp_reg__
 308 00fe 0F90      		pop __tmp_reg__
 309 0100 DF91      		pop r29
 310 0102 CF91      		pop r28
 311 0104 0895      		ret
 312               		.cfi_endproc
 313               	.LFE105:
 316               	usart_serial_getchar:
 317               	.LFB106:
 103:../../../platform/common/services/serial/megarf_usart/usart_serial.h **** 
 104:../../../platform/common/services/serial/megarf_usart/usart_serial.h **** /*! \brief Waits until a character is received, and returns it.
 105:../../../platform/common/services/serial/megarf_usart/usart_serial.h ****  *
 106:../../../platform/common/services/serial/megarf_usart/usart_serial.h ****  * \param usart   Base address of the USART instance.
 107:../../../platform/common/services/serial/megarf_usart/usart_serial.h ****  * \param data   Data to read
 108:../../../platform/common/services/serial/megarf_usart/usart_serial.h ****  *
 109:../../../platform/common/services/serial/megarf_usart/usart_serial.h ****  */
 110:../../../platform/common/services/serial/megarf_usart/usart_serial.h **** static inline void usart_serial_getchar(usart_if usart, uint8_t *data)
 111:../../../platform/common/services/serial/megarf_usart/usart_serial.h **** {
 318               		.loc 3 111 0
 319               		.cfi_startproc
 320 0106 CF93      		push r28
 321               	.LCFI18:
 322               		.cfi_def_cfa_offset 3
 323               		.cfi_offset 28, -2
 324 0108 DF93      		push r29
 325               	.LCFI19:
 326               		.cfi_def_cfa_offset 4
 327               		.cfi_offset 29, -3
 328 010a 00D0      		rcall .
 329 010c 00D0      		rcall .
 330               	.LCFI20:
 331               		.cfi_def_cfa_offset 8
 332 010e CDB7      		in r28,__SP_L__
 333 0110 DEB7      		in r29,__SP_H__
 334               	.LCFI21:
 335               		.cfi_def_cfa_register 28
 336               	/* prologue: function */
 337               	/* frame size = 4 */
 338               	/* stack size = 6 */
 339               	.L__stack_usage = 6
 340 0112 9A83      		std Y+2,r25
 341 0114 8983      		std Y+1,r24
 342 0116 7C83      		std Y+4,r23
 343 0118 6B83      		std Y+3,r22
 112:../../../platform/common/services/serial/megarf_usart/usart_serial.h **** 	*data = usart_getchar(usart);
 344               		.loc 3 112 0
 345 011a 8981      		ldd r24,Y+1
 346 011c 9A81      		ldd r25,Y+2
 347 011e 0E94 0000 		call usart_getchar
 348 0122 282F      		mov r18,r24
 349 0124 8B81      		ldd r24,Y+3
 350 0126 9C81      		ldd r25,Y+4
 351 0128 FC01      		movw r30,r24
 352 012a 2083      		st Z,r18
 113:../../../platform/common/services/serial/megarf_usart/usart_serial.h **** }
 353               		.loc 3 113 0
 354 012c 0000      		nop
 355               	/* epilogue start */
 356 012e 0F90      		pop __tmp_reg__
 357 0130 0F90      		pop __tmp_reg__
 358 0132 0F90      		pop __tmp_reg__
 359 0134 0F90      		pop __tmp_reg__
 360 0136 DF91      		pop r29
 361 0138 CF91      		pop r28
 362 013a 0895      		ret
 363               		.cfi_endproc
 364               	.LFE106:
 367               	stdio_serial_init:
 368               	.LFB107:
 369               		.file 4 "../../../platform/common/utils/stdio/stdio_serial/stdio_serial.h"
   1:../../../platform/common/utils/stdio/stdio_serial/stdio_serial.h **** /**
   2:../../../platform/common/utils/stdio/stdio_serial/stdio_serial.h ****  *
   3:../../../platform/common/utils/stdio/stdio_serial/stdio_serial.h ****  * \file
   4:../../../platform/common/utils/stdio/stdio_serial/stdio_serial.h ****  *
   5:../../../platform/common/utils/stdio/stdio_serial/stdio_serial.h ****  * \brief Common Standard I/O Serial Management.
   6:../../../platform/common/utils/stdio/stdio_serial/stdio_serial.h ****  *
   7:../../../platform/common/utils/stdio/stdio_serial/stdio_serial.h ****  * This file defines a useful set of functions for the Stdio Serial interface on AVR
   8:../../../platform/common/utils/stdio/stdio_serial/stdio_serial.h ****  * and SAM devices.
   9:../../../platform/common/utils/stdio/stdio_serial/stdio_serial.h ****  *
  10:../../../platform/common/utils/stdio/stdio_serial/stdio_serial.h ****  * Copyright (c) 2009-2013 Atmel Corporation. All rights reserved.
  11:../../../platform/common/utils/stdio/stdio_serial/stdio_serial.h ****  *
  12:../../../platform/common/utils/stdio/stdio_serial/stdio_serial.h ****  * \asf_license_start
  13:../../../platform/common/utils/stdio/stdio_serial/stdio_serial.h ****  *
  14:../../../platform/common/utils/stdio/stdio_serial/stdio_serial.h ****  * \page License
  15:../../../platform/common/utils/stdio/stdio_serial/stdio_serial.h ****  *
  16:../../../platform/common/utils/stdio/stdio_serial/stdio_serial.h ****  * Redistribution and use in source and binary forms, with or without
  17:../../../platform/common/utils/stdio/stdio_serial/stdio_serial.h ****  * modification, are permitted provided that the following conditions are met:
  18:../../../platform/common/utils/stdio/stdio_serial/stdio_serial.h ****  *
  19:../../../platform/common/utils/stdio/stdio_serial/stdio_serial.h ****  * 1. Redistributions of source code must retain the above copyright notice,
  20:../../../platform/common/utils/stdio/stdio_serial/stdio_serial.h ****  *    this list of conditions and the following disclaimer.
  21:../../../platform/common/utils/stdio/stdio_serial/stdio_serial.h ****  *
  22:../../../platform/common/utils/stdio/stdio_serial/stdio_serial.h ****  * 2. Redistributions in binary form must reproduce the above copyright notice,
  23:../../../platform/common/utils/stdio/stdio_serial/stdio_serial.h ****  *    this list of conditions and the following disclaimer in the documentation
  24:../../../platform/common/utils/stdio/stdio_serial/stdio_serial.h ****  *    and/or other materials provided with the distribution.
  25:../../../platform/common/utils/stdio/stdio_serial/stdio_serial.h ****  *
  26:../../../platform/common/utils/stdio/stdio_serial/stdio_serial.h ****  * 3. The name of Atmel may not be used to endorse or promote products derived
  27:../../../platform/common/utils/stdio/stdio_serial/stdio_serial.h ****  *    from this software without specific prior written permission.
  28:../../../platform/common/utils/stdio/stdio_serial/stdio_serial.h ****  *
  29:../../../platform/common/utils/stdio/stdio_serial/stdio_serial.h ****  * 4. This software may only be redistributed and used in connection with an
  30:../../../platform/common/utils/stdio/stdio_serial/stdio_serial.h ****  *    Atmel microcontroller product.
  31:../../../platform/common/utils/stdio/stdio_serial/stdio_serial.h ****  *
  32:../../../platform/common/utils/stdio/stdio_serial/stdio_serial.h ****  * THIS SOFTWARE IS PROVIDED BY ATMEL "AS IS" AND ANY EXPRESS OR IMPLIED
  33:../../../platform/common/utils/stdio/stdio_serial/stdio_serial.h ****  * WARRANTIES, INCLUDING, BUT NOT LIMITED TO, THE IMPLIED WARRANTIES OF
  34:../../../platform/common/utils/stdio/stdio_serial/stdio_serial.h ****  * MERCHANTABILITY, FITNESS FOR A PARTICULAR PURPOSE AND NON-INFRINGEMENT ARE
  35:../../../platform/common/utils/stdio/stdio_serial/stdio_serial.h ****  * EXPRESSLY AND SPECIFICALLY DISCLAIMED. IN NO EVENT SHALL ATMEL BE LIABLE FOR
  36:../../../platform/common/utils/stdio/stdio_serial/stdio_serial.h ****  * ANY DIRECT, INDIRECT, INCIDENTAL, SPECIAL, EXEMPLARY, OR CONSEQUENTIAL
  37:../../../platform/common/utils/stdio/stdio_serial/stdio_serial.h ****  * DAMAGES (INCLUDING, BUT NOT LIMITED TO, PROCUREMENT OF SUBSTITUTE GOODS
  38:../../../platform/common/utils/stdio/stdio_serial/stdio_serial.h ****  * OR SERVICES; LOSS OF USE, DATA, OR PROFITS; OR BUSINESS INTERRUPTION)
  39:../../../platform/common/utils/stdio/stdio_serial/stdio_serial.h ****  * HOWEVER CAUSED AND ON ANY THEORY OF LIABILITY, WHETHER IN CONTRACT,
  40:../../../platform/common/utils/stdio/stdio_serial/stdio_serial.h ****  * STRICT LIABILITY, OR TORT (INCLUDING NEGLIGENCE OR OTHERWISE) ARISING IN
  41:../../../platform/common/utils/stdio/stdio_serial/stdio_serial.h ****  * ANY WAY OUT OF THE USE OF THIS SOFTWARE, EVEN IF ADVISED OF THE
  42:../../../platform/common/utils/stdio/stdio_serial/stdio_serial.h ****  * POSSIBILITY OF SUCH DAMAGE.
  43:../../../platform/common/utils/stdio/stdio_serial/stdio_serial.h ****  *
  44:../../../platform/common/utils/stdio/stdio_serial/stdio_serial.h ****  * \asf_license_stop
  45:../../../platform/common/utils/stdio/stdio_serial/stdio_serial.h ****  *
  46:../../../platform/common/utils/stdio/stdio_serial/stdio_serial.h ****  ******************************************************************************/
  47:../../../platform/common/utils/stdio/stdio_serial/stdio_serial.h **** 
  48:../../../platform/common/utils/stdio/stdio_serial/stdio_serial.h **** 
  49:../../../platform/common/utils/stdio/stdio_serial/stdio_serial.h **** #ifndef _STDIO_SERIAL_H_
  50:../../../platform/common/utils/stdio/stdio_serial/stdio_serial.h **** #define _STDIO_SERIAL_H_
  51:../../../platform/common/utils/stdio/stdio_serial/stdio_serial.h **** 
  52:../../../platform/common/utils/stdio/stdio_serial/stdio_serial.h **** /**
  53:../../../platform/common/utils/stdio/stdio_serial/stdio_serial.h ****  * \defgroup group_common_utils_stdio_stdio_serial Standard serial I/O (stdio)
  54:../../../platform/common/utils/stdio/stdio_serial/stdio_serial.h ****  * \ingroup group_common_utils_stdio
  55:../../../platform/common/utils/stdio/stdio_serial/stdio_serial.h ****  *
  56:../../../platform/common/utils/stdio/stdio_serial/stdio_serial.h ****  * Common standard serial I/O management driver that
  57:../../../platform/common/utils/stdio/stdio_serial/stdio_serial.h ****  * implements a stdio serial interface on AVR and SAM devices.
  58:../../../platform/common/utils/stdio/stdio_serial/stdio_serial.h ****  *
  59:../../../platform/common/utils/stdio/stdio_serial/stdio_serial.h ****  * \{
  60:../../../platform/common/utils/stdio/stdio_serial/stdio_serial.h ****  */
  61:../../../platform/common/utils/stdio/stdio_serial/stdio_serial.h **** 
  62:../../../platform/common/utils/stdio/stdio_serial/stdio_serial.h **** #include <stdio.h>
  63:../../../platform/common/utils/stdio/stdio_serial/stdio_serial.h **** #include "compiler.h"
  64:../../../platform/common/utils/stdio/stdio_serial/stdio_serial.h **** #ifndef SAMD20
  65:../../../platform/common/utils/stdio/stdio_serial/stdio_serial.h **** # include "sysclk.h"
  66:../../../platform/common/utils/stdio/stdio_serial/stdio_serial.h **** #endif
  67:../../../platform/common/utils/stdio/stdio_serial/stdio_serial.h **** #include "serial.h"
  68:../../../platform/common/utils/stdio/stdio_serial/stdio_serial.h **** 
  69:../../../platform/common/utils/stdio/stdio_serial/stdio_serial.h **** #if (XMEGA || MEGA_RF) && defined(__GNUC__)
  70:../../../platform/common/utils/stdio/stdio_serial/stdio_serial.h **** 	extern int _write (char c, int *f);
  71:../../../platform/common/utils/stdio/stdio_serial/stdio_serial.h **** 	extern int _read (int *f);
  72:../../../platform/common/utils/stdio/stdio_serial/stdio_serial.h **** #endif
  73:../../../platform/common/utils/stdio/stdio_serial/stdio_serial.h **** 
  74:../../../platform/common/utils/stdio/stdio_serial/stdio_serial.h **** 
  75:../../../platform/common/utils/stdio/stdio_serial/stdio_serial.h **** //! Pointer to the base of the USART module instance to use for stdio.
  76:../../../platform/common/utils/stdio/stdio_serial/stdio_serial.h **** extern volatile void *volatile stdio_base;
  77:../../../platform/common/utils/stdio/stdio_serial/stdio_serial.h **** //! Pointer to the external low level write function.
  78:../../../platform/common/utils/stdio/stdio_serial/stdio_serial.h **** extern int (*ptr_put)(void volatile*, char);
  79:../../../platform/common/utils/stdio/stdio_serial/stdio_serial.h **** 
  80:../../../platform/common/utils/stdio/stdio_serial/stdio_serial.h **** //! Pointer to the external low level read function.
  81:../../../platform/common/utils/stdio/stdio_serial/stdio_serial.h **** extern void (*ptr_get)(void volatile*, char*);
  82:../../../platform/common/utils/stdio/stdio_serial/stdio_serial.h **** 
  83:../../../platform/common/utils/stdio/stdio_serial/stdio_serial.h **** /*! \brief Initializes the stdio in Serial Mode.
  84:../../../platform/common/utils/stdio/stdio_serial/stdio_serial.h ****  *
  85:../../../platform/common/utils/stdio/stdio_serial/stdio_serial.h ****  * \param usart       Base address of the USART instance.
  86:../../../platform/common/utils/stdio/stdio_serial/stdio_serial.h ****  * \param opt         Options needed to set up RS232 communication (see \ref usart_options_t).
  87:../../../platform/common/utils/stdio/stdio_serial/stdio_serial.h ****  *
  88:../../../platform/common/utils/stdio/stdio_serial/stdio_serial.h ****  */
  89:../../../platform/common/utils/stdio/stdio_serial/stdio_serial.h **** static inline void stdio_serial_init(volatile void *usart, const usart_serial_options_t *opt)
  90:../../../platform/common/utils/stdio/stdio_serial/stdio_serial.h **** {
 370               		.loc 4 90 0
 371               		.cfi_startproc
 372 013c CF93      		push r28
 373               	.LCFI22:
 374               		.cfi_def_cfa_offset 3
 375               		.cfi_offset 28, -2
 376 013e DF93      		push r29
 377               	.LCFI23:
 378               		.cfi_def_cfa_offset 4
 379               		.cfi_offset 29, -3
 380 0140 00D0      		rcall .
 381 0142 00D0      		rcall .
 382               	.LCFI24:
 383               		.cfi_def_cfa_offset 8
 384 0144 CDB7      		in r28,__SP_L__
 385 0146 DEB7      		in r29,__SP_H__
 386               	.LCFI25:
 387               		.cfi_def_cfa_register 28
 388               	/* prologue: function */
 389               	/* frame size = 4 */
 390               	/* stack size = 6 */
 391               	.L__stack_usage = 6
 392 0148 9A83      		std Y+2,r25
 393 014a 8983      		std Y+1,r24
 394 014c 7C83      		std Y+4,r23
 395 014e 6B83      		std Y+3,r22
  91:../../../platform/common/utils/stdio/stdio_serial/stdio_serial.h **** 	stdio_base = (void *)usart;
 396               		.loc 4 91 0
 397 0150 8981      		ldd r24,Y+1
 398 0152 9A81      		ldd r25,Y+2
 399 0154 9093 0000 		sts stdio_base+1,r25
 400 0158 8093 0000 		sts stdio_base,r24
  92:../../../platform/common/utils/stdio/stdio_serial/stdio_serial.h **** 	ptr_put = (int (*)(void volatile*,char))&usart_serial_putchar;
 401               		.loc 4 92 0
 402 015c 80E0      		ldi r24,lo8(gs(usart_serial_putchar))
 403 015e 90E0      		ldi r25,hi8(gs(usart_serial_putchar))
 404 0160 9093 0000 		sts ptr_put+1,r25
 405 0164 8093 0000 		sts ptr_put,r24
  93:../../../platform/common/utils/stdio/stdio_serial/stdio_serial.h **** 	ptr_get = (void (*)(void volatile*,char*))&usart_serial_getchar;
 406               		.loc 4 93 0
 407 0168 80E0      		ldi r24,lo8(gs(usart_serial_getchar))
 408 016a 90E0      		ldi r25,hi8(gs(usart_serial_getchar))
 409 016c 9093 0000 		sts ptr_get+1,r25
 410 0170 8093 0000 		sts ptr_get,r24
  94:../../../platform/common/utils/stdio/stdio_serial/stdio_serial.h **** # if (XMEGA || MEGA_RF)
  95:../../../platform/common/utils/stdio/stdio_serial/stdio_serial.h **** 	usart_serial_init((USART_t *)usart,opt);
 411               		.loc 4 95 0
 412 0174 2B81      		ldd r18,Y+3
 413 0176 3C81      		ldd r19,Y+4
 414 0178 8981      		ldd r24,Y+1
 415 017a 9A81      		ldd r25,Y+2
 416 017c B901      		movw r22,r18
 417 017e 0E94 0000 		call usart_serial_init
  96:../../../platform/common/utils/stdio/stdio_serial/stdio_serial.h **** # elif UC3
  97:../../../platform/common/utils/stdio/stdio_serial/stdio_serial.h **** 	usart_serial_init(usart,(usart_serial_options_t *)opt);
  98:../../../platform/common/utils/stdio/stdio_serial/stdio_serial.h **** # elif SAM
  99:../../../platform/common/utils/stdio/stdio_serial/stdio_serial.h **** 	usart_serial_init((Usart *)usart,(usart_serial_options_t *)opt);
 100:../../../platform/common/utils/stdio/stdio_serial/stdio_serial.h **** # else
 101:../../../platform/common/utils/stdio/stdio_serial/stdio_serial.h **** #  error Unsupported chip type
 102:../../../platform/common/utils/stdio/stdio_serial/stdio_serial.h **** # endif
 103:../../../platform/common/utils/stdio/stdio_serial/stdio_serial.h **** 
 104:../../../platform/common/utils/stdio/stdio_serial/stdio_serial.h **** # if defined(__GNUC__)
 105:../../../platform/common/utils/stdio/stdio_serial/stdio_serial.h **** #  if (XMEGA || MEGA_RF)
 106:../../../platform/common/utils/stdio/stdio_serial/stdio_serial.h **** 	// For AVR GCC libc print redirection uses fdevopen.
 107:../../../platform/common/utils/stdio/stdio_serial/stdio_serial.h **** 	fdevopen((int (*)(char, FILE*))(_write),(int (*)(FILE*))(_read));
 418               		.loc 4 107 0
 419 0182 60E0      		ldi r22,lo8(gs(_read))
 420 0184 70E0      		ldi r23,hi8(gs(_read))
 421 0186 80E0      		ldi r24,lo8(gs(_write))
 422 0188 90E0      		ldi r25,hi8(gs(_write))
 423 018a 0E94 0000 		call fdevopen
 108:../../../platform/common/utils/stdio/stdio_serial/stdio_serial.h **** #  endif
 109:../../../platform/common/utils/stdio/stdio_serial/stdio_serial.h **** #  if UC3 || SAM
 110:../../../platform/common/utils/stdio/stdio_serial/stdio_serial.h **** 	// For AVR32 and SAM GCC
 111:../../../platform/common/utils/stdio/stdio_serial/stdio_serial.h **** 	// Specify that stdout and stdin should not be buffered.
 112:../../../platform/common/utils/stdio/stdio_serial/stdio_serial.h **** 	setbuf(stdout, NULL);
 113:../../../platform/common/utils/stdio/stdio_serial/stdio_serial.h **** 	setbuf(stdin, NULL);
 114:../../../platform/common/utils/stdio/stdio_serial/stdio_serial.h **** 	// Note: Already the case in IAR's Normal DLIB default configuration
 115:../../../platform/common/utils/stdio/stdio_serial/stdio_serial.h **** 	// and AVR GCC library:
 116:../../../platform/common/utils/stdio/stdio_serial/stdio_serial.h **** 	// - printf() emits one character at a time.
 117:../../../platform/common/utils/stdio/stdio_serial/stdio_serial.h **** 	// - getchar() requests only 1 byte to exit.
 118:../../../platform/common/utils/stdio/stdio_serial/stdio_serial.h **** #  endif
 119:../../../platform/common/utils/stdio/stdio_serial/stdio_serial.h **** # endif
 120:../../../platform/common/utils/stdio/stdio_serial/stdio_serial.h **** }
 424               		.loc 4 120 0
 425 018e 0000      		nop
 426               	/* epilogue start */
 427 0190 0F90      		pop __tmp_reg__
 428 0192 0F90      		pop __tmp_reg__
 429 0194 0F90      		pop __tmp_reg__
 430 0196 0F90      		pop __tmp_reg__
 431 0198 DF91      		pop r29
 432 019a CF91      		pop r28
 433 019c 0895      		ret
 434               		.cfi_endproc
 435               	.LFE107:
 438               	macsc_enable_manual_bts:
 439               	.LFB121:
 440               		.file 5 "../../../platform/mega_rf/drivers/macsc/macsc_megarf.h"
   1:../../../platform/mega_rf/drivers/macsc/macsc_megarf.h **** /**
   2:../../../platform/mega_rf/drivers/macsc/macsc_megarf.h ****  * \file
   3:../../../platform/mega_rf/drivers/macsc/macsc_megarf.h ****  *
   4:../../../platform/mega_rf/drivers/macsc/macsc_megarf.h ****  * \brief AVR MEGARF MAC Symbol Counter Driver Definitions
   5:../../../platform/mega_rf/drivers/macsc/macsc_megarf.h ****  *
   6:../../../platform/mega_rf/drivers/macsc/macsc_megarf.h ****  * Copyright (c) 2013 Atmel Corporation. All rights reserved.
   7:../../../platform/mega_rf/drivers/macsc/macsc_megarf.h ****  *
   8:../../../platform/mega_rf/drivers/macsc/macsc_megarf.h ****  * \asf_license_start
   9:../../../platform/mega_rf/drivers/macsc/macsc_megarf.h ****  *
  10:../../../platform/mega_rf/drivers/macsc/macsc_megarf.h ****  * \page License
  11:../../../platform/mega_rf/drivers/macsc/macsc_megarf.h ****  *
  12:../../../platform/mega_rf/drivers/macsc/macsc_megarf.h ****  * Redistribution and use in source and binary forms, with or without
  13:../../../platform/mega_rf/drivers/macsc/macsc_megarf.h ****  * modification, are permitted provided that the following conditions are met:
  14:../../../platform/mega_rf/drivers/macsc/macsc_megarf.h ****  *
  15:../../../platform/mega_rf/drivers/macsc/macsc_megarf.h ****  * 1. Redistributions of source code must retain the above copyright notice,
  16:../../../platform/mega_rf/drivers/macsc/macsc_megarf.h ****  *    this list of conditions and the following disclaimer.
  17:../../../platform/mega_rf/drivers/macsc/macsc_megarf.h ****  *
  18:../../../platform/mega_rf/drivers/macsc/macsc_megarf.h ****  * 2. Redistributions in binary form must reproduce the above copyright notice,
  19:../../../platform/mega_rf/drivers/macsc/macsc_megarf.h ****  *    this list of conditions and the following disclaimer in the documentation
  20:../../../platform/mega_rf/drivers/macsc/macsc_megarf.h ****  *    and/or other materials provided with the distribution.
  21:../../../platform/mega_rf/drivers/macsc/macsc_megarf.h ****  *
  22:../../../platform/mega_rf/drivers/macsc/macsc_megarf.h ****  * 3. The name of Atmel may not be used to endorse or promote products derived
  23:../../../platform/mega_rf/drivers/macsc/macsc_megarf.h ****  *    from this software without specific prior written permission.
  24:../../../platform/mega_rf/drivers/macsc/macsc_megarf.h ****  *
  25:../../../platform/mega_rf/drivers/macsc/macsc_megarf.h ****  * 4. This software may only be redistributed and used in connection with an
  26:../../../platform/mega_rf/drivers/macsc/macsc_megarf.h ****  *    Atmel microcontroller product.
  27:../../../platform/mega_rf/drivers/macsc/macsc_megarf.h ****  *
  28:../../../platform/mega_rf/drivers/macsc/macsc_megarf.h ****  * THIS SOFTWARE IS PROVIDED BY ATMEL "AS IS" AND ANY EXPRESS OR IMPLIED
  29:../../../platform/mega_rf/drivers/macsc/macsc_megarf.h ****  * WARRANTIES, INCLUDING, BUT NOT LIMITED TO, THE IMPLIED WARRANTIES OF
  30:../../../platform/mega_rf/drivers/macsc/macsc_megarf.h ****  * MERCHANTABILITY, FITNESS FOR A PARTICULAR PURPOSE AND NON-INFRINGEMENT ARE
  31:../../../platform/mega_rf/drivers/macsc/macsc_megarf.h ****  * EXPRESSLY AND SPECIFICALLY DISCLAIMED. IN NO EVENT SHALL ATMEL BE LIABLE FOR
  32:../../../platform/mega_rf/drivers/macsc/macsc_megarf.h ****  * ANY DIRECT, INDIRECT, INCIDENTAL, SPECIAL, EXEMPLARY, OR CONSEQUENTIAL
  33:../../../platform/mega_rf/drivers/macsc/macsc_megarf.h ****  * DAMAGES (INCLUDING, BUT NOT LIMITED TO, PROCUREMENT OF SUBSTITUTE GOODS
  34:../../../platform/mega_rf/drivers/macsc/macsc_megarf.h ****  * OR SERVICES; LOSS OF USE, DATA, OR PROFITS; OR BUSINESS INTERRUPTION)
  35:../../../platform/mega_rf/drivers/macsc/macsc_megarf.h ****  * HOWEVER CAUSED AND ON ANY THEORY OF LIABILITY, WHETHER IN CONTRACT,
  36:../../../platform/mega_rf/drivers/macsc/macsc_megarf.h ****  * STRICT LIABILITY, OR TORT (INCLUDING NEGLIGENCE OR OTHERWISE) ARISING IN
  37:../../../platform/mega_rf/drivers/macsc/macsc_megarf.h ****  * ANY WAY OUT OF THE USE OF THIS SOFTWARE, EVEN IF ADVISED OF THE
  38:../../../platform/mega_rf/drivers/macsc/macsc_megarf.h ****  * POSSIBILITY OF SUCH DAMAGE.
  39:../../../platform/mega_rf/drivers/macsc/macsc_megarf.h ****  *
  40:../../../platform/mega_rf/drivers/macsc/macsc_megarf.h ****  * \asf_license_stop
  41:../../../platform/mega_rf/drivers/macsc/macsc_megarf.h ****  *
  42:../../../platform/mega_rf/drivers/macsc/macsc_megarf.h ****  */
  43:../../../platform/mega_rf/drivers/macsc/macsc_megarf.h **** #ifndef MACSC_MEGARF_H
  44:../../../platform/mega_rf/drivers/macsc/macsc_megarf.h **** #define MACSC_MEGARF_H
  45:../../../platform/mega_rf/drivers/macsc/macsc_megarf.h **** 
  46:../../../platform/mega_rf/drivers/macsc/macsc_megarf.h **** #include <compiler.h>
  47:../../../platform/mega_rf/drivers/macsc/macsc_megarf.h **** #include <parts.h>
  48:../../../platform/mega_rf/drivers/macsc/macsc_megarf.h **** #include "status_codes.h"
  49:../../../platform/mega_rf/drivers/macsc/macsc_megarf.h **** 
  50:../../../platform/mega_rf/drivers/macsc/macsc_megarf.h **** #ifdef __cplusplus
  51:../../../platform/mega_rf/drivers/macsc/macsc_megarf.h **** extern "C" {
  52:../../../platform/mega_rf/drivers/macsc/macsc_megarf.h **** #endif
  53:../../../platform/mega_rf/drivers/macsc/macsc_megarf.h **** 
  54:../../../platform/mega_rf/drivers/macsc/macsc_megarf.h **** /**
  55:../../../platform/mega_rf/drivers/macsc/macsc_megarf.h ****  * \defgroup macsc_group MAC Symbol Counter Driver(MACSC)
  56:../../../platform/mega_rf/drivers/macsc/macsc_megarf.h ****  *
  57:../../../platform/mega_rf/drivers/macsc/macsc_megarf.h ****  * See \ref megarf_macsc_quickstart
  58:../../../platform/mega_rf/drivers/macsc/macsc_megarf.h ****  *
  59:../../../platform/mega_rf/drivers/macsc/macsc_megarf.h ****  * This is a driver for the AVR MEGARF MAC Symbol Counter Driver(MACSC).
  60:../../../platform/mega_rf/drivers/macsc/macsc_megarf.h ****  * It provides functions for enabling, disabling and configuring the module.
  61:../../../platform/mega_rf/drivers/macsc/macsc_megarf.h ****  *
  62:../../../platform/mega_rf/drivers/macsc/macsc_megarf.h ****  * \section dependencies Dependencies
  63:../../../platform/mega_rf/drivers/macsc/macsc_megarf.h ****  * This driver depends on the following modules:
  64:../../../platform/mega_rf/drivers/macsc/macsc_megarf.h ****  * - \ref interrupt_group for ISR definition and disabling interrupts during
  65:../../../platform/mega_rf/drivers/macsc/macsc_megarf.h ****  * critical code sections.
  66:../../../platform/mega_rf/drivers/macsc/macsc_megarf.h ****  * @{
  67:../../../platform/mega_rf/drivers/macsc/macsc_megarf.h ****  */
  68:../../../platform/mega_rf/drivers/macsc/macsc_megarf.h **** 
  69:../../../platform/mega_rf/drivers/macsc/macsc_megarf.h **** /**
  70:../../../platform/mega_rf/drivers/macsc/macsc_megarf.h ****  * \brief Interrupt event callback function type
  71:../../../platform/mega_rf/drivers/macsc/macsc_megarf.h ****  *
  72:../../../platform/mega_rf/drivers/macsc/macsc_megarf.h ****  * The interrupt handler can be configured to do a function callback,
  73:../../../platform/mega_rf/drivers/macsc/macsc_megarf.h ****  * the callback function must match the macsc_callback_t type.
  74:../../../platform/mega_rf/drivers/macsc/macsc_megarf.h ****  *
  75:../../../platform/mega_rf/drivers/macsc/macsc_megarf.h ****  */
  76:../../../platform/mega_rf/drivers/macsc/macsc_megarf.h **** typedef void (*macsc_callback_t)(void);
  77:../../../platform/mega_rf/drivers/macsc/macsc_megarf.h **** 
  78:../../../platform/mega_rf/drivers/macsc/macsc_megarf.h **** /* ! MAC symbol counter compare Channel index */
  79:../../../platform/mega_rf/drivers/macsc/macsc_megarf.h **** enum macsc_cc_channel {
  80:../../../platform/mega_rf/drivers/macsc/macsc_megarf.h **** 	/* ! Channel 1 */
  81:../../../platform/mega_rf/drivers/macsc/macsc_megarf.h **** 	MACSC_CC1 = 1,
  82:../../../platform/mega_rf/drivers/macsc/macsc_megarf.h **** 	/* ! Channel 2 */
  83:../../../platform/mega_rf/drivers/macsc/macsc_megarf.h **** 	MACSC_CC2 = 2,
  84:../../../platform/mega_rf/drivers/macsc/macsc_megarf.h **** 	/* ! Channel 3 */
  85:../../../platform/mega_rf/drivers/macsc/macsc_megarf.h **** 	MACSC_CC3 = 3,
  86:../../../platform/mega_rf/drivers/macsc/macsc_megarf.h **** };
  87:../../../platform/mega_rf/drivers/macsc/macsc_megarf.h **** /**
  88:../../../platform/mega_rf/drivers/macsc/macsc_megarf.h ****  * \brief MAC SC clock source select
  89:../../../platform/mega_rf/drivers/macsc/macsc_megarf.h ****  *
  90:../../../platform/mega_rf/drivers/macsc/macsc_megarf.h ****  * uses the SCCKSEL bit in SSCR register to select macsc clk src
  91:../../../platform/mega_rf/drivers/macsc/macsc_megarf.h ****  *
  92:../../../platform/mega_rf/drivers/macsc/macsc_megarf.h ****  * If the bit is one,the RTC clock from TOSC1 is selected, otherwise the symbol
  93:../../../platform/mega_rf/drivers/macsc/macsc_megarf.h ****  * counter operates with the clock from XTAL1.
  94:../../../platform/mega_rf/drivers/macsc/macsc_megarf.h ****  * During transceiver sleep modes the clock falls back to the RTC clock source,
  95:../../../platform/mega_rf/drivers/macsc/macsc_megarf.h ****  * regardless of the selected clock. After wakeup, it switches back to the
  96:../../../platform/mega_rf/drivers/macsc/macsc_megarf.h ****  * previosly
  97:../../../platform/mega_rf/drivers/macsc/macsc_megarf.h ****  * selected clock source.
  98:../../../platform/mega_rf/drivers/macsc/macsc_megarf.h ****  */
  99:../../../platform/mega_rf/drivers/macsc/macsc_megarf.h **** 
 100:../../../platform/mega_rf/drivers/macsc/macsc_megarf.h **** enum macsc_xtal {
 101:../../../platform/mega_rf/drivers/macsc/macsc_megarf.h **** 	/* ! 16MHz as macsc clock */
 102:../../../platform/mega_rf/drivers/macsc/macsc_megarf.h **** 	MACSC_16MHz = 0,
 103:../../../platform/mega_rf/drivers/macsc/macsc_megarf.h **** 	MACSC_32KHz = 1,
 104:../../../platform/mega_rf/drivers/macsc/macsc_megarf.h **** };
 105:../../../platform/mega_rf/drivers/macsc/macsc_megarf.h **** 
 106:../../../platform/mega_rf/drivers/macsc/macsc_megarf.h **** /**
 107:../../../platform/mega_rf/drivers/macsc/macsc_megarf.h ****  * @brief Reads the 32-bit timer register in the required order of bytes
 108:../../../platform/mega_rf/drivers/macsc/macsc_megarf.h ****  *
 109:../../../platform/mega_rf/drivers/macsc/macsc_megarf.h ****  * @param hh hh octet of 32-bit register
 110:../../../platform/mega_rf/drivers/macsc/macsc_megarf.h ****  * @param hl hl octet of 32-bit register
 111:../../../platform/mega_rf/drivers/macsc/macsc_megarf.h ****  * @param lh lh octet of 32-bit register
 112:../../../platform/mega_rf/drivers/macsc/macsc_megarf.h ****  * @param ll ll octet of 32-bit register
 113:../../../platform/mega_rf/drivers/macsc/macsc_megarf.h ****  *
 114:../../../platform/mega_rf/drivers/macsc/macsc_megarf.h ****  * @returns uint32_t Value of timer register
 115:../../../platform/mega_rf/drivers/macsc/macsc_megarf.h ****  */
 116:../../../platform/mega_rf/drivers/macsc/macsc_megarf.h **** static inline uint32_t macsc_read32(volatile uint8_t *hh,
 117:../../../platform/mega_rf/drivers/macsc/macsc_megarf.h **** 		volatile uint8_t *hl,
 118:../../../platform/mega_rf/drivers/macsc/macsc_megarf.h **** 		volatile uint8_t *lh,
 119:../../../platform/mega_rf/drivers/macsc/macsc_megarf.h **** 		volatile uint8_t *ll)
 120:../../../platform/mega_rf/drivers/macsc/macsc_megarf.h **** {
 121:../../../platform/mega_rf/drivers/macsc/macsc_megarf.h **** 	union {
 122:../../../platform/mega_rf/drivers/macsc/macsc_megarf.h **** 		uint8_t a[4];
 123:../../../platform/mega_rf/drivers/macsc/macsc_megarf.h **** 		uint32_t rv;
 124:../../../platform/mega_rf/drivers/macsc/macsc_megarf.h **** 	}
 125:../../../platform/mega_rf/drivers/macsc/macsc_megarf.h **** 	x;
 126:../../../platform/mega_rf/drivers/macsc/macsc_megarf.h **** 
 127:../../../platform/mega_rf/drivers/macsc/macsc_megarf.h **** 	x.a[0] = *ll;
 128:../../../platform/mega_rf/drivers/macsc/macsc_megarf.h **** 	x.a[1] = *lh;
 129:../../../platform/mega_rf/drivers/macsc/macsc_megarf.h **** 	x.a[2] = *hl;
 130:../../../platform/mega_rf/drivers/macsc/macsc_megarf.h **** 	x.a[3] = *hh;
 131:../../../platform/mega_rf/drivers/macsc/macsc_megarf.h **** 
 132:../../../platform/mega_rf/drivers/macsc/macsc_megarf.h **** 	return x.rv;
 133:../../../platform/mega_rf/drivers/macsc/macsc_megarf.h **** }
 134:../../../platform/mega_rf/drivers/macsc/macsc_megarf.h **** 
 135:../../../platform/mega_rf/drivers/macsc/macsc_megarf.h **** /* ! compare modes */
 136:../../../platform/mega_rf/drivers/macsc/macsc_megarf.h **** #define MACSC_ABSOLUTE_CMP 0
 137:../../../platform/mega_rf/drivers/macsc/macsc_megarf.h **** #define MACSC_RELATIVE_CMP 1
 138:../../../platform/mega_rf/drivers/macsc/macsc_megarf.h **** 
 139:../../../platform/mega_rf/drivers/macsc/macsc_megarf.h **** /** String concatenation by preprocessor used to create proper register names.
 140:../../../platform/mega_rf/drivers/macsc/macsc_megarf.h ****  **/
 141:../../../platform/mega_rf/drivers/macsc/macsc_megarf.h **** #define CONCAT(a, b) a ## b
 142:../../../platform/mega_rf/drivers/macsc/macsc_megarf.h **** 
 143:../../../platform/mega_rf/drivers/macsc/macsc_megarf.h **** /** Creates proper subregister names and reads the corresponding values. */
 144:../../../platform/mega_rf/drivers/macsc/macsc_megarf.h **** #define MACSC_READ32(reg)                  macsc_read32(&CONCAT(reg, HH), \
 145:../../../platform/mega_rf/drivers/macsc/macsc_megarf.h **** 		&CONCAT(reg, HL), \
 146:../../../platform/mega_rf/drivers/macsc/macsc_megarf.h **** 		&CONCAT(reg, LH), \
 147:../../../platform/mega_rf/drivers/macsc/macsc_megarf.h **** 		&CONCAT(reg, LL))
 148:../../../platform/mega_rf/drivers/macsc/macsc_megarf.h **** 
 149:../../../platform/mega_rf/drivers/macsc/macsc_megarf.h **** #define MACSC_WRITE32(reg, val)	\
 150:../../../platform/mega_rf/drivers/macsc/macsc_megarf.h **** 	do { \
 151:../../../platform/mega_rf/drivers/macsc/macsc_megarf.h **** 		union { uint8_t a[4]; uint32_t v; } \
 152:../../../platform/mega_rf/drivers/macsc/macsc_megarf.h **** 		x; \
 153:../../../platform/mega_rf/drivers/macsc/macsc_megarf.h **** 		x.v = val; \
 154:../../../platform/mega_rf/drivers/macsc/macsc_megarf.h **** 		CONCAT(reg, HH) = x.a[3]; \
 155:../../../platform/mega_rf/drivers/macsc/macsc_megarf.h **** 		CONCAT(reg, HL) = x.a[2]; \
 156:../../../platform/mega_rf/drivers/macsc/macsc_megarf.h **** 		CONCAT(reg, LH) = x.a[1]; \
 157:../../../platform/mega_rf/drivers/macsc/macsc_megarf.h **** 		CONCAT(reg, LL) = x.a[0]; \
 158:../../../platform/mega_rf/drivers/macsc/macsc_megarf.h **** 	} \
 159:../../../platform/mega_rf/drivers/macsc/macsc_megarf.h **** 	while (0)
 160:../../../platform/mega_rf/drivers/macsc/macsc_megarf.h **** 
 161:../../../platform/mega_rf/drivers/macsc/macsc_megarf.h **** /**
 162:../../../platform/mega_rf/drivers/macsc/macsc_megarf.h ****  * \brief Enable MAC SC
 163:../../../platform/mega_rf/drivers/macsc/macsc_megarf.h ****  *
 164:../../../platform/mega_rf/drivers/macsc/macsc_megarf.h ****  * Enables the SC
 165:../../../platform/mega_rf/drivers/macsc/macsc_megarf.h ****  *
 166:../../../platform/mega_rf/drivers/macsc/macsc_megarf.h ****  * \param clk_src selection of clk source,avalable options in macsc_xtal,fixed
 167:../../../platform/mega_rf/drivers/macsc/macsc_megarf.h ****  *  prescalar
 168:../../../platform/mega_rf/drivers/macsc/macsc_megarf.h ****  * \param sleep_enable enable RTC as clock source during sleep
 169:../../../platform/mega_rf/drivers/macsc/macsc_megarf.h ****  * \param auto_ts enable automatic timestamping
 170:../../../platform/mega_rf/drivers/macsc/macsc_megarf.h ****  *
 171:../../../platform/mega_rf/drivers/macsc/macsc_megarf.h ****  */
 172:../../../platform/mega_rf/drivers/macsc/macsc_megarf.h **** void macsc_enable(void);
 173:../../../platform/mega_rf/drivers/macsc/macsc_megarf.h **** 
 174:../../../platform/mega_rf/drivers/macsc/macsc_megarf.h **** /**
 175:../../../platform/mega_rf/drivers/macsc/macsc_megarf.h ****  * \brief Check if MACSC is enabled
 176:../../../platform/mega_rf/drivers/macsc/macsc_megarf.h ****  *
 177:../../../platform/mega_rf/drivers/macsc/macsc_megarf.h ****  * check if the MACSC is enabled.
 178:../../../platform/mega_rf/drivers/macsc/macsc_megarf.h ****  *
 179:../../../platform/mega_rf/drivers/macsc/macsc_megarf.h ****  * \param none
 180:../../../platform/mega_rf/drivers/macsc/macsc_megarf.h ****  *
 181:../../../platform/mega_rf/drivers/macsc/macsc_megarf.h ****  */
 182:../../../platform/mega_rf/drivers/macsc/macsc_megarf.h **** bool is_macsc_enable(void);
 183:../../../platform/mega_rf/drivers/macsc/macsc_megarf.h **** 
 184:../../../platform/mega_rf/drivers/macsc/macsc_megarf.h **** /**
 185:../../../platform/mega_rf/drivers/macsc/macsc_megarf.h ****  * \brief Disable MAC SC
 186:../../../platform/mega_rf/drivers/macsc/macsc_megarf.h ****  *
 187:../../../platform/mega_rf/drivers/macsc/macsc_megarf.h ****  * Disables the MAC SC
 188:../../../platform/mega_rf/drivers/macsc/macsc_megarf.h ****  *
 189:../../../platform/mega_rf/drivers/macsc/macsc_megarf.h ****  * \param none
 190:../../../platform/mega_rf/drivers/macsc/macsc_megarf.h ****  *
 191:../../../platform/mega_rf/drivers/macsc/macsc_megarf.h ****  */
 192:../../../platform/mega_rf/drivers/macsc/macsc_megarf.h **** void macsc_disable(void);
 193:../../../platform/mega_rf/drivers/macsc/macsc_megarf.h **** 
 194:../../../platform/mega_rf/drivers/macsc/macsc_megarf.h **** /**
 195:../../../platform/mega_rf/drivers/macsc/macsc_megarf.h ****  * \brief Check if back-off slot counter is enabled
 196:../../../platform/mega_rf/drivers/macsc/macsc_megarf.h ****  *
 197:../../../platform/mega_rf/drivers/macsc/macsc_megarf.h ****  * check if the back-off slot counter is enabled.
 198:../../../platform/mega_rf/drivers/macsc/macsc_megarf.h ****  *
 199:../../../platform/mega_rf/drivers/macsc/macsc_megarf.h ****  * \param none
 200:../../../platform/mega_rf/drivers/macsc/macsc_megarf.h ****  *
 201:../../../platform/mega_rf/drivers/macsc/macsc_megarf.h ****  */
 202:../../../platform/mega_rf/drivers/macsc/macsc_megarf.h **** bool is_macsc_backoff_enable(void);
 203:../../../platform/mega_rf/drivers/macsc/macsc_megarf.h **** 
 204:../../../platform/mega_rf/drivers/macsc/macsc_megarf.h **** /**
 205:../../../platform/mega_rf/drivers/macsc/macsc_megarf.h ****  * \brief Enables compare interrupts of the MACSC
 206:../../../platform/mega_rf/drivers/macsc/macsc_megarf.h ****  *
 207:../../../platform/mega_rf/drivers/macsc/macsc_megarf.h ****  * \param channel Compare channel
 208:../../../platform/mega_rf/drivers/macsc/macsc_megarf.h ****  */
 209:../../../platform/mega_rf/drivers/macsc/macsc_megarf.h **** void macsc_enable_cmp_int(enum macsc_cc_channel channel);
 210:../../../platform/mega_rf/drivers/macsc/macsc_megarf.h **** 
 211:../../../platform/mega_rf/drivers/macsc/macsc_megarf.h **** /**
 212:../../../platform/mega_rf/drivers/macsc/macsc_megarf.h ****  * \brief Disables compare interrupts of the MACSC
 213:../../../platform/mega_rf/drivers/macsc/macsc_megarf.h ****  *
 214:../../../platform/mega_rf/drivers/macsc/macsc_megarf.h ****  * \param channel Compare channel
 215:../../../platform/mega_rf/drivers/macsc/macsc_megarf.h ****  */void macsc_disable_cmp_int(enum macsc_cc_channel channel);
 216:../../../platform/mega_rf/drivers/macsc/macsc_megarf.h **** 
 217:../../../platform/mega_rf/drivers/macsc/macsc_megarf.h **** /**
 218:../../../platform/mega_rf/drivers/macsc/macsc_megarf.h ****  * \brief Usage of Absolute compare mode of the MACSC
 219:../../../platform/mega_rf/drivers/macsc/macsc_megarf.h ****  *
 220:../../../platform/mega_rf/drivers/macsc/macsc_megarf.h ****  * \param abs_rel  0 for absoulte cmp;1 for relative cmp
 221:../../../platform/mega_rf/drivers/macsc/macsc_megarf.h ****  * \param cmp compare value for SCOCRx register
 222:../../../platform/mega_rf/drivers/macsc/macsc_megarf.h ****  * \param channel Compare channel
 223:../../../platform/mega_rf/drivers/macsc/macsc_megarf.h ****  */
 224:../../../platform/mega_rf/drivers/macsc/macsc_megarf.h **** void macsc_use_cmp(bool abs_rel, uint32_t cmp,enum macsc_cc_channel channel);
 225:../../../platform/mega_rf/drivers/macsc/macsc_megarf.h **** 
 226:../../../platform/mega_rf/drivers/macsc/macsc_megarf.h **** /**
 227:../../../platform/mega_rf/drivers/macsc/macsc_megarf.h ****  * \ingroup macsc_group
 228:../../../platform/mega_rf/drivers/macsc/macsc_megarf.h ****  * \defgroup macsc_interrupt_group MAC Symbol Counter (MACSC) interrupt
 229:../../../platform/mega_rf/drivers/macsc/macsc_megarf.h ****  * management
 230:../../../platform/mega_rf/drivers/macsc/macsc_megarf.h ****  * This group provides functions to configure MACSC module interrupts
 231:../../../platform/mega_rf/drivers/macsc/macsc_megarf.h ****  *
 232:../../../platform/mega_rf/drivers/macsc/macsc_megarf.h ****  * @{
 233:../../../platform/mega_rf/drivers/macsc/macsc_megarf.h ****  */
 234:../../../platform/mega_rf/drivers/macsc/macsc_megarf.h **** 
 235:../../../platform/mega_rf/drivers/macsc/macsc_megarf.h **** /**
 236:../../../platform/mega_rf/drivers/macsc/macsc_megarf.h ****  * \brief Set MACSC overflow interrupt callback function
 237:../../../platform/mega_rf/drivers/macsc/macsc_megarf.h ****  *
 238:../../../platform/mega_rf/drivers/macsc/macsc_megarf.h ****  * This function allows the caller to set and change the interrupt callback
 239:../../../platform/mega_rf/drivers/macsc/macsc_megarf.h ****  * function. Without setting a callback function the interrupt handler in the
 240:../../../platform/mega_rf/drivers/macsc/macsc_megarf.h ****  * driver will only clear the interrupt flags.
 241:../../../platform/mega_rf/drivers/macsc/macsc_megarf.h ****  *
 242:../../../platform/mega_rf/drivers/macsc/macsc_megarf.h ****  * \param callback Reference to a callback function
 243:../../../platform/mega_rf/drivers/macsc/macsc_megarf.h ****  */
 244:../../../platform/mega_rf/drivers/macsc/macsc_megarf.h **** void macsc_set_ovf_int_cb(macsc_callback_t callback);
 245:../../../platform/mega_rf/drivers/macsc/macsc_megarf.h **** 
 246:../../../platform/mega_rf/drivers/macsc/macsc_megarf.h **** /**
 247:../../../platform/mega_rf/drivers/macsc/macsc_megarf.h ****  * \brief Set MACSC Compare Channel 1 interrupt callback function
 248:../../../platform/mega_rf/drivers/macsc/macsc_megarf.h ****  *
 249:../../../platform/mega_rf/drivers/macsc/macsc_megarf.h ****  * This function allows the caller to set and change the interrupt callback
 250:../../../platform/mega_rf/drivers/macsc/macsc_megarf.h ****  * function. Without setting a callback function the interrupt handler in the
 251:../../../platform/mega_rf/drivers/macsc/macsc_megarf.h ****  * driver will only clear the interrupt flags.
 252:../../../platform/mega_rf/drivers/macsc/macsc_megarf.h ****  *
 253:../../../platform/mega_rf/drivers/macsc/macsc_megarf.h ****  * \param callback Reference to a callback function
 254:../../../platform/mega_rf/drivers/macsc/macsc_megarf.h ****  */
 255:../../../platform/mega_rf/drivers/macsc/macsc_megarf.h **** void macsc_set_cmp1_int_cb(macsc_callback_t callback);
 256:../../../platform/mega_rf/drivers/macsc/macsc_megarf.h **** 
 257:../../../platform/mega_rf/drivers/macsc/macsc_megarf.h **** /**
 258:../../../platform/mega_rf/drivers/macsc/macsc_megarf.h ****  * \brief Set MACSC Compare Channel 2 interrupt callback function
 259:../../../platform/mega_rf/drivers/macsc/macsc_megarf.h ****  *
 260:../../../platform/mega_rf/drivers/macsc/macsc_megarf.h ****  * This function allows the caller to set and change the interrupt callback
 261:../../../platform/mega_rf/drivers/macsc/macsc_megarf.h ****  * function. Without setting a callback function the interrupt handler in the
 262:../../../platform/mega_rf/drivers/macsc/macsc_megarf.h ****  * driver will only clear the interrupt flags.
 263:../../../platform/mega_rf/drivers/macsc/macsc_megarf.h ****  *
 264:../../../platform/mega_rf/drivers/macsc/macsc_megarf.h ****  * \param callback Reference to a callback function
 265:../../../platform/mega_rf/drivers/macsc/macsc_megarf.h ****  */
 266:../../../platform/mega_rf/drivers/macsc/macsc_megarf.h **** void macsc_set_cmp2_int_cb(macsc_callback_t callback);
 267:../../../platform/mega_rf/drivers/macsc/macsc_megarf.h **** 
 268:../../../platform/mega_rf/drivers/macsc/macsc_megarf.h **** /**
 269:../../../platform/mega_rf/drivers/macsc/macsc_megarf.h ****  * \brief Set MACSC Compare Channel 3 interrupt callback function
 270:../../../platform/mega_rf/drivers/macsc/macsc_megarf.h ****  *
 271:../../../platform/mega_rf/drivers/macsc/macsc_megarf.h ****  * This function allows the caller to set and change the interrupt callback
 272:../../../platform/mega_rf/drivers/macsc/macsc_megarf.h ****  * function. Without setting a callback function the interrupt handler in the
 273:../../../platform/mega_rf/drivers/macsc/macsc_megarf.h ****  * driver will only clear the interrupt flags.
 274:../../../platform/mega_rf/drivers/macsc/macsc_megarf.h ****  *
 275:../../../platform/mega_rf/drivers/macsc/macsc_megarf.h ****  * \param callback Reference to a callback function
 276:../../../platform/mega_rf/drivers/macsc/macsc_megarf.h ****  */
 277:../../../platform/mega_rf/drivers/macsc/macsc_megarf.h **** void macsc_set_cmp3_int_cb(macsc_callback_t callback);
 278:../../../platform/mega_rf/drivers/macsc/macsc_megarf.h **** 
 279:../../../platform/mega_rf/drivers/macsc/macsc_megarf.h **** /**
 280:../../../platform/mega_rf/drivers/macsc/macsc_megarf.h ****  * \brief Set MACSC backoff slot counter interrupt callback function
 281:../../../platform/mega_rf/drivers/macsc/macsc_megarf.h ****  *
 282:../../../platform/mega_rf/drivers/macsc/macsc_megarf.h ****  * This function allows the caller to set and change the interrupt callback
 283:../../../platform/mega_rf/drivers/macsc/macsc_megarf.h ****  * function. Without setting a callback function the interrupt handler in the
 284:../../../platform/mega_rf/drivers/macsc/macsc_megarf.h ****  * driver will only clear the interrupt flags.
 285:../../../platform/mega_rf/drivers/macsc/macsc_megarf.h ****  *
 286:../../../platform/mega_rf/drivers/macsc/macsc_megarf.h ****  * \param callback Reference to a callback function
 287:../../../platform/mega_rf/drivers/macsc/macsc_megarf.h ****  */
 288:../../../platform/mega_rf/drivers/macsc/macsc_megarf.h **** void macsc_set_backoff_slot_cntr_int_cb(macsc_callback_t callback);
 289:../../../platform/mega_rf/drivers/macsc/macsc_megarf.h **** //@}
 290:../../../platform/mega_rf/drivers/macsc/macsc_megarf.h **** 
 291:../../../platform/mega_rf/drivers/macsc/macsc_megarf.h **** /**
 292:../../../platform/mega_rf/drivers/macsc/macsc_megarf.h ****  * \brief Enable 32.768KHz clk using timer 2 async register
 293:../../../platform/mega_rf/drivers/macsc/macsc_megarf.h ****  *
 294:../../../platform/mega_rf/drivers/macsc/macsc_megarf.h ****  * \param none
 295:../../../platform/mega_rf/drivers/macsc/macsc_megarf.h ****  */
 296:../../../platform/mega_rf/drivers/macsc/macsc_megarf.h **** 
 297:../../../platform/mega_rf/drivers/macsc/macsc_megarf.h **** static inline void macsc_sleep_clk_enable(void)
 298:../../../platform/mega_rf/drivers/macsc/macsc_megarf.h **** {
 299:../../../platform/mega_rf/drivers/macsc/macsc_megarf.h **** 	ASSR |= (1 << AS2);
 300:../../../platform/mega_rf/drivers/macsc/macsc_megarf.h **** }
 301:../../../platform/mega_rf/drivers/macsc/macsc_megarf.h **** 
 302:../../../platform/mega_rf/drivers/macsc/macsc_megarf.h **** /**
 303:../../../platform/mega_rf/drivers/macsc/macsc_megarf.h ****  * \brief Disable 32.768KHz clk using timer 2 async register
 304:../../../platform/mega_rf/drivers/macsc/macsc_megarf.h ****  *
 305:../../../platform/mega_rf/drivers/macsc/macsc_megarf.h ****  * \param none
 306:../../../platform/mega_rf/drivers/macsc/macsc_megarf.h ****  */
 307:../../../platform/mega_rf/drivers/macsc/macsc_megarf.h **** static inline void macsc_sleep_clk_disable(void)
 308:../../../platform/mega_rf/drivers/macsc/macsc_megarf.h **** {
 309:../../../platform/mega_rf/drivers/macsc/macsc_megarf.h **** 	ASSR &= ~(1 << AS2);
 310:../../../platform/mega_rf/drivers/macsc/macsc_megarf.h **** }
 311:../../../platform/mega_rf/drivers/macsc/macsc_megarf.h **** 
 312:../../../platform/mega_rf/drivers/macsc/macsc_megarf.h **** /* @} */
 313:../../../platform/mega_rf/drivers/macsc/macsc_megarf.h **** 
 314:../../../platform/mega_rf/drivers/macsc/macsc_megarf.h **** /**
 315:../../../platform/mega_rf/drivers/macsc/macsc_megarf.h ****  * \brief Configure MAC Symbol Counter Clock Source
 316:../../../platform/mega_rf/drivers/macsc/macsc_megarf.h ****  *
 317:../../../platform/mega_rf/drivers/macsc/macsc_megarf.h ****  * \param macsc macsc clk src
 318:../../../platform/mega_rf/drivers/macsc/macsc_megarf.h ****  */
 319:../../../platform/mega_rf/drivers/macsc/macsc_megarf.h **** static inline void macsc_write_clock_source(enum macsc_xtal source)
 320:../../../platform/mega_rf/drivers/macsc/macsc_megarf.h **** {
 321:../../../platform/mega_rf/drivers/macsc/macsc_megarf.h **** 	if (source == MACSC_16MHz) {
 322:../../../platform/mega_rf/drivers/macsc/macsc_megarf.h **** 		SCCR0 |= (source << SCCKSEL);
 323:../../../platform/mega_rf/drivers/macsc/macsc_megarf.h **** 	} else if (source == MACSC_32KHz) {
 324:../../../platform/mega_rf/drivers/macsc/macsc_megarf.h **** 		SCCR0 &= ~(1 << SCCKSEL);
 325:../../../platform/mega_rf/drivers/macsc/macsc_megarf.h **** 	}
 326:../../../platform/mega_rf/drivers/macsc/macsc_megarf.h **** }
 327:../../../platform/mega_rf/drivers/macsc/macsc_megarf.h **** 
 328:../../../platform/mega_rf/drivers/macsc/macsc_megarf.h **** /**
 329:../../../platform/mega_rf/drivers/macsc/macsc_megarf.h ****  * \brief Read MAC SC Clock Source
 330:../../../platform/mega_rf/drivers/macsc/macsc_megarf.h ****  *
 331:../../../platform/mega_rf/drivers/macsc/macsc_megarf.h ****  * \param none
 332:../../../platform/mega_rf/drivers/macsc/macsc_megarf.h ****  * \return macsc_xtal enum Clock source selection
 333:../../../platform/mega_rf/drivers/macsc/macsc_megarf.h ****  */
 334:../../../platform/mega_rf/drivers/macsc/macsc_megarf.h **** static inline enum macsc_xtal macsc_read_clock_source(void)
 335:../../../platform/mega_rf/drivers/macsc/macsc_megarf.h **** {
 336:../../../platform/mega_rf/drivers/macsc/macsc_megarf.h **** 	return (enum macsc_xtal)(SCCR0 & (1 << SCCKSEL));
 337:../../../platform/mega_rf/drivers/macsc/macsc_megarf.h **** }
 338:../../../platform/mega_rf/drivers/macsc/macsc_megarf.h **** 
 339:../../../platform/mega_rf/drivers/macsc/macsc_megarf.h **** /**
 340:../../../platform/mega_rf/drivers/macsc/macsc_megarf.h ****  * \brief Write the Counter value of the MAC Symbol counter
 341:../../../platform/mega_rf/drivers/macsc/macsc_megarf.h ****  *
 342:../../../platform/mega_rf/drivers/macsc/macsc_megarf.h ****  * \param cnt_value Counter value
 343:../../../platform/mega_rf/drivers/macsc/macsc_megarf.h ****  */
 344:../../../platform/mega_rf/drivers/macsc/macsc_megarf.h **** static inline void macsc_write_count(uint32_t cnt_value)
 345:../../../platform/mega_rf/drivers/macsc/macsc_megarf.h **** {
 346:../../../platform/mega_rf/drivers/macsc/macsc_megarf.h **** 	MACSC_WRITE32(SCCNT, cnt_value);
 347:../../../platform/mega_rf/drivers/macsc/macsc_megarf.h **** }
 348:../../../platform/mega_rf/drivers/macsc/macsc_megarf.h **** 
 349:../../../platform/mega_rf/drivers/macsc/macsc_megarf.h **** /**
 350:../../../platform/mega_rf/drivers/macsc/macsc_megarf.h ****  * \brief Reads the Counter value of the MAC Symbol counter
 351:../../../platform/mega_rf/drivers/macsc/macsc_megarf.h ****  *
 352:../../../platform/mega_rf/drivers/macsc/macsc_megarf.h ****  * \note Output the Counter value
 353:../../../platform/mega_rf/drivers/macsc/macsc_megarf.h ****  */
 354:../../../platform/mega_rf/drivers/macsc/macsc_megarf.h **** static inline uint32_t macsc_read_count(void)
 355:../../../platform/mega_rf/drivers/macsc/macsc_megarf.h **** {
 356:../../../platform/mega_rf/drivers/macsc/macsc_megarf.h **** 	return (MACSC_READ32(SCCNT));
 357:../../../platform/mega_rf/drivers/macsc/macsc_megarf.h **** }
 358:../../../platform/mega_rf/drivers/macsc/macsc_megarf.h **** 
 359:../../../platform/mega_rf/drivers/macsc/macsc_megarf.h **** /**
 360:../../../platform/mega_rf/drivers/macsc/macsc_megarf.h ****  * \brief enable back-off slot counter
 361:../../../platform/mega_rf/drivers/macsc/macsc_megarf.h ****  *
 362:../../../platform/mega_rf/drivers/macsc/macsc_megarf.h ****  * \param none
 363:../../../platform/mega_rf/drivers/macsc/macsc_megarf.h ****  * \note  Enables interrupt as well	.
 364:../../../platform/mega_rf/drivers/macsc/macsc_megarf.h ****  * \note This counter works only if transceiver clock is running.So check Trx
 365:../../../platform/mega_rf/drivers/macsc/macsc_megarf.h ****  * state in app before using this function in IEEE802.15.4 applications.
 366:../../../platform/mega_rf/drivers/macsc/macsc_megarf.h ****  */
 367:../../../platform/mega_rf/drivers/macsc/macsc_megarf.h **** static inline bool macsc_backoff_slot_cnt_enable(void)
 368:../../../platform/mega_rf/drivers/macsc/macsc_megarf.h **** {
 369:../../../platform/mega_rf/drivers/macsc/macsc_megarf.h **** 	if (!(PRR1 & (1 << PRTRX24))) {
 370:../../../platform/mega_rf/drivers/macsc/macsc_megarf.h **** 		SCCR1 = (1 << SCENBO);
 371:../../../platform/mega_rf/drivers/macsc/macsc_megarf.h **** 		SCIRQS |= (1 << IRQSBO);
 372:../../../platform/mega_rf/drivers/macsc/macsc_megarf.h **** 		SCIRQM |= (1 << IRQMBO);
 373:../../../platform/mega_rf/drivers/macsc/macsc_megarf.h **** 		return true;
 374:../../../platform/mega_rf/drivers/macsc/macsc_megarf.h **** 	}
 375:../../../platform/mega_rf/drivers/macsc/macsc_megarf.h **** 	else return false;
 376:../../../platform/mega_rf/drivers/macsc/macsc_megarf.h **** }
 377:../../../platform/mega_rf/drivers/macsc/macsc_megarf.h **** 
 378:../../../platform/mega_rf/drivers/macsc/macsc_megarf.h **** /**
 379:../../../platform/mega_rf/drivers/macsc/macsc_megarf.h ****  * \brief Disable back-off slot counter
 380:../../../platform/mega_rf/drivers/macsc/macsc_megarf.h ****  *
 381:../../../platform/mega_rf/drivers/macsc/macsc_megarf.h ****  * \param none
 382:../../../platform/mega_rf/drivers/macsc/macsc_megarf.h ****  * \note    Disables interrupt as well	.
 383:../../../platform/mega_rf/drivers/macsc/macsc_megarf.h ****  * \note This counter works only if transceiver clock is running.So check Trx
 384:../../../platform/mega_rf/drivers/macsc/macsc_megarf.h ****  * state in app before using this function in IEEE802.15.4 applications.
 385:../../../platform/mega_rf/drivers/macsc/macsc_megarf.h ****  */
 386:../../../platform/mega_rf/drivers/macsc/macsc_megarf.h **** static inline void macsc_backoff_slot_cnt_disable(void)
 387:../../../platform/mega_rf/drivers/macsc/macsc_megarf.h **** {
 388:../../../platform/mega_rf/drivers/macsc/macsc_megarf.h **** 	SCCR1 &= ~(1 << SCENBO);
 389:../../../platform/mega_rf/drivers/macsc/macsc_megarf.h **** 	SCIRQM &= ~(1 << IRQMBO);
 390:../../../platform/mega_rf/drivers/macsc/macsc_megarf.h **** }
 391:../../../platform/mega_rf/drivers/macsc/macsc_megarf.h **** 
 392:../../../platform/mega_rf/drivers/macsc/macsc_megarf.h **** /**
 393:../../../platform/mega_rf/drivers/macsc/macsc_megarf.h ****  * \brief Tests if the Backoff slot cntr interrupt flag is set
 394:../../../platform/mega_rf/drivers/macsc/macsc_megarf.h ****  *
 395:../../../platform/mega_rf/drivers/macsc/macsc_megarf.h ****  * \return  backoff slot cntr interrupt has occurred or not : IRQSBO
 396:../../../platform/mega_rf/drivers/macsc/macsc_megarf.h ****  */
 397:../../../platform/mega_rf/drivers/macsc/macsc_megarf.h **** static inline bool macsc_is_slot_cntr_interrupt_flag_set(void)
 398:../../../platform/mega_rf/drivers/macsc/macsc_megarf.h **** {
 399:../../../platform/mega_rf/drivers/macsc/macsc_megarf.h **** 	return (SCIRQS & (1 << IRQSBO));
 400:../../../platform/mega_rf/drivers/macsc/macsc_megarf.h **** }
 401:../../../platform/mega_rf/drivers/macsc/macsc_megarf.h **** 
 402:../../../platform/mega_rf/drivers/macsc/macsc_megarf.h **** /**
 403:../../../platform/mega_rf/drivers/macsc/macsc_megarf.h ****  * \brief Clears the Backoff Slot cntr interrupt flag
 404:../../../platform/mega_rf/drivers/macsc/macsc_megarf.h ****  *
 405:../../../platform/mega_rf/drivers/macsc/macsc_megarf.h ****  * \note  IRQSBO is cleared
 406:../../../platform/mega_rf/drivers/macsc/macsc_megarf.h ****  */
 407:../../../platform/mega_rf/drivers/macsc/macsc_megarf.h **** static inline void macsc_clear_slot_cntr_interrupt_flag(void)
 408:../../../platform/mega_rf/drivers/macsc/macsc_megarf.h **** {
 409:../../../platform/mega_rf/drivers/macsc/macsc_megarf.h **** 	SCIRQS |= (1 << IRQSBO);
 410:../../../platform/mega_rf/drivers/macsc/macsc_megarf.h **** }
 411:../../../platform/mega_rf/drivers/macsc/macsc_megarf.h **** 
 412:../../../platform/mega_rf/drivers/macsc/macsc_megarf.h **** /**
 413:../../../platform/mega_rf/drivers/macsc/macsc_megarf.h ****  * \brief Reads the SFD Timestamp register
 414:../../../platform/mega_rf/drivers/macsc/macsc_megarf.h ****  *
 415:../../../platform/mega_rf/drivers/macsc/macsc_megarf.h ****  * \return Timestamp of last received frame :SCTSR(read-only register)
 416:../../../platform/mega_rf/drivers/macsc/macsc_megarf.h ****  */
 417:../../../platform/mega_rf/drivers/macsc/macsc_megarf.h **** static inline uint32_t macsc_read_ts(void)
 418:../../../platform/mega_rf/drivers/macsc/macsc_megarf.h **** {
 419:../../../platform/mega_rf/drivers/macsc/macsc_megarf.h **** 	return (MACSC_READ32(SCTSR));
 420:../../../platform/mega_rf/drivers/macsc/macsc_megarf.h **** }
 421:../../../platform/mega_rf/drivers/macsc/macsc_megarf.h **** 
 422:../../../platform/mega_rf/drivers/macsc/macsc_megarf.h **** /**
 423:../../../platform/mega_rf/drivers/macsc/macsc_megarf.h ****  * \brief Reads the Beacon Timestamp register
 424:../../../platform/mega_rf/drivers/macsc/macsc_megarf.h ****  *
 425:../../../platform/mega_rf/drivers/macsc/macsc_megarf.h ****  * \return Timestamp of last received beacon frame :SCBTSR
 426:../../../platform/mega_rf/drivers/macsc/macsc_megarf.h ****  */
 427:../../../platform/mega_rf/drivers/macsc/macsc_megarf.h **** static inline uint32_t macsc_read_bts(void)
 428:../../../platform/mega_rf/drivers/macsc/macsc_megarf.h **** {
 429:../../../platform/mega_rf/drivers/macsc/macsc_megarf.h **** 	return (MACSC_READ32(SCBTSR));
 430:../../../platform/mega_rf/drivers/macsc/macsc_megarf.h **** }
 431:../../../platform/mega_rf/drivers/macsc/macsc_megarf.h **** 
 432:../../../platform/mega_rf/drivers/macsc/macsc_megarf.h **** /**
 433:../../../platform/mega_rf/drivers/macsc/macsc_megarf.h ****  * \brief Write the Beacon Timestamp register of the MAC Symbol counter
 434:../../../platform/mega_rf/drivers/macsc/macsc_megarf.h ****  * The manual beacon timestamping can be used in conjunction with the
 435:../../../platform/mega_rf/drivers/macsc/macsc_megarf.h ****  * relative compare mode of the three compare units to generate compare match
 436:../../../platform/mega_rf/drivers/macsc/macsc_megarf.h ****  * interrupts without having a beacon frame received
 437:../../../platform/mega_rf/drivers/macsc/macsc_megarf.h ****  *
 438:../../../platform/mega_rf/drivers/macsc/macsc_megarf.h ****  * If set to 1, the current symbol counter value is stored into the beacon
 439:../../../platform/mega_rf/drivers/macsc/macsc_megarf.h ****  * timestamp register.
 440:../../../platform/mega_rf/drivers/macsc/macsc_megarf.h ****  * The bit is cleared afterwards.
 441:../../../platform/mega_rf/drivers/macsc/macsc_megarf.h ****  *
 442:../../../platform/mega_rf/drivers/macsc/macsc_megarf.h ****  */
 443:../../../platform/mega_rf/drivers/macsc/macsc_megarf.h **** static inline void macsc_enable_manual_bts(void)
 444:../../../platform/mega_rf/drivers/macsc/macsc_megarf.h **** {
 441               		.loc 5 444 0
 442               		.cfi_startproc
 443 019e CF93      		push r28
 444               	.LCFI26:
 445               		.cfi_def_cfa_offset 3
 446               		.cfi_offset 28, -2
 447 01a0 DF93      		push r29
 448               	.LCFI27:
 449               		.cfi_def_cfa_offset 4
 450               		.cfi_offset 29, -3
 451 01a2 CDB7      		in r28,__SP_L__
 452 01a4 DEB7      		in r29,__SP_H__
 453               	.LCFI28:
 454               		.cfi_def_cfa_register 28
 455               	/* prologue: function */
 456               	/* frame size = 0 */
 457               	/* stack size = 2 */
 458               	.L__stack_usage = 2
 445:../../../platform/mega_rf/drivers/macsc/macsc_megarf.h **** 	SCCR0 |= (1 << SCMBTS);
 459               		.loc 5 445 0
 460 01a6 8CED      		ldi r24,lo8(-36)
 461 01a8 90E0      		ldi r25,0
 462 01aa 2CED      		ldi r18,lo8(-36)
 463 01ac 30E0      		ldi r19,0
 464 01ae F901      		movw r30,r18
 465 01b0 2081      		ld r18,Z
 466 01b2 2064      		ori r18,lo8(64)
 467 01b4 FC01      		movw r30,r24
 468 01b6 2083      		st Z,r18
 446:../../../platform/mega_rf/drivers/macsc/macsc_megarf.h **** 	SCCR0 &= ~(1 << SCTSE);
 469               		.loc 5 446 0
 470 01b8 8CED      		ldi r24,lo8(-36)
 471 01ba 90E0      		ldi r25,0
 472 01bc 2CED      		ldi r18,lo8(-36)
 473 01be 30E0      		ldi r19,0
 474 01c0 F901      		movw r30,r18
 475 01c2 2081      		ld r18,Z
 476 01c4 277F      		andi r18,lo8(-9)
 477 01c6 FC01      		movw r30,r24
 478 01c8 2083      		st Z,r18
 447:../../../platform/mega_rf/drivers/macsc/macsc_megarf.h **** }
 479               		.loc 5 447 0
 480 01ca 0000      		nop
 481               	/* epilogue start */
 482 01cc DF91      		pop r29
 483 01ce CF91      		pop r28
 484 01d0 0895      		ret
 485               		.cfi_endproc
 486               	.LFE121:
 488               	.global	state
 489               		.section	.bss.state,"aw",@nobits
 492               	state:
 493 0000 00        		.zero	1
 494               		.section	.bss.tmrInit,"aw",@nobits
 497               	tmrInit:
 498 0000 0000 0000 		.zero	13
 498      0000 0000 
 498      0000 0000 
 498      00
 499               		.section	.bss.msgReq,"aw",@nobits
 502               	msgReq:
 503 0000 0000 0000 		.zero	20
 503      0000 0000 
 503      0000 0000 
 503      0000 0000 
 503      0000 0000 
 504               		.section	.data.msgDiscResponse,"aw",@progbits
 507               	msgDiscResponse:
 508 0000 0D        		.byte	13
 509 0001 00        		.byte	0
 510 0002 81        		.byte	129
 511               		.section	.rodata
 512               	.LC1:
 513 0000 0A73 7720 		.string	"\nsw timer"
 513      7469 6D65 
 513      7200 
 514               		.text
 516               	tmrDelayHandler:
 517               	.LFB130:
 518               		.file 6 "teste_envio.c"
   1:teste_envio.c **** /*
   2:teste_envio.c ****  * teste_envio.c
   3:teste_envio.c ****  *
   4:teste_envio.c ****  * Created: 10/02/2020 17:24:12
   5:teste_envio.c ****  *  Author: Guilherme
   6:teste_envio.c ****  */ 
   7:teste_envio.c **** 
   8:teste_envio.c **** 
   9:teste_envio.c **** /*
  10:teste_envio.c ****  * Teste.c
  11:teste_envio.c ****  *
  12:teste_envio.c ****  * Created: 09/02/2020 15:58:34
  13:teste_envio.c ****  *  Author: Guilherme
  14:teste_envio.c ****  */ 
  15:teste_envio.c **** 
  16:teste_envio.c **** // #include "hw_timer_lldn.h"
  17:teste_envio.c **** #include <stdlib.h>
  18:teste_envio.c **** #include <stdio.h>
  19:teste_envio.c **** #include <string.h>
  20:teste_envio.c **** #include <inttypes.h>
  21:teste_envio.c **** #include "config.h"
  22:teste_envio.c **** #include "sys.h"
  23:teste_envio.c **** #include "phy.h"
  24:teste_envio.c **** #include "sys.h"
  25:teste_envio.c **** #include "nwk.h"
  26:teste_envio.c **** #include "sysclk.h"
  27:teste_envio.c **** #include "sysTimer.h"
  28:teste_envio.c **** #include "sleep_mgr.h"
  29:teste_envio.c **** #include "sleepmgr.h"
  30:teste_envio.c **** #include "led.h"
  31:teste_envio.c **** #include "ioport.h"
  32:teste_envio.c **** #include "conf_sleepmgr.h"
  33:teste_envio.c **** #include "board.h"
  34:teste_envio.c **** #include "platform.h"
  35:teste_envio.c **** #include "lldn.h"
  36:teste_envio.c **** 
  37:teste_envio.c **** #if APP_COORDINATOR
  38:teste_envio.c **** #if (SIO2HOST_CHANNEL == SIO_USB)
  39:teste_envio.c **** /* Only ARM */
  40:teste_envio.c **** #include "stdio_usb.h"
  41:teste_envio.c **** #define MASTER_MACSC	0
  42:teste_envio.c **** #define TIMESLOT_TIMER	0
  43:teste_envio.c **** #else
  44:teste_envio.c **** /* Only megarf series */
  45:teste_envio.c **** #include "conf_sio2host.h" // necessary for prints
  46:teste_envio.c **** #define MASTER_MACSC	1
  47:teste_envio.c **** #define TIMESLOT_TIMER	0
  48:teste_envio.c **** #endif
  49:teste_envio.c **** #else
  50:teste_envio.c **** /* Only megarf series */
  51:teste_envio.c **** #include "conf_sio2host.h" // necessary for prints
  52:teste_envio.c **** #define MASTER_MACSC		1
  53:teste_envio.c **** #endif
  54:teste_envio.c **** 
  55:teste_envio.c **** #include "macsc_megarf.h"
  56:teste_envio.c **** 
  57:teste_envio.c **** typedef enum Estado_t
  58:teste_envio.c **** {
  59:teste_envio.c **** 	INIT,
  60:teste_envio.c **** 	IDLE,	
  61:teste_envio.c **** }Estado_t;
  62:teste_envio.c **** 
  63:teste_envio.c **** Estado_t state = INIT;
  64:teste_envio.c **** static SYS_Timer_t	tmrInit;				// Feedback
  65:teste_envio.c **** static NWK_DataReq_t msgReq;
  66:teste_envio.c **** 
  67:teste_envio.c **** static NWK_DiscoverResponse_t msgDiscResponse = { .id = LL_DISCOVER_RESPONSE,
  68:teste_envio.c **** 												.macAddr = APP_ADDR,
  69:teste_envio.c **** 												.ts_dir.tsDuration = 0x01,
  70:teste_envio.c **** 												.ts_dir.dirIndicator = 1 };
  71:teste_envio.c **** 
  72:teste_envio.c **** static void tmrDelayHandler(SYS_Timer_t *timer)
  73:teste_envio.c **** {
 519               		.loc 6 73 0
 520               		.cfi_startproc
 521 01d2 CF93      		push r28
 522               	.LCFI29:
 523               		.cfi_def_cfa_offset 3
 524               		.cfi_offset 28, -2
 525 01d4 DF93      		push r29
 526               	.LCFI30:
 527               		.cfi_def_cfa_offset 4
 528               		.cfi_offset 29, -3
 529 01d6 00D0      		rcall .
 530               	.LCFI31:
 531               		.cfi_def_cfa_offset 6
 532 01d8 CDB7      		in r28,__SP_L__
 533 01da DEB7      		in r29,__SP_H__
 534               	.LCFI32:
 535               		.cfi_def_cfa_register 28
 536               	/* prologue: function */
 537               	/* frame size = 2 */
 538               	/* stack size = 4 */
 539               	.L__stack_usage = 4
 540 01dc 9A83      		std Y+2,r25
 541 01de 8983      		std Y+1,r24
  74:teste_envio.c **** 	printf("\nsw timer");
 542               		.loc 6 74 0
 543 01e0 80E0      		ldi r24,lo8(.LC1)
 544 01e2 90E0      		ldi r25,hi8(.LC1)
 545 01e4 892F      		mov r24,r25
 546 01e6 8F93      		push r24
 547 01e8 80E0      		ldi r24,lo8(.LC1)
 548 01ea 90E0      		ldi r25,hi8(.LC1)
 549 01ec 8F93      		push r24
 550 01ee 0E94 0000 		call printf
 551 01f2 0F90      		pop __tmp_reg__
 552 01f4 0F90      		pop __tmp_reg__
  75:teste_envio.c **** 	state = INIT;
 553               		.loc 6 75 0
 554 01f6 1092 0000 		sts state,__zero_reg__
  76:teste_envio.c **** 	SYS_TimerStop(&tmrInit);
 555               		.loc 6 76 0
 556 01fa 80E0      		ldi r24,lo8(tmrInit)
 557 01fc 90E0      		ldi r25,hi8(tmrInit)
 558 01fe 0E94 0000 		call SYS_TimerStop
  77:teste_envio.c **** 	return;
 559               		.loc 6 77 0
 560 0202 0000      		nop
 561               	/* epilogue start */
  78:teste_envio.c **** }
 562               		.loc 6 78 0
 563 0204 0F90      		pop __tmp_reg__
 564 0206 0F90      		pop __tmp_reg__
 565 0208 DF91      		pop r29
 566 020a CF91      		pop r28
 567 020c 0895      		ret
 568               		.cfi_endproc
 569               	.LFE130:
 571               		.section	.rodata
 572               	.LC2:
 573 000a 0A20 6877 		.string	"\n hw_timer_handler"
 573      5F74 696D 
 573      6572 5F68 
 573      616E 646C 
 573      6572 00
 574               		.text
 575               	.global	hw_timer_handler
 577               	hw_timer_handler:
 578               	.LFB131:
  79:teste_envio.c **** 
  80:teste_envio.c **** 
  81:teste_envio.c **** 
  82:teste_envio.c **** void hw_timer_handler(void)
  83:teste_envio.c **** {
 579               		.loc 6 83 0
 580               		.cfi_startproc
 581 020e CF93      		push r28
 582               	.LCFI33:
 583               		.cfi_def_cfa_offset 3
 584               		.cfi_offset 28, -2
 585 0210 DF93      		push r29
 586               	.LCFI34:
 587               		.cfi_def_cfa_offset 4
 588               		.cfi_offset 29, -3
 589 0212 CDB7      		in r28,__SP_L__
 590 0214 DEB7      		in r29,__SP_H__
 591               	.LCFI35:
 592               		.cfi_def_cfa_register 28
 593               	/* prologue: function */
 594               	/* frame size = 0 */
 595               	/* stack size = 2 */
 596               	.L__stack_usage = 2
  84:teste_envio.c **** 	// timer_start();
  85:teste_envio.c **** 	printf("\n hw_timer_handler");	
 597               		.loc 6 85 0
 598 0216 80E0      		ldi r24,lo8(.LC2)
 599 0218 90E0      		ldi r25,hi8(.LC2)
 600 021a 892F      		mov r24,r25
 601 021c 8F93      		push r24
 602 021e 80E0      		ldi r24,lo8(.LC2)
 603 0220 90E0      		ldi r25,hi8(.LC2)
 604 0222 8F93      		push r24
 605 0224 0E94 0000 		call printf
 606 0228 0F90      		pop __tmp_reg__
 607 022a 0F90      		pop __tmp_reg__
  86:teste_envio.c **** }
 608               		.loc 6 86 0
 609 022c 0000      		nop
 610               	/* epilogue start */
 611 022e DF91      		pop r29
 612 0230 CF91      		pop r28
 613 0232 0895      		ret
 614               		.cfi_endproc
 615               	.LFE131:
 617               		.section	.rodata
 618               	.LC3:
 619 001d 0A42 6561 		.string	"\nBeacon Recebido %d"
 619      636F 6E20 
 619      5265 6365 
 619      6269 646F 
 619      2025 6400 
 620               		.text
 622               	appBeaconInd:
 623               	.LFB132:
  87:teste_envio.c **** 
  88:teste_envio.c **** static bool appBeaconInd(NWK_DataInd_t *ind)
  89:teste_envio.c **** {
 624               		.loc 6 89 0
 625               		.cfi_startproc
 626 0234 CF93      		push r28
 627               	.LCFI36:
 628               		.cfi_def_cfa_offset 3
 629               		.cfi_offset 28, -2
 630 0236 DF93      		push r29
 631               	.LCFI37:
 632               		.cfi_def_cfa_offset 4
 633               		.cfi_offset 29, -3
 634 0238 00D0      		rcall .
 635 023a 00D0      		rcall .
 636               	.LCFI38:
 637               		.cfi_def_cfa_offset 8
 638 023c CDB7      		in r28,__SP_L__
 639 023e DEB7      		in r29,__SP_H__
 640               	.LCFI39:
 641               		.cfi_def_cfa_register 28
 642               	/* prologue: function */
 643               	/* frame size = 4 */
 644               	/* stack size = 6 */
 645               	.L__stack_usage = 6
 646 0240 9C83      		std Y+4,r25
 647 0242 8B83      		std Y+3,r24
  90:teste_envio.c **** 	NwkFrameBeaconHeaderLLDN_t *beacon = (NwkFrameBeaconHeaderLLDN_t*)ind->data;
 648               		.loc 6 90 0
 649 0244 8B81      		ldd r24,Y+3
 650 0246 9C81      		ldd r25,Y+4
 651 0248 FC01      		movw r30,r24
 652 024a 8085      		ldd r24,Z+8
 653 024c 9185      		ldd r25,Z+9
 654 024e 9A83      		std Y+2,r25
 655 0250 8983      		std Y+1,r24
  91:teste_envio.c **** 	
  92:teste_envio.c **** 	printf("\nBeacon Recebido %d", beacon->TimeSlotSize);
 656               		.loc 6 92 0
 657 0252 8981      		ldd r24,Y+1
 658 0254 9A81      		ldd r25,Y+2
 659 0256 FC01      		movw r30,r24
 660 0258 8681      		ldd r24,Z+6
 661 025a 882F      		mov r24,r24
 662 025c 90E0      		ldi r25,0
 663 025e 292F      		mov r18,r25
 664 0260 2F93      		push r18
 665 0262 8F93      		push r24
 666 0264 80E0      		ldi r24,lo8(.LC3)
 667 0266 90E0      		ldi r25,hi8(.LC3)
 668 0268 892F      		mov r24,r25
 669 026a 8F93      		push r24
 670 026c 80E0      		ldi r24,lo8(.LC3)
 671 026e 90E0      		ldi r25,hi8(.LC3)
 672 0270 8F93      		push r24
 673 0272 0E94 0000 		call printf
 674 0276 0F90      		pop __tmp_reg__
 675 0278 0F90      		pop __tmp_reg__
 676 027a 0F90      		pop __tmp_reg__
 677 027c 0F90      		pop __tmp_reg__
  93:teste_envio.c **** 	return true;
 678               		.loc 6 93 0
 679 027e 81E0      		ldi r24,lo8(1)
 680               	/* epilogue start */
  94:teste_envio.c **** }
 681               		.loc 6 94 0
 682 0280 0F90      		pop __tmp_reg__
 683 0282 0F90      		pop __tmp_reg__
 684 0284 0F90      		pop __tmp_reg__
 685 0286 0F90      		pop __tmp_reg__
 686 0288 DF91      		pop r29
 687 028a CF91      		pop r28
 688 028c 0895      		ret
 689               		.cfi_endproc
 690               	.LFE132:
 692               		.section	.rodata
 693               	.LC4:
 694 0031 0A64 6174 		.string	"\ndata[%d] = %hhx"
 694      615B 2564 
 694      5D20 3D20 
 694      2568 6878 
 694      00
 695               	.LC5:
 696 0042 0A6D 6163 		.string	"\nmac->id %hhx"
 696      2D3E 6964 
 696      2025 6868 
 696      7800 
 697               	.LC6:
 698 0050 0A6D 6163 		.string	"\nmac->macAddr %hhx"
 698      2D3E 6D61 
 698      6341 6464 
 698      7220 2568 
 698      6878 00
 699               	.LC7:
 700 0063 0A6D 6163 		.string	"\nmac->tsDuration %d"
 700      2D3E 7473 
 700      4475 7261 
 700      7469 6F6E 
 700      2025 6400 
 701               	.LC8:
 702 0077 0A6D 6163 		.string	"\nmac->dirIndicator %d"
 702      2D3E 6469 
 702      7249 6E64 
 702      6963 6174 
 702      6F72 2025 
 703               		.text
 705               	appMacCommandInd:
 706               	.LFB133:
  95:teste_envio.c **** 
  96:teste_envio.c **** static bool appMacCommandInd(NWK_DataInd_t *ind)
  97:teste_envio.c **** {
 707               		.loc 6 97 0
 708               		.cfi_startproc
 709 028e CF93      		push r28
 710               	.LCFI40:
 711               		.cfi_def_cfa_offset 3
 712               		.cfi_offset 28, -2
 713 0290 DF93      		push r29
 714               	.LCFI41:
 715               		.cfi_def_cfa_offset 4
 716               		.cfi_offset 29, -3
 717 0292 00D0      		rcall .
 718 0294 00D0      		rcall .
 719 0296 00D0      		rcall .
 720               	.LCFI42:
 721               		.cfi_def_cfa_offset 10
 722 0298 CDB7      		in r28,__SP_L__
 723 029a DEB7      		in r29,__SP_H__
 724               	.LCFI43:
 725               		.cfi_def_cfa_register 28
 726               	/* prologue: function */
 727               	/* frame size = 6 */
 728               	/* stack size = 8 */
 729               	.L__stack_usage = 8
 730 029c 9E83      		std Y+6,r25
 731 029e 8D83      		std Y+5,r24
  98:teste_envio.c **** 	NWK_DiscoverResponse_t *mac = (NWK_DiscoverResponse_t*)ind->data;
 732               		.loc 6 98 0
 733 02a0 8D81      		ldd r24,Y+5
 734 02a2 9E81      		ldd r25,Y+6
 735 02a4 FC01      		movw r30,r24
 736 02a6 8085      		ldd r24,Z+8
 737 02a8 9185      		ldd r25,Z+9
 738 02aa 9C83      		std Y+4,r25
 739 02ac 8B83      		std Y+3,r24
 740               	.LBB2:
  99:teste_envio.c **** 	
 100:teste_envio.c **** 	for (int i = 0; i < ind->size; i++)
 741               		.loc 6 100 0
 742 02ae 1A82      		std Y+2,__zero_reg__
 743 02b0 1982      		std Y+1,__zero_reg__
 744 02b2 00C0      		rjmp .L21
 745               	.L22:
 101:teste_envio.c **** 	{
 102:teste_envio.c **** 		printf("\ndata[%d] = %hhx", i, ind->data[i]);
 746               		.loc 6 102 0 discriminator 3
 747 02b4 8D81      		ldd r24,Y+5
 748 02b6 9E81      		ldd r25,Y+6
 749 02b8 FC01      		movw r30,r24
 750 02ba 2085      		ldd r18,Z+8
 751 02bc 3185      		ldd r19,Z+9
 752 02be 8981      		ldd r24,Y+1
 753 02c0 9A81      		ldd r25,Y+2
 754 02c2 820F      		add r24,r18
 755 02c4 931F      		adc r25,r19
 756 02c6 FC01      		movw r30,r24
 757 02c8 8081      		ld r24,Z
 758 02ca 882F      		mov r24,r24
 759 02cc 90E0      		ldi r25,0
 760 02ce 292F      		mov r18,r25
 761 02d0 2F93      		push r18
 762 02d2 8F93      		push r24
 763 02d4 8A81      		ldd r24,Y+2
 764 02d6 8F93      		push r24
 765 02d8 8981      		ldd r24,Y+1
 766 02da 8F93      		push r24
 767 02dc 80E0      		ldi r24,lo8(.LC4)
 768 02de 90E0      		ldi r25,hi8(.LC4)
 769 02e0 892F      		mov r24,r25
 770 02e2 8F93      		push r24
 771 02e4 80E0      		ldi r24,lo8(.LC4)
 772 02e6 90E0      		ldi r25,hi8(.LC4)
 773 02e8 8F93      		push r24
 774 02ea 0E94 0000 		call printf
 775 02ee 0F90      		pop __tmp_reg__
 776 02f0 0F90      		pop __tmp_reg__
 777 02f2 0F90      		pop __tmp_reg__
 778 02f4 0F90      		pop __tmp_reg__
 779 02f6 0F90      		pop __tmp_reg__
 780 02f8 0F90      		pop __tmp_reg__
 100:teste_envio.c **** 	{
 781               		.loc 6 100 0 discriminator 3
 782 02fa 8981      		ldd r24,Y+1
 783 02fc 9A81      		ldd r25,Y+2
 784 02fe 0196      		adiw r24,1
 785 0300 9A83      		std Y+2,r25
 786 0302 8983      		std Y+1,r24
 787               	.L21:
 100:teste_envio.c **** 	{
 788               		.loc 6 100 0 is_stmt 0 discriminator 1
 789 0304 8D81      		ldd r24,Y+5
 790 0306 9E81      		ldd r25,Y+6
 791 0308 FC01      		movw r30,r24
 792 030a 8285      		ldd r24,Z+10
 793 030c 282F      		mov r18,r24
 794 030e 30E0      		ldi r19,0
 795 0310 8981      		ldd r24,Y+1
 796 0312 9A81      		ldd r25,Y+2
 797 0314 8217      		cp r24,r18
 798 0316 9307      		cpc r25,r19
 799 0318 04F0      		brlt .L22
 800               	.LBE2:
 103:teste_envio.c **** 	}
 104:teste_envio.c **** 
 105:teste_envio.c **** 	
 106:teste_envio.c **** 	printf("\nmac->id %hhx", mac->id);
 801               		.loc 6 106 0 is_stmt 1
 802 031a 8B81      		ldd r24,Y+3
 803 031c 9C81      		ldd r25,Y+4
 804 031e FC01      		movw r30,r24
 805 0320 8081      		ld r24,Z
 806 0322 882F      		mov r24,r24
 807 0324 90E0      		ldi r25,0
 808 0326 292F      		mov r18,r25
 809 0328 2F93      		push r18
 810 032a 8F93      		push r24
 811 032c 80E0      		ldi r24,lo8(.LC5)
 812 032e 90E0      		ldi r25,hi8(.LC5)
 813 0330 892F      		mov r24,r25
 814 0332 8F93      		push r24
 815 0334 80E0      		ldi r24,lo8(.LC5)
 816 0336 90E0      		ldi r25,hi8(.LC5)
 817 0338 8F93      		push r24
 818 033a 0E94 0000 		call printf
 819 033e 0F90      		pop __tmp_reg__
 820 0340 0F90      		pop __tmp_reg__
 821 0342 0F90      		pop __tmp_reg__
 822 0344 0F90      		pop __tmp_reg__
 107:teste_envio.c **** 	printf("\nmac->macAddr %hhx", mac->macAddr);
 823               		.loc 6 107 0
 824 0346 8B81      		ldd r24,Y+3
 825 0348 9C81      		ldd r25,Y+4
 826 034a FC01      		movw r30,r24
 827 034c 8181      		ldd r24,Z+1
 828 034e 882F      		mov r24,r24
 829 0350 90E0      		ldi r25,0
 830 0352 292F      		mov r18,r25
 831 0354 2F93      		push r18
 832 0356 8F93      		push r24
 833 0358 80E0      		ldi r24,lo8(.LC6)
 834 035a 90E0      		ldi r25,hi8(.LC6)
 835 035c 892F      		mov r24,r25
 836 035e 8F93      		push r24
 837 0360 80E0      		ldi r24,lo8(.LC6)
 838 0362 90E0      		ldi r25,hi8(.LC6)
 839 0364 8F93      		push r24
 840 0366 0E94 0000 		call printf
 841 036a 0F90      		pop __tmp_reg__
 842 036c 0F90      		pop __tmp_reg__
 843 036e 0F90      		pop __tmp_reg__
 844 0370 0F90      		pop __tmp_reg__
 108:teste_envio.c **** 	printf("\nmac->tsDuration %d", mac->ts_dir.tsDuration);
 845               		.loc 6 108 0
 846 0372 8B81      		ldd r24,Y+3
 847 0374 9C81      		ldd r25,Y+4
 848 0376 FC01      		movw r30,r24
 849 0378 8281      		ldd r24,Z+2
 850 037a 8F77      		andi r24,lo8(127)
 851 037c 882F      		mov r24,r24
 852 037e 90E0      		ldi r25,0
 853 0380 292F      		mov r18,r25
 854 0382 2F93      		push r18
 855 0384 8F93      		push r24
 856 0386 80E0      		ldi r24,lo8(.LC7)
 857 0388 90E0      		ldi r25,hi8(.LC7)
 858 038a 892F      		mov r24,r25
 859 038c 8F93      		push r24
 860 038e 80E0      		ldi r24,lo8(.LC7)
 861 0390 90E0      		ldi r25,hi8(.LC7)
 862 0392 8F93      		push r24
 863 0394 0E94 0000 		call printf
 864 0398 0F90      		pop __tmp_reg__
 865 039a 0F90      		pop __tmp_reg__
 866 039c 0F90      		pop __tmp_reg__
 867 039e 0F90      		pop __tmp_reg__
 109:teste_envio.c **** 	printf("\nmac->dirIndicator %d", mac->ts_dir.dirIndicator);
 868               		.loc 6 109 0
 869 03a0 8B81      		ldd r24,Y+3
 870 03a2 9C81      		ldd r25,Y+4
 871 03a4 FC01      		movw r30,r24
 872 03a6 8281      		ldd r24,Z+2
 873 03a8 87FB      		bst r24,7
 874 03aa 8827      		clr r24
 875 03ac 80F9      		bld r24,0
 876 03ae 882F      		mov r24,r24
 877 03b0 90E0      		ldi r25,0
 878 03b2 292F      		mov r18,r25
 879 03b4 2F93      		push r18
 880 03b6 8F93      		push r24
 881 03b8 80E0      		ldi r24,lo8(.LC8)
 882 03ba 90E0      		ldi r25,hi8(.LC8)
 883 03bc 892F      		mov r24,r25
 884 03be 8F93      		push r24
 885 03c0 80E0      		ldi r24,lo8(.LC8)
 886 03c2 90E0      		ldi r25,hi8(.LC8)
 887 03c4 8F93      		push r24
 888 03c6 0E94 0000 		call printf
 889 03ca 0F90      		pop __tmp_reg__
 890 03cc 0F90      		pop __tmp_reg__
 891 03ce 0F90      		pop __tmp_reg__
 892 03d0 0F90      		pop __tmp_reg__
 110:teste_envio.c **** 	return true;
 893               		.loc 6 110 0
 894 03d2 81E0      		ldi r24,lo8(1)
 895               	/* epilogue start */
 111:teste_envio.c **** }
 896               		.loc 6 111 0
 897 03d4 2696      		adiw r28,6
 898 03d6 0FB6      		in __tmp_reg__,__SREG__
 899 03d8 F894      		cli
 900 03da DEBF      		out __SP_H__,r29
 901 03dc 0FBE      		out __SREG__,__tmp_reg__
 902 03de CDBF      		out __SP_L__,r28
 903 03e0 DF91      		pop r29
 904 03e2 CF91      		pop r28
 905 03e4 0895      		ret
 906               		.cfi_endproc
 907               	.LFE133:
 909               	.global	count
 910               		.section	.bss.count,"aw",@nobits
 913               	count:
 914 0000 0000      		.zero	2
 915               		.section	.rodata
 916               	.LC9:
 917 008d 0A54 5300 		.string	"\nTS"
 918               		.text
 920               	lldn_server_beacon_t:
 921               	.LFB134:
 112:teste_envio.c **** 
 113:teste_envio.c **** int count = 0;
 114:teste_envio.c **** 
 115:teste_envio.c **** static void lldn_server_beacon_t(void)
 116:teste_envio.c **** {
 922               		.loc 6 116 0
 923               		.cfi_startproc
 924 03e6 CF93      		push r28
 925               	.LCFI44:
 926               		.cfi_def_cfa_offset 3
 927               		.cfi_offset 28, -2
 928 03e8 DF93      		push r29
 929               	.LCFI45:
 930               		.cfi_def_cfa_offset 4
 931               		.cfi_offset 29, -3
 932 03ea CDB7      		in r28,__SP_L__
 933 03ec DEB7      		in r29,__SP_H__
 934               	.LCFI46:
 935               		.cfi_def_cfa_register 28
 936               	/* prologue: function */
 937               	/* frame size = 0 */
 938               	/* stack size = 2 */
 939               	.L__stack_usage = 2
 117:teste_envio.c **** 	printf("\nTS");
 940               		.loc 6 117 0
 941 03ee 80E0      		ldi r24,lo8(.LC9)
 942 03f0 90E0      		ldi r25,hi8(.LC9)
 943 03f2 892F      		mov r24,r25
 944 03f4 8F93      		push r24
 945 03f6 80E0      		ldi r24,lo8(.LC9)
 946 03f8 90E0      		ldi r25,hi8(.LC9)
 947 03fa 8F93      		push r24
 948 03fc 0E94 0000 		call printf
 949 0400 0F90      		pop __tmp_reg__
 950 0402 0F90      		pop __tmp_reg__
 118:teste_envio.c **** 	if( count++ <= 4)
 951               		.loc 6 118 0
 952 0404 8091 0000 		lds r24,count
 953 0408 9091 0000 		lds r25,count+1
 954 040c 9C01      		movw r18,r24
 955 040e 2F5F      		subi r18,-1
 956 0410 3F4F      		sbci r19,-1
 957 0412 3093 0000 		sts count+1,r19
 958 0416 2093 0000 		sts count,r18
 959 041a 0597      		sbiw r24,5
 960 041c 04F4      		brge .L26
 119:teste_envio.c **** 		macsc_enable_manual_bts();
 961               		.loc 6 119 0
 962 041e 0E94 0000 		call macsc_enable_manual_bts
 963               	.L26:
 120:teste_envio.c **** }
 964               		.loc 6 120 0
 965 0422 0000      		nop
 966               	/* epilogue start */
 967 0424 DF91      		pop r29
 968 0426 CF91      		pop r28
 969 0428 0895      		ret
 970               		.cfi_endproc
 971               	.LFE134:
 973               	.global	APP_TaskHandler
 975               	APP_TaskHandler:
 976               	.LFB135:
 121:teste_envio.c **** 
 122:teste_envio.c **** 
 123:teste_envio.c **** void APP_TaskHandler(void)
 124:teste_envio.c **** {
 977               		.loc 6 124 0
 978               		.cfi_startproc
 979 042a CF93      		push r28
 980               	.LCFI47:
 981               		.cfi_def_cfa_offset 3
 982               		.cfi_offset 28, -2
 983 042c DF93      		push r29
 984               	.LCFI48:
 985               		.cfi_def_cfa_offset 4
 986               		.cfi_offset 29, -3
 987 042e CDB7      		in r28,__SP_L__
 988 0430 DEB7      		in r29,__SP_H__
 989               	.LCFI49:
 990               		.cfi_def_cfa_register 28
 991               	/* prologue: function */
 992               	/* frame size = 0 */
 993               	/* stack size = 2 */
 994               	.L__stack_usage = 2
 125:teste_envio.c **** 	
 126:teste_envio.c **** 	switch (state)
 995               		.loc 6 126 0
 996 0432 8091 0000 		lds r24,state
 997 0436 882F      		mov r24,r24
 998 0438 90E0      		ldi r25,0
 999 043a 892B      		or r24,r25
 1000 043c 01F0      		breq .+2
 1001 043e 00C0      		rjmp .L31
 127:teste_envio.c **** 	{
 128:teste_envio.c **** 		case INIT:
 129:teste_envio.c **** 		{
 130:teste_envio.c **** 			/*
 131:teste_envio.c **** 			 * Enable CSMA/CA
 132:teste_envio.c **** 			 * Enable Random CSMA seed generator
 133:teste_envio.c **** 			 */
 134:teste_envio.c **** 			NWK_SetAddr(APP_ADDR);
 1002               		.loc 6 134 0
 1003 0440 80E0      		ldi r24,0
 1004 0442 90E0      		ldi r25,0
 1005 0444 0E94 0000 		call NWK_SetAddr
 135:teste_envio.c **** 			PHY_SetChannel(APP_CHANNEL);
 1006               		.loc 6 135 0
 1007 0448 8FE0      		ldi r24,lo8(15)
 1008 044a 0E94 0000 		call PHY_SetChannel
 136:teste_envio.c **** 			PHY_SetRxState(true);
 1009               		.loc 6 136 0
 1010 044e 81E0      		ldi r24,lo8(1)
 1011 0450 0E94 0000 		call PHY_SetRxState
 137:teste_envio.c **** 			PHY_SetPromiscuousMode(true);
 1012               		.loc 6 137 0
 1013 0454 81E0      		ldi r24,lo8(1)
 1014 0456 0E94 0000 		call PHY_SetPromiscuousMode
 138:teste_envio.c **** 			PHY_SetTdmaMode(false);
 1015               		.loc 6 138 0
 1016 045a 80E0      		ldi r24,0
 1017 045c 0E94 0000 		call PHY_SetTdmaMode
 139:teste_envio.c **** 			// PHY_SetOptimizedCSMAValues();
 140:teste_envio.c **** 			
 141:teste_envio.c **** 			macsc_set_cmp1_int_cb(lldn_server_beacon_t);
 1018               		.loc 6 141 0
 1019 0460 80E0      		ldi r24,lo8(gs(lldn_server_beacon_t))
 1020 0462 90E0      		ldi r25,hi8(gs(lldn_server_beacon_t))
 1021 0464 0E94 0000 		call macsc_set_cmp1_int_cb
 142:teste_envio.c **** 			macsc_enable_manual_bts();
 1022               		.loc 6 142 0
 1023 0468 0E94 0000 		call macsc_enable_manual_bts
 143:teste_envio.c **** 			macsc_enable_cmp_int(MACSC_CC1);
 1024               		.loc 6 143 0
 1025 046c 81E0      		ldi r24,lo8(1)
 1026 046e 0E94 0000 		call macsc_enable_cmp_int
 144:teste_envio.c **** 			macsc_use_cmp(MACSC_RELATIVE_CMP, 300, MACSC_CC1);
 1027               		.loc 6 144 0
 1028 0472 21E0      		ldi r18,lo8(1)
 1029 0474 4CE2      		ldi r20,lo8(44)
 1030 0476 51E0      		ldi r21,lo8(1)
 1031 0478 60E0      		ldi r22,0
 1032 047a 70E0      		ldi r23,0
 1033 047c 81E0      		ldi r24,lo8(1)
 1034 047e 0E94 0000 		call macsc_use_cmp
 145:teste_envio.c **** 			NWK_OpenEndpoint(APP_BEACON_ENDPOINT, appBeaconInd);			
 1035               		.loc 6 145 0
 1036 0482 60E0      		ldi r22,lo8(gs(appBeaconInd))
 1037 0484 70E0      		ldi r23,hi8(gs(appBeaconInd))
 1038 0486 80E0      		ldi r24,0
 1039 0488 0E94 0000 		call NWK_OpenEndpoint
 146:teste_envio.c **** 			NWK_OpenEndpoint(APP_COMMAND_ENDPOINT, appMacCommandInd);
 1040               		.loc 6 146 0
 1041 048c 60E0      		ldi r22,lo8(gs(appMacCommandInd))
 1042 048e 70E0      		ldi r23,hi8(gs(appMacCommandInd))
 1043 0490 83E0      		ldi r24,lo8(3)
 1044 0492 0E94 0000 		call NWK_OpenEndpoint
 147:teste_envio.c **** 			
 148:teste_envio.c **** 			msgDiscResponse.id = LL_DISCOVER_RESPONSE;
 1045               		.loc 6 148 0
 1046 0496 8DE0      		ldi r24,lo8(13)
 1047 0498 8093 0000 		sts msgDiscResponse,r24
 149:teste_envio.c **** 			msgDiscResponse.macAddr = 0x24;
 1048               		.loc 6 149 0
 1049 049c 84E2      		ldi r24,lo8(36)
 1050 049e 8093 0000 		sts msgDiscResponse+1,r24
 150:teste_envio.c **** 			msgDiscResponse.ts_dir.tsDuration = (uint8_t)15;
 1051               		.loc 6 150 0
 1052 04a2 8091 0000 		lds r24,msgDiscResponse+2
 1053 04a6 8078      		andi r24,lo8(-128)
 1054 04a8 8F60      		ori r24,lo8(15)
 1055 04aa 8093 0000 		sts msgDiscResponse+2,r24
 151:teste_envio.c **** 			msgDiscResponse.ts_dir.dirIndicator = 1 << 0;
 1056               		.loc 6 151 0
 1057 04ae 8091 0000 		lds r24,msgDiscResponse+2
 1058 04b2 8068      		ori r24,lo8(-128)
 1059 04b4 8093 0000 		sts msgDiscResponse+2,r24
 152:teste_envio.c **** 			
 153:teste_envio.c **** 			
 154:teste_envio.c **** // 			msgReq.dstAddr				= 0;
 155:teste_envio.c **** // 			msgReq.dstEndpoint			= APP_COMMAND_ENDPOINT;
 156:teste_envio.c **** // 			msgReq.srcEndpoint			= APP_COMMAND_ENDPOINT;
 157:teste_envio.c **** // 			msgReq.options				= NWK_OPT_MAC_COMMAND;
 158:teste_envio.c **** // 			msgReq.data					= (uint8_t*)&msgDiscResponse;
 159:teste_envio.c **** // 			msgReq.size					= sizeof(msgDiscResponse);
 160:teste_envio.c **** 
 161:teste_envio.c **** 			msgReq.options = NWK_OPT_LLDN_BEACON | NWK_OPT_DISCOVERY_STATE | NWK_OPT_SECOND_BEACON ;
 1060               		.loc 6 161 0
 1061 04b8 80E4      		ldi r24,lo8(64)
 1062 04ba 99E0      		ldi r25,lo8(9)
 1063 04bc 9093 0000 		sts msgReq+9+1,r25
 1064 04c0 8093 0000 		sts msgReq+9,r24
 162:teste_envio.c **** 			msgReq.data = NULL;
 1065               		.loc 6 162 0
 1066 04c4 1092 0000 		sts msgReq+13+1,__zero_reg__
 1067 04c8 1092 0000 		sts msgReq+13,__zero_reg__
 163:teste_envio.c **** 			msgReq.size = 0;
 1068               		.loc 6 163 0
 1069 04cc 1092 0000 		sts msgReq+15,__zero_reg__
 164:teste_envio.c **** 
 165:teste_envio.c **** 			NWK_DataReq(&msgReq);
 1070               		.loc 6 165 0
 1071 04d0 80E0      		ldi r24,lo8(msgReq)
 1072 04d2 90E0      		ldi r25,hi8(msgReq)
 1073 04d4 0E94 0000 		call NWK_DataReq
 166:teste_envio.c **** 			
 167:teste_envio.c **** 			/*
 168:teste_envio.c **** 			* Configure interrupts callback functions
 169:teste_envio.c **** 			*/
 170:teste_envio.c **** 			state = IDLE;
 1074               		.loc 6 170 0
 1075 04d8 81E0      		ldi r24,lo8(1)
 1076 04da 8093 0000 		sts state,r24
 171:teste_envio.c **** 			break;
 1077               		.loc 6 171 0
 1078 04de 00C0      		rjmp .L28
 1079               	.L31:
 172:teste_envio.c **** 		}
 173:teste_envio.c **** 		case IDLE:
 174:teste_envio.c **** 		{
 175:teste_envio.c **** 			break;
 1080               		.loc 6 175 0
 1081 04e0 0000      		nop
 1082               	.L28:
 176:teste_envio.c **** 		}
 177:teste_envio.c **** 	}
 178:teste_envio.c **** 	
 179:teste_envio.c **** }
 1083               		.loc 6 179 0
 1084 04e2 0000      		nop
 1085               	/* epilogue start */
 1086 04e4 DF91      		pop r29
 1087 04e6 CF91      		pop r28
 1088 04e8 0895      		ret
 1089               		.cfi_endproc
 1090               	.LFE135:
 1092               		.section	.rodata
 1093               	.LC0:
 1094 0091 00        		.byte	0
 1095 0092 C2        		.byte	-62
 1096 0093 01        		.byte	1
 1097 0094 00        		.byte	0
 1098 0095 03        		.byte	3
 1099 0096 00        		.byte	0
 1100 0097 00        		.byte	0
 1101               		.text
 1102               	.global	main
 1104               	main:
 1105               	.LFB136:
 180:teste_envio.c **** 
 181:teste_envio.c **** int main(void)
 182:teste_envio.c **** {
 1106               		.loc 6 182 0
 1107               		.cfi_startproc
 1108 04ea 0F93      		push r16
 1109               	.LCFI50:
 1110               		.cfi_def_cfa_offset 3
 1111               		.cfi_offset 16, -2
 1112 04ec 1F93      		push r17
 1113               	.LCFI51:
 1114               		.cfi_def_cfa_offset 4
 1115               		.cfi_offset 17, -3
 1116 04ee CF93      		push r28
 1117               	.LCFI52:
 1118               		.cfi_def_cfa_offset 5
 1119               		.cfi_offset 28, -4
 1120 04f0 DF93      		push r29
 1121               	.LCFI53:
 1122               		.cfi_def_cfa_offset 6
 1123               		.cfi_offset 29, -5
 1124 04f2 CDB7      		in r28,__SP_L__
 1125 04f4 DEB7      		in r29,__SP_H__
 1126               	.LCFI54:
 1127               		.cfi_def_cfa_register 28
 1128 04f6 2797      		sbiw r28,7
 1129               	.LCFI55:
 1130               		.cfi_def_cfa_offset 13
 1131 04f8 0FB6      		in __tmp_reg__,__SREG__
 1132 04fa F894      		cli
 1133 04fc DEBF      		out __SP_H__,r29
 1134 04fe 0FBE      		out __SREG__,__tmp_reg__
 1135 0500 CDBF      		out __SP_L__,r28
 1136               	/* prologue: function */
 1137               	/* frame size = 7 */
 1138               	/* stack size = 11 */
 1139               	.L__stack_usage = 11
 183:teste_envio.c **** 	sysclk_init();
 1140               		.loc 6 183 0
 1141 0502 0E94 0000 		call sysclk_init
 184:teste_envio.c **** 	board_init();
 1142               		.loc 6 184 0
 1143 0506 0E94 0000 		call board_init
 185:teste_envio.c **** 
 186:teste_envio.c **** 	SYS_Init();
 1144               		.loc 6 186 0
 1145 050a 0E94 0000 		call SYS_Init
 187:teste_envio.c **** 	// Disable CSMA/CA
 188:teste_envio.c **** 	// Disable auto ACK
 189:teste_envio.c **** 	sm_init();
 1146               		.loc 6 189 0
 1147 050e 0E94 0000 		call sm_init
 190:teste_envio.c **** 
 191:teste_envio.c **** 	// Initialize interrupt vector table support.
 192:teste_envio.c **** 	#if (SIO2HOST_CHANNEL == SIO_USB)
 193:teste_envio.c **** 	irq_initialize_vectors();
 194:teste_envio.c **** 	#endif
 195:teste_envio.c **** 	cpu_irq_enable();
 1148               		.loc 6 195 0
 1149               	/* #APP */
 1150               	 ;  195 "teste_envio.c" 1
 1151 0512 7894      		sei
 1152               	 ;  0 "" 2
 196:teste_envio.c **** 
 197:teste_envio.c **** 	#if APP_COORDINATOR
 198:teste_envio.c **** 	#if (SIO2HOST_CHANNEL == SIO_USB)
 199:teste_envio.c **** 	stdio_usb_init();
 200:teste_envio.c **** 	#else
 201:teste_envio.c **** 	const usart_serial_options_t usart_serial_options =
 1153               		.loc 6 201 0
 1154               	/* #NOAPP */
 1155 0514 27E0      		ldi r18,lo8(7)
 1156 0516 E0E0      		ldi r30,lo8(.LC0)
 1157 0518 F0E0      		ldi r31,hi8(.LC0)
 1158 051a CE01      		movw r24,r28
 1159 051c 0196      		adiw r24,1
 1160 051e DC01      		movw r26,r24
 1161               		0:
 1162 0520 0190      		ld r0,Z+
 1163 0522 0D92      		st X+,r0
 1164 0524 2A95      		dec r18
 1165 0526 01F4      		brne 0b
 202:teste_envio.c **** 	{
 203:teste_envio.c **** 		.baudrate     = USART_HOST_BAUDRATE,
 204:teste_envio.c **** 		.charlength   = USART_HOST_CHAR_LENGTH,
 205:teste_envio.c **** 		.paritytype   = USART_HOST_PARITY,
 206:teste_envio.c **** 		.stopbits     = USART_HOST_STOP_BITS
 207:teste_envio.c **** 	};
 208:teste_envio.c **** 
 209:teste_envio.c **** 	stdio_serial_init(USART_HOST, &usart_serial_options);
 1166               		.loc 6 209 0
 1167 0528 CE01      		movw r24,r28
 1168 052a 0196      		adiw r24,1
 1169 052c BC01      		movw r22,r24
 1170 052e 80EC      		ldi r24,lo8(-64)
 1171 0530 90E0      		ldi r25,0
 1172 0532 0E94 0000 		call stdio_serial_init
 210:teste_envio.c **** 	usart_double_baud_enable(USART_HOST);
 1173               		.loc 6 210 0
 1174 0536 80EC      		ldi r24,lo8(-64)
 1175 0538 90E0      		ldi r25,0
 1176 053a 0E94 0000 		call usart_double_baud_enable
 211:teste_envio.c **** 	usart_set_baudrate_precalculated(USART_HOST, USART_HOST_BAUDRATE, sysclk_get_source_clock_hz());
 1177               		.loc 6 211 0
 1178 053e 0E94 0000 		call sysclk_get_source_clock_hz
 1179 0542 DC01      		movw r26,r24
 1180 0544 CB01      		movw r24,r22
 1181 0546 8C01      		movw r16,r24
 1182 0548 9D01      		movw r18,r26
 1183 054a 40E0      		ldi r20,0
 1184 054c 52EC      		ldi r21,lo8(-62)
 1185 054e 61E0      		ldi r22,lo8(1)
 1186 0550 70E0      		ldi r23,0
 1187 0552 80EC      		ldi r24,lo8(-64)
 1188 0554 90E0      		ldi r25,0
 1189 0556 0E94 0000 		call usart_set_baudrate_precalculated
 212:teste_envio.c **** 
 213:teste_envio.c **** 	#endif
 214:teste_envio.c **** 	#endif
 215:teste_envio.c **** 	
 216:teste_envio.c **** 	
 217:teste_envio.c **** 	 tmrInit.interval = 1000;
 1190               		.loc 6 217 0
 1191 055a 88EE      		ldi r24,lo8(-24)
 1192 055c 93E0      		ldi r25,lo8(3)
 1193 055e A0E0      		ldi r26,0
 1194 0560 B0E0      		ldi r27,0
 1195 0562 8093 0000 		sts tmrInit+6,r24
 1196 0566 9093 0000 		sts tmrInit+6+1,r25
 1197 056a A093 0000 		sts tmrInit+6+2,r26
 1198 056e B093 0000 		sts tmrInit+6+3,r27
 218:teste_envio.c **** 	 tmrInit.mode = SYS_TIMER_INTERVAL_MODE;
 1199               		.loc 6 218 0
 1200 0572 1092 0000 		sts tmrInit+10,__zero_reg__
 219:teste_envio.c **** 	 tmrInit.handler = tmrDelayHandler;
 1201               		.loc 6 219 0
 1202 0576 80E0      		ldi r24,lo8(gs(tmrDelayHandler))
 1203 0578 90E0      		ldi r25,hi8(gs(tmrDelayHandler))
 1204 057a 9093 0000 		sts tmrInit+11+1,r25
 1205 057e 8093 0000 		sts tmrInit+11,r24
 1206               	.L33:
 220:teste_envio.c **** 	 // SYS_TimerStart(&tmrInit);
 221:teste_envio.c **** 
 222:teste_envio.c **** 
 223:teste_envio.c **** 	for(;;)
 224:teste_envio.c **** 	{
 225:teste_envio.c **** 		SYS_TaskHandler();
 1207               		.loc 6 225 0 discriminator 1
 1208 0582 0E94 0000 		call SYS_TaskHandler
 226:teste_envio.c **** 		APP_TaskHandler();
 1209               		.loc 6 226 0 discriminator 1
 1210 0586 0E94 0000 		call APP_TaskHandler
 227:teste_envio.c **** 	}
 1211               		.loc 6 227 0 discriminator 1
 1212 058a 00C0      		rjmp .L33
 1213               		.cfi_endproc
 1214               	.LFE136:
 1216               	.Letext0:
 1217               		.file 7 "c:\\program files (x86)\\atmel\\studio\\7.0\\toolchain\\avr8\\avr8-gnu-toolchain\\avr\\in
 1218               		.file 8 "../../../stack/LwMesh/TDMA/nwk/inc/nwkFrame.h"
 1219               		.file 9 "../../../stack/LwMesh/TDMA/nwk/inc/nwkRx.h"
 1220               		.file 10 "../../../stack/LwMesh/TDMA/nwk/inc/nwkDataReq.h"
 1221               		.file 11 "../../../stack/LwMesh/TDMA/sys/inc/sysTimer.h"
 1222               		.file 12 "../../../platform/mega_rf/drivers/sleep/sleep.h"
 1223               		.file 13 "lldn.h"
 1224               		.file 14 "../../../platform/mega_rf/utils/status_codes.h"
 1225               		.file 15 "config/config.h"
 1226               		.file 16 "../../../platform/common/services/sleepmgr/mega_rf/sleepmgr.h"