   1               		.file	"lp_LUSOL.c"
   2               	__SP_H__ = 0x3e
   3               	__SP_L__ = 0x3d
   4               	__SREG__ = 0x3f
   5               	__RAMPZ__ = 0x3b
   6               	__tmp_reg__ = 0
   7               	__zero_reg__ = 1
   8               		.text
   9               	.Ltext0:
  10               		.cfi_sections	.debug_frame
  11               	.global	bfp_compatible
  13               	bfp_compatible:
  14               	.LFB7:
  15               		.file 1 "lp_solve_5.5\\bfp/lp_BFP1.c"
   1:lp_solve_5.5\bfp/lp_BFP1.c **** 
   2:lp_solve_5.5\bfp/lp_BFP1.c **** /* Routines located in lp_BFP1.cpp; common for all factorization engines              */
   3:lp_solve_5.5\bfp/lp_BFP1.c **** /* Cfr. lp_BFP.h for definitions                                                      */
   4:lp_solve_5.5\bfp/lp_BFP1.c **** /* ---------------------------------------------------------------------------------- */
   5:lp_solve_5.5\bfp/lp_BFP1.c **** /* Changes:                                                                           */
   6:lp_solve_5.5\bfp/lp_BFP1.c **** /* 29 May 2004       Corrected calculation of bfp_efficiency(), which required        */
   7:lp_solve_5.5\bfp/lp_BFP1.c **** /*                   modifying the max_Bsize to include slack variables. KE.          */
   8:lp_solve_5.5\bfp/lp_BFP1.c **** /* 16 June 2004      Make the symbolic minimum degree ordering routine available      */
   9:lp_solve_5.5\bfp/lp_BFP1.c **** /*                   to BFPs as a routine internal to the library. KE                 */
  10:lp_solve_5.5\bfp/lp_BFP1.c **** /* 1  July 2004      Change due to change in MDO naming.                              */
  11:lp_solve_5.5\bfp/lp_BFP1.c **** /* ---------------------------------------------------------------------------------- */
  12:lp_solve_5.5\bfp/lp_BFP1.c **** 
  13:lp_solve_5.5\bfp/lp_BFP1.c **** 
  14:lp_solve_5.5\bfp/lp_BFP1.c **** /* MUST MODIFY */
  15:lp_solve_5.5\bfp/lp_BFP1.c **** MYBOOL BFP_CALLMODEL bfp_compatible(lprec *lp, int bfpversion, int lpversion, int sizeofvar)
  16:lp_solve_5.5\bfp/lp_BFP1.c **** {
  16               		.loc 1 16 0
  17               		.cfi_startproc
  18 0000 CF93      		push r28
  19               	.LCFI0:
  20               		.cfi_def_cfa_offset 3
  21               		.cfi_offset 28, -2
  22 0002 DF93      		push r29
  23               	.LCFI1:
  24               		.cfi_def_cfa_offset 4
  25               		.cfi_offset 29, -3
  26 0004 CDB7      		in r28,__SP_L__
  27 0006 DEB7      		in r29,__SP_H__
  28               	.LCFI2:
  29               		.cfi_def_cfa_register 28
  30 0008 2997      		sbiw r28,9
  31               	.LCFI3:
  32               		.cfi_def_cfa_offset 13
  33 000a 0FB6      		in __tmp_reg__,__SREG__
  34 000c F894      		cli
  35 000e DEBF      		out __SP_H__,r29
  36 0010 0FBE      		out __SREG__,__tmp_reg__
  37 0012 CDBF      		out __SP_L__,r28
  38               	/* prologue: function */
  39               	/* frame size = 9 */
  40               	/* stack size = 11 */
  41               	.L__stack_usage = 11
  42 0014 9B83      		std Y+3,r25
  43 0016 8A83      		std Y+2,r24
  44 0018 7D83      		std Y+5,r23
  45 001a 6C83      		std Y+4,r22
  46 001c 5F83      		std Y+7,r21
  47 001e 4E83      		std Y+6,r20
  48 0020 3987      		std Y+9,r19
  49 0022 2887      		std Y+8,r18
  17:lp_solve_5.5\bfp/lp_BFP1.c ****   MYBOOL status = FALSE;
  50               		.loc 1 17 0
  51 0024 1982      		std Y+1,__zero_reg__
  18:lp_solve_5.5\bfp/lp_BFP1.c **** 
  19:lp_solve_5.5\bfp/lp_BFP1.c ****   if((lp != NULL) && (bfpversion == BFPVERSION) && (sizeof(REAL) == sizeofvar)) {
  52               		.loc 1 19 0
  53 0026 8A81      		ldd r24,Y+2
  54 0028 9B81      		ldd r25,Y+3
  55 002a 892B      		or r24,r25
  56 002c 01F0      		breq .L2
  57               		.loc 1 19 0 is_stmt 0 discriminator 1
  58 002e 8C81      		ldd r24,Y+4
  59 0030 9D81      		ldd r25,Y+5
  60 0032 0C97      		sbiw r24,12
  61 0034 01F4      		brne .L2
  62               		.loc 1 19 0 discriminator 2
  63 0036 8885      		ldd r24,Y+8
  64 0038 9985      		ldd r25,Y+9
  65 003a 0497      		sbiw r24,4
  66 003c 01F4      		brne .L2
  20:lp_solve_5.5\bfp/lp_BFP1.c **** #if 0
  21:lp_solve_5.5\bfp/lp_BFP1.c ****     if(lpversion == MAJORVERSION)  /* Forces BFP renewal at lp_solve major version changes */
  22:lp_solve_5.5\bfp/lp_BFP1.c **** #endif
  23:lp_solve_5.5\bfp/lp_BFP1.c ****       status = TRUE;
  67               		.loc 1 23 0 is_stmt 1
  68 003e 81E0      		ldi r24,lo8(1)
  69 0040 8983      		std Y+1,r24
  70               	.L2:
  24:lp_solve_5.5\bfp/lp_BFP1.c ****   }
  25:lp_solve_5.5\bfp/lp_BFP1.c ****   return( status );
  71               		.loc 1 25 0
  72 0042 8981      		ldd r24,Y+1
  73               	/* epilogue start */
  26:lp_solve_5.5\bfp/lp_BFP1.c **** }
  74               		.loc 1 26 0
  75 0044 2996      		adiw r28,9
  76 0046 0FB6      		in __tmp_reg__,__SREG__
  77 0048 F894      		cli
  78 004a DEBF      		out __SP_H__,r29
  79 004c 0FBE      		out __SREG__,__tmp_reg__
  80 004e CDBF      		out __SP_L__,r28
  81 0050 DF91      		pop r29
  82 0052 CF91      		pop r28
  83 0054 0895      		ret
  84               		.cfi_endproc
  85               	.LFE7:
  87               	.global	bfp_status
  89               	bfp_status:
  90               	.LFB8:
  27:lp_solve_5.5\bfp/lp_BFP1.c **** 
  28:lp_solve_5.5\bfp/lp_BFP1.c **** /* DON'T MODIFY */
  29:lp_solve_5.5\bfp/lp_BFP1.c **** int BFP_CALLMODEL bfp_status(lprec *lp)
  30:lp_solve_5.5\bfp/lp_BFP1.c **** {
  91               		.loc 1 30 0
  92               		.cfi_startproc
  93 0056 CF93      		push r28
  94               	.LCFI4:
  95               		.cfi_def_cfa_offset 3
  96               		.cfi_offset 28, -2
  97 0058 DF93      		push r29
  98               	.LCFI5:
  99               		.cfi_def_cfa_offset 4
 100               		.cfi_offset 29, -3
 101 005a 00D0      		rcall .
 102               	.LCFI6:
 103               		.cfi_def_cfa_offset 6
 104 005c CDB7      		in r28,__SP_L__
 105 005e DEB7      		in r29,__SP_H__
 106               	.LCFI7:
 107               		.cfi_def_cfa_register 28
 108               	/* prologue: function */
 109               	/* frame size = 2 */
 110               	/* stack size = 4 */
 111               	.L__stack_usage = 4
 112 0060 9A83      		std Y+2,r25
 113 0062 8983      		std Y+1,r24
  31:lp_solve_5.5\bfp/lp_BFP1.c ****   return(lp->invB->status);
 114               		.loc 1 31 0
 115 0064 8981      		ldd r24,Y+1
 116 0066 9A81      		ldd r25,Y+2
 117 0068 8854      		subi r24,72
 118 006a 9D4F      		sbci r25,-3
 119 006c FC01      		movw r30,r24
 120 006e 8081      		ld r24,Z
 121 0070 9181      		ldd r25,Z+1
 122 0072 FC01      		movw r30,r24
 123 0074 8081      		ld r24,Z
 124 0076 9181      		ldd r25,Z+1
 125               	/* epilogue start */
  32:lp_solve_5.5\bfp/lp_BFP1.c **** }
 126               		.loc 1 32 0
 127 0078 0F90      		pop __tmp_reg__
 128 007a 0F90      		pop __tmp_reg__
 129 007c DF91      		pop r29
 130 007e CF91      		pop r28
 131 0080 0895      		ret
 132               		.cfi_endproc
 133               	.LFE8:
 135               	.global	bfp_indexbase
 137               	bfp_indexbase:
 138               	.LFB9:
  33:lp_solve_5.5\bfp/lp_BFP1.c **** 
  34:lp_solve_5.5\bfp/lp_BFP1.c **** /* DON'T MODIFY */
  35:lp_solve_5.5\bfp/lp_BFP1.c **** int BFP_CALLMODEL bfp_indexbase(lprec *lp)
  36:lp_solve_5.5\bfp/lp_BFP1.c **** {
 139               		.loc 1 36 0
 140               		.cfi_startproc
 141 0082 CF93      		push r28
 142               	.LCFI8:
 143               		.cfi_def_cfa_offset 3
 144               		.cfi_offset 28, -2
 145 0084 DF93      		push r29
 146               	.LCFI9:
 147               		.cfi_def_cfa_offset 4
 148               		.cfi_offset 29, -3
 149 0086 00D0      		rcall .
 150               	.LCFI10:
 151               		.cfi_def_cfa_offset 6
 152 0088 CDB7      		in r28,__SP_L__
 153 008a DEB7      		in r29,__SP_H__
 154               	.LCFI11:
 155               		.cfi_def_cfa_register 28
 156               	/* prologue: function */
 157               	/* frame size = 2 */
 158               	/* stack size = 4 */
 159               	.L__stack_usage = 4
 160 008c 9A83      		std Y+2,r25
 161 008e 8983      		std Y+1,r24
  37:lp_solve_5.5\bfp/lp_BFP1.c ****   return( MATINDEXBASE );
 162               		.loc 1 37 0
 163 0090 81E0      		ldi r24,lo8(1)
 164 0092 90E0      		ldi r25,0
 165               	/* epilogue start */
  38:lp_solve_5.5\bfp/lp_BFP1.c **** }
 166               		.loc 1 38 0
 167 0094 0F90      		pop __tmp_reg__
 168 0096 0F90      		pop __tmp_reg__
 169 0098 DF91      		pop r29
 170 009a CF91      		pop r28
 171 009c 0895      		ret
 172               		.cfi_endproc
 173               	.LFE9:
 175               	.global	bfp_rowoffset
 177               	bfp_rowoffset:
 178               	.LFB10:
  39:lp_solve_5.5\bfp/lp_BFP1.c **** 
  40:lp_solve_5.5\bfp/lp_BFP1.c **** /* DON'T MODIFY */
  41:lp_solve_5.5\bfp/lp_BFP1.c **** int BFP_CALLMODEL bfp_rowoffset(lprec *lp)
  42:lp_solve_5.5\bfp/lp_BFP1.c **** {
 179               		.loc 1 42 0
 180               		.cfi_startproc
 181 009e CF93      		push r28
 182               	.LCFI12:
 183               		.cfi_def_cfa_offset 3
 184               		.cfi_offset 28, -2
 185 00a0 DF93      		push r29
 186               	.LCFI13:
 187               		.cfi_def_cfa_offset 4
 188               		.cfi_offset 29, -3
 189 00a2 00D0      		rcall .
 190               	.LCFI14:
 191               		.cfi_def_cfa_offset 6
 192 00a4 CDB7      		in r28,__SP_L__
 193 00a6 DEB7      		in r29,__SP_H__
 194               	.LCFI15:
 195               		.cfi_def_cfa_register 28
 196               	/* prologue: function */
 197               	/* frame size = 2 */
 198               	/* stack size = 4 */
 199               	.L__stack_usage = 4
 200 00a8 9A83      		std Y+2,r25
 201 00aa 8983      		std Y+1,r24
  43:lp_solve_5.5\bfp/lp_BFP1.c ****   if(lp->obj_in_basis)
 202               		.loc 1 43 0
 203 00ac 8981      		ldd r24,Y+1
 204 00ae 9A81      		ldd r25,Y+2
 205 00b0 8B5F      		subi r24,-5
 206 00b2 9D4F      		sbci r25,-3
 207 00b4 FC01      		movw r30,r24
 208 00b6 8081      		ld r24,Z
 209 00b8 8823      		tst r24
 210 00ba 01F0      		breq .L9
  44:lp_solve_5.5\bfp/lp_BFP1.c ****     return( 1 );
 211               		.loc 1 44 0
 212 00bc 81E0      		ldi r24,lo8(1)
 213 00be 90E0      		ldi r25,0
 214 00c0 00C0      		rjmp .L10
 215               	.L9:
  45:lp_solve_5.5\bfp/lp_BFP1.c ****   else
  46:lp_solve_5.5\bfp/lp_BFP1.c ****     return( 0 );
 216               		.loc 1 46 0
 217 00c2 80E0      		ldi r24,0
 218 00c4 90E0      		ldi r25,0
 219               	.L10:
 220               	/* epilogue start */
  47:lp_solve_5.5\bfp/lp_BFP1.c **** }
 221               		.loc 1 47 0
 222 00c6 0F90      		pop __tmp_reg__
 223 00c8 0F90      		pop __tmp_reg__
 224 00ca DF91      		pop r29
 225 00cc CF91      		pop r28
 226 00ce 0895      		ret
 227               		.cfi_endproc
 228               	.LFE10:
 230               	.global	bfp_pivotmax
 232               	bfp_pivotmax:
 233               	.LFB11:
  48:lp_solve_5.5\bfp/lp_BFP1.c **** 
  49:lp_solve_5.5\bfp/lp_BFP1.c **** /* DON'T MODIFY */
  50:lp_solve_5.5\bfp/lp_BFP1.c **** int BFP_CALLMODEL bfp_pivotmax(lprec *lp)
  51:lp_solve_5.5\bfp/lp_BFP1.c **** {
 234               		.loc 1 51 0
 235               		.cfi_startproc
 236 00d0 CF93      		push r28
 237               	.LCFI16:
 238               		.cfi_def_cfa_offset 3
 239               		.cfi_offset 28, -2
 240 00d2 DF93      		push r29
 241               	.LCFI17:
 242               		.cfi_def_cfa_offset 4
 243               		.cfi_offset 29, -3
 244 00d4 00D0      		rcall .
 245               	.LCFI18:
 246               		.cfi_def_cfa_offset 6
 247 00d6 CDB7      		in r28,__SP_L__
 248 00d8 DEB7      		in r29,__SP_H__
 249               	.LCFI19:
 250               		.cfi_def_cfa_register 28
 251               	/* prologue: function */
 252               	/* frame size = 2 */
 253               	/* stack size = 4 */
 254               	.L__stack_usage = 4
 255 00da 9A83      		std Y+2,r25
 256 00dc 8983      		std Y+1,r24
  52:lp_solve_5.5\bfp/lp_BFP1.c ****   if(lp->max_pivots > 0)
 257               		.loc 1 52 0
 258 00de 8981      		ldd r24,Y+1
 259 00e0 9A81      		ldd r25,Y+2
 260 00e2 8E5A      		subi r24,-82
 261 00e4 9D4F      		sbci r25,-3
 262 00e6 FC01      		movw r30,r24
 263 00e8 8081      		ld r24,Z
 264 00ea 9181      		ldd r25,Z+1
 265 00ec 1816      		cp __zero_reg__,r24
 266 00ee 1906      		cpc __zero_reg__,r25
 267 00f0 04F4      		brge .L12
  53:lp_solve_5.5\bfp/lp_BFP1.c ****     return( lp->max_pivots );
 268               		.loc 1 53 0
 269 00f2 8981      		ldd r24,Y+1
 270 00f4 9A81      		ldd r25,Y+2
 271 00f6 8E5A      		subi r24,-82
 272 00f8 9D4F      		sbci r25,-3
 273 00fa FC01      		movw r30,r24
 274 00fc 8081      		ld r24,Z
 275 00fe 9181      		ldd r25,Z+1
 276 0100 00C0      		rjmp .L13
 277               	.L12:
  54:lp_solve_5.5\bfp/lp_BFP1.c ****   else
  55:lp_solve_5.5\bfp/lp_BFP1.c ****     return( DEF_MAXPIVOT );
 278               		.loc 1 55 0
 279 0102 8AEF      		ldi r24,lo8(-6)
 280 0104 90E0      		ldi r25,0
 281               	.L13:
 282               	/* epilogue start */
  56:lp_solve_5.5\bfp/lp_BFP1.c **** }
 283               		.loc 1 56 0
 284 0106 0F90      		pop __tmp_reg__
 285 0108 0F90      		pop __tmp_reg__
 286 010a DF91      		pop r29
 287 010c CF91      		pop r28
 288 010e 0895      		ret
 289               		.cfi_endproc
 290               	.LFE11:
 292               	.global	bfp_pivotvector
 294               	bfp_pivotvector:
 295               	.LFB12:
  57:lp_solve_5.5\bfp/lp_BFP1.c **** 
  58:lp_solve_5.5\bfp/lp_BFP1.c **** /* DON'T MODIFY */
  59:lp_solve_5.5\bfp/lp_BFP1.c **** REAL * BFP_CALLMODEL bfp_pivotvector(lprec *lp)
  60:lp_solve_5.5\bfp/lp_BFP1.c **** {
 296               		.loc 1 60 0
 297               		.cfi_startproc
 298 0110 CF93      		push r28
 299               	.LCFI20:
 300               		.cfi_def_cfa_offset 3
 301               		.cfi_offset 28, -2
 302 0112 DF93      		push r29
 303               	.LCFI21:
 304               		.cfi_def_cfa_offset 4
 305               		.cfi_offset 29, -3
 306 0114 00D0      		rcall .
 307               	.LCFI22:
 308               		.cfi_def_cfa_offset 6
 309 0116 CDB7      		in r28,__SP_L__
 310 0118 DEB7      		in r29,__SP_H__
 311               	.LCFI23:
 312               		.cfi_def_cfa_register 28
 313               	/* prologue: function */
 314               	/* frame size = 2 */
 315               	/* stack size = 4 */
 316               	.L__stack_usage = 4
 317 011a 9A83      		std Y+2,r25
 318 011c 8983      		std Y+1,r24
  61:lp_solve_5.5\bfp/lp_BFP1.c ****   return( lp->invB->pcol );
 319               		.loc 1 61 0
 320 011e 8981      		ldd r24,Y+1
 321 0120 9A81      		ldd r25,Y+2
 322 0122 8854      		subi r24,72
 323 0124 9D4F      		sbci r25,-3
 324 0126 FC01      		movw r30,r24
 325 0128 8081      		ld r24,Z
 326 012a 9181      		ldd r25,Z+1
 327 012c FC01      		movw r30,r24
 328 012e 8289      		ldd r24,Z+18
 329 0130 9389      		ldd r25,Z+19
 330               	/* epilogue start */
  62:lp_solve_5.5\bfp/lp_BFP1.c **** }
 331               		.loc 1 62 0
 332 0132 0F90      		pop __tmp_reg__
 333 0134 0F90      		pop __tmp_reg__
 334 0136 DF91      		pop r29
 335 0138 CF91      		pop r28
 336 013a 0895      		ret
 337               		.cfi_endproc
 338               	.LFE12:
 340               	.global	__floatsisf
 341               	.global	__eqsf2
 342               	.global	__divsf3
 343               	.global	bfp_efficiency
 345               	bfp_efficiency:
 346               	.LFB13:
  63:lp_solve_5.5\bfp/lp_BFP1.c **** 
  64:lp_solve_5.5\bfp/lp_BFP1.c **** /* DON'T MODIFY */
  65:lp_solve_5.5\bfp/lp_BFP1.c **** REAL BFP_CALLMODEL bfp_efficiency(lprec *lp)
  66:lp_solve_5.5\bfp/lp_BFP1.c **** {
 347               		.loc 1 66 0
 348               		.cfi_startproc
 349 013c CF93      		push r28
 350               	.LCFI24:
 351               		.cfi_def_cfa_offset 3
 352               		.cfi_offset 28, -2
 353 013e DF93      		push r29
 354               	.LCFI25:
 355               		.cfi_def_cfa_offset 4
 356               		.cfi_offset 29, -3
 357 0140 00D0      		rcall .
 358 0142 00D0      		rcall .
 359 0144 00D0      		rcall .
 360               	.LCFI26:
 361               		.cfi_def_cfa_offset 10
 362 0146 CDB7      		in r28,__SP_L__
 363 0148 DEB7      		in r29,__SP_H__
 364               	.LCFI27:
 365               		.cfi_def_cfa_register 28
 366               	/* prologue: function */
 367               	/* frame size = 6 */
 368               	/* stack size = 8 */
 369               	.L__stack_usage = 8
 370 014a 9E83      		std Y+6,r25
 371 014c 8D83      		std Y+5,r24
  67:lp_solve_5.5\bfp/lp_BFP1.c ****   REAL hold;
  68:lp_solve_5.5\bfp/lp_BFP1.c **** 
  69:lp_solve_5.5\bfp/lp_BFP1.c ****   hold = lp->bfp_nonzeros(lp, AUTOMATIC);
 372               		.loc 1 69 0
 373 014e 8D81      		ldd r24,Y+5
 374 0150 9E81      		ldd r25,Y+6
 375 0152 8654      		subi r24,70
 376 0154 9C4F      		sbci r25,-4
 377 0156 FC01      		movw r30,r24
 378 0158 2081      		ld r18,Z
 379 015a 3181      		ldd r19,Z+1
 380 015c 8D81      		ldd r24,Y+5
 381 015e 9E81      		ldd r25,Y+6
 382 0160 62E0      		ldi r22,lo8(2)
 383 0162 F901      		movw r30,r18
 384 0164 0995      		icall
 385 0166 092E      		mov __tmp_reg__,r25
 386 0168 000C      		lsl r0
 387 016a AA0B      		sbc r26,r26
 388 016c BB0B      		sbc r27,r27
 389 016e BC01      		movw r22,r24
 390 0170 CD01      		movw r24,r26
 391 0172 0E94 0000 		call __floatsisf
 392 0176 DC01      		movw r26,r24
 393 0178 CB01      		movw r24,r22
 394 017a 8983      		std Y+1,r24
 395 017c 9A83      		std Y+2,r25
 396 017e AB83      		std Y+3,r26
 397 0180 BC83      		std Y+4,r27
  70:lp_solve_5.5\bfp/lp_BFP1.c ****   if(hold == 0)
 398               		.loc 1 70 0
 399 0182 20E0      		ldi r18,0
 400 0184 30E0      		ldi r19,0
 401 0186 A901      		movw r20,r18
 402 0188 6981      		ldd r22,Y+1
 403 018a 7A81      		ldd r23,Y+2
 404 018c 8B81      		ldd r24,Y+3
 405 018e 9C81      		ldd r25,Y+4
 406 0190 0E94 0000 		call __eqsf2
 407 0194 8823      		tst r24
 408 0196 01F4      		brne .L17
  71:lp_solve_5.5\bfp/lp_BFP1.c ****     hold = 1 + lp->rows;
 409               		.loc 1 71 0
 410 0198 8D81      		ldd r24,Y+5
 411 019a 9E81      		ldd r25,Y+6
 412 019c 8651      		subi r24,22
 413 019e 9E4F      		sbci r25,-2
 414 01a0 FC01      		movw r30,r24
 415 01a2 8081      		ld r24,Z
 416 01a4 9181      		ldd r25,Z+1
 417 01a6 0196      		adiw r24,1
 418 01a8 092E      		mov __tmp_reg__,r25
 419 01aa 000C      		lsl r0
 420 01ac AA0B      		sbc r26,r26
 421 01ae BB0B      		sbc r27,r27
 422 01b0 BC01      		movw r22,r24
 423 01b2 CD01      		movw r24,r26
 424 01b4 0E94 0000 		call __floatsisf
 425 01b8 DC01      		movw r26,r24
 426 01ba CB01      		movw r24,r22
 427 01bc 8983      		std Y+1,r24
 428 01be 9A83      		std Y+2,r25
 429 01c0 AB83      		std Y+3,r26
 430 01c2 BC83      		std Y+4,r27
 431               	.L17:
  72:lp_solve_5.5\bfp/lp_BFP1.c ****   hold = lp->bfp_nonzeros(lp, TRUE)/hold;
 432               		.loc 1 72 0
 433 01c4 8D81      		ldd r24,Y+5
 434 01c6 9E81      		ldd r25,Y+6
 435 01c8 8654      		subi r24,70
 436 01ca 9C4F      		sbci r25,-4
 437 01cc FC01      		movw r30,r24
 438 01ce 2081      		ld r18,Z
 439 01d0 3181      		ldd r19,Z+1
 440 01d2 8D81      		ldd r24,Y+5
 441 01d4 9E81      		ldd r25,Y+6
 442 01d6 61E0      		ldi r22,lo8(1)
 443 01d8 F901      		movw r30,r18
 444 01da 0995      		icall
 445 01dc 092E      		mov __tmp_reg__,r25
 446 01de 000C      		lsl r0
 447 01e0 AA0B      		sbc r26,r26
 448 01e2 BB0B      		sbc r27,r27
 449 01e4 BC01      		movw r22,r24
 450 01e6 CD01      		movw r24,r26
 451 01e8 0E94 0000 		call __floatsisf
 452 01ec DC01      		movw r26,r24
 453 01ee CB01      		movw r24,r22
 454 01f0 2981      		ldd r18,Y+1
 455 01f2 3A81      		ldd r19,Y+2
 456 01f4 4B81      		ldd r20,Y+3
 457 01f6 5C81      		ldd r21,Y+4
 458 01f8 BC01      		movw r22,r24
 459 01fa CD01      		movw r24,r26
 460 01fc 0E94 0000 		call __divsf3
 461 0200 DC01      		movw r26,r24
 462 0202 CB01      		movw r24,r22
 463 0204 8983      		std Y+1,r24
 464 0206 9A83      		std Y+2,r25
 465 0208 AB83      		std Y+3,r26
 466 020a BC83      		std Y+4,r27
  73:lp_solve_5.5\bfp/lp_BFP1.c **** 
  74:lp_solve_5.5\bfp/lp_BFP1.c ****   return(hold);
 467               		.loc 1 74 0
 468 020c 8981      		ldd r24,Y+1
 469 020e 9A81      		ldd r25,Y+2
 470 0210 AB81      		ldd r26,Y+3
 471 0212 BC81      		ldd r27,Y+4
  75:lp_solve_5.5\bfp/lp_BFP1.c **** }
 472               		.loc 1 75 0
 473 0214 BC01      		movw r22,r24
 474 0216 CD01      		movw r24,r26
 475               	/* epilogue start */
 476 0218 2696      		adiw r28,6
 477 021a 0FB6      		in __tmp_reg__,__SREG__
 478 021c F894      		cli
 479 021e DEBF      		out __SP_H__,r29
 480 0220 0FBE      		out __SREG__,__tmp_reg__
 481 0222 CDBF      		out __SP_L__,r28
 482 0224 DF91      		pop r29
 483 0226 CF91      		pop r28
 484 0228 0895      		ret
 485               		.cfi_endproc
 486               	.LFE13:
 488               	.global	bfp_pivotcount
 490               	bfp_pivotcount:
 491               	.LFB14:
  76:lp_solve_5.5\bfp/lp_BFP1.c **** 
  77:lp_solve_5.5\bfp/lp_BFP1.c **** /* DON'T MODIFY */
  78:lp_solve_5.5\bfp/lp_BFP1.c **** int BFP_CALLMODEL bfp_pivotcount(lprec *lp)
  79:lp_solve_5.5\bfp/lp_BFP1.c **** {
 492               		.loc 1 79 0
 493               		.cfi_startproc
 494 022a CF93      		push r28
 495               	.LCFI28:
 496               		.cfi_def_cfa_offset 3
 497               		.cfi_offset 28, -2
 498 022c DF93      		push r29
 499               	.LCFI29:
 500               		.cfi_def_cfa_offset 4
 501               		.cfi_offset 29, -3
 502 022e 00D0      		rcall .
 503               	.LCFI30:
 504               		.cfi_def_cfa_offset 6
 505 0230 CDB7      		in r28,__SP_L__
 506 0232 DEB7      		in r29,__SP_H__
 507               	.LCFI31:
 508               		.cfi_def_cfa_register 28
 509               	/* prologue: function */
 510               	/* frame size = 2 */
 511               	/* stack size = 4 */
 512               	.L__stack_usage = 4
 513 0234 9A83      		std Y+2,r25
 514 0236 8983      		std Y+1,r24
  80:lp_solve_5.5\bfp/lp_BFP1.c ****   return(lp->invB->num_pivots);
 515               		.loc 1 80 0
 516 0238 8981      		ldd r24,Y+1
 517 023a 9A81      		ldd r25,Y+2
 518 023c 8854      		subi r24,72
 519 023e 9D4F      		sbci r25,-3
 520 0240 FC01      		movw r30,r24
 521 0242 8081      		ld r24,Z
 522 0244 9181      		ldd r25,Z+1
 523 0246 FC01      		movw r30,r24
 524 0248 84A5      		ldd r24,Z+44
 525 024a 95A5      		ldd r25,Z+45
 526               	/* epilogue start */
  81:lp_solve_5.5\bfp/lp_BFP1.c **** }
 527               		.loc 1 81 0
 528 024c 0F90      		pop __tmp_reg__
 529 024e 0F90      		pop __tmp_reg__
 530 0250 DF91      		pop r29
 531 0252 CF91      		pop r28
 532 0254 0895      		ret
 533               		.cfi_endproc
 534               	.LFE14:
 536               	.global	bfp_refactcount
 538               	bfp_refactcount:
 539               	.LFB15:
  82:lp_solve_5.5\bfp/lp_BFP1.c **** 
  83:lp_solve_5.5\bfp/lp_BFP1.c **** 
  84:lp_solve_5.5\bfp/lp_BFP1.c **** /* DON'T MODIFY */
  85:lp_solve_5.5\bfp/lp_BFP1.c **** int BFP_CALLMODEL bfp_refactcount(lprec *lp, int kind)
  86:lp_solve_5.5\bfp/lp_BFP1.c **** {
 540               		.loc 1 86 0
 541               		.cfi_startproc
 542 0256 CF93      		push r28
 543               	.LCFI32:
 544               		.cfi_def_cfa_offset 3
 545               		.cfi_offset 28, -2
 546 0258 DF93      		push r29
 547               	.LCFI33:
 548               		.cfi_def_cfa_offset 4
 549               		.cfi_offset 29, -3
 550 025a 00D0      		rcall .
 551 025c 00D0      		rcall .
 552               	.LCFI34:
 553               		.cfi_def_cfa_offset 8
 554 025e CDB7      		in r28,__SP_L__
 555 0260 DEB7      		in r29,__SP_H__
 556               	.LCFI35:
 557               		.cfi_def_cfa_register 28
 558               	/* prologue: function */
 559               	/* frame size = 4 */
 560               	/* stack size = 6 */
 561               	.L__stack_usage = 6
 562 0262 9A83      		std Y+2,r25
 563 0264 8983      		std Y+1,r24
 564 0266 7C83      		std Y+4,r23
 565 0268 6B83      		std Y+3,r22
  87:lp_solve_5.5\bfp/lp_BFP1.c ****   if(kind == BFP_STAT_REFACT_TOTAL)
 566               		.loc 1 87 0
 567 026a 8B81      		ldd r24,Y+3
 568 026c 9C81      		ldd r25,Y+4
 569 026e 892B      		or r24,r25
 570 0270 01F4      		brne .L24
  88:lp_solve_5.5\bfp/lp_BFP1.c ****     return(lp->invB->num_refact);
 571               		.loc 1 88 0
 572 0272 8981      		ldd r24,Y+1
 573 0274 9A81      		ldd r25,Y+2
 574 0276 8854      		subi r24,72
 575 0278 9D4F      		sbci r25,-3
 576 027a FC01      		movw r30,r24
 577 027c 8081      		ld r24,Z
 578 027e 9181      		ldd r25,Z+1
 579 0280 FC01      		movw r30,r24
 580 0282 868D      		ldd r24,Z+30
 581 0284 978D      		ldd r25,Z+31
 582 0286 00C0      		rjmp .L25
 583               	.L24:
  89:lp_solve_5.5\bfp/lp_BFP1.c ****   else if(kind == BFP_STAT_REFACT_TIMED)
 584               		.loc 1 89 0
 585 0288 8B81      		ldd r24,Y+3
 586 028a 9C81      		ldd r25,Y+4
 587 028c 0197      		sbiw r24,1
 588 028e 01F4      		brne .L26
  90:lp_solve_5.5\bfp/lp_BFP1.c ****     return(lp->invB->num_timed_refact);
 589               		.loc 1 90 0
 590 0290 8981      		ldd r24,Y+1
 591 0292 9A81      		ldd r25,Y+2
 592 0294 8854      		subi r24,72
 593 0296 9D4F      		sbci r25,-3
 594 0298 FC01      		movw r30,r24
 595 029a 8081      		ld r24,Z
 596 029c 9181      		ldd r25,Z+1
 597 029e FC01      		movw r30,r24
 598 02a0 80A1      		ldd r24,Z+32
 599 02a2 91A1      		ldd r25,Z+33
 600 02a4 00C0      		rjmp .L25
 601               	.L26:
  91:lp_solve_5.5\bfp/lp_BFP1.c ****   else if(kind == BFP_STAT_REFACT_DENSE)
 602               		.loc 1 91 0
 603 02a6 8B81      		ldd r24,Y+3
 604 02a8 9C81      		ldd r25,Y+4
 605 02aa 0297      		sbiw r24,2
 606 02ac 01F4      		brne .L27
  92:lp_solve_5.5\bfp/lp_BFP1.c ****     return(lp->invB->num_dense_refact);
 607               		.loc 1 92 0
 608 02ae 8981      		ldd r24,Y+1
 609 02b0 9A81      		ldd r25,Y+2
 610 02b2 8854      		subi r24,72
 611 02b4 9D4F      		sbci r25,-3
 612 02b6 FC01      		movw r30,r24
 613 02b8 8081      		ld r24,Z
 614 02ba 9181      		ldd r25,Z+1
 615 02bc FC01      		movw r30,r24
 616 02be 82A1      		ldd r24,Z+34
 617 02c0 93A1      		ldd r25,Z+35
 618 02c2 00C0      		rjmp .L25
 619               	.L27:
  93:lp_solve_5.5\bfp/lp_BFP1.c ****   else
  94:lp_solve_5.5\bfp/lp_BFP1.c ****     return( BFP_STAT_ERROR );
 620               		.loc 1 94 0
 621 02c4 8FEF      		ldi r24,lo8(-1)
 622 02c6 9FEF      		ldi r25,lo8(-1)
 623               	.L25:
 624               	/* epilogue start */
  95:lp_solve_5.5\bfp/lp_BFP1.c **** }
 625               		.loc 1 95 0
 626 02c8 0F90      		pop __tmp_reg__
 627 02ca 0F90      		pop __tmp_reg__
 628 02cc 0F90      		pop __tmp_reg__
 629 02ce 0F90      		pop __tmp_reg__
 630 02d0 DF91      		pop r29
 631 02d2 CF91      		pop r28
 632 02d4 0895      		ret
 633               		.cfi_endproc
 634               	.LFE15:
 636               	.global	__subsf3
 637               	.global	__gtsf2
 638               	.global	__ltsf2
 639               	.global	__mulsf3
 640               	.global	bfp_mustrefactorize
 642               	bfp_mustrefactorize:
 643               	.LFB16:
  96:lp_solve_5.5\bfp/lp_BFP1.c **** 
  97:lp_solve_5.5\bfp/lp_BFP1.c **** /* DON'T MODIFY */
  98:lp_solve_5.5\bfp/lp_BFP1.c **** MYBOOL BFP_CALLMODEL bfp_mustrefactorize(lprec *lp)
  99:lp_solve_5.5\bfp/lp_BFP1.c **** {
 644               		.loc 1 99 0
 645               		.cfi_startproc
 646 02d6 CF92      		push r12
 647               	.LCFI36:
 648               		.cfi_def_cfa_offset 3
 649               		.cfi_offset 12, -2
 650 02d8 DF92      		push r13
 651               	.LCFI37:
 652               		.cfi_def_cfa_offset 4
 653               		.cfi_offset 13, -3
 654 02da EF92      		push r14
 655               	.LCFI38:
 656               		.cfi_def_cfa_offset 5
 657               		.cfi_offset 14, -4
 658 02dc FF92      		push r15
 659               	.LCFI39:
 660               		.cfi_def_cfa_offset 6
 661               		.cfi_offset 15, -5
 662 02de 0F93      		push r16
 663               	.LCFI40:
 664               		.cfi_def_cfa_offset 7
 665               		.cfi_offset 16, -6
 666 02e0 1F93      		push r17
 667               	.LCFI41:
 668               		.cfi_def_cfa_offset 8
 669               		.cfi_offset 17, -7
 670 02e2 CF93      		push r28
 671               	.LCFI42:
 672               		.cfi_def_cfa_offset 9
 673               		.cfi_offset 28, -8
 674 02e4 DF93      		push r29
 675               	.LCFI43:
 676               		.cfi_def_cfa_offset 10
 677               		.cfi_offset 29, -9
 678 02e6 CDB7      		in r28,__SP_L__
 679 02e8 DEB7      		in r29,__SP_H__
 680               	.LCFI44:
 681               		.cfi_def_cfa_register 28
 682 02ea 2997      		sbiw r28,9
 683               	.LCFI45:
 684               		.cfi_def_cfa_offset 19
 685 02ec 0FB6      		in __tmp_reg__,__SREG__
 686 02ee F894      		cli
 687 02f0 DEBF      		out __SP_H__,r29
 688 02f2 0FBE      		out __SREG__,__tmp_reg__
 689 02f4 CDBF      		out __SP_L__,r28
 690               	/* prologue: function */
 691               	/* frame size = 9 */
 692               	/* stack size = 17 */
 693               	.L__stack_usage = 17
 694 02f6 9987      		std Y+9,r25
 695 02f8 8887      		std Y+8,r24
 100:lp_solve_5.5\bfp/lp_BFP1.c ****   MYBOOL test = lp->is_action(lp->spx_action, ACTION_REINVERT | ACTION_TIMEDREINVERT);
 696               		.loc 1 100 0
 697 02fa 8885      		ldd r24,Y+8
 698 02fc 9985      		ldd r25,Y+9
 699 02fe 8E50      		subi r24,14
 700 0300 9C4F      		sbci r25,-4
 701 0302 FC01      		movw r30,r24
 702 0304 2081      		ld r18,Z
 703 0306 3181      		ldd r19,Z+1
 704 0308 8885      		ldd r24,Y+8
 705 030a 9985      		ldd r25,Y+9
 706 030c 8E50      		subi r24,14
 707 030e 9D4F      		sbci r25,-3
 708 0310 FC01      		movw r30,r24
 709 0312 8081      		ld r24,Z
 710 0314 9181      		ldd r25,Z+1
 711 0316 60E3      		ldi r22,lo8(48)
 712 0318 70E0      		ldi r23,0
 713 031a F901      		movw r30,r18
 714 031c 0995      		icall
 715 031e 8D83      		std Y+5,r24
 101:lp_solve_5.5\bfp/lp_BFP1.c ****   if(!test) {
 716               		.loc 1 101 0
 717 0320 8D81      		ldd r24,Y+5
 718 0322 8823      		tst r24
 719 0324 01F0      		breq .+2
 720 0326 00C0      		rjmp .L29
 721               	.LBB2:
 102:lp_solve_5.5\bfp/lp_BFP1.c ****     REAL   f;
 103:lp_solve_5.5\bfp/lp_BFP1.c ****     INVrec *lu = lp->invB;
 722               		.loc 1 103 0
 723 0328 8885      		ldd r24,Y+8
 724 032a 9985      		ldd r25,Y+9
 725 032c 8854      		subi r24,72
 726 032e 9D4F      		sbci r25,-3
 727 0330 FC01      		movw r30,r24
 728 0332 8081      		ld r24,Z
 729 0334 9181      		ldd r25,Z+1
 730 0336 9F83      		std Y+7,r25
 731 0338 8E83      		std Y+6,r24
 104:lp_solve_5.5\bfp/lp_BFP1.c **** 
 105:lp_solve_5.5\bfp/lp_BFP1.c ****     if(lu->num_pivots > 0)
 732               		.loc 1 105 0
 733 033a 8E81      		ldd r24,Y+6
 734 033c 9F81      		ldd r25,Y+7
 735 033e FC01      		movw r30,r24
 736 0340 84A5      		ldd r24,Z+44
 737 0342 95A5      		ldd r25,Z+45
 738 0344 1816      		cp __zero_reg__,r24
 739 0346 1906      		cpc __zero_reg__,r25
 740 0348 04F4      		brge .L30
 106:lp_solve_5.5\bfp/lp_BFP1.c ****       f = (timeNow()-lu->time_refactstart) / (REAL) lu->num_pivots;
 741               		.loc 1 106 0
 742 034a 0E94 0000 		call timeNow
 743 034e 7B01      		movw r14,r22
 744 0350 8C01      		movw r16,r24
 745 0352 8E81      		ldd r24,Y+6
 746 0354 9F81      		ldd r25,Y+7
 747 0356 FC01      		movw r30,r24
 748 0358 84A1      		ldd r24,Z+36
 749 035a 95A1      		ldd r25,Z+37
 750 035c A6A1      		ldd r26,Z+38
 751 035e B7A1      		ldd r27,Z+39
 752 0360 9C01      		movw r18,r24
 753 0362 AD01      		movw r20,r26
 754 0364 C801      		movw r24,r16
 755 0366 B701      		movw r22,r14
 756 0368 0E94 0000 		call __subsf3
 757 036c DC01      		movw r26,r24
 758 036e CB01      		movw r24,r22
 759 0370 6C01      		movw r12,r24
 760 0372 7D01      		movw r14,r26
 761 0374 8E81      		ldd r24,Y+6
 762 0376 9F81      		ldd r25,Y+7
 763 0378 FC01      		movw r30,r24
 764 037a 84A5      		ldd r24,Z+44
 765 037c 95A5      		ldd r25,Z+45
 766 037e 092E      		mov __tmp_reg__,r25
 767 0380 000C      		lsl r0
 768 0382 AA0B      		sbc r26,r26
 769 0384 BB0B      		sbc r27,r27
 770 0386 BC01      		movw r22,r24
 771 0388 CD01      		movw r24,r26
 772 038a 0E94 0000 		call __floatsisf
 773 038e DC01      		movw r26,r24
 774 0390 CB01      		movw r24,r22
 775 0392 9C01      		movw r18,r24
 776 0394 AD01      		movw r20,r26
 777 0396 C701      		movw r24,r14
 778 0398 B601      		movw r22,r12
 779 039a 0E94 0000 		call __divsf3
 780 039e DC01      		movw r26,r24
 781 03a0 CB01      		movw r24,r22
 782 03a2 8983      		std Y+1,r24
 783 03a4 9A83      		std Y+2,r25
 784 03a6 AB83      		std Y+3,r26
 785 03a8 BC83      		std Y+4,r27
 786 03aa 00C0      		rjmp .L31
 787               	.L30:
 107:lp_solve_5.5\bfp/lp_BFP1.c ****     else
 108:lp_solve_5.5\bfp/lp_BFP1.c ****       f = 0;
 788               		.loc 1 108 0
 789 03ac 1982      		std Y+1,__zero_reg__
 790 03ae 1A82      		std Y+2,__zero_reg__
 791 03b0 1B82      		std Y+3,__zero_reg__
 792 03b2 1C82      		std Y+4,__zero_reg__
 793               	.L31:
 109:lp_solve_5.5\bfp/lp_BFP1.c **** 
 110:lp_solve_5.5\bfp/lp_BFP1.c ****     /* Always refactorize if we are above the set pivot limit */
 111:lp_solve_5.5\bfp/lp_BFP1.c ****     if(lu->force_refact ||
 794               		.loc 1 111 0
 795 03b4 8E81      		ldd r24,Y+6
 796 03b6 9F81      		ldd r25,Y+7
 797 03b8 FC01      		movw r30,r24
 798 03ba 83A9      		ldd r24,Z+51
 799 03bc 8823      		tst r24
 800 03be 01F4      		brne .L32
 112:lp_solve_5.5\bfp/lp_BFP1.c ****        (lu->num_pivots >= lp->bfp_pivotmax(lp)))
 801               		.loc 1 112 0 discriminator 1
 802 03c0 8E81      		ldd r24,Y+6
 803 03c2 9F81      		ldd r25,Y+7
 804 03c4 FC01      		movw r30,r24
 805 03c6 04A5      		ldd r16,Z+44
 806 03c8 15A5      		ldd r17,Z+45
 807 03ca 8885      		ldd r24,Y+8
 808 03cc 9985      		ldd r25,Y+9
 809 03ce 8E53      		subi r24,62
 810 03d0 9C4F      		sbci r25,-4
 811 03d2 FC01      		movw r30,r24
 812 03d4 2081      		ld r18,Z
 813 03d6 3181      		ldd r19,Z+1
 814 03d8 8885      		ldd r24,Y+8
 815 03da 9985      		ldd r25,Y+9
 816 03dc F901      		movw r30,r18
 817 03de 0995      		icall
 111:lp_solve_5.5\bfp/lp_BFP1.c ****        (lu->num_pivots >= lp->bfp_pivotmax(lp)))
 818               		.loc 1 111 0 discriminator 1
 819 03e0 0817      		cp r16,r24
 820 03e2 1907      		cpc r17,r25
 821 03e4 04F0      		brlt .L33
 822               	.L32:
 113:lp_solve_5.5\bfp/lp_BFP1.c ****       lp->set_action(&lp->spx_action, ACTION_REINVERT);
 823               		.loc 1 113 0
 824 03e6 8885      		ldd r24,Y+8
 825 03e8 9985      		ldd r25,Y+9
 826 03ea 8051      		subi r24,16
 827 03ec 9C4F      		sbci r25,-4
 828 03ee FC01      		movw r30,r24
 829 03f0 2081      		ld r18,Z
 830 03f2 3181      		ldd r19,Z+1
 831 03f4 8885      		ldd r24,Y+8
 832 03f6 9985      		ldd r25,Y+9
 833 03f8 8E50      		subi r24,14
 834 03fa 9D4F      		sbci r25,-3
 835 03fc 60E1      		ldi r22,lo8(16)
 836 03fe 70E0      		ldi r23,0
 837 0400 F901      		movw r30,r18
 838 0402 0995      		icall
 839 0404 00C0      		rjmp .L29
 840               	.L33:
 114:lp_solve_5.5\bfp/lp_BFP1.c **** 
 115:lp_solve_5.5\bfp/lp_BFP1.c ****     /* Check if we should do an optimal time-based refactorization */
 116:lp_solve_5.5\bfp/lp_BFP1.c ****     else if(lu->timed_refact && (lu->num_pivots > 1) &&
 841               		.loc 1 116 0
 842 0406 8E81      		ldd r24,Y+6
 843 0408 9F81      		ldd r25,Y+7
 844 040a FC01      		movw r30,r24
 845 040c 84A9      		ldd r24,Z+52
 846 040e 8823      		tst r24
 847 0410 01F4      		brne .+2
 848 0412 00C0      		rjmp .L34
 849               		.loc 1 116 0 is_stmt 0 discriminator 1
 850 0414 8E81      		ldd r24,Y+6
 851 0416 9F81      		ldd r25,Y+7
 852 0418 FC01      		movw r30,r24
 853 041a 84A5      		ldd r24,Z+44
 854 041c 95A5      		ldd r25,Z+45
 855 041e 0297      		sbiw r24,2
 856 0420 04F4      		brge .+2
 857 0422 00C0      		rjmp .L34
 858               		.loc 1 116 0 discriminator 2
 859 0424 2DEC      		ldi r18,lo8(-51)
 860 0426 3CEC      		ldi r19,lo8(-52)
 861 0428 4CE4      		ldi r20,lo8(76)
 862 042a 5DE3      		ldi r21,lo8(61)
 863 042c 6981      		ldd r22,Y+1
 864 042e 7A81      		ldd r23,Y+2
 865 0430 8B81      		ldd r24,Y+3
 866 0432 9C81      		ldd r25,Y+4
 867 0434 0E94 0000 		call __gtsf2
 868 0438 1816      		cp __zero_reg__,r24
 869 043a 04F0      		brlt .+2
 870 043c 00C0      		rjmp .L34
 117:lp_solve_5.5\bfp/lp_BFP1.c ****             (f > MIN_TIMEPIVOT) && (f > lu->time_refactnext)) {
 871               		.loc 1 117 0 is_stmt 1
 872 043e 8E81      		ldd r24,Y+6
 873 0440 9F81      		ldd r25,Y+7
 874 0442 FC01      		movw r30,r24
 875 0444 80A5      		ldd r24,Z+40
 876 0446 91A5      		ldd r25,Z+41
 877 0448 A2A5      		ldd r26,Z+42
 878 044a B3A5      		ldd r27,Z+43
 879 044c 2981      		ldd r18,Y+1
 880 044e 3A81      		ldd r19,Y+2
 881 0450 4B81      		ldd r20,Y+3
 882 0452 5C81      		ldd r21,Y+4
 883 0454 BC01      		movw r22,r24
 884 0456 CD01      		movw r24,r26
 885 0458 0E94 0000 		call __ltsf2
 886 045c 8823      		tst r24
 887 045e 04F0      		brlt .+2
 888 0460 00C0      		rjmp .L34
 118:lp_solve_5.5\bfp/lp_BFP1.c ****       /* If we have excessive time usage in automatic mode then
 119:lp_solve_5.5\bfp/lp_BFP1.c ****          treat as untimed case and update optimal time metric, ... */
 120:lp_solve_5.5\bfp/lp_BFP1.c ****       if((lu->timed_refact == AUTOMATIC) &&
 889               		.loc 1 120 0
 890 0462 8E81      		ldd r24,Y+6
 891 0464 9F81      		ldd r25,Y+7
 892 0466 FC01      		movw r30,r24
 893 0468 84A9      		ldd r24,Z+52
 894 046a 8230      		cpi r24,lo8(2)
 895 046c 01F0      		breq .+2
 896 046e 00C0      		rjmp .L37
 121:lp_solve_5.5\bfp/lp_BFP1.c ****          (lu->num_pivots < 0.4*lp->bfp_pivotmax(lp)))
 897               		.loc 1 121 0 discriminator 1
 898 0470 8E81      		ldd r24,Y+6
 899 0472 9F81      		ldd r25,Y+7
 900 0474 FC01      		movw r30,r24
 901 0476 84A5      		ldd r24,Z+44
 902 0478 95A5      		ldd r25,Z+45
 903 047a 092E      		mov __tmp_reg__,r25
 904 047c 000C      		lsl r0
 905 047e AA0B      		sbc r26,r26
 906 0480 BB0B      		sbc r27,r27
 907 0482 BC01      		movw r22,r24
 908 0484 CD01      		movw r24,r26
 909 0486 0E94 0000 		call __floatsisf
 910 048a 6B01      		movw r12,r22
 911 048c 7C01      		movw r14,r24
 912 048e 8885      		ldd r24,Y+8
 913 0490 9985      		ldd r25,Y+9
 914 0492 8E53      		subi r24,62
 915 0494 9C4F      		sbci r25,-4
 916 0496 FC01      		movw r30,r24
 917 0498 2081      		ld r18,Z
 918 049a 3181      		ldd r19,Z+1
 919 049c 8885      		ldd r24,Y+8
 920 049e 9985      		ldd r25,Y+9
 921 04a0 F901      		movw r30,r18
 922 04a2 0995      		icall
 923 04a4 092E      		mov __tmp_reg__,r25
 924 04a6 000C      		lsl r0
 925 04a8 AA0B      		sbc r26,r26
 926 04aa BB0B      		sbc r27,r27
 927 04ac BC01      		movw r22,r24
 928 04ae CD01      		movw r24,r26
 929 04b0 0E94 0000 		call __floatsisf
 930 04b4 DC01      		movw r26,r24
 931 04b6 CB01      		movw r24,r22
 932 04b8 2DEC      		ldi r18,lo8(-51)
 933 04ba 3CEC      		ldi r19,lo8(-52)
 934 04bc 4CEC      		ldi r20,lo8(-52)
 935 04be 5EE3      		ldi r21,lo8(62)
 936 04c0 BC01      		movw r22,r24
 937 04c2 CD01      		movw r24,r26
 938 04c4 0E94 0000 		call __mulsf3
 939 04c8 DC01      		movw r26,r24
 940 04ca CB01      		movw r24,r22
 120:lp_solve_5.5\bfp/lp_BFP1.c ****          (lu->num_pivots < 0.4*lp->bfp_pivotmax(lp)))
 941               		.loc 1 120 0 discriminator 1
 942 04cc 9C01      		movw r18,r24
 943 04ce AD01      		movw r20,r26
 944 04d0 C701      		movw r24,r14
 945 04d2 B601      		movw r22,r12
 946 04d4 0E94 0000 		call __ltsf2
 947 04d8 8823      		tst r24
 948 04da 04F4      		brge .L37
 122:lp_solve_5.5\bfp/lp_BFP1.c ****         lu->time_refactnext = f;
 949               		.loc 1 122 0
 950 04dc 2E81      		ldd r18,Y+6
 951 04de 3F81      		ldd r19,Y+7
 952 04e0 8981      		ldd r24,Y+1
 953 04e2 9A81      		ldd r25,Y+2
 954 04e4 AB81      		ldd r26,Y+3
 955 04e6 BC81      		ldd r27,Y+4
 956 04e8 F901      		movw r30,r18
 957 04ea 80A7      		std Z+40,r24
 958 04ec 91A7      		std Z+41,r25
 959 04ee A2A7      		std Z+42,r26
 960 04f0 B3A7      		std Z+43,r27
 120:lp_solve_5.5\bfp/lp_BFP1.c ****          (lu->num_pivots < 0.4*lp->bfp_pivotmax(lp)))
 961               		.loc 1 120 0
 962 04f2 00C0      		rjmp .L29
 963               	.L37:
 123:lp_solve_5.5\bfp/lp_BFP1.c ****       /* ... otherwise set flag for the optimal time-based refactorization */
 124:lp_solve_5.5\bfp/lp_BFP1.c ****       else
 125:lp_solve_5.5\bfp/lp_BFP1.c ****         lp->set_action(&lp->spx_action, ACTION_TIMEDREINVERT);
 964               		.loc 1 125 0
 965 04f4 8885      		ldd r24,Y+8
 966 04f6 9985      		ldd r25,Y+9
 967 04f8 8051      		subi r24,16
 968 04fa 9C4F      		sbci r25,-4
 969 04fc FC01      		movw r30,r24
 970 04fe 2081      		ld r18,Z
 971 0500 3181      		ldd r19,Z+1
 972 0502 8885      		ldd r24,Y+8
 973 0504 9985      		ldd r25,Y+9
 974 0506 8E50      		subi r24,14
 975 0508 9D4F      		sbci r25,-3
 976 050a 60E2      		ldi r22,lo8(32)
 977 050c 70E0      		ldi r23,0
 978 050e F901      		movw r30,r18
 979 0510 0995      		icall
 120:lp_solve_5.5\bfp/lp_BFP1.c ****          (lu->num_pivots < 0.4*lp->bfp_pivotmax(lp)))
 980               		.loc 1 120 0
 981 0512 00C0      		rjmp .L29
 982               	.L34:
 126:lp_solve_5.5\bfp/lp_BFP1.c ****     }
 127:lp_solve_5.5\bfp/lp_BFP1.c **** 
 128:lp_solve_5.5\bfp/lp_BFP1.c ****     /* Otherwise simply update the optimal time metric */
 129:lp_solve_5.5\bfp/lp_BFP1.c ****     else
 130:lp_solve_5.5\bfp/lp_BFP1.c ****       lu->time_refactnext = f;
 983               		.loc 1 130 0
 984 0514 2E81      		ldd r18,Y+6
 985 0516 3F81      		ldd r19,Y+7
 986 0518 8981      		ldd r24,Y+1
 987 051a 9A81      		ldd r25,Y+2
 988 051c AB81      		ldd r26,Y+3
 989 051e BC81      		ldd r27,Y+4
 990 0520 F901      		movw r30,r18
 991 0522 80A7      		std Z+40,r24
 992 0524 91A7      		std Z+41,r25
 993 0526 A2A7      		std Z+42,r26
 994 0528 B3A7      		std Z+43,r27
 995               	.L29:
 996               	.LBE2:
 131:lp_solve_5.5\bfp/lp_BFP1.c **** #if 0
 132:lp_solve_5.5\bfp/lp_BFP1.c ****     if(lu->num_pivots % 10 == 0)
 133:lp_solve_5.5\bfp/lp_BFP1.c ****       lp->report(lp, NORMAL, "bfp pivot %d - start %f - timestat %f",
 134:lp_solve_5.5\bfp/lp_BFP1.c ****                              lu->num_pivots, lu->time_refactstart, f);
 135:lp_solve_5.5\bfp/lp_BFP1.c **** #endif
 136:lp_solve_5.5\bfp/lp_BFP1.c ****   }
 137:lp_solve_5.5\bfp/lp_BFP1.c **** 
 138:lp_solve_5.5\bfp/lp_BFP1.c ****   test = lp->is_action(lp->spx_action, ACTION_REINVERT | ACTION_TIMEDREINVERT);
 997               		.loc 1 138 0
 998 052a 8885      		ldd r24,Y+8
 999 052c 9985      		ldd r25,Y+9
 1000 052e 8E50      		subi r24,14
 1001 0530 9C4F      		sbci r25,-4
 1002 0532 FC01      		movw r30,r24
 1003 0534 2081      		ld r18,Z
 1004 0536 3181      		ldd r19,Z+1
 1005 0538 8885      		ldd r24,Y+8
 1006 053a 9985      		ldd r25,Y+9
 1007 053c 8E50      		subi r24,14
 1008 053e 9D4F      		sbci r25,-3
 1009 0540 FC01      		movw r30,r24
 1010 0542 8081      		ld r24,Z
 1011 0544 9181      		ldd r25,Z+1
 1012 0546 60E3      		ldi r22,lo8(48)
 1013 0548 70E0      		ldi r23,0
 1014 054a F901      		movw r30,r18
 1015 054c 0995      		icall
 1016 054e 8D83      		std Y+5,r24
 139:lp_solve_5.5\bfp/lp_BFP1.c ****   return(test);
 1017               		.loc 1 139 0
 1018 0550 8D81      		ldd r24,Y+5
 1019               	/* epilogue start */
 140:lp_solve_5.5\bfp/lp_BFP1.c **** }
 1020               		.loc 1 140 0
 1021 0552 2996      		adiw r28,9
 1022 0554 0FB6      		in __tmp_reg__,__SREG__
 1023 0556 F894      		cli
 1024 0558 DEBF      		out __SP_H__,r29
 1025 055a 0FBE      		out __SREG__,__tmp_reg__
 1026 055c CDBF      		out __SP_L__,r28
 1027 055e DF91      		pop r29
 1028 0560 CF91      		pop r28
 1029 0562 1F91      		pop r17
 1030 0564 0F91      		pop r16
 1031 0566 FF90      		pop r15
 1032 0568 EF90      		pop r14
 1033 056a DF90      		pop r13
 1034 056c CF90      		pop r12
 1035 056e 0895      		ret
 1036               		.cfi_endproc
 1037               	.LFE16:
 1039               	.global	bfp_isSetI
 1041               	bfp_isSetI:
 1042               	.LFB17:
 141:lp_solve_5.5\bfp/lp_BFP1.c **** 
 142:lp_solve_5.5\bfp/lp_BFP1.c **** /* DON'T MODIFY */
 143:lp_solve_5.5\bfp/lp_BFP1.c **** MYBOOL BFP_CALLMODEL bfp_isSetI(lprec *lp)
 144:lp_solve_5.5\bfp/lp_BFP1.c **** {
 1043               		.loc 1 144 0
 1044               		.cfi_startproc
 1045 0570 CF93      		push r28
 1046               	.LCFI46:
 1047               		.cfi_def_cfa_offset 3
 1048               		.cfi_offset 28, -2
 1049 0572 DF93      		push r29
 1050               	.LCFI47:
 1051               		.cfi_def_cfa_offset 4
 1052               		.cfi_offset 29, -3
 1053 0574 00D0      		rcall .
 1054               	.LCFI48:
 1055               		.cfi_def_cfa_offset 6
 1056 0576 CDB7      		in r28,__SP_L__
 1057 0578 DEB7      		in r29,__SP_H__
 1058               	.LCFI49:
 1059               		.cfi_def_cfa_register 28
 1060               	/* prologue: function */
 1061               	/* frame size = 2 */
 1062               	/* stack size = 4 */
 1063               	.L__stack_usage = 4
 1064 057a 9A83      		std Y+2,r25
 1065 057c 8983      		std Y+1,r24
 145:lp_solve_5.5\bfp/lp_BFP1.c ****   return( (MYBOOL) lp->invB->set_Bidentity );
 1066               		.loc 1 145 0
 1067 057e 8981      		ldd r24,Y+1
 1068 0580 9A81      		ldd r25,Y+2
 1069 0582 8854      		subi r24,72
 1070 0584 9D4F      		sbci r25,-3
 1071 0586 FC01      		movw r30,r24
 1072 0588 8081      		ld r24,Z
 1073 058a 9181      		ldd r25,Z+1
 1074 058c FC01      		movw r30,r24
 1075 058e 85A9      		ldd r24,Z+53
 1076               	/* epilogue start */
 146:lp_solve_5.5\bfp/lp_BFP1.c **** }
 1077               		.loc 1 146 0
 1078 0590 0F90      		pop __tmp_reg__
 1079 0592 0F90      		pop __tmp_reg__
 1080 0594 DF91      		pop r29
 1081 0596 CF91      		pop r28
 1082 0598 0895      		ret
 1083               		.cfi_endproc
 1084               	.LFE17:
 1086               		.section	.rodata
 1087               	.LC0:
 1088 0000 6266 705F 		.string	"bfp_createMDO: Internal error %d in minimum degree ordering routine"
 1088      6372 6561 
 1088      7465 4D44 
 1088      4F3A 2049 
 1088      6E74 6572 
 1089               		.text
 1090               	.global	bfp_createMDO
 1092               	bfp_createMDO:
 1093               	.LFB18:
 147:lp_solve_5.5\bfp/lp_BFP1.c **** 
 148:lp_solve_5.5\bfp/lp_BFP1.c **** /* DON'T MODIFY */
 149:lp_solve_5.5\bfp/lp_BFP1.c **** int *bfp_createMDO(lprec *lp, MYBOOL *usedpos, int count, MYBOOL doMDO)
 150:lp_solve_5.5\bfp/lp_BFP1.c **** {
 1094               		.loc 1 150 0
 1095               		.cfi_startproc
 1096 059a 0F93      		push r16
 1097               	.LCFI50:
 1098               		.cfi_def_cfa_offset 3
 1099               		.cfi_offset 16, -2
 1100 059c CF93      		push r28
 1101               	.LCFI51:
 1102               		.cfi_def_cfa_offset 4
 1103               		.cfi_offset 28, -3
 1104 059e DF93      		push r29
 1105               	.LCFI52:
 1106               		.cfi_def_cfa_offset 5
 1107               		.cfi_offset 29, -4
 1108 05a0 CDB7      		in r28,__SP_L__
 1109 05a2 DEB7      		in r29,__SP_H__
 1110               	.LCFI53:
 1111               		.cfi_def_cfa_register 28
 1112 05a4 2F97      		sbiw r28,15
 1113               	.LCFI54:
 1114               		.cfi_def_cfa_offset 20
 1115 05a6 0FB6      		in __tmp_reg__,__SREG__
 1116 05a8 F894      		cli
 1117 05aa DEBF      		out __SP_H__,r29
 1118 05ac 0FBE      		out __SREG__,__tmp_reg__
 1119 05ae CDBF      		out __SP_L__,r28
 1120               	/* prologue: function */
 1121               	/* frame size = 15 */
 1122               	/* stack size = 18 */
 1123               	.L__stack_usage = 18
 1124 05b0 9A87      		std Y+10,r25
 1125 05b2 8987      		std Y+9,r24
 1126 05b4 7C87      		std Y+12,r23
 1127 05b6 6B87      		std Y+11,r22
 1128 05b8 5E87      		std Y+14,r21
 1129 05ba 4D87      		std Y+13,r20
 1130 05bc 2F87      		std Y+15,r18
 151:lp_solve_5.5\bfp/lp_BFP1.c ****   int *mdo, i, j, kk;
 152:lp_solve_5.5\bfp/lp_BFP1.c **** 
 153:lp_solve_5.5\bfp/lp_BFP1.c ****   mdo = (int *) malloc((count + 1)*sizeof(*mdo));
 1131               		.loc 1 153 0
 1132 05be 8D85      		ldd r24,Y+13
 1133 05c0 9E85      		ldd r25,Y+14
 1134 05c2 0196      		adiw r24,1
 1135 05c4 880F      		lsl r24
 1136 05c6 991F      		rol r25
 1137 05c8 0E94 0000 		call malloc
 1138 05cc 9A83      		std Y+2,r25
 1139 05ce 8983      		std Y+1,r24
 154:lp_solve_5.5\bfp/lp_BFP1.c **** /*  allocINT(lp, &mdo, count + 1, FALSE); */
 155:lp_solve_5.5\bfp/lp_BFP1.c **** 
 156:lp_solve_5.5\bfp/lp_BFP1.c ****  /* Fill the mdo[] array with remaining full-pivot basic user variables */
 157:lp_solve_5.5\bfp/lp_BFP1.c ****   kk = 0;
 1140               		.loc 1 157 0
 1141 05d0 1E82      		std Y+6,__zero_reg__
 1142 05d2 1D82      		std Y+5,__zero_reg__
 158:lp_solve_5.5\bfp/lp_BFP1.c ****   for(j = 1; j <= lp->columns; j++) {
 1143               		.loc 1 158 0
 1144 05d4 81E0      		ldi r24,lo8(1)
 1145 05d6 90E0      		ldi r25,0
 1146 05d8 9C83      		std Y+4,r25
 1147 05da 8B83      		std Y+3,r24
 1148 05dc 00C0      		rjmp .L47
 1149               	.L49:
 159:lp_solve_5.5\bfp/lp_BFP1.c ****     i = lp->rows + j;
 1150               		.loc 1 159 0
 1151 05de 8985      		ldd r24,Y+9
 1152 05e0 9A85      		ldd r25,Y+10
 1153 05e2 8651      		subi r24,22
 1154 05e4 9E4F      		sbci r25,-2
 1155 05e6 DC01      		movw r26,r24
 1156 05e8 2D91      		ld r18,X+
 1157 05ea 3C91      		ld r19,X
 1158 05ec 8B81      		ldd r24,Y+3
 1159 05ee 9C81      		ldd r25,Y+4
 1160 05f0 820F      		add r24,r18
 1161 05f2 931F      		adc r25,r19
 1162 05f4 9887      		std Y+8,r25
 1163 05f6 8F83      		std Y+7,r24
 160:lp_solve_5.5\bfp/lp_BFP1.c ****     if(usedpos[i] == TRUE) {
 1164               		.loc 1 160 0
 1165 05f8 8F81      		ldd r24,Y+7
 1166 05fa 9885      		ldd r25,Y+8
 1167 05fc 2B85      		ldd r18,Y+11
 1168 05fe 3C85      		ldd r19,Y+12
 1169 0600 820F      		add r24,r18
 1170 0602 931F      		adc r25,r19
 1171 0604 FC01      		movw r30,r24
 1172 0606 8081      		ld r24,Z
 1173 0608 8130      		cpi r24,lo8(1)
 1174 060a 01F4      		brne .L48
 161:lp_solve_5.5\bfp/lp_BFP1.c ****       kk++;
 1175               		.loc 1 161 0
 1176 060c 8D81      		ldd r24,Y+5
 1177 060e 9E81      		ldd r25,Y+6
 1178 0610 0196      		adiw r24,1
 1179 0612 9E83      		std Y+6,r25
 1180 0614 8D83      		std Y+5,r24
 162:lp_solve_5.5\bfp/lp_BFP1.c ****       mdo[kk] = i;
 1181               		.loc 1 162 0
 1182 0616 8D81      		ldd r24,Y+5
 1183 0618 9E81      		ldd r25,Y+6
 1184 061a 880F      		lsl r24
 1185 061c 991F      		rol r25
 1186 061e 2981      		ldd r18,Y+1
 1187 0620 3A81      		ldd r19,Y+2
 1188 0622 820F      		add r24,r18
 1189 0624 931F      		adc r25,r19
 1190 0626 2F81      		ldd r18,Y+7
 1191 0628 3885      		ldd r19,Y+8
 1192 062a DC01      		movw r26,r24
 1193 062c 2D93      		st X+,r18
 1194 062e 3C93      		st X,r19
 1195               	.L48:
 158:lp_solve_5.5\bfp/lp_BFP1.c ****     i = lp->rows + j;
 1196               		.loc 1 158 0 discriminator 2
 1197 0630 8B81      		ldd r24,Y+3
 1198 0632 9C81      		ldd r25,Y+4
 1199 0634 0196      		adiw r24,1
 1200 0636 9C83      		std Y+4,r25
 1201 0638 8B83      		std Y+3,r24
 1202               	.L47:
 158:lp_solve_5.5\bfp/lp_BFP1.c ****     i = lp->rows + j;
 1203               		.loc 1 158 0 is_stmt 0 discriminator 1
 1204 063a 8985      		ldd r24,Y+9
 1205 063c 9A85      		ldd r25,Y+10
 1206 063e 8451      		subi r24,20
 1207 0640 9E4F      		sbci r25,-2
 1208 0642 FC01      		movw r30,r24
 1209 0644 2081      		ld r18,Z
 1210 0646 3181      		ldd r19,Z+1
 1211 0648 8B81      		ldd r24,Y+3
 1212 064a 9C81      		ldd r25,Y+4
 1213 064c 2817      		cp r18,r24
 1214 064e 3907      		cpc r19,r25
 1215 0650 04F4      		brge .L49
 163:lp_solve_5.5\bfp/lp_BFP1.c ****     }
 164:lp_solve_5.5\bfp/lp_BFP1.c ****   }
 165:lp_solve_5.5\bfp/lp_BFP1.c ****   mdo[0] = kk;
 1216               		.loc 1 165 0 is_stmt 1
 1217 0652 8981      		ldd r24,Y+1
 1218 0654 9A81      		ldd r25,Y+2
 1219 0656 2D81      		ldd r18,Y+5
 1220 0658 3E81      		ldd r19,Y+6
 1221 065a DC01      		movw r26,r24
 1222 065c 2D93      		st X+,r18
 1223 065e 3C93      		st X,r19
 166:lp_solve_5.5\bfp/lp_BFP1.c ****   if(kk == 0)
 1224               		.loc 1 166 0
 1225 0660 8D81      		ldd r24,Y+5
 1226 0662 9E81      		ldd r25,Y+6
 1227 0664 892B      		or r24,r25
 1228 0666 01F4      		brne .+2
 1229 0668 00C0      		rjmp .L53
 167:lp_solve_5.5\bfp/lp_BFP1.c ****     goto Process;
 168:lp_solve_5.5\bfp/lp_BFP1.c **** 
 169:lp_solve_5.5\bfp/lp_BFP1.c ****  /* Calculate the approximate minimum degree column ordering */
 170:lp_solve_5.5\bfp/lp_BFP1.c ****   if(doMDO) {
 1230               		.loc 1 170 0
 1231 066a 8F85      		ldd r24,Y+15
 1232 066c 8823      		tst r24
 1233 066e 01F4      		brne .+2
 1234 0670 00C0      		rjmp .L51
 171:lp_solve_5.5\bfp/lp_BFP1.c ****     i = lp->getMDO(lp, usedpos, mdo, NULL, FALSE);
 1235               		.loc 1 171 0
 1236 0672 8985      		ldd r24,Y+9
 1237 0674 9A85      		ldd r25,Y+10
 1238 0676 8451      		subi r24,20
 1239 0678 9C4F      		sbci r25,-4
 1240 067a DC01      		movw r26,r24
 1241 067c ED91      		ld r30,X+
 1242 067e FC91      		ld r31,X
 1243 0680 4981      		ldd r20,Y+1
 1244 0682 5A81      		ldd r21,Y+2
 1245 0684 6B85      		ldd r22,Y+11
 1246 0686 7C85      		ldd r23,Y+12
 1247 0688 8985      		ldd r24,Y+9
 1248 068a 9A85      		ldd r25,Y+10
 1249 068c 00E0      		ldi r16,0
 1250 068e 20E0      		ldi r18,0
 1251 0690 30E0      		ldi r19,0
 1252 0692 0995      		icall
 1253 0694 9887      		std Y+8,r25
 1254 0696 8F83      		std Y+7,r24
 172:lp_solve_5.5\bfp/lp_BFP1.c ****     if(i != 0) {
 1255               		.loc 1 172 0
 1256 0698 8F81      		ldd r24,Y+7
 1257 069a 9885      		ldd r25,Y+8
 1258 069c 892B      		or r24,r25
 1259 069e 01F0      		breq .L51
 173:lp_solve_5.5\bfp/lp_BFP1.c ****       lp->report(lp, CRITICAL, "bfp_createMDO: Internal error %d in minimum degree ordering routine
 1260               		.loc 1 173 0
 1261 06a0 8985      		ldd r24,Y+9
 1262 06a2 9A85      		ldd r25,Y+10
 1263 06a4 8E51      		subi r24,30
 1264 06a6 9C4F      		sbci r25,-4
 1265 06a8 FC01      		movw r30,r24
 1266 06aa 8081      		ld r24,Z
 1267 06ac 9181      		ldd r25,Z+1
 1268 06ae 2885      		ldd r18,Y+8
 1269 06b0 2F93      		push r18
 1270 06b2 2F81      		ldd r18,Y+7
 1271 06b4 2F93      		push r18
 1272 06b6 20E0      		ldi r18,lo8(.LC0)
 1273 06b8 30E0      		ldi r19,hi8(.LC0)
 1274 06ba 232F      		mov r18,r19
 1275 06bc 2F93      		push r18
 1276 06be 20E0      		ldi r18,lo8(.LC0)
 1277 06c0 30E0      		ldi r19,hi8(.LC0)
 1278 06c2 2F93      		push r18
 1279 06c4 1F92      		push __zero_reg__
 1280 06c6 21E0      		ldi r18,lo8(1)
 1281 06c8 2F93      		push r18
 1282 06ca 2A85      		ldd r18,Y+10
 1283 06cc 2F93      		push r18
 1284 06ce 2985      		ldd r18,Y+9
 1285 06d0 2F93      		push r18
 1286 06d2 FC01      		movw r30,r24
 1287 06d4 0995      		icall
 1288 06d6 8DB7      		in r24,__SP_L__
 1289 06d8 9EB7      		in r25,__SP_H__
 1290 06da 0896      		adiw r24,8
 1291 06dc 0FB6      		in __tmp_reg__,__SREG__
 1292 06de F894      		cli
 1293 06e0 DEBF      		out __SP_H__,r29
 1294 06e2 0FBE      		out __SREG__,__tmp_reg__
 1295 06e4 CDBF      		out __SP_L__,r28
 174:lp_solve_5.5\bfp/lp_BFP1.c ****       FREE(mdo);
 1296               		.loc 1 174 0
 1297 06e6 8981      		ldd r24,Y+1
 1298 06e8 9A81      		ldd r25,Y+2
 1299 06ea 892B      		or r24,r25
 1300 06ec 01F0      		breq .L51
 1301               		.loc 1 174 0 is_stmt 0 discriminator 1
 1302 06ee 8981      		ldd r24,Y+1
 1303 06f0 9A81      		ldd r25,Y+2
 1304 06f2 0E94 0000 		call free
 1305 06f6 1A82      		std Y+2,__zero_reg__
 1306 06f8 1982      		std Y+1,__zero_reg__
 1307 06fa 00C0      		rjmp .L51
 1308               	.L53:
 167:lp_solve_5.5\bfp/lp_BFP1.c **** 
 1309               		.loc 1 167 0 is_stmt 1
 1310 06fc 0000      		nop
 1311               	.L51:
 175:lp_solve_5.5\bfp/lp_BFP1.c ****     }
 176:lp_solve_5.5\bfp/lp_BFP1.c ****   }
 177:lp_solve_5.5\bfp/lp_BFP1.c **** Process:
 178:lp_solve_5.5\bfp/lp_BFP1.c ****   return( mdo );
 1312               		.loc 1 178 0
 1313 06fe 8981      		ldd r24,Y+1
 1314 0700 9A81      		ldd r25,Y+2
 1315               	/* epilogue start */
 179:lp_solve_5.5\bfp/lp_BFP1.c **** }
 1316               		.loc 1 179 0
 1317 0702 2F96      		adiw r28,15
 1318 0704 0FB6      		in __tmp_reg__,__SREG__
 1319 0706 F894      		cli
 1320 0708 DEBF      		out __SP_H__,r29
 1321 070a 0FBE      		out __SREG__,__tmp_reg__
 1322 070c CDBF      		out __SP_L__,r28
 1323 070e DF91      		pop r29
 1324 0710 CF91      		pop r28
 1325 0712 0F91      		pop r16
 1326 0714 0895      		ret
 1327               		.cfi_endproc
 1328               	.LFE18:
 1330               	.global	bfp_updaterefactstats
 1332               	bfp_updaterefactstats:
 1333               	.LFB19:
 180:lp_solve_5.5\bfp/lp_BFP1.c **** void BFP_CALLMODEL bfp_updaterefactstats(lprec *lp)
 181:lp_solve_5.5\bfp/lp_BFP1.c **** {
 1334               		.loc 1 181 0
 1335               		.cfi_startproc
 1336 0716 CF93      		push r28
 1337               	.LCFI55:
 1338               		.cfi_def_cfa_offset 3
 1339               		.cfi_offset 28, -2
 1340 0718 DF93      		push r29
 1341               	.LCFI56:
 1342               		.cfi_def_cfa_offset 4
 1343               		.cfi_offset 29, -3
 1344 071a 00D0      		rcall .
 1345 071c 00D0      		rcall .
 1346               	.LCFI57:
 1347               		.cfi_def_cfa_offset 8
 1348 071e CDB7      		in r28,__SP_L__
 1349 0720 DEB7      		in r29,__SP_H__
 1350               	.LCFI58:
 1351               		.cfi_def_cfa_register 28
 1352               	/* prologue: function */
 1353               	/* frame size = 4 */
 1354               	/* stack size = 6 */
 1355               	.L__stack_usage = 6
 1356 0722 9C83      		std Y+4,r25
 1357 0724 8B83      		std Y+3,r24
 182:lp_solve_5.5\bfp/lp_BFP1.c ****   INVrec *lu = lp->invB;
 1358               		.loc 1 182 0
 1359 0726 8B81      		ldd r24,Y+3
 1360 0728 9C81      		ldd r25,Y+4
 1361 072a 8854      		subi r24,72
 1362 072c 9D4F      		sbci r25,-3
 1363 072e FC01      		movw r30,r24
 1364 0730 8081      		ld r24,Z
 1365 0732 9181      		ldd r25,Z+1
 1366 0734 9A83      		std Y+2,r25
 1367 0736 8983      		std Y+1,r24
 183:lp_solve_5.5\bfp/lp_BFP1.c **** 
 184:lp_solve_5.5\bfp/lp_BFP1.c ****   /* Signal that we are refactorizing */
 185:lp_solve_5.5\bfp/lp_BFP1.c ****   lu->is_dirty = AUTOMATIC;
 1368               		.loc 1 185 0
 1369 0738 8981      		ldd r24,Y+1
 1370 073a 9A81      		ldd r25,Y+2
 1371 073c 22E0      		ldi r18,lo8(2)
 1372 073e FC01      		movw r30,r24
 1373 0740 22AB      		std Z+50,r18
 186:lp_solve_5.5\bfp/lp_BFP1.c **** 
 187:lp_solve_5.5\bfp/lp_BFP1.c ****   /* Set time of start of current refactorization cycle */
 188:lp_solve_5.5\bfp/lp_BFP1.c ****   lu->time_refactstart = timeNow();
 1374               		.loc 1 188 0
 1375 0742 0E94 0000 		call timeNow
 1376 0746 DC01      		movw r26,r24
 1377 0748 CB01      		movw r24,r22
 1378 074a 2981      		ldd r18,Y+1
 1379 074c 3A81      		ldd r19,Y+2
 1380 074e F901      		movw r30,r18
 1381 0750 84A3      		std Z+36,r24
 1382 0752 95A3      		std Z+37,r25
 1383 0754 A6A3      		std Z+38,r26
 1384 0756 B7A3      		std Z+39,r27
 189:lp_solve_5.5\bfp/lp_BFP1.c ****   lu->time_refactnext  = 0;
 1385               		.loc 1 189 0
 1386 0758 8981      		ldd r24,Y+1
 1387 075a 9A81      		ldd r25,Y+2
 1388 075c FC01      		movw r30,r24
 1389 075e 10A6      		std Z+40,__zero_reg__
 1390 0760 11A6      		std Z+41,__zero_reg__
 1391 0762 12A6      		std Z+42,__zero_reg__
 1392 0764 13A6      		std Z+43,__zero_reg__
 190:lp_solve_5.5\bfp/lp_BFP1.c ****   lu->user_colcount = 0;
 1393               		.loc 1 190 0
 1394 0766 8981      		ldd r24,Y+1
 1395 0768 9A81      		ldd r25,Y+2
 1396 076a FC01      		movw r30,r24
 1397 076c 1782      		std Z+7,__zero_reg__
 1398 076e 1682      		std Z+6,__zero_reg__
 191:lp_solve_5.5\bfp/lp_BFP1.c **** 
 192:lp_solve_5.5\bfp/lp_BFP1.c ****   /* Do the numbers */
 193:lp_solve_5.5\bfp/lp_BFP1.c ****   if(lu->force_refact)
 1399               		.loc 1 193 0
 1400 0770 8981      		ldd r24,Y+1
 1401 0772 9A81      		ldd r25,Y+2
 1402 0774 FC01      		movw r30,r24
 1403 0776 83A9      		ldd r24,Z+51
 1404 0778 8823      		tst r24
 1405 077a 01F0      		breq .L55
 194:lp_solve_5.5\bfp/lp_BFP1.c ****     lu->num_dense_refact++;
 1406               		.loc 1 194 0
 1407 077c 8981      		ldd r24,Y+1
 1408 077e 9A81      		ldd r25,Y+2
 1409 0780 FC01      		movw r30,r24
 1410 0782 82A1      		ldd r24,Z+34
 1411 0784 93A1      		ldd r25,Z+35
 1412 0786 9C01      		movw r18,r24
 1413 0788 2F5F      		subi r18,-1
 1414 078a 3F4F      		sbci r19,-1
 1415 078c 8981      		ldd r24,Y+1
 1416 078e 9A81      		ldd r25,Y+2
 1417 0790 FC01      		movw r30,r24
 1418 0792 33A3      		std Z+35,r19
 1419 0794 22A3      		std Z+34,r18
 1420 0796 00C0      		rjmp .L56
 1421               	.L55:
 195:lp_solve_5.5\bfp/lp_BFP1.c ****   else if(lu->timed_refact && lp->is_action(lp->spx_action, ACTION_TIMEDREINVERT))
 1422               		.loc 1 195 0
 1423 0798 8981      		ldd r24,Y+1
 1424 079a 9A81      		ldd r25,Y+2
 1425 079c FC01      		movw r30,r24
 1426 079e 84A9      		ldd r24,Z+52
 1427 07a0 8823      		tst r24
 1428 07a2 01F0      		breq .L56
 1429               		.loc 1 195 0 is_stmt 0 discriminator 1
 1430 07a4 8B81      		ldd r24,Y+3
 1431 07a6 9C81      		ldd r25,Y+4
 1432 07a8 8E50      		subi r24,14
 1433 07aa 9C4F      		sbci r25,-4
 1434 07ac FC01      		movw r30,r24
 1435 07ae 2081      		ld r18,Z
 1436 07b0 3181      		ldd r19,Z+1
 1437 07b2 8B81      		ldd r24,Y+3
 1438 07b4 9C81      		ldd r25,Y+4
 1439 07b6 8E50      		subi r24,14
 1440 07b8 9D4F      		sbci r25,-3
 1441 07ba FC01      		movw r30,r24
 1442 07bc 8081      		ld r24,Z
 1443 07be 9181      		ldd r25,Z+1
 1444 07c0 60E2      		ldi r22,lo8(32)
 1445 07c2 70E0      		ldi r23,0
 1446 07c4 F901      		movw r30,r18
 1447 07c6 0995      		icall
 1448 07c8 8823      		tst r24
 1449 07ca 01F0      		breq .L56
 196:lp_solve_5.5\bfp/lp_BFP1.c ****     lu->num_timed_refact++;
 1450               		.loc 1 196 0 is_stmt 1
 1451 07cc 8981      		ldd r24,Y+1
 1452 07ce 9A81      		ldd r25,Y+2
 1453 07d0 FC01      		movw r30,r24
 1454 07d2 80A1      		ldd r24,Z+32
 1455 07d4 91A1      		ldd r25,Z+33
 1456 07d6 9C01      		movw r18,r24
 1457 07d8 2F5F      		subi r18,-1
 1458 07da 3F4F      		sbci r19,-1
 1459 07dc 8981      		ldd r24,Y+1
 1460 07de 9A81      		ldd r25,Y+2
 1461 07e0 FC01      		movw r30,r24
 1462 07e2 31A3      		std Z+33,r19
 1463 07e4 20A3      		std Z+32,r18
 1464               	.L56:
 197:lp_solve_5.5\bfp/lp_BFP1.c ****   lu->num_refact++;
 1465               		.loc 1 197 0
 1466 07e6 8981      		ldd r24,Y+1
 1467 07e8 9A81      		ldd r25,Y+2
 1468 07ea FC01      		movw r30,r24
 1469 07ec 868D      		ldd r24,Z+30
 1470 07ee 978D      		ldd r25,Z+31
 1471 07f0 9C01      		movw r18,r24
 1472 07f2 2F5F      		subi r18,-1
 1473 07f4 3F4F      		sbci r19,-1
 1474 07f6 8981      		ldd r24,Y+1
 1475 07f8 9A81      		ldd r25,Y+2
 1476 07fa FC01      		movw r30,r24
 1477 07fc 378F      		std Z+31,r19
 1478 07fe 268F      		std Z+30,r18
 198:lp_solve_5.5\bfp/lp_BFP1.c **** }
 1479               		.loc 1 198 0
 1480 0800 0000      		nop
 1481               	/* epilogue start */
 1482 0802 0F90      		pop __tmp_reg__
 1483 0804 0F90      		pop __tmp_reg__
 1484 0806 0F90      		pop __tmp_reg__
 1485 0808 0F90      		pop __tmp_reg__
 1486 080a DF91      		pop r29
 1487 080c CF91      		pop r28
 1488 080e 0895      		ret
 1489               		.cfi_endproc
 1490               	.LFE19:
 1492               	.global	bfp_rowextra
 1494               	bfp_rowextra:
 1495               	.LFB20:
 199:lp_solve_5.5\bfp/lp_BFP1.c **** 
 200:lp_solve_5.5\bfp/lp_BFP1.c **** int BFP_CALLMODEL bfp_rowextra(lprec *lp)
 201:lp_solve_5.5\bfp/lp_BFP1.c **** {
 1496               		.loc 1 201 0
 1497               		.cfi_startproc
 1498 0810 CF93      		push r28
 1499               	.LCFI59:
 1500               		.cfi_def_cfa_offset 3
 1501               		.cfi_offset 28, -2
 1502 0812 DF93      		push r29
 1503               	.LCFI60:
 1504               		.cfi_def_cfa_offset 4
 1505               		.cfi_offset 29, -3
 1506 0814 00D0      		rcall .
 1507               	.LCFI61:
 1508               		.cfi_def_cfa_offset 6
 1509 0816 CDB7      		in r28,__SP_L__
 1510 0818 DEB7      		in r29,__SP_H__
 1511               	.LCFI62:
 1512               		.cfi_def_cfa_register 28
 1513               	/* prologue: function */
 1514               	/* frame size = 2 */
 1515               	/* stack size = 4 */
 1516               	.L__stack_usage = 4
 1517 081a 9A83      		std Y+2,r25
 1518 081c 8983      		std Y+1,r24
 202:lp_solve_5.5\bfp/lp_BFP1.c ****   if(lp->is_obj_in_basis(lp))
 1519               		.loc 1 202 0
 1520 081e 8981      		ldd r24,Y+1
 1521 0820 9A81      		ldd r25,Y+2
 1522 0822 8651      		subi r24,22
 1523 0824 9F4F      		sbci r25,-1
 1524 0826 FC01      		movw r30,r24
 1525 0828 2081      		ld r18,Z
 1526 082a 3181      		ldd r19,Z+1
 1527 082c 8981      		ldd r24,Y+1
 1528 082e 9A81      		ldd r25,Y+2
 1529 0830 F901      		movw r30,r18
 1530 0832 0995      		icall
 1531 0834 8823      		tst r24
 1532 0836 01F0      		breq .L58
 203:lp_solve_5.5\bfp/lp_BFP1.c ****     return( 1 );
 1533               		.loc 1 203 0
 1534 0838 81E0      		ldi r24,lo8(1)
 1535 083a 90E0      		ldi r25,0
 1536 083c 00C0      		rjmp .L59
 1537               	.L58:
 204:lp_solve_5.5\bfp/lp_BFP1.c ****   else
 205:lp_solve_5.5\bfp/lp_BFP1.c ****     return( 0 );
 1538               		.loc 1 205 0
 1539 083e 80E0      		ldi r24,0
 1540 0840 90E0      		ldi r25,0
 1541               	.L59:
 1542               	/* epilogue start */
 206:lp_solve_5.5\bfp/lp_BFP1.c **** }
 1543               		.loc 1 206 0
 1544 0842 0F90      		pop __tmp_reg__
 1545 0844 0F90      		pop __tmp_reg__
 1546 0846 DF91      		pop r29
 1547 0848 CF91      		pop r28
 1548 084a 0895      		ret
 1549               		.cfi_endproc
 1550               	.LFE20:
 1552               	.global	bfp_init
 1554               	bfp_init:
 1555               	.LFB21:
 1556               		.file 2 "lp_solve_5.5\\bfp/lp_BFP2.c"
   1:lp_solve_5.5\bfp/lp_BFP2.c **** 
   2:lp_solve_5.5\bfp/lp_BFP2.c **** 
   3:lp_solve_5.5\bfp/lp_BFP2.c **** /* Routines located in lp_BFP2.cpp; optional shared for canned implementations        */
   4:lp_solve_5.5\bfp/lp_BFP2.c **** /* Cfr. lp_BFP.h for definitions                                                      */
   5:lp_solve_5.5\bfp/lp_BFP2.c **** /* ---------------------------------------------------------------------------------- */
   6:lp_solve_5.5\bfp/lp_BFP2.c **** 
   7:lp_solve_5.5\bfp/lp_BFP2.c **** 
   8:lp_solve_5.5\bfp/lp_BFP2.c **** /* DON'T MODIFY */
   9:lp_solve_5.5\bfp/lp_BFP2.c **** MYBOOL BFP_CALLMODEL bfp_init(lprec *lp, int size, int delta, char *options)
  10:lp_solve_5.5\bfp/lp_BFP2.c **** {
 1557               		.loc 2 10 0
 1558               		.cfi_startproc
 1559 084c CF93      		push r28
 1560               	.LCFI63:
 1561               		.cfi_def_cfa_offset 3
 1562               		.cfi_offset 28, -2
 1563 084e DF93      		push r29
 1564               	.LCFI64:
 1565               		.cfi_def_cfa_offset 4
 1566               		.cfi_offset 29, -3
 1567 0850 CDB7      		in r28,__SP_L__
 1568 0852 DEB7      		in r29,__SP_H__
 1569               	.LCFI65:
 1570               		.cfi_def_cfa_register 28
 1571 0854 2C97      		sbiw r28,12
 1572               	.LCFI66:
 1573               		.cfi_def_cfa_offset 16
 1574 0856 0FB6      		in __tmp_reg__,__SREG__
 1575 0858 F894      		cli
 1576 085a DEBF      		out __SP_H__,r29
 1577 085c 0FBE      		out __SREG__,__tmp_reg__
 1578 085e CDBF      		out __SP_L__,r28
 1579               	/* prologue: function */
 1580               	/* frame size = 12 */
 1581               	/* stack size = 14 */
 1582               	.L__stack_usage = 14
 1583 0860 9E83      		std Y+6,r25
 1584 0862 8D83      		std Y+5,r24
 1585 0864 7887      		std Y+8,r23
 1586 0866 6F83      		std Y+7,r22
 1587 0868 5A87      		std Y+10,r21
 1588 086a 4987      		std Y+9,r20
 1589 086c 3C87      		std Y+12,r19
 1590 086e 2B87      		std Y+11,r18
  11:lp_solve_5.5\bfp/lp_BFP2.c ****   INVrec *lu;
  12:lp_solve_5.5\bfp/lp_BFP2.c **** 
  13:lp_solve_5.5\bfp/lp_BFP2.c ****   lp->invB = (INVrec *) calloc(1, sizeof(*(lp->invB)));
 1591               		.loc 2 13 0
 1592 0870 66E3      		ldi r22,lo8(54)
 1593 0872 70E0      		ldi r23,0
 1594 0874 81E0      		ldi r24,lo8(1)
 1595 0876 90E0      		ldi r25,0
 1596 0878 0E94 0000 		call calloc
 1597 087c 9C01      		movw r18,r24
 1598 087e 8D81      		ldd r24,Y+5
 1599 0880 9E81      		ldd r25,Y+6
 1600 0882 8854      		subi r24,72
 1601 0884 9D4F      		sbci r25,-3
 1602 0886 FC01      		movw r30,r24
 1603 0888 3183      		std Z+1,r19
 1604 088a 2083      		st Z,r18
  14:lp_solve_5.5\bfp/lp_BFP2.c ****   lu = lp->invB;
 1605               		.loc 2 14 0
 1606 088c 8D81      		ldd r24,Y+5
 1607 088e 9E81      		ldd r25,Y+6
 1608 0890 8854      		subi r24,72
 1609 0892 9D4F      		sbci r25,-3
 1610 0894 FC01      		movw r30,r24
 1611 0896 8081      		ld r24,Z
 1612 0898 9181      		ldd r25,Z+1
 1613 089a 9A83      		std Y+2,r25
 1614 089c 8983      		std Y+1,r24
  15:lp_solve_5.5\bfp/lp_BFP2.c ****   if((lu == NULL) || 
 1615               		.loc 2 15 0
 1616 089e 8981      		ldd r24,Y+1
 1617 08a0 9A81      		ldd r25,Y+2
 1618 08a2 892B      		or r24,r25
 1619 08a4 01F0      		breq .L61
  16:lp_solve_5.5\bfp/lp_BFP2.c ****      !lp->bfp_resize(lp, size) ||
 1620               		.loc 2 16 0 discriminator 1
 1621 08a6 8D81      		ldd r24,Y+5
 1622 08a8 9E81      		ldd r25,Y+6
 1623 08aa 8656      		subi r24,102
 1624 08ac 9C4F      		sbci r25,-4
 1625 08ae FC01      		movw r30,r24
 1626 08b0 2081      		ld r18,Z
 1627 08b2 3181      		ldd r19,Z+1
 1628 08b4 4F81      		ldd r20,Y+7
 1629 08b6 5885      		ldd r21,Y+8
 1630 08b8 8D81      		ldd r24,Y+5
 1631 08ba 9E81      		ldd r25,Y+6
 1632 08bc BA01      		movw r22,r20
 1633 08be F901      		movw r30,r18
 1634 08c0 0995      		icall
  15:lp_solve_5.5\bfp/lp_BFP2.c ****   if((lu == NULL) || 
 1635               		.loc 2 15 0 discriminator 1
 1636 08c2 8823      		tst r24
 1637 08c4 01F0      		breq .L61
  17:lp_solve_5.5\bfp/lp_BFP2.c ****      !lp->bfp_restart(lp))
 1638               		.loc 2 17 0
 1639 08c6 8D81      		ldd r24,Y+5
 1640 08c8 9E81      		ldd r25,Y+6
 1641 08ca 8256      		subi r24,98
 1642 08cc 9C4F      		sbci r25,-4
 1643 08ce FC01      		movw r30,r24
 1644 08d0 2081      		ld r18,Z
 1645 08d2 3181      		ldd r19,Z+1
 1646 08d4 8D81      		ldd r24,Y+5
 1647 08d6 9E81      		ldd r25,Y+6
 1648 08d8 F901      		movw r30,r18
 1649 08da 0995      		icall
  16:lp_solve_5.5\bfp/lp_BFP2.c ****      !lp->bfp_resize(lp, size) ||
 1650               		.loc 2 16 0
 1651 08dc 8823      		tst r24
 1652 08de 01F4      		brne .L62
 1653               	.L61:
  18:lp_solve_5.5\bfp/lp_BFP2.c ****     return( FALSE );
 1654               		.loc 2 18 0
 1655 08e0 80E0      		ldi r24,0
 1656 08e2 00C0      		rjmp .L63
 1657               	.L62:
  19:lp_solve_5.5\bfp/lp_BFP2.c **** 
  20:lp_solve_5.5\bfp/lp_BFP2.c ****   /* Store any passed options */
  21:lp_solve_5.5\bfp/lp_BFP2.c ****   if(options != NULL) {
 1658               		.loc 2 21 0
 1659 08e4 8B85      		ldd r24,Y+11
 1660 08e6 9C85      		ldd r25,Y+12
 1661 08e8 892B      		or r24,r25
 1662 08ea 01F0      		breq .L64
 1663               	.LBB3:
  22:lp_solve_5.5\bfp/lp_BFP2.c ****     size_t len = strlen(options);
 1664               		.loc 2 22 0
 1665 08ec 8B85      		ldd r24,Y+11
 1666 08ee 9C85      		ldd r25,Y+12
 1667 08f0 0E94 0000 		call strlen
 1668 08f4 9C83      		std Y+4,r25
 1669 08f6 8B83      		std Y+3,r24
  23:lp_solve_5.5\bfp/lp_BFP2.c ****     lu->opts = (char *) malloc(len + 1);
 1670               		.loc 2 23 0
 1671 08f8 8B81      		ldd r24,Y+3
 1672 08fa 9C81      		ldd r25,Y+4
 1673 08fc 0196      		adiw r24,1
 1674 08fe 0E94 0000 		call malloc
 1675 0902 9C01      		movw r18,r24
 1676 0904 8981      		ldd r24,Y+1
 1677 0906 9A81      		ldd r25,Y+2
 1678 0908 FC01      		movw r30,r24
 1679 090a 31AB      		std Z+49,r19
 1680 090c 20AB      		std Z+48,r18
  24:lp_solve_5.5\bfp/lp_BFP2.c ****     strcpy(lu->opts, options);
 1681               		.loc 2 24 0
 1682 090e 8981      		ldd r24,Y+1
 1683 0910 9A81      		ldd r25,Y+2
 1684 0912 FC01      		movw r30,r24
 1685 0914 80A9      		ldd r24,Z+48
 1686 0916 91A9      		ldd r25,Z+49
 1687 0918 2B85      		ldd r18,Y+11
 1688 091a 3C85      		ldd r19,Y+12
 1689 091c B901      		movw r22,r18
 1690 091e 0E94 0000 		call strcpy
 1691               	.L64:
 1692               	.LBE3:
  25:lp_solve_5.5\bfp/lp_BFP2.c ****   }
  26:lp_solve_5.5\bfp/lp_BFP2.c **** 
  27:lp_solve_5.5\bfp/lp_BFP2.c ****   /* Prepare for factorization and undo values reset by bfp_preparefactorization */
  28:lp_solve_5.5\bfp/lp_BFP2.c ****   lp->bfp_preparefactorization(lp);
 1693               		.loc 2 28 0
 1694 0922 8D81      		ldd r24,Y+5
 1695 0924 9E81      		ldd r25,Y+6
 1696 0926 8E55      		subi r24,94
 1697 0928 9C4F      		sbci r25,-4
 1698 092a FC01      		movw r30,r24
 1699 092c 2081      		ld r18,Z
 1700 092e 3181      		ldd r19,Z+1
 1701 0930 8D81      		ldd r24,Y+5
 1702 0932 9E81      		ldd r25,Y+6
 1703 0934 F901      		movw r30,r18
 1704 0936 0995      		icall
  29:lp_solve_5.5\bfp/lp_BFP2.c ****   lu->num_refact = 0;
 1705               		.loc 2 29 0
 1706 0938 8981      		ldd r24,Y+1
 1707 093a 9A81      		ldd r25,Y+2
 1708 093c FC01      		movw r30,r24
 1709 093e 178E      		std Z+31,__zero_reg__
 1710 0940 168E      		std Z+30,__zero_reg__
  30:lp_solve_5.5\bfp/lp_BFP2.c **** 
  31:lp_solve_5.5\bfp/lp_BFP2.c ****   return( TRUE );
 1711               		.loc 2 31 0
 1712 0942 81E0      		ldi r24,lo8(1)
 1713               	.L63:
 1714               	/* epilogue start */
  32:lp_solve_5.5\bfp/lp_BFP2.c **** }
 1715               		.loc 2 32 0
 1716 0944 2C96      		adiw r28,12
 1717 0946 0FB6      		in __tmp_reg__,__SREG__
 1718 0948 F894      		cli
 1719 094a DEBF      		out __SP_H__,r29
 1720 094c 0FBE      		out __SREG__,__tmp_reg__
 1721 094e CDBF      		out __SP_L__,r28
 1722 0950 DF91      		pop r29
 1723 0952 CF91      		pop r28
 1724 0954 0895      		ret
 1725               		.cfi_endproc
 1726               	.LFE21:
 1728               	.global	bfp_restart
 1730               	bfp_restart:
 1731               	.LFB22:
  33:lp_solve_5.5\bfp/lp_BFP2.c **** 
  34:lp_solve_5.5\bfp/lp_BFP2.c **** /* DON'T MODIFY */
  35:lp_solve_5.5\bfp/lp_BFP2.c **** MYBOOL BFP_CALLMODEL bfp_restart(lprec *lp)
  36:lp_solve_5.5\bfp/lp_BFP2.c **** {
 1732               		.loc 2 36 0
 1733               		.cfi_startproc
 1734 0956 CF93      		push r28
 1735               	.LCFI67:
 1736               		.cfi_def_cfa_offset 3
 1737               		.cfi_offset 28, -2
 1738 0958 DF93      		push r29
 1739               	.LCFI68:
 1740               		.cfi_def_cfa_offset 4
 1741               		.cfi_offset 29, -3
 1742 095a 00D0      		rcall .
 1743 095c 00D0      		rcall .
 1744               	.LCFI69:
 1745               		.cfi_def_cfa_offset 8
 1746 095e CDB7      		in r28,__SP_L__
 1747 0960 DEB7      		in r29,__SP_H__
 1748               	.LCFI70:
 1749               		.cfi_def_cfa_register 28
 1750               	/* prologue: function */
 1751               	/* frame size = 4 */
 1752               	/* stack size = 6 */
 1753               	.L__stack_usage = 6
 1754 0962 9C83      		std Y+4,r25
 1755 0964 8B83      		std Y+3,r24
  37:lp_solve_5.5\bfp/lp_BFP2.c ****   INVrec *lu;
  38:lp_solve_5.5\bfp/lp_BFP2.c **** 
  39:lp_solve_5.5\bfp/lp_BFP2.c ****   lu = lp->invB;
 1756               		.loc 2 39 0
 1757 0966 8B81      		ldd r24,Y+3
 1758 0968 9C81      		ldd r25,Y+4
 1759 096a 8854      		subi r24,72
 1760 096c 9D4F      		sbci r25,-3
 1761 096e FC01      		movw r30,r24
 1762 0970 8081      		ld r24,Z
 1763 0972 9181      		ldd r25,Z+1
 1764 0974 9A83      		std Y+2,r25
 1765 0976 8983      		std Y+1,r24
  40:lp_solve_5.5\bfp/lp_BFP2.c ****   if(lu == NULL)
 1766               		.loc 2 40 0
 1767 0978 8981      		ldd r24,Y+1
 1768 097a 9A81      		ldd r25,Y+2
 1769 097c 892B      		or r24,r25
 1770 097e 01F4      		brne .L66
  41:lp_solve_5.5\bfp/lp_BFP2.c ****     return( FALSE );
 1771               		.loc 2 41 0
 1772 0980 80E0      		ldi r24,0
 1773 0982 00C0      		rjmp .L67
 1774               	.L66:
  42:lp_solve_5.5\bfp/lp_BFP2.c **** 
  43:lp_solve_5.5\bfp/lp_BFP2.c ****   lu->status = BFP_STATUS_SUCCESS;
 1775               		.loc 2 43 0
 1776 0984 8981      		ldd r24,Y+1
 1777 0986 9A81      		ldd r25,Y+2
 1778 0988 FC01      		movw r30,r24
 1779 098a 1182      		std Z+1,__zero_reg__
 1780 098c 1082      		st Z,__zero_reg__
  44:lp_solve_5.5\bfp/lp_BFP2.c ****   lu->max_Bsize = 0;          /* The largest NZ-count of the B matrix            */
 1781               		.loc 2 44 0
 1782 098e 8981      		ldd r24,Y+1
 1783 0990 9A81      		ldd r25,Y+2
 1784 0992 FC01      		movw r30,r24
 1785 0994 118E      		std Z+25,__zero_reg__
 1786 0996 108E      		std Z+24,__zero_reg__
  45:lp_solve_5.5\bfp/lp_BFP2.c ****   lu->max_colcount = 0;       /* The maximum number of user columns in B         */
 1787               		.loc 2 45 0
 1788 0998 8981      		ldd r24,Y+1
 1789 099a 9A81      		ldd r25,Y+2
 1790 099c FC01      		movw r30,r24
 1791 099e 138E      		std Z+27,__zero_reg__
 1792 09a0 128E      		std Z+26,__zero_reg__
  46:lp_solve_5.5\bfp/lp_BFP2.c ****   lu->max_LUsize = 0;         /* The largest NZ-count of LU-files generated      */
 1793               		.loc 2 46 0
 1794 09a2 8981      		ldd r24,Y+1
 1795 09a4 9A81      		ldd r25,Y+2
 1796 09a6 FC01      		movw r30,r24
 1797 09a8 158E      		std Z+29,__zero_reg__
 1798 09aa 148E      		std Z+28,__zero_reg__
  47:lp_solve_5.5\bfp/lp_BFP2.c ****   lu->num_refact = 0;         /* The number of times the basis has been factored */
 1799               		.loc 2 47 0
 1800 09ac 8981      		ldd r24,Y+1
 1801 09ae 9A81      		ldd r25,Y+2
 1802 09b0 FC01      		movw r30,r24
 1803 09b2 178E      		std Z+31,__zero_reg__
 1804 09b4 168E      		std Z+30,__zero_reg__
  48:lp_solve_5.5\bfp/lp_BFP2.c ****   lu->num_timed_refact = 0;
 1805               		.loc 2 48 0
 1806 09b6 8981      		ldd r24,Y+1
 1807 09b8 9A81      		ldd r25,Y+2
 1808 09ba FC01      		movw r30,r24
 1809 09bc 11A2      		std Z+33,__zero_reg__
 1810 09be 10A2      		std Z+32,__zero_reg__
  49:lp_solve_5.5\bfp/lp_BFP2.c ****   lu->num_dense_refact = 0;
 1811               		.loc 2 49 0
 1812 09c0 8981      		ldd r24,Y+1
 1813 09c2 9A81      		ldd r25,Y+2
 1814 09c4 FC01      		movw r30,r24
 1815 09c6 13A2      		std Z+35,__zero_reg__
 1816 09c8 12A2      		std Z+34,__zero_reg__
  50:lp_solve_5.5\bfp/lp_BFP2.c ****   lu->num_pivots = 0;         /* The number of pivots since last factorization   */
 1817               		.loc 2 50 0
 1818 09ca 8981      		ldd r24,Y+1
 1819 09cc 9A81      		ldd r25,Y+2
 1820 09ce FC01      		movw r30,r24
 1821 09d0 15A6      		std Z+45,__zero_reg__
 1822 09d2 14A6      		std Z+44,__zero_reg__
  51:lp_solve_5.5\bfp/lp_BFP2.c ****   lu->pcol = NULL;
 1823               		.loc 2 51 0
 1824 09d4 8981      		ldd r24,Y+1
 1825 09d6 9A81      		ldd r25,Y+2
 1826 09d8 FC01      		movw r30,r24
 1827 09da 138A      		std Z+19,__zero_reg__
 1828 09dc 128A      		std Z+18,__zero_reg__
  52:lp_solve_5.5\bfp/lp_BFP2.c ****   lu->set_Bidentity = FALSE;
 1829               		.loc 2 52 0
 1830 09de 8981      		ldd r24,Y+1
 1831 09e0 9A81      		ldd r25,Y+2
 1832 09e2 FC01      		movw r30,r24
 1833 09e4 15AA      		std Z+53,__zero_reg__
  53:lp_solve_5.5\bfp/lp_BFP2.c **** 
  54:lp_solve_5.5\bfp/lp_BFP2.c ****   return( TRUE );
 1834               		.loc 2 54 0
 1835 09e6 81E0      		ldi r24,lo8(1)
 1836               	.L67:
 1837               	/* epilogue start */
  55:lp_solve_5.5\bfp/lp_BFP2.c **** }
 1838               		.loc 2 55 0
 1839 09e8 0F90      		pop __tmp_reg__
 1840 09ea 0F90      		pop __tmp_reg__
 1841 09ec 0F90      		pop __tmp_reg__
 1842 09ee 0F90      		pop __tmp_reg__
 1843 09f0 DF91      		pop r29
 1844 09f2 CF91      		pop r28
 1845 09f4 0895      		ret
 1846               		.cfi_endproc
 1847               	.LFE22:
 1849               	.global	bfp_implicitslack
 1851               	bfp_implicitslack:
 1852               	.LFB23:
  56:lp_solve_5.5\bfp/lp_BFP2.c **** 
  57:lp_solve_5.5\bfp/lp_BFP2.c **** /* DON'T MODIFY */
  58:lp_solve_5.5\bfp/lp_BFP2.c **** MYBOOL BFP_CALLMODEL bfp_implicitslack(lprec *lp)
  59:lp_solve_5.5\bfp/lp_BFP2.c **** {
 1853               		.loc 2 59 0
 1854               		.cfi_startproc
 1855 09f6 CF93      		push r28
 1856               	.LCFI71:
 1857               		.cfi_def_cfa_offset 3
 1858               		.cfi_offset 28, -2
 1859 09f8 DF93      		push r29
 1860               	.LCFI72:
 1861               		.cfi_def_cfa_offset 4
 1862               		.cfi_offset 29, -3
 1863 09fa 00D0      		rcall .
 1864               	.LCFI73:
 1865               		.cfi_def_cfa_offset 6
 1866 09fc CDB7      		in r28,__SP_L__
 1867 09fe DEB7      		in r29,__SP_H__
 1868               	.LCFI74:
 1869               		.cfi_def_cfa_register 28
 1870               	/* prologue: function */
 1871               	/* frame size = 2 */
 1872               	/* stack size = 4 */
 1873               	.L__stack_usage = 4
 1874 0a00 9A83      		std Y+2,r25
 1875 0a02 8983      		std Y+1,r24
  60:lp_solve_5.5\bfp/lp_BFP2.c ****   return( FALSE );
 1876               		.loc 2 60 0
 1877 0a04 80E0      		ldi r24,0
 1878               	/* epilogue start */
  61:lp_solve_5.5\bfp/lp_BFP2.c **** }
 1879               		.loc 2 61 0
 1880 0a06 0F90      		pop __tmp_reg__
 1881 0a08 0F90      		pop __tmp_reg__
 1882 0a0a DF91      		pop r29
 1883 0a0c CF91      		pop r28
 1884 0a0e 0895      		ret
 1885               		.cfi_endproc
 1886               	.LFE23:
 1888               	.global	bfp_colcount
 1890               	bfp_colcount:
 1891               	.LFB24:
  62:lp_solve_5.5\bfp/lp_BFP2.c **** 
  63:lp_solve_5.5\bfp/lp_BFP2.c **** /* DON'T MODIFY */
  64:lp_solve_5.5\bfp/lp_BFP2.c **** int BFP_CALLMODEL bfp_colcount(lprec *lp)
  65:lp_solve_5.5\bfp/lp_BFP2.c **** {
 1892               		.loc 2 65 0
 1893               		.cfi_startproc
 1894 0a10 CF93      		push r28
 1895               	.LCFI75:
 1896               		.cfi_def_cfa_offset 3
 1897               		.cfi_offset 28, -2
 1898 0a12 DF93      		push r29
 1899               	.LCFI76:
 1900               		.cfi_def_cfa_offset 4
 1901               		.cfi_offset 29, -3
 1902 0a14 00D0      		rcall .
 1903               	.LCFI77:
 1904               		.cfi_def_cfa_offset 6
 1905 0a16 CDB7      		in r28,__SP_L__
 1906 0a18 DEB7      		in r29,__SP_H__
 1907               	.LCFI78:
 1908               		.cfi_def_cfa_register 28
 1909               	/* prologue: function */
 1910               	/* frame size = 2 */
 1911               	/* stack size = 4 */
 1912               	.L__stack_usage = 4
 1913 0a1a 9A83      		std Y+2,r25
 1914 0a1c 8983      		std Y+1,r24
  66:lp_solve_5.5\bfp/lp_BFP2.c ****   return(lp->invB->user_colcount);
 1915               		.loc 2 66 0
 1916 0a1e 8981      		ldd r24,Y+1
 1917 0a20 9A81      		ldd r25,Y+2
 1918 0a22 8854      		subi r24,72
 1919 0a24 9D4F      		sbci r25,-3
 1920 0a26 FC01      		movw r30,r24
 1921 0a28 8081      		ld r24,Z
 1922 0a2a 9181      		ldd r25,Z+1
 1923 0a2c FC01      		movw r30,r24
 1924 0a2e 8681      		ldd r24,Z+6
 1925 0a30 9781      		ldd r25,Z+7
 1926               	/* epilogue start */
  67:lp_solve_5.5\bfp/lp_BFP2.c **** }
 1927               		.loc 2 67 0
 1928 0a32 0F90      		pop __tmp_reg__
 1929 0a34 0F90      		pop __tmp_reg__
 1930 0a36 DF91      		pop r29
 1931 0a38 CF91      		pop r28
 1932 0a3a 0895      		ret
 1933               		.cfi_endproc
 1934               	.LFE24:
 1936               	.global	bfp_canresetbasis
 1938               	bfp_canresetbasis:
 1939               	.LFB25:
  68:lp_solve_5.5\bfp/lp_BFP2.c **** 
  69:lp_solve_5.5\bfp/lp_BFP2.c **** 
  70:lp_solve_5.5\bfp/lp_BFP2.c **** /* DON'T MODIFY */
  71:lp_solve_5.5\bfp/lp_BFP2.c **** MYBOOL BFP_CALLMODEL bfp_canresetbasis(lprec *lp)
  72:lp_solve_5.5\bfp/lp_BFP2.c **** {
 1940               		.loc 2 72 0
 1941               		.cfi_startproc
 1942 0a3c CF93      		push r28
 1943               	.LCFI79:
 1944               		.cfi_def_cfa_offset 3
 1945               		.cfi_offset 28, -2
 1946 0a3e DF93      		push r29
 1947               	.LCFI80:
 1948               		.cfi_def_cfa_offset 4
 1949               		.cfi_offset 29, -3
 1950 0a40 00D0      		rcall .
 1951               	.LCFI81:
 1952               		.cfi_def_cfa_offset 6
 1953 0a42 CDB7      		in r28,__SP_L__
 1954 0a44 DEB7      		in r29,__SP_H__
 1955               	.LCFI82:
 1956               		.cfi_def_cfa_register 28
 1957               	/* prologue: function */
 1958               	/* frame size = 2 */
 1959               	/* stack size = 4 */
 1960               	.L__stack_usage = 4
 1961 0a46 9A83      		std Y+2,r25
 1962 0a48 8983      		std Y+1,r24
  73:lp_solve_5.5\bfp/lp_BFP2.c ****   return( FALSE );
 1963               		.loc 2 73 0
 1964 0a4a 80E0      		ldi r24,0
 1965               	/* epilogue start */
  74:lp_solve_5.5\bfp/lp_BFP2.c **** }
 1966               		.loc 2 74 0
 1967 0a4c 0F90      		pop __tmp_reg__
 1968 0a4e 0F90      		pop __tmp_reg__
 1969 0a50 DF91      		pop r29
 1970 0a52 CF91      		pop r28
 1971 0a54 0895      		ret
 1972               		.cfi_endproc
 1973               	.LFE25:
 1975               	.global	bfp_pivotalloc
 1977               	bfp_pivotalloc:
 1978               	.LFB26:
  75:lp_solve_5.5\bfp/lp_BFP2.c **** 
  76:lp_solve_5.5\bfp/lp_BFP2.c **** 
  77:lp_solve_5.5\bfp/lp_BFP2.c **** /* DON'T MODIFY */
  78:lp_solve_5.5\bfp/lp_BFP2.c **** MYBOOL BFP_CALLMODEL bfp_pivotalloc(lprec *lp, int newsize)
  79:lp_solve_5.5\bfp/lp_BFP2.c **** {
 1979               		.loc 2 79 0
 1980               		.cfi_startproc
 1981 0a56 CF93      		push r28
 1982               	.LCFI83:
 1983               		.cfi_def_cfa_offset 3
 1984               		.cfi_offset 28, -2
 1985 0a58 DF93      		push r29
 1986               	.LCFI84:
 1987               		.cfi_def_cfa_offset 4
 1988               		.cfi_offset 29, -3
 1989 0a5a 00D0      		rcall .
 1990 0a5c 00D0      		rcall .
 1991               	.LCFI85:
 1992               		.cfi_def_cfa_offset 8
 1993 0a5e CDB7      		in r28,__SP_L__
 1994 0a60 DEB7      		in r29,__SP_H__
 1995               	.LCFI86:
 1996               		.cfi_def_cfa_register 28
 1997               	/* prologue: function */
 1998               	/* frame size = 4 */
 1999               	/* stack size = 6 */
 2000               	.L__stack_usage = 6
 2001 0a62 9A83      		std Y+2,r25
 2002 0a64 8983      		std Y+1,r24
 2003 0a66 7C83      		std Y+4,r23
 2004 0a68 6B83      		std Y+3,r22
  80:lp_solve_5.5\bfp/lp_BFP2.c ****   /* Does nothing in the default implementation */
  81:lp_solve_5.5\bfp/lp_BFP2.c ****   return( TRUE );
 2005               		.loc 2 81 0
 2006 0a6a 81E0      		ldi r24,lo8(1)
 2007               	/* epilogue start */
  82:lp_solve_5.5\bfp/lp_BFP2.c **** }
 2008               		.loc 2 82 0
 2009 0a6c 0F90      		pop __tmp_reg__
 2010 0a6e 0F90      		pop __tmp_reg__
 2011 0a70 0F90      		pop __tmp_reg__
 2012 0a72 0F90      		pop __tmp_reg__
 2013 0a74 DF91      		pop r29
 2014 0a76 CF91      		pop r28
 2015 0a78 0895      		ret
 2016               		.cfi_endproc
 2017               	.LFE26:
 2019               	.global	bfp_finishfactorization
 2021               	bfp_finishfactorization:
 2022               	.LFB27:
  83:lp_solve_5.5\bfp/lp_BFP2.c **** 
  84:lp_solve_5.5\bfp/lp_BFP2.c **** 
  85:lp_solve_5.5\bfp/lp_BFP2.c **** /* DON'T MODIFY */
  86:lp_solve_5.5\bfp/lp_BFP2.c **** void BFP_CALLMODEL bfp_finishfactorization(lprec *lp)
  87:lp_solve_5.5\bfp/lp_BFP2.c **** {
 2023               		.loc 2 87 0
 2024               		.cfi_startproc
 2025 0a7a 0F93      		push r16
 2026               	.LCFI87:
 2027               		.cfi_def_cfa_offset 3
 2028               		.cfi_offset 16, -2
 2029 0a7c 1F93      		push r17
 2030               	.LCFI88:
 2031               		.cfi_def_cfa_offset 4
 2032               		.cfi_offset 17, -3
 2033 0a7e CF93      		push r28
 2034               	.LCFI89:
 2035               		.cfi_def_cfa_offset 5
 2036               		.cfi_offset 28, -4
 2037 0a80 DF93      		push r29
 2038               	.LCFI90:
 2039               		.cfi_def_cfa_offset 6
 2040               		.cfi_offset 29, -5
 2041 0a82 00D0      		rcall .
 2042 0a84 00D0      		rcall .
 2043               	.LCFI91:
 2044               		.cfi_def_cfa_offset 10
 2045 0a86 CDB7      		in r28,__SP_L__
 2046 0a88 DEB7      		in r29,__SP_H__
 2047               	.LCFI92:
 2048               		.cfi_def_cfa_register 28
 2049               	/* prologue: function */
 2050               	/* frame size = 4 */
 2051               	/* stack size = 8 */
 2052               	.L__stack_usage = 8
 2053 0a8a 9C83      		std Y+4,r25
 2054 0a8c 8B83      		std Y+3,r24
  88:lp_solve_5.5\bfp/lp_BFP2.c ****   INVrec *lu;
  89:lp_solve_5.5\bfp/lp_BFP2.c **** 
  90:lp_solve_5.5\bfp/lp_BFP2.c ****   lu = lp->invB;
 2055               		.loc 2 90 0
 2056 0a8e 8B81      		ldd r24,Y+3
 2057 0a90 9C81      		ldd r25,Y+4
 2058 0a92 8854      		subi r24,72
 2059 0a94 9D4F      		sbci r25,-3
 2060 0a96 FC01      		movw r30,r24
 2061 0a98 8081      		ld r24,Z
 2062 0a9a 9181      		ldd r25,Z+1
 2063 0a9c 9A83      		std Y+2,r25
 2064 0a9e 8983      		std Y+1,r24
  91:lp_solve_5.5\bfp/lp_BFP2.c **** 
  92:lp_solve_5.5\bfp/lp_BFP2.c ****   SETMAX(lu->max_colcount, lp->bfp_colcount(lp));
 2065               		.loc 2 92 0
 2066 0aa0 8981      		ldd r24,Y+1
 2067 0aa2 9A81      		ldd r25,Y+2
 2068 0aa4 FC01      		movw r30,r24
 2069 0aa6 028D      		ldd r16,Z+26
 2070 0aa8 138D      		ldd r17,Z+27
 2071 0aaa 8B81      		ldd r24,Y+3
 2072 0aac 9C81      		ldd r25,Y+4
 2073 0aae 8A53      		subi r24,58
 2074 0ab0 9C4F      		sbci r25,-4
 2075 0ab2 FC01      		movw r30,r24
 2076 0ab4 2081      		ld r18,Z
 2077 0ab6 3181      		ldd r19,Z+1
 2078 0ab8 8B81      		ldd r24,Y+3
 2079 0aba 9C81      		ldd r25,Y+4
 2080 0abc F901      		movw r30,r18
 2081 0abe 0995      		icall
 2082 0ac0 0817      		cp r16,r24
 2083 0ac2 1907      		cpc r17,r25
 2084 0ac4 04F4      		brge .L77
 2085               		.loc 2 92 0 is_stmt 0 discriminator 1
 2086 0ac6 8B81      		ldd r24,Y+3
 2087 0ac8 9C81      		ldd r25,Y+4
 2088 0aca 8A53      		subi r24,58
 2089 0acc 9C4F      		sbci r25,-4
 2090 0ace FC01      		movw r30,r24
 2091 0ad0 2081      		ld r18,Z
 2092 0ad2 3181      		ldd r19,Z+1
 2093 0ad4 8B81      		ldd r24,Y+3
 2094 0ad6 9C81      		ldd r25,Y+4
 2095 0ad8 F901      		movw r30,r18
 2096 0ada 0995      		icall
 2097 0adc 9C01      		movw r18,r24
 2098 0ade 8981      		ldd r24,Y+1
 2099 0ae0 9A81      		ldd r25,Y+2
 2100 0ae2 FC01      		movw r30,r24
 2101 0ae4 338F      		std Z+27,r19
 2102 0ae6 228F      		std Z+26,r18
 2103               	.L77:
  93:lp_solve_5.5\bfp/lp_BFP2.c ****   SETMAX(lu->max_LUsize, lp->bfp_nonzeros(lp, FALSE));
 2104               		.loc 2 93 0 is_stmt 1
 2105 0ae8 8981      		ldd r24,Y+1
 2106 0aea 9A81      		ldd r25,Y+2
 2107 0aec FC01      		movw r30,r24
 2108 0aee 048D      		ldd r16,Z+28
 2109 0af0 158D      		ldd r17,Z+29
 2110 0af2 8B81      		ldd r24,Y+3
 2111 0af4 9C81      		ldd r25,Y+4
 2112 0af6 8654      		subi r24,70
 2113 0af8 9C4F      		sbci r25,-4
 2114 0afa FC01      		movw r30,r24
 2115 0afc 2081      		ld r18,Z
 2116 0afe 3181      		ldd r19,Z+1
 2117 0b00 8B81      		ldd r24,Y+3
 2118 0b02 9C81      		ldd r25,Y+4
 2119 0b04 60E0      		ldi r22,0
 2120 0b06 F901      		movw r30,r18
 2121 0b08 0995      		icall
 2122 0b0a 0817      		cp r16,r24
 2123 0b0c 1907      		cpc r17,r25
 2124 0b0e 04F4      		brge .L78
 2125               		.loc 2 93 0 is_stmt 0 discriminator 1
 2126 0b10 8B81      		ldd r24,Y+3
 2127 0b12 9C81      		ldd r25,Y+4
 2128 0b14 8654      		subi r24,70
 2129 0b16 9C4F      		sbci r25,-4
 2130 0b18 FC01      		movw r30,r24
 2131 0b1a 2081      		ld r18,Z
 2132 0b1c 3181      		ldd r19,Z+1
 2133 0b1e 8B81      		ldd r24,Y+3
 2134 0b20 9C81      		ldd r25,Y+4
 2135 0b22 60E0      		ldi r22,0
 2136 0b24 F901      		movw r30,r18
 2137 0b26 0995      		icall
 2138 0b28 9C01      		movw r18,r24
 2139 0b2a 8981      		ldd r24,Y+1
 2140 0b2c 9A81      		ldd r25,Y+2
 2141 0b2e FC01      		movw r30,r24
 2142 0b30 358F      		std Z+29,r19
 2143 0b32 248F      		std Z+28,r18
 2144               	.L78:
  94:lp_solve_5.5\bfp/lp_BFP2.c **** 
  95:lp_solve_5.5\bfp/lp_BFP2.c ****   /* Signal that we done factorizing/reinverting */
  96:lp_solve_5.5\bfp/lp_BFP2.c ****   lu->is_dirty = FALSE;
 2145               		.loc 2 96 0 is_stmt 1
 2146 0b34 8981      		ldd r24,Y+1
 2147 0b36 9A81      		ldd r25,Y+2
 2148 0b38 FC01      		movw r30,r24
 2149 0b3a 12AA      		std Z+50,__zero_reg__
  97:lp_solve_5.5\bfp/lp_BFP2.c ****   lp->clear_action(&lp->spx_action, ACTION_REINVERT | ACTION_TIMEDREINVERT);
 2150               		.loc 2 97 0
 2151 0b3c 8B81      		ldd r24,Y+3
 2152 0b3e 9C81      		ldd r25,Y+4
 2153 0b40 8C50      		subi r24,12
 2154 0b42 9C4F      		sbci r25,-4
 2155 0b44 FC01      		movw r30,r24
 2156 0b46 2081      		ld r18,Z
 2157 0b48 3181      		ldd r19,Z+1
 2158 0b4a 8B81      		ldd r24,Y+3
 2159 0b4c 9C81      		ldd r25,Y+4
 2160 0b4e 8E50      		subi r24,14
 2161 0b50 9D4F      		sbci r25,-3
 2162 0b52 60E3      		ldi r22,lo8(48)
 2163 0b54 70E0      		ldi r23,0
 2164 0b56 F901      		movw r30,r18
 2165 0b58 0995      		icall
  98:lp_solve_5.5\bfp/lp_BFP2.c ****   lu->force_refact = FALSE;
 2166               		.loc 2 98 0
 2167 0b5a 8981      		ldd r24,Y+1
 2168 0b5c 9A81      		ldd r25,Y+2
 2169 0b5e FC01      		movw r30,r24
 2170 0b60 13AA      		std Z+51,__zero_reg__
  99:lp_solve_5.5\bfp/lp_BFP2.c **** 
 100:lp_solve_5.5\bfp/lp_BFP2.c ****   /* Store information about the current inverse */
 101:lp_solve_5.5\bfp/lp_BFP2.c ****   lu->num_pivots = 0;
 2171               		.loc 2 101 0
 2172 0b62 8981      		ldd r24,Y+1
 2173 0b64 9A81      		ldd r25,Y+2
 2174 0b66 FC01      		movw r30,r24
 2175 0b68 15A6      		std Z+45,__zero_reg__
 2176 0b6a 14A6      		std Z+44,__zero_reg__
 102:lp_solve_5.5\bfp/lp_BFP2.c **** 
 103:lp_solve_5.5\bfp/lp_BFP2.c **** }
 2177               		.loc 2 103 0
 2178 0b6c 0000      		nop
 2179               	/* epilogue start */
 2180 0b6e 0F90      		pop __tmp_reg__
 2181 0b70 0F90      		pop __tmp_reg__
 2182 0b72 0F90      		pop __tmp_reg__
 2183 0b74 0F90      		pop __tmp_reg__
 2184 0b76 DF91      		pop r29
 2185 0b78 CF91      		pop r28
 2186 0b7a 1F91      		pop r17
 2187 0b7c 0F91      		pop r16
 2188 0b7e 0895      		ret
 2189               		.cfi_endproc
 2190               	.LFE27:
 2192               	.global	bfp_prepareupdate
 2194               	bfp_prepareupdate:
 2195               	.LFB28:
 104:lp_solve_5.5\bfp/lp_BFP2.c **** 
 105:lp_solve_5.5\bfp/lp_BFP2.c **** 
 106:lp_solve_5.5\bfp/lp_BFP2.c **** /* DON'T MODIFY */
 107:lp_solve_5.5\bfp/lp_BFP2.c **** LREAL BFP_CALLMODEL bfp_prepareupdate(lprec *lp, int row_nr, int col_nr, REAL *pcol)
 108:lp_solve_5.5\bfp/lp_BFP2.c **** /* Was condensecol() in versions of lp_solve before 4.0.1.8 - KE */
 109:lp_solve_5.5\bfp/lp_BFP2.c **** {
 2196               		.loc 2 109 0
 2197               		.cfi_startproc
 2198 0b80 CF93      		push r28
 2199               	.LCFI93:
 2200               		.cfi_def_cfa_offset 3
 2201               		.cfi_offset 28, -2
 2202 0b82 DF93      		push r29
 2203               	.LCFI94:
 2204               		.cfi_def_cfa_offset 4
 2205               		.cfi_offset 29, -3
 2206 0b84 CDB7      		in r28,__SP_L__
 2207 0b86 DEB7      		in r29,__SP_H__
 2208               	.LCFI95:
 2209               		.cfi_def_cfa_register 28
 2210 0b88 2E97      		sbiw r28,14
 2211               	.LCFI96:
 2212               		.cfi_def_cfa_offset 18
 2213 0b8a 0FB6      		in __tmp_reg__,__SREG__
 2214 0b8c F894      		cli
 2215 0b8e DEBF      		out __SP_H__,r29
 2216 0b90 0FBE      		out __SREG__,__tmp_reg__
 2217 0b92 CDBF      		out __SP_L__,r28
 2218               	/* prologue: function */
 2219               	/* frame size = 14 */
 2220               	/* stack size = 16 */
 2221               	.L__stack_usage = 16
 2222 0b94 9887      		std Y+8,r25
 2223 0b96 8F83      		std Y+7,r24
 2224 0b98 7A87      		std Y+10,r23
 2225 0b9a 6987      		std Y+9,r22
 2226 0b9c 5C87      		std Y+12,r21
 2227 0b9e 4B87      		std Y+11,r20
 2228 0ba0 3E87      		std Y+14,r19
 2229 0ba2 2D87      		std Y+13,r18
 110:lp_solve_5.5\bfp/lp_BFP2.c ****   LREAL  pivValue;
 111:lp_solve_5.5\bfp/lp_BFP2.c ****   INVrec *lu;
 112:lp_solve_5.5\bfp/lp_BFP2.c **** 
 113:lp_solve_5.5\bfp/lp_BFP2.c ****   lu = lp->invB;
 2230               		.loc 2 113 0
 2231 0ba4 8F81      		ldd r24,Y+7
 2232 0ba6 9885      		ldd r25,Y+8
 2233 0ba8 8854      		subi r24,72
 2234 0baa 9D4F      		sbci r25,-3
 2235 0bac FC01      		movw r30,r24
 2236 0bae 8081      		ld r24,Z
 2237 0bb0 9181      		ldd r25,Z+1
 2238 0bb2 9E83      		std Y+6,r25
 2239 0bb4 8D83      		std Y+5,r24
 114:lp_solve_5.5\bfp/lp_BFP2.c **** 
 115:lp_solve_5.5\bfp/lp_BFP2.c ****   /* Store the incoming pivot value for RHS update purposes */
 116:lp_solve_5.5\bfp/lp_BFP2.c ****   lu->col_enter = col_nr;  /* The index of the new data column */
 2240               		.loc 2 116 0
 2241 0bb6 8D81      		ldd r24,Y+5
 2242 0bb8 9E81      		ldd r25,Y+6
 2243 0bba 2B85      		ldd r18,Y+11
 2244 0bbc 3C85      		ldd r19,Y+12
 2245 0bbe FC01      		movw r30,r24
 2246 0bc0 3387      		std Z+11,r19
 2247 0bc2 2287      		std Z+10,r18
 117:lp_solve_5.5\bfp/lp_BFP2.c ****   lu->col_pos   = row_nr;  /* The basis column to be replaced */
 2248               		.loc 2 117 0
 2249 0bc4 8D81      		ldd r24,Y+5
 2250 0bc6 9E81      		ldd r25,Y+6
 2251 0bc8 2985      		ldd r18,Y+9
 2252 0bca 3A85      		ldd r19,Y+10
 2253 0bcc FC01      		movw r30,r24
 2254 0bce 3787      		std Z+15,r19
 2255 0bd0 2687      		std Z+14,r18
 118:lp_solve_5.5\bfp/lp_BFP2.c ****   lu->col_leave = lp->var_basic[row_nr];
 2256               		.loc 2 118 0
 2257 0bd2 8F81      		ldd r24,Y+7
 2258 0bd4 9885      		ldd r25,Y+8
 2259 0bd6 8453      		subi r24,52
 2260 0bd8 9D4F      		sbci r25,-3
 2261 0bda FC01      		movw r30,r24
 2262 0bdc 2081      		ld r18,Z
 2263 0bde 3181      		ldd r19,Z+1
 2264 0be0 8985      		ldd r24,Y+9
 2265 0be2 9A85      		ldd r25,Y+10
 2266 0be4 880F      		lsl r24
 2267 0be6 991F      		rol r25
 2268 0be8 820F      		add r24,r18
 2269 0bea 931F      		adc r25,r19
 2270 0bec FC01      		movw r30,r24
 2271 0bee 2081      		ld r18,Z
 2272 0bf0 3181      		ldd r19,Z+1
 2273 0bf2 8D81      		ldd r24,Y+5
 2274 0bf4 9E81      		ldd r25,Y+6
 2275 0bf6 FC01      		movw r30,r24
 2276 0bf8 3587      		std Z+13,r19
 2277 0bfa 2487      		std Z+12,r18
 119:lp_solve_5.5\bfp/lp_BFP2.c ****   if(pcol == NULL)
 2278               		.loc 2 119 0
 2279 0bfc 8D85      		ldd r24,Y+13
 2280 0bfe 9E85      		ldd r25,Y+14
 2281 0c00 892B      		or r24,r25
 2282 0c02 01F4      		brne .L80
 120:lp_solve_5.5\bfp/lp_BFP2.c ****     pivValue = 0;
 2283               		.loc 2 120 0
 2284 0c04 1982      		std Y+1,__zero_reg__
 2285 0c06 1A82      		std Y+2,__zero_reg__
 2286 0c08 1B82      		std Y+3,__zero_reg__
 2287 0c0a 1C82      		std Y+4,__zero_reg__
 2288 0c0c 00C0      		rjmp .L81
 2289               	.L80:
 121:lp_solve_5.5\bfp/lp_BFP2.c ****   else
 122:lp_solve_5.5\bfp/lp_BFP2.c ****     pivValue = pcol[row_nr];
 2290               		.loc 2 122 0
 2291 0c0e 8985      		ldd r24,Y+9
 2292 0c10 9A85      		ldd r25,Y+10
 2293 0c12 880F      		lsl r24
 2294 0c14 991F      		rol r25
 2295 0c16 880F      		lsl r24
 2296 0c18 991F      		rol r25
 2297 0c1a 2D85      		ldd r18,Y+13
 2298 0c1c 3E85      		ldd r19,Y+14
 2299 0c1e 820F      		add r24,r18
 2300 0c20 931F      		adc r25,r19
 2301 0c22 FC01      		movw r30,r24
 2302 0c24 8081      		ld r24,Z
 2303 0c26 9181      		ldd r25,Z+1
 2304 0c28 A281      		ldd r26,Z+2
 2305 0c2a B381      		ldd r27,Z+3
 2306 0c2c 8983      		std Y+1,r24
 2307 0c2e 9A83      		std Y+2,r25
 2308 0c30 AB83      		std Y+3,r26
 2309 0c32 BC83      		std Y+4,r27
 2310               	.L81:
 123:lp_solve_5.5\bfp/lp_BFP2.c ****   lu->theta_enter = pivValue;
 2311               		.loc 2 123 0
 2312 0c34 2D81      		ldd r18,Y+5
 2313 0c36 3E81      		ldd r19,Y+6
 2314 0c38 8981      		ldd r24,Y+1
 2315 0c3a 9A81      		ldd r25,Y+2
 2316 0c3c AB81      		ldd r26,Y+3
 2317 0c3e BC81      		ldd r27,Y+4
 2318 0c40 F901      		movw r30,r18
 2319 0c42 848B      		std Z+20,r24
 2320 0c44 958B      		std Z+21,r25
 2321 0c46 A68B      		std Z+22,r26
 2322 0c48 B78B      		std Z+23,r27
 124:lp_solve_5.5\bfp/lp_BFP2.c **** 
 125:lp_solve_5.5\bfp/lp_BFP2.c ****   /* Save reference to the elimination vector */
 126:lp_solve_5.5\bfp/lp_BFP2.c ****   lu->pcol = pcol;
 2323               		.loc 2 126 0
 2324 0c4a 8D81      		ldd r24,Y+5
 2325 0c4c 9E81      		ldd r25,Y+6
 2326 0c4e 2D85      		ldd r18,Y+13
 2327 0c50 3E85      		ldd r19,Y+14
 2328 0c52 FC01      		movw r30,r24
 2329 0c54 338B      		std Z+19,r19
 2330 0c56 228B      		std Z+18,r18
 127:lp_solve_5.5\bfp/lp_BFP2.c **** 
 128:lp_solve_5.5\bfp/lp_BFP2.c ****   /* Set completion status; but hold if we are reinverting */
 129:lp_solve_5.5\bfp/lp_BFP2.c ****   if(lu->is_dirty != AUTOMATIC)
 2331               		.loc 2 129 0
 2332 0c58 8D81      		ldd r24,Y+5
 2333 0c5a 9E81      		ldd r25,Y+6
 2334 0c5c FC01      		movw r30,r24
 2335 0c5e 82A9      		ldd r24,Z+50
 2336 0c60 8230      		cpi r24,lo8(2)
 2337 0c62 01F0      		breq .L82
 130:lp_solve_5.5\bfp/lp_BFP2.c ****     lu->is_dirty = TRUE;
 2338               		.loc 2 130 0
 2339 0c64 8D81      		ldd r24,Y+5
 2340 0c66 9E81      		ldd r25,Y+6
 2341 0c68 21E0      		ldi r18,lo8(1)
 2342 0c6a FC01      		movw r30,r24
 2343 0c6c 22AB      		std Z+50,r18
 2344               	.L82:
 131:lp_solve_5.5\bfp/lp_BFP2.c **** 
 132:lp_solve_5.5\bfp/lp_BFP2.c ****   return( pivValue );
 2345               		.loc 2 132 0
 2346 0c6e 8981      		ldd r24,Y+1
 2347 0c70 9A81      		ldd r25,Y+2
 2348 0c72 AB81      		ldd r26,Y+3
 2349 0c74 BC81      		ldd r27,Y+4
 133:lp_solve_5.5\bfp/lp_BFP2.c **** }
 2350               		.loc 2 133 0
 2351 0c76 BC01      		movw r22,r24
 2352 0c78 CD01      		movw r24,r26
 2353               	/* epilogue start */
 2354 0c7a 2E96      		adiw r28,14
 2355 0c7c 0FB6      		in __tmp_reg__,__SREG__
 2356 0c7e F894      		cli
 2357 0c80 DEBF      		out __SP_H__,r29
 2358 0c82 0FBE      		out __SREG__,__tmp_reg__
 2359 0c84 CDBF      		out __SP_L__,r28
 2360 0c86 DF91      		pop r29
 2361 0c88 CF91      		pop r28
 2362 0c8a 0895      		ret
 2363               		.cfi_endproc
 2364               	.LFE28:
 2366               	.global	__nesf2
 2367               	.global	bfp_pivotRHS
 2369               	bfp_pivotRHS:
 2370               	.LFB29:
 134:lp_solve_5.5\bfp/lp_BFP2.c **** 
 135:lp_solve_5.5\bfp/lp_BFP2.c **** 
 136:lp_solve_5.5\bfp/lp_BFP2.c **** /* DON'T MODIFY */
 137:lp_solve_5.5\bfp/lp_BFP2.c **** REAL BFP_CALLMODEL bfp_pivotRHS(lprec *lp, LREAL theta, REAL *pcol)
 138:lp_solve_5.5\bfp/lp_BFP2.c **** /* This function is used to adjust the RHS in bound swap operations as
 139:lp_solve_5.5\bfp/lp_BFP2.c ****    well as handling the updating of the RHS for normal basis changes.
 140:lp_solve_5.5\bfp/lp_BFP2.c ****    Was rhsmincol(), ie. "rhs minus column" in versions of lp_solve before 4.0.1.8 - KE */
 141:lp_solve_5.5\bfp/lp_BFP2.c **** {
 2371               		.loc 2 141 0
 2372               		.cfi_startproc
 2373 0c8c 2F92      		push r2
 2374               	.LCFI97:
 2375               		.cfi_def_cfa_offset 3
 2376               		.cfi_offset 2, -2
 2377 0c8e 3F92      		push r3
 2378               	.LCFI98:
 2379               		.cfi_def_cfa_offset 4
 2380               		.cfi_offset 3, -3
 2381 0c90 4F92      		push r4
 2382               	.LCFI99:
 2383               		.cfi_def_cfa_offset 5
 2384               		.cfi_offset 4, -4
 2385 0c92 5F92      		push r5
 2386               	.LCFI100:
 2387               		.cfi_def_cfa_offset 6
 2388               		.cfi_offset 5, -5
 2389 0c94 6F92      		push r6
 2390               	.LCFI101:
 2391               		.cfi_def_cfa_offset 7
 2392               		.cfi_offset 6, -6
 2393 0c96 7F92      		push r7
 2394               	.LCFI102:
 2395               		.cfi_def_cfa_offset 8
 2396               		.cfi_offset 7, -7
 2397 0c98 8F92      		push r8
 2398               	.LCFI103:
 2399               		.cfi_def_cfa_offset 9
 2400               		.cfi_offset 8, -8
 2401 0c9a 9F92      		push r9
 2402               	.LCFI104:
 2403               		.cfi_def_cfa_offset 10
 2404               		.cfi_offset 9, -9
 2405 0c9c AF92      		push r10
 2406               	.LCFI105:
 2407               		.cfi_def_cfa_offset 11
 2408               		.cfi_offset 10, -10
 2409 0c9e BF92      		push r11
 2410               	.LCFI106:
 2411               		.cfi_def_cfa_offset 12
 2412               		.cfi_offset 11, -11
 2413 0ca0 CF92      		push r12
 2414               	.LCFI107:
 2415               		.cfi_def_cfa_offset 13
 2416               		.cfi_offset 12, -12
 2417 0ca2 DF92      		push r13
 2418               	.LCFI108:
 2419               		.cfi_def_cfa_offset 14
 2420               		.cfi_offset 13, -13
 2421 0ca4 EF92      		push r14
 2422               	.LCFI109:
 2423               		.cfi_def_cfa_offset 15
 2424               		.cfi_offset 14, -14
 2425 0ca6 FF92      		push r15
 2426               	.LCFI110:
 2427               		.cfi_def_cfa_offset 16
 2428               		.cfi_offset 15, -15
 2429 0ca8 0F93      		push r16
 2430               	.LCFI111:
 2431               		.cfi_def_cfa_offset 17
 2432               		.cfi_offset 16, -16
 2433 0caa 1F93      		push r17
 2434               	.LCFI112:
 2435               		.cfi_def_cfa_offset 18
 2436               		.cfi_offset 17, -17
 2437 0cac CF93      		push r28
 2438               	.LCFI113:
 2439               		.cfi_def_cfa_offset 19
 2440               		.cfi_offset 28, -18
 2441 0cae DF93      		push r29
 2442               	.LCFI114:
 2443               		.cfi_def_cfa_offset 20
 2444               		.cfi_offset 29, -19
 2445 0cb0 CDB7      		in r28,__SP_L__
 2446 0cb2 DEB7      		in r29,__SP_H__
 2447               	.LCFI115:
 2448               		.cfi_def_cfa_register 28
 2449 0cb4 2C97      		sbiw r28,12
 2450               	.LCFI116:
 2451               		.cfi_def_cfa_offset 32
 2452 0cb6 0FB6      		in __tmp_reg__,__SREG__
 2453 0cb8 F894      		cli
 2454 0cba DEBF      		out __SP_H__,r29
 2455 0cbc 0FBE      		out __SREG__,__tmp_reg__
 2456 0cbe CDBF      		out __SP_L__,r28
 2457               	/* prologue: function */
 2458               	/* frame size = 12 */
 2459               	/* stack size = 30 */
 2460               	.L__stack_usage = 30
 2461 0cc0 9C83      		std Y+4,r25
 2462 0cc2 8B83      		std Y+3,r24
 2463 0cc4 4D83      		std Y+5,r20
 2464 0cc6 5E83      		std Y+6,r21
 2465 0cc8 6F83      		std Y+7,r22
 2466 0cca 7887      		std Y+8,r23
 2467 0ccc 3A87      		std Y+10,r19
 2468 0cce 2987      		std Y+9,r18
 142:lp_solve_5.5\bfp/lp_BFP2.c ****   INVrec    *lu;
 143:lp_solve_5.5\bfp/lp_BFP2.c **** 
 144:lp_solve_5.5\bfp/lp_BFP2.c ****   lu = lp->invB;
 2469               		.loc 2 144 0
 2470 0cd0 8B81      		ldd r24,Y+3
 2471 0cd2 9C81      		ldd r25,Y+4
 2472 0cd4 8854      		subi r24,72
 2473 0cd6 9D4F      		sbci r25,-3
 2474 0cd8 FC01      		movw r30,r24
 2475 0cda 8081      		ld r24,Z
 2476 0cdc 9181      		ldd r25,Z+1
 2477 0cde 9A83      		std Y+2,r25
 2478 0ce0 8983      		std Y+1,r24
 145:lp_solve_5.5\bfp/lp_BFP2.c **** 
 146:lp_solve_5.5\bfp/lp_BFP2.c ****   if(pcol == NULL)
 2479               		.loc 2 146 0
 2480 0ce2 8985      		ldd r24,Y+9
 2481 0ce4 9A85      		ldd r25,Y+10
 2482 0ce6 892B      		or r24,r25
 2483 0ce8 01F4      		brne .L85
 147:lp_solve_5.5\bfp/lp_BFP2.c ****     pcol = lu->pcol;
 2484               		.loc 2 147 0
 2485 0cea 8981      		ldd r24,Y+1
 2486 0cec 9A81      		ldd r25,Y+2
 2487 0cee FC01      		movw r30,r24
 2488 0cf0 8289      		ldd r24,Z+18
 2489 0cf2 9389      		ldd r25,Z+19
 2490 0cf4 9A87      		std Y+10,r25
 2491 0cf6 8987      		std Y+9,r24
 2492               	.L85:
 148:lp_solve_5.5\bfp/lp_BFP2.c **** 
 149:lp_solve_5.5\bfp/lp_BFP2.c ****   if(theta != 0) {
 2493               		.loc 2 149 0
 2494 0cf8 20E0      		ldi r18,0
 2495 0cfa 30E0      		ldi r19,0
 2496 0cfc A901      		movw r20,r18
 2497 0cfe 6D81      		ldd r22,Y+5
 2498 0d00 7E81      		ldd r23,Y+6
 2499 0d02 8F81      		ldd r24,Y+7
 2500 0d04 9885      		ldd r25,Y+8
 2501 0d06 0E94 0000 		call __nesf2
 2502 0d0a 8823      		tst r24
 2503 0d0c 01F4      		brne .+2
 2504 0d0e 00C0      		rjmp .L86
 2505               	.LBB4:
 150:lp_solve_5.5\bfp/lp_BFP2.c ****     register int    i, n = lp->rows;
 2506               		.loc 2 150 0
 2507 0d10 8B81      		ldd r24,Y+3
 2508 0d12 9C81      		ldd r25,Y+4
 2509 0d14 8651      		subi r24,22
 2510 0d16 9E4F      		sbci r25,-2
 2511 0d18 FC01      		movw r30,r24
 2512 0d1a 0190      		ld __tmp_reg__,Z+
 2513 0d1c F081      		ld r31,Z
 2514 0d1e E02D      		mov r30,__tmp_reg__
 2515 0d20 FC87      		std Y+12,r31
 2516 0d22 EB87      		std Y+11,r30
 151:lp_solve_5.5\bfp/lp_BFP2.c ****     register LREAL  roundzero = lp->epsvalue;
 2517               		.loc 2 151 0
 2518 0d24 8B81      		ldd r24,Y+3
 2519 0d26 9C81      		ldd r25,Y+4
 2520 0d28 8A5E      		subi r24,-22
 2521 0d2a 9C4F      		sbci r25,-4
 2522 0d2c FC01      		movw r30,r24
 2523 0d2e 6080      		ld r6,Z
 2524 0d30 7180      		ldd r7,Z+1
 2525 0d32 8280      		ldd r8,Z+2
 2526 0d34 9380      		ldd r9,Z+3
 152:lp_solve_5.5\bfp/lp_BFP2.c ****     register LREAL  *rhs = lp->rhs, rhsmax = 0;
 2527               		.loc 2 152 0
 2528 0d36 8B81      		ldd r24,Y+3
 2529 0d38 9C81      		ldd r25,Y+4
 2530 0d3a 8855      		subi r24,88
 2531 0d3c 9D4F      		sbci r25,-3
 2532 0d3e FC01      		movw r30,r24
 2533 0d40 0081      		ld r16,Z
 2534 0d42 1181      		ldd r17,Z+1
 2535 0d44 C12C      		mov r12,__zero_reg__
 2536 0d46 D12C      		mov r13,__zero_reg__
 2537 0d48 7601      		movw r14,r12
 153:lp_solve_5.5\bfp/lp_BFP2.c **** 
 154:lp_solve_5.5\bfp/lp_BFP2.c ****     for(i = 0; i <= n; i++, rhs++, pcol++) {
 2538               		.loc 2 154 0
 2539 0d4a A12C      		mov r10,__zero_reg__
 2540 0d4c B12C      		mov r11,__zero_reg__
 2541 0d4e 00C0      		rjmp .L88
 2542               	.L93:
 155:lp_solve_5.5\bfp/lp_BFP2.c ****       (*rhs) -= theta * (*pcol);
 2543               		.loc 2 155 0
 2544 0d50 F801      		movw r30,r16
 2545 0d52 2080      		ld r2,Z
 2546 0d54 3180      		ldd r3,Z+1
 2547 0d56 4280      		ldd r4,Z+2
 2548 0d58 5380      		ldd r5,Z+3
 2549 0d5a 8985      		ldd r24,Y+9
 2550 0d5c 9A85      		ldd r25,Y+10
 2551 0d5e FC01      		movw r30,r24
 2552 0d60 8081      		ld r24,Z
 2553 0d62 9181      		ldd r25,Z+1
 2554 0d64 A281      		ldd r26,Z+2
 2555 0d66 B381      		ldd r27,Z+3
 2556 0d68 2D81      		ldd r18,Y+5
 2557 0d6a 3E81      		ldd r19,Y+6
 2558 0d6c 4F81      		ldd r20,Y+7
 2559 0d6e 5885      		ldd r21,Y+8
 2560 0d70 BC01      		movw r22,r24
 2561 0d72 CD01      		movw r24,r26
 2562 0d74 0E94 0000 		call __mulsf3
 2563 0d78 DC01      		movw r26,r24
 2564 0d7a CB01      		movw r24,r22
 2565 0d7c 9C01      		movw r18,r24
 2566 0d7e AD01      		movw r20,r26
 2567 0d80 C201      		movw r24,r4
 2568 0d82 B101      		movw r22,r2
 2569 0d84 0E94 0000 		call __subsf3
 2570 0d88 DC01      		movw r26,r24
 2571 0d8a CB01      		movw r24,r22
 2572 0d8c F801      		movw r30,r16
 2573 0d8e 8083      		st Z,r24
 2574 0d90 9183      		std Z+1,r25
 2575 0d92 A283      		std Z+2,r26
 2576 0d94 B383      		std Z+3,r27
 156:lp_solve_5.5\bfp/lp_BFP2.c ****       my_roundzero(*rhs, roundzero);
 2577               		.loc 2 156 0
 2578 0d96 F801      		movw r30,r16
 2579 0d98 8081      		ld r24,Z
 2580 0d9a 9181      		ldd r25,Z+1
 2581 0d9c A281      		ldd r26,Z+2
 2582 0d9e B381      		ldd r27,Z+3
 2583 0da0 BF77      		andi r27,0x7f
 2584 0da2 A401      		movw r20,r8
 2585 0da4 9301      		movw r18,r6
 2586 0da6 BC01      		movw r22,r24
 2587 0da8 CD01      		movw r24,r26
 2588 0daa 0E94 0000 		call __ltsf2
 2589 0dae 8823      		tst r24
 2590 0db0 04F4      		brge .L89
 2591               		.loc 2 156 0 is_stmt 0 discriminator 1
 2592 0db2 F801      		movw r30,r16
 2593 0db4 1082      		st Z,__zero_reg__
 2594 0db6 1182      		std Z+1,__zero_reg__
 2595 0db8 1282      		std Z+2,__zero_reg__
 2596 0dba 1382      		std Z+3,__zero_reg__
 2597               	.L89:
 157:lp_solve_5.5\bfp/lp_BFP2.c ****       SETMAX(rhsmax, fabs(*rhs));
 2598               		.loc 2 157 0 is_stmt 1
 2599 0dbc F801      		movw r30,r16
 2600 0dbe 8081      		ld r24,Z
 2601 0dc0 9181      		ldd r25,Z+1
 2602 0dc2 A281      		ldd r26,Z+2
 2603 0dc4 B381      		ldd r27,Z+3
 2604 0dc6 BF77      		andi r27,0x7f
 2605 0dc8 A701      		movw r20,r14
 2606 0dca 9601      		movw r18,r12
 2607 0dcc BC01      		movw r22,r24
 2608 0dce CD01      		movw r24,r26
 2609 0dd0 0E94 0000 		call __gtsf2
 2610 0dd4 1816      		cp __zero_reg__,r24
 2611 0dd6 04F4      		brge .L91
 2612               		.loc 2 157 0 is_stmt 0 discriminator 1
 2613 0dd8 F801      		movw r30,r16
 2614 0dda 8081      		ld r24,Z
 2615 0ddc 9181      		ldd r25,Z+1
 2616 0dde A281      		ldd r26,Z+2
 2617 0de0 B381      		ldd r27,Z+3
 2618 0de2 6C01      		movw r12,r24
 2619 0de4 7D01      		movw r14,r26
 2620 0de6 E894      		clt
 2621 0de8 F7F8      		bld r15,7
 2622               	.L91:
 154:lp_solve_5.5\bfp/lp_BFP2.c ****       (*rhs) -= theta * (*pcol);
 2623               		.loc 2 154 0 is_stmt 1 discriminator 2
 2624 0dea FFEF      		ldi r31,-1
 2625 0dec AF1A      		sub r10,r31
 2626 0dee BF0A      		sbc r11,r31
 2627 0df0 0C5F      		subi r16,-4
 2628 0df2 1F4F      		sbci r17,-1
 2629 0df4 8985      		ldd r24,Y+9
 2630 0df6 9A85      		ldd r25,Y+10
 2631 0df8 0496      		adiw r24,4
 2632 0dfa 9A87      		std Y+10,r25
 2633 0dfc 8987      		std Y+9,r24
 2634               	.L88:
 154:lp_solve_5.5\bfp/lp_BFP2.c ****       (*rhs) -= theta * (*pcol);
 2635               		.loc 2 154 0 is_stmt 0 discriminator 1
 2636 0dfe 2B85      		ldd r18,Y+11
 2637 0e00 3C85      		ldd r19,Y+12
 2638 0e02 2A15      		cp r18,r10
 2639 0e04 3B05      		cpc r19,r11
 2640 0e06 04F0      		brlt .+2
 2641 0e08 00C0      		rjmp .L93
 158:lp_solve_5.5\bfp/lp_BFP2.c ****     }
 159:lp_solve_5.5\bfp/lp_BFP2.c ****     lp->rhsmax = rhsmax;
 2642               		.loc 2 159 0 is_stmt 1
 2643 0e0a 8B81      		ldd r24,Y+3
 2644 0e0c 9C81      		ldd r25,Y+4
 2645 0e0e 8052      		subi r24,32
 2646 0e10 9D4F      		sbci r25,-3
 2647 0e12 FC01      		movw r30,r24
 2648 0e14 C082      		st Z,r12
 2649 0e16 D182      		std Z+1,r13
 2650 0e18 E282      		std Z+2,r14
 2651 0e1a F382      		std Z+3,r15
 2652               	.L86:
 2653               	.LBE4:
 160:lp_solve_5.5\bfp/lp_BFP2.c ****   }
 161:lp_solve_5.5\bfp/lp_BFP2.c **** 
 162:lp_solve_5.5\bfp/lp_BFP2.c ****   if(pcol == lu->pcol)
 2654               		.loc 2 162 0
 2655 0e1c 8981      		ldd r24,Y+1
 2656 0e1e 9A81      		ldd r25,Y+2
 2657 0e20 FC01      		movw r30,r24
 2658 0e22 2289      		ldd r18,Z+18
 2659 0e24 3389      		ldd r19,Z+19
 2660 0e26 8985      		ldd r24,Y+9
 2661 0e28 9A85      		ldd r25,Y+10
 2662 0e2a 2817      		cp r18,r24
 2663 0e2c 3907      		cpc r19,r25
 2664 0e2e 01F4      		brne .L94
 163:lp_solve_5.5\bfp/lp_BFP2.c ****     return( lu->theta_enter );
 2665               		.loc 2 163 0
 2666 0e30 8981      		ldd r24,Y+1
 2667 0e32 9A81      		ldd r25,Y+2
 2668 0e34 FC01      		movw r30,r24
 2669 0e36 8489      		ldd r24,Z+20
 2670 0e38 9589      		ldd r25,Z+21
 2671 0e3a A689      		ldd r26,Z+22
 2672 0e3c B789      		ldd r27,Z+23
 2673 0e3e 00C0      		rjmp .L95
 2674               	.L94:
 164:lp_solve_5.5\bfp/lp_BFP2.c ****   else
 165:lp_solve_5.5\bfp/lp_BFP2.c ****     return( 0.0 );
 2675               		.loc 2 165 0
 2676 0e40 80E0      		ldi r24,0
 2677 0e42 90E0      		ldi r25,0
 2678 0e44 DC01      		movw r26,r24
 2679               	.L95:
 166:lp_solve_5.5\bfp/lp_BFP2.c **** }
 2680               		.loc 2 166 0
 2681 0e46 BC01      		movw r22,r24
 2682 0e48 CD01      		movw r24,r26
 2683               	/* epilogue start */
 2684 0e4a 2C96      		adiw r28,12
 2685 0e4c 0FB6      		in __tmp_reg__,__SREG__
 2686 0e4e F894      		cli
 2687 0e50 DEBF      		out __SP_H__,r29
 2688 0e52 0FBE      		out __SREG__,__tmp_reg__
 2689 0e54 CDBF      		out __SP_L__,r28
 2690 0e56 DF91      		pop r29
 2691 0e58 CF91      		pop r28
 2692 0e5a 1F91      		pop r17
 2693 0e5c 0F91      		pop r16
 2694 0e5e FF90      		pop r15
 2695 0e60 EF90      		pop r14
 2696 0e62 DF90      		pop r13
 2697 0e64 CF90      		pop r12
 2698 0e66 BF90      		pop r11
 2699 0e68 AF90      		pop r10
 2700 0e6a 9F90      		pop r9
 2701 0e6c 8F90      		pop r8
 2702 0e6e 7F90      		pop r7
 2703 0e70 6F90      		pop r6
 2704 0e72 5F90      		pop r5
 2705 0e74 4F90      		pop r4
 2706 0e76 3F90      		pop r3
 2707 0e78 2F90      		pop r2
 2708 0e7a 0895      		ret
 2709               		.cfi_endproc
 2710               	.LFE29:
 2712               	.global	bfp_btran_double
 2714               	bfp_btran_double:
 2715               	.LFB30:
 167:lp_solve_5.5\bfp/lp_BFP2.c **** 
 168:lp_solve_5.5\bfp/lp_BFP2.c **** 
 169:lp_solve_5.5\bfp/lp_BFP2.c **** /* DON'T MODIFY */
 170:lp_solve_5.5\bfp/lp_BFP2.c **** void BFP_CALLMODEL bfp_btran_double(lprec *lp, REAL *prow, int *pnzidx, REAL *drow, int *dnzidx)
 171:lp_solve_5.5\bfp/lp_BFP2.c **** {
 2716               		.loc 2 171 0
 2717               		.cfi_startproc
 2718 0e7c 0F93      		push r16
 2719               	.LCFI117:
 2720               		.cfi_def_cfa_offset 3
 2721               		.cfi_offset 16, -2
 2722 0e7e 1F93      		push r17
 2723               	.LCFI118:
 2724               		.cfi_def_cfa_offset 4
 2725               		.cfi_offset 17, -3
 2726 0e80 CF93      		push r28
 2727               	.LCFI119:
 2728               		.cfi_def_cfa_offset 5
 2729               		.cfi_offset 28, -4
 2730 0e82 DF93      		push r29
 2731               	.LCFI120:
 2732               		.cfi_def_cfa_offset 6
 2733               		.cfi_offset 29, -5
 2734 0e84 CDB7      		in r28,__SP_L__
 2735 0e86 DEB7      		in r29,__SP_H__
 2736               	.LCFI121:
 2737               		.cfi_def_cfa_register 28
 2738 0e88 2A97      		sbiw r28,10
 2739               	.LCFI122:
 2740               		.cfi_def_cfa_offset 16
 2741 0e8a 0FB6      		in __tmp_reg__,__SREG__
 2742 0e8c F894      		cli
 2743 0e8e DEBF      		out __SP_H__,r29
 2744 0e90 0FBE      		out __SREG__,__tmp_reg__
 2745 0e92 CDBF      		out __SP_L__,r28
 2746               	/* prologue: function */
 2747               	/* frame size = 10 */
 2748               	/* stack size = 14 */
 2749               	.L__stack_usage = 14
 2750 0e94 9A83      		std Y+2,r25
 2751 0e96 8983      		std Y+1,r24
 2752 0e98 7C83      		std Y+4,r23
 2753 0e9a 6B83      		std Y+3,r22
 2754 0e9c 5E83      		std Y+6,r21
 2755 0e9e 4D83      		std Y+5,r20
 2756 0ea0 3887      		std Y+8,r19
 2757 0ea2 2F83      		std Y+7,r18
 2758 0ea4 1A87      		std Y+10,r17
 2759 0ea6 0987      		std Y+9,r16
 172:lp_solve_5.5\bfp/lp_BFP2.c ****   if(prow != NULL)
 2760               		.loc 2 172 0
 2761 0ea8 8B81      		ldd r24,Y+3
 2762 0eaa 9C81      		ldd r25,Y+4
 2763 0eac 892B      		or r24,r25
 2764 0eae 01F0      		breq .L100
 173:lp_solve_5.5\bfp/lp_BFP2.c ****     lp->bfp_btran_normal(lp, prow, pnzidx);
 2765               		.loc 2 173 0
 2766 0eb0 8981      		ldd r24,Y+1
 2767 0eb2 9A81      		ldd r25,Y+2
 2768 0eb4 8C54      		subi r24,76
 2769 0eb6 9C4F      		sbci r25,-4
 2770 0eb8 FC01      		movw r30,r24
 2771 0eba 2081      		ld r18,Z
 2772 0ebc 3181      		ldd r19,Z+1
 2773 0ebe 4D81      		ldd r20,Y+5
 2774 0ec0 5E81      		ldd r21,Y+6
 2775 0ec2 6B81      		ldd r22,Y+3
 2776 0ec4 7C81      		ldd r23,Y+4
 2777 0ec6 8981      		ldd r24,Y+1
 2778 0ec8 9A81      		ldd r25,Y+2
 2779 0eca F901      		movw r30,r18
 2780 0ecc 0995      		icall
 2781               	.L100:
 174:lp_solve_5.5\bfp/lp_BFP2.c ****   if(drow != NULL)
 2782               		.loc 2 174 0
 2783 0ece 8F81      		ldd r24,Y+7
 2784 0ed0 9885      		ldd r25,Y+8
 2785 0ed2 892B      		or r24,r25
 2786 0ed4 01F0      		breq .L102
 175:lp_solve_5.5\bfp/lp_BFP2.c ****     lp->bfp_btran_normal(lp, drow, dnzidx);
 2787               		.loc 2 175 0
 2788 0ed6 8981      		ldd r24,Y+1
 2789 0ed8 9A81      		ldd r25,Y+2
 2790 0eda 8C54      		subi r24,76
 2791 0edc 9C4F      		sbci r25,-4
 2792 0ede FC01      		movw r30,r24
 2793 0ee0 2081      		ld r18,Z
 2794 0ee2 3181      		ldd r19,Z+1
 2795 0ee4 4985      		ldd r20,Y+9
 2796 0ee6 5A85      		ldd r21,Y+10
 2797 0ee8 6F81      		ldd r22,Y+7
 2798 0eea 7885      		ldd r23,Y+8
 2799 0eec 8981      		ldd r24,Y+1
 2800 0eee 9A81      		ldd r25,Y+2
 2801 0ef0 F901      		movw r30,r18
 2802 0ef2 0995      		icall
 2803               	.L102:
 176:lp_solve_5.5\bfp/lp_BFP2.c **** }
 2804               		.loc 2 176 0
 2805 0ef4 0000      		nop
 2806               	/* epilogue start */
 2807 0ef6 2A96      		adiw r28,10
 2808 0ef8 0FB6      		in __tmp_reg__,__SREG__
 2809 0efa F894      		cli
 2810 0efc DEBF      		out __SP_H__,r29
 2811 0efe 0FBE      		out __SREG__,__tmp_reg__
 2812 0f00 CDBF      		out __SP_L__,r28
 2813 0f02 DF91      		pop r29
 2814 0f04 CF91      		pop r28
 2815 0f06 1F91      		pop r17
 2816 0f08 0F91      		pop r16
 2817 0f0a 0895      		ret
 2818               		.cfi_endproc
 2819               	.LFE30:
 2821               		.section	.rodata
 2822               	.LC1:
 2823 0044 4C55 534F 		.string	"LUSOL v2.2.1.0"
 2823      4C20 7632 
 2823      2E32 2E31 
 2823      2E30 00
 2824               		.text
 2825               	.global	bfp_name
 2827               	bfp_name:
 2828               	.LFB31:
 2829               		.file 3 "lp_solve_5.5/bfp/bfp_LUSOL/lp_LUSOL.c"
   1:lp_solve_5.5/bfp/bfp_LUSOL/lp_LUSOL.c **** 
   2:lp_solve_5.5/bfp/bfp_LUSOL/lp_LUSOL.c **** /*  Modularized simplex basis factorization module - w/interface for lp_solve v5.0+
   3:lp_solve_5.5/bfp/bfp_LUSOL/lp_LUSOL.c ****    ----------------------------------------------------------------------------------
   4:lp_solve_5.5/bfp/bfp_LUSOL/lp_LUSOL.c ****     Author:        Kjell Eikland
   5:lp_solve_5.5/bfp/bfp_LUSOL/lp_LUSOL.c ****     Contact:       kjell.eikland@broadpark.no
   6:lp_solve_5.5/bfp/bfp_LUSOL/lp_LUSOL.c ****     License terms: LGPL.
   7:lp_solve_5.5/bfp/bfp_LUSOL/lp_LUSOL.c **** 
   8:lp_solve_5.5/bfp/bfp_LUSOL/lp_LUSOL.c ****     Requires:      lusol.h, lp_lib.h, myblas.h
   9:lp_solve_5.5/bfp/bfp_LUSOL/lp_LUSOL.c **** 
  10:lp_solve_5.5/bfp/bfp_LUSOL/lp_LUSOL.c ****     Release notes:
  11:lp_solve_5.5/bfp/bfp_LUSOL/lp_LUSOL.c ****     v2.0.0  1 March 2004        First implementation of the LUSOL v2.0 C translation.
  12:lp_solve_5.5/bfp/bfp_LUSOL/lp_LUSOL.c ****     v2.0.1  1 April 2004        Added singularity recovery and fast/reuse update logic.
  13:lp_solve_5.5/bfp/bfp_LUSOL/lp_LUSOL.c ****     v2.0.2  23 May 2004         Moved mustrefact() function into the BFP structure.
  14:lp_solve_5.5/bfp/bfp_LUSOL/lp_LUSOL.c ****     v2.0.3  5 September 2004    Reworked pivot threshold tightening logic and default
  15:lp_solve_5.5/bfp/bfp_LUSOL/lp_LUSOL.c ****                                 values.
  16:lp_solve_5.5/bfp/bfp_LUSOL/lp_LUSOL.c ****     v2.1.0  18 June 2005        Made changes to allow for "pure" factorization;
  17:lp_solve_5.5/bfp/bfp_LUSOL/lp_LUSOL.c ****                                 i.e. without the objective function included.
  18:lp_solve_5.5/bfp/bfp_LUSOL/lp_LUSOL.c **** 
  19:lp_solve_5.5/bfp/bfp_LUSOL/lp_LUSOL.c ****    ---------------------------------------------------------------------------------- */
  20:lp_solve_5.5/bfp/bfp_LUSOL/lp_LUSOL.c **** 
  21:lp_solve_5.5/bfp/bfp_LUSOL/lp_LUSOL.c **** /* Generic include libraries */
  22:lp_solve_5.5/bfp/bfp_LUSOL/lp_LUSOL.c **** #include <stdlib.h>
  23:lp_solve_5.5/bfp/bfp_LUSOL/lp_LUSOL.c **** #include <string.h>
  24:lp_solve_5.5/bfp/bfp_LUSOL/lp_LUSOL.c **** #include "lp_lib.h"
  25:lp_solve_5.5/bfp/bfp_LUSOL/lp_LUSOL.c **** 
  26:lp_solve_5.5/bfp/bfp_LUSOL/lp_LUSOL.c **** /* Include libraries for this factorization system */
  27:lp_solve_5.5/bfp/bfp_LUSOL/lp_LUSOL.c **** #include "myblas.h"
  28:lp_solve_5.5/bfp/bfp_LUSOL/lp_LUSOL.c **** #include "commonlib.h"
  29:lp_solve_5.5/bfp/bfp_LUSOL/lp_LUSOL.c **** #include "lp_LUSOL.h"
  30:lp_solve_5.5/bfp/bfp_LUSOL/lp_LUSOL.c **** #include "lusol.h"
  31:lp_solve_5.5/bfp/bfp_LUSOL/lp_LUSOL.c **** 
  32:lp_solve_5.5/bfp/bfp_LUSOL/lp_LUSOL.c **** #ifdef FORTIFY
  33:lp_solve_5.5/bfp/bfp_LUSOL/lp_LUSOL.c **** # include "lp_fortify.h"
  34:lp_solve_5.5/bfp/bfp_LUSOL/lp_LUSOL.c **** #endif
  35:lp_solve_5.5/bfp/bfp_LUSOL/lp_LUSOL.c **** 
  36:lp_solve_5.5/bfp/bfp_LUSOL/lp_LUSOL.c **** /* Include routines common to factorization engine implementations */
  37:lp_solve_5.5/bfp/bfp_LUSOL/lp_LUSOL.c **** #include "lp_BFP1.c"
  38:lp_solve_5.5/bfp/bfp_LUSOL/lp_LUSOL.c **** #include "lp_BFP2.c"
  39:lp_solve_5.5/bfp/bfp_LUSOL/lp_LUSOL.c **** 
  40:lp_solve_5.5/bfp/bfp_LUSOL/lp_LUSOL.c **** 
  41:lp_solve_5.5/bfp/bfp_LUSOL/lp_LUSOL.c **** /* MUST MODIFY */
  42:lp_solve_5.5/bfp/bfp_LUSOL/lp_LUSOL.c **** char * BFP_CALLMODEL bfp_name(void)
  43:lp_solve_5.5/bfp/bfp_LUSOL/lp_LUSOL.c **** {
 2830               		.loc 3 43 0
 2831               		.cfi_startproc
 2832 0f0c CF93      		push r28
 2833               	.LCFI123:
 2834               		.cfi_def_cfa_offset 3
 2835               		.cfi_offset 28, -2
 2836 0f0e DF93      		push r29
 2837               	.LCFI124:
 2838               		.cfi_def_cfa_offset 4
 2839               		.cfi_offset 29, -3
 2840 0f10 CDB7      		in r28,__SP_L__
 2841 0f12 DEB7      		in r29,__SP_H__
 2842               	.LCFI125:
 2843               		.cfi_def_cfa_register 28
 2844               	/* prologue: function */
 2845               	/* frame size = 0 */
 2846               	/* stack size = 2 */
 2847               	.L__stack_usage = 2
  44:lp_solve_5.5/bfp/bfp_LUSOL/lp_LUSOL.c ****   return( "LUSOL v2.2.1.0" );
 2848               		.loc 3 44 0
 2849 0f14 80E0      		ldi r24,lo8(.LC1)
 2850 0f16 90E0      		ldi r25,hi8(.LC1)
 2851               	/* epilogue start */
  45:lp_solve_5.5/bfp/bfp_LUSOL/lp_LUSOL.c **** }
 2852               		.loc 3 45 0
 2853 0f18 DF91      		pop r29
 2854 0f1a CF91      		pop r28
 2855 0f1c 0895      		ret
 2856               		.cfi_endproc
 2857               	.LFE31:
 2859               	.global	__addsf3
 2860               	.global	__fixsfsi
 2861               	.global	bfp_resize
 2863               	bfp_resize:
 2864               	.LFB32:
  46:lp_solve_5.5/bfp/bfp_LUSOL/lp_LUSOL.c **** 
  47:lp_solve_5.5/bfp/bfp_LUSOL/lp_LUSOL.c **** 
  48:lp_solve_5.5/bfp/bfp_LUSOL/lp_LUSOL.c **** /* MUST MODIFY */
  49:lp_solve_5.5/bfp/bfp_LUSOL/lp_LUSOL.c **** MYBOOL BFP_CALLMODEL bfp_resize(lprec *lp, int newsize)
  50:lp_solve_5.5/bfp/bfp_LUSOL/lp_LUSOL.c **** {
 2865               		.loc 3 50 0
 2866               		.cfi_startproc
 2867 0f1e CF92      		push r12
 2868               	.LCFI126:
 2869               		.cfi_def_cfa_offset 3
 2870               		.cfi_offset 12, -2
 2871 0f20 DF92      		push r13
 2872               	.LCFI127:
 2873               		.cfi_def_cfa_offset 4
 2874               		.cfi_offset 13, -3
 2875 0f22 EF92      		push r14
 2876               	.LCFI128:
 2877               		.cfi_def_cfa_offset 5
 2878               		.cfi_offset 14, -4
 2879 0f24 FF92      		push r15
 2880               	.LCFI129:
 2881               		.cfi_def_cfa_offset 6
 2882               		.cfi_offset 15, -5
 2883 0f26 CF93      		push r28
 2884               	.LCFI130:
 2885               		.cfi_def_cfa_offset 7
 2886               		.cfi_offset 28, -6
 2887 0f28 DF93      		push r29
 2888               	.LCFI131:
 2889               		.cfi_def_cfa_offset 8
 2890               		.cfi_offset 29, -7
 2891 0f2a CDB7      		in r28,__SP_L__
 2892 0f2c DEB7      		in r29,__SP_H__
 2893               	.LCFI132:
 2894               		.cfi_def_cfa_register 28
 2895 0f2e 2C97      		sbiw r28,12
 2896               	.LCFI133:
 2897               		.cfi_def_cfa_offset 20
 2898 0f30 0FB6      		in __tmp_reg__,__SREG__
 2899 0f32 F894      		cli
 2900 0f34 DEBF      		out __SP_H__,r29
 2901 0f36 0FBE      		out __SREG__,__tmp_reg__
 2902 0f38 CDBF      		out __SP_L__,r28
 2903               	/* prologue: function */
 2904               	/* frame size = 12 */
 2905               	/* stack size = 18 */
 2906               	.L__stack_usage = 18
 2907 0f3a 9A87      		std Y+10,r25
 2908 0f3c 8987      		std Y+9,r24
 2909 0f3e 7C87      		std Y+12,r23
 2910 0f40 6B87      		std Y+11,r22
  51:lp_solve_5.5/bfp/bfp_LUSOL/lp_LUSOL.c ****   INVrec *lu;
  52:lp_solve_5.5/bfp/bfp_LUSOL/lp_LUSOL.c **** 
  53:lp_solve_5.5/bfp/bfp_LUSOL/lp_LUSOL.c ****   lu = lp->invB;
 2911               		.loc 3 53 0
 2912 0f42 8985      		ldd r24,Y+9
 2913 0f44 9A85      		ldd r25,Y+10
 2914 0f46 8854      		subi r24,72
 2915 0f48 9D4F      		sbci r25,-3
 2916 0f4a FC01      		movw r30,r24
 2917 0f4c 8081      		ld r24,Z
 2918 0f4e 9181      		ldd r25,Z+1
 2919 0f50 9E83      		std Y+6,r25
 2920 0f52 8D83      		std Y+5,r24
  54:lp_solve_5.5/bfp/bfp_LUSOL/lp_LUSOL.c **** 
  55:lp_solve_5.5/bfp/bfp_LUSOL/lp_LUSOL.c ****   /* Increment dimensionality since we put the objective row at the top */
  56:lp_solve_5.5/bfp/bfp_LUSOL/lp_LUSOL.c ****   newsize = newsize + bfp_rowoffset(lp);
 2921               		.loc 3 56 0
 2922 0f54 8985      		ldd r24,Y+9
 2923 0f56 9A85      		ldd r25,Y+10
 2924 0f58 0E94 0000 		call bfp_rowoffset
 2925 0f5c 9C01      		movw r18,r24
 2926 0f5e 8B85      		ldd r24,Y+11
 2927 0f60 9C85      		ldd r25,Y+12
 2928 0f62 820F      		add r24,r18
 2929 0f64 931F      		adc r25,r19
 2930 0f66 9C87      		std Y+12,r25
 2931 0f68 8B87      		std Y+11,r24
  57:lp_solve_5.5/bfp/bfp_LUSOL/lp_LUSOL.c ****   lu->dimalloc = newsize;
 2932               		.loc 3 57 0
 2933 0f6a 8D81      		ldd r24,Y+5
 2934 0f6c 9E81      		ldd r25,Y+6
 2935 0f6e 2B85      		ldd r18,Y+11
 2936 0f70 3C85      		ldd r19,Y+12
 2937 0f72 FC01      		movw r30,r24
 2938 0f74 3583      		std Z+5,r19
 2939 0f76 2483      		std Z+4,r18
  58:lp_solve_5.5/bfp/bfp_LUSOL/lp_LUSOL.c **** 
  59:lp_solve_5.5/bfp/bfp_LUSOL/lp_LUSOL.c ****   /* Allocate index tracker arrays, LU matrices and various work vectors */
  60:lp_solve_5.5/bfp/bfp_LUSOL/lp_LUSOL.c ****   if(!allocREAL(lp, &(lu->value), newsize+MATINDEXBASE, AUTOMATIC))
 2940               		.loc 3 60 0
 2941 0f78 8B85      		ldd r24,Y+11
 2942 0f7a 9C85      		ldd r25,Y+12
 2943 0f7c AC01      		movw r20,r24
 2944 0f7e 4F5F      		subi r20,-1
 2945 0f80 5F4F      		sbci r21,-1
 2946 0f82 8D81      		ldd r24,Y+5
 2947 0f84 9E81      		ldd r25,Y+6
 2948 0f86 BC01      		movw r22,r24
 2949 0f88 605F      		subi r22,-16
 2950 0f8a 7F4F      		sbci r23,-1
 2951 0f8c 8985      		ldd r24,Y+9
 2952 0f8e 9A85      		ldd r25,Y+10
 2953 0f90 22E0      		ldi r18,lo8(2)
 2954 0f92 0E94 0000 		call allocREAL
 2955 0f96 8823      		tst r24
 2956 0f98 01F4      		brne .L106
  61:lp_solve_5.5/bfp/bfp_LUSOL/lp_LUSOL.c ****     return( FALSE );
 2957               		.loc 3 61 0
 2958 0f9a 80E0      		ldi r24,0
 2959 0f9c 00C0      		rjmp .L107
 2960               	.L106:
  62:lp_solve_5.5/bfp/bfp_LUSOL/lp_LUSOL.c **** 
  63:lp_solve_5.5/bfp/bfp_LUSOL/lp_LUSOL.c ****   /* Data specific to the factorization engine */
  64:lp_solve_5.5/bfp/bfp_LUSOL/lp_LUSOL.c ****   if(lu->LUSOL != NULL) {
 2961               		.loc 3 64 0
 2962 0f9e 8D81      		ldd r24,Y+5
 2963 0fa0 9E81      		ldd r25,Y+6
 2964 0fa2 FC01      		movw r30,r24
 2965 0fa4 8085      		ldd r24,Z+8
 2966 0fa6 9185      		ldd r25,Z+9
 2967 0fa8 892B      		or r24,r25
 2968 0faa 01F0      		breq .L108
  65:lp_solve_5.5/bfp/bfp_LUSOL/lp_LUSOL.c ****     if(newsize > 0 || 1)
  66:lp_solve_5.5/bfp/bfp_LUSOL/lp_LUSOL.c ****       LUSOL_sizeto(lu->LUSOL, newsize, newsize, 0);
 2969               		.loc 3 66 0
 2970 0fac 8D81      		ldd r24,Y+5
 2971 0fae 9E81      		ldd r25,Y+6
 2972 0fb0 FC01      		movw r30,r24
 2973 0fb2 8085      		ldd r24,Z+8
 2974 0fb4 9185      		ldd r25,Z+9
 2975 0fb6 4B85      		ldd r20,Y+11
 2976 0fb8 5C85      		ldd r21,Y+12
 2977 0fba 6B85      		ldd r22,Y+11
 2978 0fbc 7C85      		ldd r23,Y+12
 2979 0fbe 20E0      		ldi r18,0
 2980 0fc0 30E0      		ldi r19,0
 2981 0fc2 0E94 0000 		call LUSOL_sizeto
 2982 0fc6 00C0      		rjmp .L109
 2983               	.L108:
 2984               	.LBB5:
  67:lp_solve_5.5/bfp/bfp_LUSOL/lp_LUSOL.c ****     else {
  68:lp_solve_5.5/bfp/bfp_LUSOL/lp_LUSOL.c ****       LUSOL_free(lu->LUSOL);
  69:lp_solve_5.5/bfp/bfp_LUSOL/lp_LUSOL.c ****       lu->LUSOL = NULL;
  70:lp_solve_5.5/bfp/bfp_LUSOL/lp_LUSOL.c ****     }
  71:lp_solve_5.5/bfp/bfp_LUSOL/lp_LUSOL.c ****   }
  72:lp_solve_5.5/bfp/bfp_LUSOL/lp_LUSOL.c ****   else if(newsize > 0 || 1) {
  73:lp_solve_5.5/bfp/bfp_LUSOL/lp_LUSOL.c ****     int  asize;
  74:lp_solve_5.5/bfp/bfp_LUSOL/lp_LUSOL.c ****     REAL bsize;
  75:lp_solve_5.5/bfp/bfp_LUSOL/lp_LUSOL.c **** 
  76:lp_solve_5.5/bfp/bfp_LUSOL/lp_LUSOL.c ****     lu->LUSOL = LUSOL_create(NULL, 0, LUSOL_PIVMOD_TPP, bfp_pivotmax(lp)*0);
 2985               		.loc 3 76 0
 2986 0fc8 8985      		ldd r24,Y+9
 2987 0fca 9A85      		ldd r25,Y+10
 2988 0fcc 0E94 0000 		call bfp_pivotmax
 2989 0fd0 20E0      		ldi r18,0
 2990 0fd2 30E0      		ldi r19,0
 2991 0fd4 40E0      		ldi r20,0
 2992 0fd6 50E0      		ldi r21,0
 2993 0fd8 60E0      		ldi r22,0
 2994 0fda 70E0      		ldi r23,0
 2995 0fdc 80E0      		ldi r24,0
 2996 0fde 90E0      		ldi r25,0
 2997 0fe0 0E94 0000 		call LUSOL_create
 2998 0fe4 9C01      		movw r18,r24
 2999 0fe6 8D81      		ldd r24,Y+5
 3000 0fe8 9E81      		ldd r25,Y+6
 3001 0fea FC01      		movw r30,r24
 3002 0fec 3187      		std Z+9,r19
 3003 0fee 2087      		std Z+8,r18
  77:lp_solve_5.5/bfp/bfp_LUSOL/lp_LUSOL.c **** 
  78:lp_solve_5.5/bfp/bfp_LUSOL/lp_LUSOL.c **** #if 1
  79:lp_solve_5.5/bfp/bfp_LUSOL/lp_LUSOL.c ****     lu->LUSOL->luparm[LUSOL_IP_ACCELERATION]  = LUSOL_AUTOORDER;
 3004               		.loc 3 79 0
 3005 0ff0 8D81      		ldd r24,Y+5
 3006 0ff2 9E81      		ldd r25,Y+6
 3007 0ff4 FC01      		movw r30,r24
 3008 0ff6 8085      		ldd r24,Z+8
 3009 0ff8 9185      		ldd r25,Z+9
 3010 0ffa 22E0      		ldi r18,lo8(2)
 3011 0ffc 30E0      		ldi r19,0
 3012 0ffe FC01      		movw r30,r24
 3013 1000 378B      		std Z+23,r19
 3014 1002 268B      		std Z+22,r18
  80:lp_solve_5.5/bfp/bfp_LUSOL/lp_LUSOL.c ****     lu->LUSOL->parmlu[LUSOL_RP_SMARTRATIO]    = 0.50;
 3015               		.loc 3 80 0
 3016 1004 8D81      		ldd r24,Y+5
 3017 1006 9E81      		ldd r25,Y+6
 3018 1008 FC01      		movw r30,r24
 3019 100a 8085      		ldd r24,Z+8
 3020 100c 9185      		ldd r25,Z+9
 3021 100e 9C01      		movw r18,r24
 3022 1010 265B      		subi r18,-74
 3023 1012 3F4F      		sbci r19,-1
 3024 1014 80E0      		ldi r24,0
 3025 1016 90E0      		ldi r25,0
 3026 1018 A0E0      		ldi r26,0
 3027 101a BFE3      		ldi r27,lo8(63)
 3028 101c F901      		movw r30,r18
 3029 101e 8083      		st Z,r24
 3030 1020 9183      		std Z+1,r25
 3031 1022 A283      		std Z+2,r26
 3032 1024 B383      		std Z+3,r27
  81:lp_solve_5.5/bfp/bfp_LUSOL/lp_LUSOL.c **** #endif
  82:lp_solve_5.5/bfp/bfp_LUSOL/lp_LUSOL.c **** #if 0
  83:lp_solve_5.5/bfp/bfp_LUSOL/lp_LUSOL.c ****     lu->timed_refact = DEF_TIMEDREFACT;
  84:lp_solve_5.5/bfp/bfp_LUSOL/lp_LUSOL.c **** #else
  85:lp_solve_5.5/bfp/bfp_LUSOL/lp_LUSOL.c ****     lu->timed_refact = FALSE;
 3033               		.loc 3 85 0
 3034 1026 8D81      		ldd r24,Y+5
 3035 1028 9E81      		ldd r25,Y+6
 3036 102a FC01      		movw r30,r24
 3037 102c 14AA      		std Z+52,__zero_reg__
  86:lp_solve_5.5/bfp/bfp_LUSOL/lp_LUSOL.c **** #endif
  87:lp_solve_5.5/bfp/bfp_LUSOL/lp_LUSOL.c **** 
  88:lp_solve_5.5/bfp/bfp_LUSOL/lp_LUSOL.c ****     /* The following adjustments seem necessary to make the really tough NETLIB
  89:lp_solve_5.5/bfp/bfp_LUSOL/lp_LUSOL.c ****        models perform reliably and still performant (e.g. cycle.mps) */
  90:lp_solve_5.5/bfp/bfp_LUSOL/lp_LUSOL.c **** #if 0
  91:lp_solve_5.5/bfp/bfp_LUSOL/lp_LUSOL.c ****     lu->LUSOL->parmlu[LUSOL_RP_SMALLDIAG_U]   =
  92:lp_solve_5.5/bfp/bfp_LUSOL/lp_LUSOL.c ****     lu->LUSOL->parmlu[LUSOL_RP_EPSDIAG_U]     = lp->epsprimal;
  93:lp_solve_5.5/bfp/bfp_LUSOL/lp_LUSOL.c **** #endif
  94:lp_solve_5.5/bfp/bfp_LUSOL/lp_LUSOL.c **** #if 0
  95:lp_solve_5.5/bfp/bfp_LUSOL/lp_LUSOL.c ****     lu->LUSOL->parmlu[LUSOL_RP_ZEROTOLERANCE] = lp->epsvalue;
  96:lp_solve_5.5/bfp/bfp_LUSOL/lp_LUSOL.c **** #endif
  97:lp_solve_5.5/bfp/bfp_LUSOL/lp_LUSOL.c **** 
  98:lp_solve_5.5/bfp/bfp_LUSOL/lp_LUSOL.c **** #if 1
  99:lp_solve_5.5/bfp/bfp_LUSOL/lp_LUSOL.c ****     LUSOL_setpivotmodel(lu->LUSOL, LUSOL_PIVMOD_NOCHANGE, LUSOL_PIVTOL_SLIM);
 3038               		.loc 3 99 0
 3039 102e 8D81      		ldd r24,Y+5
 3040 1030 9E81      		ldd r25,Y+6
 3041 1032 FC01      		movw r30,r24
 3042 1034 8085      		ldd r24,Z+8
 3043 1036 9185      		ldd r25,Z+9
 3044 1038 44E0      		ldi r20,lo8(4)
 3045 103a 50E0      		ldi r21,0
 3046 103c 6EEF      		ldi r22,lo8(-2)
 3047 103e 7FEF      		ldi r23,lo8(-1)
 3048 1040 0E94 0000 		call LUSOL_setpivotmodel
 100:lp_solve_5.5/bfp/bfp_LUSOL/lp_LUSOL.c **** #else
 101:lp_solve_5.5/bfp/bfp_LUSOL/lp_LUSOL.c ****     LUSOL_setpivotmodel(lu->LUSOL, LUSOL_PIVMOD_NOCHANGE, LUSOL_PIVTOL_TIGHT);
 102:lp_solve_5.5/bfp/bfp_LUSOL/lp_LUSOL.c **** #endif
 103:lp_solve_5.5/bfp/bfp_LUSOL/lp_LUSOL.c **** 
 104:lp_solve_5.5/bfp/bfp_LUSOL/lp_LUSOL.c **** #ifdef LUSOL_UseBLAS
 105:lp_solve_5.5/bfp/bfp_LUSOL/lp_LUSOL.c **** /*    if(fileSearchPath("PATH", "myBLAS.DLL", NULL) && load_BLAS("myBLAS")) */
 106:lp_solve_5.5/bfp/bfp_LUSOL/lp_LUSOL.c ****     if(is_nativeBLAS() && load_BLAS(libnameBLAS))
 107:lp_solve_5.5/bfp/bfp_LUSOL/lp_LUSOL.c ****       lp->report(lp, NORMAL, "Optimized BLAS was successfully loaded for bfp_LUSOL.\n");
 108:lp_solve_5.5/bfp/bfp_LUSOL/lp_LUSOL.c **** #endif
 109:lp_solve_5.5/bfp/bfp_LUSOL/lp_LUSOL.c **** 
 110:lp_solve_5.5/bfp/bfp_LUSOL/lp_LUSOL.c ****     /* Try to minimize memory allocation if we have a large number of unit columns */
 111:lp_solve_5.5/bfp/bfp_LUSOL/lp_LUSOL.c ****     bsize = (REAL) lp->get_nonzeros(lp);
 3049               		.loc 3 111 0
 3050 1044 8985      		ldd r24,Y+9
 3051 1046 9A85      		ldd r25,Y+10
 3052 1048 8C59      		subi r24,-100
 3053 104a 9F4F      		sbci r25,-1
 3054 104c FC01      		movw r30,r24
 3055 104e 2081      		ld r18,Z
 3056 1050 3181      		ldd r19,Z+1
 3057 1052 8985      		ldd r24,Y+9
 3058 1054 9A85      		ldd r25,Y+10
 3059 1056 F901      		movw r30,r18
 3060 1058 0995      		icall
 3061 105a 092E      		mov __tmp_reg__,r25
 3062 105c 000C      		lsl r0
 3063 105e AA0B      		sbc r26,r26
 3064 1060 BB0B      		sbc r27,r27
 3065 1062 BC01      		movw r22,r24
 3066 1064 CD01      		movw r24,r26
 3067 1066 0E94 0000 		call __floatsisf
 3068 106a DC01      		movw r26,r24
 3069 106c CB01      		movw r24,r22
 3070 106e 8983      		std Y+1,r24
 3071 1070 9A83      		std Y+2,r25
 3072 1072 AB83      		std Y+3,r26
 3073 1074 BC83      		std Y+4,r27
 112:lp_solve_5.5/bfp/bfp_LUSOL/lp_LUSOL.c ****     if(newsize > lp->columns)
 3074               		.loc 3 112 0
 3075 1076 8985      		ldd r24,Y+9
 3076 1078 9A85      		ldd r25,Y+10
 3077 107a 8451      		subi r24,20
 3078 107c 9E4F      		sbci r25,-2
 3079 107e FC01      		movw r30,r24
 3080 1080 2081      		ld r18,Z
 3081 1082 3181      		ldd r19,Z+1
 3082 1084 8B85      		ldd r24,Y+11
 3083 1086 9C85      		ldd r25,Y+12
 3084 1088 2817      		cp r18,r24
 3085 108a 3907      		cpc r19,r25
 3086 108c 04F4      		brge .L110
 113:lp_solve_5.5/bfp/bfp_LUSOL/lp_LUSOL.c ****       bsize += newsize;
 3087               		.loc 3 113 0
 3088 108e 8B85      		ldd r24,Y+11
 3089 1090 9C85      		ldd r25,Y+12
 3090 1092 092E      		mov __tmp_reg__,r25
 3091 1094 000C      		lsl r0
 3092 1096 AA0B      		sbc r26,r26
 3093 1098 BB0B      		sbc r27,r27
 3094 109a BC01      		movw r22,r24
 3095 109c CD01      		movw r24,r26
 3096 109e 0E94 0000 		call __floatsisf
 3097 10a2 DC01      		movw r26,r24
 3098 10a4 CB01      		movw r24,r22
 3099 10a6 9C01      		movw r18,r24
 3100 10a8 AD01      		movw r20,r26
 3101 10aa 6981      		ldd r22,Y+1
 3102 10ac 7A81      		ldd r23,Y+2
 3103 10ae 8B81      		ldd r24,Y+3
 3104 10b0 9C81      		ldd r25,Y+4
 3105 10b2 0E94 0000 		call __addsf3
 3106 10b6 DC01      		movw r26,r24
 3107 10b8 CB01      		movw r24,r22
 3108 10ba 8983      		std Y+1,r24
 3109 10bc 9A83      		std Y+2,r25
 3110 10be AB83      		std Y+3,r26
 3111 10c0 BC83      		std Y+4,r27
 3112 10c2 00C0      		rjmp .L111
 3113               	.L110:
 114:lp_solve_5.5/bfp/bfp_LUSOL/lp_LUSOL.c ****     else
 115:lp_solve_5.5/bfp/bfp_LUSOL/lp_LUSOL.c ****       bsize = bsize/lp->columns*newsize;
 3114               		.loc 3 115 0
 3115 10c4 8985      		ldd r24,Y+9
 3116 10c6 9A85      		ldd r25,Y+10
 3117 10c8 8451      		subi r24,20
 3118 10ca 9E4F      		sbci r25,-2
 3119 10cc FC01      		movw r30,r24
 3120 10ce 8081      		ld r24,Z
 3121 10d0 9181      		ldd r25,Z+1
 3122 10d2 092E      		mov __tmp_reg__,r25
 3123 10d4 000C      		lsl r0
 3124 10d6 AA0B      		sbc r26,r26
 3125 10d8 BB0B      		sbc r27,r27
 3126 10da BC01      		movw r22,r24
 3127 10dc CD01      		movw r24,r26
 3128 10de 0E94 0000 		call __floatsisf
 3129 10e2 DC01      		movw r26,r24
 3130 10e4 CB01      		movw r24,r22
 3131 10e6 9C01      		movw r18,r24
 3132 10e8 AD01      		movw r20,r26
 3133 10ea 6981      		ldd r22,Y+1
 3134 10ec 7A81      		ldd r23,Y+2
 3135 10ee 8B81      		ldd r24,Y+3
 3136 10f0 9C81      		ldd r25,Y+4
 3137 10f2 0E94 0000 		call __divsf3
 3138 10f6 DC01      		movw r26,r24
 3139 10f8 CB01      		movw r24,r22
 3140 10fa 6C01      		movw r12,r24
 3141 10fc 7D01      		movw r14,r26
 3142 10fe 8B85      		ldd r24,Y+11
 3143 1100 9C85      		ldd r25,Y+12
 3144 1102 092E      		mov __tmp_reg__,r25
 3145 1104 000C      		lsl r0
 3146 1106 AA0B      		sbc r26,r26
 3147 1108 BB0B      		sbc r27,r27
 3148 110a BC01      		movw r22,r24
 3149 110c CD01      		movw r24,r26
 3150 110e 0E94 0000 		call __floatsisf
 3151 1112 DC01      		movw r26,r24
 3152 1114 CB01      		movw r24,r22
 3153 1116 9C01      		movw r18,r24
 3154 1118 AD01      		movw r20,r26
 3155 111a C701      		movw r24,r14
 3156 111c B601      		movw r22,r12
 3157 111e 0E94 0000 		call __mulsf3
 3158 1122 DC01      		movw r26,r24
 3159 1124 CB01      		movw r24,r22
 3160 1126 8983      		std Y+1,r24
 3161 1128 9A83      		std Y+2,r25
 3162 112a AB83      		std Y+3,r26
 3163 112c BC83      		std Y+4,r27
 3164               	.L111:
 116:lp_solve_5.5/bfp/bfp_LUSOL/lp_LUSOL.c ****     /* Add a "reasonable" delta to allow for B and associated factorizations
 117:lp_solve_5.5/bfp/bfp_LUSOL/lp_LUSOL.c ****        that are denser than average; this makes reallocations less frequent.
 118:lp_solve_5.5/bfp/bfp_LUSOL/lp_LUSOL.c ****        Values between 1.2 and 1.5 appear to be reasonable. */
 119:lp_solve_5.5/bfp/bfp_LUSOL/lp_LUSOL.c ****     asize = (int) (bsize*MAX_DELTAFILLIN*1.3333);
 3165               		.loc 3 119 0
 3166 112e 8981      		ldd r24,Y+1
 3167 1130 9A81      		ldd r25,Y+2
 3168 1132 AB81      		ldd r26,Y+3
 3169 1134 BC81      		ldd r27,Y+4
 3170 1136 9C01      		movw r18,r24
 3171 1138 AD01      		movw r20,r26
 3172 113a BC01      		movw r22,r24
 3173 113c CD01      		movw r24,r26
 3174 113e 0E94 0000 		call __addsf3
 3175 1142 DC01      		movw r26,r24
 3176 1144 CB01      		movw r24,r22
 3177 1146 23E9      		ldi r18,lo8(-109)
 3178 1148 39EA      		ldi r19,lo8(-87)
 3179 114a 4AEA      		ldi r20,lo8(-86)
 3180 114c 5FE3      		ldi r21,lo8(63)
 3181 114e BC01      		movw r22,r24
 3182 1150 CD01      		movw r24,r26
 3183 1152 0E94 0000 		call __mulsf3
 3184 1156 DC01      		movw r26,r24
 3185 1158 CB01      		movw r24,r22
 3186 115a BC01      		movw r22,r24
 3187 115c CD01      		movw r24,r26
 3188 115e 0E94 0000 		call __fixsfsi
 3189 1162 DC01      		movw r26,r24
 3190 1164 CB01      		movw r24,r22
 3191 1166 9887      		std Y+8,r25
 3192 1168 8F83      		std Y+7,r24
 120:lp_solve_5.5/bfp/bfp_LUSOL/lp_LUSOL.c ****     if(!LUSOL_sizeto(lu->LUSOL, newsize, newsize, asize))
 3193               		.loc 3 120 0
 3194 116a 8D81      		ldd r24,Y+5
 3195 116c 9E81      		ldd r25,Y+6
 3196 116e FC01      		movw r30,r24
 3197 1170 8085      		ldd r24,Z+8
 3198 1172 9185      		ldd r25,Z+9
 3199 1174 2F81      		ldd r18,Y+7
 3200 1176 3885      		ldd r19,Y+8
 3201 1178 4B85      		ldd r20,Y+11
 3202 117a 5C85      		ldd r21,Y+12
 3203 117c 6B85      		ldd r22,Y+11
 3204 117e 7C85      		ldd r23,Y+12
 3205 1180 0E94 0000 		call LUSOL_sizeto
 3206 1184 8823      		tst r24
 3207 1186 01F4      		brne .L109
 121:lp_solve_5.5/bfp/bfp_LUSOL/lp_LUSOL.c ****       return( FALSE );
 3208               		.loc 3 121 0
 3209 1188 80E0      		ldi r24,0
 3210 118a 00C0      		rjmp .L107
 3211               	.L109:
 3212               	.LBE5:
 122:lp_solve_5.5/bfp/bfp_LUSOL/lp_LUSOL.c ****   }
 123:lp_solve_5.5/bfp/bfp_LUSOL/lp_LUSOL.c ****   lu->dimcount = newsize;
 3213               		.loc 3 123 0
 3214 118c 8D81      		ldd r24,Y+5
 3215 118e 9E81      		ldd r25,Y+6
 3216 1190 2B85      		ldd r18,Y+11
 3217 1192 3C85      		ldd r19,Y+12
 3218 1194 FC01      		movw r30,r24
 3219 1196 3383      		std Z+3,r19
 3220 1198 2283      		std Z+2,r18
 124:lp_solve_5.5/bfp/bfp_LUSOL/lp_LUSOL.c ****   return( TRUE );
 3221               		.loc 3 124 0
 3222 119a 81E0      		ldi r24,lo8(1)
 3223               	.L107:
 3224               	/* epilogue start */
 125:lp_solve_5.5/bfp/bfp_LUSOL/lp_LUSOL.c **** }
 3225               		.loc 3 125 0
 3226 119c 2C96      		adiw r28,12
 3227 119e 0FB6      		in __tmp_reg__,__SREG__
 3228 11a0 F894      		cli
 3229 11a2 DEBF      		out __SP_H__,r29
 3230 11a4 0FBE      		out __SREG__,__tmp_reg__
 3231 11a6 CDBF      		out __SP_L__,r28
 3232 11a8 DF91      		pop r29
 3233 11aa CF91      		pop r28
 3234 11ac FF90      		pop r15
 3235 11ae EF90      		pop r14
 3236 11b0 DF90      		pop r13
 3237 11b2 CF90      		pop r12
 3238 11b4 0895      		ret
 3239               		.cfi_endproc
 3240               	.LFE32:
 3242               	.global	bfp_free
 3244               	bfp_free:
 3245               	.LFB33:
 126:lp_solve_5.5/bfp/bfp_LUSOL/lp_LUSOL.c **** 
 127:lp_solve_5.5/bfp/bfp_LUSOL/lp_LUSOL.c **** 
 128:lp_solve_5.5/bfp/bfp_LUSOL/lp_LUSOL.c **** /* MUST MODIFY */
 129:lp_solve_5.5/bfp/bfp_LUSOL/lp_LUSOL.c **** void BFP_CALLMODEL bfp_free(lprec *lp)
 130:lp_solve_5.5/bfp/bfp_LUSOL/lp_LUSOL.c **** {
 3246               		.loc 3 130 0
 3247               		.cfi_startproc
 3248 11b6 CF93      		push r28
 3249               	.LCFI134:
 3250               		.cfi_def_cfa_offset 3
 3251               		.cfi_offset 28, -2
 3252 11b8 DF93      		push r29
 3253               	.LCFI135:
 3254               		.cfi_def_cfa_offset 4
 3255               		.cfi_offset 29, -3
 3256 11ba 00D0      		rcall .
 3257 11bc 00D0      		rcall .
 3258               	.LCFI136:
 3259               		.cfi_def_cfa_offset 8
 3260 11be CDB7      		in r28,__SP_L__
 3261 11c0 DEB7      		in r29,__SP_H__
 3262               	.LCFI137:
 3263               		.cfi_def_cfa_register 28
 3264               	/* prologue: function */
 3265               	/* frame size = 4 */
 3266               	/* stack size = 6 */
 3267               	.L__stack_usage = 6
 3268 11c2 9C83      		std Y+4,r25
 3269 11c4 8B83      		std Y+3,r24
 131:lp_solve_5.5/bfp/bfp_LUSOL/lp_LUSOL.c ****   INVrec *lu;
 132:lp_solve_5.5/bfp/bfp_LUSOL/lp_LUSOL.c **** 
 133:lp_solve_5.5/bfp/bfp_LUSOL/lp_LUSOL.c ****   lu = lp->invB;
 3270               		.loc 3 133 0
 3271 11c6 8B81      		ldd r24,Y+3
 3272 11c8 9C81      		ldd r25,Y+4
 3273 11ca 8854      		subi r24,72
 3274 11cc 9D4F      		sbci r25,-3
 3275 11ce FC01      		movw r30,r24
 3276 11d0 8081      		ld r24,Z
 3277 11d2 9181      		ldd r25,Z+1
 3278 11d4 9A83      		std Y+2,r25
 3279 11d6 8983      		std Y+1,r24
 134:lp_solve_5.5/bfp/bfp_LUSOL/lp_LUSOL.c ****   if(lu == NULL)
 3280               		.loc 3 134 0
 3281 11d8 8981      		ldd r24,Y+1
 3282 11da 9A81      		ldd r25,Y+2
 3283 11dc 892B      		or r24,r25
 3284 11de 01F4      		brne .+2
 3285 11e0 00C0      		rjmp .L118
 135:lp_solve_5.5/bfp/bfp_LUSOL/lp_LUSOL.c ****     return;
 136:lp_solve_5.5/bfp/bfp_LUSOL/lp_LUSOL.c **** 
 137:lp_solve_5.5/bfp/bfp_LUSOL/lp_LUSOL.c ****   /* General arrays */
 138:lp_solve_5.5/bfp/bfp_LUSOL/lp_LUSOL.c ****   FREE(lu->opts);
 3286               		.loc 3 138 0
 3287 11e2 8981      		ldd r24,Y+1
 3288 11e4 9A81      		ldd r25,Y+2
 3289 11e6 FC01      		movw r30,r24
 3290 11e8 80A9      		ldd r24,Z+48
 3291 11ea 91A9      		ldd r25,Z+49
 3292 11ec 892B      		or r24,r25
 3293 11ee 01F0      		breq .L115
 3294               		.loc 3 138 0 is_stmt 0 discriminator 1
 3295 11f0 8981      		ldd r24,Y+1
 3296 11f2 9A81      		ldd r25,Y+2
 3297 11f4 FC01      		movw r30,r24
 3298 11f6 80A9      		ldd r24,Z+48
 3299 11f8 91A9      		ldd r25,Z+49
 3300 11fa 0E94 0000 		call free
 3301 11fe 8981      		ldd r24,Y+1
 3302 1200 9A81      		ldd r25,Y+2
 3303 1202 FC01      		movw r30,r24
 3304 1204 11AA      		std Z+49,__zero_reg__
 3305 1206 10AA      		std Z+48,__zero_reg__
 3306               	.L115:
 139:lp_solve_5.5/bfp/bfp_LUSOL/lp_LUSOL.c ****   FREE(lu->value);
 3307               		.loc 3 139 0 is_stmt 1
 3308 1208 8981      		ldd r24,Y+1
 3309 120a 9A81      		ldd r25,Y+2
 3310 120c FC01      		movw r30,r24
 3311 120e 8089      		ldd r24,Z+16
 3312 1210 9189      		ldd r25,Z+17
 3313 1212 892B      		or r24,r25
 3314 1214 01F0      		breq .L116
 3315               		.loc 3 139 0 is_stmt 0 discriminator 1
 3316 1216 8981      		ldd r24,Y+1
 3317 1218 9A81      		ldd r25,Y+2
 3318 121a FC01      		movw r30,r24
 3319 121c 8089      		ldd r24,Z+16
 3320 121e 9189      		ldd r25,Z+17
 3321 1220 0E94 0000 		call free
 3322 1224 8981      		ldd r24,Y+1
 3323 1226 9A81      		ldd r25,Y+2
 3324 1228 FC01      		movw r30,r24
 3325 122a 118A      		std Z+17,__zero_reg__
 3326 122c 108A      		std Z+16,__zero_reg__
 3327               	.L116:
 140:lp_solve_5.5/bfp/bfp_LUSOL/lp_LUSOL.c **** 
 141:lp_solve_5.5/bfp/bfp_LUSOL/lp_LUSOL.c ****   /* Data specific to the factorization engine */
 142:lp_solve_5.5/bfp/bfp_LUSOL/lp_LUSOL.c ****   LUSOL_free(lu->LUSOL);
 3328               		.loc 3 142 0 is_stmt 1
 3329 122e 8981      		ldd r24,Y+1
 3330 1230 9A81      		ldd r25,Y+2
 3331 1232 FC01      		movw r30,r24
 3332 1234 8085      		ldd r24,Z+8
 3333 1236 9185      		ldd r25,Z+9
 3334 1238 0E94 0000 		call LUSOL_free
 143:lp_solve_5.5/bfp/bfp_LUSOL/lp_LUSOL.c **** 
 144:lp_solve_5.5/bfp/bfp_LUSOL/lp_LUSOL.c ****   FREE(lu);
 3335               		.loc 3 144 0
 3336 123c 8981      		ldd r24,Y+1
 3337 123e 9A81      		ldd r25,Y+2
 3338 1240 892B      		or r24,r25
 3339 1242 01F0      		breq .L117
 3340               		.loc 3 144 0 is_stmt 0 discriminator 1
 3341 1244 8981      		ldd r24,Y+1
 3342 1246 9A81      		ldd r25,Y+2
 3343 1248 0E94 0000 		call free
 3344 124c 1A82      		std Y+2,__zero_reg__
 3345 124e 1982      		std Y+1,__zero_reg__
 3346               	.L117:
 145:lp_solve_5.5/bfp/bfp_LUSOL/lp_LUSOL.c ****   lp->invB = NULL;
 3347               		.loc 3 145 0 is_stmt 1
 3348 1250 8B81      		ldd r24,Y+3
 3349 1252 9C81      		ldd r25,Y+4
 3350 1254 8854      		subi r24,72
 3351 1256 9D4F      		sbci r25,-3
 3352 1258 FC01      		movw r30,r24
 3353 125a 1182      		std Z+1,__zero_reg__
 3354 125c 1082      		st Z,__zero_reg__
 3355 125e 00C0      		rjmp .L112
 3356               	.L118:
 135:lp_solve_5.5/bfp/bfp_LUSOL/lp_LUSOL.c **** 
 3357               		.loc 3 135 0
 3358 1260 0000      		nop
 3359               	.L112:
 3360               	/* epilogue start */
 146:lp_solve_5.5/bfp/bfp_LUSOL/lp_LUSOL.c **** }
 3361               		.loc 3 146 0
 3362 1262 0F90      		pop __tmp_reg__
 3363 1264 0F90      		pop __tmp_reg__
 3364 1266 0F90      		pop __tmp_reg__
 3365 1268 0F90      		pop __tmp_reg__
 3366 126a DF91      		pop r29
 3367 126c CF91      		pop r28
 3368 126e 0895      		ret
 3369               		.cfi_endproc
 3370               	.LFE33:
 3372               	.global	bfp_nonzeros
 3374               	bfp_nonzeros:
 3375               	.LFB34:
 147:lp_solve_5.5/bfp/bfp_LUSOL/lp_LUSOL.c **** 
 148:lp_solve_5.5/bfp/bfp_LUSOL/lp_LUSOL.c **** 
 149:lp_solve_5.5/bfp/bfp_LUSOL/lp_LUSOL.c **** /* MUST MODIFY */
 150:lp_solve_5.5/bfp/bfp_LUSOL/lp_LUSOL.c **** int BFP_CALLMODEL bfp_nonzeros(lprec *lp, MYBOOL maximum)
 151:lp_solve_5.5/bfp/bfp_LUSOL/lp_LUSOL.c **** {
 3376               		.loc 3 151 0
 3377               		.cfi_startproc
 3378 1270 CF93      		push r28
 3379               	.LCFI138:
 3380               		.cfi_def_cfa_offset 3
 3381               		.cfi_offset 28, -2
 3382 1272 DF93      		push r29
 3383               	.LCFI139:
 3384               		.cfi_def_cfa_offset 4
 3385               		.cfi_offset 29, -3
 3386 1274 00D0      		rcall .
 3387 1276 00D0      		rcall .
 3388 1278 1F92      		push __zero_reg__
 3389               	.LCFI140:
 3390               		.cfi_def_cfa_offset 9
 3391 127a CDB7      		in r28,__SP_L__
 3392 127c DEB7      		in r29,__SP_H__
 3393               	.LCFI141:
 3394               		.cfi_def_cfa_register 28
 3395               	/* prologue: function */
 3396               	/* frame size = 5 */
 3397               	/* stack size = 7 */
 3398               	.L__stack_usage = 7
 3399 127e 9C83      		std Y+4,r25
 3400 1280 8B83      		std Y+3,r24
 3401 1282 6D83      		std Y+5,r22
 152:lp_solve_5.5/bfp/bfp_LUSOL/lp_LUSOL.c ****   INVrec *lu;
 153:lp_solve_5.5/bfp/bfp_LUSOL/lp_LUSOL.c **** 
 154:lp_solve_5.5/bfp/bfp_LUSOL/lp_LUSOL.c ****   lu = lp->invB;
 3402               		.loc 3 154 0
 3403 1284 8B81      		ldd r24,Y+3
 3404 1286 9C81      		ldd r25,Y+4
 3405 1288 8854      		subi r24,72
 3406 128a 9D4F      		sbci r25,-3
 3407 128c FC01      		movw r30,r24
 3408 128e 8081      		ld r24,Z
 3409 1290 9181      		ldd r25,Z+1
 3410 1292 9A83      		std Y+2,r25
 3411 1294 8983      		std Y+1,r24
 155:lp_solve_5.5/bfp/bfp_LUSOL/lp_LUSOL.c ****   if(maximum == TRUE)
 3412               		.loc 3 155 0
 3413 1296 8D81      		ldd r24,Y+5
 3414 1298 8130      		cpi r24,lo8(1)
 3415 129a 01F4      		brne .L120
 156:lp_solve_5.5/bfp/bfp_LUSOL/lp_LUSOL.c ****     return(lu->max_LUsize);
 3416               		.loc 3 156 0
 3417 129c 8981      		ldd r24,Y+1
 3418 129e 9A81      		ldd r25,Y+2
 3419 12a0 FC01      		movw r30,r24
 3420 12a2 848D      		ldd r24,Z+28
 3421 12a4 958D      		ldd r25,Z+29
 3422 12a6 00C0      		rjmp .L121
 3423               	.L120:
 157:lp_solve_5.5/bfp/bfp_LUSOL/lp_LUSOL.c ****   else if(maximum == AUTOMATIC)
 3424               		.loc 3 157 0
 3425 12a8 8D81      		ldd r24,Y+5
 3426 12aa 8230      		cpi r24,lo8(2)
 3427 12ac 01F4      		brne .L122
 158:lp_solve_5.5/bfp/bfp_LUSOL/lp_LUSOL.c ****     return(lu->max_Bsize);
 3428               		.loc 3 158 0
 3429 12ae 8981      		ldd r24,Y+1
 3430 12b0 9A81      		ldd r25,Y+2
 3431 12b2 FC01      		movw r30,r24
 3432 12b4 808D      		ldd r24,Z+24
 3433 12b6 918D      		ldd r25,Z+25
 3434 12b8 00C0      		rjmp .L121
 3435               	.L122:
 159:lp_solve_5.5/bfp/bfp_LUSOL/lp_LUSOL.c ****   else
 160:lp_solve_5.5/bfp/bfp_LUSOL/lp_LUSOL.c ****     return(lu->LUSOL->luparm[LUSOL_IP_NONZEROS_L0]+lu->LUSOL->luparm[LUSOL_IP_NONZEROS_U0]);
 3436               		.loc 3 160 0
 3437 12ba 8981      		ldd r24,Y+1
 3438 12bc 9A81      		ldd r25,Y+2
 3439 12be FC01      		movw r30,r24
 3440 12c0 8085      		ldd r24,Z+8
 3441 12c2 9185      		ldd r25,Z+9
 3442 12c4 FC01      		movw r30,r24
 3443 12c6 22A9      		ldd r18,Z+50
 3444 12c8 33A9      		ldd r19,Z+51
 3445 12ca 8981      		ldd r24,Y+1
 3446 12cc 9A81      		ldd r25,Y+2
 3447 12ce FC01      		movw r30,r24
 3448 12d0 8085      		ldd r24,Z+8
 3449 12d2 9185      		ldd r25,Z+9
 3450 12d4 FC01      		movw r30,r24
 3451 12d6 84A9      		ldd r24,Z+52
 3452 12d8 95A9      		ldd r25,Z+53
 3453 12da 820F      		add r24,r18
 3454 12dc 931F      		adc r25,r19
 3455               	.L121:
 3456               	/* epilogue start */
 161:lp_solve_5.5/bfp/bfp_LUSOL/lp_LUSOL.c **** /*    return(lu->LUSOL->luparm[LUSOL_IP_NONZEROS_ROW]); */
 162:lp_solve_5.5/bfp/bfp_LUSOL/lp_LUSOL.c **** }
 3457               		.loc 3 162 0
 3458 12de 0F90      		pop __tmp_reg__
 3459 12e0 0F90      		pop __tmp_reg__
 3460 12e2 0F90      		pop __tmp_reg__
 3461 12e4 0F90      		pop __tmp_reg__
 3462 12e6 0F90      		pop __tmp_reg__
 3463 12e8 DF91      		pop r29
 3464 12ea CF91      		pop r28
 3465 12ec 0895      		ret
 3466               		.cfi_endproc
 3467               	.LFE34:
 3469               	.global	bfp_memallocated
 3471               	bfp_memallocated:
 3472               	.LFB35:
 163:lp_solve_5.5/bfp/bfp_LUSOL/lp_LUSOL.c **** 
 164:lp_solve_5.5/bfp/bfp_LUSOL/lp_LUSOL.c **** 
 165:lp_solve_5.5/bfp/bfp_LUSOL/lp_LUSOL.c **** /* MUST MODIFY (or ignore) */
 166:lp_solve_5.5/bfp/bfp_LUSOL/lp_LUSOL.c **** int BFP_CALLMODEL bfp_memallocated(lprec *lp)
 167:lp_solve_5.5/bfp/bfp_LUSOL/lp_LUSOL.c **** {
 3473               		.loc 3 167 0
 3474               		.cfi_startproc
 3475 12ee CF93      		push r28
 3476               	.LCFI142:
 3477               		.cfi_def_cfa_offset 3
 3478               		.cfi_offset 28, -2
 3479 12f0 DF93      		push r29
 3480               	.LCFI143:
 3481               		.cfi_def_cfa_offset 4
 3482               		.cfi_offset 29, -3
 3483 12f2 00D0      		rcall .
 3484 12f4 00D0      		rcall .
 3485 12f6 00D0      		rcall .
 3486               	.LCFI144:
 3487               		.cfi_def_cfa_offset 10
 3488 12f8 CDB7      		in r28,__SP_L__
 3489 12fa DEB7      		in r29,__SP_H__
 3490               	.LCFI145:
 3491               		.cfi_def_cfa_register 28
 3492               	/* prologue: function */
 3493               	/* frame size = 6 */
 3494               	/* stack size = 8 */
 3495               	.L__stack_usage = 8
 3496 12fc 9E83      		std Y+6,r25
 3497 12fe 8D83      		std Y+5,r24
 168:lp_solve_5.5/bfp/bfp_LUSOL/lp_LUSOL.c ****   int      mem;
 169:lp_solve_5.5/bfp/bfp_LUSOL/lp_LUSOL.c ****   LUSOLrec *LUSOL = lp->invB->LUSOL;
 3498               		.loc 3 169 0
 3499 1300 8D81      		ldd r24,Y+5
 3500 1302 9E81      		ldd r25,Y+6
 3501 1304 8854      		subi r24,72
 3502 1306 9D4F      		sbci r25,-3
 3503 1308 FC01      		movw r30,r24
 3504 130a 8081      		ld r24,Z
 3505 130c 9181      		ldd r25,Z+1
 3506 130e FC01      		movw r30,r24
 3507 1310 8085      		ldd r24,Z+8
 3508 1312 9185      		ldd r25,Z+9
 3509 1314 9C83      		std Y+4,r25
 3510 1316 8B83      		std Y+3,r24
 170:lp_solve_5.5/bfp/bfp_LUSOL/lp_LUSOL.c **** 
 171:lp_solve_5.5/bfp/bfp_LUSOL/lp_LUSOL.c ****   mem = sizeof(REAL) * (LUSOL->lena+LUSOL->maxm+LUSOL_RP_LASTITEM);
 3511               		.loc 3 171 0
 3512 1318 8B81      		ldd r24,Y+3
 3513 131a 9C81      		ldd r25,Y+4
 3514 131c 8256      		subi r24,98
 3515 131e 9F4F      		sbci r25,-1
 3516 1320 FC01      		movw r30,r24
 3517 1322 2081      		ld r18,Z
 3518 1324 3181      		ldd r19,Z+1
 3519 1326 8B81      		ldd r24,Y+3
 3520 1328 9C81      		ldd r25,Y+4
 3521 132a 8855      		subi r24,88
 3522 132c 9F4F      		sbci r25,-1
 3523 132e FC01      		movw r30,r24
 3524 1330 8081      		ld r24,Z
 3525 1332 9181      		ldd r25,Z+1
 3526 1334 820F      		add r24,r18
 3527 1336 931F      		adc r25,r19
 3528 1338 4496      		adiw r24,20
 3529 133a 880F      		lsl r24
 3530 133c 991F      		rol r25
 3531 133e 880F      		lsl r24
 3532 1340 991F      		rol r25
 3533 1342 9A83      		std Y+2,r25
 3534 1344 8983      		std Y+1,r24
 172:lp_solve_5.5/bfp/bfp_LUSOL/lp_LUSOL.c ****   mem += sizeof(int) * (2*LUSOL->lena+5*LUSOL->maxm+5*LUSOL->maxn+LUSOL_IP_LASTITEM);
 3535               		.loc 3 172 0
 3536 1346 8B81      		ldd r24,Y+3
 3537 1348 9C81      		ldd r25,Y+4
 3538 134a 8256      		subi r24,98
 3539 134c 9F4F      		sbci r25,-1
 3540 134e FC01      		movw r30,r24
 3541 1350 8081      		ld r24,Z
 3542 1352 9181      		ldd r25,Z+1
 3543 1354 AC01      		movw r20,r24
 3544 1356 440F      		lsl r20
 3545 1358 551F      		rol r21
 3546 135a 8B81      		ldd r24,Y+3
 3547 135c 9C81      		ldd r25,Y+4
 3548 135e 8855      		subi r24,88
 3549 1360 9F4F      		sbci r25,-1
 3550 1362 FC01      		movw r30,r24
 3551 1364 2081      		ld r18,Z
 3552 1366 3181      		ldd r19,Z+1
 3553 1368 C901      		movw r24,r18
 3554 136a 880F      		lsl r24
 3555 136c 991F      		rol r25
 3556 136e 880F      		lsl r24
 3557 1370 991F      		rol r25
 3558 1372 820F      		add r24,r18
 3559 1374 931F      		adc r25,r19
 3560 1376 480F      		add r20,r24
 3561 1378 591F      		adc r21,r25
 3562 137a 8B81      		ldd r24,Y+3
 3563 137c 9C81      		ldd r25,Y+4
 3564 137e 8A54      		subi r24,74
 3565 1380 9F4F      		sbci r25,-1
 3566 1382 FC01      		movw r30,r24
 3567 1384 2081      		ld r18,Z
 3568 1386 3181      		ldd r19,Z+1
 3569 1388 C901      		movw r24,r18
 3570 138a 880F      		lsl r24
 3571 138c 991F      		rol r25
 3572 138e 880F      		lsl r24
 3573 1390 991F      		rol r25
 3574 1392 820F      		add r24,r18
 3575 1394 931F      		adc r25,r19
 3576 1396 840F      		add r24,r20
 3577 1398 951F      		adc r25,r21
 3578 139a 8096      		adiw r24,32
 3579 139c 9C01      		movw r18,r24
 3580 139e 220F      		lsl r18
 3581 13a0 331F      		rol r19
 3582 13a2 8981      		ldd r24,Y+1
 3583 13a4 9A81      		ldd r25,Y+2
 3584 13a6 820F      		add r24,r18
 3585 13a8 931F      		adc r25,r19
 3586 13aa 9A83      		std Y+2,r25
 3587 13ac 8983      		std Y+1,r24
 173:lp_solve_5.5/bfp/bfp_LUSOL/lp_LUSOL.c ****   if(LUSOL->luparm[LUSOL_IP_PIVOTTYPE] == LUSOL_PIVMOD_TCP)
 3588               		.loc 3 173 0
 3589 13ae 8B81      		ldd r24,Y+3
 3590 13b0 9C81      		ldd r25,Y+4
 3591 13b2 FC01      		movw r30,r24
 3592 13b4 8489      		ldd r24,Z+20
 3593 13b6 9589      		ldd r25,Z+21
 3594 13b8 0297      		sbiw r24,2
 3595 13ba 01F4      		brne .L124
 174:lp_solve_5.5/bfp/bfp_LUSOL/lp_LUSOL.c ****     mem += sizeof(REAL) * LUSOL->maxn + 2*sizeof(REAL)*LUSOL->maxn;
 3596               		.loc 3 174 0
 3597 13bc 8B81      		ldd r24,Y+3
 3598 13be 9C81      		ldd r25,Y+4
 3599 13c0 8A54      		subi r24,74
 3600 13c2 9F4F      		sbci r25,-1
 3601 13c4 FC01      		movw r30,r24
 3602 13c6 8081      		ld r24,Z
 3603 13c8 9181      		ldd r25,Z+1
 3604 13ca 9C01      		movw r18,r24
 3605 13cc C901      		movw r24,r18
 3606 13ce 880F      		lsl r24
 3607 13d0 991F      		rol r25
 3608 13d2 820F      		add r24,r18
 3609 13d4 931F      		adc r25,r19
 3610 13d6 880F      		lsl r24
 3611 13d8 991F      		rol r25
 3612 13da 880F      		lsl r24
 3613 13dc 991F      		rol r25
 3614 13de 9C01      		movw r18,r24
 3615 13e0 8981      		ldd r24,Y+1
 3616 13e2 9A81      		ldd r25,Y+2
 3617 13e4 820F      		add r24,r18
 3618 13e6 931F      		adc r25,r19
 3619 13e8 9A83      		std Y+2,r25
 3620 13ea 8983      		std Y+1,r24
 3621 13ec 00C0      		rjmp .L125
 3622               	.L124:
 175:lp_solve_5.5/bfp/bfp_LUSOL/lp_LUSOL.c ****   else if(LUSOL->luparm[LUSOL_IP_PIVOTTYPE] == LUSOL_PIVMOD_TRP)
 3623               		.loc 3 175 0
 3624 13ee 8B81      		ldd r24,Y+3
 3625 13f0 9C81      		ldd r25,Y+4
 3626 13f2 FC01      		movw r30,r24
 3627 13f4 8489      		ldd r24,Z+20
 3628 13f6 9589      		ldd r25,Z+21
 3629 13f8 0197      		sbiw r24,1
 3630 13fa 01F4      		brne .L125
 176:lp_solve_5.5/bfp/bfp_LUSOL/lp_LUSOL.c ****     mem += sizeof(REAL) * LUSOL->maxn;
 3631               		.loc 3 176 0
 3632 13fc 8B81      		ldd r24,Y+3
 3633 13fe 9C81      		ldd r25,Y+4
 3634 1400 8A54      		subi r24,74
 3635 1402 9F4F      		sbci r25,-1
 3636 1404 FC01      		movw r30,r24
 3637 1406 8081      		ld r24,Z
 3638 1408 9181      		ldd r25,Z+1
 3639 140a 9C01      		movw r18,r24
 3640 140c 220F      		lsl r18
 3641 140e 331F      		rol r19
 3642 1410 220F      		lsl r18
 3643 1412 331F      		rol r19
 3644 1414 8981      		ldd r24,Y+1
 3645 1416 9A81      		ldd r25,Y+2
 3646 1418 820F      		add r24,r18
 3647 141a 931F      		adc r25,r19
 3648 141c 9A83      		std Y+2,r25
 3649 141e 8983      		std Y+1,r24
 3650               	.L125:
 177:lp_solve_5.5/bfp/bfp_LUSOL/lp_LUSOL.c ****   if(!LUSOL->luparm[LUSOL_IP_KEEPLU])
 3651               		.loc 3 177 0
 3652 1420 8B81      		ldd r24,Y+3
 3653 1422 9C81      		ldd r25,Y+4
 3654 1424 FC01      		movw r30,r24
 3655 1426 808D      		ldd r24,Z+24
 3656 1428 918D      		ldd r25,Z+25
 3657 142a 892B      		or r24,r25
 3658 142c 01F4      		brne .L126
 178:lp_solve_5.5/bfp/bfp_LUSOL/lp_LUSOL.c ****     mem += sizeof(REAL) * LUSOL->maxn;
 3659               		.loc 3 178 0
 3660 142e 8B81      		ldd r24,Y+3
 3661 1430 9C81      		ldd r25,Y+4
 3662 1432 8A54      		subi r24,74
 3663 1434 9F4F      		sbci r25,-1
 3664 1436 FC01      		movw r30,r24
 3665 1438 8081      		ld r24,Z
 3666 143a 9181      		ldd r25,Z+1
 3667 143c 9C01      		movw r18,r24
 3668 143e 220F      		lsl r18
 3669 1440 331F      		rol r19
 3670 1442 220F      		lsl r18
 3671 1444 331F      		rol r19
 3672 1446 8981      		ldd r24,Y+1
 3673 1448 9A81      		ldd r25,Y+2
 3674 144a 820F      		add r24,r18
 3675 144c 931F      		adc r25,r19
 3676 144e 9A83      		std Y+2,r25
 3677 1450 8983      		std Y+1,r24
 3678               	.L126:
 179:lp_solve_5.5/bfp/bfp_LUSOL/lp_LUSOL.c ****   return( mem );
 3679               		.loc 3 179 0
 3680 1452 8981      		ldd r24,Y+1
 3681 1454 9A81      		ldd r25,Y+2
 3682               	/* epilogue start */
 180:lp_solve_5.5/bfp/bfp_LUSOL/lp_LUSOL.c **** }
 3683               		.loc 3 180 0
 3684 1456 2696      		adiw r28,6
 3685 1458 0FB6      		in __tmp_reg__,__SREG__
 3686 145a F894      		cli
 3687 145c DEBF      		out __SP_H__,r29
 3688 145e 0FBE      		out __SREG__,__tmp_reg__
 3689 1460 CDBF      		out __SP_L__,r28
 3690 1462 DF91      		pop r29
 3691 1464 CF91      		pop r28
 3692 1466 0895      		ret
 3693               		.cfi_endproc
 3694               	.LFE35:
 3696               	.global	bfp_preparefactorization
 3698               	bfp_preparefactorization:
 3699               	.LFB36:
 181:lp_solve_5.5/bfp/bfp_LUSOL/lp_LUSOL.c **** 
 182:lp_solve_5.5/bfp/bfp_LUSOL/lp_LUSOL.c **** 
 183:lp_solve_5.5/bfp/bfp_LUSOL/lp_LUSOL.c **** /* MUST MODIFY */
 184:lp_solve_5.5/bfp/bfp_LUSOL/lp_LUSOL.c **** int BFP_CALLMODEL bfp_preparefactorization(lprec *lp)
 185:lp_solve_5.5/bfp/bfp_LUSOL/lp_LUSOL.c **** {
 3700               		.loc 3 185 0
 3701               		.cfi_startproc
 3702 1468 EF92      		push r14
 3703               	.LCFI146:
 3704               		.cfi_def_cfa_offset 3
 3705               		.cfi_offset 14, -2
 3706 146a FF92      		push r15
 3707               	.LCFI147:
 3708               		.cfi_def_cfa_offset 4
 3709               		.cfi_offset 15, -3
 3710 146c 0F93      		push r16
 3711               	.LCFI148:
 3712               		.cfi_def_cfa_offset 5
 3713               		.cfi_offset 16, -4
 3714 146e 1F93      		push r17
 3715               	.LCFI149:
 3716               		.cfi_def_cfa_offset 6
 3717               		.cfi_offset 17, -5
 3718 1470 CF93      		push r28
 3719               	.LCFI150:
 3720               		.cfi_def_cfa_offset 7
 3721               		.cfi_offset 28, -6
 3722 1472 DF93      		push r29
 3723               	.LCFI151:
 3724               		.cfi_def_cfa_offset 8
 3725               		.cfi_offset 29, -7
 3726 1474 00D0      		rcall .
 3727 1476 00D0      		rcall .
 3728               	.LCFI152:
 3729               		.cfi_def_cfa_offset 12
 3730 1478 CDB7      		in r28,__SP_L__
 3731 147a DEB7      		in r29,__SP_H__
 3732               	.LCFI153:
 3733               		.cfi_def_cfa_register 28
 3734               	/* prologue: function */
 3735               	/* frame size = 4 */
 3736               	/* stack size = 10 */
 3737               	.L__stack_usage = 10
 3738 147c 9C83      		std Y+4,r25
 3739 147e 8B83      		std Y+3,r24
 186:lp_solve_5.5/bfp/bfp_LUSOL/lp_LUSOL.c ****   INVrec *lu = lp->invB;
 3740               		.loc 3 186 0
 3741 1480 8B81      		ldd r24,Y+3
 3742 1482 9C81      		ldd r25,Y+4
 3743 1484 8854      		subi r24,72
 3744 1486 9D4F      		sbci r25,-3
 3745 1488 FC01      		movw r30,r24
 3746 148a 8081      		ld r24,Z
 3747 148c 9181      		ldd r25,Z+1
 3748 148e 9A83      		std Y+2,r25
 3749 1490 8983      		std Y+1,r24
 187:lp_solve_5.5/bfp/bfp_LUSOL/lp_LUSOL.c **** 
 188:lp_solve_5.5/bfp/bfp_LUSOL/lp_LUSOL.c ****   /* Finish any outstanding business */
 189:lp_solve_5.5/bfp/bfp_LUSOL/lp_LUSOL.c ****   if(lu->is_dirty == AUTOMATIC)
 3750               		.loc 3 189 0
 3751 1492 8981      		ldd r24,Y+1
 3752 1494 9A81      		ldd r25,Y+2
 3753 1496 FC01      		movw r30,r24
 3754 1498 82A9      		ldd r24,Z+50
 3755 149a 8230      		cpi r24,lo8(2)
 3756 149c 01F4      		brne .L129
 190:lp_solve_5.5/bfp/bfp_LUSOL/lp_LUSOL.c ****     lp->bfp_finishfactorization(lp);
 3757               		.loc 3 190 0
 3758 149e 8B81      		ldd r24,Y+3
 3759 14a0 9C81      		ldd r25,Y+4
 3760 14a2 8A55      		subi r24,90
 3761 14a4 9C4F      		sbci r25,-4
 3762 14a6 FC01      		movw r30,r24
 3763 14a8 2081      		ld r18,Z
 3764 14aa 3181      		ldd r19,Z+1
 3765 14ac 8B81      		ldd r24,Y+3
 3766 14ae 9C81      		ldd r25,Y+4
 3767 14b0 F901      		movw r30,r18
 3768 14b2 0995      		icall
 3769               	.L129:
 191:lp_solve_5.5/bfp/bfp_LUSOL/lp_LUSOL.c **** 
 192:lp_solve_5.5/bfp/bfp_LUSOL/lp_LUSOL.c ****   /* Clear or resize the existing LU matrices - specific for the factorization engine */
 193:lp_solve_5.5/bfp/bfp_LUSOL/lp_LUSOL.c ****   LUSOL_clear(lu->LUSOL, TRUE);
 3770               		.loc 3 193 0
 3771 14b4 8981      		ldd r24,Y+1
 3772 14b6 9A81      		ldd r25,Y+2
 3773 14b8 FC01      		movw r30,r24
 3774 14ba 8085      		ldd r24,Z+8
 3775 14bc 9185      		ldd r25,Z+9
 3776 14be 61E0      		ldi r22,lo8(1)
 3777 14c0 0E94 0000 		call LUSOL_clear
 194:lp_solve_5.5/bfp/bfp_LUSOL/lp_LUSOL.c ****   if(lu->dimcount != lp->rows + bfp_rowoffset(lp))
 3778               		.loc 3 194 0
 3779 14c4 8981      		ldd r24,Y+1
 3780 14c6 9A81      		ldd r25,Y+2
 3781 14c8 FC01      		movw r30,r24
 3782 14ca 0281      		ldd r16,Z+2
 3783 14cc 1381      		ldd r17,Z+3
 3784 14ce 8B81      		ldd r24,Y+3
 3785 14d0 9C81      		ldd r25,Y+4
 3786 14d2 8651      		subi r24,22
 3787 14d4 9E4F      		sbci r25,-2
 3788 14d6 FC01      		movw r30,r24
 3789 14d8 E080      		ld r14,Z
 3790 14da F180      		ldd r15,Z+1
 3791 14dc 8B81      		ldd r24,Y+3
 3792 14de 9C81      		ldd r25,Y+4
 3793 14e0 0E94 0000 		call bfp_rowoffset
 3794 14e4 8E0D      		add r24,r14
 3795 14e6 9F1D      		adc r25,r15
 3796 14e8 0817      		cp r16,r24
 3797 14ea 1907      		cpc r17,r25
 3798 14ec 01F0      		breq .L130
 195:lp_solve_5.5/bfp/bfp_LUSOL/lp_LUSOL.c ****     lp->bfp_resize(lp, lp->rows);
 3799               		.loc 3 195 0
 3800 14ee 8B81      		ldd r24,Y+3
 3801 14f0 9C81      		ldd r25,Y+4
 3802 14f2 8656      		subi r24,102
 3803 14f4 9C4F      		sbci r25,-4
 3804 14f6 FC01      		movw r30,r24
 3805 14f8 2081      		ld r18,Z
 3806 14fa 3181      		ldd r19,Z+1
 3807 14fc 8B81      		ldd r24,Y+3
 3808 14fe 9C81      		ldd r25,Y+4
 3809 1500 8651      		subi r24,22
 3810 1502 9E4F      		sbci r25,-2
 3811 1504 FC01      		movw r30,r24
 3812 1506 4081      		ld r20,Z
 3813 1508 5181      		ldd r21,Z+1
 3814 150a 8B81      		ldd r24,Y+3
 3815 150c 9C81      		ldd r25,Y+4
 3816 150e BA01      		movw r22,r20
 3817 1510 F901      		movw r30,r18
 3818 1512 0995      		icall
 3819               	.L130:
 196:lp_solve_5.5/bfp/bfp_LUSOL/lp_LUSOL.c **** 
 197:lp_solve_5.5/bfp/bfp_LUSOL/lp_LUSOL.c ****   /* Reset additional indicators */
 198:lp_solve_5.5/bfp/bfp_LUSOL/lp_LUSOL.c ****   lp->bfp_updaterefactstats(lp);
 3820               		.loc 3 198 0
 3821 1514 8B81      		ldd r24,Y+3
 3822 1516 9C81      		ldd r25,Y+4
 3823 1518 8855      		subi r24,88
 3824 151a 9C4F      		sbci r25,-4
 3825 151c FC01      		movw r30,r24
 3826 151e 2081      		ld r18,Z
 3827 1520 3181      		ldd r19,Z+1
 3828 1522 8B81      		ldd r24,Y+3
 3829 1524 9C81      		ldd r25,Y+4
 3830 1526 F901      		movw r30,r18
 3831 1528 0995      		icall
 199:lp_solve_5.5/bfp/bfp_LUSOL/lp_LUSOL.c ****   lu->col_pos = 0;
 3832               		.loc 3 199 0
 3833 152a 8981      		ldd r24,Y+1
 3834 152c 9A81      		ldd r25,Y+2
 3835 152e FC01      		movw r30,r24
 3836 1530 1786      		std Z+15,__zero_reg__
 3837 1532 1686      		std Z+14,__zero_reg__
 200:lp_solve_5.5/bfp/bfp_LUSOL/lp_LUSOL.c **** 
 201:lp_solve_5.5/bfp/bfp_LUSOL/lp_LUSOL.c ****   return(0);
 3838               		.loc 3 201 0
 3839 1534 80E0      		ldi r24,0
 3840 1536 90E0      		ldi r25,0
 3841               	/* epilogue start */
 202:lp_solve_5.5/bfp/bfp_LUSOL/lp_LUSOL.c **** 
 203:lp_solve_5.5/bfp/bfp_LUSOL/lp_LUSOL.c **** }
 3842               		.loc 3 203 0
 3843 1538 0F90      		pop __tmp_reg__
 3844 153a 0F90      		pop __tmp_reg__
 3845 153c 0F90      		pop __tmp_reg__
 3846 153e 0F90      		pop __tmp_reg__
 3847 1540 DF91      		pop r29
 3848 1542 CF91      		pop r28
 3849 1544 1F91      		pop r17
 3850 1546 0F91      		pop r16
 3851 1548 FF90      		pop r15
 3852 154a EF90      		pop r14
 3853 154c 0895      		ret
 3854               		.cfi_endproc
 3855               	.LFE36:
 3857               	.global	bfp_LUSOLsetcolumn
 3859               	bfp_LUSOLsetcolumn:
 3860               	.LFB37:
 204:lp_solve_5.5/bfp/bfp_LUSOL/lp_LUSOL.c **** 
 205:lp_solve_5.5/bfp/bfp_LUSOL/lp_LUSOL.c **** 
 206:lp_solve_5.5/bfp/bfp_LUSOL/lp_LUSOL.c **** /* LOCAL HELPER ROUTINE - Replace a basis column with corresponding slack */
 207:lp_solve_5.5/bfp/bfp_LUSOL/lp_LUSOL.c **** int bfp_LUSOLsetcolumn(lprec *lp, int posnr, int colnr)
 208:lp_solve_5.5/bfp/bfp_LUSOL/lp_LUSOL.c **** {
 3861               		.loc 3 208 0
 3862               		.cfi_startproc
 3863 154e EF92      		push r14
 3864               	.LCFI154:
 3865               		.cfi_def_cfa_offset 3
 3866               		.cfi_offset 14, -2
 3867 1550 FF92      		push r15
 3868               	.LCFI155:
 3869               		.cfi_def_cfa_offset 4
 3870               		.cfi_offset 15, -3
 3871 1552 0F93      		push r16
 3872               	.LCFI156:
 3873               		.cfi_def_cfa_offset 5
 3874               		.cfi_offset 16, -4
 3875 1554 1F93      		push r17
 3876               	.LCFI157:
 3877               		.cfi_def_cfa_offset 6
 3878               		.cfi_offset 17, -5
 3879 1556 CF93      		push r28
 3880               	.LCFI158:
 3881               		.cfi_def_cfa_offset 7
 3882               		.cfi_offset 28, -6
 3883 1558 DF93      		push r29
 3884               	.LCFI159:
 3885               		.cfi_def_cfa_offset 8
 3886               		.cfi_offset 29, -7
 3887 155a CDB7      		in r28,__SP_L__
 3888 155c DEB7      		in r29,__SP_H__
 3889               	.LCFI160:
 3890               		.cfi_def_cfa_register 28
 3891 155e 2A97      		sbiw r28,10
 3892               	.LCFI161:
 3893               		.cfi_def_cfa_offset 18
 3894 1560 0FB6      		in __tmp_reg__,__SREG__
 3895 1562 F894      		cli
 3896 1564 DEBF      		out __SP_H__,r29
 3897 1566 0FBE      		out __SREG__,__tmp_reg__
 3898 1568 CDBF      		out __SP_L__,r28
 3899               	/* prologue: function */
 3900               	/* frame size = 10 */
 3901               	/* stack size = 16 */
 3902               	.L__stack_usage = 16
 3903 156a 9E83      		std Y+6,r25
 3904 156c 8D83      		std Y+5,r24
 3905 156e 7887      		std Y+8,r23
 3906 1570 6F83      		std Y+7,r22
 3907 1572 5A87      		std Y+10,r21
 3908 1574 4987      		std Y+9,r20
 209:lp_solve_5.5/bfp/bfp_LUSOL/lp_LUSOL.c ****   int nz, inform;
 210:lp_solve_5.5/bfp/bfp_LUSOL/lp_LUSOL.c **** 
 211:lp_solve_5.5/bfp/bfp_LUSOL/lp_LUSOL.c ****   nz = lp->get_lpcolumn(lp, colnr, lp->invB->LUSOL->w + bfp_rowoffset(lp), NULL, NULL);
 3909               		.loc 3 211 0
 3910 1576 8D81      		ldd r24,Y+5
 3911 1578 9E81      		ldd r25,Y+6
 3912 157a 8A51      		subi r24,26
 3913 157c 9C4F      		sbci r25,-4
 3914 157e FC01      		movw r30,r24
 3915 1580 E080      		ld r14,Z
 3916 1582 F180      		ldd r15,Z+1
 3917 1584 8D81      		ldd r24,Y+5
 3918 1586 9E81      		ldd r25,Y+6
 3919 1588 8854      		subi r24,72
 3920 158a 9D4F      		sbci r25,-3
 3921 158c FC01      		movw r30,r24
 3922 158e 8081      		ld r24,Z
 3923 1590 9181      		ldd r25,Z+1
 3924 1592 FC01      		movw r30,r24
 3925 1594 8085      		ldd r24,Z+8
 3926 1596 9185      		ldd r25,Z+9
 3927 1598 8C53      		subi r24,60
 3928 159a 9F4F      		sbci r25,-1
 3929 159c FC01      		movw r30,r24
 3930 159e 0081      		ld r16,Z
 3931 15a0 1181      		ldd r17,Z+1
 3932 15a2 8D81      		ldd r24,Y+5
 3933 15a4 9E81      		ldd r25,Y+6
 3934 15a6 0E94 0000 		call bfp_rowoffset
 3935 15aa 880F      		lsl r24
 3936 15ac 991F      		rol r25
 3937 15ae 880F      		lsl r24
 3938 15b0 991F      		rol r25
 3939 15b2 A801      		movw r20,r16
 3940 15b4 480F      		add r20,r24
 3941 15b6 591F      		adc r21,r25
 3942 15b8 6985      		ldd r22,Y+9
 3943 15ba 7A85      		ldd r23,Y+10
 3944 15bc 8D81      		ldd r24,Y+5
 3945 15be 9E81      		ldd r25,Y+6
 3946 15c0 00E0      		ldi r16,0
 3947 15c2 10E0      		ldi r17,0
 3948 15c4 20E0      		ldi r18,0
 3949 15c6 30E0      		ldi r19,0
 3950 15c8 F701      		movw r30,r14
 3951 15ca 0995      		icall
 3952 15cc 9A83      		std Y+2,r25
 3953 15ce 8983      		std Y+1,r24
 212:lp_solve_5.5/bfp/bfp_LUSOL/lp_LUSOL.c ****   inform = LUSOL_replaceColumn(lp->invB->LUSOL, posnr, lp->invB->LUSOL->w);
 3954               		.loc 3 212 0
 3955 15d0 8D81      		ldd r24,Y+5
 3956 15d2 9E81      		ldd r25,Y+6
 3957 15d4 8854      		subi r24,72
 3958 15d6 9D4F      		sbci r25,-3
 3959 15d8 FC01      		movw r30,r24
 3960 15da 8081      		ld r24,Z
 3961 15dc 9181      		ldd r25,Z+1
 3962 15de FC01      		movw r30,r24
 3963 15e0 8085      		ldd r24,Z+8
 3964 15e2 9185      		ldd r25,Z+9
 3965 15e4 8C53      		subi r24,60
 3966 15e6 9F4F      		sbci r25,-1
 3967 15e8 FC01      		movw r30,r24
 3968 15ea 4081      		ld r20,Z
 3969 15ec 5181      		ldd r21,Z+1
 3970 15ee 8D81      		ldd r24,Y+5
 3971 15f0 9E81      		ldd r25,Y+6
 3972 15f2 8854      		subi r24,72
 3973 15f4 9D4F      		sbci r25,-3
 3974 15f6 FC01      		movw r30,r24
 3975 15f8 8081      		ld r24,Z
 3976 15fa 9181      		ldd r25,Z+1
 3977 15fc FC01      		movw r30,r24
 3978 15fe 8085      		ldd r24,Z+8
 3979 1600 9185      		ldd r25,Z+9
 3980 1602 2F81      		ldd r18,Y+7
 3981 1604 3885      		ldd r19,Y+8
 3982 1606 B901      		movw r22,r18
 3983 1608 0E94 0000 		call LUSOL_replaceColumn
 3984 160c 9C83      		std Y+4,r25
 3985 160e 8B83      		std Y+3,r24
 213:lp_solve_5.5/bfp/bfp_LUSOL/lp_LUSOL.c ****   return( inform );
 3986               		.loc 3 213 0
 3987 1610 8B81      		ldd r24,Y+3
 3988 1612 9C81      		ldd r25,Y+4
 3989               	/* epilogue start */
 214:lp_solve_5.5/bfp/bfp_LUSOL/lp_LUSOL.c **** }
 3990               		.loc 3 214 0
 3991 1614 2A96      		adiw r28,10
 3992 1616 0FB6      		in __tmp_reg__,__SREG__
 3993 1618 F894      		cli
 3994 161a DEBF      		out __SP_H__,r29
 3995 161c 0FBE      		out __SREG__,__tmp_reg__
 3996 161e CDBF      		out __SP_L__,r28
 3997 1620 DF91      		pop r29
 3998 1622 CF91      		pop r28
 3999 1624 1F91      		pop r17
 4000 1626 0F91      		pop r16
 4001 1628 FF90      		pop r15
 4002 162a EF90      		pop r14
 4003 162c 0895      		ret
 4004               		.cfi_endproc
 4005               	.LFE37:
 4007               	.global	bfp_LUSOLidentity
 4009               	bfp_LUSOLidentity:
 4010               	.LFB38:
 215:lp_solve_5.5/bfp/bfp_LUSOL/lp_LUSOL.c **** 
 216:lp_solve_5.5/bfp/bfp_LUSOL/lp_LUSOL.c **** 
 217:lp_solve_5.5/bfp/bfp_LUSOL/lp_LUSOL.c **** /* LOCAL HELPER ROUTINE - force the basis to be the identity matrix */
 218:lp_solve_5.5/bfp/bfp_LUSOL/lp_LUSOL.c **** int bfp_LUSOLidentity(lprec *lp, int *rownum)
 219:lp_solve_5.5/bfp/bfp_LUSOL/lp_LUSOL.c **** {
 4011               		.loc 3 219 0
 4012               		.cfi_startproc
 4013 162e EF92      		push r14
 4014               	.LCFI162:
 4015               		.cfi_def_cfa_offset 3
 4016               		.cfi_offset 14, -2
 4017 1630 FF92      		push r15
 4018               	.LCFI163:
 4019               		.cfi_def_cfa_offset 4
 4020               		.cfi_offset 15, -3
 4021 1632 0F93      		push r16
 4022               	.LCFI164:
 4023               		.cfi_def_cfa_offset 5
 4024               		.cfi_offset 16, -4
 4025 1634 1F93      		push r17
 4026               	.LCFI165:
 4027               		.cfi_def_cfa_offset 6
 4028               		.cfi_offset 17, -5
 4029 1636 CF93      		push r28
 4030               	.LCFI166:
 4031               		.cfi_def_cfa_offset 7
 4032               		.cfi_offset 28, -6
 4033 1638 DF93      		push r29
 4034               	.LCFI167:
 4035               		.cfi_def_cfa_offset 8
 4036               		.cfi_offset 29, -7
 4037 163a CDB7      		in r28,__SP_L__
 4038 163c DEB7      		in r29,__SP_H__
 4039               	.LCFI168:
 4040               		.cfi_def_cfa_register 28
 4041 163e 2A97      		sbiw r28,10
 4042               	.LCFI169:
 4043               		.cfi_def_cfa_offset 18
 4044 1640 0FB6      		in __tmp_reg__,__SREG__
 4045 1642 F894      		cli
 4046 1644 DEBF      		out __SP_H__,r29
 4047 1646 0FBE      		out __SREG__,__tmp_reg__
 4048 1648 CDBF      		out __SP_L__,r28
 4049               	/* prologue: function */
 4050               	/* frame size = 10 */
 4051               	/* stack size = 16 */
 4052               	.L__stack_usage = 16
 4053 164a 9887      		std Y+8,r25
 4054 164c 8F83      		std Y+7,r24
 4055 164e 7A87      		std Y+10,r23
 4056 1650 6987      		std Y+9,r22
 220:lp_solve_5.5/bfp/bfp_LUSOL/lp_LUSOL.c ****   int    i, nz;
 221:lp_solve_5.5/bfp/bfp_LUSOL/lp_LUSOL.c ****   INVrec *invB = lp->invB;
 4057               		.loc 3 221 0
 4058 1652 8F81      		ldd r24,Y+7
 4059 1654 9885      		ldd r25,Y+8
 4060 1656 8854      		subi r24,72
 4061 1658 9D4F      		sbci r25,-3
 4062 165a DC01      		movw r26,r24
 4063 165c 8D91      		ld r24,X+
 4064 165e 9C91      		ld r25,X
 4065 1660 9C83      		std Y+4,r25
 4066 1662 8B83      		std Y+3,r24
 222:lp_solve_5.5/bfp/bfp_LUSOL/lp_LUSOL.c **** 
 223:lp_solve_5.5/bfp/bfp_LUSOL/lp_LUSOL.c ****   /* Reset the factorization engine */
 224:lp_solve_5.5/bfp/bfp_LUSOL/lp_LUSOL.c ****   LUSOL_clear(invB->LUSOL, TRUE);
 4067               		.loc 3 224 0
 4068 1664 8B81      		ldd r24,Y+3
 4069 1666 9C81      		ldd r25,Y+4
 4070 1668 FC01      		movw r30,r24
 4071 166a 8085      		ldd r24,Z+8
 4072 166c 9185      		ldd r25,Z+9
 4073 166e 61E0      		ldi r22,lo8(1)
 4074 1670 0E94 0000 		call LUSOL_clear
 225:lp_solve_5.5/bfp/bfp_LUSOL/lp_LUSOL.c **** 
 226:lp_solve_5.5/bfp/bfp_LUSOL/lp_LUSOL.c ****   /* Add the basis columns */
 227:lp_solve_5.5/bfp/bfp_LUSOL/lp_LUSOL.c ****   lp->invB->set_Bidentity = TRUE;
 4075               		.loc 3 227 0
 4076 1674 8F81      		ldd r24,Y+7
 4077 1676 9885      		ldd r25,Y+8
 4078 1678 8854      		subi r24,72
 4079 167a 9D4F      		sbci r25,-3
 4080 167c DC01      		movw r26,r24
 4081 167e 8D91      		ld r24,X+
 4082 1680 9C91      		ld r25,X
 4083 1682 21E0      		ldi r18,lo8(1)
 4084 1684 FC01      		movw r30,r24
 4085 1686 25AB      		std Z+53,r18
 228:lp_solve_5.5/bfp/bfp_LUSOL/lp_LUSOL.c ****   for(i = 1; i <= invB->dimcount; i++) {
 4086               		.loc 3 228 0
 4087 1688 81E0      		ldi r24,lo8(1)
 4088 168a 90E0      		ldi r25,0
 4089 168c 9A83      		std Y+2,r25
 4090 168e 8983      		std Y+1,r24
 4091 1690 00C0      		rjmp .L135
 4092               	.L136:
 229:lp_solve_5.5/bfp/bfp_LUSOL/lp_LUSOL.c ****     nz = lp->get_basiscolumn(lp, i, rownum, invB->value);
 4093               		.loc 3 229 0 discriminator 3
 4094 1692 8F81      		ldd r24,Y+7
 4095 1694 9885      		ldd r25,Y+8
 4096 1696 8851      		subi r24,24
 4097 1698 9C4F      		sbci r25,-4
 4098 169a DC01      		movw r26,r24
 4099 169c ED91      		ld r30,X+
 4100 169e FC91      		ld r31,X
 4101 16a0 8B81      		ldd r24,Y+3
 4102 16a2 9C81      		ldd r25,Y+4
 4103 16a4 DC01      		movw r26,r24
 4104 16a6 5096      		adiw r26,16
 4105 16a8 2D91      		ld r18,X+
 4106 16aa 3C91      		ld r19,X
 4107 16ac 5197      		sbiw r26,16+1
 4108 16ae 4985      		ldd r20,Y+9
 4109 16b0 5A85      		ldd r21,Y+10
 4110 16b2 6981      		ldd r22,Y+1
 4111 16b4 7A81      		ldd r23,Y+2
 4112 16b6 8F81      		ldd r24,Y+7
 4113 16b8 9885      		ldd r25,Y+8
 4114 16ba 0995      		icall
 4115 16bc 9E83      		std Y+6,r25
 4116 16be 8D83      		std Y+5,r24
 230:lp_solve_5.5/bfp/bfp_LUSOL/lp_LUSOL.c ****     LUSOL_loadColumn(invB->LUSOL, rownum, i, invB->value, nz, 0);
 4117               		.loc 3 230 0 discriminator 3
 4118 16c0 8B81      		ldd r24,Y+3
 4119 16c2 9C81      		ldd r25,Y+4
 4120 16c4 FC01      		movw r30,r24
 4121 16c6 2089      		ldd r18,Z+16
 4122 16c8 3189      		ldd r19,Z+17
 4123 16ca 8B81      		ldd r24,Y+3
 4124 16cc 9C81      		ldd r25,Y+4
 4125 16ce DC01      		movw r26,r24
 4126 16d0 1896      		adiw r26,8
 4127 16d2 8D91      		ld r24,X+
 4128 16d4 9C91      		ld r25,X
 4129 16d6 1997      		sbiw r26,8+1
 4130 16d8 ED81      		ldd r30,Y+5
 4131 16da FE81      		ldd r31,Y+6
 4132 16dc 4981      		ldd r20,Y+1
 4133 16de 5A81      		ldd r21,Y+2
 4134 16e0 6985      		ldd r22,Y+9
 4135 16e2 7A85      		ldd r23,Y+10
 4136 16e4 E12C      		mov r14,__zero_reg__
 4137 16e6 F12C      		mov r15,__zero_reg__
 4138 16e8 8F01      		movw r16,r30
 4139 16ea 0E94 0000 		call LUSOL_loadColumn
 228:lp_solve_5.5/bfp/bfp_LUSOL/lp_LUSOL.c ****   for(i = 1; i <= invB->dimcount; i++) {
 4140               		.loc 3 228 0 discriminator 3
 4141 16ee 8981      		ldd r24,Y+1
 4142 16f0 9A81      		ldd r25,Y+2
 4143 16f2 0196      		adiw r24,1
 4144 16f4 9A83      		std Y+2,r25
 4145 16f6 8983      		std Y+1,r24
 4146               	.L135:
 228:lp_solve_5.5/bfp/bfp_LUSOL/lp_LUSOL.c ****   for(i = 1; i <= invB->dimcount; i++) {
 4147               		.loc 3 228 0 is_stmt 0 discriminator 1
 4148 16f8 8B81      		ldd r24,Y+3
 4149 16fa 9C81      		ldd r25,Y+4
 4150 16fc FC01      		movw r30,r24
 4151 16fe 2281      		ldd r18,Z+2
 4152 1700 3381      		ldd r19,Z+3
 4153 1702 8981      		ldd r24,Y+1
 4154 1704 9A81      		ldd r25,Y+2
 4155 1706 2817      		cp r18,r24
 4156 1708 3907      		cpc r19,r25
 4157 170a 04F4      		brge .L136
 231:lp_solve_5.5/bfp/bfp_LUSOL/lp_LUSOL.c ****   }
 232:lp_solve_5.5/bfp/bfp_LUSOL/lp_LUSOL.c ****   lp->invB->set_Bidentity = FALSE;
 4158               		.loc 3 232 0 is_stmt 1
 4159 170c 8F81      		ldd r24,Y+7
 4160 170e 9885      		ldd r25,Y+8
 4161 1710 8854      		subi r24,72
 4162 1712 9D4F      		sbci r25,-3
 4163 1714 DC01      		movw r26,r24
 4164 1716 8D91      		ld r24,X+
 4165 1718 9C91      		ld r25,X
 4166 171a FC01      		movw r30,r24
 4167 171c 15AA      		std Z+53,__zero_reg__
 233:lp_solve_5.5/bfp/bfp_LUSOL/lp_LUSOL.c **** 
 234:lp_solve_5.5/bfp/bfp_LUSOL/lp_LUSOL.c ****   /* Factorize */
 235:lp_solve_5.5/bfp/bfp_LUSOL/lp_LUSOL.c ****   i = LUSOL_factorize(invB->LUSOL);
 4168               		.loc 3 235 0
 4169 171e 8B81      		ldd r24,Y+3
 4170 1720 9C81      		ldd r25,Y+4
 4171 1722 DC01      		movw r26,r24
 4172 1724 1896      		adiw r26,8
 4173 1726 8D91      		ld r24,X+
 4174 1728 9C91      		ld r25,X
 4175 172a 1997      		sbiw r26,8+1
 4176 172c 0E94 0000 		call LUSOL_factorize
 4177 1730 9A83      		std Y+2,r25
 4178 1732 8983      		std Y+1,r24
 236:lp_solve_5.5/bfp/bfp_LUSOL/lp_LUSOL.c **** 
 237:lp_solve_5.5/bfp/bfp_LUSOL/lp_LUSOL.c ****   return( i );
 4179               		.loc 3 237 0
 4180 1734 8981      		ldd r24,Y+1
 4181 1736 9A81      		ldd r25,Y+2
 4182               	/* epilogue start */
 238:lp_solve_5.5/bfp/bfp_LUSOL/lp_LUSOL.c **** }
 4183               		.loc 3 238 0
 4184 1738 2A96      		adiw r28,10
 4185 173a 0FB6      		in __tmp_reg__,__SREG__
 4186 173c F894      		cli
 4187 173e DEBF      		out __SP_H__,r29
 4188 1740 0FBE      		out __SREG__,__tmp_reg__
 4189 1742 CDBF      		out __SP_L__,r28
 4190 1744 DF91      		pop r29
 4191 1746 CF91      		pop r28
 4192 1748 1F91      		pop r17
 4193 174a 0F91      		pop r16
 4194 174c FF90      		pop r15
 4195 174e EF90      		pop r14
 4196 1750 0895      		ret
 4197               		.cfi_endproc
 4198               	.LFE38:
 4200               	.global	bfp_LUSOLfactorize
 4202               	bfp_LUSOLfactorize:
 4203               	.LFB39:
 239:lp_solve_5.5/bfp/bfp_LUSOL/lp_LUSOL.c **** 
 240:lp_solve_5.5/bfp/bfp_LUSOL/lp_LUSOL.c **** 
 241:lp_solve_5.5/bfp/bfp_LUSOL/lp_LUSOL.c **** /* LOCAL HELPER ROUTINE */
 242:lp_solve_5.5/bfp/bfp_LUSOL/lp_LUSOL.c **** int bfp_LUSOLfactorize(lprec *lp, MYBOOL *usedpos, int *rownum, int *singular)
 243:lp_solve_5.5/bfp/bfp_LUSOL/lp_LUSOL.c **** {
 4204               		.loc 3 243 0
 4205               		.cfi_startproc
 4206 1752 EF92      		push r14
 4207               	.LCFI170:
 4208               		.cfi_def_cfa_offset 3
 4209               		.cfi_offset 14, -2
 4210 1754 FF92      		push r15
 4211               	.LCFI171:
 4212               		.cfi_def_cfa_offset 4
 4213               		.cfi_offset 15, -3
 4214 1756 0F93      		push r16
 4215               	.LCFI172:
 4216               		.cfi_def_cfa_offset 5
 4217               		.cfi_offset 16, -4
 4218 1758 1F93      		push r17
 4219               	.LCFI173:
 4220               		.cfi_def_cfa_offset 6
 4221               		.cfi_offset 17, -5
 4222 175a CF93      		push r28
 4223               	.LCFI174:
 4224               		.cfi_def_cfa_offset 7
 4225               		.cfi_offset 28, -6
 4226 175c DF93      		push r29
 4227               	.LCFI175:
 4228               		.cfi_def_cfa_offset 8
 4229               		.cfi_offset 29, -7
 4230 175e CDB7      		in r28,__SP_L__
 4231 1760 DEB7      		in r29,__SP_H__
 4232               	.LCFI176:
 4233               		.cfi_def_cfa_register 28
 4234 1762 6497      		sbiw r28,20
 4235               	.LCFI177:
 4236               		.cfi_def_cfa_offset 28
 4237 1764 0FB6      		in __tmp_reg__,__SREG__
 4238 1766 F894      		cli
 4239 1768 DEBF      		out __SP_H__,r29
 4240 176a 0FBE      		out __SREG__,__tmp_reg__
 4241 176c CDBF      		out __SP_L__,r28
 4242               	/* prologue: function */
 4243               	/* frame size = 20 */
 4244               	/* stack size = 26 */
 4245               	.L__stack_usage = 26
 4246 176e 9E87      		std Y+14,r25
 4247 1770 8D87      		std Y+13,r24
 4248 1772 788B      		std Y+16,r23
 4249 1774 6F87      		std Y+15,r22
 4250 1776 5A8B      		std Y+18,r21
 4251 1778 498B      		std Y+17,r20
 4252 177a 3C8B      		std Y+20,r19
 4253 177c 2B8B      		std Y+19,r18
 244:lp_solve_5.5/bfp/bfp_LUSOL/lp_LUSOL.c ****   int    i, j, nz, deltarows = bfp_rowoffset(lp);
 4254               		.loc 3 244 0
 4255 177e 8D85      		ldd r24,Y+13
 4256 1780 9E85      		ldd r25,Y+14
 4257 1782 0E94 0000 		call bfp_rowoffset
 4258 1786 9E83      		std Y+6,r25
 4259 1788 8D83      		std Y+5,r24
 245:lp_solve_5.5/bfp/bfp_LUSOL/lp_LUSOL.c ****   INVrec *invB = lp->invB;
 4260               		.loc 3 245 0
 4261 178a 8D85      		ldd r24,Y+13
 4262 178c 9E85      		ldd r25,Y+14
 4263 178e 8854      		subi r24,72
 4264 1790 9D4F      		sbci r25,-3
 4265 1792 DC01      		movw r26,r24
 4266 1794 8D91      		ld r24,X+
 4267 1796 9C91      		ld r25,X
 4268 1798 9887      		std Y+8,r25
 4269 179a 8F83      		std Y+7,r24
 246:lp_solve_5.5/bfp/bfp_LUSOL/lp_LUSOL.c **** 
 247:lp_solve_5.5/bfp/bfp_LUSOL/lp_LUSOL.c ****   /* Handle normal, presumed nonsingular case */
 248:lp_solve_5.5/bfp/bfp_LUSOL/lp_LUSOL.c ****   if(singular == NULL) {
 4270               		.loc 3 248 0
 4271 179c 8B89      		ldd r24,Y+19
 4272 179e 9C89      		ldd r25,Y+20
 4273 17a0 892B      		or r24,r25
 4274 17a2 01F0      		breq .+2
 4275 17a4 00C0      		rjmp .L139
 249:lp_solve_5.5/bfp/bfp_LUSOL/lp_LUSOL.c **** 
 250:lp_solve_5.5/bfp/bfp_LUSOL/lp_LUSOL.c ****   /* Optionally do a symbolic minimum degree ordering;
 251:lp_solve_5.5/bfp/bfp_LUSOL/lp_LUSOL.c ****      not that slack variables should not be processed */
 252:lp_solve_5.5/bfp/bfp_LUSOL/lp_LUSOL.c **** /*#define UsePreprocessMDO*/
 253:lp_solve_5.5/bfp/bfp_LUSOL/lp_LUSOL.c **** #ifdef UsePreprocessMDO
 254:lp_solve_5.5/bfp/bfp_LUSOL/lp_LUSOL.c ****     int *mdo;
 255:lp_solve_5.5/bfp/bfp_LUSOL/lp_LUSOL.c ****     mdo = lp->bfp_createMDO(lp, usedpos, lp->rows, TRUE);
 256:lp_solve_5.5/bfp/bfp_LUSOL/lp_LUSOL.c ****     if(mdo != NULL) {
 257:lp_solve_5.5/bfp/bfp_LUSOL/lp_LUSOL.c ****       for(i = 1; i <= lp->rows; i++)
 258:lp_solve_5.5/bfp/bfp_LUSOL/lp_LUSOL.c ****         lp->set_basisvar(lp, i, mdo[i]);
 259:lp_solve_5.5/bfp/bfp_LUSOL/lp_LUSOL.c ****       FREE(mdo);
 260:lp_solve_5.5/bfp/bfp_LUSOL/lp_LUSOL.c ****     }
 261:lp_solve_5.5/bfp/bfp_LUSOL/lp_LUSOL.c **** #endif
 262:lp_solve_5.5/bfp/bfp_LUSOL/lp_LUSOL.c **** 
 263:lp_solve_5.5/bfp/bfp_LUSOL/lp_LUSOL.c ****     /* Reset the factorization engine */
 264:lp_solve_5.5/bfp/bfp_LUSOL/lp_LUSOL.c ****     LUSOL_clear(invB->LUSOL, TRUE);
 4276               		.loc 3 264 0
 4277 17a6 8F81      		ldd r24,Y+7
 4278 17a8 9885      		ldd r25,Y+8
 4279 17aa FC01      		movw r30,r24
 4280 17ac 8085      		ldd r24,Z+8
 4281 17ae 9185      		ldd r25,Z+9
 4282 17b0 61E0      		ldi r22,lo8(1)
 4283 17b2 0E94 0000 		call LUSOL_clear
 265:lp_solve_5.5/bfp/bfp_LUSOL/lp_LUSOL.c **** 
 266:lp_solve_5.5/bfp/bfp_LUSOL/lp_LUSOL.c ****     /* Add the basis columns in the original order */
 267:lp_solve_5.5/bfp/bfp_LUSOL/lp_LUSOL.c ****     for(i = 1; i <= invB->dimcount; i++) {
 4284               		.loc 3 267 0
 4285 17b6 81E0      		ldi r24,lo8(1)
 4286 17b8 90E0      		ldi r25,0
 4287 17ba 9A83      		std Y+2,r25
 4288 17bc 8983      		std Y+1,r24
 4289 17be 00C0      		rjmp .L140
 4290               	.L142:
 268:lp_solve_5.5/bfp/bfp_LUSOL/lp_LUSOL.c ****       nz = lp->get_basiscolumn(lp, i, rownum, invB->value);
 4291               		.loc 3 268 0
 4292 17c0 8D85      		ldd r24,Y+13
 4293 17c2 9E85      		ldd r25,Y+14
 4294 17c4 8851      		subi r24,24
 4295 17c6 9C4F      		sbci r25,-4
 4296 17c8 DC01      		movw r26,r24
 4297 17ca ED91      		ld r30,X+
 4298 17cc FC91      		ld r31,X
 4299 17ce 8F81      		ldd r24,Y+7
 4300 17d0 9885      		ldd r25,Y+8
 4301 17d2 DC01      		movw r26,r24
 4302 17d4 5096      		adiw r26,16
 4303 17d6 2D91      		ld r18,X+
 4304 17d8 3C91      		ld r19,X
 4305 17da 5197      		sbiw r26,16+1
 4306 17dc 4989      		ldd r20,Y+17
 4307 17de 5A89      		ldd r21,Y+18
 4308 17e0 6981      		ldd r22,Y+1
 4309 17e2 7A81      		ldd r23,Y+2
 4310 17e4 8D85      		ldd r24,Y+13
 4311 17e6 9E85      		ldd r25,Y+14
 4312 17e8 0995      		icall
 4313 17ea 9A87      		std Y+10,r25
 4314 17ec 8987      		std Y+9,r24
 269:lp_solve_5.5/bfp/bfp_LUSOL/lp_LUSOL.c ****       LUSOL_loadColumn(invB->LUSOL, rownum, i, invB->value, nz, 0);
 4315               		.loc 3 269 0
 4316 17ee 8F81      		ldd r24,Y+7
 4317 17f0 9885      		ldd r25,Y+8
 4318 17f2 FC01      		movw r30,r24
 4319 17f4 2089      		ldd r18,Z+16
 4320 17f6 3189      		ldd r19,Z+17
 4321 17f8 8F81      		ldd r24,Y+7
 4322 17fa 9885      		ldd r25,Y+8
 4323 17fc DC01      		movw r26,r24
 4324 17fe 1896      		adiw r26,8
 4325 1800 8D91      		ld r24,X+
 4326 1802 9C91      		ld r25,X
 4327 1804 1997      		sbiw r26,8+1
 4328 1806 E985      		ldd r30,Y+9
 4329 1808 FA85      		ldd r31,Y+10
 4330 180a 4981      		ldd r20,Y+1
 4331 180c 5A81      		ldd r21,Y+2
 4332 180e 6989      		ldd r22,Y+17
 4333 1810 7A89      		ldd r23,Y+18
 4334 1812 E12C      		mov r14,__zero_reg__
 4335 1814 F12C      		mov r15,__zero_reg__
 4336 1816 8F01      		movw r16,r30
 4337 1818 0E94 0000 		call LUSOL_loadColumn
 270:lp_solve_5.5/bfp/bfp_LUSOL/lp_LUSOL.c ****       if((i > deltarows) && (lp->var_basic[i-deltarows] > lp->rows))
 4338               		.loc 3 270 0
 4339 181c 2981      		ldd r18,Y+1
 4340 181e 3A81      		ldd r19,Y+2
 4341 1820 8D81      		ldd r24,Y+5
 4342 1822 9E81      		ldd r25,Y+6
 4343 1824 8217      		cp r24,r18
 4344 1826 9307      		cpc r25,r19
 4345 1828 04F4      		brge .L141
 4346               		.loc 3 270 0 is_stmt 0 discriminator 1
 4347 182a 8D85      		ldd r24,Y+13
 4348 182c 9E85      		ldd r25,Y+14
 4349 182e 8453      		subi r24,52
 4350 1830 9D4F      		sbci r25,-3
 4351 1832 FC01      		movw r30,r24
 4352 1834 2081      		ld r18,Z
 4353 1836 3181      		ldd r19,Z+1
 4354 1838 4981      		ldd r20,Y+1
 4355 183a 5A81      		ldd r21,Y+2
 4356 183c 8D81      		ldd r24,Y+5
 4357 183e 9E81      		ldd r25,Y+6
 4358 1840 BA01      		movw r22,r20
 4359 1842 681B      		sub r22,r24
 4360 1844 790B      		sbc r23,r25
 4361 1846 CB01      		movw r24,r22
 4362 1848 880F      		lsl r24
 4363 184a 991F      		rol r25
 4364 184c 820F      		add r24,r18
 4365 184e 931F      		adc r25,r19
 4366 1850 DC01      		movw r26,r24
 4367 1852 2D91      		ld r18,X+
 4368 1854 3C91      		ld r19,X
 4369 1856 8D85      		ldd r24,Y+13
 4370 1858 9E85      		ldd r25,Y+14
 4371 185a 8651      		subi r24,22
 4372 185c 9E4F      		sbci r25,-2
 4373 185e FC01      		movw r30,r24
 4374 1860 8081      		ld r24,Z
 4375 1862 9181      		ldd r25,Z+1
 4376 1864 8217      		cp r24,r18
 4377 1866 9307      		cpc r25,r19
 4378 1868 04F4      		brge .L141
 271:lp_solve_5.5/bfp/bfp_LUSOL/lp_LUSOL.c ****         lp->invB->user_colcount++;
 4379               		.loc 3 271 0 is_stmt 1
 4380 186a 8D85      		ldd r24,Y+13
 4381 186c 9E85      		ldd r25,Y+14
 4382 186e 8854      		subi r24,72
 4383 1870 9D4F      		sbci r25,-3
 4384 1872 DC01      		movw r26,r24
 4385 1874 8D91      		ld r24,X+
 4386 1876 9C91      		ld r25,X
 4387 1878 FC01      		movw r30,r24
 4388 187a 2681      		ldd r18,Z+6
 4389 187c 3781      		ldd r19,Z+7
 4390 187e 2F5F      		subi r18,-1
 4391 1880 3F4F      		sbci r19,-1
 4392 1882 DC01      		movw r26,r24
 4393 1884 1796      		adiw r26,6+1
 4394 1886 3C93      		st X,r19
 4395 1888 2E93      		st -X,r18
 4396 188a 1697      		sbiw r26,6
 4397               	.L141:
 267:lp_solve_5.5/bfp/bfp_LUSOL/lp_LUSOL.c ****       nz = lp->get_basiscolumn(lp, i, rownum, invB->value);
 4398               		.loc 3 267 0 discriminator 2
 4399 188c 8981      		ldd r24,Y+1
 4400 188e 9A81      		ldd r25,Y+2
 4401 1890 0196      		adiw r24,1
 4402 1892 9A83      		std Y+2,r25
 4403 1894 8983      		std Y+1,r24
 4404               	.L140:
 267:lp_solve_5.5/bfp/bfp_LUSOL/lp_LUSOL.c ****       nz = lp->get_basiscolumn(lp, i, rownum, invB->value);
 4405               		.loc 3 267 0 is_stmt 0 discriminator 1
 4406 1896 8F81      		ldd r24,Y+7
 4407 1898 9885      		ldd r25,Y+8
 4408 189a FC01      		movw r30,r24
 4409 189c 2281      		ldd r18,Z+2
 4410 189e 3381      		ldd r19,Z+3
 4411 18a0 8981      		ldd r24,Y+1
 4412 18a2 9A81      		ldd r25,Y+2
 4413 18a4 2817      		cp r18,r24
 4414 18a6 3907      		cpc r19,r25
 4415 18a8 04F0      		brlt .+2
 4416 18aa 00C0      		rjmp .L142
 272:lp_solve_5.5/bfp/bfp_LUSOL/lp_LUSOL.c ****     }
 273:lp_solve_5.5/bfp/bfp_LUSOL/lp_LUSOL.c **** 
 274:lp_solve_5.5/bfp/bfp_LUSOL/lp_LUSOL.c ****     /* Factorize */
 275:lp_solve_5.5/bfp/bfp_LUSOL/lp_LUSOL.c ****     i = LUSOL_factorize(invB->LUSOL);
 4417               		.loc 3 275 0 is_stmt 1
 4418 18ac 8F81      		ldd r24,Y+7
 4419 18ae 9885      		ldd r25,Y+8
 4420 18b0 DC01      		movw r26,r24
 4421 18b2 1896      		adiw r26,8
 4422 18b4 8D91      		ld r24,X+
 4423 18b6 9C91      		ld r25,X
 4424 18b8 1997      		sbiw r26,8+1
 4425 18ba 0E94 0000 		call LUSOL_factorize
 4426 18be 9A83      		std Y+2,r25
 4427 18c0 8983      		std Y+1,r24
 4428 18c2 00C0      		rjmp .L143
 4429               	.L139:
 4430               	.LBB6:
 276:lp_solve_5.5/bfp/bfp_LUSOL/lp_LUSOL.c ****   }
 277:lp_solve_5.5/bfp/bfp_LUSOL/lp_LUSOL.c **** 
 278:lp_solve_5.5/bfp/bfp_LUSOL/lp_LUSOL.c ****   /* Handle case where a column may be singular */
 279:lp_solve_5.5/bfp/bfp_LUSOL/lp_LUSOL.c ****   else {
 280:lp_solve_5.5/bfp/bfp_LUSOL/lp_LUSOL.c ****     LLrec *map;
 281:lp_solve_5.5/bfp/bfp_LUSOL/lp_LUSOL.c **** 
 282:lp_solve_5.5/bfp/bfp_LUSOL/lp_LUSOL.c ****     /* Reset the factorization engine */
 283:lp_solve_5.5/bfp/bfp_LUSOL/lp_LUSOL.c ****     i = bfp_LUSOLidentity(lp, rownum);
 4431               		.loc 3 283 0
 4432 18c4 2989      		ldd r18,Y+17
 4433 18c6 3A89      		ldd r19,Y+18
 4434 18c8 8D85      		ldd r24,Y+13
 4435 18ca 9E85      		ldd r25,Y+14
 4436 18cc B901      		movw r22,r18
 4437 18ce 0E94 0000 		call bfp_LUSOLidentity
 4438 18d2 9A83      		std Y+2,r25
 4439 18d4 8983      		std Y+1,r24
 284:lp_solve_5.5/bfp/bfp_LUSOL/lp_LUSOL.c **** 
 285:lp_solve_5.5/bfp/bfp_LUSOL/lp_LUSOL.c ****     /* Build map of available columns */
 286:lp_solve_5.5/bfp/bfp_LUSOL/lp_LUSOL.c ****     nz = createLink(lp->rows, &map, NULL);
 4440               		.loc 3 286 0
 4441 18d6 8D85      		ldd r24,Y+13
 4442 18d8 9E85      		ldd r25,Y+14
 4443 18da 8651      		subi r24,22
 4444 18dc 9E4F      		sbci r25,-2
 4445 18de FC01      		movw r30,r24
 4446 18e0 8081      		ld r24,Z
 4447 18e2 9181      		ldd r25,Z+1
 4448 18e4 9E01      		movw r18,r28
 4449 18e6 255F      		subi r18,-11
 4450 18e8 3F4F      		sbci r19,-1
 4451 18ea 40E0      		ldi r20,0
 4452 18ec 50E0      		ldi r21,0
 4453 18ee B901      		movw r22,r18
 4454 18f0 0E94 0000 		call createLink
 4455 18f4 9A87      		std Y+10,r25
 4456 18f6 8987      		std Y+9,r24
 287:lp_solve_5.5/bfp/bfp_LUSOL/lp_LUSOL.c ****     for(i = 1; i <= lp->rows; i++) {
 4457               		.loc 3 287 0
 4458 18f8 81E0      		ldi r24,lo8(1)
 4459 18fa 90E0      		ldi r25,0
 4460 18fc 9A83      		std Y+2,r25
 4461 18fe 8983      		std Y+1,r24
 4462 1900 00C0      		rjmp .L144
 4463               	.L146:
 288:lp_solve_5.5/bfp/bfp_LUSOL/lp_LUSOL.c ****       if(lp->var_basic[i] <= lp->rows)
 4464               		.loc 3 288 0
 4465 1902 8D85      		ldd r24,Y+13
 4466 1904 9E85      		ldd r25,Y+14
 4467 1906 8453      		subi r24,52
 4468 1908 9D4F      		sbci r25,-3
 4469 190a DC01      		movw r26,r24
 4470 190c 2D91      		ld r18,X+
 4471 190e 3C91      		ld r19,X
 4472 1910 8981      		ldd r24,Y+1
 4473 1912 9A81      		ldd r25,Y+2
 4474 1914 880F      		lsl r24
 4475 1916 991F      		rol r25
 4476 1918 820F      		add r24,r18
 4477 191a 931F      		adc r25,r19
 4478 191c FC01      		movw r30,r24
 4479 191e 2081      		ld r18,Z
 4480 1920 3181      		ldd r19,Z+1
 4481 1922 8D85      		ldd r24,Y+13
 4482 1924 9E85      		ldd r25,Y+14
 4483 1926 8651      		subi r24,22
 4484 1928 9E4F      		sbci r25,-2
 4485 192a DC01      		movw r26,r24
 4486 192c 8D91      		ld r24,X+
 4487 192e 9C91      		ld r25,X
 4488 1930 8217      		cp r24,r18
 4489 1932 9307      		cpc r25,r19
 4490 1934 04F0      		brlt .L145
 289:lp_solve_5.5/bfp/bfp_LUSOL/lp_LUSOL.c ****         removeLink(map, i);
 4491               		.loc 3 289 0
 4492 1936 8B85      		ldd r24,Y+11
 4493 1938 9C85      		ldd r25,Y+12
 4494 193a 2981      		ldd r18,Y+1
 4495 193c 3A81      		ldd r19,Y+2
 4496 193e B901      		movw r22,r18
 4497 1940 0E94 0000 		call removeLink
 4498               	.L145:
 287:lp_solve_5.5/bfp/bfp_LUSOL/lp_LUSOL.c ****     for(i = 1; i <= lp->rows; i++) {
 4499               		.loc 3 287 0 discriminator 2
 4500 1944 8981      		ldd r24,Y+1
 4501 1946 9A81      		ldd r25,Y+2
 4502 1948 0196      		adiw r24,1
 4503 194a 9A83      		std Y+2,r25
 4504 194c 8983      		std Y+1,r24
 4505               	.L144:
 287:lp_solve_5.5/bfp/bfp_LUSOL/lp_LUSOL.c ****     for(i = 1; i <= lp->rows; i++) {
 4506               		.loc 3 287 0 is_stmt 0 discriminator 1
 4507 194e 8D85      		ldd r24,Y+13
 4508 1950 9E85      		ldd r25,Y+14
 4509 1952 8651      		subi r24,22
 4510 1954 9E4F      		sbci r25,-2
 4511 1956 FC01      		movw r30,r24
 4512 1958 2081      		ld r18,Z
 4513 195a 3181      		ldd r19,Z+1
 4514 195c 8981      		ldd r24,Y+1
 4515 195e 9A81      		ldd r25,Y+2
 4516 1960 2817      		cp r18,r24
 4517 1962 3907      		cpc r19,r25
 4518 1964 04F4      		brge .L146
 290:lp_solve_5.5/bfp/bfp_LUSOL/lp_LUSOL.c ****     }
 291:lp_solve_5.5/bfp/bfp_LUSOL/lp_LUSOL.c **** 
 292:lp_solve_5.5/bfp/bfp_LUSOL/lp_LUSOL.c ****     /* Rebuild the basis, column by column, while skipping slack columns */
 293:lp_solve_5.5/bfp/bfp_LUSOL/lp_LUSOL.c ****     j = firstActiveLink(map);
 4519               		.loc 3 293 0 is_stmt 1
 4520 1966 8B85      		ldd r24,Y+11
 4521 1968 9C85      		ldd r25,Y+12
 4522 196a 0E94 0000 		call firstActiveLink
 4523 196e 9C83      		std Y+4,r25
 4524 1970 8B83      		std Y+3,r24
 294:lp_solve_5.5/bfp/bfp_LUSOL/lp_LUSOL.c ****     for(i = 1; i <= lp->rows; i++) {
 4525               		.loc 3 294 0
 4526 1972 81E0      		ldi r24,lo8(1)
 4527 1974 90E0      		ldi r25,0
 4528 1976 9A83      		std Y+2,r25
 4529 1978 8983      		std Y+1,r24
 4530 197a 00C0      		rjmp .L147
 4531               	.L152:
 295:lp_solve_5.5/bfp/bfp_LUSOL/lp_LUSOL.c ****       if(lp->var_basic[i] <= lp->rows)
 4532               		.loc 3 295 0
 4533 197c 8D85      		ldd r24,Y+13
 4534 197e 9E85      		ldd r25,Y+14
 4535 1980 8453      		subi r24,52
 4536 1982 9D4F      		sbci r25,-3
 4537 1984 DC01      		movw r26,r24
 4538 1986 2D91      		ld r18,X+
 4539 1988 3C91      		ld r19,X
 4540 198a 8981      		ldd r24,Y+1
 4541 198c 9A81      		ldd r25,Y+2
 4542 198e 880F      		lsl r24
 4543 1990 991F      		rol r25
 4544 1992 820F      		add r24,r18
 4545 1994 931F      		adc r25,r19
 4546 1996 FC01      		movw r30,r24
 4547 1998 2081      		ld r18,Z
 4548 199a 3181      		ldd r19,Z+1
 4549 199c 8D85      		ldd r24,Y+13
 4550 199e 9E85      		ldd r25,Y+14
 4551 19a0 8651      		subi r24,22
 4552 19a2 9E4F      		sbci r25,-2
 4553 19a4 DC01      		movw r26,r24
 4554 19a6 8D91      		ld r24,X+
 4555 19a8 9C91      		ld r25,X
 4556 19aa 8217      		cp r24,r18
 4557 19ac 9307      		cpc r25,r19
 4558 19ae 04F0      		brlt .+2
 4559 19b0 00C0      		rjmp .L154
 296:lp_solve_5.5/bfp/bfp_LUSOL/lp_LUSOL.c ****         continue;
 297:lp_solve_5.5/bfp/bfp_LUSOL/lp_LUSOL.c ****       nz = bfp_LUSOLsetcolumn(lp, j+deltarows, lp->var_basic[i]);
 4560               		.loc 3 297 0
 4561 19b2 8D85      		ldd r24,Y+13
 4562 19b4 9E85      		ldd r25,Y+14
 4563 19b6 8453      		subi r24,52
 4564 19b8 9D4F      		sbci r25,-3
 4565 19ba FC01      		movw r30,r24
 4566 19bc 2081      		ld r18,Z
 4567 19be 3181      		ldd r19,Z+1
 4568 19c0 8981      		ldd r24,Y+1
 4569 19c2 9A81      		ldd r25,Y+2
 4570 19c4 880F      		lsl r24
 4571 19c6 991F      		rol r25
 4572 19c8 820F      		add r24,r18
 4573 19ca 931F      		adc r25,r19
 4574 19cc DC01      		movw r26,r24
 4575 19ce 4D91      		ld r20,X+
 4576 19d0 5C91      		ld r21,X
 4577 19d2 2B81      		ldd r18,Y+3
 4578 19d4 3C81      		ldd r19,Y+4
 4579 19d6 8D81      		ldd r24,Y+5
 4580 19d8 9E81      		ldd r25,Y+6
 4581 19da 280F      		add r18,r24
 4582 19dc 391F      		adc r19,r25
 4583 19de 8D85      		ldd r24,Y+13
 4584 19e0 9E85      		ldd r25,Y+14
 4585 19e2 B901      		movw r22,r18
 4586 19e4 0E94 0000 		call bfp_LUSOLsetcolumn
 4587 19e8 9A87      		std Y+10,r25
 4588 19ea 8987      		std Y+9,r24
 298:lp_solve_5.5/bfp/bfp_LUSOL/lp_LUSOL.c ****       if(nz == LUSOL_INFORM_LUSUCCESS)
 4589               		.loc 3 298 0
 4590 19ec 8985      		ldd r24,Y+9
 4591 19ee 9A85      		ldd r25,Y+10
 4592 19f0 892B      		or r24,r25
 4593 19f2 01F4      		brne .L150
 299:lp_solve_5.5/bfp/bfp_LUSOL/lp_LUSOL.c ****         lp->invB->user_colcount++;
 4594               		.loc 3 299 0
 4595 19f4 8D85      		ldd r24,Y+13
 4596 19f6 9E85      		ldd r25,Y+14
 4597 19f8 8854      		subi r24,72
 4598 19fa 9D4F      		sbci r25,-3
 4599 19fc FC01      		movw r30,r24
 4600 19fe 8081      		ld r24,Z
 4601 1a00 9181      		ldd r25,Z+1
 4602 1a02 DC01      		movw r26,r24
 4603 1a04 1696      		adiw r26,6
 4604 1a06 2D91      		ld r18,X+
 4605 1a08 3C91      		ld r19,X
 4606 1a0a 1797      		sbiw r26,6+1
 4607 1a0c 2F5F      		subi r18,-1
 4608 1a0e 3F4F      		sbci r19,-1
 4609 1a10 FC01      		movw r30,r24
 4610 1a12 3783      		std Z+7,r19
 4611 1a14 2683      		std Z+6,r18
 4612 1a16 00C0      		rjmp .L151
 4613               	.L150:
 300:lp_solve_5.5/bfp/bfp_LUSOL/lp_LUSOL.c ****       else {
 301:lp_solve_5.5/bfp/bfp_LUSOL/lp_LUSOL.c ****         nz = bfp_LUSOLsetcolumn(lp, j+deltarows, i);
 4614               		.loc 3 301 0
 4615 1a18 2B81      		ldd r18,Y+3
 4616 1a1a 3C81      		ldd r19,Y+4
 4617 1a1c 8D81      		ldd r24,Y+5
 4618 1a1e 9E81      		ldd r25,Y+6
 4619 1a20 280F      		add r18,r24
 4620 1a22 391F      		adc r19,r25
 4621 1a24 4981      		ldd r20,Y+1
 4622 1a26 5A81      		ldd r21,Y+2
 4623 1a28 8D85      		ldd r24,Y+13
 4624 1a2a 9E85      		ldd r25,Y+14
 4625 1a2c B901      		movw r22,r18
 4626 1a2e 0E94 0000 		call bfp_LUSOLsetcolumn
 4627 1a32 9A87      		std Y+10,r25
 4628 1a34 8987      		std Y+9,r24
 302:lp_solve_5.5/bfp/bfp_LUSOL/lp_LUSOL.c ****         lp->set_basisvar(lp, i, i);
 4629               		.loc 3 302 0
 4630 1a36 8D85      		ldd r24,Y+13
 4631 1a38 9E85      		ldd r25,Y+14
 4632 1a3a 8C5C      		subi r24,-52
 4633 1a3c 9E4F      		sbci r25,-2
 4634 1a3e DC01      		movw r26,r24
 4635 1a40 2D91      		ld r18,X+
 4636 1a42 3C91      		ld r19,X
 4637 1a44 4981      		ldd r20,Y+1
 4638 1a46 5A81      		ldd r21,Y+2
 4639 1a48 6981      		ldd r22,Y+1
 4640 1a4a 7A81      		ldd r23,Y+2
 4641 1a4c 8D85      		ldd r24,Y+13
 4642 1a4e 9E85      		ldd r25,Y+14
 4643 1a50 F901      		movw r30,r18
 4644 1a52 0995      		icall
 4645               	.L151:
 303:lp_solve_5.5/bfp/bfp_LUSOL/lp_LUSOL.c ****       }
 304:lp_solve_5.5/bfp/bfp_LUSOL/lp_LUSOL.c ****       j = nextActiveLink(map, j);
 4646               		.loc 3 304 0
 4647 1a54 8B85      		ldd r24,Y+11
 4648 1a56 9C85      		ldd r25,Y+12
 4649 1a58 2B81      		ldd r18,Y+3
 4650 1a5a 3C81      		ldd r19,Y+4
 4651 1a5c B901      		movw r22,r18
 4652 1a5e 0E94 0000 		call nextActiveLink
 4653 1a62 9C83      		std Y+4,r25
 4654 1a64 8B83      		std Y+3,r24
 4655 1a66 00C0      		rjmp .L149
 4656               	.L154:
 296:lp_solve_5.5/bfp/bfp_LUSOL/lp_LUSOL.c ****       nz = bfp_LUSOLsetcolumn(lp, j+deltarows, lp->var_basic[i]);
 4657               		.loc 3 296 0
 4658 1a68 0000      		nop
 4659               	.L149:
 294:lp_solve_5.5/bfp/bfp_LUSOL/lp_LUSOL.c ****       if(lp->var_basic[i] <= lp->rows)
 4660               		.loc 3 294 0 discriminator 2
 4661 1a6a 8981      		ldd r24,Y+1
 4662 1a6c 9A81      		ldd r25,Y+2
 4663 1a6e 0196      		adiw r24,1
 4664 1a70 9A83      		std Y+2,r25
 4665 1a72 8983      		std Y+1,r24
 4666               	.L147:
 294:lp_solve_5.5/bfp/bfp_LUSOL/lp_LUSOL.c ****       if(lp->var_basic[i] <= lp->rows)
 4667               		.loc 3 294 0 is_stmt 0 discriminator 1
 4668 1a74 8D85      		ldd r24,Y+13
 4669 1a76 9E85      		ldd r25,Y+14
 4670 1a78 8651      		subi r24,22
 4671 1a7a 9E4F      		sbci r25,-2
 4672 1a7c DC01      		movw r26,r24
 4673 1a7e 2D91      		ld r18,X+
 4674 1a80 3C91      		ld r19,X
 4675 1a82 8981      		ldd r24,Y+1
 4676 1a84 9A81      		ldd r25,Y+2
 4677 1a86 2817      		cp r18,r24
 4678 1a88 3907      		cpc r19,r25
 4679 1a8a 04F0      		brlt .+2
 4680 1a8c 00C0      		rjmp .L152
 305:lp_solve_5.5/bfp/bfp_LUSOL/lp_LUSOL.c ****     }
 306:lp_solve_5.5/bfp/bfp_LUSOL/lp_LUSOL.c **** 
 307:lp_solve_5.5/bfp/bfp_LUSOL/lp_LUSOL.c ****     /* Sort the basis list */
 308:lp_solve_5.5/bfp/bfp_LUSOL/lp_LUSOL.c ****     MEMCOPY(rownum, lp->var_basic, lp->rows+1);
 4681               		.loc 3 308 0 is_stmt 1
 4682 1a8e 8D85      		ldd r24,Y+13
 4683 1a90 9E85      		ldd r25,Y+14
 4684 1a92 8651      		subi r24,22
 4685 1a94 9E4F      		sbci r25,-2
 4686 1a96 FC01      		movw r30,r24
 4687 1a98 8081      		ld r24,Z
 4688 1a9a 9181      		ldd r25,Z+1
 4689 1a9c 0196      		adiw r24,1
 4690 1a9e AC01      		movw r20,r24
 4691 1aa0 440F      		lsl r20
 4692 1aa2 551F      		rol r21
 4693 1aa4 8D85      		ldd r24,Y+13
 4694 1aa6 9E85      		ldd r25,Y+14
 4695 1aa8 8453      		subi r24,52
 4696 1aaa 9D4F      		sbci r25,-3
 4697 1aac DC01      		movw r26,r24
 4698 1aae 2D91      		ld r18,X+
 4699 1ab0 3C91      		ld r19,X
 4700 1ab2 8989      		ldd r24,Y+17
 4701 1ab4 9A89      		ldd r25,Y+18
 4702 1ab6 B901      		movw r22,r18
 4703 1ab8 0E94 0000 		call memcpy
 309:lp_solve_5.5/bfp/bfp_LUSOL/lp_LUSOL.c ****     sortByINT(lp->var_basic, rownum, lp->rows, 1, TRUE);
 4704               		.loc 3 309 0
 4705 1abc 8D85      		ldd r24,Y+13
 4706 1abe 9E85      		ldd r25,Y+14
 4707 1ac0 8651      		subi r24,22
 4708 1ac2 9E4F      		sbci r25,-2
 4709 1ac4 FC01      		movw r30,r24
 4710 1ac6 4081      		ld r20,Z
 4711 1ac8 5181      		ldd r21,Z+1
 4712 1aca 8D85      		ldd r24,Y+13
 4713 1acc 9E85      		ldd r25,Y+14
 4714 1ace 8453      		subi r24,52
 4715 1ad0 9D4F      		sbci r25,-3
 4716 1ad2 DC01      		movw r26,r24
 4717 1ad4 8D91      		ld r24,X+
 4718 1ad6 9C91      		ld r25,X
 4719 1ad8 6989      		ldd r22,Y+17
 4720 1ada 7A89      		ldd r23,Y+18
 4721 1adc 01E0      		ldi r16,lo8(1)
 4722 1ade 21E0      		ldi r18,lo8(1)
 4723 1ae0 30E0      		ldi r19,0
 4724 1ae2 0E94 0000 		call sortByINT
 4725               	.L143:
 4726               	.LBE6:
 310:lp_solve_5.5/bfp/bfp_LUSOL/lp_LUSOL.c **** 
 311:lp_solve_5.5/bfp/bfp_LUSOL/lp_LUSOL.c ****   }
 312:lp_solve_5.5/bfp/bfp_LUSOL/lp_LUSOL.c **** 
 313:lp_solve_5.5/bfp/bfp_LUSOL/lp_LUSOL.c ****   return( i );
 4727               		.loc 3 313 0
 4728 1ae6 8981      		ldd r24,Y+1
 4729 1ae8 9A81      		ldd r25,Y+2
 4730               	/* epilogue start */
 314:lp_solve_5.5/bfp/bfp_LUSOL/lp_LUSOL.c **** }
 4731               		.loc 3 314 0
 4732 1aea 6496      		adiw r28,20
 4733 1aec 0FB6      		in __tmp_reg__,__SREG__
 4734 1aee F894      		cli
 4735 1af0 DEBF      		out __SP_H__,r29
 4736 1af2 0FBE      		out __SREG__,__tmp_reg__
 4737 1af4 CDBF      		out __SP_L__,r28
 4738 1af6 DF91      		pop r29
 4739 1af8 CF91      		pop r28
 4740 1afa 1F91      		pop r17
 4741 1afc 0F91      		pop r16
 4742 1afe FF90      		pop r15
 4743 1b00 EF90      		pop r14
 4744 1b02 0895      		ret
 4745               		.cfi_endproc
 4746               	.LFE39:
 4748               		.section	.rodata
 4749               	.LC2:
 4750 0053 6266 705F 		.string	"bfp_factorize: Very hard numerics, but cannot tighten LUSOL thresholds further.\n"
 4750      6661 6374 
 4750      6F72 697A 
 4750      653A 2056 
 4750      6572 7920 
 4751               	.global	__floatdisf
 4752               	.LC3:
 4753 00a4 6266 705F 		.string	"bfp_factorize: Frequent refact pivot count %d at iter %.0f; tightened thresholds.\n"
 4753      6661 6374 
 4753      6F72 697A 
 4753      653A 2046 
 4753      7265 7175 
 4754               	.LC4:
 4755 00f7 6266 705F 		.string	"bfp_factorize: LUSOL switched to %s pivoting model to enhance stability.\n"
 4755      6661 6374 
 4755      6F72 697A 
 4755      653A 204C 
 4755      5553 4F4C 
 4756               		.text
 4757               	.global	bfp_LUSOLtighten
 4759               	bfp_LUSOLtighten:
 4760               	.LFB40:
 315:lp_solve_5.5/bfp/bfp_LUSOL/lp_LUSOL.c **** /* LOCAL HELPER ROUTINE */
 316:lp_solve_5.5/bfp/bfp_LUSOL/lp_LUSOL.c **** void bfp_LUSOLtighten(lprec *lp)
 317:lp_solve_5.5/bfp/bfp_LUSOL/lp_LUSOL.c **** {
 4761               		.loc 3 317 0
 4762               		.cfi_startproc
 4763 1b04 8F92      		push r8
 4764               	.LCFI178:
 4765               		.cfi_def_cfa_offset 3
 4766               		.cfi_offset 8, -2
 4767 1b06 9F92      		push r9
 4768               	.LCFI179:
 4769               		.cfi_def_cfa_offset 4
 4770               		.cfi_offset 9, -3
 4771 1b08 AF92      		push r10
 4772               	.LCFI180:
 4773               		.cfi_def_cfa_offset 5
 4774               		.cfi_offset 10, -4
 4775 1b0a BF92      		push r11
 4776               	.LCFI181:
 4777               		.cfi_def_cfa_offset 6
 4778               		.cfi_offset 11, -5
 4779 1b0c CF92      		push r12
 4780               	.LCFI182:
 4781               		.cfi_def_cfa_offset 7
 4782               		.cfi_offset 12, -6
 4783 1b0e DF92      		push r13
 4784               	.LCFI183:
 4785               		.cfi_def_cfa_offset 8
 4786               		.cfi_offset 13, -7
 4787 1b10 EF92      		push r14
 4788               	.LCFI184:
 4789               		.cfi_def_cfa_offset 9
 4790               		.cfi_offset 14, -8
 4791 1b12 FF92      		push r15
 4792               	.LCFI185:
 4793               		.cfi_def_cfa_offset 10
 4794               		.cfi_offset 15, -9
 4795 1b14 0F93      		push r16
 4796               	.LCFI186:
 4797               		.cfi_def_cfa_offset 11
 4798               		.cfi_offset 16, -10
 4799 1b16 1F93      		push r17
 4800               	.LCFI187:
 4801               		.cfi_def_cfa_offset 12
 4802               		.cfi_offset 17, -11
 4803 1b18 CF93      		push r28
 4804               	.LCFI188:
 4805               		.cfi_def_cfa_offset 13
 4806               		.cfi_offset 28, -12
 4807 1b1a DF93      		push r29
 4808               	.LCFI189:
 4809               		.cfi_def_cfa_offset 14
 4810               		.cfi_offset 29, -13
 4811 1b1c 00D0      		rcall .
 4812 1b1e 00D0      		rcall .
 4813               	.LCFI190:
 4814               		.cfi_def_cfa_offset 18
 4815 1b20 CDB7      		in r28,__SP_L__
 4816 1b22 DEB7      		in r29,__SP_H__
 4817               	.LCFI191:
 4818               		.cfi_def_cfa_register 28
 4819               	/* prologue: function */
 4820               	/* frame size = 4 */
 4821               	/* stack size = 16 */
 4822               	.L__stack_usage = 16
 4823 1b24 9C83      		std Y+4,r25
 4824 1b26 8B83      		std Y+3,r24
 318:lp_solve_5.5/bfp/bfp_LUSOL/lp_LUSOL.c ****   int infolevel = DETAILED;
 4825               		.loc 3 318 0
 4826 1b28 85E0      		ldi r24,lo8(5)
 4827 1b2a 90E0      		ldi r25,0
 4828 1b2c 9A83      		std Y+2,r25
 4829 1b2e 8983      		std Y+1,r24
 319:lp_solve_5.5/bfp/bfp_LUSOL/lp_LUSOL.c **** 
 320:lp_solve_5.5/bfp/bfp_LUSOL/lp_LUSOL.c ****   switch(LUSOL_tightenpivot(lp->invB->LUSOL)) {
 4830               		.loc 3 320 0
 4831 1b30 8B81      		ldd r24,Y+3
 4832 1b32 9C81      		ldd r25,Y+4
 4833 1b34 8854      		subi r24,72
 4834 1b36 9D4F      		sbci r25,-3
 4835 1b38 FC01      		movw r30,r24
 4836 1b3a 8081      		ld r24,Z
 4837 1b3c 9181      		ldd r25,Z+1
 4838 1b3e FC01      		movw r30,r24
 4839 1b40 8085      		ldd r24,Z+8
 4840 1b42 9185      		ldd r25,Z+9
 4841 1b44 0E94 0000 		call LUSOL_tightenpivot
 4842 1b48 882F      		mov r24,r24
 4843 1b4a 90E0      		ldi r25,0
 4844 1b4c 0097      		sbiw r24,0
 4845 1b4e 01F0      		breq .L157
 4846 1b50 0197      		sbiw r24,1
 4847 1b52 01F0      		breq .L158
 4848 1b54 00C0      		rjmp .L160
 4849               	.L157:
 321:lp_solve_5.5/bfp/bfp_LUSOL/lp_LUSOL.c ****     case FALSE: lp->report(lp, infolevel, "bfp_factorize: Very hard numerics, but cannot tighten LU
 4850               		.loc 3 321 0
 4851 1b56 8B81      		ldd r24,Y+3
 4852 1b58 9C81      		ldd r25,Y+4
 4853 1b5a 8E51      		subi r24,30
 4854 1b5c 9C4F      		sbci r25,-4
 4855 1b5e FC01      		movw r30,r24
 4856 1b60 8081      		ld r24,Z
 4857 1b62 9181      		ldd r25,Z+1
 4858 1b64 20E0      		ldi r18,lo8(.LC2)
 4859 1b66 30E0      		ldi r19,hi8(.LC2)
 4860 1b68 232F      		mov r18,r19
 4861 1b6a 2F93      		push r18
 4862 1b6c 20E0      		ldi r18,lo8(.LC2)
 4863 1b6e 30E0      		ldi r19,hi8(.LC2)
 4864 1b70 2F93      		push r18
 4865 1b72 2A81      		ldd r18,Y+2
 4866 1b74 2F93      		push r18
 4867 1b76 2981      		ldd r18,Y+1
 4868 1b78 2F93      		push r18
 4869 1b7a 2C81      		ldd r18,Y+4
 4870 1b7c 2F93      		push r18
 4871 1b7e 2B81      		ldd r18,Y+3
 4872 1b80 2F93      		push r18
 4873 1b82 FC01      		movw r30,r24
 4874 1b84 0995      		icall
 4875 1b86 0F90      		pop __tmp_reg__
 4876 1b88 0F90      		pop __tmp_reg__
 4877 1b8a 0F90      		pop __tmp_reg__
 4878 1b8c 0F90      		pop __tmp_reg__
 4879 1b8e 0F90      		pop __tmp_reg__
 4880 1b90 0F90      		pop __tmp_reg__
 322:lp_solve_5.5/bfp/bfp_LUSOL/lp_LUSOL.c ****                  break;
 4881               		.loc 3 322 0
 4882 1b92 00C0      		rjmp .L159
 4883               	.L158:
 323:lp_solve_5.5/bfp/bfp_LUSOL/lp_LUSOL.c ****     case TRUE:  lp->report(lp, infolevel, "bfp_factorize: Frequent refact pivot count %d at iter %.
 4884               		.loc 3 323 0
 4885 1b94 8B81      		ldd r24,Y+3
 4886 1b96 9C81      		ldd r25,Y+4
 4887 1b98 8E51      		subi r24,30
 4888 1b9a 9C4F      		sbci r25,-4
 4889 1b9c FC01      		movw r30,r24
 4890 1b9e 8080      		ld r8,Z
 4891 1ba0 9180      		ldd r9,Z+1
 324:lp_solve_5.5/bfp/bfp_LUSOL/lp_LUSOL.c ****                                            lp->invB->num_pivots, (REAL) lp->get_total_iter(lp));
 4892               		.loc 3 324 0
 4893 1ba2 8B81      		ldd r24,Y+3
 4894 1ba4 9C81      		ldd r25,Y+4
 4895 1ba6 8C54      		subi r24,76
 4896 1ba8 9F4F      		sbci r25,-1
 4897 1baa FC01      		movw r30,r24
 4898 1bac 2081      		ld r18,Z
 4899 1bae 3181      		ldd r19,Z+1
 4900 1bb0 8B81      		ldd r24,Y+3
 4901 1bb2 9C81      		ldd r25,Y+4
 4902 1bb4 F901      		movw r30,r18
 4903 1bb6 0995      		icall
 4904 1bb8 A22E      		mov r10,r18
 4905 1bba B32E      		mov r11,r19
 4906 1bbc C42E      		mov r12,r20
 4907 1bbe D52E      		mov r13,r21
 4908 1bc0 E62E      		mov r14,r22
 4909 1bc2 F72E      		mov r15,r23
 4910 1bc4 082F      		mov r16,r24
 4911 1bc6 192F      		mov r17,r25
 323:lp_solve_5.5/bfp/bfp_LUSOL/lp_LUSOL.c ****     case TRUE:  lp->report(lp, infolevel, "bfp_factorize: Frequent refact pivot count %d at iter %.
 4912               		.loc 3 323 0
 4913 1bc8 2A2D      		mov r18,r10
 4914 1bca 3B2D      		mov r19,r11
 4915 1bcc 4C2D      		mov r20,r12
 4916 1bce 5D2D      		mov r21,r13
 4917 1bd0 6E2D      		mov r22,r14
 4918 1bd2 7F2D      		mov r23,r15
 4919 1bd4 802F      		mov r24,r16
 4920 1bd6 912F      		mov r25,r17
 4921 1bd8 0E94 0000 		call __floatdisf
 4922 1bdc DC01      		movw r26,r24
 4923 1bde CB01      		movw r24,r22
 4924               		.loc 3 324 0
 4925 1be0 2B81      		ldd r18,Y+3
 4926 1be2 3C81      		ldd r19,Y+4
 4927 1be4 2854      		subi r18,72
 4928 1be6 3D4F      		sbci r19,-3
 4929 1be8 F901      		movw r30,r18
 4930 1bea 2081      		ld r18,Z
 4931 1bec 3181      		ldd r19,Z+1
 323:lp_solve_5.5/bfp/bfp_LUSOL/lp_LUSOL.c ****     case TRUE:  lp->report(lp, infolevel, "bfp_factorize: Frequent refact pivot count %d at iter %.
 4932               		.loc 3 323 0
 4933 1bee F901      		movw r30,r18
 4934 1bf0 24A5      		ldd r18,Z+44
 4935 1bf2 35A5      		ldd r19,Z+45
 4936 1bf4 4B2F      		mov r20,r27
 4937 1bf6 4F93      		push r20
 4938 1bf8 4A2F      		mov r20,r26
 4939 1bfa 4F93      		push r20
 4940 1bfc 492F      		mov r20,r25
 4941 1bfe 4F93      		push r20
 4942 1c00 8F93      		push r24
 4943 1c02 832F      		mov r24,r19
 4944 1c04 8F93      		push r24
 4945 1c06 822F      		mov r24,r18
 4946 1c08 8F93      		push r24
 4947 1c0a 80E0      		ldi r24,lo8(.LC3)
 4948 1c0c 90E0      		ldi r25,hi8(.LC3)
 4949 1c0e 892F      		mov r24,r25
 4950 1c10 8F93      		push r24
 4951 1c12 80E0      		ldi r24,lo8(.LC3)
 4952 1c14 90E0      		ldi r25,hi8(.LC3)
 4953 1c16 8F93      		push r24
 4954 1c18 8A81      		ldd r24,Y+2
 4955 1c1a 8F93      		push r24
 4956 1c1c 8981      		ldd r24,Y+1
 4957 1c1e 8F93      		push r24
 4958 1c20 8C81      		ldd r24,Y+4
 4959 1c22 8F93      		push r24
 4960 1c24 8B81      		ldd r24,Y+3
 4961 1c26 8F93      		push r24
 4962 1c28 F401      		movw r30,r8
 4963 1c2a 0995      		icall
 4964 1c2c 8DB7      		in r24,__SP_L__
 4965 1c2e 9EB7      		in r25,__SP_H__
 4966 1c30 0C96      		adiw r24,12
 4967 1c32 0FB6      		in __tmp_reg__,__SREG__
 4968 1c34 F894      		cli
 4969 1c36 DEBF      		out __SP_H__,r29
 4970 1c38 0FBE      		out __SREG__,__tmp_reg__
 4971 1c3a CDBF      		out __SP_L__,r28
 325:lp_solve_5.5/bfp/bfp_LUSOL/lp_LUSOL.c ****                  break;
 4972               		.loc 3 325 0
 4973 1c3c 00C0      		rjmp .L159
 4974               	.L160:
 326:lp_solve_5.5/bfp/bfp_LUSOL/lp_LUSOL.c ****     default:    lp->report(lp, infolevel, "bfp_factorize: LUSOL switched to %s pivoting model to en
 4975               		.loc 3 326 0
 4976 1c3e 8B81      		ldd r24,Y+3
 4977 1c40 9C81      		ldd r25,Y+4
 4978 1c42 8E51      		subi r24,30
 4979 1c44 9C4F      		sbci r25,-4
 4980 1c46 FC01      		movw r30,r24
 4981 1c48 0081      		ld r16,Z
 4982 1c4a 1181      		ldd r17,Z+1
 327:lp_solve_5.5/bfp/bfp_LUSOL/lp_LUSOL.c ****                                            LUSOL_pivotLabel(lp->invB->LUSOL));
 4983               		.loc 3 327 0
 4984 1c4c 8B81      		ldd r24,Y+3
 4985 1c4e 9C81      		ldd r25,Y+4
 4986 1c50 8854      		subi r24,72
 4987 1c52 9D4F      		sbci r25,-3
 4988 1c54 FC01      		movw r30,r24
 4989 1c56 8081      		ld r24,Z
 4990 1c58 9181      		ldd r25,Z+1
 326:lp_solve_5.5/bfp/bfp_LUSOL/lp_LUSOL.c ****     default:    lp->report(lp, infolevel, "bfp_factorize: LUSOL switched to %s pivoting model to en
 4991               		.loc 3 326 0
 4992 1c5a FC01      		movw r30,r24
 4993 1c5c 8085      		ldd r24,Z+8
 4994 1c5e 9185      		ldd r25,Z+9
 4995 1c60 0E94 0000 		call LUSOL_pivotLabel
 4996 1c64 292F      		mov r18,r25
 4997 1c66 2F93      		push r18
 4998 1c68 8F93      		push r24
 4999 1c6a 80E0      		ldi r24,lo8(.LC4)
 5000 1c6c 90E0      		ldi r25,hi8(.LC4)
 5001 1c6e 892F      		mov r24,r25
 5002 1c70 8F93      		push r24
 5003 1c72 80E0      		ldi r24,lo8(.LC4)
 5004 1c74 90E0      		ldi r25,hi8(.LC4)
 5005 1c76 8F93      		push r24
 5006 1c78 8A81      		ldd r24,Y+2
 5007 1c7a 8F93      		push r24
 5008 1c7c 8981      		ldd r24,Y+1
 5009 1c7e 8F93      		push r24
 5010 1c80 8C81      		ldd r24,Y+4
 5011 1c82 8F93      		push r24
 5012 1c84 8B81      		ldd r24,Y+3
 5013 1c86 8F93      		push r24
 5014 1c88 F801      		movw r30,r16
 5015 1c8a 0995      		icall
 5016 1c8c 8DB7      		in r24,__SP_L__
 5017 1c8e 9EB7      		in r25,__SP_H__
 5018 1c90 0896      		adiw r24,8
 5019 1c92 0FB6      		in __tmp_reg__,__SREG__
 5020 1c94 F894      		cli
 5021 1c96 DEBF      		out __SP_H__,r29
 5022 1c98 0FBE      		out __SREG__,__tmp_reg__
 5023 1c9a CDBF      		out __SP_L__,r28
 5024               	.L159:
 328:lp_solve_5.5/bfp/bfp_LUSOL/lp_LUSOL.c ****   }
 329:lp_solve_5.5/bfp/bfp_LUSOL/lp_LUSOL.c **** }
 5025               		.loc 3 329 0
 5026 1c9c 0000      		nop
 5027               	/* epilogue start */
 5028 1c9e 0F90      		pop __tmp_reg__
 5029 1ca0 0F90      		pop __tmp_reg__
 5030 1ca2 0F90      		pop __tmp_reg__
 5031 1ca4 0F90      		pop __tmp_reg__
 5032 1ca6 DF91      		pop r29
 5033 1ca8 CF91      		pop r28
 5034 1caa 1F91      		pop r17
 5035 1cac 0F91      		pop r16
 5036 1cae FF90      		pop r15
 5037 1cb0 EF90      		pop r14
 5038 1cb2 DF90      		pop r13
 5039 1cb4 CF90      		pop r12
 5040 1cb6 BF90      		pop r11
 5041 1cb8 AF90      		pop r10
 5042 1cba 9F90      		pop r9
 5043 1cbc 8F90      		pop r8
 5044 1cbe 0895      		ret
 5045               		.cfi_endproc
 5046               	.LFE40:
 5049               	is_fixedvar_:
 5050               	.LFB41:
 330:lp_solve_5.5/bfp/bfp_LUSOL/lp_LUSOL.c **** 
 331:lp_solve_5.5/bfp/bfp_LUSOL/lp_LUSOL.c **** #define is_fixedvar is_fixedvar_ /* resolves a compiler warning/error conflict with lp_lib.h */
 332:lp_solve_5.5/bfp/bfp_LUSOL/lp_LUSOL.c **** 
 333:lp_solve_5.5/bfp/bfp_LUSOL/lp_LUSOL.c **** static MYBOOL is_fixedvar(lprec *lp, int variable)
 334:lp_solve_5.5/bfp/bfp_LUSOL/lp_LUSOL.c **** {
 5051               		.loc 3 334 0
 5052               		.cfi_startproc
 5053 1cc0 DF92      		push r13
 5054               	.LCFI192:
 5055               		.cfi_def_cfa_offset 3
 5056               		.cfi_offset 13, -2
 5057 1cc2 EF92      		push r14
 5058               	.LCFI193:
 5059               		.cfi_def_cfa_offset 4
 5060               		.cfi_offset 14, -3
 5061 1cc4 FF92      		push r15
 5062               	.LCFI194:
 5063               		.cfi_def_cfa_offset 5
 5064               		.cfi_offset 15, -4
 5065 1cc6 0F93      		push r16
 5066               	.LCFI195:
 5067               		.cfi_def_cfa_offset 6
 5068               		.cfi_offset 16, -5
 5069 1cc8 1F93      		push r17
 5070               	.LCFI196:
 5071               		.cfi_def_cfa_offset 7
 5072               		.cfi_offset 17, -6
 5073 1cca CF93      		push r28
 5074               	.LCFI197:
 5075               		.cfi_def_cfa_offset 8
 5076               		.cfi_offset 28, -7
 5077 1ccc DF93      		push r29
 5078               	.LCFI198:
 5079               		.cfi_def_cfa_offset 9
 5080               		.cfi_offset 29, -8
 5081 1cce 00D0      		rcall .
 5082 1cd0 00D0      		rcall .
 5083               	.LCFI199:
 5084               		.cfi_def_cfa_offset 13
 5085 1cd2 CDB7      		in r28,__SP_L__
 5086 1cd4 DEB7      		in r29,__SP_H__
 5087               	.LCFI200:
 5088               		.cfi_def_cfa_register 28
 5089               	/* prologue: function */
 5090               	/* frame size = 4 */
 5091               	/* stack size = 11 */
 5092               	.L__stack_usage = 11
 5093 1cd6 9A83      		std Y+2,r25
 5094 1cd8 8983      		std Y+1,r24
 5095 1cda 7C83      		std Y+4,r23
 5096 1cdc 6B83      		std Y+3,r22
 335:lp_solve_5.5/bfp/bfp_LUSOL/lp_LUSOL.c ****   if((lp->bb_bounds != NULL && lp->bb_bounds->UBzerobased) || (variable <= lp->rows))
 5097               		.loc 3 335 0
 5098 1cde 8981      		ldd r24,Y+1
 5099 1ce0 9A81      		ldd r25,Y+2
 5100 1ce2 8654      		subi r24,70
 5101 1ce4 9D4F      		sbci r25,-3
 5102 1ce6 FC01      		movw r30,r24
 5103 1ce8 8081      		ld r24,Z
 5104 1cea 9181      		ldd r25,Z+1
 5105 1cec 892B      		or r24,r25
 5106 1cee 01F0      		breq .L162
 5107               		.loc 3 335 0 is_stmt 0 discriminator 1
 5108 1cf0 8981      		ldd r24,Y+1
 5109 1cf2 9A81      		ldd r25,Y+2
 5110 1cf4 8654      		subi r24,70
 5111 1cf6 9D4F      		sbci r25,-3
 5112 1cf8 FC01      		movw r30,r24
 5113 1cfa 8081      		ld r24,Z
 5114 1cfc 9181      		ldd r25,Z+1
 5115 1cfe FC01      		movw r30,r24
 5116 1d00 87A9      		ldd r24,Z+55
 5117 1d02 8823      		tst r24
 5118 1d04 01F4      		brne .L163
 5119               	.L162:
 5120               		.loc 3 335 0 discriminator 3
 5121 1d06 8981      		ldd r24,Y+1
 5122 1d08 9A81      		ldd r25,Y+2
 5123 1d0a 8651      		subi r24,22
 5124 1d0c 9E4F      		sbci r25,-2
 5125 1d0e FC01      		movw r30,r24
 5126 1d10 2081      		ld r18,Z
 5127 1d12 3181      		ldd r19,Z+1
 5128 1d14 8B81      		ldd r24,Y+3
 5129 1d16 9C81      		ldd r25,Y+4
 5130 1d18 2817      		cp r18,r24
 5131 1d1a 3907      		cpc r19,r25
 5132 1d1c 04F0      		brlt .L164
 5133               	.L163:
 336:lp_solve_5.5/bfp/bfp_LUSOL/lp_LUSOL.c ****     return( (MYBOOL) (lp->upbo[variable] < lp->epsprimal) );
 5134               		.loc 3 336 0 is_stmt 1
 5135 1d1e 8981      		ldd r24,Y+1
 5136 1d20 9A81      		ldd r25,Y+2
 5137 1d22 8055      		subi r24,80
 5138 1d24 9D4F      		sbci r25,-3
 5139 1d26 FC01      		movw r30,r24
 5140 1d28 2081      		ld r18,Z
 5141 1d2a 3181      		ldd r19,Z+1
 5142 1d2c 8B81      		ldd r24,Y+3
 5143 1d2e 9C81      		ldd r25,Y+4
 5144 1d30 880F      		lsl r24
 5145 1d32 991F      		rol r25
 5146 1d34 880F      		lsl r24
 5147 1d36 991F      		rol r25
 5148 1d38 820F      		add r24,r18
 5149 1d3a 931F      		adc r25,r19
 5150 1d3c FC01      		movw r30,r24
 5151 1d3e 8081      		ld r24,Z
 5152 1d40 9181      		ldd r25,Z+1
 5153 1d42 A281      		ldd r26,Z+2
 5154 1d44 B381      		ldd r27,Z+3
 5155 1d46 2981      		ldd r18,Y+1
 5156 1d48 3A81      		ldd r19,Y+2
 5157 1d4a 265E      		subi r18,-26
 5158 1d4c 3C4F      		sbci r19,-4
 5159 1d4e F901      		movw r30,r18
 5160 1d50 2081      		ld r18,Z
 5161 1d52 3181      		ldd r19,Z+1
 5162 1d54 4281      		ldd r20,Z+2
 5163 1d56 5381      		ldd r21,Z+3
 5164 1d58 11E0      		ldi r17,lo8(1)
 5165 1d5a BC01      		movw r22,r24
 5166 1d5c CD01      		movw r24,r26
 5167 1d5e 0E94 0000 		call __ltsf2
 5168 1d62 8823      		tst r24
 5169 1d64 04F0      		brlt .L165
 5170 1d66 10E0      		ldi r17,0
 5171               	.L165:
 5172 1d68 812F      		mov r24,r17
 5173 1d6a 00C0      		rjmp .L166
 5174               	.L164:
 337:lp_solve_5.5/bfp/bfp_LUSOL/lp_LUSOL.c ****   else
 338:lp_solve_5.5/bfp/bfp_LUSOL/lp_LUSOL.c ****     return( (MYBOOL) (lp->upbo[variable]-lp->lowbo[variable] < lp->epsprimal) );
 5175               		.loc 3 338 0
 5176 1d6c 8981      		ldd r24,Y+1
 5177 1d6e 9A81      		ldd r25,Y+2
 5178 1d70 8055      		subi r24,80
 5179 1d72 9D4F      		sbci r25,-3
 5180 1d74 FC01      		movw r30,r24
 5181 1d76 2081      		ld r18,Z
 5182 1d78 3181      		ldd r19,Z+1
 5183 1d7a 8B81      		ldd r24,Y+3
 5184 1d7c 9C81      		ldd r25,Y+4
 5185 1d7e 880F      		lsl r24
 5186 1d80 991F      		rol r25
 5187 1d82 880F      		lsl r24
 5188 1d84 991F      		rol r25
 5189 1d86 820F      		add r24,r18
 5190 1d88 931F      		adc r25,r19
 5191 1d8a FC01      		movw r30,r24
 5192 1d8c 8081      		ld r24,Z
 5193 1d8e 9181      		ldd r25,Z+1
 5194 1d90 A281      		ldd r26,Z+2
 5195 1d92 B381      		ldd r27,Z+3
 5196 1d94 2981      		ldd r18,Y+1
 5197 1d96 3A81      		ldd r19,Y+2
 5198 1d98 2C54      		subi r18,76
 5199 1d9a 3D4F      		sbci r19,-3
 5200 1d9c F901      		movw r30,r18
 5201 1d9e 4081      		ld r20,Z
 5202 1da0 5181      		ldd r21,Z+1
 5203 1da2 2B81      		ldd r18,Y+3
 5204 1da4 3C81      		ldd r19,Y+4
 5205 1da6 220F      		lsl r18
 5206 1da8 331F      		rol r19
 5207 1daa 220F      		lsl r18
 5208 1dac 331F      		rol r19
 5209 1dae 240F      		add r18,r20
 5210 1db0 351F      		adc r19,r21
 5211 1db2 F901      		movw r30,r18
 5212 1db4 2081      		ld r18,Z
 5213 1db6 3181      		ldd r19,Z+1
 5214 1db8 4281      		ldd r20,Z+2
 5215 1dba 5381      		ldd r21,Z+3
 5216 1dbc BC01      		movw r22,r24
 5217 1dbe CD01      		movw r24,r26
 5218 1dc0 0E94 0000 		call __subsf3
 5219 1dc4 DC01      		movw r26,r24
 5220 1dc6 CB01      		movw r24,r22
 5221 1dc8 7C01      		movw r14,r24
 5222 1dca 8D01      		movw r16,r26
 5223 1dcc 8981      		ldd r24,Y+1
 5224 1dce 9A81      		ldd r25,Y+2
 5225 1dd0 865E      		subi r24,-26
 5226 1dd2 9C4F      		sbci r25,-4
 5227 1dd4 FC01      		movw r30,r24
 5228 1dd6 8081      		ld r24,Z
 5229 1dd8 9181      		ldd r25,Z+1
 5230 1dda A281      		ldd r26,Z+2
 5231 1ddc B381      		ldd r27,Z+3
 5232 1dde DD24      		clr r13
 5233 1de0 D394      		inc r13
 5234 1de2 9C01      		movw r18,r24
 5235 1de4 AD01      		movw r20,r26
 5236 1de6 C801      		movw r24,r16
 5237 1de8 B701      		movw r22,r14
 5238 1dea 0E94 0000 		call __ltsf2
 5239 1dee 8823      		tst r24
 5240 1df0 04F0      		brlt .L167
 5241 1df2 D12C      		mov r13,__zero_reg__
 5242               	.L167:
 5243 1df4 8D2D      		mov r24,r13
 5244               	.L166:
 5245               	/* epilogue start */
 339:lp_solve_5.5/bfp/bfp_LUSOL/lp_LUSOL.c **** } /* is_fixedvar */
 5246               		.loc 3 339 0
 5247 1df6 0F90      		pop __tmp_reg__
 5248 1df8 0F90      		pop __tmp_reg__
 5249 1dfa 0F90      		pop __tmp_reg__
 5250 1dfc 0F90      		pop __tmp_reg__
 5251 1dfe DF91      		pop r29
 5252 1e00 CF91      		pop r28
 5253 1e02 1F91      		pop r17
 5254 1e04 0F91      		pop r16
 5255 1e06 FF90      		pop r15
 5256 1e08 EF90      		pop r14
 5257 1e0a DF90      		pop r13
 5258 1e0c 0895      		ret
 5259               		.cfi_endproc
 5260               	.LFE41:
 5262               		.section	.rodata
 5263               	.LC5:
 5264 0141 7900      		.string	"y"
 5265               	.LC6:
 5266 0143 6965 7300 		.string	"ies"
 5267               	.LC7:
 5268 0147 6266 705F 		.string	"bfp_factorize: Resolving %d singularit%s at refact %d, iter %.0f\n"
 5268      6661 6374 
 5268      6F72 697A 
 5268      653A 2052 
 5268      6573 6F6C 
 5269               	.LC8:
 5270 0189 6266 705F 		.string	"bfp_factorize: Replacement slack %d is already basic!\n"
 5270      6661 6374 
 5270      6F72 697A 
 5270      653A 2052 
 5270      6570 6C61 
 5271               	.global	__gesf2
 5272               	.LC9:
 5273 01c0 6266 705F 		.string	"bfp_factorize: Could not find replacement slack variable!\n"
 5273      6661 6374 
 5273      6F72 697A 
 5273      653A 2043 
 5273      6F75 6C64 
 5274               	.LC10:
 5275 01fb 6266 705F 		.string	"bfp_factorize: LUSOL was unable to recover from a singular basis\n"
 5275      6661 6374 
 5275      6F72 697A 
 5275      653A 204C 
 5275      5553 4F4C 
 5276               		.text
 5277               	.global	bfp_factorize
 5279               	bfp_factorize:
 5280               	.LFB42:
 340:lp_solve_5.5/bfp/bfp_LUSOL/lp_LUSOL.c **** 
 341:lp_solve_5.5/bfp/bfp_LUSOL/lp_LUSOL.c **** /* MUST MODIFY */
 342:lp_solve_5.5/bfp/bfp_LUSOL/lp_LUSOL.c **** int BFP_CALLMODEL bfp_factorize(lprec *lp, int uservars, int Bsize, MYBOOL *usedpos, MYBOOL final)
 343:lp_solve_5.5/bfp/bfp_LUSOL/lp_LUSOL.c **** {
 5281               		.loc 3 343 0
 5282               		.cfi_startproc
 5283 1e0e AF92      		push r10
 5284               	.LCFI201:
 5285               		.cfi_def_cfa_offset 3
 5286               		.cfi_offset 10, -2
 5287 1e10 BF92      		push r11
 5288               	.LCFI202:
 5289               		.cfi_def_cfa_offset 4
 5290               		.cfi_offset 11, -3
 5291 1e12 CF92      		push r12
 5292               	.LCFI203:
 5293               		.cfi_def_cfa_offset 5
 5294               		.cfi_offset 12, -4
 5295 1e14 DF92      		push r13
 5296               	.LCFI204:
 5297               		.cfi_def_cfa_offset 6
 5298               		.cfi_offset 13, -5
 5299 1e16 EF92      		push r14
 5300               	.LCFI205:
 5301               		.cfi_def_cfa_offset 7
 5302               		.cfi_offset 14, -6
 5303 1e18 FF92      		push r15
 5304               	.LCFI206:
 5305               		.cfi_def_cfa_offset 8
 5306               		.cfi_offset 15, -7
 5307 1e1a 0F93      		push r16
 5308               	.LCFI207:
 5309               		.cfi_def_cfa_offset 9
 5310               		.cfi_offset 16, -8
 5311 1e1c 1F93      		push r17
 5312               	.LCFI208:
 5313               		.cfi_def_cfa_offset 10
 5314               		.cfi_offset 17, -9
 5315 1e1e CF93      		push r28
 5316               	.LCFI209:
 5317               		.cfi_def_cfa_offset 11
 5318               		.cfi_offset 28, -10
 5319 1e20 DF93      		push r29
 5320               	.LCFI210:
 5321               		.cfi_def_cfa_offset 12
 5322               		.cfi_offset 29, -11
 5323 1e22 CDB7      		in r28,__SP_L__
 5324 1e24 DEB7      		in r29,__SP_H__
 5325               	.LCFI211:
 5326               		.cfi_def_cfa_register 28
 5327 1e26 A497      		sbiw r28,36
 5328               	.LCFI212:
 5329               		.cfi_def_cfa_offset 48
 5330 1e28 0FB6      		in __tmp_reg__,__SREG__
 5331 1e2a F894      		cli
 5332 1e2c DEBF      		out __SP_H__,r29
 5333 1e2e 0FBE      		out __SREG__,__tmp_reg__
 5334 1e30 CDBF      		out __SP_L__,r28
 5335               	/* prologue: function */
 5336               	/* frame size = 36 */
 5337               	/* stack size = 46 */
 5338               	.L__stack_usage = 46
 5339 1e32 9D8F      		std Y+29,r25
 5340 1e34 8C8F      		std Y+28,r24
 5341 1e36 7F8F      		std Y+31,r23
 5342 1e38 6E8F      		std Y+30,r22
 5343 1e3a 59A3      		std Y+33,r21
 5344 1e3c 48A3      		std Y+32,r20
 5345 1e3e 3BA3      		std Y+35,r19
 5346 1e40 2AA3      		std Y+34,r18
 5347 1e42 0CA3      		std Y+36,r16
 344:lp_solve_5.5/bfp/bfp_LUSOL/lp_LUSOL.c ****   int      kcol, inform,
 345:lp_solve_5.5/bfp/bfp_LUSOL/lp_LUSOL.c ****            *rownum = NULL,
 5348               		.loc 3 345 0
 5349 1e44 1B8E      		std Y+27,__zero_reg__
 5350 1e46 1A8E      		std Y+26,__zero_reg__
 346:lp_solve_5.5/bfp/bfp_LUSOL/lp_LUSOL.c ****            singularities = 0,
 5351               		.loc 3 346 0
 5352 1e48 1E82      		std Y+6,__zero_reg__
 5353 1e4a 1D82      		std Y+5,__zero_reg__
 347:lp_solve_5.5/bfp/bfp_LUSOL/lp_LUSOL.c ****            dimsize = lp->invB->dimcount;
 5354               		.loc 3 347 0
 5355 1e4c 8C8D      		ldd r24,Y+28
 5356 1e4e 9D8D      		ldd r25,Y+29
 5357 1e50 8854      		subi r24,72
 5358 1e52 9D4F      		sbci r25,-3
 5359 1e54 FC01      		movw r30,r24
 5360 1e56 8081      		ld r24,Z
 5361 1e58 9181      		ldd r25,Z+1
 5362 1e5a FC01      		movw r30,r24
 5363 1e5c 8281      		ldd r24,Z+2
 5364 1e5e 9381      		ldd r25,Z+3
 5365 1e60 9C87      		std Y+12,r25
 5366 1e62 8B87      		std Y+11,r24
 348:lp_solve_5.5/bfp/bfp_LUSOL/lp_LUSOL.c ****   LUSOLrec *LUSOL = lp->invB->LUSOL;
 5367               		.loc 3 348 0
 5368 1e64 8C8D      		ldd r24,Y+28
 5369 1e66 9D8D      		ldd r25,Y+29
 5370 1e68 8854      		subi r24,72
 5371 1e6a 9D4F      		sbci r25,-3
 5372 1e6c FC01      		movw r30,r24
 5373 1e6e 8081      		ld r24,Z
 5374 1e70 9181      		ldd r25,Z+1
 5375 1e72 FC01      		movw r30,r24
 5376 1e74 8085      		ldd r24,Z+8
 5377 1e76 9185      		ldd r25,Z+9
 5378 1e78 9E87      		std Y+14,r25
 5379 1e7a 8D87      		std Y+13,r24
 349:lp_solve_5.5/bfp/bfp_LUSOL/lp_LUSOL.c **** 
 350:lp_solve_5.5/bfp/bfp_LUSOL/lp_LUSOL.c ****  /* Set dimensions and create work array */
 351:lp_solve_5.5/bfp/bfp_LUSOL/lp_LUSOL.c ****   SETMAX(lp->invB->max_Bsize, Bsize+(1+lp->rows-uservars));
 5380               		.loc 3 351 0
 5381 1e7c 8C8D      		ldd r24,Y+28
 5382 1e7e 9D8D      		ldd r25,Y+29
 5383 1e80 8854      		subi r24,72
 5384 1e82 9D4F      		sbci r25,-3
 5385 1e84 FC01      		movw r30,r24
 5386 1e86 8081      		ld r24,Z
 5387 1e88 9181      		ldd r25,Z+1
 5388 1e8a FC01      		movw r30,r24
 5389 1e8c 208D      		ldd r18,Z+24
 5390 1e8e 318D      		ldd r19,Z+25
 5391 1e90 8C8D      		ldd r24,Y+28
 5392 1e92 9D8D      		ldd r25,Y+29
 5393 1e94 8651      		subi r24,22
 5394 1e96 9E4F      		sbci r25,-2
 5395 1e98 FC01      		movw r30,r24
 5396 1e9a 8081      		ld r24,Z
 5397 1e9c 9181      		ldd r25,Z+1
 5398 1e9e AC01      		movw r20,r24
 5399 1ea0 4F5F      		subi r20,-1
 5400 1ea2 5F4F      		sbci r21,-1
 5401 1ea4 8E8D      		ldd r24,Y+30
 5402 1ea6 9F8D      		ldd r25,Y+31
 5403 1ea8 481B      		sub r20,r24
 5404 1eaa 590B      		sbc r21,r25
 5405 1eac 88A1      		ldd r24,Y+32
 5406 1eae 99A1      		ldd r25,Y+33
 5407 1eb0 840F      		add r24,r20
 5408 1eb2 951F      		adc r25,r21
 5409 1eb4 2817      		cp r18,r24
 5410 1eb6 3907      		cpc r19,r25
 5411 1eb8 04F4      		brge .L169
 5412               		.loc 3 351 0 is_stmt 0 discriminator 1
 5413 1eba 8C8D      		ldd r24,Y+28
 5414 1ebc 9D8D      		ldd r25,Y+29
 5415 1ebe 8854      		subi r24,72
 5416 1ec0 9D4F      		sbci r25,-3
 5417 1ec2 FC01      		movw r30,r24
 5418 1ec4 8081      		ld r24,Z
 5419 1ec6 9181      		ldd r25,Z+1
 5420 1ec8 2C8D      		ldd r18,Y+28
 5421 1eca 3D8D      		ldd r19,Y+29
 5422 1ecc 2651      		subi r18,22
 5423 1ece 3E4F      		sbci r19,-2
 5424 1ed0 F901      		movw r30,r18
 5425 1ed2 2081      		ld r18,Z
 5426 1ed4 3181      		ldd r19,Z+1
 5427 1ed6 A901      		movw r20,r18
 5428 1ed8 4F5F      		subi r20,-1
 5429 1eda 5F4F      		sbci r21,-1
 5430 1edc 2E8D      		ldd r18,Y+30
 5431 1ede 3F8D      		ldd r19,Y+31
 5432 1ee0 421B      		sub r20,r18
 5433 1ee2 530B      		sbc r21,r19
 5434 1ee4 28A1      		ldd r18,Y+32
 5435 1ee6 39A1      		ldd r19,Y+33
 5436 1ee8 240F      		add r18,r20
 5437 1eea 351F      		adc r19,r21
 5438 1eec FC01      		movw r30,r24
 5439 1eee 318F      		std Z+25,r19
 5440 1ef0 208F      		std Z+24,r18
 5441               	.L169:
 352:lp_solve_5.5/bfp/bfp_LUSOL/lp_LUSOL.c ****   kcol = lp->invB->dimcount;
 5442               		.loc 3 352 0 is_stmt 1
 5443 1ef2 8C8D      		ldd r24,Y+28
 5444 1ef4 9D8D      		ldd r25,Y+29
 5445 1ef6 8854      		subi r24,72
 5446 1ef8 9D4F      		sbci r25,-3
 5447 1efa FC01      		movw r30,r24
 5448 1efc 8081      		ld r24,Z
 5449 1efe 9181      		ldd r25,Z+1
 5450 1f00 FC01      		movw r30,r24
 5451 1f02 8281      		ldd r24,Z+2
 5452 1f04 9381      		ldd r25,Z+3
 5453 1f06 9A83      		std Y+2,r25
 5454 1f08 8983      		std Y+1,r24
 353:lp_solve_5.5/bfp/bfp_LUSOL/lp_LUSOL.c ****   LUSOL->m = kcol;
 5455               		.loc 3 353 0
 5456 1f0a 8D85      		ldd r24,Y+13
 5457 1f0c 9E85      		ldd r25,Y+14
 5458 1f0e 8655      		subi r24,86
 5459 1f10 9F4F      		sbci r25,-1
 5460 1f12 2981      		ldd r18,Y+1
 5461 1f14 3A81      		ldd r19,Y+2
 5462 1f16 FC01      		movw r30,r24
 5463 1f18 3183      		std Z+1,r19
 5464 1f1a 2083      		st Z,r18
 354:lp_solve_5.5/bfp/bfp_LUSOL/lp_LUSOL.c ****   LUSOL->n = kcol;
 5465               		.loc 3 354 0
 5466 1f1c 8D85      		ldd r24,Y+13
 5467 1f1e 9E85      		ldd r25,Y+14
 5468 1f20 8854      		subi r24,72
 5469 1f22 9F4F      		sbci r25,-1
 5470 1f24 2981      		ldd r18,Y+1
 5471 1f26 3A81      		ldd r19,Y+2
 5472 1f28 FC01      		movw r30,r24
 5473 1f2a 3183      		std Z+1,r19
 5474 1f2c 2083      		st Z,r18
 355:lp_solve_5.5/bfp/bfp_LUSOL/lp_LUSOL.c ****   allocINT(lp, &rownum, kcol+1, FALSE);
 5475               		.loc 3 355 0
 5476 1f2e 8981      		ldd r24,Y+1
 5477 1f30 9A81      		ldd r25,Y+2
 5478 1f32 AC01      		movw r20,r24
 5479 1f34 4F5F      		subi r20,-1
 5480 1f36 5F4F      		sbci r21,-1
 5481 1f38 BE01      		movw r22,r28
 5482 1f3a 665E      		subi r22,-26
 5483 1f3c 7F4F      		sbci r23,-1
 5484 1f3e 8C8D      		ldd r24,Y+28
 5485 1f40 9D8D      		ldd r25,Y+29
 5486 1f42 20E0      		ldi r18,0
 5487 1f44 0E94 0000 		call allocINT
 356:lp_solve_5.5/bfp/bfp_LUSOL/lp_LUSOL.c **** 
 357:lp_solve_5.5/bfp/bfp_LUSOL/lp_LUSOL.c ****  /* Check if the refactorization frequency is low;
 358:lp_solve_5.5/bfp/bfp_LUSOL/lp_LUSOL.c ****     tighten pivot thresholds if appropriate */
 359:lp_solve_5.5/bfp/bfp_LUSOL/lp_LUSOL.c ****   inform = lp->bfp_pivotcount(lp);
 5488               		.loc 3 359 0
 5489 1f48 8C8D      		ldd r24,Y+28
 5490 1f4a 9D8D      		ldd r25,Y+29
 5491 1f4c 8253      		subi r24,50
 5492 1f4e 9C4F      		sbci r25,-4
 5493 1f50 FC01      		movw r30,r24
 5494 1f52 2081      		ld r18,Z
 5495 1f54 3181      		ldd r19,Z+1
 5496 1f56 8C8D      		ldd r24,Y+28
 5497 1f58 9D8D      		ldd r25,Y+29
 5498 1f5a F901      		movw r30,r18
 5499 1f5c 0995      		icall
 5500 1f5e 9C83      		std Y+4,r25
 5501 1f60 8B83      		std Y+3,r24
 360:lp_solve_5.5/bfp/bfp_LUSOL/lp_LUSOL.c ****   if(!final &&                        /* No solution update-based refactorization */
 5502               		.loc 3 360 0
 5503 1f62 8CA1      		ldd r24,Y+36
 5504 1f64 8823      		tst r24
 5505 1f66 01F0      		breq .+2
 5506 1f68 00C0      		rjmp .L170
 361:lp_solve_5.5/bfp/bfp_LUSOL/lp_LUSOL.c ****      !lp->invB->force_refact &&       /* No sparsity-based refactorization */
 5507               		.loc 3 361 0 discriminator 1
 5508 1f6a 8C8D      		ldd r24,Y+28
 5509 1f6c 9D8D      		ldd r25,Y+29
 5510 1f6e 8854      		subi r24,72
 5511 1f70 9D4F      		sbci r25,-3
 5512 1f72 FC01      		movw r30,r24
 5513 1f74 8081      		ld r24,Z
 5514 1f76 9181      		ldd r25,Z+1
 5515 1f78 FC01      		movw r30,r24
 5516 1f7a 83A9      		ldd r24,Z+51
 360:lp_solve_5.5/bfp/bfp_LUSOL/lp_LUSOL.c ****   if(!final &&                        /* No solution update-based refactorization */
 5517               		.loc 3 360 0 discriminator 1
 5518 1f7c 8823      		tst r24
 5519 1f7e 01F0      		breq .+2
 5520 1f80 00C0      		rjmp .L170
 362:lp_solve_5.5/bfp/bfp_LUSOL/lp_LUSOL.c ****      !lp->is_action(lp->spx_action,
 5521               		.loc 3 362 0
 5522 1f82 8C8D      		ldd r24,Y+28
 5523 1f84 9D8D      		ldd r25,Y+29
 5524 1f86 8E50      		subi r24,14
 5525 1f88 9C4F      		sbci r25,-4
 5526 1f8a FC01      		movw r30,r24
 5527 1f8c 2081      		ld r18,Z
 5528 1f8e 3181      		ldd r19,Z+1
 5529 1f90 8C8D      		ldd r24,Y+28
 5530 1f92 9D8D      		ldd r25,Y+29
 5531 1f94 8E50      		subi r24,14
 5532 1f96 9D4F      		sbci r25,-3
 5533 1f98 FC01      		movw r30,r24
 5534 1f9a 8081      		ld r24,Z
 5535 1f9c 9181      		ldd r25,Z+1
 5536 1f9e 60E2      		ldi r22,lo8(32)
 5537 1fa0 70E0      		ldi r23,0
 5538 1fa2 F901      		movw r30,r18
 5539 1fa4 0995      		icall
 361:lp_solve_5.5/bfp/bfp_LUSOL/lp_LUSOL.c ****      !lp->invB->force_refact &&       /* No sparsity-based refactorization */
 5540               		.loc 3 361 0
 5541 1fa6 8823      		tst r24
 5542 1fa8 01F4      		brne .L170
 363:lp_solve_5.5/bfp/bfp_LUSOL/lp_LUSOL.c ****           ACTION_TIMEDREINVERT) &&    /* No optimal time-based refactorization */
 5543               		.loc 3 363 0
 5544 1faa 8B81      		ldd r24,Y+3
 5545 1fac 9C81      		ldd r25,Y+4
 5546 1fae 0697      		sbiw r24,6
 5547 1fb0 04F0      		brlt .L170
 364:lp_solve_5.5/bfp/bfp_LUSOL/lp_LUSOL.c ****      (inform > 5) && (inform < 0.25*lp->bfp_pivotmax(lp)))
 5548               		.loc 3 364 0
 5549 1fb2 8B81      		ldd r24,Y+3
 5550 1fb4 9C81      		ldd r25,Y+4
 5551 1fb6 092E      		mov __tmp_reg__,r25
 5552 1fb8 000C      		lsl r0
 5553 1fba AA0B      		sbc r26,r26
 5554 1fbc BB0B      		sbc r27,r27
 5555 1fbe BC01      		movw r22,r24
 5556 1fc0 CD01      		movw r24,r26
 5557 1fc2 0E94 0000 		call __floatsisf
 5558 1fc6 6B01      		movw r12,r22
 5559 1fc8 7C01      		movw r14,r24
 5560 1fca 8C8D      		ldd r24,Y+28
 5561 1fcc 9D8D      		ldd r25,Y+29
 5562 1fce 8E53      		subi r24,62
 5563 1fd0 9C4F      		sbci r25,-4
 5564 1fd2 FC01      		movw r30,r24
 5565 1fd4 2081      		ld r18,Z
 5566 1fd6 3181      		ldd r19,Z+1
 5567 1fd8 8C8D      		ldd r24,Y+28
 5568 1fda 9D8D      		ldd r25,Y+29
 5569 1fdc F901      		movw r30,r18
 5570 1fde 0995      		icall
 5571 1fe0 092E      		mov __tmp_reg__,r25
 5572 1fe2 000C      		lsl r0
 5573 1fe4 AA0B      		sbc r26,r26
 5574 1fe6 BB0B      		sbc r27,r27
 5575 1fe8 BC01      		movw r22,r24
 5576 1fea CD01      		movw r24,r26
 5577 1fec 0E94 0000 		call __floatsisf
 5578 1ff0 DC01      		movw r26,r24
 5579 1ff2 CB01      		movw r24,r22
 5580 1ff4 20E0      		ldi r18,0
 5581 1ff6 30E0      		ldi r19,0
 5582 1ff8 40E8      		ldi r20,lo8(-128)
 5583 1ffa 5EE3      		ldi r21,lo8(62)
 5584 1ffc BC01      		movw r22,r24
 5585 1ffe CD01      		movw r24,r26
 5586 2000 0E94 0000 		call __mulsf3
 5587 2004 DC01      		movw r26,r24
 5588 2006 CB01      		movw r24,r22
 5589 2008 9C01      		movw r18,r24
 5590 200a AD01      		movw r20,r26
 5591 200c C701      		movw r24,r14
 5592 200e B601      		movw r22,r12
 5593 2010 0E94 0000 		call __ltsf2
 5594 2014 8823      		tst r24
 5595 2016 04F4      		brge .L170
 365:lp_solve_5.5/bfp/bfp_LUSOL/lp_LUSOL.c ****     bfp_LUSOLtighten(lp);
 5596               		.loc 3 365 0
 5597 2018 8C8D      		ldd r24,Y+28
 5598 201a 9D8D      		ldd r25,Y+29
 5599 201c 0E94 0000 		call bfp_LUSOLtighten
 5600               	.L170:
 366:lp_solve_5.5/bfp/bfp_LUSOL/lp_LUSOL.c **** 
 367:lp_solve_5.5/bfp/bfp_LUSOL/lp_LUSOL.c **** 
 368:lp_solve_5.5/bfp/bfp_LUSOL/lp_LUSOL.c ****  /* Reload B and factorize */
 369:lp_solve_5.5/bfp/bfp_LUSOL/lp_LUSOL.c ****   inform = bfp_LUSOLfactorize(lp, usedpos, rownum, NULL);
 5601               		.loc 3 369 0
 5602 2020 4A8D      		ldd r20,Y+26
 5603 2022 5B8D      		ldd r21,Y+27
 5604 2024 6AA1      		ldd r22,Y+34
 5605 2026 7BA1      		ldd r23,Y+35
 5606 2028 8C8D      		ldd r24,Y+28
 5607 202a 9D8D      		ldd r25,Y+29
 5608 202c 20E0      		ldi r18,0
 5609 202e 30E0      		ldi r19,0
 5610 2030 0E94 0000 		call bfp_LUSOLfactorize
 5611 2034 9C83      		std Y+4,r25
 5612 2036 8B83      		std Y+3,r24
 370:lp_solve_5.5/bfp/bfp_LUSOL/lp_LUSOL.c **** 
 371:lp_solve_5.5/bfp/bfp_LUSOL/lp_LUSOL.c ****  /* Do some checks */
 372:lp_solve_5.5/bfp/bfp_LUSOL/lp_LUSOL.c **** #ifdef Paranoia
 373:lp_solve_5.5/bfp/bfp_LUSOL/lp_LUSOL.c ****   if(uservars != lp->invB->user_colcount) {
 374:lp_solve_5.5/bfp/bfp_LUSOL/lp_LUSOL.c ****     lp->report(lp, SEVERE, "bfp_factorize: User variable count reconciliation failed\n");
 375:lp_solve_5.5/bfp/bfp_LUSOL/lp_LUSOL.c ****     return( singularities );
 376:lp_solve_5.5/bfp/bfp_LUSOL/lp_LUSOL.c ****   }
 377:lp_solve_5.5/bfp/bfp_LUSOL/lp_LUSOL.c **** #endif
 378:lp_solve_5.5/bfp/bfp_LUSOL/lp_LUSOL.c **** 
 379:lp_solve_5.5/bfp/bfp_LUSOL/lp_LUSOL.c ****   /* Check result and do further remedial action if necessary */
 380:lp_solve_5.5/bfp/bfp_LUSOL/lp_LUSOL.c ****   if(inform != LUSOL_INFORM_LUSUCCESS) {
 5613               		.loc 3 380 0
 5614 2038 8B81      		ldd r24,Y+3
 5615 203a 9C81      		ldd r25,Y+4
 5616 203c 892B      		or r24,r25
 5617 203e 01F4      		brne .+2
 5618 2040 00C0      		rjmp .L172
 5619               	.LBB7:
 381:lp_solve_5.5/bfp/bfp_LUSOL/lp_LUSOL.c ****     int  singularcols,
 382:lp_solve_5.5/bfp/bfp_LUSOL/lp_LUSOL.c ****          replacedcols = 0;
 5620               		.loc 3 382 0
 5621 2042 1886      		std Y+8,__zero_reg__
 5622 2044 1F82      		std Y+7,__zero_reg__
 383:lp_solve_5.5/bfp/bfp_LUSOL/lp_LUSOL.c ****     REAL hold;
 384:lp_solve_5.5/bfp/bfp_LUSOL/lp_LUSOL.c **** 
 385:lp_solve_5.5/bfp/bfp_LUSOL/lp_LUSOL.c ****     /* Make sure we do not tighten factorization pivot criteria too often, and simply
 386:lp_solve_5.5/bfp/bfp_LUSOL/lp_LUSOL.c ****        accept the substitution of slack columns into the basis */
 387:lp_solve_5.5/bfp/bfp_LUSOL/lp_LUSOL.c ****     if((lp->invB->num_singular+1) % TIGHTENAFTER == 0)
 5623               		.loc 3 387 0
 5624 2046 8C8D      		ldd r24,Y+28
 5625 2048 9D8D      		ldd r25,Y+29
 5626 204a 8854      		subi r24,72
 5627 204c 9D4F      		sbci r25,-3
 5628 204e FC01      		movw r30,r24
 5629 2050 8081      		ld r24,Z
 5630 2052 9181      		ldd r25,Z+1
 5631 2054 FC01      		movw r30,r24
 5632 2056 86A5      		ldd r24,Z+46
 5633 2058 97A5      		ldd r25,Z+47
 5634 205a 0196      		adiw r24,1
 5635 205c 2AE0      		ldi r18,lo8(10)
 5636 205e 30E0      		ldi r19,0
 5637 2060 B901      		movw r22,r18
 5638 2062 0E94 0000 		call __divmodhi4
 5639 2066 892B      		or r24,r25
 5640 2068 01F0      		breq .+2
 5641 206a 00C0      		rjmp .L174
 388:lp_solve_5.5/bfp/bfp_LUSOL/lp_LUSOL.c ****       bfp_LUSOLtighten(lp);
 5642               		.loc 3 388 0
 5643 206c 8C8D      		ldd r24,Y+28
 5644 206e 9D8D      		ldd r25,Y+29
 5645 2070 0E94 0000 		call bfp_LUSOLtighten
 389:lp_solve_5.5/bfp/bfp_LUSOL/lp_LUSOL.c **** 
 390:lp_solve_5.5/bfp/bfp_LUSOL/lp_LUSOL.c ****     /* Try to restore a non-singular basis by substituting singular columns with slacks */
 391:lp_solve_5.5/bfp/bfp_LUSOL/lp_LUSOL.c ****     while((inform == LUSOL_INFORM_LUSINGULAR) && (replacedcols < dimsize)) {
 5646               		.loc 3 391 0
 5647 2074 00C0      		rjmp .L174
 5648               	.L194:
 5649               	.LBB8:
 392:lp_solve_5.5/bfp/bfp_LUSOL/lp_LUSOL.c ****       int    iLeave, jLeave, iEnter;
 393:lp_solve_5.5/bfp/bfp_LUSOL/lp_LUSOL.c ****       MYBOOL isfixed;
 394:lp_solve_5.5/bfp/bfp_LUSOL/lp_LUSOL.c **** 
 395:lp_solve_5.5/bfp/bfp_LUSOL/lp_LUSOL.c ****       singularities++;
 5650               		.loc 3 395 0
 5651 2076 8D81      		ldd r24,Y+5
 5652 2078 9E81      		ldd r25,Y+6
 5653 207a 0196      		adiw r24,1
 5654 207c 9E83      		std Y+6,r25
 5655 207e 8D83      		std Y+5,r24
 396:lp_solve_5.5/bfp/bfp_LUSOL/lp_LUSOL.c ****       singularcols = LUSOL->luparm[LUSOL_IP_SINGULARITIES];
 5656               		.loc 3 396 0
 5657 2080 8D85      		ldd r24,Y+13
 5658 2082 9E85      		ldd r25,Y+14
 5659 2084 FC01      		movw r30,r24
 5660 2086 868D      		ldd r24,Z+30
 5661 2088 978D      		ldd r25,Z+31
 5662 208a 988B      		std Y+16,r25
 5663 208c 8F87      		std Y+15,r24
 397:lp_solve_5.5/bfp/bfp_LUSOL/lp_LUSOL.c ****       hold = (REAL) lp->get_total_iter(lp);
 5664               		.loc 3 397 0
 5665 208e 8C8D      		ldd r24,Y+28
 5666 2090 9D8D      		ldd r25,Y+29
 5667 2092 8C54      		subi r24,76
 5668 2094 9F4F      		sbci r25,-1
 5669 2096 FC01      		movw r30,r24
 5670 2098 2081      		ld r18,Z
 5671 209a 3181      		ldd r19,Z+1
 5672 209c 8C8D      		ldd r24,Y+28
 5673 209e 9D8D      		ldd r25,Y+29
 5674 20a0 F901      		movw r30,r18
 5675 20a2 0995      		icall
 5676 20a4 A22E      		mov r10,r18
 5677 20a6 B32E      		mov r11,r19
 5678 20a8 C42E      		mov r12,r20
 5679 20aa D52E      		mov r13,r21
 5680 20ac E62E      		mov r14,r22
 5681 20ae F72E      		mov r15,r23
 5682 20b0 082F      		mov r16,r24
 5683 20b2 192F      		mov r17,r25
 5684 20b4 2A2D      		mov r18,r10
 5685 20b6 3B2D      		mov r19,r11
 5686 20b8 4C2D      		mov r20,r12
 5687 20ba 5D2D      		mov r21,r13
 5688 20bc 6E2D      		mov r22,r14
 5689 20be 7F2D      		mov r23,r15
 5690 20c0 802F      		mov r24,r16
 5691 20c2 912F      		mov r25,r17
 5692 20c4 0E94 0000 		call __floatdisf
 5693 20c8 DC01      		movw r26,r24
 5694 20ca CB01      		movw r24,r22
 5695 20cc 898B      		std Y+17,r24
 5696 20ce 9A8B      		std Y+18,r25
 5697 20d0 AB8B      		std Y+19,r26
 5698 20d2 BC8B      		std Y+20,r27
 398:lp_solve_5.5/bfp/bfp_LUSOL/lp_LUSOL.c ****       lp->report(lp, NORMAL, "bfp_factorize: Resolving %d singularit%s at refact %d, iter %.0f\n",
 5699               		.loc 3 398 0
 5700 20d4 8C8D      		ldd r24,Y+28
 5701 20d6 9D8D      		ldd r25,Y+29
 5702 20d8 8E51      		subi r24,30
 5703 20da 9C4F      		sbci r25,-4
 5704 20dc FC01      		movw r30,r24
 5705 20de 2081      		ld r18,Z
 5706 20e0 3181      		ldd r19,Z+1
 399:lp_solve_5.5/bfp/bfp_LUSOL/lp_LUSOL.c ****                              singularcols, my_plural_y(singularcols), lp->invB->num_refact, hold);
 5707               		.loc 3 399 0
 5708 20e2 8C8D      		ldd r24,Y+28
 5709 20e4 9D8D      		ldd r25,Y+29
 5710 20e6 8854      		subi r24,72
 5711 20e8 9D4F      		sbci r25,-3
 5712 20ea FC01      		movw r30,r24
 5713 20ec 8081      		ld r24,Z
 5714 20ee 9181      		ldd r25,Z+1
 398:lp_solve_5.5/bfp/bfp_LUSOL/lp_LUSOL.c ****       lp->report(lp, NORMAL, "bfp_factorize: Resolving %d singularit%s at refact %d, iter %.0f\n",
 5715               		.loc 3 398 0
 5716 20f0 FC01      		movw r30,r24
 5717 20f2 468D      		ldd r20,Z+30
 5718 20f4 578D      		ldd r21,Z+31
 5719 20f6 8F85      		ldd r24,Y+15
 5720 20f8 9889      		ldd r25,Y+16
 5721 20fa 0197      		sbiw r24,1
 5722 20fc 01F4      		brne .L175
 398:lp_solve_5.5/bfp/bfp_LUSOL/lp_LUSOL.c ****       lp->report(lp, NORMAL, "bfp_factorize: Resolving %d singularit%s at refact %d, iter %.0f\n",
 5723               		.loc 3 398 0 is_stmt 0 discriminator 1
 5724 20fe 80E0      		ldi r24,lo8(.LC5)
 5725 2100 90E0      		ldi r25,hi8(.LC5)
 5726 2102 00C0      		rjmp .L176
 5727               	.L175:
 398:lp_solve_5.5/bfp/bfp_LUSOL/lp_LUSOL.c ****       lp->report(lp, NORMAL, "bfp_factorize: Resolving %d singularit%s at refact %d, iter %.0f\n",
 5728               		.loc 3 398 0 discriminator 2
 5729 2104 80E0      		ldi r24,lo8(.LC6)
 5730 2106 90E0      		ldi r25,hi8(.LC6)
 5731               	.L176:
 398:lp_solve_5.5/bfp/bfp_LUSOL/lp_LUSOL.c ****       lp->report(lp, NORMAL, "bfp_factorize: Resolving %d singularit%s at refact %d, iter %.0f\n",
 5732               		.loc 3 398 0 discriminator 4
 5733 2108 6C89      		ldd r22,Y+20
 5734 210a 6F93      		push r22
 5735 210c 6B89      		ldd r22,Y+19
 5736 210e 6F93      		push r22
 5737 2110 6A89      		ldd r22,Y+18
 5738 2112 6F93      		push r22
 5739 2114 6989      		ldd r22,Y+17
 5740 2116 6F93      		push r22
 5741 2118 652F      		mov r22,r21
 5742 211a 6F93      		push r22
 5743 211c 4F93      		push r20
 5744 211e 492F      		mov r20,r25
 5745 2120 4F93      		push r20
 5746 2122 8F93      		push r24
 5747 2124 8889      		ldd r24,Y+16
 5748 2126 8F93      		push r24
 5749 2128 8F85      		ldd r24,Y+15
 5750 212a 8F93      		push r24
 5751 212c 80E0      		ldi r24,lo8(.LC7)
 5752 212e 90E0      		ldi r25,hi8(.LC7)
 5753 2130 892F      		mov r24,r25
 5754 2132 8F93      		push r24
 5755 2134 80E0      		ldi r24,lo8(.LC7)
 5756 2136 90E0      		ldi r25,hi8(.LC7)
 5757 2138 8F93      		push r24
 5758 213a 1F92      		push __zero_reg__
 5759 213c 84E0      		ldi r24,lo8(4)
 5760 213e 8F93      		push r24
 5761 2140 8D8D      		ldd r24,Y+29
 5762 2142 8F93      		push r24
 5763 2144 8C8D      		ldd r24,Y+28
 5764 2146 8F93      		push r24
 5765 2148 F901      		movw r30,r18
 5766 214a 0995      		icall
 5767 214c 8DB7      		in r24,__SP_L__
 5768 214e 9EB7      		in r25,__SP_H__
 5769 2150 4096      		adiw r24,16
 5770 2152 0FB6      		in __tmp_reg__,__SREG__
 5771 2154 F894      		cli
 5772 2156 DEBF      		out __SP_H__,r29
 5773 2158 0FBE      		out __SREG__,__tmp_reg__
 5774 215a CDBF      		out __SP_L__,r28
 400:lp_solve_5.5/bfp/bfp_LUSOL/lp_LUSOL.c **** 
 401:lp_solve_5.5/bfp/bfp_LUSOL/lp_LUSOL.c ****       /* Find the failing / singular column(s) and make slack substitutions */
 402:lp_solve_5.5/bfp/bfp_LUSOL/lp_LUSOL.c ****       for(kcol = 1; kcol <= singularcols; kcol++) {
 5775               		.loc 3 402 0 is_stmt 1 discriminator 4
 5776 215c 81E0      		ldi r24,lo8(1)
 5777 215e 90E0      		ldi r25,0
 5778 2160 9A83      		std Y+2,r25
 5779 2162 8983      		std Y+1,r24
 5780 2164 00C0      		rjmp .L177
 5781               	.L192:
 403:lp_solve_5.5/bfp/bfp_LUSOL/lp_LUSOL.c **** 
 404:lp_solve_5.5/bfp/bfp_LUSOL/lp_LUSOL.c ****         /* Determine leaving and entering columns. */
 405:lp_solve_5.5/bfp/bfp_LUSOL/lp_LUSOL.c ****         iLeave = LUSOL_getSingularity(LUSOL, kcol);        /* This is the singular column as natura
 5782               		.loc 3 405 0
 5783 2166 2981      		ldd r18,Y+1
 5784 2168 3A81      		ldd r19,Y+2
 5785 216a 8D85      		ldd r24,Y+13
 5786 216c 9E85      		ldd r25,Y+14
 5787 216e B901      		movw r22,r18
 5788 2170 0E94 0000 		call LUSOL_getSingularity
 5789 2174 9E8B      		std Y+22,r25
 5790 2176 8D8B      		std Y+21,r24
 406:lp_solve_5.5/bfp/bfp_LUSOL/lp_LUSOL.c ****         iEnter = iLeave;                                   /* This is the target replacement slack 
 5791               		.loc 3 406 0
 5792 2178 8D89      		ldd r24,Y+21
 5793 217a 9E89      		ldd r25,Y+22
 5794 217c 9A87      		std Y+10,r25
 5795 217e 8987      		std Y+9,r24
 407:lp_solve_5.5/bfp/bfp_LUSOL/lp_LUSOL.c **** #if 1
 408:lp_solve_5.5/bfp/bfp_LUSOL/lp_LUSOL.c ****         iEnter = LUSOL->iqinv[iEnter];
 5796               		.loc 3 408 0
 5797 2180 8D85      		ldd r24,Y+13
 5798 2182 9E85      		ldd r25,Y+14
 5799 2184 8054      		subi r24,64
 5800 2186 9F4F      		sbci r25,-1
 5801 2188 FC01      		movw r30,r24
 5802 218a 2081      		ld r18,Z
 5803 218c 3181      		ldd r19,Z+1
 5804 218e 8985      		ldd r24,Y+9
 5805 2190 9A85      		ldd r25,Y+10
 5806 2192 880F      		lsl r24
 5807 2194 991F      		rol r25
 5808 2196 820F      		add r24,r18
 5809 2198 931F      		adc r25,r19
 5810 219a FC01      		movw r30,r24
 5811 219c 8081      		ld r24,Z
 5812 219e 9181      		ldd r25,Z+1
 5813 21a0 9A87      		std Y+10,r25
 5814 21a2 8987      		std Y+9,r24
 409:lp_solve_5.5/bfp/bfp_LUSOL/lp_LUSOL.c ****         iEnter = LUSOL->ip[iEnter];
 5815               		.loc 3 409 0
 5816 21a4 8D85      		ldd r24,Y+13
 5817 21a6 9E85      		ldd r25,Y+14
 5818 21a8 8255      		subi r24,82
 5819 21aa 9F4F      		sbci r25,-1
 5820 21ac FC01      		movw r30,r24
 5821 21ae 2081      		ld r18,Z
 5822 21b0 3181      		ldd r19,Z+1
 5823 21b2 8985      		ldd r24,Y+9
 5824 21b4 9A85      		ldd r25,Y+10
 5825 21b6 880F      		lsl r24
 5826 21b8 991F      		rol r25
 5827 21ba 820F      		add r24,r18
 5828 21bc 931F      		adc r25,r19
 5829 21be FC01      		movw r30,r24
 5830 21c0 8081      		ld r24,Z
 5831 21c2 9181      		ldd r25,Z+1
 5832 21c4 9A87      		std Y+10,r25
 5833 21c6 8987      		std Y+9,r24
 410:lp_solve_5.5/bfp/bfp_LUSOL/lp_LUSOL.c **** #endif
 411:lp_solve_5.5/bfp/bfp_LUSOL/lp_LUSOL.c ****         iLeave-= bfp_rowextra(lp);                         /* This is the original B column/basis i
 5834               		.loc 3 411 0
 5835 21c8 8C8D      		ldd r24,Y+28
 5836 21ca 9D8D      		ldd r25,Y+29
 5837 21cc 0E94 0000 		call bfp_rowextra
 5838 21d0 9C01      		movw r18,r24
 5839 21d2 8D89      		ldd r24,Y+21
 5840 21d4 9E89      		ldd r25,Y+22
 5841 21d6 821B      		sub r24,r18
 5842 21d8 930B      		sbc r25,r19
 5843 21da 9E8B      		std Y+22,r25
 5844 21dc 8D8B      		std Y+21,r24
 412:lp_solve_5.5/bfp/bfp_LUSOL/lp_LUSOL.c ****         jLeave = lp->var_basic[iLeave];                    /* This is the IA column index in lp_sol
 5845               		.loc 3 412 0
 5846 21de 8C8D      		ldd r24,Y+28
 5847 21e0 9D8D      		ldd r25,Y+29
 5848 21e2 8453      		subi r24,52
 5849 21e4 9D4F      		sbci r25,-3
 5850 21e6 FC01      		movw r30,r24
 5851 21e8 2081      		ld r18,Z
 5852 21ea 3181      		ldd r19,Z+1
 5853 21ec 8D89      		ldd r24,Y+21
 5854 21ee 9E89      		ldd r25,Y+22
 5855 21f0 880F      		lsl r24
 5856 21f2 991F      		rol r25
 5857 21f4 820F      		add r24,r18
 5858 21f6 931F      		adc r25,r19
 5859 21f8 FC01      		movw r30,r24
 5860 21fa 8081      		ld r24,Z
 5861 21fc 9181      		ldd r25,Z+1
 5862 21fe 988F      		std Y+24,r25
 5863 2200 8F8B      		std Y+23,r24
 413:lp_solve_5.5/bfp/bfp_LUSOL/lp_LUSOL.c **** 
 414:lp_solve_5.5/bfp/bfp_LUSOL/lp_LUSOL.c ****         /* Express the slack index in original lp_solve [1..rows] reference and check validity */
 415:lp_solve_5.5/bfp/bfp_LUSOL/lp_LUSOL.c ****  /*       if(B4 != NULL) iEnter = B4->B4_row[iEnter]; v6 FUNCTIONALITY */
 416:lp_solve_5.5/bfp/bfp_LUSOL/lp_LUSOL.c ****         iEnter -=  bfp_rowextra(lp);
 5864               		.loc 3 416 0
 5865 2202 8C8D      		ldd r24,Y+28
 5866 2204 9D8D      		ldd r25,Y+29
 5867 2206 0E94 0000 		call bfp_rowextra
 5868 220a 9C01      		movw r18,r24
 5869 220c 8985      		ldd r24,Y+9
 5870 220e 9A85      		ldd r25,Y+10
 5871 2210 821B      		sub r24,r18
 5872 2212 930B      		sbc r25,r19
 5873 2214 9A87      		std Y+10,r25
 5874 2216 8987      		std Y+9,r24
 417:lp_solve_5.5/bfp/bfp_LUSOL/lp_LUSOL.c ****         if(lp->is_basic[iEnter]) {
 5875               		.loc 3 417 0
 5876 2218 8C8D      		ldd r24,Y+28
 5877 221a 9D8D      		ldd r25,Y+29
 5878 221c 8053      		subi r24,48
 5879 221e 9D4F      		sbci r25,-3
 5880 2220 FC01      		movw r30,r24
 5881 2222 2081      		ld r18,Z
 5882 2224 3181      		ldd r19,Z+1
 5883 2226 8985      		ldd r24,Y+9
 5884 2228 9A85      		ldd r25,Y+10
 5885 222a 820F      		add r24,r18
 5886 222c 931F      		adc r25,r19
 5887 222e FC01      		movw r30,r24
 5888 2230 8081      		ld r24,Z
 5889 2232 8823      		tst r24
 5890 2234 01F4      		brne .+2
 5891 2236 00C0      		rjmp .L178
 418:lp_solve_5.5/bfp/bfp_LUSOL/lp_LUSOL.c ****           lp->report(lp, DETAILED, "bfp_factorize: Replacement slack %d is already basic!\n", iEnte
 5892               		.loc 3 418 0
 5893 2238 8C8D      		ldd r24,Y+28
 5894 223a 9D8D      		ldd r25,Y+29
 5895 223c 8E51      		subi r24,30
 5896 223e 9C4F      		sbci r25,-4
 5897 2240 FC01      		movw r30,r24
 5898 2242 8081      		ld r24,Z
 5899 2244 9181      		ldd r25,Z+1
 5900 2246 2A85      		ldd r18,Y+10
 5901 2248 2F93      		push r18
 5902 224a 2985      		ldd r18,Y+9
 5903 224c 2F93      		push r18
 5904 224e 20E0      		ldi r18,lo8(.LC8)
 5905 2250 30E0      		ldi r19,hi8(.LC8)
 5906 2252 232F      		mov r18,r19
 5907 2254 2F93      		push r18
 5908 2256 20E0      		ldi r18,lo8(.LC8)
 5909 2258 30E0      		ldi r19,hi8(.LC8)
 5910 225a 2F93      		push r18
 5911 225c 1F92      		push __zero_reg__
 5912 225e 25E0      		ldi r18,lo8(5)
 5913 2260 2F93      		push r18
 5914 2262 2D8D      		ldd r18,Y+29
 5915 2264 2F93      		push r18
 5916 2266 2C8D      		ldd r18,Y+28
 5917 2268 2F93      		push r18
 5918 226a FC01      		movw r30,r24
 5919 226c 0995      		icall
 5920 226e 8DB7      		in r24,__SP_L__
 5921 2270 9EB7      		in r25,__SP_H__
 5922 2272 0896      		adiw r24,8
 5923 2274 0FB6      		in __tmp_reg__,__SREG__
 5924 2276 F894      		cli
 5925 2278 DEBF      		out __SP_H__,r29
 5926 227a 0FBE      		out __SREG__,__tmp_reg__
 5927 227c CDBF      		out __SP_L__,r28
 419:lp_solve_5.5/bfp/bfp_LUSOL/lp_LUSOL.c **** 
 420:lp_solve_5.5/bfp/bfp_LUSOL/lp_LUSOL.c ****           /* See if we can find a good alternative slack variable to enter */
 421:lp_solve_5.5/bfp/bfp_LUSOL/lp_LUSOL.c ****           iEnter = 0;
 5928               		.loc 3 421 0
 5929 227e 1A86      		std Y+10,__zero_reg__
 5930 2280 1986      		std Y+9,__zero_reg__
 422:lp_solve_5.5/bfp/bfp_LUSOL/lp_LUSOL.c ****           for(inform = 1; inform <= lp->rows; inform++)
 5931               		.loc 3 422 0
 5932 2282 81E0      		ldi r24,lo8(1)
 5933 2284 90E0      		ldi r25,0
 5934 2286 9C83      		std Y+4,r25
 5935 2288 8B83      		std Y+3,r24
 5936 228a 00C0      		rjmp .L179
 5937               	.L185:
 423:lp_solve_5.5/bfp/bfp_LUSOL/lp_LUSOL.c ****             if(!lp->is_basic[inform]) {
 5938               		.loc 3 423 0
 5939 228c 8C8D      		ldd r24,Y+28
 5940 228e 9D8D      		ldd r25,Y+29
 5941 2290 8053      		subi r24,48
 5942 2292 9D4F      		sbci r25,-3
 5943 2294 FC01      		movw r30,r24
 5944 2296 2081      		ld r18,Z
 5945 2298 3181      		ldd r19,Z+1
 5946 229a 8B81      		ldd r24,Y+3
 5947 229c 9C81      		ldd r25,Y+4
 5948 229e 820F      		add r24,r18
 5949 22a0 931F      		adc r25,r19
 5950 22a2 FC01      		movw r30,r24
 5951 22a4 8081      		ld r24,Z
 5952 22a6 8823      		tst r24
 5953 22a8 01F0      		breq .+2
 5954 22aa 00C0      		rjmp .L180
 424:lp_solve_5.5/bfp/bfp_LUSOL/lp_LUSOL.c ****               if((iEnter == 0) || (lp->upbo[inform] > lp->upbo[iEnter])) {
 5955               		.loc 3 424 0
 5956 22ac 8985      		ldd r24,Y+9
 5957 22ae 9A85      		ldd r25,Y+10
 5958 22b0 892B      		or r24,r25
 5959 22b2 01F0      		breq .L181
 5960               		.loc 3 424 0 is_stmt 0 discriminator 1
 5961 22b4 8C8D      		ldd r24,Y+28
 5962 22b6 9D8D      		ldd r25,Y+29
 5963 22b8 8055      		subi r24,80
 5964 22ba 9D4F      		sbci r25,-3
 5965 22bc FC01      		movw r30,r24
 5966 22be 2081      		ld r18,Z
 5967 22c0 3181      		ldd r19,Z+1
 5968 22c2 8B81      		ldd r24,Y+3
 5969 22c4 9C81      		ldd r25,Y+4
 5970 22c6 880F      		lsl r24
 5971 22c8 991F      		rol r25
 5972 22ca 880F      		lsl r24
 5973 22cc 991F      		rol r25
 5974 22ce 820F      		add r24,r18
 5975 22d0 931F      		adc r25,r19
 5976 22d2 FC01      		movw r30,r24
 5977 22d4 8081      		ld r24,Z
 5978 22d6 9181      		ldd r25,Z+1
 5979 22d8 A281      		ldd r26,Z+2
 5980 22da B381      		ldd r27,Z+3
 5981 22dc 2C8D      		ldd r18,Y+28
 5982 22de 3D8D      		ldd r19,Y+29
 5983 22e0 2055      		subi r18,80
 5984 22e2 3D4F      		sbci r19,-3
 5985 22e4 F901      		movw r30,r18
 5986 22e6 4081      		ld r20,Z
 5987 22e8 5181      		ldd r21,Z+1
 5988 22ea 2985      		ldd r18,Y+9
 5989 22ec 3A85      		ldd r19,Y+10
 5990 22ee 220F      		lsl r18
 5991 22f0 331F      		rol r19
 5992 22f2 220F      		lsl r18
 5993 22f4 331F      		rol r19
 5994 22f6 240F      		add r18,r20
 5995 22f8 351F      		adc r19,r21
 5996 22fa F901      		movw r30,r18
 5997 22fc 2081      		ld r18,Z
 5998 22fe 3181      		ldd r19,Z+1
 5999 2300 4281      		ldd r20,Z+2
 6000 2302 5381      		ldd r21,Z+3
 6001 2304 BC01      		movw r22,r24
 6002 2306 CD01      		movw r24,r26
 6003 2308 0E94 0000 		call __gtsf2
 6004 230c 1816      		cp __zero_reg__,r24
 6005 230e 04F4      		brge .L180
 6006               	.L181:
 425:lp_solve_5.5/bfp/bfp_LUSOL/lp_LUSOL.c ****                 iEnter = inform;
 6007               		.loc 3 425 0 is_stmt 1
 6008 2310 8B81      		ldd r24,Y+3
 6009 2312 9C81      		ldd r25,Y+4
 6010 2314 9A87      		std Y+10,r25
 6011 2316 8987      		std Y+9,r24
 426:lp_solve_5.5/bfp/bfp_LUSOL/lp_LUSOL.c ****                 if(my_infinite(lp, lp->upbo[iEnter]))
 6012               		.loc 3 426 0
 6013 2318 8C8D      		ldd r24,Y+28
 6014 231a 9D8D      		ldd r25,Y+29
 6015 231c 8055      		subi r24,80
 6016 231e 9D4F      		sbci r25,-3
 6017 2320 FC01      		movw r30,r24
 6018 2322 2081      		ld r18,Z
 6019 2324 3181      		ldd r19,Z+1
 6020 2326 8985      		ldd r24,Y+9
 6021 2328 9A85      		ldd r25,Y+10
 6022 232a 880F      		lsl r24
 6023 232c 991F      		rol r25
 6024 232e 880F      		lsl r24
 6025 2330 991F      		rol r25
 6026 2332 820F      		add r24,r18
 6027 2334 931F      		adc r25,r19
 6028 2336 FC01      		movw r30,r24
 6029 2338 8081      		ld r24,Z
 6030 233a 9181      		ldd r25,Z+1
 6031 233c A281      		ldd r26,Z+2
 6032 233e B381      		ldd r27,Z+3
 6033 2340 BF77      		andi r27,0x7f
 6034 2342 2C8D      		ldd r18,Y+28
 6035 2344 3D8D      		ldd r19,Y+29
 6036 2346 265F      		subi r18,-10
 6037 2348 3C4F      		sbci r19,-4
 6038 234a F901      		movw r30,r18
 6039 234c 2081      		ld r18,Z
 6040 234e 3181      		ldd r19,Z+1
 6041 2350 4281      		ldd r20,Z+2
 6042 2352 5381      		ldd r21,Z+3
 6043 2354 BC01      		movw r22,r24
 6044 2356 CD01      		movw r24,r26
 6045 2358 0E94 0000 		call __gesf2
 6046 235c 8823      		tst r24
 6047 235e 04F4      		brge .L199
 6048               	.L180:
 422:lp_solve_5.5/bfp/bfp_LUSOL/lp_LUSOL.c ****             if(!lp->is_basic[inform]) {
 6049               		.loc 3 422 0 discriminator 2
 6050 2360 8B81      		ldd r24,Y+3
 6051 2362 9C81      		ldd r25,Y+4
 6052 2364 0196      		adiw r24,1
 6053 2366 9C83      		std Y+4,r25
 6054 2368 8B83      		std Y+3,r24
 6055               	.L179:
 422:lp_solve_5.5/bfp/bfp_LUSOL/lp_LUSOL.c ****             if(!lp->is_basic[inform]) {
 6056               		.loc 3 422 0 is_stmt 0 discriminator 1
 6057 236a 8C8D      		ldd r24,Y+28
 6058 236c 9D8D      		ldd r25,Y+29
 6059 236e 8651      		subi r24,22
 6060 2370 9E4F      		sbci r25,-2
 6061 2372 FC01      		movw r30,r24
 6062 2374 2081      		ld r18,Z
 6063 2376 3181      		ldd r19,Z+1
 6064 2378 8B81      		ldd r24,Y+3
 6065 237a 9C81      		ldd r25,Y+4
 6066 237c 2817      		cp r18,r24
 6067 237e 3907      		cpc r19,r25
 6068 2380 04F0      		brlt .+2
 6069 2382 00C0      		rjmp .L185
 6070 2384 00C0      		rjmp .L184
 6071               	.L199:
 427:lp_solve_5.5/bfp/bfp_LUSOL/lp_LUSOL.c ****                   break;
 6072               		.loc 3 427 0 is_stmt 1
 6073 2386 0000      		nop
 6074               	.L184:
 428:lp_solve_5.5/bfp/bfp_LUSOL/lp_LUSOL.c ****               }
 429:lp_solve_5.5/bfp/bfp_LUSOL/lp_LUSOL.c ****             }
 430:lp_solve_5.5/bfp/bfp_LUSOL/lp_LUSOL.c ****           if(iEnter == 0) {
 6075               		.loc 3 430 0
 6076 2388 8985      		ldd r24,Y+9
 6077 238a 9A85      		ldd r25,Y+10
 6078 238c 892B      		or r24,r25
 6079 238e 01F4      		brne .L178
 431:lp_solve_5.5/bfp/bfp_LUSOL/lp_LUSOL.c ****             lp->report(lp, SEVERE, "bfp_factorize: Could not find replacement slack variable!\n");
 6080               		.loc 3 431 0
 6081 2390 8C8D      		ldd r24,Y+28
 6082 2392 9D8D      		ldd r25,Y+29
 6083 2394 8E51      		subi r24,30
 6084 2396 9C4F      		sbci r25,-4
 6085 2398 FC01      		movw r30,r24
 6086 239a 8081      		ld r24,Z
 6087 239c 9181      		ldd r25,Z+1
 6088 239e 20E0      		ldi r18,lo8(.LC9)
 6089 23a0 30E0      		ldi r19,hi8(.LC9)
 6090 23a2 232F      		mov r18,r19
 6091 23a4 2F93      		push r18
 6092 23a6 20E0      		ldi r18,lo8(.LC9)
 6093 23a8 30E0      		ldi r19,hi8(.LC9)
 6094 23aa 2F93      		push r18
 6095 23ac 1F92      		push __zero_reg__
 6096 23ae 22E0      		ldi r18,lo8(2)
 6097 23b0 2F93      		push r18
 6098 23b2 2D8D      		ldd r18,Y+29
 6099 23b4 2F93      		push r18
 6100 23b6 2C8D      		ldd r18,Y+28
 6101 23b8 2F93      		push r18
 6102 23ba FC01      		movw r30,r24
 6103 23bc 0995      		icall
 6104 23be 0F90      		pop __tmp_reg__
 6105 23c0 0F90      		pop __tmp_reg__
 6106 23c2 0F90      		pop __tmp_reg__
 6107 23c4 0F90      		pop __tmp_reg__
 6108 23c6 0F90      		pop __tmp_reg__
 6109 23c8 0F90      		pop __tmp_reg__
 432:lp_solve_5.5/bfp/bfp_LUSOL/lp_LUSOL.c ****             break;
 6110               		.loc 3 432 0
 6111 23ca 00C0      		rjmp .L186
 6112               	.L178:
 433:lp_solve_5.5/bfp/bfp_LUSOL/lp_LUSOL.c ****           }
 434:lp_solve_5.5/bfp/bfp_LUSOL/lp_LUSOL.c ****         }
 435:lp_solve_5.5/bfp/bfp_LUSOL/lp_LUSOL.c **** 
 436:lp_solve_5.5/bfp/bfp_LUSOL/lp_LUSOL.c ****         /* We should update bound states for both the entering and leaving variables.
 437:lp_solve_5.5/bfp/bfp_LUSOL/lp_LUSOL.c ****            Note that this may cause (primal or dual) infeasibility, but I assume that
 438:lp_solve_5.5/bfp/bfp_LUSOL/lp_LUSOL.c ****            lp_solve traps this and takes necessary corrective action. */
 439:lp_solve_5.5/bfp/bfp_LUSOL/lp_LUSOL.c ****         isfixed = is_fixedvar(lp, iEnter);
 6113               		.loc 3 439 0
 6114 23cc 2985      		ldd r18,Y+9
 6115 23ce 3A85      		ldd r19,Y+10
 6116 23d0 8C8D      		ldd r24,Y+28
 6117 23d2 9D8D      		ldd r25,Y+29
 6118 23d4 B901      		movw r22,r18
 6119 23d6 0E94 0000 		call is_fixedvar_
 6120 23da 898F      		std Y+25,r24
 440:lp_solve_5.5/bfp/bfp_LUSOL/lp_LUSOL.c ****         if(isfixed)
 6121               		.loc 3 440 0
 6122 23dc 898D      		ldd r24,Y+25
 6123 23de 8823      		tst r24
 6124 23e0 01F0      		breq .L187
 441:lp_solve_5.5/bfp/bfp_LUSOL/lp_LUSOL.c ****           lp->fixedvars++;
 6125               		.loc 3 441 0
 6126 23e2 8C8D      		ldd r24,Y+28
 6127 23e4 9D8D      		ldd r25,Y+29
 6128 23e6 8457      		subi r24,116
 6129 23e8 9D4F      		sbci r25,-3
 6130 23ea FC01      		movw r30,r24
 6131 23ec 8081      		ld r24,Z
 6132 23ee 9181      		ldd r25,Z+1
 6133 23f0 9C01      		movw r18,r24
 6134 23f2 2F5F      		subi r18,-1
 6135 23f4 3F4F      		sbci r19,-1
 6136 23f6 8C8D      		ldd r24,Y+28
 6137 23f8 9D8D      		ldd r25,Y+29
 6138 23fa 8457      		subi r24,116
 6139 23fc 9D4F      		sbci r25,-3
 6140 23fe FC01      		movw r30,r24
 6141 2400 3183      		std Z+1,r19
 6142 2402 2083      		st Z,r18
 6143               	.L187:
 442:lp_solve_5.5/bfp/bfp_LUSOL/lp_LUSOL.c ****         hold = lp->upbo[jLeave];
 6144               		.loc 3 442 0
 6145 2404 8C8D      		ldd r24,Y+28
 6146 2406 9D8D      		ldd r25,Y+29
 6147 2408 8055      		subi r24,80
 6148 240a 9D4F      		sbci r25,-3
 6149 240c FC01      		movw r30,r24
 6150 240e 2081      		ld r18,Z
 6151 2410 3181      		ldd r19,Z+1
 6152 2412 8F89      		ldd r24,Y+23
 6153 2414 988D      		ldd r25,Y+24
 6154 2416 880F      		lsl r24
 6155 2418 991F      		rol r25
 6156 241a 880F      		lsl r24
 6157 241c 991F      		rol r25
 6158 241e 820F      		add r24,r18
 6159 2420 931F      		adc r25,r19
 6160 2422 FC01      		movw r30,r24
 6161 2424 8081      		ld r24,Z
 6162 2426 9181      		ldd r25,Z+1
 6163 2428 A281      		ldd r26,Z+2
 6164 242a B381      		ldd r27,Z+3
 6165 242c 898B      		std Y+17,r24
 6166 242e 9A8B      		std Y+18,r25
 6167 2430 AB8B      		std Y+19,r26
 6168 2432 BC8B      		std Y+20,r27
 443:lp_solve_5.5/bfp/bfp_LUSOL/lp_LUSOL.c ****         lp->is_lower[jLeave] = isfixed || (fabs(hold)>=lp->infinite) || (lp->rhs[iLeave] < hold);
 6169               		.loc 3 443 0
 6170 2434 8C8D      		ldd r24,Y+28
 6171 2436 9D8D      		ldd r25,Y+29
 6172 2438 8E52      		subi r24,46
 6173 243a 9D4F      		sbci r25,-3
 6174 243c FC01      		movw r30,r24
 6175 243e 2081      		ld r18,Z
 6176 2440 3181      		ldd r19,Z+1
 6177 2442 8F89      		ldd r24,Y+23
 6178 2444 988D      		ldd r25,Y+24
 6179 2446 8901      		movw r16,r18
 6180 2448 080F      		add r16,r24
 6181 244a 191F      		adc r17,r25
 6182 244c 898D      		ldd r24,Y+25
 6183 244e 8823      		tst r24
 6184 2450 01F4      		brne .L188
 6185               		.loc 3 443 0 is_stmt 0 discriminator 2
 6186 2452 8989      		ldd r24,Y+17
 6187 2454 9A89      		ldd r25,Y+18
 6188 2456 AB89      		ldd r26,Y+19
 6189 2458 BC89      		ldd r27,Y+20
 6190 245a BF77      		andi r27,0x7f
 6191 245c 2C8D      		ldd r18,Y+28
 6192 245e 3D8D      		ldd r19,Y+29
 6193 2460 265F      		subi r18,-10
 6194 2462 3C4F      		sbci r19,-4
 6195 2464 F901      		movw r30,r18
 6196 2466 2081      		ld r18,Z
 6197 2468 3181      		ldd r19,Z+1
 6198 246a 4281      		ldd r20,Z+2
 6199 246c 5381      		ldd r21,Z+3
 6200 246e BC01      		movw r22,r24
 6201 2470 CD01      		movw r24,r26
 6202 2472 0E94 0000 		call __gesf2
 6203 2476 8823      		tst r24
 6204 2478 04F4      		brge .L188
 6205               		.loc 3 443 0 discriminator 4
 6206 247a 8C8D      		ldd r24,Y+28
 6207 247c 9D8D      		ldd r25,Y+29
 6208 247e 8855      		subi r24,88
 6209 2480 9D4F      		sbci r25,-3
 6210 2482 FC01      		movw r30,r24
 6211 2484 2081      		ld r18,Z
 6212 2486 3181      		ldd r19,Z+1
 6213 2488 8D89      		ldd r24,Y+21
 6214 248a 9E89      		ldd r25,Y+22
 6215 248c 880F      		lsl r24
 6216 248e 991F      		rol r25
 6217 2490 880F      		lsl r24
 6218 2492 991F      		rol r25
 6219 2494 820F      		add r24,r18
 6220 2496 931F      		adc r25,r19
 6221 2498 FC01      		movw r30,r24
 6222 249a 8081      		ld r24,Z
 6223 249c 9181      		ldd r25,Z+1
 6224 249e A281      		ldd r26,Z+2
 6225 24a0 B381      		ldd r27,Z+3
 6226 24a2 2989      		ldd r18,Y+17
 6227 24a4 3A89      		ldd r19,Y+18
 6228 24a6 4B89      		ldd r20,Y+19
 6229 24a8 5C89      		ldd r21,Y+20
 6230 24aa BC01      		movw r22,r24
 6231 24ac CD01      		movw r24,r26
 6232 24ae 0E94 0000 		call __ltsf2
 6233 24b2 8823      		tst r24
 6234 24b4 04F4      		brge .L198
 6235               	.L188:
 6236               		.loc 3 443 0 discriminator 5
 6237 24b6 81E0      		ldi r24,lo8(1)
 6238 24b8 90E0      		ldi r25,0
 6239 24ba 00C0      		rjmp .L191
 6240               	.L198:
 6241               		.loc 3 443 0 discriminator 6
 6242 24bc 80E0      		ldi r24,0
 6243 24be 90E0      		ldi r25,0
 6244               	.L191:
 6245               		.loc 3 443 0 discriminator 8
 6246 24c0 F801      		movw r30,r16
 6247 24c2 8083      		st Z,r24
 444:lp_solve_5.5/bfp/bfp_LUSOL/lp_LUSOL.c ****         lp->is_lower[iEnter] = TRUE;
 6248               		.loc 3 444 0 is_stmt 1 discriminator 8
 6249 24c4 8C8D      		ldd r24,Y+28
 6250 24c6 9D8D      		ldd r25,Y+29
 6251 24c8 8E52      		subi r24,46
 6252 24ca 9D4F      		sbci r25,-3
 6253 24cc FC01      		movw r30,r24
 6254 24ce 2081      		ld r18,Z
 6255 24d0 3181      		ldd r19,Z+1
 6256 24d2 8985      		ldd r24,Y+9
 6257 24d4 9A85      		ldd r25,Y+10
 6258 24d6 820F      		add r24,r18
 6259 24d8 931F      		adc r25,r19
 6260 24da 21E0      		ldi r18,lo8(1)
 6261 24dc FC01      		movw r30,r24
 6262 24de 2083      		st Z,r18
 445:lp_solve_5.5/bfp/bfp_LUSOL/lp_LUSOL.c **** 
 446:lp_solve_5.5/bfp/bfp_LUSOL/lp_LUSOL.c ****         /* Do the basis replacement */
 447:lp_solve_5.5/bfp/bfp_LUSOL/lp_LUSOL.c ****         lp->set_basisvar(lp, iLeave, iEnter);
 6263               		.loc 3 447 0 discriminator 8
 6264 24e0 8C8D      		ldd r24,Y+28
 6265 24e2 9D8D      		ldd r25,Y+29
 6266 24e4 8C5C      		subi r24,-52
 6267 24e6 9E4F      		sbci r25,-2
 6268 24e8 FC01      		movw r30,r24
 6269 24ea 2081      		ld r18,Z
 6270 24ec 3181      		ldd r19,Z+1
 6271 24ee 4985      		ldd r20,Y+9
 6272 24f0 5A85      		ldd r21,Y+10
 6273 24f2 6D89      		ldd r22,Y+21
 6274 24f4 7E89      		ldd r23,Y+22
 6275 24f6 8C8D      		ldd r24,Y+28
 6276 24f8 9D8D      		ldd r25,Y+29
 6277 24fa F901      		movw r30,r18
 6278 24fc 0995      		icall
 402:lp_solve_5.5/bfp/bfp_LUSOL/lp_LUSOL.c **** 
 6279               		.loc 3 402 0 discriminator 8
 6280 24fe 8981      		ldd r24,Y+1
 6281 2500 9A81      		ldd r25,Y+2
 6282 2502 0196      		adiw r24,1
 6283 2504 9A83      		std Y+2,r25
 6284 2506 8983      		std Y+1,r24
 6285               	.L177:
 402:lp_solve_5.5/bfp/bfp_LUSOL/lp_LUSOL.c **** 
 6286               		.loc 3 402 0 is_stmt 0 discriminator 2
 6287 2508 2981      		ldd r18,Y+1
 6288 250a 3A81      		ldd r19,Y+2
 6289 250c 8F85      		ldd r24,Y+15
 6290 250e 9889      		ldd r25,Y+16
 6291 2510 8217      		cp r24,r18
 6292 2512 9307      		cpc r25,r19
 6293 2514 04F0      		brlt .+2
 6294 2516 00C0      		rjmp .L192
 6295               	.L186:
 448:lp_solve_5.5/bfp/bfp_LUSOL/lp_LUSOL.c **** 
 449:lp_solve_5.5/bfp/bfp_LUSOL/lp_LUSOL.c ****       }
 450:lp_solve_5.5/bfp/bfp_LUSOL/lp_LUSOL.c **** 
 451:lp_solve_5.5/bfp/bfp_LUSOL/lp_LUSOL.c ****       /* Refactorize with slack substitutions */
 452:lp_solve_5.5/bfp/bfp_LUSOL/lp_LUSOL.c ****       inform = bfp_LUSOLfactorize(lp, NULL, rownum, NULL);
 6296               		.loc 3 452 0 is_stmt 1
 6297 2518 4A8D      		ldd r20,Y+26
 6298 251a 5B8D      		ldd r21,Y+27
 6299 251c 8C8D      		ldd r24,Y+28
 6300 251e 9D8D      		ldd r25,Y+29
 6301 2520 20E0      		ldi r18,0
 6302 2522 30E0      		ldi r19,0
 6303 2524 60E0      		ldi r22,0
 6304 2526 70E0      		ldi r23,0
 6305 2528 0E94 0000 		call bfp_LUSOLfactorize
 6306 252c 9C83      		std Y+4,r25
 6307 252e 8B83      		std Y+3,r24
 453:lp_solve_5.5/bfp/bfp_LUSOL/lp_LUSOL.c ****       replacedcols += singularcols;
 6308               		.loc 3 453 0
 6309 2530 2F81      		ldd r18,Y+7
 6310 2532 3885      		ldd r19,Y+8
 6311 2534 8F85      		ldd r24,Y+15
 6312 2536 9889      		ldd r25,Y+16
 6313 2538 820F      		add r24,r18
 6314 253a 931F      		adc r25,r19
 6315 253c 9887      		std Y+8,r25
 6316 253e 8F83      		std Y+7,r24
 6317               	.L174:
 6318               	.LBE8:
 391:lp_solve_5.5/bfp/bfp_LUSOL/lp_LUSOL.c ****       int    iLeave, jLeave, iEnter;
 6319               		.loc 3 391 0
 6320 2540 8B81      		ldd r24,Y+3
 6321 2542 9C81      		ldd r25,Y+4
 6322 2544 0197      		sbiw r24,1
 6323 2546 01F4      		brne .L193
 391:lp_solve_5.5/bfp/bfp_LUSOL/lp_LUSOL.c ****       int    iLeave, jLeave, iEnter;
 6324               		.loc 3 391 0 is_stmt 0 discriminator 1
 6325 2548 2F81      		ldd r18,Y+7
 6326 254a 3885      		ldd r19,Y+8
 6327 254c 8B85      		ldd r24,Y+11
 6328 254e 9C85      		ldd r25,Y+12
 6329 2550 2817      		cp r18,r24
 6330 2552 3907      		cpc r19,r25
 6331 2554 04F4      		brge .+2
 6332 2556 00C0      		rjmp .L194
 6333               	.L193:
 454:lp_solve_5.5/bfp/bfp_LUSOL/lp_LUSOL.c ****     }
 455:lp_solve_5.5/bfp/bfp_LUSOL/lp_LUSOL.c **** 
 456:lp_solve_5.5/bfp/bfp_LUSOL/lp_LUSOL.c ****     /* Check if we had a fundamental problem */
 457:lp_solve_5.5/bfp/bfp_LUSOL/lp_LUSOL.c ****     if(singularities >= dimsize) {
 6334               		.loc 3 457 0 is_stmt 1
 6335 2558 2D81      		ldd r18,Y+5
 6336 255a 3E81      		ldd r19,Y+6
 6337 255c 8B85      		ldd r24,Y+11
 6338 255e 9C85      		ldd r25,Y+12
 6339 2560 2817      		cp r18,r24
 6340 2562 3907      		cpc r19,r25
 6341 2564 04F0      		brlt .L172
 458:lp_solve_5.5/bfp/bfp_LUSOL/lp_LUSOL.c ****       lp->report(lp, IMPORTANT, "bfp_factorize: LUSOL was unable to recover from a singular basis\n
 6342               		.loc 3 458 0
 6343 2566 8C8D      		ldd r24,Y+28
 6344 2568 9D8D      		ldd r25,Y+29
 6345 256a 8E51      		subi r24,30
 6346 256c 9C4F      		sbci r25,-4
 6347 256e FC01      		movw r30,r24
 6348 2570 8081      		ld r24,Z
 6349 2572 9181      		ldd r25,Z+1
 6350 2574 20E0      		ldi r18,lo8(.LC10)
 6351 2576 30E0      		ldi r19,hi8(.LC10)
 6352 2578 232F      		mov r18,r19
 6353 257a 2F93      		push r18
 6354 257c 20E0      		ldi r18,lo8(.LC10)
 6355 257e 30E0      		ldi r19,hi8(.LC10)
 6356 2580 2F93      		push r18
 6357 2582 1F92      		push __zero_reg__
 6358 2584 23E0      		ldi r18,lo8(3)
 6359 2586 2F93      		push r18
 6360 2588 2D8D      		ldd r18,Y+29
 6361 258a 2F93      		push r18
 6362 258c 2C8D      		ldd r18,Y+28
 6363 258e 2F93      		push r18
 6364 2590 FC01      		movw r30,r24
 6365 2592 0995      		icall
 6366 2594 0F90      		pop __tmp_reg__
 6367 2596 0F90      		pop __tmp_reg__
 6368 2598 0F90      		pop __tmp_reg__
 6369 259a 0F90      		pop __tmp_reg__
 6370 259c 0F90      		pop __tmp_reg__
 6371 259e 0F90      		pop __tmp_reg__
 459:lp_solve_5.5/bfp/bfp_LUSOL/lp_LUSOL.c ****       lp->spx_status = NUMFAILURE;
 6372               		.loc 3 459 0
 6373 25a0 8C8D      		ldd r24,Y+28
 6374 25a2 9D8D      		ldd r25,Y+29
 6375 25a4 8A5F      		subi r24,-6
 6376 25a6 9D4F      		sbci r25,-3
 6377 25a8 25E0      		ldi r18,lo8(5)
 6378 25aa 30E0      		ldi r19,0
 6379 25ac FC01      		movw r30,r24
 6380 25ae 3183      		std Z+1,r19
 6381 25b0 2083      		st Z,r18
 6382               	.L172:
 6383               	.LBE7:
 460:lp_solve_5.5/bfp/bfp_LUSOL/lp_LUSOL.c ****     }
 461:lp_solve_5.5/bfp/bfp_LUSOL/lp_LUSOL.c ****   }
 462:lp_solve_5.5/bfp/bfp_LUSOL/lp_LUSOL.c **** 
 463:lp_solve_5.5/bfp/bfp_LUSOL/lp_LUSOL.c ****   /* Clean up before returning */
 464:lp_solve_5.5/bfp/bfp_LUSOL/lp_LUSOL.c ****   FREE(rownum);
 6384               		.loc 3 464 0
 6385 25b2 8A8D      		ldd r24,Y+26
 6386 25b4 9B8D      		ldd r25,Y+27
 6387 25b6 892B      		or r24,r25
 6388 25b8 01F0      		breq .L195
 6389               		.loc 3 464 0 is_stmt 0 discriminator 1
 6390 25ba 8A8D      		ldd r24,Y+26
 6391 25bc 9B8D      		ldd r25,Y+27
 6392 25be 0E94 0000 		call free
 6393 25c2 1B8E      		std Y+27,__zero_reg__
 6394 25c4 1A8E      		std Y+26,__zero_reg__
 6395               	.L195:
 465:lp_solve_5.5/bfp/bfp_LUSOL/lp_LUSOL.c **** 
 466:lp_solve_5.5/bfp/bfp_LUSOL/lp_LUSOL.c ****   /* Update statistics */
 467:lp_solve_5.5/bfp/bfp_LUSOL/lp_LUSOL.c ****   /* SETMAX(lp->invB->max_Bsize, (*Bsize)); */
 468:lp_solve_5.5/bfp/bfp_LUSOL/lp_LUSOL.c ****   lp->invB->num_singular += singularities;    /* The total number of singular updates */
 6396               		.loc 3 468 0 is_stmt 1
 6397 25c6 8C8D      		ldd r24,Y+28
 6398 25c8 9D8D      		ldd r25,Y+29
 6399 25ca 8854      		subi r24,72
 6400 25cc 9D4F      		sbci r25,-3
 6401 25ce FC01      		movw r30,r24
 6402 25d0 8081      		ld r24,Z
 6403 25d2 9181      		ldd r25,Z+1
 6404 25d4 2C8D      		ldd r18,Y+28
 6405 25d6 3D8D      		ldd r19,Y+29
 6406 25d8 2854      		subi r18,72
 6407 25da 3D4F      		sbci r19,-3
 6408 25dc F901      		movw r30,r18
 6409 25de 2081      		ld r18,Z
 6410 25e0 3181      		ldd r19,Z+1
 6411 25e2 F901      		movw r30,r18
 6412 25e4 46A5      		ldd r20,Z+46
 6413 25e6 57A5      		ldd r21,Z+47
 6414 25e8 2D81      		ldd r18,Y+5
 6415 25ea 3E81      		ldd r19,Y+6
 6416 25ec 240F      		add r18,r20
 6417 25ee 351F      		adc r19,r21
 6418 25f0 FC01      		movw r30,r24
 6419 25f2 37A7      		std Z+47,r19
 6420 25f4 26A7      		std Z+46,r18
 469:lp_solve_5.5/bfp/bfp_LUSOL/lp_LUSOL.c **** 
 470:lp_solve_5.5/bfp/bfp_LUSOL/lp_LUSOL.c ****   return( singularities );
 6421               		.loc 3 470 0
 6422 25f6 8D81      		ldd r24,Y+5
 6423 25f8 9E81      		ldd r25,Y+6
 6424               	/* epilogue start */
 471:lp_solve_5.5/bfp/bfp_LUSOL/lp_LUSOL.c **** }
 6425               		.loc 3 471 0
 6426 25fa A496      		adiw r28,36
 6427 25fc 0FB6      		in __tmp_reg__,__SREG__
 6428 25fe F894      		cli
 6429 2600 DEBF      		out __SP_H__,r29
 6430 2602 0FBE      		out __SREG__,__tmp_reg__
 6431 2604 CDBF      		out __SP_L__,r28
 6432 2606 DF91      		pop r29
 6433 2608 CF91      		pop r28
 6434 260a 1F91      		pop r17
 6435 260c 0F91      		pop r16
 6436 260e FF90      		pop r15
 6437 2610 EF90      		pop r14
 6438 2612 DF90      		pop r13
 6439 2614 CF90      		pop r12
 6440 2616 BF90      		pop r11
 6441 2618 AF90      		pop r10
 6442 261a 0895      		ret
 6443               		.cfi_endproc
 6444               	.LFE42:
 6446               		.section	.rodata
 6447               	.LC11:
 6448 023d 6266 705F 		.string	"bfp_finishupdate: Failed at iter %.0f, pivot %d;\n%s\n"
 6448      6669 6E69 
 6448      7368 7570 
 6448      6461 7465 
 6448      3A20 4661 
 6449               	.LC12:
 6450 0272 6266 705F 		.string	"bfp_finishupdate: Insufficient memory at iter %.0f;\n%s\n"
 6450      6669 6E69 
 6450      7368 7570 
 6450      6461 7465 
 6450      3A20 496E 
 6451               	.LC13:
 6452 02aa 6266 705F 		.string	"bfp_finishupdate: Recovery attempt unsuccessful at iter %.0f;\n%s\n"
 6452      6669 6E69 
 6452      7368 7570 
 6452      6461 7465 
 6452      3A20 5265 
 6453               	.LC14:
 6454 02ec 6266 705F 		.string	"bfp_finishupdate: Correction or recovery was successful.\n"
 6454      6669 6E69 
 6454      7368 7570 
 6454      6461 7465 
 6454      3A20 436F 
 6455               		.text
 6456               	.global	bfp_finishupdate
 6458               	bfp_finishupdate:
 6459               	.LFB43:
 472:lp_solve_5.5/bfp/bfp_LUSOL/lp_LUSOL.c **** 
 473:lp_solve_5.5/bfp/bfp_LUSOL/lp_LUSOL.c **** /* MUST MODIFY */
 474:lp_solve_5.5/bfp/bfp_LUSOL/lp_LUSOL.c **** MYBOOL BFP_CALLMODEL bfp_finishupdate(lprec *lp, MYBOOL changesign)
 475:lp_solve_5.5/bfp/bfp_LUSOL/lp_LUSOL.c **** /* Was addetacol() in versions of lp_solve before 4.0.1.8 - KE */
 476:lp_solve_5.5/bfp/bfp_LUSOL/lp_LUSOL.c **** {
 6460               		.loc 3 476 0
 6461               		.cfi_startproc
 6462 261c 2F92      		push r2
 6463               	.LCFI213:
 6464               		.cfi_def_cfa_offset 3
 6465               		.cfi_offset 2, -2
 6466 261e 3F92      		push r3
 6467               	.LCFI214:
 6468               		.cfi_def_cfa_offset 4
 6469               		.cfi_offset 3, -3
 6470 2620 4F92      		push r4
 6471               	.LCFI215:
 6472               		.cfi_def_cfa_offset 5
 6473               		.cfi_offset 4, -4
 6474 2622 5F92      		push r5
 6475               	.LCFI216:
 6476               		.cfi_def_cfa_offset 6
 6477               		.cfi_offset 5, -5
 6478 2624 6F92      		push r6
 6479               	.LCFI217:
 6480               		.cfi_def_cfa_offset 7
 6481               		.cfi_offset 6, -6
 6482 2626 7F92      		push r7
 6483               	.LCFI218:
 6484               		.cfi_def_cfa_offset 8
 6485               		.cfi_offset 7, -7
 6486 2628 8F92      		push r8
 6487               	.LCFI219:
 6488               		.cfi_def_cfa_offset 9
 6489               		.cfi_offset 8, -8
 6490 262a 9F92      		push r9
 6491               	.LCFI220:
 6492               		.cfi_def_cfa_offset 10
 6493               		.cfi_offset 9, -9
 6494 262c AF92      		push r10
 6495               	.LCFI221:
 6496               		.cfi_def_cfa_offset 11
 6497               		.cfi_offset 10, -10
 6498 262e BF92      		push r11
 6499               	.LCFI222:
 6500               		.cfi_def_cfa_offset 12
 6501               		.cfi_offset 11, -11
 6502 2630 CF92      		push r12
 6503               	.LCFI223:
 6504               		.cfi_def_cfa_offset 13
 6505               		.cfi_offset 12, -12
 6506 2632 DF92      		push r13
 6507               	.LCFI224:
 6508               		.cfi_def_cfa_offset 14
 6509               		.cfi_offset 13, -13
 6510 2634 EF92      		push r14
 6511               	.LCFI225:
 6512               		.cfi_def_cfa_offset 15
 6513               		.cfi_offset 14, -14
 6514 2636 FF92      		push r15
 6515               	.LCFI226:
 6516               		.cfi_def_cfa_offset 16
 6517               		.cfi_offset 15, -15
 6518 2638 0F93      		push r16
 6519               	.LCFI227:
 6520               		.cfi_def_cfa_offset 17
 6521               		.cfi_offset 16, -16
 6522 263a 1F93      		push r17
 6523               	.LCFI228:
 6524               		.cfi_def_cfa_offset 18
 6525               		.cfi_offset 17, -17
 6526 263c CF93      		push r28
 6527               	.LCFI229:
 6528               		.cfi_def_cfa_offset 19
 6529               		.cfi_offset 28, -18
 6530 263e DF93      		push r29
 6531               	.LCFI230:
 6532               		.cfi_def_cfa_offset 20
 6533               		.cfi_offset 29, -19
 6534 2640 CDB7      		in r28,__SP_L__
 6535 2642 DEB7      		in r29,__SP_H__
 6536               	.LCFI231:
 6537               		.cfi_def_cfa_register 28
 6538 2644 A997      		sbiw r28,41
 6539               	.LCFI232:
 6540               		.cfi_def_cfa_offset 61
 6541 2646 0FB6      		in __tmp_reg__,__SREG__
 6542 2648 F894      		cli
 6543 264a DEBF      		out __SP_H__,r29
 6544 264c 0FBE      		out __SREG__,__tmp_reg__
 6545 264e CDBF      		out __SP_L__,r28
 6546               	/* prologue: function */
 6547               	/* frame size = 41 */
 6548               	/* stack size = 59 */
 6549               	.L__stack_usage = 59
 6550 2650 9A8F      		std Y+26,r25
 6551 2652 898F      		std Y+25,r24
 6552 2654 6B8F      		std Y+27,r22
 477:lp_solve_5.5/bfp/bfp_LUSOL/lp_LUSOL.c ****   int      i, k, kcol, deltarows = bfp_rowoffset(lp);
 6553               		.loc 3 477 0
 6554 2656 898D      		ldd r24,Y+25
 6555 2658 9A8D      		ldd r25,Y+26
 6556 265a 0E94 0000 		call bfp_rowoffset
 6557 265e 9C83      		std Y+4,r25
 6558 2660 8B83      		std Y+3,r24
 478:lp_solve_5.5/bfp/bfp_LUSOL/lp_LUSOL.c ****   REAL     DIAG, VNORM;
 479:lp_solve_5.5/bfp/bfp_LUSOL/lp_LUSOL.c ****   INVrec   *lu = lp->invB;
 6559               		.loc 3 479 0
 6560 2662 898D      		ldd r24,Y+25
 6561 2664 9A8D      		ldd r25,Y+26
 6562 2666 8854      		subi r24,72
 6563 2668 9D4F      		sbci r25,-3
 6564 266a FC01      		movw r30,r24
 6565 266c 8081      		ld r24,Z
 6566 266e 9181      		ldd r25,Z+1
 6567 2670 9E83      		std Y+6,r25
 6568 2672 8D83      		std Y+5,r24
 480:lp_solve_5.5/bfp/bfp_LUSOL/lp_LUSOL.c ****   LUSOLrec *LUSOL = lu->LUSOL;
 6569               		.loc 3 480 0
 6570 2674 8D81      		ldd r24,Y+5
 6571 2676 9E81      		ldd r25,Y+6
 6572 2678 FC01      		movw r30,r24
 6573 267a 8085      		ldd r24,Z+8
 6574 267c 9185      		ldd r25,Z+9
 6575 267e 9887      		std Y+8,r25
 6576 2680 8F83      		std Y+7,r24
 481:lp_solve_5.5/bfp/bfp_LUSOL/lp_LUSOL.c **** 
 482:lp_solve_5.5/bfp/bfp_LUSOL/lp_LUSOL.c ****   if(!lu->is_dirty)
 6577               		.loc 3 482 0
 6578 2682 8D81      		ldd r24,Y+5
 6579 2684 9E81      		ldd r25,Y+6
 6580 2686 FC01      		movw r30,r24
 6581 2688 82A9      		ldd r24,Z+50
 6582 268a 8823      		tst r24
 6583 268c 01F4      		brne .L201
 483:lp_solve_5.5/bfp/bfp_LUSOL/lp_LUSOL.c ****     return( FALSE );
 6584               		.loc 3 483 0
 6585 268e 80E0      		ldi r24,0
 6586 2690 00C0      		rjmp .L220
 6587               	.L201:
 484:lp_solve_5.5/bfp/bfp_LUSOL/lp_LUSOL.c ****   if(lu->is_dirty != AUTOMATIC)
 6588               		.loc 3 484 0
 6589 2692 8D81      		ldd r24,Y+5
 6590 2694 9E81      		ldd r25,Y+6
 6591 2696 FC01      		movw r30,r24
 6592 2698 82A9      		ldd r24,Z+50
 6593 269a 8230      		cpi r24,lo8(2)
 6594 269c 01F0      		breq .L203
 485:lp_solve_5.5/bfp/bfp_LUSOL/lp_LUSOL.c ****     lu->is_dirty = FALSE;
 6595               		.loc 3 485 0
 6596 269e 8D81      		ldd r24,Y+5
 6597 26a0 9E81      		ldd r25,Y+6
 6598 26a2 FC01      		movw r30,r24
 6599 26a4 12AA      		std Z+50,__zero_reg__
 6600               	.L203:
 486:lp_solve_5.5/bfp/bfp_LUSOL/lp_LUSOL.c **** 
 487:lp_solve_5.5/bfp/bfp_LUSOL/lp_LUSOL.c ****   /* Perform the update */
 488:lp_solve_5.5/bfp/bfp_LUSOL/lp_LUSOL.c ****   k = lu->col_pos+deltarows;
 6601               		.loc 3 488 0
 6602 26a6 8D81      		ldd r24,Y+5
 6603 26a8 9E81      		ldd r25,Y+6
 6604 26aa FC01      		movw r30,r24
 6605 26ac 2685      		ldd r18,Z+14
 6606 26ae 3785      		ldd r19,Z+15
 6607 26b0 8B81      		ldd r24,Y+3
 6608 26b2 9C81      		ldd r25,Y+4
 6609 26b4 820F      		add r24,r18
 6610 26b6 931F      		adc r25,r19
 6611 26b8 9A87      		std Y+10,r25
 6612 26ba 8987      		std Y+9,r24
 489:lp_solve_5.5/bfp/bfp_LUSOL/lp_LUSOL.c ****   lu->num_pivots++;
 6613               		.loc 3 489 0
 6614 26bc 8D81      		ldd r24,Y+5
 6615 26be 9E81      		ldd r25,Y+6
 6616 26c0 FC01      		movw r30,r24
 6617 26c2 84A5      		ldd r24,Z+44
 6618 26c4 95A5      		ldd r25,Z+45
 6619 26c6 9C01      		movw r18,r24
 6620 26c8 2F5F      		subi r18,-1
 6621 26ca 3F4F      		sbci r19,-1
 6622 26cc 8D81      		ldd r24,Y+5
 6623 26ce 9E81      		ldd r25,Y+6
 6624 26d0 FC01      		movw r30,r24
 6625 26d2 35A7      		std Z+45,r19
 6626 26d4 24A7      		std Z+44,r18
 490:lp_solve_5.5/bfp/bfp_LUSOL/lp_LUSOL.c ****   if(lu->col_leave > lu->dimcount-deltarows)
 6627               		.loc 3 490 0
 6628 26d6 8D81      		ldd r24,Y+5
 6629 26d8 9E81      		ldd r25,Y+6
 6630 26da FC01      		movw r30,r24
 6631 26dc 2485      		ldd r18,Z+12
 6632 26de 3585      		ldd r19,Z+13
 6633 26e0 8D81      		ldd r24,Y+5
 6634 26e2 9E81      		ldd r25,Y+6
 6635 26e4 FC01      		movw r30,r24
 6636 26e6 4281      		ldd r20,Z+2
 6637 26e8 5381      		ldd r21,Z+3
 6638 26ea 8B81      		ldd r24,Y+3
 6639 26ec 9C81      		ldd r25,Y+4
 6640 26ee BA01      		movw r22,r20
 6641 26f0 681B      		sub r22,r24
 6642 26f2 790B      		sbc r23,r25
 6643 26f4 CB01      		movw r24,r22
 6644 26f6 8217      		cp r24,r18
 6645 26f8 9307      		cpc r25,r19
 6646 26fa 04F4      		brge .L204
 491:lp_solve_5.5/bfp/bfp_LUSOL/lp_LUSOL.c ****     lu->user_colcount--;
 6647               		.loc 3 491 0
 6648 26fc 8D81      		ldd r24,Y+5
 6649 26fe 9E81      		ldd r25,Y+6
 6650 2700 FC01      		movw r30,r24
 6651 2702 8681      		ldd r24,Z+6
 6652 2704 9781      		ldd r25,Z+7
 6653 2706 9C01      		movw r18,r24
 6654 2708 2150      		subi r18,1
 6655 270a 3109      		sbc r19,__zero_reg__
 6656 270c 8D81      		ldd r24,Y+5
 6657 270e 9E81      		ldd r25,Y+6
 6658 2710 FC01      		movw r30,r24
 6659 2712 3783      		std Z+7,r19
 6660 2714 2683      		std Z+6,r18
 6661               	.L204:
 492:lp_solve_5.5/bfp/bfp_LUSOL/lp_LUSOL.c ****   if(lu->col_enter > lu->dimcount-deltarows)
 6662               		.loc 3 492 0
 6663 2716 8D81      		ldd r24,Y+5
 6664 2718 9E81      		ldd r25,Y+6
 6665 271a FC01      		movw r30,r24
 6666 271c 2285      		ldd r18,Z+10
 6667 271e 3385      		ldd r19,Z+11
 6668 2720 8D81      		ldd r24,Y+5
 6669 2722 9E81      		ldd r25,Y+6
 6670 2724 FC01      		movw r30,r24
 6671 2726 4281      		ldd r20,Z+2
 6672 2728 5381      		ldd r21,Z+3
 6673 272a 8B81      		ldd r24,Y+3
 6674 272c 9C81      		ldd r25,Y+4
 6675 272e BA01      		movw r22,r20
 6676 2730 681B      		sub r22,r24
 6677 2732 790B      		sbc r23,r25
 6678 2734 CB01      		movw r24,r22
 6679 2736 8217      		cp r24,r18
 6680 2738 9307      		cpc r25,r19
 6681 273a 04F4      		brge .L205
 493:lp_solve_5.5/bfp/bfp_LUSOL/lp_LUSOL.c ****     lu->user_colcount++;
 6682               		.loc 3 493 0
 6683 273c 8D81      		ldd r24,Y+5
 6684 273e 9E81      		ldd r25,Y+6
 6685 2740 FC01      		movw r30,r24
 6686 2742 8681      		ldd r24,Z+6
 6687 2744 9781      		ldd r25,Z+7
 6688 2746 9C01      		movw r18,r24
 6689 2748 2F5F      		subi r18,-1
 6690 274a 3F4F      		sbci r19,-1
 6691 274c 8D81      		ldd r24,Y+5
 6692 274e 9E81      		ldd r25,Y+6
 6693 2750 FC01      		movw r30,r24
 6694 2752 3783      		std Z+7,r19
 6695 2754 2683      		std Z+6,r18
 6696               	.L205:
 494:lp_solve_5.5/bfp/bfp_LUSOL/lp_LUSOL.c ****   kcol = lu->col_pos;
 6697               		.loc 3 494 0
 6698 2756 8D81      		ldd r24,Y+5
 6699 2758 9E81      		ldd r25,Y+6
 6700 275a FC01      		movw r30,r24
 6701 275c 8685      		ldd r24,Z+14
 6702 275e 9785      		ldd r25,Z+15
 6703 2760 9C87      		std Y+12,r25
 6704 2762 8B87      		std Y+11,r24
 495:lp_solve_5.5/bfp/bfp_LUSOL/lp_LUSOL.c ****   lu->col_pos = 0;
 6705               		.loc 3 495 0
 6706 2764 8D81      		ldd r24,Y+5
 6707 2766 9E81      		ldd r25,Y+6
 6708 2768 FC01      		movw r30,r24
 6709 276a 1786      		std Z+15,__zero_reg__
 6710 276c 1686      		std Z+14,__zero_reg__
 496:lp_solve_5.5/bfp/bfp_LUSOL/lp_LUSOL.c **** 
 497:lp_solve_5.5/bfp/bfp_LUSOL/lp_LUSOL.c ****   /* Do standard update */
 498:lp_solve_5.5/bfp/bfp_LUSOL/lp_LUSOL.c **** #ifdef LUSOLSafeFastUpdate      /* NB! Defined in lusol.h */
 499:lp_solve_5.5/bfp/bfp_LUSOL/lp_LUSOL.c ****   if(TRUE || !changesign) {
 500:lp_solve_5.5/bfp/bfp_LUSOL/lp_LUSOL.c ****     if(changesign) {
 6711               		.loc 3 500 0
 6712 276e 8B8D      		ldd r24,Y+27
 6713 2770 8823      		tst r24
 6714 2772 01F4      		brne .+2
 6715 2774 00C0      		rjmp .L206
 6716               	.LBB9:
 501:lp_solve_5.5/bfp/bfp_LUSOL/lp_LUSOL.c ****       REAL *temp = LUSOL->vLU6L;
 6717               		.loc 3 501 0
 6718 2776 8F81      		ldd r24,Y+7
 6719 2778 9885      		ldd r25,Y+8
 6720 277a 8A53      		subi r24,58
 6721 277c 9F4F      		sbci r25,-1
 6722 277e FC01      		movw r30,r24
 6723 2780 8081      		ld r24,Z
 6724 2782 9181      		ldd r25,Z+1
 6725 2784 9A83      		std Y+2,r25
 6726 2786 8983      		std Y+1,r24
 502:lp_solve_5.5/bfp/bfp_LUSOL/lp_LUSOL.c ****       for(i = 1, temp++; i <= lp->rows+deltarows; i++, temp++)
 6727               		.loc 3 502 0
 6728 2788 81E0      		ldi r24,lo8(1)
 6729 278a 90E0      		ldi r25,0
 6730 278c 988B      		std Y+16,r25
 6731 278e 8F87      		std Y+15,r24
 6732 2790 8981      		ldd r24,Y+1
 6733 2792 9A81      		ldd r25,Y+2
 6734 2794 0496      		adiw r24,4
 6735 2796 9A83      		std Y+2,r25
 6736 2798 8983      		std Y+1,r24
 6737 279a 00C0      		rjmp .L207
 6738               	.L210:
 503:lp_solve_5.5/bfp/bfp_LUSOL/lp_LUSOL.c ****         if(*temp != 0)
 6739               		.loc 3 503 0
 6740 279c 8981      		ldd r24,Y+1
 6741 279e 9A81      		ldd r25,Y+2
 6742 27a0 FC01      		movw r30,r24
 6743 27a2 8081      		ld r24,Z
 6744 27a4 9181      		ldd r25,Z+1
 6745 27a6 A281      		ldd r26,Z+2
 6746 27a8 B381      		ldd r27,Z+3
 6747 27aa 20E0      		ldi r18,0
 6748 27ac 30E0      		ldi r19,0
 6749 27ae A901      		movw r20,r18
 6750 27b0 BC01      		movw r22,r24
 6751 27b2 CD01      		movw r24,r26
 6752 27b4 0E94 0000 		call __nesf2
 6753 27b8 8823      		tst r24
 6754 27ba 01F0      		breq .L208
 504:lp_solve_5.5/bfp/bfp_LUSOL/lp_LUSOL.c ****           *temp = -(*temp);
 6755               		.loc 3 504 0
 6756 27bc 8981      		ldd r24,Y+1
 6757 27be 9A81      		ldd r25,Y+2
 6758 27c0 FC01      		movw r30,r24
 6759 27c2 8081      		ld r24,Z
 6760 27c4 9181      		ldd r25,Z+1
 6761 27c6 A281      		ldd r26,Z+2
 6762 27c8 B381      		ldd r27,Z+3
 6763 27ca B058      		subi r27,0x80
 6764 27cc 2981      		ldd r18,Y+1
 6765 27ce 3A81      		ldd r19,Y+2
 6766 27d0 F901      		movw r30,r18
 6767 27d2 8083      		st Z,r24
 6768 27d4 9183      		std Z+1,r25
 6769 27d6 A283      		std Z+2,r26
 6770 27d8 B383      		std Z+3,r27
 6771               	.L208:
 502:lp_solve_5.5/bfp/bfp_LUSOL/lp_LUSOL.c ****       for(i = 1, temp++; i <= lp->rows+deltarows; i++, temp++)
 6772               		.loc 3 502 0 discriminator 2
 6773 27da 8F85      		ldd r24,Y+15
 6774 27dc 9889      		ldd r25,Y+16
 6775 27de 0196      		adiw r24,1
 6776 27e0 988B      		std Y+16,r25
 6777 27e2 8F87      		std Y+15,r24
 6778 27e4 8981      		ldd r24,Y+1
 6779 27e6 9A81      		ldd r25,Y+2
 6780 27e8 0496      		adiw r24,4
 6781 27ea 9A83      		std Y+2,r25
 6782 27ec 8983      		std Y+1,r24
 6783               	.L207:
 502:lp_solve_5.5/bfp/bfp_LUSOL/lp_LUSOL.c ****       for(i = 1, temp++; i <= lp->rows+deltarows; i++, temp++)
 6784               		.loc 3 502 0 is_stmt 0 discriminator 1
 6785 27ee 898D      		ldd r24,Y+25
 6786 27f0 9A8D      		ldd r25,Y+26
 6787 27f2 8651      		subi r24,22
 6788 27f4 9E4F      		sbci r25,-2
 6789 27f6 FC01      		movw r30,r24
 6790 27f8 2081      		ld r18,Z
 6791 27fa 3181      		ldd r19,Z+1
 6792 27fc 8B81      		ldd r24,Y+3
 6793 27fe 9C81      		ldd r25,Y+4
 6794 2800 280F      		add r18,r24
 6795 2802 391F      		adc r19,r25
 6796 2804 8F85      		ldd r24,Y+15
 6797 2806 9889      		ldd r25,Y+16
 6798 2808 2817      		cp r18,r24
 6799 280a 3907      		cpc r19,r25
 6800 280c 04F4      		brge .L210
 6801               	.L206:
 6802               	.LBE9:
 505:lp_solve_5.5/bfp/bfp_LUSOL/lp_LUSOL.c ****     }
 506:lp_solve_5.5/bfp/bfp_LUSOL/lp_LUSOL.c ****     /* Execute the update using data prepared earlier */
 507:lp_solve_5.5/bfp/bfp_LUSOL/lp_LUSOL.c ****     LU8RPC(LUSOL, LUSOL_UPDATE_OLDNONEMPTY, LUSOL_UPDATE_USEPREPARED,
 6803               		.loc 3 507 0 is_stmt 1
 6804 280e FE01      		movw r30,r28
 6805 2810 7596      		adiw r30,21
 6806 2812 BE01      		movw r22,r28
 6807 2814 6F5E      		subi r22,-17
 6808 2816 7F4F      		sbci r23,-1
 6809 2818 AE01      		movw r20,r28
 6810 281a 415F      		subi r20,-15
 6811 281c 5F4F      		sbci r21,-1
 6812 281e 2985      		ldd r18,Y+9
 6813 2820 3A85      		ldd r19,Y+10
 6814 2822 8F81      		ldd r24,Y+7
 6815 2824 9885      		ldd r25,Y+8
 6816 2826 4F01      		movw r8,r30
 6817 2828 5B01      		movw r10,r22
 6818 282a 6A01      		movw r12,r20
 6819 282c E12C      		mov r14,__zero_reg__
 6820 282e F12C      		mov r15,__zero_reg__
 6821 2830 00E0      		ldi r16,0
 6822 2832 10E0      		ldi r17,0
 6823 2834 42E0      		ldi r20,lo8(2)
 6824 2836 50E0      		ldi r21,0
 6825 2838 61E0      		ldi r22,lo8(1)
 6826 283a 70E0      		ldi r23,0
 6827 283c 0E94 0000 		call LU8RPC
 508:lp_solve_5.5/bfp/bfp_LUSOL/lp_LUSOL.c ****            k, NULL, NULL, &i, &DIAG, &VNORM);
 509:lp_solve_5.5/bfp/bfp_LUSOL/lp_LUSOL.c ****   }
 510:lp_solve_5.5/bfp/bfp_LUSOL/lp_LUSOL.c ****   else
 511:lp_solve_5.5/bfp/bfp_LUSOL/lp_LUSOL.c **** #endif
 512:lp_solve_5.5/bfp/bfp_LUSOL/lp_LUSOL.c ****   {
 513:lp_solve_5.5/bfp/bfp_LUSOL/lp_LUSOL.c ****     /* Retrieve the data for the entering column (base 0) */
 514:lp_solve_5.5/bfp/bfp_LUSOL/lp_LUSOL.c ****     i = lp->get_lpcolumn(lp, lu->col_enter, lu->value+deltarows, NULL, NULL);
 515:lp_solve_5.5/bfp/bfp_LUSOL/lp_LUSOL.c ****     lu->value[0] = 0;
 516:lp_solve_5.5/bfp/bfp_LUSOL/lp_LUSOL.c ****     /* Execute the update */
 517:lp_solve_5.5/bfp/bfp_LUSOL/lp_LUSOL.c ****     LU8RPC(LUSOL, LUSOL_UPDATE_OLDNONEMPTY, LUSOL_UPDATE_NEWNONEMPTY,
 518:lp_solve_5.5/bfp/bfp_LUSOL/lp_LUSOL.c ****            k, lu->value, NULL, &i, &DIAG, &VNORM);
 519:lp_solve_5.5/bfp/bfp_LUSOL/lp_LUSOL.c ****   }
 520:lp_solve_5.5/bfp/bfp_LUSOL/lp_LUSOL.c **** 
 521:lp_solve_5.5/bfp/bfp_LUSOL/lp_LUSOL.c ****   if(i == LUSOL_INFORM_LUSUCCESS) {
 6828               		.loc 3 521 0
 6829 2840 8F85      		ldd r24,Y+15
 6830 2842 9889      		ldd r25,Y+16
 6831 2844 892B      		or r24,r25
 6832 2846 01F0      		breq .+2
 6833 2848 00C0      		rjmp .L211
 522:lp_solve_5.5/bfp/bfp_LUSOL/lp_LUSOL.c **** 
 523:lp_solve_5.5/bfp/bfp_LUSOL/lp_LUSOL.c ****     /* Check if we should refactorize based on accumulation of fill-in */
 524:lp_solve_5.5/bfp/bfp_LUSOL/lp_LUSOL.c ****     DIAG  = LUSOL->luparm[LUSOL_IP_NONZEROS_L]+LUSOL->luparm[LUSOL_IP_NONZEROS_U];
 6834               		.loc 3 524 0
 6835 284a 8F81      		ldd r24,Y+7
 6836 284c 9885      		ldd r25,Y+8
 6837 284e FC01      		movw r30,r24
 6838 2850 26A9      		ldd r18,Z+54
 6839 2852 37A9      		ldd r19,Z+55
 6840 2854 8F81      		ldd r24,Y+7
 6841 2856 9885      		ldd r25,Y+8
 6842 2858 FC01      		movw r30,r24
 6843 285a 80AD      		ldd r24,Z+56
 6844 285c 91AD      		ldd r25,Z+57
 6845 285e 820F      		add r24,r18
 6846 2860 931F      		adc r25,r19
 6847 2862 092E      		mov __tmp_reg__,r25
 6848 2864 000C      		lsl r0
 6849 2866 AA0B      		sbc r26,r26
 6850 2868 BB0B      		sbc r27,r27
 6851 286a BC01      		movw r22,r24
 6852 286c CD01      		movw r24,r26
 6853 286e 0E94 0000 		call __floatsisf
 6854 2872 DC01      		movw r26,r24
 6855 2874 CB01      		movw r24,r22
 6856 2876 898B      		std Y+17,r24
 6857 2878 9A8B      		std Y+18,r25
 6858 287a AB8B      		std Y+19,r26
 6859 287c BC8B      		std Y+20,r27
 525:lp_solve_5.5/bfp/bfp_LUSOL/lp_LUSOL.c ****     VNORM = LUSOL->luparm[LUSOL_IP_NONZEROS_L0]+LUSOL->luparm[LUSOL_IP_NONZEROS_U0];
 6860               		.loc 3 525 0
 6861 287e 8F81      		ldd r24,Y+7
 6862 2880 9885      		ldd r25,Y+8
 6863 2882 FC01      		movw r30,r24
 6864 2884 22A9      		ldd r18,Z+50
 6865 2886 33A9      		ldd r19,Z+51
 6866 2888 8F81      		ldd r24,Y+7
 6867 288a 9885      		ldd r25,Y+8
 6868 288c FC01      		movw r30,r24
 6869 288e 84A9      		ldd r24,Z+52
 6870 2890 95A9      		ldd r25,Z+53
 6871 2892 820F      		add r24,r18
 6872 2894 931F      		adc r25,r19
 6873 2896 092E      		mov __tmp_reg__,r25
 6874 2898 000C      		lsl r0
 6875 289a AA0B      		sbc r26,r26
 6876 289c BB0B      		sbc r27,r27
 6877 289e BC01      		movw r22,r24
 6878 28a0 CD01      		movw r24,r26
 6879 28a2 0E94 0000 		call __floatsisf
 6880 28a6 DC01      		movw r26,r24
 6881 28a8 CB01      		movw r24,r22
 6882 28aa 8D8B      		std Y+21,r24
 6883 28ac 9E8B      		std Y+22,r25
 6884 28ae AF8B      		std Y+23,r26
 6885 28b0 B88F      		std Y+24,r27
 526:lp_solve_5.5/bfp/bfp_LUSOL/lp_LUSOL.c **** #if 0
 527:lp_solve_5.5/bfp/bfp_LUSOL/lp_LUSOL.c ****     /* This is Michael Saunder's fixed parameter */
 528:lp_solve_5.5/bfp/bfp_LUSOL/lp_LUSOL.c ****     VNORM *= MAX_DELTAFILLIN;
 529:lp_solve_5.5/bfp/bfp_LUSOL/lp_LUSOL.c **** #else
 530:lp_solve_5.5/bfp/bfp_LUSOL/lp_LUSOL.c ****     /* This is Kjell Eikland's dynamic error accumulation measure */
 531:lp_solve_5.5/bfp/bfp_LUSOL/lp_LUSOL.c ****     VNORM *= pow(MAX_DELTAFILLIN, pow((0.5*LUSOL->nelem/VNORM), 0.25));
 6886               		.loc 3 531 0
 6887 28b2 8F81      		ldd r24,Y+7
 6888 28b4 9885      		ldd r25,Y+8
 6889 28b6 8056      		subi r24,96
 6890 28b8 9F4F      		sbci r25,-1
 6891 28ba FC01      		movw r30,r24
 6892 28bc 8081      		ld r24,Z
 6893 28be 9181      		ldd r25,Z+1
 6894 28c0 092E      		mov __tmp_reg__,r25
 6895 28c2 000C      		lsl r0
 6896 28c4 AA0B      		sbc r26,r26
 6897 28c6 BB0B      		sbc r27,r27
 6898 28c8 BC01      		movw r22,r24
 6899 28ca CD01      		movw r24,r26
 6900 28cc 0E94 0000 		call __floatsisf
 6901 28d0 DC01      		movw r26,r24
 6902 28d2 CB01      		movw r24,r22
 6903 28d4 20E0      		ldi r18,0
 6904 28d6 30E0      		ldi r19,0
 6905 28d8 40E0      		ldi r20,0
 6906 28da 5FE3      		ldi r21,lo8(63)
 6907 28dc BC01      		movw r22,r24
 6908 28de CD01      		movw r24,r26
 6909 28e0 0E94 0000 		call __mulsf3
 6910 28e4 DC01      		movw r26,r24
 6911 28e6 CB01      		movw r24,r22
 6912 28e8 7C01      		movw r14,r24
 6913 28ea 8D01      		movw r16,r26
 6914 28ec 8D89      		ldd r24,Y+21
 6915 28ee 9E89      		ldd r25,Y+22
 6916 28f0 AF89      		ldd r26,Y+23
 6917 28f2 B88D      		ldd r27,Y+24
 6918 28f4 9C01      		movw r18,r24
 6919 28f6 AD01      		movw r20,r26
 6920 28f8 C801      		movw r24,r16
 6921 28fa B701      		movw r22,r14
 6922 28fc 0E94 0000 		call __divsf3
 6923 2900 DC01      		movw r26,r24
 6924 2902 CB01      		movw r24,r22
 6925 2904 20E0      		ldi r18,0
 6926 2906 30E0      		ldi r19,0
 6927 2908 40E8      		ldi r20,lo8(-128)
 6928 290a 5EE3      		ldi r21,lo8(62)
 6929 290c BC01      		movw r22,r24
 6930 290e CD01      		movw r24,r26
 6931 2910 0E94 0000 		call pow
 6932 2914 DC01      		movw r26,r24
 6933 2916 CB01      		movw r24,r22
 6934 2918 9C01      		movw r18,r24
 6935 291a AD01      		movw r20,r26
 6936 291c 60E0      		ldi r22,0
 6937 291e 70E0      		ldi r23,0
 6938 2920 80E0      		ldi r24,0
 6939 2922 90E4      		ldi r25,lo8(64)
 6940 2924 0E94 0000 		call pow
 6941 2928 7B01      		movw r14,r22
 6942 292a 8C01      		movw r16,r24
 6943 292c 8D89      		ldd r24,Y+21
 6944 292e 9E89      		ldd r25,Y+22
 6945 2930 AF89      		ldd r26,Y+23
 6946 2932 B88D      		ldd r27,Y+24
 6947 2934 9C01      		movw r18,r24
 6948 2936 AD01      		movw r20,r26
 6949 2938 C801      		movw r24,r16
 6950 293a B701      		movw r22,r14
 6951 293c 0E94 0000 		call __mulsf3
 6952 2940 DC01      		movw r26,r24
 6953 2942 CB01      		movw r24,r22
 6954 2944 8D8B      		std Y+21,r24
 6955 2946 9E8B      		std Y+22,r25
 6956 2948 AF8B      		std Y+23,r26
 6957 294a B88F      		std Y+24,r27
 532:lp_solve_5.5/bfp/bfp_LUSOL/lp_LUSOL.c **** #endif
 533:lp_solve_5.5/bfp/bfp_LUSOL/lp_LUSOL.c ****     lu->force_refact = (MYBOOL) ((DIAG > VNORM) && (lu->num_pivots > 20));
 6958               		.loc 3 533 0
 6959 294c 8989      		ldd r24,Y+17
 6960 294e 9A89      		ldd r25,Y+18
 6961 2950 AB89      		ldd r26,Y+19
 6962 2952 BC89      		ldd r27,Y+20
 6963 2954 2D89      		ldd r18,Y+21
 6964 2956 3E89      		ldd r19,Y+22
 6965 2958 4F89      		ldd r20,Y+23
 6966 295a 588D      		ldd r21,Y+24
 6967 295c BC01      		movw r22,r24
 6968 295e CD01      		movw r24,r26
 6969 2960 0E94 0000 		call __gtsf2
 6970 2964 1816      		cp __zero_reg__,r24
 6971 2966 04F4      		brge .L212
 6972               		.loc 3 533 0 is_stmt 0 discriminator 1
 6973 2968 8D81      		ldd r24,Y+5
 6974 296a 9E81      		ldd r25,Y+6
 6975 296c FC01      		movw r30,r24
 6976 296e 84A5      		ldd r24,Z+44
 6977 2970 95A5      		ldd r25,Z+45
 6978 2972 4597      		sbiw r24,21
 6979 2974 04F0      		brlt .L212
 6980               		.loc 3 533 0 discriminator 3
 6981 2976 81E0      		ldi r24,lo8(1)
 6982 2978 90E0      		ldi r25,0
 6983 297a 00C0      		rjmp .L214
 6984               	.L212:
 6985               		.loc 3 533 0 discriminator 4
 6986 297c 80E0      		ldi r24,0
 6987 297e 90E0      		ldi r25,0
 6988               	.L214:
 6989               		.loc 3 533 0 discriminator 6
 6990 2980 282F      		mov r18,r24
 6991 2982 8D81      		ldd r24,Y+5
 6992 2984 9E81      		ldd r25,Y+6
 6993 2986 FC01      		movw r30,r24
 6994 2988 23AB      		std Z+51,r18
 6995 298a 00C0      		rjmp .L215
 6996               	.L211:
 6997               	.LBB10:
 534:lp_solve_5.5/bfp/bfp_LUSOL/lp_LUSOL.c **** 
 535:lp_solve_5.5/bfp/bfp_LUSOL/lp_LUSOL.c **** #if 0
 536:lp_solve_5.5/bfp/bfp_LUSOL/lp_LUSOL.c ****     /* Additional KE logic to reduce maximum pivot count based on the density of B */
 537:lp_solve_5.5/bfp/bfp_LUSOL/lp_LUSOL.c ****     if(!lu->force_refact) {
 538:lp_solve_5.5/bfp/bfp_LUSOL/lp_LUSOL.c ****       VNORM = lp->rows+1;
 539:lp_solve_5.5/bfp/bfp_LUSOL/lp_LUSOL.c ****       VNORM = 1.0 - pow((REAL) LUSOL->nelem/VNORM/VNORM, 0.2);
 540:lp_solve_5.5/bfp/bfp_LUSOL/lp_LUSOL.c ****       lu->force_refact = (MYBOOL) (lu->num_pivots > VNORM*lp->bfp_pivotmax(lp));
 541:lp_solve_5.5/bfp/bfp_LUSOL/lp_LUSOL.c ****     }
 542:lp_solve_5.5/bfp/bfp_LUSOL/lp_LUSOL.c **** #endif
 543:lp_solve_5.5/bfp/bfp_LUSOL/lp_LUSOL.c ****   }
 544:lp_solve_5.5/bfp/bfp_LUSOL/lp_LUSOL.c **** 
 545:lp_solve_5.5/bfp/bfp_LUSOL/lp_LUSOL.c ****   /* Handle errors */
 546:lp_solve_5.5/bfp/bfp_LUSOL/lp_LUSOL.c ****   else {
 547:lp_solve_5.5/bfp/bfp_LUSOL/lp_LUSOL.c **** /*    int infolevel = NORMAL; */
 548:lp_solve_5.5/bfp/bfp_LUSOL/lp_LUSOL.c ****     int infolevel = DETAILED;
 6998               		.loc 3 548 0 is_stmt 1
 6999 298c 85E0      		ldi r24,lo8(5)
 7000 298e 90E0      		ldi r25,0
 7001 2990 9E87      		std Y+14,r25
 7002 2992 8D87      		std Y+13,r24
 549:lp_solve_5.5/bfp/bfp_LUSOL/lp_LUSOL.c ****     lp->report(lp, infolevel, "bfp_finishupdate: Failed at iter %.0f, pivot %d;\n%s\n",
 7003               		.loc 3 549 0
 7004 2994 898D      		ldd r24,Y+25
 7005 2996 9A8D      		ldd r25,Y+26
 7006 2998 8E51      		subi r24,30
 7007 299a 9C4F      		sbci r25,-4
 7008 299c FC01      		movw r30,r24
 7009 299e 0190      		ld __tmp_reg__,Z+
 7010 29a0 F081      		ld r31,Z
 7011 29a2 E02D      		mov r30,__tmp_reg__
 7012 29a4 FD8F      		std Y+29,r31
 7013 29a6 EC8F      		std Y+28,r30
 7014 29a8 2F85      		ldd r18,Y+15
 7015 29aa 3889      		ldd r19,Y+16
 7016 29ac 8F81      		ldd r24,Y+7
 7017 29ae 9885      		ldd r25,Y+8
 7018 29b0 B901      		movw r22,r18
 7019 29b2 0E94 0000 		call LUSOL_informstr
 7020 29b6 9F8F      		std Y+31,r25
 7021 29b8 8E8F      		std Y+30,r24
 7022 29ba 8D81      		ldd r24,Y+5
 7023 29bc 9E81      		ldd r25,Y+6
 7024 29be FC01      		movw r30,r24
 7025 29c0 04A4      		ldd __tmp_reg__,Z+44
 7026 29c2 F5A5      		ldd r31,Z+45
 7027 29c4 E02D      		mov r30,__tmp_reg__
 7028 29c6 F9A3      		std Y+33,r31
 7029 29c8 E8A3      		std Y+32,r30
 550:lp_solve_5.5/bfp/bfp_LUSOL/lp_LUSOL.c ****                    (REAL) (lp->total_iter+lp->current_iter), lu->num_pivots, LUSOL_informstr(LUSOL,
 7030               		.loc 3 550 0
 7031 29ca 898D      		ldd r24,Y+25
 7032 29cc 9A8D      		ldd r25,Y+26
 7033 29ce 885C      		subi r24,-56
 7034 29d0 9D4F      		sbci r25,-3
 7035 29d2 FC01      		movw r30,r24
 7036 29d4 A080      		ld r10,Z
 7037 29d6 FC01      		movw r30,r24
 7038 29d8 B180      		ldd r11,Z+1
 7039 29da FC01      		movw r30,r24
 7040 29dc C280      		ldd r12,Z+2
 7041 29de FC01      		movw r30,r24
 7042 29e0 D380      		ldd r13,Z+3
 7043 29e2 FC01      		movw r30,r24
 7044 29e4 E480      		ldd r14,Z+4
 7045 29e6 FC01      		movw r30,r24
 7046 29e8 F580      		ldd r15,Z+5
 7047 29ea FC01      		movw r30,r24
 7048 29ec 0681      		ldd r16,Z+6
 7049 29ee FC01      		movw r30,r24
 7050 29f0 1781      		ldd r17,Z+7
 7051 29f2 898D      		ldd r24,Y+25
 7052 29f4 9A8D      		ldd r25,Y+26
 7053 29f6 805D      		subi r24,-48
 7054 29f8 9D4F      		sbci r25,-3
 7055 29fa FC01      		movw r30,r24
 7056 29fc 2080      		ld r2,Z
 7057 29fe FC01      		movw r30,r24
 7058 2a00 3180      		ldd r3,Z+1
 7059 2a02 FC01      		movw r30,r24
 7060 2a04 4280      		ldd r4,Z+2
 7061 2a06 FC01      		movw r30,r24
 7062 2a08 5380      		ldd r5,Z+3
 7063 2a0a FC01      		movw r30,r24
 7064 2a0c 6480      		ldd r6,Z+4
 7065 2a0e FC01      		movw r30,r24
 7066 2a10 7580      		ldd r7,Z+5
 7067 2a12 FC01      		movw r30,r24
 7068 2a14 8680      		ldd r8,Z+6
 7069 2a16 FC01      		movw r30,r24
 7070 2a18 9780      		ldd r9,Z+7
 7071 2a1a 2A2D      		mov r18,r10
 7072 2a1c 3B2D      		mov r19,r11
 7073 2a1e 4C2D      		mov r20,r12
 7074 2a20 5D2D      		mov r21,r13
 7075 2a22 6E2D      		mov r22,r14
 7076 2a24 7F2D      		mov r23,r15
 7077 2a26 802F      		mov r24,r16
 7078 2a28 912F      		mov r25,r17
 7079 2a2a A22C      		mov r10,r2
 7080 2a2c B32C      		mov r11,r3
 7081 2a2e C42C      		mov r12,r4
 7082 2a30 D52C      		mov r13,r5
 7083 2a32 E62C      		mov r14,r6
 7084 2a34 F72C      		mov r15,r7
 7085 2a36 082D      		mov r16,r8
 7086 2a38 192D      		mov r17,r9
 7087 2a3a 0E94 0000 		call __adddi3
 7088 2a3e A22E      		mov r10,r18
 7089 2a40 B32E      		mov r11,r19
 7090 2a42 C42E      		mov r12,r20
 7091 2a44 D52E      		mov r13,r21
 7092 2a46 E62E      		mov r14,r22
 7093 2a48 F72E      		mov r15,r23
 7094 2a4a 082F      		mov r16,r24
 7095 2a4c 192F      		mov r17,r25
 549:lp_solve_5.5/bfp/bfp_LUSOL/lp_LUSOL.c ****     lp->report(lp, infolevel, "bfp_finishupdate: Failed at iter %.0f, pivot %d;\n%s\n",
 7096               		.loc 3 549 0
 7097 2a4e 2A2D      		mov r18,r10
 7098 2a50 3B2D      		mov r19,r11
 7099 2a52 4C2D      		mov r20,r12
 7100 2a54 5D2D      		mov r21,r13
 7101 2a56 6E2D      		mov r22,r14
 7102 2a58 7F2D      		mov r23,r15
 7103 2a5a 802F      		mov r24,r16
 7104 2a5c 912F      		mov r25,r17
 7105 2a5e 0E94 0000 		call __floatdisf
 7106 2a62 DC01      		movw r26,r24
 7107 2a64 CB01      		movw r24,r22
 7108 2a66 2F8D      		ldd r18,Y+31
 7109 2a68 2F93      		push r18
 7110 2a6a 2E8D      		ldd r18,Y+30
 7111 2a6c 2F93      		push r18
 7112 2a6e 29A1      		ldd r18,Y+33
 7113 2a70 2F93      		push r18
 7114 2a72 28A1      		ldd r18,Y+32
 7115 2a74 2F93      		push r18
 7116 2a76 2B2F      		mov r18,r27
 7117 2a78 2F93      		push r18
 7118 2a7a 2A2F      		mov r18,r26
 7119 2a7c 2F93      		push r18
 7120 2a7e 292F      		mov r18,r25
 7121 2a80 2F93      		push r18
 7122 2a82 8F93      		push r24
 7123 2a84 80E0      		ldi r24,lo8(.LC11)
 7124 2a86 90E0      		ldi r25,hi8(.LC11)
 7125 2a88 892F      		mov r24,r25
 7126 2a8a 8F93      		push r24
 7127 2a8c 80E0      		ldi r24,lo8(.LC11)
 7128 2a8e 90E0      		ldi r25,hi8(.LC11)
 7129 2a90 8F93      		push r24
 7130 2a92 8E85      		ldd r24,Y+14
 7131 2a94 8F93      		push r24
 7132 2a96 8D85      		ldd r24,Y+13
 7133 2a98 8F93      		push r24
 7134 2a9a 8A8D      		ldd r24,Y+26
 7135 2a9c 8F93      		push r24
 7136 2a9e 898D      		ldd r24,Y+25
 7137 2aa0 8F93      		push r24
 7138 2aa2 EC8D      		ldd r30,Y+28
 7139 2aa4 FD8D      		ldd r31,Y+29
 7140 2aa6 0995      		icall
 7141 2aa8 2DB7      		in r18,__SP_L__
 7142 2aaa 3EB7      		in r19,__SP_H__
 7143 2aac 225F      		subi r18,-14
 7144 2aae 3F4F      		sbci r19,-1
 7145 2ab0 0FB6      		in __tmp_reg__,__SREG__
 7146 2ab2 F894      		cli
 7147 2ab4 DEBF      		out __SP_H__,r29
 7148 2ab6 0FBE      		out __SREG__,__tmp_reg__
 7149 2ab8 CDBF      		out __SP_L__,r28
 551:lp_solve_5.5/bfp/bfp_LUSOL/lp_LUSOL.c ****     if(i == LUSOL_INFORM_ANEEDMEM) {       /* To compress used memory and realloc, if necessary */
 7150               		.loc 3 551 0
 7151 2aba 8F85      		ldd r24,Y+15
 7152 2abc 9889      		ldd r25,Y+16
 7153 2abe 0797      		sbiw r24,7
 7154 2ac0 01F0      		breq .+2
 7155 2ac2 00C0      		rjmp .L216
 552:lp_solve_5.5/bfp/bfp_LUSOL/lp_LUSOL.c ****       lp->invert(lp, INITSOL_USEZERO, FALSE);
 7156               		.loc 3 552 0
 7157 2ac4 898D      		ldd r24,Y+25
 7158 2ac6 9A8D      		ldd r25,Y+26
 7159 2ac8 8251      		subi r24,18
 7160 2aca 9C4F      		sbci r25,-4
 7161 2acc FC01      		movw r30,r24
 7162 2ace 2081      		ld r18,Z
 7163 2ad0 3181      		ldd r19,Z+1
 7164 2ad2 898D      		ldd r24,Y+25
 7165 2ad4 9A8D      		ldd r25,Y+26
 7166 2ad6 40E0      		ldi r20,0
 7167 2ad8 61E0      		ldi r22,lo8(1)
 7168 2ada F901      		movw r30,r18
 7169 2adc 0995      		icall
 553:lp_solve_5.5/bfp/bfp_LUSOL/lp_LUSOL.c ****       if(i != LUSOL_INFORM_LUSUCCESS)
 7170               		.loc 3 553 0
 7171 2ade 8F85      		ldd r24,Y+15
 7172 2ae0 9889      		ldd r25,Y+16
 7173 2ae2 892B      		or r24,r25
 7174 2ae4 01F4      		brne .+2
 7175 2ae6 00C0      		rjmp .L215
 554:lp_solve_5.5/bfp/bfp_LUSOL/lp_LUSOL.c ****         lp->report(lp, NORMAL, "bfp_finishupdate: Insufficient memory at iter %.0f;\n%s\n",
 7176               		.loc 3 554 0
 7177 2ae8 898D      		ldd r24,Y+25
 7178 2aea 9A8D      		ldd r25,Y+26
 7179 2aec 8E51      		subi r24,30
 7180 2aee 9C4F      		sbci r25,-4
 7181 2af0 FC01      		movw r30,r24
 7182 2af2 0190      		ld __tmp_reg__,Z+
 7183 2af4 F081      		ld r31,Z
 7184 2af6 E02D      		mov r30,__tmp_reg__
 7185 2af8 FBA3      		std Y+35,r31
 7186 2afa EAA3      		std Y+34,r30
 7187 2afc 2F85      		ldd r18,Y+15
 7188 2afe 3889      		ldd r19,Y+16
 7189 2b00 8F81      		ldd r24,Y+7
 7190 2b02 9885      		ldd r25,Y+8
 7191 2b04 B901      		movw r22,r18
 7192 2b06 0E94 0000 		call LUSOL_informstr
 7193 2b0a 9DA3      		std Y+37,r25
 7194 2b0c 8CA3      		std Y+36,r24
 555:lp_solve_5.5/bfp/bfp_LUSOL/lp_LUSOL.c ****                        (REAL) (lp->total_iter+lp->current_iter), LUSOL_informstr(LUSOL, i));
 7195               		.loc 3 555 0
 7196 2b0e 898D      		ldd r24,Y+25
 7197 2b10 9A8D      		ldd r25,Y+26
 7198 2b12 885C      		subi r24,-56
 7199 2b14 9D4F      		sbci r25,-3
 7200 2b16 FC01      		movw r30,r24
 7201 2b18 A080      		ld r10,Z
 7202 2b1a FC01      		movw r30,r24
 7203 2b1c B180      		ldd r11,Z+1
 7204 2b1e FC01      		movw r30,r24
 7205 2b20 C280      		ldd r12,Z+2
 7206 2b22 FC01      		movw r30,r24
 7207 2b24 D380      		ldd r13,Z+3
 7208 2b26 FC01      		movw r30,r24
 7209 2b28 E480      		ldd r14,Z+4
 7210 2b2a FC01      		movw r30,r24
 7211 2b2c F580      		ldd r15,Z+5
 7212 2b2e FC01      		movw r30,r24
 7213 2b30 0681      		ldd r16,Z+6
 7214 2b32 FC01      		movw r30,r24
 7215 2b34 1781      		ldd r17,Z+7
 7216 2b36 898D      		ldd r24,Y+25
 7217 2b38 9A8D      		ldd r25,Y+26
 7218 2b3a 805D      		subi r24,-48
 7219 2b3c 9D4F      		sbci r25,-3
 7220 2b3e FC01      		movw r30,r24
 7221 2b40 2080      		ld r2,Z
 7222 2b42 FC01      		movw r30,r24
 7223 2b44 3180      		ldd r3,Z+1
 7224 2b46 FC01      		movw r30,r24
 7225 2b48 4280      		ldd r4,Z+2
 7226 2b4a FC01      		movw r30,r24
 7227 2b4c 5380      		ldd r5,Z+3
 7228 2b4e FC01      		movw r30,r24
 7229 2b50 6480      		ldd r6,Z+4
 7230 2b52 FC01      		movw r30,r24
 7231 2b54 7580      		ldd r7,Z+5
 7232 2b56 FC01      		movw r30,r24
 7233 2b58 8680      		ldd r8,Z+6
 7234 2b5a FC01      		movw r30,r24
 7235 2b5c 9780      		ldd r9,Z+7
 7236 2b5e 2A2D      		mov r18,r10
 7237 2b60 3B2D      		mov r19,r11
 7238 2b62 4C2D      		mov r20,r12
 7239 2b64 5D2D      		mov r21,r13
 7240 2b66 6E2D      		mov r22,r14
 7241 2b68 7F2D      		mov r23,r15
 7242 2b6a 802F      		mov r24,r16
 7243 2b6c 912F      		mov r25,r17
 7244 2b6e A22C      		mov r10,r2
 7245 2b70 B32C      		mov r11,r3
 7246 2b72 C42C      		mov r12,r4
 7247 2b74 D52C      		mov r13,r5
 7248 2b76 E62C      		mov r14,r6
 7249 2b78 F72C      		mov r15,r7
 7250 2b7a 082D      		mov r16,r8
 7251 2b7c 192D      		mov r17,r9
 7252 2b7e 0E94 0000 		call __adddi3
 7253 2b82 A22E      		mov r10,r18
 7254 2b84 B32E      		mov r11,r19
 7255 2b86 C42E      		mov r12,r20
 7256 2b88 D52E      		mov r13,r21
 7257 2b8a E62E      		mov r14,r22
 7258 2b8c F72E      		mov r15,r23
 7259 2b8e 082F      		mov r16,r24
 7260 2b90 192F      		mov r17,r25
 554:lp_solve_5.5/bfp/bfp_LUSOL/lp_LUSOL.c ****         lp->report(lp, NORMAL, "bfp_finishupdate: Insufficient memory at iter %.0f;\n%s\n",
 7261               		.loc 3 554 0
 7262 2b92 2A2D      		mov r18,r10
 7263 2b94 3B2D      		mov r19,r11
 7264 2b96 4C2D      		mov r20,r12
 7265 2b98 5D2D      		mov r21,r13
 7266 2b9a 6E2D      		mov r22,r14
 7267 2b9c 7F2D      		mov r23,r15
 7268 2b9e 802F      		mov r24,r16
 7269 2ba0 912F      		mov r25,r17
 7270 2ba2 0E94 0000 		call __floatdisf
 7271 2ba6 DC01      		movw r26,r24
 7272 2ba8 CB01      		movw r24,r22
 7273 2baa 2DA1      		ldd r18,Y+37
 7274 2bac 2F93      		push r18
 7275 2bae 2CA1      		ldd r18,Y+36
 7276 2bb0 2F93      		push r18
 7277 2bb2 2B2F      		mov r18,r27
 7278 2bb4 2F93      		push r18
 7279 2bb6 2A2F      		mov r18,r26
 7280 2bb8 2F93      		push r18
 7281 2bba 292F      		mov r18,r25
 7282 2bbc 2F93      		push r18
 7283 2bbe 8F93      		push r24
 7284 2bc0 80E0      		ldi r24,lo8(.LC12)
 7285 2bc2 90E0      		ldi r25,hi8(.LC12)
 7286 2bc4 892F      		mov r24,r25
 7287 2bc6 8F93      		push r24
 7288 2bc8 80E0      		ldi r24,lo8(.LC12)
 7289 2bca 90E0      		ldi r25,hi8(.LC12)
 7290 2bcc 8F93      		push r24
 7291 2bce 1F92      		push __zero_reg__
 7292 2bd0 84E0      		ldi r24,lo8(4)
 7293 2bd2 8F93      		push r24
 7294 2bd4 8A8D      		ldd r24,Y+26
 7295 2bd6 8F93      		push r24
 7296 2bd8 898D      		ldd r24,Y+25
 7297 2bda 8F93      		push r24
 7298 2bdc EAA1      		ldd r30,Y+34
 7299 2bde FBA1      		ldd r31,Y+35
 7300 2be0 0995      		icall
 7301 2be2 2DB7      		in r18,__SP_L__
 7302 2be4 3EB7      		in r19,__SP_H__
 7303 2be6 245F      		subi r18,-12
 7304 2be8 3F4F      		sbci r19,-1
 7305 2bea 0FB6      		in __tmp_reg__,__SREG__
 7306 2bec F894      		cli
 7307 2bee DEBF      		out __SP_H__,r29
 7308 2bf0 0FBE      		out __SREG__,__tmp_reg__
 7309 2bf2 CDBF      		out __SP_L__,r28
 7310 2bf4 00C0      		rjmp .L215
 7311               	.L216:
 556:lp_solve_5.5/bfp/bfp_LUSOL/lp_LUSOL.c ****     }
 557:lp_solve_5.5/bfp/bfp_LUSOL/lp_LUSOL.c ****     else if(i == LUSOL_INFORM_RANKLOSS) {  /* To fix rank loss and clear cumulative errors */
 7312               		.loc 3 557 0
 7313 2bf6 8F85      		ldd r24,Y+15
 7314 2bf8 9889      		ldd r25,Y+16
 7315 2bfa 0196      		adiw r24,1
 7316 2bfc 01F0      		breq .+2
 7317 2bfe 00C0      		rjmp .L215
 558:lp_solve_5.5/bfp/bfp_LUSOL/lp_LUSOL.c **** #if 0
 559:lp_solve_5.5/bfp/bfp_LUSOL/lp_LUSOL.c ****       /* This is test code to do pivot in slack BEFORE refactorization (pessimistic approach);
 560:lp_solve_5.5/bfp/bfp_LUSOL/lp_LUSOL.c ****         assumes that LUSOL returns correct information about the source of the singularity */
 561:lp_solve_5.5/bfp/bfp_LUSOL/lp_LUSOL.c ****       kcol = LUSOL->luparm[LUSOL_IP_SINGULARINDEX];
 562:lp_solve_5.5/bfp/bfp_LUSOL/lp_LUSOL.c **** #ifdef MAPSINGULARCOLUMN
 563:lp_solve_5.5/bfp/bfp_LUSOL/lp_LUSOL.c ****       kcol = LUSOL_findColumnPosition(LUSOL, kcol);
 564:lp_solve_5.5/bfp/bfp_LUSOL/lp_LUSOL.c **** #endif
 565:lp_solve_5.5/bfp/bfp_LUSOL/lp_LUSOL.c ****       lp->set_basisvar(lp, kcol-deltarows, kcol-deltarows);
 566:lp_solve_5.5/bfp/bfp_LUSOL/lp_LUSOL.c **** #endif
 567:lp_solve_5.5/bfp/bfp_LUSOL/lp_LUSOL.c ****       lp->invert(lp, INITSOL_USEZERO, FALSE);
 7318               		.loc 3 567 0
 7319 2c00 898D      		ldd r24,Y+25
 7320 2c02 9A8D      		ldd r25,Y+26
 7321 2c04 8251      		subi r24,18
 7322 2c06 9C4F      		sbci r25,-4
 7323 2c08 FC01      		movw r30,r24
 7324 2c0a 2081      		ld r18,Z
 7325 2c0c 3181      		ldd r19,Z+1
 7326 2c0e 898D      		ldd r24,Y+25
 7327 2c10 9A8D      		ldd r25,Y+26
 7328 2c12 40E0      		ldi r20,0
 7329 2c14 61E0      		ldi r22,lo8(1)
 7330 2c16 F901      		movw r30,r18
 7331 2c18 0995      		icall
 568:lp_solve_5.5/bfp/bfp_LUSOL/lp_LUSOL.c ****       i = LUSOL->luparm[LUSOL_IP_INFORM];
 7332               		.loc 3 568 0
 7333 2c1a 8F81      		ldd r24,Y+7
 7334 2c1c 9885      		ldd r25,Y+8
 7335 2c1e FC01      		movw r30,r24
 7336 2c20 848D      		ldd r24,Z+28
 7337 2c22 958D      		ldd r25,Z+29
 7338 2c24 988B      		std Y+16,r25
 7339 2c26 8F87      		std Y+15,r24
 569:lp_solve_5.5/bfp/bfp_LUSOL/lp_LUSOL.c ****       if(i != LUSOL_INFORM_LUSUCCESS)
 7340               		.loc 3 569 0
 7341 2c28 8F85      		ldd r24,Y+15
 7342 2c2a 9889      		ldd r25,Y+16
 7343 2c2c 892B      		or r24,r25
 7344 2c2e 01F4      		brne .+2
 7345 2c30 00C0      		rjmp .L218
 570:lp_solve_5.5/bfp/bfp_LUSOL/lp_LUSOL.c ****         lp->report(lp, NORMAL, "bfp_finishupdate: Recovery attempt unsuccessful at iter %.0f;\n%s\n
 7346               		.loc 3 570 0
 7347 2c32 898D      		ldd r24,Y+25
 7348 2c34 9A8D      		ldd r25,Y+26
 7349 2c36 8E51      		subi r24,30
 7350 2c38 9C4F      		sbci r25,-4
 7351 2c3a FC01      		movw r30,r24
 7352 2c3c 0190      		ld __tmp_reg__,Z+
 7353 2c3e F081      		ld r31,Z
 7354 2c40 E02D      		mov r30,__tmp_reg__
 7355 2c42 FFA3      		std Y+39,r31
 7356 2c44 EEA3      		std Y+38,r30
 7357 2c46 2F85      		ldd r18,Y+15
 7358 2c48 3889      		ldd r19,Y+16
 7359 2c4a 8F81      		ldd r24,Y+7
 7360 2c4c 9885      		ldd r25,Y+8
 7361 2c4e B901      		movw r22,r18
 7362 2c50 0E94 0000 		call LUSOL_informstr
 7363 2c54 99A7      		std Y+41,r25
 7364 2c56 88A7      		std Y+40,r24
 571:lp_solve_5.5/bfp/bfp_LUSOL/lp_LUSOL.c ****                        (REAL) (lp->total_iter+lp->current_iter), LUSOL_informstr(LUSOL, i));
 7365               		.loc 3 571 0
 7366 2c58 898D      		ldd r24,Y+25
 7367 2c5a 9A8D      		ldd r25,Y+26
 7368 2c5c 885C      		subi r24,-56
 7369 2c5e 9D4F      		sbci r25,-3
 7370 2c60 FC01      		movw r30,r24
 7371 2c62 A080      		ld r10,Z
 7372 2c64 FC01      		movw r30,r24
 7373 2c66 B180      		ldd r11,Z+1
 7374 2c68 FC01      		movw r30,r24
 7375 2c6a C280      		ldd r12,Z+2
 7376 2c6c FC01      		movw r30,r24
 7377 2c6e D380      		ldd r13,Z+3
 7378 2c70 FC01      		movw r30,r24
 7379 2c72 E480      		ldd r14,Z+4
 7380 2c74 FC01      		movw r30,r24
 7381 2c76 F580      		ldd r15,Z+5
 7382 2c78 FC01      		movw r30,r24
 7383 2c7a 0681      		ldd r16,Z+6
 7384 2c7c FC01      		movw r30,r24
 7385 2c7e 1781      		ldd r17,Z+7
 7386 2c80 898D      		ldd r24,Y+25
 7387 2c82 9A8D      		ldd r25,Y+26
 7388 2c84 805D      		subi r24,-48
 7389 2c86 9D4F      		sbci r25,-3
 7390 2c88 FC01      		movw r30,r24
 7391 2c8a 2080      		ld r2,Z
 7392 2c8c FC01      		movw r30,r24
 7393 2c8e 3180      		ldd r3,Z+1
 7394 2c90 FC01      		movw r30,r24
 7395 2c92 4280      		ldd r4,Z+2
 7396 2c94 FC01      		movw r30,r24
 7397 2c96 5380      		ldd r5,Z+3
 7398 2c98 FC01      		movw r30,r24
 7399 2c9a 6480      		ldd r6,Z+4
 7400 2c9c FC01      		movw r30,r24
 7401 2c9e 7580      		ldd r7,Z+5
 7402 2ca0 FC01      		movw r30,r24
 7403 2ca2 8680      		ldd r8,Z+6
 7404 2ca4 FC01      		movw r30,r24
 7405 2ca6 9780      		ldd r9,Z+7
 7406 2ca8 2A2D      		mov r18,r10
 7407 2caa 3B2D      		mov r19,r11
 7408 2cac 4C2D      		mov r20,r12
 7409 2cae 5D2D      		mov r21,r13
 7410 2cb0 6E2D      		mov r22,r14
 7411 2cb2 7F2D      		mov r23,r15
 7412 2cb4 802F      		mov r24,r16
 7413 2cb6 912F      		mov r25,r17
 7414 2cb8 A22C      		mov r10,r2
 7415 2cba B32C      		mov r11,r3
 7416 2cbc C42C      		mov r12,r4
 7417 2cbe D52C      		mov r13,r5
 7418 2cc0 E62C      		mov r14,r6
 7419 2cc2 F72C      		mov r15,r7
 7420 2cc4 082D      		mov r16,r8
 7421 2cc6 192D      		mov r17,r9
 7422 2cc8 0E94 0000 		call __adddi3
 7423 2ccc A22E      		mov r10,r18
 7424 2cce B32E      		mov r11,r19
 7425 2cd0 C42E      		mov r12,r20
 7426 2cd2 D52E      		mov r13,r21
 7427 2cd4 E62E      		mov r14,r22
 7428 2cd6 F72E      		mov r15,r23
 7429 2cd8 082F      		mov r16,r24
 7430 2cda 192F      		mov r17,r25
 570:lp_solve_5.5/bfp/bfp_LUSOL/lp_LUSOL.c ****         lp->report(lp, NORMAL, "bfp_finishupdate: Recovery attempt unsuccessful at iter %.0f;\n%s\n
 7431               		.loc 3 570 0
 7432 2cdc 2A2D      		mov r18,r10
 7433 2cde 3B2D      		mov r19,r11
 7434 2ce0 4C2D      		mov r20,r12
 7435 2ce2 5D2D      		mov r21,r13
 7436 2ce4 6E2D      		mov r22,r14
 7437 2ce6 7F2D      		mov r23,r15
 7438 2ce8 802F      		mov r24,r16
 7439 2cea 912F      		mov r25,r17
 7440 2cec 0E94 0000 		call __floatdisf
 7441 2cf0 DC01      		movw r26,r24
 7442 2cf2 CB01      		movw r24,r22
 7443 2cf4 29A5      		ldd r18,Y+41
 7444 2cf6 2F93      		push r18
 7445 2cf8 28A5      		ldd r18,Y+40
 7446 2cfa 2F93      		push r18
 7447 2cfc 2B2F      		mov r18,r27
 7448 2cfe 2F93      		push r18
 7449 2d00 2A2F      		mov r18,r26
 7450 2d02 2F93      		push r18
 7451 2d04 292F      		mov r18,r25
 7452 2d06 2F93      		push r18
 7453 2d08 8F93      		push r24
 7454 2d0a 80E0      		ldi r24,lo8(.LC13)
 7455 2d0c 90E0      		ldi r25,hi8(.LC13)
 7456 2d0e 892F      		mov r24,r25
 7457 2d10 8F93      		push r24
 7458 2d12 80E0      		ldi r24,lo8(.LC13)
 7459 2d14 90E0      		ldi r25,hi8(.LC13)
 7460 2d16 8F93      		push r24
 7461 2d18 1F92      		push __zero_reg__
 7462 2d1a 84E0      		ldi r24,lo8(4)
 7463 2d1c 8F93      		push r24
 7464 2d1e 8A8D      		ldd r24,Y+26
 7465 2d20 8F93      		push r24
 7466 2d22 898D      		ldd r24,Y+25
 7467 2d24 8F93      		push r24
 7468 2d26 EEA1      		ldd r30,Y+38
 7469 2d28 FFA1      		ldd r31,Y+39
 7470 2d2a 0995      		icall
 7471 2d2c 2DB7      		in r18,__SP_L__
 7472 2d2e 3EB7      		in r19,__SP_H__
 7473 2d30 245F      		subi r18,-12
 7474 2d32 3F4F      		sbci r19,-1
 7475 2d34 0FB6      		in __tmp_reg__,__SREG__
 7476 2d36 F894      		cli
 7477 2d38 DEBF      		out __SP_H__,r29
 7478 2d3a 0FBE      		out __SREG__,__tmp_reg__
 7479 2d3c CDBF      		out __SP_L__,r28
 7480 2d3e 00C0      		rjmp .L215
 7481               	.L218:
 572:lp_solve_5.5/bfp/bfp_LUSOL/lp_LUSOL.c ****       else
 573:lp_solve_5.5/bfp/bfp_LUSOL/lp_LUSOL.c ****         lp->report(lp, infolevel, "bfp_finishupdate: Correction or recovery was successful.\n");
 7482               		.loc 3 573 0
 7483 2d40 898D      		ldd r24,Y+25
 7484 2d42 9A8D      		ldd r25,Y+26
 7485 2d44 8E51      		subi r24,30
 7486 2d46 9C4F      		sbci r25,-4
 7487 2d48 FC01      		movw r30,r24
 7488 2d4a 8081      		ld r24,Z
 7489 2d4c 9181      		ldd r25,Z+1
 7490 2d4e 20E0      		ldi r18,lo8(.LC14)
 7491 2d50 30E0      		ldi r19,hi8(.LC14)
 7492 2d52 232F      		mov r18,r19
 7493 2d54 2F93      		push r18
 7494 2d56 20E0      		ldi r18,lo8(.LC14)
 7495 2d58 30E0      		ldi r19,hi8(.LC14)
 7496 2d5a 2F93      		push r18
 7497 2d5c 2E85      		ldd r18,Y+14
 7498 2d5e 2F93      		push r18
 7499 2d60 2D85      		ldd r18,Y+13
 7500 2d62 2F93      		push r18
 7501 2d64 2A8D      		ldd r18,Y+26
 7502 2d66 2F93      		push r18
 7503 2d68 298D      		ldd r18,Y+25
 7504 2d6a 2F93      		push r18
 7505 2d6c FC01      		movw r30,r24
 7506 2d6e 0995      		icall
 7507 2d70 0F90      		pop __tmp_reg__
 7508 2d72 0F90      		pop __tmp_reg__
 7509 2d74 0F90      		pop __tmp_reg__
 7510 2d76 0F90      		pop __tmp_reg__
 7511 2d78 0F90      		pop __tmp_reg__
 7512 2d7a 0F90      		pop __tmp_reg__
 7513               	.L215:
 7514               	.LBE10:
 574:lp_solve_5.5/bfp/bfp_LUSOL/lp_LUSOL.c ****     }
 575:lp_solve_5.5/bfp/bfp_LUSOL/lp_LUSOL.c ****   }
 576:lp_solve_5.5/bfp/bfp_LUSOL/lp_LUSOL.c ****   return( (MYBOOL) (i == LUSOL_INFORM_LUSUCCESS) );
 7515               		.loc 3 576 0
 7516 2d7c 8F85      		ldd r24,Y+15
 7517 2d7e 9889      		ldd r25,Y+16
 7518 2d80 21E0      		ldi r18,lo8(1)
 7519 2d82 892B      		or r24,r25
 7520 2d84 01F0      		breq .L219
 7521 2d86 20E0      		ldi r18,0
 7522               	.L219:
 7523 2d88 822F      		mov r24,r18
 7524               	.L220:
 7525               	/* epilogue start */
 577:lp_solve_5.5/bfp/bfp_LUSOL/lp_LUSOL.c **** 
 578:lp_solve_5.5/bfp/bfp_LUSOL/lp_LUSOL.c **** } /* bfp_finishupdate */
 7526               		.loc 3 578 0 discriminator 1
 7527 2d8a A996      		adiw r28,41
 7528 2d8c 0FB6      		in __tmp_reg__,__SREG__
 7529 2d8e F894      		cli
 7530 2d90 DEBF      		out __SP_H__,r29
 7531 2d92 0FBE      		out __SREG__,__tmp_reg__
 7532 2d94 CDBF      		out __SP_L__,r28
 7533 2d96 DF91      		pop r29
 7534 2d98 CF91      		pop r28
 7535 2d9a 1F91      		pop r17
 7536 2d9c 0F91      		pop r16
 7537 2d9e FF90      		pop r15
 7538 2da0 EF90      		pop r14
 7539 2da2 DF90      		pop r13
 7540 2da4 CF90      		pop r12
 7541 2da6 BF90      		pop r11
 7542 2da8 AF90      		pop r10
 7543 2daa 9F90      		pop r9
 7544 2dac 8F90      		pop r8
 7545 2dae 7F90      		pop r7
 7546 2db0 6F90      		pop r6
 7547 2db2 5F90      		pop r5
 7548 2db4 4F90      		pop r4
 7549 2db6 3F90      		pop r3
 7550 2db8 2F90      		pop r2
 7551 2dba 0895      		ret
 7552               		.cfi_endproc
 7553               	.LFE43:
 7555               		.section	.rodata
 7556               	.LC15:
 7557 0326 6266 705F 		.string	"bfp_ftran_normal: Failed at iter %.0f, pivot %d;\n%s\n"
 7557      6674 7261 
 7557      6E5F 6E6F 
 7557      726D 616C 
 7557      3A20 4661 
 7558               		.text
 7559               	.global	bfp_ftran_normal
 7561               	bfp_ftran_normal:
 7562               	.LFB44:
 579:lp_solve_5.5/bfp/bfp_LUSOL/lp_LUSOL.c **** 
 580:lp_solve_5.5/bfp/bfp_LUSOL/lp_LUSOL.c **** 
 581:lp_solve_5.5/bfp/bfp_LUSOL/lp_LUSOL.c **** /* MUST MODIFY */
 582:lp_solve_5.5/bfp/bfp_LUSOL/lp_LUSOL.c **** void BFP_CALLMODEL bfp_ftran_normal(lprec *lp, REAL *pcol, int *nzidx)
 583:lp_solve_5.5/bfp/bfp_LUSOL/lp_LUSOL.c **** {
 7563               		.loc 3 583 0
 7564               		.cfi_startproc
 7565 2dbc 2F92      		push r2
 7566               	.LCFI233:
 7567               		.cfi_def_cfa_offset 3
 7568               		.cfi_offset 2, -2
 7569 2dbe 3F92      		push r3
 7570               	.LCFI234:
 7571               		.cfi_def_cfa_offset 4
 7572               		.cfi_offset 3, -3
 7573 2dc0 4F92      		push r4
 7574               	.LCFI235:
 7575               		.cfi_def_cfa_offset 5
 7576               		.cfi_offset 4, -4
 7577 2dc2 5F92      		push r5
 7578               	.LCFI236:
 7579               		.cfi_def_cfa_offset 6
 7580               		.cfi_offset 5, -5
 7581 2dc4 6F92      		push r6
 7582               	.LCFI237:
 7583               		.cfi_def_cfa_offset 7
 7584               		.cfi_offset 6, -6
 7585 2dc6 7F92      		push r7
 7586               	.LCFI238:
 7587               		.cfi_def_cfa_offset 8
 7588               		.cfi_offset 7, -7
 7589 2dc8 8F92      		push r8
 7590               	.LCFI239:
 7591               		.cfi_def_cfa_offset 9
 7592               		.cfi_offset 8, -8
 7593 2dca 9F92      		push r9
 7594               	.LCFI240:
 7595               		.cfi_def_cfa_offset 10
 7596               		.cfi_offset 9, -9
 7597 2dcc AF92      		push r10
 7598               	.LCFI241:
 7599               		.cfi_def_cfa_offset 11
 7600               		.cfi_offset 10, -10
 7601 2dce BF92      		push r11
 7602               	.LCFI242:
 7603               		.cfi_def_cfa_offset 12
 7604               		.cfi_offset 11, -11
 7605 2dd0 CF92      		push r12
 7606               	.LCFI243:
 7607               		.cfi_def_cfa_offset 13
 7608               		.cfi_offset 12, -12
 7609 2dd2 DF92      		push r13
 7610               	.LCFI244:
 7611               		.cfi_def_cfa_offset 14
 7612               		.cfi_offset 13, -13
 7613 2dd4 EF92      		push r14
 7614               	.LCFI245:
 7615               		.cfi_def_cfa_offset 15
 7616               		.cfi_offset 14, -14
 7617 2dd6 FF92      		push r15
 7618               	.LCFI246:
 7619               		.cfi_def_cfa_offset 16
 7620               		.cfi_offset 15, -15
 7621 2dd8 0F93      		push r16
 7622               	.LCFI247:
 7623               		.cfi_def_cfa_offset 17
 7624               		.cfi_offset 16, -16
 7625 2dda 1F93      		push r17
 7626               	.LCFI248:
 7627               		.cfi_def_cfa_offset 18
 7628               		.cfi_offset 17, -17
 7629 2ddc CF93      		push r28
 7630               	.LCFI249:
 7631               		.cfi_def_cfa_offset 19
 7632               		.cfi_offset 28, -18
 7633 2dde DF93      		push r29
 7634               	.LCFI250:
 7635               		.cfi_def_cfa_offset 20
 7636               		.cfi_offset 29, -19
 7637 2de0 CDB7      		in r28,__SP_L__
 7638 2de2 DEB7      		in r29,__SP_H__
 7639               	.LCFI251:
 7640               		.cfi_def_cfa_register 28
 7641 2de4 6097      		sbiw r28,16
 7642               	.LCFI252:
 7643               		.cfi_def_cfa_offset 36
 7644 2de6 0FB6      		in __tmp_reg__,__SREG__
 7645 2de8 F894      		cli
 7646 2dea DEBF      		out __SP_H__,r29
 7647 2dec 0FBE      		out __SREG__,__tmp_reg__
 7648 2dee CDBF      		out __SP_L__,r28
 7649               	/* prologue: function */
 7650               	/* frame size = 16 */
 7651               	/* stack size = 34 */
 7652               	.L__stack_usage = 34
 7653 2df0 9E83      		std Y+6,r25
 7654 2df2 8D83      		std Y+5,r24
 7655 2df4 7887      		std Y+8,r23
 7656 2df6 6F83      		std Y+7,r22
 7657 2df8 5A87      		std Y+10,r21
 7658 2dfa 4987      		std Y+9,r20
 584:lp_solve_5.5/bfp/bfp_LUSOL/lp_LUSOL.c ****   int    i;
 585:lp_solve_5.5/bfp/bfp_LUSOL/lp_LUSOL.c ****   INVrec *lu;
 586:lp_solve_5.5/bfp/bfp_LUSOL/lp_LUSOL.c **** 
 587:lp_solve_5.5/bfp/bfp_LUSOL/lp_LUSOL.c ****   lu = lp->invB;
 7659               		.loc 3 587 0
 7660 2dfc 8D81      		ldd r24,Y+5
 7661 2dfe 9E81      		ldd r25,Y+6
 7662 2e00 8854      		subi r24,72
 7663 2e02 9D4F      		sbci r25,-3
 7664 2e04 FC01      		movw r30,r24
 7665 2e06 8081      		ld r24,Z
 7666 2e08 9181      		ldd r25,Z+1
 7667 2e0a 9A83      		std Y+2,r25
 7668 2e0c 8983      		std Y+1,r24
 588:lp_solve_5.5/bfp/bfp_LUSOL/lp_LUSOL.c **** 
 589:lp_solve_5.5/bfp/bfp_LUSOL/lp_LUSOL.c ****   /* Do the LUSOL ftran */
 590:lp_solve_5.5/bfp/bfp_LUSOL/lp_LUSOL.c ****   i = LUSOL_ftran(lu->LUSOL, pcol-bfp_rowoffset(lp), nzidx, FALSE);
 7669               		.loc 3 590 0
 7670 2e0e 8D81      		ldd r24,Y+5
 7671 2e10 9E81      		ldd r25,Y+6
 7672 2e12 0E94 0000 		call bfp_rowoffset
 7673 2e16 880F      		lsl r24
 7674 2e18 991F      		rol r25
 7675 2e1a 880F      		lsl r24
 7676 2e1c 991F      		rol r25
 7677 2e1e 9195      		neg r25
 7678 2e20 8195      		neg r24
 7679 2e22 9109      		sbc r25,__zero_reg__
 7680 2e24 2F81      		ldd r18,Y+7
 7681 2e26 3885      		ldd r19,Y+8
 7682 2e28 B901      		movw r22,r18
 7683 2e2a 680F      		add r22,r24
 7684 2e2c 791F      		adc r23,r25
 7685 2e2e 8981      		ldd r24,Y+1
 7686 2e30 9A81      		ldd r25,Y+2
 7687 2e32 FC01      		movw r30,r24
 7688 2e34 8085      		ldd r24,Z+8
 7689 2e36 9185      		ldd r25,Z+9
 7690 2e38 4985      		ldd r20,Y+9
 7691 2e3a 5A85      		ldd r21,Y+10
 7692 2e3c 20E0      		ldi r18,0
 7693 2e3e 0E94 0000 		call LUSOL_ftran
 7694 2e42 9C83      		std Y+4,r25
 7695 2e44 8B83      		std Y+3,r24
 591:lp_solve_5.5/bfp/bfp_LUSOL/lp_LUSOL.c ****   if(i != LUSOL_INFORM_LUSUCCESS) {
 7696               		.loc 3 591 0
 7697 2e46 8B81      		ldd r24,Y+3
 7698 2e48 9C81      		ldd r25,Y+4
 7699 2e4a 892B      		or r24,r25
 7700 2e4c 01F4      		brne .+2
 7701 2e4e 00C0      		rjmp .L225
 592:lp_solve_5.5/bfp/bfp_LUSOL/lp_LUSOL.c ****     lu->status = BFP_STATUS_ERROR;
 7702               		.loc 3 592 0
 7703 2e50 8981      		ldd r24,Y+1
 7704 2e52 9A81      		ldd r25,Y+2
 7705 2e54 27E0      		ldi r18,lo8(7)
 7706 2e56 30E0      		ldi r19,0
 7707 2e58 FC01      		movw r30,r24
 7708 2e5a 3183      		std Z+1,r19
 7709 2e5c 2083      		st Z,r18
 593:lp_solve_5.5/bfp/bfp_LUSOL/lp_LUSOL.c ****     lp->report(lp, NORMAL, "bfp_ftran_normal: Failed at iter %.0f, pivot %d;\n%s\n",
 7710               		.loc 3 593 0
 7711 2e5e 8D81      		ldd r24,Y+5
 7712 2e60 9E81      		ldd r25,Y+6
 7713 2e62 8E51      		subi r24,30
 7714 2e64 9C4F      		sbci r25,-4
 7715 2e66 FC01      		movw r30,r24
 7716 2e68 0190      		ld __tmp_reg__,Z+
 7717 2e6a F081      		ld r31,Z
 7718 2e6c E02D      		mov r30,__tmp_reg__
 7719 2e6e FC87      		std Y+12,r31
 7720 2e70 EB87      		std Y+11,r30
 7721 2e72 8981      		ldd r24,Y+1
 7722 2e74 9A81      		ldd r25,Y+2
 7723 2e76 FC01      		movw r30,r24
 7724 2e78 8085      		ldd r24,Z+8
 7725 2e7a 9185      		ldd r25,Z+9
 7726 2e7c 2B81      		ldd r18,Y+3
 7727 2e7e 3C81      		ldd r19,Y+4
 7728 2e80 B901      		movw r22,r18
 7729 2e82 0E94 0000 		call LUSOL_informstr
 7730 2e86 9E87      		std Y+14,r25
 7731 2e88 8D87      		std Y+13,r24
 7732 2e8a 8981      		ldd r24,Y+1
 7733 2e8c 9A81      		ldd r25,Y+2
 7734 2e8e FC01      		movw r30,r24
 7735 2e90 04A4      		ldd __tmp_reg__,Z+44
 7736 2e92 F5A5      		ldd r31,Z+45
 7737 2e94 E02D      		mov r30,__tmp_reg__
 7738 2e96 F88B      		std Y+16,r31
 7739 2e98 EF87      		std Y+15,r30
 594:lp_solve_5.5/bfp/bfp_LUSOL/lp_LUSOL.c ****                    (REAL) (lp->total_iter+lp->current_iter), lu->num_pivots, LUSOL_informstr(lu->LU
 7740               		.loc 3 594 0
 7741 2e9a 8D81      		ldd r24,Y+5
 7742 2e9c 9E81      		ldd r25,Y+6
 7743 2e9e 885C      		subi r24,-56
 7744 2ea0 9D4F      		sbci r25,-3
 7745 2ea2 FC01      		movw r30,r24
 7746 2ea4 A080      		ld r10,Z
 7747 2ea6 FC01      		movw r30,r24
 7748 2ea8 B180      		ldd r11,Z+1
 7749 2eaa FC01      		movw r30,r24
 7750 2eac C280      		ldd r12,Z+2
 7751 2eae FC01      		movw r30,r24
 7752 2eb0 D380      		ldd r13,Z+3
 7753 2eb2 FC01      		movw r30,r24
 7754 2eb4 E480      		ldd r14,Z+4
 7755 2eb6 FC01      		movw r30,r24
 7756 2eb8 F580      		ldd r15,Z+5
 7757 2eba FC01      		movw r30,r24
 7758 2ebc 0681      		ldd r16,Z+6
 7759 2ebe FC01      		movw r30,r24
 7760 2ec0 1781      		ldd r17,Z+7
 7761 2ec2 8D81      		ldd r24,Y+5
 7762 2ec4 9E81      		ldd r25,Y+6
 7763 2ec6 805D      		subi r24,-48
 7764 2ec8 9D4F      		sbci r25,-3
 7765 2eca FC01      		movw r30,r24
 7766 2ecc 2080      		ld r2,Z
 7767 2ece FC01      		movw r30,r24
 7768 2ed0 3180      		ldd r3,Z+1
 7769 2ed2 FC01      		movw r30,r24
 7770 2ed4 4280      		ldd r4,Z+2
 7771 2ed6 FC01      		movw r30,r24
 7772 2ed8 5380      		ldd r5,Z+3
 7773 2eda FC01      		movw r30,r24
 7774 2edc 6480      		ldd r6,Z+4
 7775 2ede FC01      		movw r30,r24
 7776 2ee0 7580      		ldd r7,Z+5
 7777 2ee2 FC01      		movw r30,r24
 7778 2ee4 8680      		ldd r8,Z+6
 7779 2ee6 FC01      		movw r30,r24
 7780 2ee8 9780      		ldd r9,Z+7
 7781 2eea 2A2D      		mov r18,r10
 7782 2eec 3B2D      		mov r19,r11
 7783 2eee 4C2D      		mov r20,r12
 7784 2ef0 5D2D      		mov r21,r13
 7785 2ef2 6E2D      		mov r22,r14
 7786 2ef4 7F2D      		mov r23,r15
 7787 2ef6 802F      		mov r24,r16
 7788 2ef8 912F      		mov r25,r17
 7789 2efa A22C      		mov r10,r2
 7790 2efc B32C      		mov r11,r3
 7791 2efe C42C      		mov r12,r4
 7792 2f00 D52C      		mov r13,r5
 7793 2f02 E62C      		mov r14,r6
 7794 2f04 F72C      		mov r15,r7
 7795 2f06 082D      		mov r16,r8
 7796 2f08 192D      		mov r17,r9
 7797 2f0a 0E94 0000 		call __adddi3
 7798 2f0e A22E      		mov r10,r18
 7799 2f10 B32E      		mov r11,r19
 7800 2f12 C42E      		mov r12,r20
 7801 2f14 D52E      		mov r13,r21
 7802 2f16 E62E      		mov r14,r22
 7803 2f18 F72E      		mov r15,r23
 7804 2f1a 082F      		mov r16,r24
 7805 2f1c 192F      		mov r17,r25
 593:lp_solve_5.5/bfp/bfp_LUSOL/lp_LUSOL.c ****     lp->report(lp, NORMAL, "bfp_ftran_normal: Failed at iter %.0f, pivot %d;\n%s\n",
 7806               		.loc 3 593 0
 7807 2f1e 2A2D      		mov r18,r10
 7808 2f20 3B2D      		mov r19,r11
 7809 2f22 4C2D      		mov r20,r12
 7810 2f24 5D2D      		mov r21,r13
 7811 2f26 6E2D      		mov r22,r14
 7812 2f28 7F2D      		mov r23,r15
 7813 2f2a 802F      		mov r24,r16
 7814 2f2c 912F      		mov r25,r17
 7815 2f2e 0E94 0000 		call __floatdisf
 7816 2f32 DC01      		movw r26,r24
 7817 2f34 CB01      		movw r24,r22
 7818 2f36 2E85      		ldd r18,Y+14
 7819 2f38 2F93      		push r18
 7820 2f3a 2D85      		ldd r18,Y+13
 7821 2f3c 2F93      		push r18
 7822 2f3e 2889      		ldd r18,Y+16
 7823 2f40 2F93      		push r18
 7824 2f42 2F85      		ldd r18,Y+15
 7825 2f44 2F93      		push r18
 7826 2f46 2B2F      		mov r18,r27
 7827 2f48 2F93      		push r18
 7828 2f4a 2A2F      		mov r18,r26
 7829 2f4c 2F93      		push r18
 7830 2f4e 292F      		mov r18,r25
 7831 2f50 2F93      		push r18
 7832 2f52 8F93      		push r24
 7833 2f54 80E0      		ldi r24,lo8(.LC15)
 7834 2f56 90E0      		ldi r25,hi8(.LC15)
 7835 2f58 892F      		mov r24,r25
 7836 2f5a 8F93      		push r24
 7837 2f5c 80E0      		ldi r24,lo8(.LC15)
 7838 2f5e 90E0      		ldi r25,hi8(.LC15)
 7839 2f60 8F93      		push r24
 7840 2f62 1F92      		push __zero_reg__
 7841 2f64 84E0      		ldi r24,lo8(4)
 7842 2f66 8F93      		push r24
 7843 2f68 8E81      		ldd r24,Y+6
 7844 2f6a 8F93      		push r24
 7845 2f6c 8D81      		ldd r24,Y+5
 7846 2f6e 8F93      		push r24
 7847 2f70 EB85      		ldd r30,Y+11
 7848 2f72 FC85      		ldd r31,Y+12
 7849 2f74 0995      		icall
 7850 2f76 2DB7      		in r18,__SP_L__
 7851 2f78 3EB7      		in r19,__SP_H__
 7852 2f7a 225F      		subi r18,-14
 7853 2f7c 3F4F      		sbci r19,-1
 7854 2f7e 0FB6      		in __tmp_reg__,__SREG__
 7855 2f80 F894      		cli
 7856 2f82 DEBF      		out __SP_H__,r29
 7857 2f84 0FBE      		out __SREG__,__tmp_reg__
 7858 2f86 CDBF      		out __SP_L__,r28
 7859               	.L225:
 595:lp_solve_5.5/bfp/bfp_LUSOL/lp_LUSOL.c ****   }
 596:lp_solve_5.5/bfp/bfp_LUSOL/lp_LUSOL.c **** }
 7860               		.loc 3 596 0
 7861 2f88 0000      		nop
 7862               	/* epilogue start */
 7863 2f8a 6096      		adiw r28,16
 7864 2f8c 0FB6      		in __tmp_reg__,__SREG__
 7865 2f8e F894      		cli
 7866 2f90 DEBF      		out __SP_H__,r29
 7867 2f92 0FBE      		out __SREG__,__tmp_reg__
 7868 2f94 CDBF      		out __SP_L__,r28
 7869 2f96 DF91      		pop r29
 7870 2f98 CF91      		pop r28
 7871 2f9a 1F91      		pop r17
 7872 2f9c 0F91      		pop r16
 7873 2f9e FF90      		pop r15
 7874 2fa0 EF90      		pop r14
 7875 2fa2 DF90      		pop r13
 7876 2fa4 CF90      		pop r12
 7877 2fa6 BF90      		pop r11
 7878 2fa8 AF90      		pop r10
 7879 2faa 9F90      		pop r9
 7880 2fac 8F90      		pop r8
 7881 2fae 7F90      		pop r7
 7882 2fb0 6F90      		pop r6
 7883 2fb2 5F90      		pop r5
 7884 2fb4 4F90      		pop r4
 7885 2fb6 3F90      		pop r3
 7886 2fb8 2F90      		pop r2
 7887 2fba 0895      		ret
 7888               		.cfi_endproc
 7889               	.LFE44:
 7891               		.section	.rodata
 7892               	.LC16:
 7893 035b 6266 705F 		.string	"bfp_ftran_prepare: Failed at iter %.0f, pivot %d;\n%s\n"
 7893      6674 7261 
 7893      6E5F 7072 
 7893      6570 6172 
 7893      653A 2046 
 7894               		.text
 7895               	.global	bfp_ftran_prepare
 7897               	bfp_ftran_prepare:
 7898               	.LFB45:
 597:lp_solve_5.5/bfp/bfp_LUSOL/lp_LUSOL.c **** 
 598:lp_solve_5.5/bfp/bfp_LUSOL/lp_LUSOL.c **** 
 599:lp_solve_5.5/bfp/bfp_LUSOL/lp_LUSOL.c **** /* MAY MODIFY */
 600:lp_solve_5.5/bfp/bfp_LUSOL/lp_LUSOL.c **** void BFP_CALLMODEL bfp_ftran_prepare(lprec *lp, REAL *pcol, int *nzidx)
 601:lp_solve_5.5/bfp/bfp_LUSOL/lp_LUSOL.c **** {
 7899               		.loc 3 601 0
 7900               		.cfi_startproc
 7901 2fbc 2F92      		push r2
 7902               	.LCFI253:
 7903               		.cfi_def_cfa_offset 3
 7904               		.cfi_offset 2, -2
 7905 2fbe 3F92      		push r3
 7906               	.LCFI254:
 7907               		.cfi_def_cfa_offset 4
 7908               		.cfi_offset 3, -3
 7909 2fc0 4F92      		push r4
 7910               	.LCFI255:
 7911               		.cfi_def_cfa_offset 5
 7912               		.cfi_offset 4, -4
 7913 2fc2 5F92      		push r5
 7914               	.LCFI256:
 7915               		.cfi_def_cfa_offset 6
 7916               		.cfi_offset 5, -5
 7917 2fc4 6F92      		push r6
 7918               	.LCFI257:
 7919               		.cfi_def_cfa_offset 7
 7920               		.cfi_offset 6, -6
 7921 2fc6 7F92      		push r7
 7922               	.LCFI258:
 7923               		.cfi_def_cfa_offset 8
 7924               		.cfi_offset 7, -7
 7925 2fc8 8F92      		push r8
 7926               	.LCFI259:
 7927               		.cfi_def_cfa_offset 9
 7928               		.cfi_offset 8, -8
 7929 2fca 9F92      		push r9
 7930               	.LCFI260:
 7931               		.cfi_def_cfa_offset 10
 7932               		.cfi_offset 9, -9
 7933 2fcc AF92      		push r10
 7934               	.LCFI261:
 7935               		.cfi_def_cfa_offset 11
 7936               		.cfi_offset 10, -10
 7937 2fce BF92      		push r11
 7938               	.LCFI262:
 7939               		.cfi_def_cfa_offset 12
 7940               		.cfi_offset 11, -11
 7941 2fd0 CF92      		push r12
 7942               	.LCFI263:
 7943               		.cfi_def_cfa_offset 13
 7944               		.cfi_offset 12, -12
 7945 2fd2 DF92      		push r13
 7946               	.LCFI264:
 7947               		.cfi_def_cfa_offset 14
 7948               		.cfi_offset 13, -13
 7949 2fd4 EF92      		push r14
 7950               	.LCFI265:
 7951               		.cfi_def_cfa_offset 15
 7952               		.cfi_offset 14, -14
 7953 2fd6 FF92      		push r15
 7954               	.LCFI266:
 7955               		.cfi_def_cfa_offset 16
 7956               		.cfi_offset 15, -15
 7957 2fd8 0F93      		push r16
 7958               	.LCFI267:
 7959               		.cfi_def_cfa_offset 17
 7960               		.cfi_offset 16, -16
 7961 2fda 1F93      		push r17
 7962               	.LCFI268:
 7963               		.cfi_def_cfa_offset 18
 7964               		.cfi_offset 17, -17
 7965 2fdc CF93      		push r28
 7966               	.LCFI269:
 7967               		.cfi_def_cfa_offset 19
 7968               		.cfi_offset 28, -18
 7969 2fde DF93      		push r29
 7970               	.LCFI270:
 7971               		.cfi_def_cfa_offset 20
 7972               		.cfi_offset 29, -19
 7973 2fe0 CDB7      		in r28,__SP_L__
 7974 2fe2 DEB7      		in r29,__SP_H__
 7975               	.LCFI271:
 7976               		.cfi_def_cfa_register 28
 7977 2fe4 6097      		sbiw r28,16
 7978               	.LCFI272:
 7979               		.cfi_def_cfa_offset 36
 7980 2fe6 0FB6      		in __tmp_reg__,__SREG__
 7981 2fe8 F894      		cli
 7982 2fea DEBF      		out __SP_H__,r29
 7983 2fec 0FBE      		out __SREG__,__tmp_reg__
 7984 2fee CDBF      		out __SP_L__,r28
 7985               	/* prologue: function */
 7986               	/* frame size = 16 */
 7987               	/* stack size = 34 */
 7988               	.L__stack_usage = 34
 7989 2ff0 9E83      		std Y+6,r25
 7990 2ff2 8D83      		std Y+5,r24
 7991 2ff4 7887      		std Y+8,r23
 7992 2ff6 6F83      		std Y+7,r22
 7993 2ff8 5A87      		std Y+10,r21
 7994 2ffa 4987      		std Y+9,r20
 602:lp_solve_5.5/bfp/bfp_LUSOL/lp_LUSOL.c ****   int    i;
 603:lp_solve_5.5/bfp/bfp_LUSOL/lp_LUSOL.c ****   INVrec *lu;
 604:lp_solve_5.5/bfp/bfp_LUSOL/lp_LUSOL.c **** 
 605:lp_solve_5.5/bfp/bfp_LUSOL/lp_LUSOL.c ****   lu = lp->invB;
 7995               		.loc 3 605 0
 7996 2ffc 8D81      		ldd r24,Y+5
 7997 2ffe 9E81      		ldd r25,Y+6
 7998 3000 8854      		subi r24,72
 7999 3002 9D4F      		sbci r25,-3
 8000 3004 FC01      		movw r30,r24
 8001 3006 8081      		ld r24,Z
 8002 3008 9181      		ldd r25,Z+1
 8003 300a 9A83      		std Y+2,r25
 8004 300c 8983      		std Y+1,r24
 606:lp_solve_5.5/bfp/bfp_LUSOL/lp_LUSOL.c **** 
 607:lp_solve_5.5/bfp/bfp_LUSOL/lp_LUSOL.c ****   /* Do the LUSOL ftran */
 608:lp_solve_5.5/bfp/bfp_LUSOL/lp_LUSOL.c ****   i = LUSOL_ftran(lu->LUSOL, pcol-bfp_rowoffset(lp), nzidx, TRUE);
 8005               		.loc 3 608 0
 8006 300e 8D81      		ldd r24,Y+5
 8007 3010 9E81      		ldd r25,Y+6
 8008 3012 0E94 0000 		call bfp_rowoffset
 8009 3016 880F      		lsl r24
 8010 3018 991F      		rol r25
 8011 301a 880F      		lsl r24
 8012 301c 991F      		rol r25
 8013 301e 9195      		neg r25
 8014 3020 8195      		neg r24
 8015 3022 9109      		sbc r25,__zero_reg__
 8016 3024 2F81      		ldd r18,Y+7
 8017 3026 3885      		ldd r19,Y+8
 8018 3028 B901      		movw r22,r18
 8019 302a 680F      		add r22,r24
 8020 302c 791F      		adc r23,r25
 8021 302e 8981      		ldd r24,Y+1
 8022 3030 9A81      		ldd r25,Y+2
 8023 3032 FC01      		movw r30,r24
 8024 3034 8085      		ldd r24,Z+8
 8025 3036 9185      		ldd r25,Z+9
 8026 3038 4985      		ldd r20,Y+9
 8027 303a 5A85      		ldd r21,Y+10
 8028 303c 21E0      		ldi r18,lo8(1)
 8029 303e 0E94 0000 		call LUSOL_ftran
 8030 3042 9C83      		std Y+4,r25
 8031 3044 8B83      		std Y+3,r24
 609:lp_solve_5.5/bfp/bfp_LUSOL/lp_LUSOL.c ****   if(i != LUSOL_INFORM_LUSUCCESS) {
 8032               		.loc 3 609 0
 8033 3046 8B81      		ldd r24,Y+3
 8034 3048 9C81      		ldd r25,Y+4
 8035 304a 892B      		or r24,r25
 8036 304c 01F4      		brne .+2
 8037 304e 00C0      		rjmp .L228
 610:lp_solve_5.5/bfp/bfp_LUSOL/lp_LUSOL.c ****     lu->status = BFP_STATUS_ERROR;
 8038               		.loc 3 610 0
 8039 3050 8981      		ldd r24,Y+1
 8040 3052 9A81      		ldd r25,Y+2
 8041 3054 27E0      		ldi r18,lo8(7)
 8042 3056 30E0      		ldi r19,0
 8043 3058 FC01      		movw r30,r24
 8044 305a 3183      		std Z+1,r19
 8045 305c 2083      		st Z,r18
 611:lp_solve_5.5/bfp/bfp_LUSOL/lp_LUSOL.c ****     lp->report(lp, NORMAL, "bfp_ftran_prepare: Failed at iter %.0f, pivot %d;\n%s\n",
 8046               		.loc 3 611 0
 8047 305e 8D81      		ldd r24,Y+5
 8048 3060 9E81      		ldd r25,Y+6
 8049 3062 8E51      		subi r24,30
 8050 3064 9C4F      		sbci r25,-4
 8051 3066 FC01      		movw r30,r24
 8052 3068 0190      		ld __tmp_reg__,Z+
 8053 306a F081      		ld r31,Z
 8054 306c E02D      		mov r30,__tmp_reg__
 8055 306e FC87      		std Y+12,r31
 8056 3070 EB87      		std Y+11,r30
 8057 3072 8981      		ldd r24,Y+1
 8058 3074 9A81      		ldd r25,Y+2
 8059 3076 FC01      		movw r30,r24
 8060 3078 8085      		ldd r24,Z+8
 8061 307a 9185      		ldd r25,Z+9
 8062 307c 2B81      		ldd r18,Y+3
 8063 307e 3C81      		ldd r19,Y+4
 8064 3080 B901      		movw r22,r18
 8065 3082 0E94 0000 		call LUSOL_informstr
 8066 3086 9E87      		std Y+14,r25
 8067 3088 8D87      		std Y+13,r24
 8068 308a 8981      		ldd r24,Y+1
 8069 308c 9A81      		ldd r25,Y+2
 8070 308e FC01      		movw r30,r24
 8071 3090 04A4      		ldd __tmp_reg__,Z+44
 8072 3092 F5A5      		ldd r31,Z+45
 8073 3094 E02D      		mov r30,__tmp_reg__
 8074 3096 F88B      		std Y+16,r31
 8075 3098 EF87      		std Y+15,r30
 612:lp_solve_5.5/bfp/bfp_LUSOL/lp_LUSOL.c ****                    (REAL) (lp->total_iter+lp->current_iter), lu->num_pivots, LUSOL_informstr(lu->LU
 8076               		.loc 3 612 0
 8077 309a 8D81      		ldd r24,Y+5
 8078 309c 9E81      		ldd r25,Y+6
 8079 309e 885C      		subi r24,-56
 8080 30a0 9D4F      		sbci r25,-3
 8081 30a2 FC01      		movw r30,r24
 8082 30a4 A080      		ld r10,Z
 8083 30a6 FC01      		movw r30,r24
 8084 30a8 B180      		ldd r11,Z+1
 8085 30aa FC01      		movw r30,r24
 8086 30ac C280      		ldd r12,Z+2
 8087 30ae FC01      		movw r30,r24
 8088 30b0 D380      		ldd r13,Z+3
 8089 30b2 FC01      		movw r30,r24
 8090 30b4 E480      		ldd r14,Z+4
 8091 30b6 FC01      		movw r30,r24
 8092 30b8 F580      		ldd r15,Z+5
 8093 30ba FC01      		movw r30,r24
 8094 30bc 0681      		ldd r16,Z+6
 8095 30be FC01      		movw r30,r24
 8096 30c0 1781      		ldd r17,Z+7
 8097 30c2 8D81      		ldd r24,Y+5
 8098 30c4 9E81      		ldd r25,Y+6
 8099 30c6 805D      		subi r24,-48
 8100 30c8 9D4F      		sbci r25,-3
 8101 30ca FC01      		movw r30,r24
 8102 30cc 2080      		ld r2,Z
 8103 30ce FC01      		movw r30,r24
 8104 30d0 3180      		ldd r3,Z+1
 8105 30d2 FC01      		movw r30,r24
 8106 30d4 4280      		ldd r4,Z+2
 8107 30d6 FC01      		movw r30,r24
 8108 30d8 5380      		ldd r5,Z+3
 8109 30da FC01      		movw r30,r24
 8110 30dc 6480      		ldd r6,Z+4
 8111 30de FC01      		movw r30,r24
 8112 30e0 7580      		ldd r7,Z+5
 8113 30e2 FC01      		movw r30,r24
 8114 30e4 8680      		ldd r8,Z+6
 8115 30e6 FC01      		movw r30,r24
 8116 30e8 9780      		ldd r9,Z+7
 8117 30ea 2A2D      		mov r18,r10
 8118 30ec 3B2D      		mov r19,r11
 8119 30ee 4C2D      		mov r20,r12
 8120 30f0 5D2D      		mov r21,r13
 8121 30f2 6E2D      		mov r22,r14
 8122 30f4 7F2D      		mov r23,r15
 8123 30f6 802F      		mov r24,r16
 8124 30f8 912F      		mov r25,r17
 8125 30fa A22C      		mov r10,r2
 8126 30fc B32C      		mov r11,r3
 8127 30fe C42C      		mov r12,r4
 8128 3100 D52C      		mov r13,r5
 8129 3102 E62C      		mov r14,r6
 8130 3104 F72C      		mov r15,r7
 8131 3106 082D      		mov r16,r8
 8132 3108 192D      		mov r17,r9
 8133 310a 0E94 0000 		call __adddi3
 8134 310e A22E      		mov r10,r18
 8135 3110 B32E      		mov r11,r19
 8136 3112 C42E      		mov r12,r20
 8137 3114 D52E      		mov r13,r21
 8138 3116 E62E      		mov r14,r22
 8139 3118 F72E      		mov r15,r23
 8140 311a 082F      		mov r16,r24
 8141 311c 192F      		mov r17,r25
 611:lp_solve_5.5/bfp/bfp_LUSOL/lp_LUSOL.c ****     lp->report(lp, NORMAL, "bfp_ftran_prepare: Failed at iter %.0f, pivot %d;\n%s\n",
 8142               		.loc 3 611 0
 8143 311e 2A2D      		mov r18,r10
 8144 3120 3B2D      		mov r19,r11
 8145 3122 4C2D      		mov r20,r12
 8146 3124 5D2D      		mov r21,r13
 8147 3126 6E2D      		mov r22,r14
 8148 3128 7F2D      		mov r23,r15
 8149 312a 802F      		mov r24,r16
 8150 312c 912F      		mov r25,r17
 8151 312e 0E94 0000 		call __floatdisf
 8152 3132 DC01      		movw r26,r24
 8153 3134 CB01      		movw r24,r22
 8154 3136 2E85      		ldd r18,Y+14
 8155 3138 2F93      		push r18
 8156 313a 2D85      		ldd r18,Y+13
 8157 313c 2F93      		push r18
 8158 313e 2889      		ldd r18,Y+16
 8159 3140 2F93      		push r18
 8160 3142 2F85      		ldd r18,Y+15
 8161 3144 2F93      		push r18
 8162 3146 2B2F      		mov r18,r27
 8163 3148 2F93      		push r18
 8164 314a 2A2F      		mov r18,r26
 8165 314c 2F93      		push r18
 8166 314e 292F      		mov r18,r25
 8167 3150 2F93      		push r18
 8168 3152 8F93      		push r24
 8169 3154 80E0      		ldi r24,lo8(.LC16)
 8170 3156 90E0      		ldi r25,hi8(.LC16)
 8171 3158 892F      		mov r24,r25
 8172 315a 8F93      		push r24
 8173 315c 80E0      		ldi r24,lo8(.LC16)
 8174 315e 90E0      		ldi r25,hi8(.LC16)
 8175 3160 8F93      		push r24
 8176 3162 1F92      		push __zero_reg__
 8177 3164 84E0      		ldi r24,lo8(4)
 8178 3166 8F93      		push r24
 8179 3168 8E81      		ldd r24,Y+6
 8180 316a 8F93      		push r24
 8181 316c 8D81      		ldd r24,Y+5
 8182 316e 8F93      		push r24
 8183 3170 EB85      		ldd r30,Y+11
 8184 3172 FC85      		ldd r31,Y+12
 8185 3174 0995      		icall
 8186 3176 2DB7      		in r18,__SP_L__
 8187 3178 3EB7      		in r19,__SP_H__
 8188 317a 225F      		subi r18,-14
 8189 317c 3F4F      		sbci r19,-1
 8190 317e 0FB6      		in __tmp_reg__,__SREG__
 8191 3180 F894      		cli
 8192 3182 DEBF      		out __SP_H__,r29
 8193 3184 0FBE      		out __SREG__,__tmp_reg__
 8194 3186 CDBF      		out __SP_L__,r28
 8195               	.L228:
 613:lp_solve_5.5/bfp/bfp_LUSOL/lp_LUSOL.c ****   }
 614:lp_solve_5.5/bfp/bfp_LUSOL/lp_LUSOL.c **** }
 8196               		.loc 3 614 0
 8197 3188 0000      		nop
 8198               	/* epilogue start */
 8199 318a 6096      		adiw r28,16
 8200 318c 0FB6      		in __tmp_reg__,__SREG__
 8201 318e F894      		cli
 8202 3190 DEBF      		out __SP_H__,r29
 8203 3192 0FBE      		out __SREG__,__tmp_reg__
 8204 3194 CDBF      		out __SP_L__,r28
 8205 3196 DF91      		pop r29
 8206 3198 CF91      		pop r28
 8207 319a 1F91      		pop r17
 8208 319c 0F91      		pop r16
 8209 319e FF90      		pop r15
 8210 31a0 EF90      		pop r14
 8211 31a2 DF90      		pop r13
 8212 31a4 CF90      		pop r12
 8213 31a6 BF90      		pop r11
 8214 31a8 AF90      		pop r10
 8215 31aa 9F90      		pop r9
 8216 31ac 8F90      		pop r8
 8217 31ae 7F90      		pop r7
 8218 31b0 6F90      		pop r6
 8219 31b2 5F90      		pop r5
 8220 31b4 4F90      		pop r4
 8221 31b6 3F90      		pop r3
 8222 31b8 2F90      		pop r2
 8223 31ba 0895      		ret
 8224               		.cfi_endproc
 8225               	.LFE45:
 8227               		.section	.rodata
 8228               	.LC17:
 8229 0391 6266 705F 		.string	"bfp_btran_normal: Failed at iter %.0f, pivot %d;\n%s\n"
 8229      6274 7261 
 8229      6E5F 6E6F 
 8229      726D 616C 
 8229      3A20 4661 
 8230               		.text
 8231               	.global	bfp_btran_normal
 8233               	bfp_btran_normal:
 8234               	.LFB46:
 615:lp_solve_5.5/bfp/bfp_LUSOL/lp_LUSOL.c **** 
 616:lp_solve_5.5/bfp/bfp_LUSOL/lp_LUSOL.c **** 
 617:lp_solve_5.5/bfp/bfp_LUSOL/lp_LUSOL.c **** /* MUST MODIFY */
 618:lp_solve_5.5/bfp/bfp_LUSOL/lp_LUSOL.c **** void BFP_CALLMODEL bfp_btran_normal(lprec *lp, REAL *prow, int *nzidx)
 619:lp_solve_5.5/bfp/bfp_LUSOL/lp_LUSOL.c **** {
 8235               		.loc 3 619 0
 8236               		.cfi_startproc
 8237 31bc 2F92      		push r2
 8238               	.LCFI273:
 8239               		.cfi_def_cfa_offset 3
 8240               		.cfi_offset 2, -2
 8241 31be 3F92      		push r3
 8242               	.LCFI274:
 8243               		.cfi_def_cfa_offset 4
 8244               		.cfi_offset 3, -3
 8245 31c0 4F92      		push r4
 8246               	.LCFI275:
 8247               		.cfi_def_cfa_offset 5
 8248               		.cfi_offset 4, -4
 8249 31c2 5F92      		push r5
 8250               	.LCFI276:
 8251               		.cfi_def_cfa_offset 6
 8252               		.cfi_offset 5, -5
 8253 31c4 6F92      		push r6
 8254               	.LCFI277:
 8255               		.cfi_def_cfa_offset 7
 8256               		.cfi_offset 6, -6
 8257 31c6 7F92      		push r7
 8258               	.LCFI278:
 8259               		.cfi_def_cfa_offset 8
 8260               		.cfi_offset 7, -7
 8261 31c8 8F92      		push r8
 8262               	.LCFI279:
 8263               		.cfi_def_cfa_offset 9
 8264               		.cfi_offset 8, -8
 8265 31ca 9F92      		push r9
 8266               	.LCFI280:
 8267               		.cfi_def_cfa_offset 10
 8268               		.cfi_offset 9, -9
 8269 31cc AF92      		push r10
 8270               	.LCFI281:
 8271               		.cfi_def_cfa_offset 11
 8272               		.cfi_offset 10, -10
 8273 31ce BF92      		push r11
 8274               	.LCFI282:
 8275               		.cfi_def_cfa_offset 12
 8276               		.cfi_offset 11, -11
 8277 31d0 CF92      		push r12
 8278               	.LCFI283:
 8279               		.cfi_def_cfa_offset 13
 8280               		.cfi_offset 12, -12
 8281 31d2 DF92      		push r13
 8282               	.LCFI284:
 8283               		.cfi_def_cfa_offset 14
 8284               		.cfi_offset 13, -13
 8285 31d4 EF92      		push r14
 8286               	.LCFI285:
 8287               		.cfi_def_cfa_offset 15
 8288               		.cfi_offset 14, -14
 8289 31d6 FF92      		push r15
 8290               	.LCFI286:
 8291               		.cfi_def_cfa_offset 16
 8292               		.cfi_offset 15, -15
 8293 31d8 0F93      		push r16
 8294               	.LCFI287:
 8295               		.cfi_def_cfa_offset 17
 8296               		.cfi_offset 16, -16
 8297 31da 1F93      		push r17
 8298               	.LCFI288:
 8299               		.cfi_def_cfa_offset 18
 8300               		.cfi_offset 17, -17
 8301 31dc CF93      		push r28
 8302               	.LCFI289:
 8303               		.cfi_def_cfa_offset 19
 8304               		.cfi_offset 28, -18
 8305 31de DF93      		push r29
 8306               	.LCFI290:
 8307               		.cfi_def_cfa_offset 20
 8308               		.cfi_offset 29, -19
 8309 31e0 CDB7      		in r28,__SP_L__
 8310 31e2 DEB7      		in r29,__SP_H__
 8311               	.LCFI291:
 8312               		.cfi_def_cfa_register 28
 8313 31e4 6097      		sbiw r28,16
 8314               	.LCFI292:
 8315               		.cfi_def_cfa_offset 36
 8316 31e6 0FB6      		in __tmp_reg__,__SREG__
 8317 31e8 F894      		cli
 8318 31ea DEBF      		out __SP_H__,r29
 8319 31ec 0FBE      		out __SREG__,__tmp_reg__
 8320 31ee CDBF      		out __SP_L__,r28
 8321               	/* prologue: function */
 8322               	/* frame size = 16 */
 8323               	/* stack size = 34 */
 8324               	.L__stack_usage = 34
 8325 31f0 9E83      		std Y+6,r25
 8326 31f2 8D83      		std Y+5,r24
 8327 31f4 7887      		std Y+8,r23
 8328 31f6 6F83      		std Y+7,r22
 8329 31f8 5A87      		std Y+10,r21
 8330 31fa 4987      		std Y+9,r20
 620:lp_solve_5.5/bfp/bfp_LUSOL/lp_LUSOL.c ****   int    i;
 621:lp_solve_5.5/bfp/bfp_LUSOL/lp_LUSOL.c ****   INVrec *lu;
 622:lp_solve_5.5/bfp/bfp_LUSOL/lp_LUSOL.c **** 
 623:lp_solve_5.5/bfp/bfp_LUSOL/lp_LUSOL.c ****   lu = lp->invB;
 8331               		.loc 3 623 0
 8332 31fc 8D81      		ldd r24,Y+5
 8333 31fe 9E81      		ldd r25,Y+6
 8334 3200 8854      		subi r24,72
 8335 3202 9D4F      		sbci r25,-3
 8336 3204 FC01      		movw r30,r24
 8337 3206 8081      		ld r24,Z
 8338 3208 9181      		ldd r25,Z+1
 8339 320a 9A83      		std Y+2,r25
 8340 320c 8983      		std Y+1,r24
 624:lp_solve_5.5/bfp/bfp_LUSOL/lp_LUSOL.c **** 
 625:lp_solve_5.5/bfp/bfp_LUSOL/lp_LUSOL.c ****   /* Do the LUSOL btran */
 626:lp_solve_5.5/bfp/bfp_LUSOL/lp_LUSOL.c ****   i = LUSOL_btran(lu->LUSOL, prow-bfp_rowoffset(lp), nzidx);
 8341               		.loc 3 626 0
 8342 320e 8D81      		ldd r24,Y+5
 8343 3210 9E81      		ldd r25,Y+6
 8344 3212 0E94 0000 		call bfp_rowoffset
 8345 3216 880F      		lsl r24
 8346 3218 991F      		rol r25
 8347 321a 880F      		lsl r24
 8348 321c 991F      		rol r25
 8349 321e 9195      		neg r25
 8350 3220 8195      		neg r24
 8351 3222 9109      		sbc r25,__zero_reg__
 8352 3224 2F81      		ldd r18,Y+7
 8353 3226 3885      		ldd r19,Y+8
 8354 3228 280F      		add r18,r24
 8355 322a 391F      		adc r19,r25
 8356 322c 8981      		ldd r24,Y+1
 8357 322e 9A81      		ldd r25,Y+2
 8358 3230 FC01      		movw r30,r24
 8359 3232 8085      		ldd r24,Z+8
 8360 3234 9185      		ldd r25,Z+9
 8361 3236 4985      		ldd r20,Y+9
 8362 3238 5A85      		ldd r21,Y+10
 8363 323a B901      		movw r22,r18
 8364 323c 0E94 0000 		call LUSOL_btran
 8365 3240 9C83      		std Y+4,r25
 8366 3242 8B83      		std Y+3,r24
 627:lp_solve_5.5/bfp/bfp_LUSOL/lp_LUSOL.c ****   if(i != LUSOL_INFORM_LUSUCCESS) {
 8367               		.loc 3 627 0
 8368 3244 8B81      		ldd r24,Y+3
 8369 3246 9C81      		ldd r25,Y+4
 8370 3248 892B      		or r24,r25
 8371 324a 01F4      		brne .+2
 8372 324c 00C0      		rjmp .L231
 628:lp_solve_5.5/bfp/bfp_LUSOL/lp_LUSOL.c ****     lu->status = BFP_STATUS_ERROR;
 8373               		.loc 3 628 0
 8374 324e 8981      		ldd r24,Y+1
 8375 3250 9A81      		ldd r25,Y+2
 8376 3252 27E0      		ldi r18,lo8(7)
 8377 3254 30E0      		ldi r19,0
 8378 3256 FC01      		movw r30,r24
 8379 3258 3183      		std Z+1,r19
 8380 325a 2083      		st Z,r18
 629:lp_solve_5.5/bfp/bfp_LUSOL/lp_LUSOL.c ****     lp->report(lp, NORMAL, "bfp_btran_normal: Failed at iter %.0f, pivot %d;\n%s\n",
 8381               		.loc 3 629 0
 8382 325c 8D81      		ldd r24,Y+5
 8383 325e 9E81      		ldd r25,Y+6
 8384 3260 8E51      		subi r24,30
 8385 3262 9C4F      		sbci r25,-4
 8386 3264 FC01      		movw r30,r24
 8387 3266 0190      		ld __tmp_reg__,Z+
 8388 3268 F081      		ld r31,Z
 8389 326a E02D      		mov r30,__tmp_reg__
 8390 326c FC87      		std Y+12,r31
 8391 326e EB87      		std Y+11,r30
 8392 3270 8981      		ldd r24,Y+1
 8393 3272 9A81      		ldd r25,Y+2
 8394 3274 FC01      		movw r30,r24
 8395 3276 8085      		ldd r24,Z+8
 8396 3278 9185      		ldd r25,Z+9
 8397 327a 2B81      		ldd r18,Y+3
 8398 327c 3C81      		ldd r19,Y+4
 8399 327e B901      		movw r22,r18
 8400 3280 0E94 0000 		call LUSOL_informstr
 8401 3284 9E87      		std Y+14,r25
 8402 3286 8D87      		std Y+13,r24
 8403 3288 8981      		ldd r24,Y+1
 8404 328a 9A81      		ldd r25,Y+2
 8405 328c FC01      		movw r30,r24
 8406 328e 04A4      		ldd __tmp_reg__,Z+44
 8407 3290 F5A5      		ldd r31,Z+45
 8408 3292 E02D      		mov r30,__tmp_reg__
 8409 3294 F88B      		std Y+16,r31
 8410 3296 EF87      		std Y+15,r30
 630:lp_solve_5.5/bfp/bfp_LUSOL/lp_LUSOL.c ****                    (REAL) (lp->total_iter+lp->current_iter), lu->num_pivots, LUSOL_informstr(lu->LU
 8411               		.loc 3 630 0
 8412 3298 8D81      		ldd r24,Y+5
 8413 329a 9E81      		ldd r25,Y+6
 8414 329c 885C      		subi r24,-56
 8415 329e 9D4F      		sbci r25,-3
 8416 32a0 FC01      		movw r30,r24
 8417 32a2 A080      		ld r10,Z
 8418 32a4 FC01      		movw r30,r24
 8419 32a6 B180      		ldd r11,Z+1
 8420 32a8 FC01      		movw r30,r24
 8421 32aa C280      		ldd r12,Z+2
 8422 32ac FC01      		movw r30,r24
 8423 32ae D380      		ldd r13,Z+3
 8424 32b0 FC01      		movw r30,r24
 8425 32b2 E480      		ldd r14,Z+4
 8426 32b4 FC01      		movw r30,r24
 8427 32b6 F580      		ldd r15,Z+5
 8428 32b8 FC01      		movw r30,r24
 8429 32ba 0681      		ldd r16,Z+6
 8430 32bc FC01      		movw r30,r24
 8431 32be 1781      		ldd r17,Z+7
 8432 32c0 8D81      		ldd r24,Y+5
 8433 32c2 9E81      		ldd r25,Y+6
 8434 32c4 805D      		subi r24,-48
 8435 32c6 9D4F      		sbci r25,-3
 8436 32c8 FC01      		movw r30,r24
 8437 32ca 2080      		ld r2,Z
 8438 32cc FC01      		movw r30,r24
 8439 32ce 3180      		ldd r3,Z+1
 8440 32d0 FC01      		movw r30,r24
 8441 32d2 4280      		ldd r4,Z+2
 8442 32d4 FC01      		movw r30,r24
 8443 32d6 5380      		ldd r5,Z+3
 8444 32d8 FC01      		movw r30,r24
 8445 32da 6480      		ldd r6,Z+4
 8446 32dc FC01      		movw r30,r24
 8447 32de 7580      		ldd r7,Z+5
 8448 32e0 FC01      		movw r30,r24
 8449 32e2 8680      		ldd r8,Z+6
 8450 32e4 FC01      		movw r30,r24
 8451 32e6 9780      		ldd r9,Z+7
 8452 32e8 2A2D      		mov r18,r10
 8453 32ea 3B2D      		mov r19,r11
 8454 32ec 4C2D      		mov r20,r12
 8455 32ee 5D2D      		mov r21,r13
 8456 32f0 6E2D      		mov r22,r14
 8457 32f2 7F2D      		mov r23,r15
 8458 32f4 802F      		mov r24,r16
 8459 32f6 912F      		mov r25,r17
 8460 32f8 A22C      		mov r10,r2
 8461 32fa B32C      		mov r11,r3
 8462 32fc C42C      		mov r12,r4
 8463 32fe D52C      		mov r13,r5
 8464 3300 E62C      		mov r14,r6
 8465 3302 F72C      		mov r15,r7
 8466 3304 082D      		mov r16,r8
 8467 3306 192D      		mov r17,r9
 8468 3308 0E94 0000 		call __adddi3
 8469 330c A22E      		mov r10,r18
 8470 330e B32E      		mov r11,r19
 8471 3310 C42E      		mov r12,r20
 8472 3312 D52E      		mov r13,r21
 8473 3314 E62E      		mov r14,r22
 8474 3316 F72E      		mov r15,r23
 8475 3318 082F      		mov r16,r24
 8476 331a 192F      		mov r17,r25
 629:lp_solve_5.5/bfp/bfp_LUSOL/lp_LUSOL.c ****     lp->report(lp, NORMAL, "bfp_btran_normal: Failed at iter %.0f, pivot %d;\n%s\n",
 8477               		.loc 3 629 0
 8478 331c 2A2D      		mov r18,r10
 8479 331e 3B2D      		mov r19,r11
 8480 3320 4C2D      		mov r20,r12
 8481 3322 5D2D      		mov r21,r13
 8482 3324 6E2D      		mov r22,r14
 8483 3326 7F2D      		mov r23,r15
 8484 3328 802F      		mov r24,r16
 8485 332a 912F      		mov r25,r17
 8486 332c 0E94 0000 		call __floatdisf
 8487 3330 DC01      		movw r26,r24
 8488 3332 CB01      		movw r24,r22
 8489 3334 2E85      		ldd r18,Y+14
 8490 3336 2F93      		push r18
 8491 3338 2D85      		ldd r18,Y+13
 8492 333a 2F93      		push r18
 8493 333c 2889      		ldd r18,Y+16
 8494 333e 2F93      		push r18
 8495 3340 2F85      		ldd r18,Y+15
 8496 3342 2F93      		push r18
 8497 3344 2B2F      		mov r18,r27
 8498 3346 2F93      		push r18
 8499 3348 2A2F      		mov r18,r26
 8500 334a 2F93      		push r18
 8501 334c 292F      		mov r18,r25
 8502 334e 2F93      		push r18
 8503 3350 8F93      		push r24
 8504 3352 80E0      		ldi r24,lo8(.LC17)
 8505 3354 90E0      		ldi r25,hi8(.LC17)
 8506 3356 892F      		mov r24,r25
 8507 3358 8F93      		push r24
 8508 335a 80E0      		ldi r24,lo8(.LC17)
 8509 335c 90E0      		ldi r25,hi8(.LC17)
 8510 335e 8F93      		push r24
 8511 3360 1F92      		push __zero_reg__
 8512 3362 84E0      		ldi r24,lo8(4)
 8513 3364 8F93      		push r24
 8514 3366 8E81      		ldd r24,Y+6
 8515 3368 8F93      		push r24
 8516 336a 8D81      		ldd r24,Y+5
 8517 336c 8F93      		push r24
 8518 336e EB85      		ldd r30,Y+11
 8519 3370 FC85      		ldd r31,Y+12
 8520 3372 0995      		icall
 8521 3374 2DB7      		in r18,__SP_L__
 8522 3376 3EB7      		in r19,__SP_H__
 8523 3378 225F      		subi r18,-14
 8524 337a 3F4F      		sbci r19,-1
 8525 337c 0FB6      		in __tmp_reg__,__SREG__
 8526 337e F894      		cli
 8527 3380 DEBF      		out __SP_H__,r29
 8528 3382 0FBE      		out __SREG__,__tmp_reg__
 8529 3384 CDBF      		out __SP_L__,r28
 8530               	.L231:
 631:lp_solve_5.5/bfp/bfp_LUSOL/lp_LUSOL.c ****   }
 632:lp_solve_5.5/bfp/bfp_LUSOL/lp_LUSOL.c **** 
 633:lp_solve_5.5/bfp/bfp_LUSOL/lp_LUSOL.c ****   /* Check performance data */
 634:lp_solve_5.5/bfp/bfp_LUSOL/lp_LUSOL.c **** #if 0
 635:lp_solve_5.5/bfp/bfp_LUSOL/lp_LUSOL.c ****   if(lu->num_pivots == 1) {
 636:lp_solve_5.5/bfp/bfp_LUSOL/lp_LUSOL.c ****     if(lu->LUSOL->luparm[LUSOL_IP_ACCELERATION] > 0)
 637:lp_solve_5.5/bfp/bfp_LUSOL/lp_LUSOL.c ****       lp->report(lp, NORMAL, "RowL0 R:%10.7f  C:%10.7f  NZ:%10.7f\n",
 638:lp_solve_5.5/bfp/bfp_LUSOL/lp_LUSOL.c ****                              (REAL) lu->LUSOL->luparm[LUSOL_IP_ROWCOUNT_L0] / lu->LUSOL->m,
 639:lp_solve_5.5/bfp/bfp_LUSOL/lp_LUSOL.c ****                              (REAL) lu->LUSOL->luparm[LUSOL_IP_COLCOUNT_L0] / lu->LUSOL->m,
 640:lp_solve_5.5/bfp/bfp_LUSOL/lp_LUSOL.c ****                              (REAL) lu->LUSOL->luparm[LUSOL_IP_NONZEROS_L0] / pow((REAL) lu->LUSOL-
 641:lp_solve_5.5/bfp/bfp_LUSOL/lp_LUSOL.c ****     else
 642:lp_solve_5.5/bfp/bfp_LUSOL/lp_LUSOL.c ****       lp->report(lp, NORMAL, "ColL0 C:%10.7f  NZ:%10.7f\n",
 643:lp_solve_5.5/bfp/bfp_LUSOL/lp_LUSOL.c ****                              (REAL) lu->LUSOL->luparm[LUSOL_IP_COLCOUNT_L0] / lu->LUSOL->m,
 644:lp_solve_5.5/bfp/bfp_LUSOL/lp_LUSOL.c ****                              (REAL) lu->LUSOL->luparm[LUSOL_IP_NONZEROS_L0] / pow((REAL) lu->LUSOL-
 645:lp_solve_5.5/bfp/bfp_LUSOL/lp_LUSOL.c ****   }
 646:lp_solve_5.5/bfp/bfp_LUSOL/lp_LUSOL.c **** #endif
 647:lp_solve_5.5/bfp/bfp_LUSOL/lp_LUSOL.c **** 
 648:lp_solve_5.5/bfp/bfp_LUSOL/lp_LUSOL.c **** }
 8531               		.loc 3 648 0
 8532 3386 0000      		nop
 8533               	/* epilogue start */
 8534 3388 6096      		adiw r28,16
 8535 338a 0FB6      		in __tmp_reg__,__SREG__
 8536 338c F894      		cli
 8537 338e DEBF      		out __SP_H__,r29
 8538 3390 0FBE      		out __SREG__,__tmp_reg__
 8539 3392 CDBF      		out __SP_L__,r28
 8540 3394 DF91      		pop r29
 8541 3396 CF91      		pop r28
 8542 3398 1F91      		pop r17
 8543 339a 0F91      		pop r16
 8544 339c FF90      		pop r15
 8545 339e EF90      		pop r14
 8546 33a0 DF90      		pop r13
 8547 33a2 CF90      		pop r12
 8548 33a4 BF90      		pop r11
 8549 33a6 AF90      		pop r10
 8550 33a8 9F90      		pop r9
 8551 33aa 8F90      		pop r8
 8552 33ac 7F90      		pop r7
 8553 33ae 6F90      		pop r6
 8554 33b0 5F90      		pop r5
 8555 33b2 4F90      		pop r4
 8556 33b4 3F90      		pop r3
 8557 33b6 2F90      		pop r2
 8558 33b8 0895      		ret
 8559               		.cfi_endproc
 8560               	.LFE46:
 8562               		.section	.rodata
 8563               	.LC18:
 8564 03c6 6266 705F 		.string	"bfp_findredundant: Error %d while loading column %d with %d nz\n"
 8564      6669 6E64 
 8564      7265 6475 
 8564      6E64 616E 
 8564      743A 2045 
 8565               		.text
 8566               	.global	bfp_findredundant
 8568               	bfp_findredundant:
 8569               	.LFB47:
 649:lp_solve_5.5/bfp/bfp_LUSOL/lp_LUSOL.c **** 
 650:lp_solve_5.5/bfp/bfp_LUSOL/lp_LUSOL.c **** /* MUST MODIFY - Routine to find maximum rank of equality constraints */
 651:lp_solve_5.5/bfp/bfp_LUSOL/lp_LUSOL.c **** int BFP_CALLMODEL bfp_findredundant(lprec *lp, int items, getcolumnex_func cb, int *maprow, int *ma
 652:lp_solve_5.5/bfp/bfp_LUSOL/lp_LUSOL.c **** {
 8570               		.loc 3 652 0
 8571               		.cfi_startproc
 8572 33ba EF92      		push r14
 8573               	.LCFI293:
 8574               		.cfi_def_cfa_offset 3
 8575               		.cfi_offset 14, -2
 8576 33bc FF92      		push r15
 8577               	.LCFI294:
 8578               		.cfi_def_cfa_offset 4
 8579               		.cfi_offset 15, -3
 8580 33be 0F93      		push r16
 8581               	.LCFI295:
 8582               		.cfi_def_cfa_offset 5
 8583               		.cfi_offset 16, -4
 8584 33c0 1F93      		push r17
 8585               	.LCFI296:
 8586               		.cfi_def_cfa_offset 6
 8587               		.cfi_offset 17, -5
 8588 33c2 CF93      		push r28
 8589               	.LCFI297:
 8590               		.cfi_def_cfa_offset 7
 8591               		.cfi_offset 28, -6
 8592 33c4 DF93      		push r29
 8593               	.LCFI298:
 8594               		.cfi_def_cfa_offset 8
 8595               		.cfi_offset 29, -7
 8596 33c6 CDB7      		in r28,__SP_L__
 8597 33c8 DEB7      		in r29,__SP_H__
 8598               	.LCFI299:
 8599               		.cfi_def_cfa_register 28
 8600 33ca 6C97      		sbiw r28,28
 8601               	.LCFI300:
 8602               		.cfi_def_cfa_offset 36
 8603 33cc 0FB6      		in __tmp_reg__,__SREG__
 8604 33ce F894      		cli
 8605 33d0 DEBF      		out __SP_H__,r29
 8606 33d2 0FBE      		out __SREG__,__tmp_reg__
 8607 33d4 CDBF      		out __SP_L__,r28
 8608               	/* prologue: function */
 8609               	/* frame size = 28 */
 8610               	/* stack size = 34 */
 8611               	.L__stack_usage = 34
 8612 33d6 9C8B      		std Y+20,r25
 8613 33d8 8B8B      		std Y+19,r24
 8614 33da 7E8B      		std Y+22,r23
 8615 33dc 6D8B      		std Y+21,r22
 8616 33de 588F      		std Y+24,r21
 8617 33e0 4F8B      		std Y+23,r20
 8618 33e2 3A8F      		std Y+26,r19
 8619 33e4 298F      		std Y+25,r18
 8620 33e6 1C8F      		std Y+28,r17
 8621 33e8 0B8F      		std Y+27,r16
 653:lp_solve_5.5/bfp/bfp_LUSOL/lp_LUSOL.c ****   int       i, j, nz = 0, m = 0, n = 0, *nzrows = NULL;
 8622               		.loc 3 653 0
 8623 33ea 1E82      		std Y+6,__zero_reg__
 8624 33ec 1D82      		std Y+5,__zero_reg__
 8625 33ee 1886      		std Y+8,__zero_reg__
 8626 33f0 1F82      		std Y+7,__zero_reg__
 8627 33f2 1A86      		std Y+10,__zero_reg__
 8628 33f4 1986      		std Y+9,__zero_reg__
 8629 33f6 1E86      		std Y+14,__zero_reg__
 8630 33f8 1D86      		std Y+13,__zero_reg__
 654:lp_solve_5.5/bfp/bfp_LUSOL/lp_LUSOL.c ****   REAL      *nzvalues = NULL, *arraymax = NULL;
 8631               		.loc 3 654 0
 8632 33fa 188A      		std Y+16,__zero_reg__
 8633 33fc 1F86      		std Y+15,__zero_reg__
 8634 33fe 1A8A      		std Y+18,__zero_reg__
 8635 3400 198A      		std Y+17,__zero_reg__
 655:lp_solve_5.5/bfp/bfp_LUSOL/lp_LUSOL.c ****   LUSOLrec  *LUSOL;
 656:lp_solve_5.5/bfp/bfp_LUSOL/lp_LUSOL.c **** 
 657:lp_solve_5.5/bfp/bfp_LUSOL/lp_LUSOL.c ****   /* Are we capable of finding redundancy with this BFP? */
 658:lp_solve_5.5/bfp/bfp_LUSOL/lp_LUSOL.c ****   if((maprow == NULL) && (mapcol == NULL))
 8636               		.loc 3 658 0
 8637 3402 898D      		ldd r24,Y+25
 8638 3404 9A8D      		ldd r25,Y+26
 8639 3406 892B      		or r24,r25
 8640 3408 01F4      		brne .L233
 8641               		.loc 3 658 0 is_stmt 0 discriminator 1
 8642 340a 8B8D      		ldd r24,Y+27
 8643 340c 9C8D      		ldd r25,Y+28
 8644 340e 892B      		or r24,r25
 8645 3410 01F4      		brne .L233
 659:lp_solve_5.5/bfp/bfp_LUSOL/lp_LUSOL.c ****     return( n );
 8646               		.loc 3 659 0 is_stmt 1
 8647 3412 8985      		ldd r24,Y+9
 8648 3414 9A85      		ldd r25,Y+10
 8649 3416 00C0      		rjmp .L255
 8650               	.L233:
 660:lp_solve_5.5/bfp/bfp_LUSOL/lp_LUSOL.c **** 
 661:lp_solve_5.5/bfp/bfp_LUSOL/lp_LUSOL.c ****   /* If so, initialize memory structures */
 662:lp_solve_5.5/bfp/bfp_LUSOL/lp_LUSOL.c ****   if(!allocINT(lp, &nzrows, items, FALSE) ||
 8651               		.loc 3 662 0
 8652 3418 4D89      		ldd r20,Y+21
 8653 341a 5E89      		ldd r21,Y+22
 8654 341c BE01      		movw r22,r28
 8655 341e 635F      		subi r22,-13
 8656 3420 7F4F      		sbci r23,-1
 8657 3422 8B89      		ldd r24,Y+19
 8658 3424 9C89      		ldd r25,Y+20
 8659 3426 20E0      		ldi r18,0
 8660 3428 0E94 0000 		call allocINT
 8661 342c 8823      		tst r24
 8662 342e 01F0      		breq .L235
 663:lp_solve_5.5/bfp/bfp_LUSOL/lp_LUSOL.c ****      !allocREAL(lp, &nzvalues, items, FALSE))
 8663               		.loc 3 663 0 discriminator 1
 8664 3430 4D89      		ldd r20,Y+21
 8665 3432 5E89      		ldd r21,Y+22
 8666 3434 BE01      		movw r22,r28
 8667 3436 615F      		subi r22,-15
 8668 3438 7F4F      		sbci r23,-1
 8669 343a 8B89      		ldd r24,Y+19
 8670 343c 9C89      		ldd r25,Y+20
 8671 343e 20E0      		ldi r18,0
 8672 3440 0E94 0000 		call allocREAL
 662:lp_solve_5.5/bfp/bfp_LUSOL/lp_LUSOL.c ****      !allocREAL(lp, &nzvalues, items, FALSE))
 8673               		.loc 3 662 0 discriminator 1
 8674 3444 8823      		tst r24
 8675 3446 01F4      		brne .L236
 8676               	.L235:
 664:lp_solve_5.5/bfp/bfp_LUSOL/lp_LUSOL.c ****     return( n );
 8677               		.loc 3 664 0
 8678 3448 8985      		ldd r24,Y+9
 8679 344a 9A85      		ldd r25,Y+10
 8680 344c 00C0      		rjmp .L255
 8681               	.L236:
 665:lp_solve_5.5/bfp/bfp_LUSOL/lp_LUSOL.c **** 
 666:lp_solve_5.5/bfp/bfp_LUSOL/lp_LUSOL.c ****   /* Compute the number of non-empty columns */
 667:lp_solve_5.5/bfp/bfp_LUSOL/lp_LUSOL.c ****   m = 0;
 8682               		.loc 3 667 0
 8683 344e 1886      		std Y+8,__zero_reg__
 8684 3450 1F82      		std Y+7,__zero_reg__
 668:lp_solve_5.5/bfp/bfp_LUSOL/lp_LUSOL.c ****   for(j = 1; j <= mapcol[0]; j++) {
 8685               		.loc 3 668 0
 8686 3452 81E0      		ldi r24,lo8(1)
 8687 3454 90E0      		ldi r25,0
 8688 3456 9C83      		std Y+4,r25
 8689 3458 8B83      		std Y+3,r24
 8690 345a 00C0      		rjmp .L237
 8691               	.L239:
 669:lp_solve_5.5/bfp/bfp_LUSOL/lp_LUSOL.c ****     n = cb(lp, mapcol[j], NULL, NULL, maprow);
 8692               		.loc 3 669 0
 8693 345c 8B81      		ldd r24,Y+3
 8694 345e 9C81      		ldd r25,Y+4
 8695 3460 880F      		lsl r24
 8696 3462 991F      		rol r25
 8697 3464 2B8D      		ldd r18,Y+27
 8698 3466 3C8D      		ldd r19,Y+28
 8699 3468 820F      		add r24,r18
 8700 346a 931F      		adc r25,r19
 8701 346c FC01      		movw r30,r24
 8702 346e 6081      		ld r22,Z
 8703 3470 7181      		ldd r23,Z+1
 8704 3472 298D      		ldd r18,Y+25
 8705 3474 3A8D      		ldd r19,Y+26
 8706 3476 8B89      		ldd r24,Y+19
 8707 3478 9C89      		ldd r25,Y+20
 8708 347a EF89      		ldd r30,Y+23
 8709 347c F88D      		ldd r31,Y+24
 8710 347e 8901      		movw r16,r18
 8711 3480 20E0      		ldi r18,0
 8712 3482 30E0      		ldi r19,0
 8713 3484 40E0      		ldi r20,0
 8714 3486 50E0      		ldi r21,0
 8715 3488 0995      		icall
 8716 348a 9A87      		std Y+10,r25
 8717 348c 8987      		std Y+9,r24
 670:lp_solve_5.5/bfp/bfp_LUSOL/lp_LUSOL.c ****     if(n > 0) {
 8718               		.loc 3 670 0
 8719 348e 8985      		ldd r24,Y+9
 8720 3490 9A85      		ldd r25,Y+10
 8721 3492 1816      		cp __zero_reg__,r24
 8722 3494 1906      		cpc __zero_reg__,r25
 8723 3496 04F4      		brge .L238
 671:lp_solve_5.5/bfp/bfp_LUSOL/lp_LUSOL.c ****       m++;
 8724               		.loc 3 671 0
 8725 3498 8F81      		ldd r24,Y+7
 8726 349a 9885      		ldd r25,Y+8
 8727 349c 0196      		adiw r24,1
 8728 349e 9887      		std Y+8,r25
 8729 34a0 8F83      		std Y+7,r24
 672:lp_solve_5.5/bfp/bfp_LUSOL/lp_LUSOL.c ****       mapcol[m] = mapcol[j];
 8730               		.loc 3 672 0
 8731 34a2 8F81      		ldd r24,Y+7
 8732 34a4 9885      		ldd r25,Y+8
 8733 34a6 880F      		lsl r24
 8734 34a8 991F      		rol r25
 8735 34aa 2B8D      		ldd r18,Y+27
 8736 34ac 3C8D      		ldd r19,Y+28
 8737 34ae 820F      		add r24,r18
 8738 34b0 931F      		adc r25,r19
 8739 34b2 2B81      		ldd r18,Y+3
 8740 34b4 3C81      		ldd r19,Y+4
 8741 34b6 220F      		lsl r18
 8742 34b8 331F      		rol r19
 8743 34ba 4B8D      		ldd r20,Y+27
 8744 34bc 5C8D      		ldd r21,Y+28
 8745 34be 240F      		add r18,r20
 8746 34c0 351F      		adc r19,r21
 8747 34c2 F901      		movw r30,r18
 8748 34c4 2081      		ld r18,Z
 8749 34c6 3181      		ldd r19,Z+1
 8750 34c8 FC01      		movw r30,r24
 8751 34ca 3183      		std Z+1,r19
 8752 34cc 2083      		st Z,r18
 673:lp_solve_5.5/bfp/bfp_LUSOL/lp_LUSOL.c ****       nz += n;
 8753               		.loc 3 673 0
 8754 34ce 2D81      		ldd r18,Y+5
 8755 34d0 3E81      		ldd r19,Y+6
 8756 34d2 8985      		ldd r24,Y+9
 8757 34d4 9A85      		ldd r25,Y+10
 8758 34d6 820F      		add r24,r18
 8759 34d8 931F      		adc r25,r19
 8760 34da 9E83      		std Y+6,r25
 8761 34dc 8D83      		std Y+5,r24
 8762               	.L238:
 668:lp_solve_5.5/bfp/bfp_LUSOL/lp_LUSOL.c ****     n = cb(lp, mapcol[j], NULL, NULL, maprow);
 8763               		.loc 3 668 0 discriminator 2
 8764 34de 8B81      		ldd r24,Y+3
 8765 34e0 9C81      		ldd r25,Y+4
 8766 34e2 0196      		adiw r24,1
 8767 34e4 9C83      		std Y+4,r25
 8768 34e6 8B83      		std Y+3,r24
 8769               	.L237:
 668:lp_solve_5.5/bfp/bfp_LUSOL/lp_LUSOL.c ****     n = cb(lp, mapcol[j], NULL, NULL, maprow);
 8770               		.loc 3 668 0 is_stmt 0 discriminator 1
 8771 34e8 8B8D      		ldd r24,Y+27
 8772 34ea 9C8D      		ldd r25,Y+28
 8773 34ec FC01      		movw r30,r24
 8774 34ee 2081      		ld r18,Z
 8775 34f0 3181      		ldd r19,Z+1
 8776 34f2 8B81      		ldd r24,Y+3
 8777 34f4 9C81      		ldd r25,Y+4
 8778 34f6 2817      		cp r18,r24
 8779 34f8 3907      		cpc r19,r25
 8780 34fa 04F0      		brlt .+2
 8781 34fc 00C0      		rjmp .L239
 674:lp_solve_5.5/bfp/bfp_LUSOL/lp_LUSOL.c ****     }
 675:lp_solve_5.5/bfp/bfp_LUSOL/lp_LUSOL.c ****   }
 676:lp_solve_5.5/bfp/bfp_LUSOL/lp_LUSOL.c ****   mapcol[0] = m;
 8782               		.loc 3 676 0 is_stmt 1
 8783 34fe 8B8D      		ldd r24,Y+27
 8784 3500 9C8D      		ldd r25,Y+28
 8785 3502 2F81      		ldd r18,Y+7
 8786 3504 3885      		ldd r19,Y+8
 8787 3506 FC01      		movw r30,r24
 8788 3508 3183      		std Z+1,r19
 8789 350a 2083      		st Z,r18
 677:lp_solve_5.5/bfp/bfp_LUSOL/lp_LUSOL.c **** 
 678:lp_solve_5.5/bfp/bfp_LUSOL/lp_LUSOL.c ****   /* Instantiate a LUSOL object */
 679:lp_solve_5.5/bfp/bfp_LUSOL/lp_LUSOL.c ****   LUSOL = LUSOL_create(NULL, 0, LUSOL_PIVMOD_TRP, 0);
 8790               		.loc 3 679 0
 8791 350c 20E0      		ldi r18,0
 8792 350e 30E0      		ldi r19,0
 8793 3510 41E0      		ldi r20,lo8(1)
 8794 3512 50E0      		ldi r21,0
 8795 3514 60E0      		ldi r22,0
 8796 3516 70E0      		ldi r23,0
 8797 3518 80E0      		ldi r24,0
 8798 351a 90E0      		ldi r25,0
 8799 351c 0E94 0000 		call LUSOL_create
 8800 3520 9C87      		std Y+12,r25
 8801 3522 8B87      		std Y+11,r24
 680:lp_solve_5.5/bfp/bfp_LUSOL/lp_LUSOL.c ****   if((LUSOL == NULL) || !LUSOL_sizeto(LUSOL, items, m, nz*LUSOL_MULT_nz_a))
 8802               		.loc 3 680 0
 8803 3524 8B85      		ldd r24,Y+11
 8804 3526 9C85      		ldd r25,Y+12
 8805 3528 892B      		or r24,r25
 8806 352a 01F4      		brne .+2
 8807 352c 00C0      		rjmp .L240
 8808               		.loc 3 680 0 is_stmt 0 discriminator 1
 8809 352e 8D81      		ldd r24,Y+5
 8810 3530 9E81      		ldd r25,Y+6
 8811 3532 9C01      		movw r18,r24
 8812 3534 220F      		lsl r18
 8813 3536 331F      		rol r19
 8814 3538 4F81      		ldd r20,Y+7
 8815 353a 5885      		ldd r21,Y+8
 8816 353c 6D89      		ldd r22,Y+21
 8817 353e 7E89      		ldd r23,Y+22
 8818 3540 8B85      		ldd r24,Y+11
 8819 3542 9C85      		ldd r25,Y+12
 8820 3544 0E94 0000 		call LUSOL_sizeto
 8821 3548 8823      		tst r24
 8822 354a 01F4      		brne .+2
 8823 354c 00C0      		rjmp .L240
 681:lp_solve_5.5/bfp/bfp_LUSOL/lp_LUSOL.c ****     goto Finish;
 682:lp_solve_5.5/bfp/bfp_LUSOL/lp_LUSOL.c **** 
 683:lp_solve_5.5/bfp/bfp_LUSOL/lp_LUSOL.c ****   /* Modify relevant LUSOL parameters */
 684:lp_solve_5.5/bfp/bfp_LUSOL/lp_LUSOL.c ****   LUSOL->m = items;
 8824               		.loc 3 684 0 is_stmt 1
 8825 354e 8B85      		ldd r24,Y+11
 8826 3550 9C85      		ldd r25,Y+12
 8827 3552 8655      		subi r24,86
 8828 3554 9F4F      		sbci r25,-1
 8829 3556 2D89      		ldd r18,Y+21
 8830 3558 3E89      		ldd r19,Y+22
 8831 355a FC01      		movw r30,r24
 8832 355c 3183      		std Z+1,r19
 8833 355e 2083      		st Z,r18
 685:lp_solve_5.5/bfp/bfp_LUSOL/lp_LUSOL.c ****   LUSOL->n = m;
 8834               		.loc 3 685 0
 8835 3560 8B85      		ldd r24,Y+11
 8836 3562 9C85      		ldd r25,Y+12
 8837 3564 8854      		subi r24,72
 8838 3566 9F4F      		sbci r25,-1
 8839 3568 2F81      		ldd r18,Y+7
 8840 356a 3885      		ldd r19,Y+8
 8841 356c FC01      		movw r30,r24
 8842 356e 3183      		std Z+1,r19
 8843 3570 2083      		st Z,r18
 686:lp_solve_5.5/bfp/bfp_LUSOL/lp_LUSOL.c **** #if 0
 687:lp_solve_5.5/bfp/bfp_LUSOL/lp_LUSOL.c ****   LUSOL->luparm[LUSOL_IP_KEEPLU]        = FALSE;
 688:lp_solve_5.5/bfp/bfp_LUSOL/lp_LUSOL.c ****   LUSOL->luparm[LUSOL_IP_PIVOTTYPE]     = LUSOL_PIVMOD_TRP;
 689:lp_solve_5.5/bfp/bfp_LUSOL/lp_LUSOL.c ****   LUSOL->parmlu[LUSOL_RP_FACTORMAX_Lij] = 2.0;
 690:lp_solve_5.5/bfp/bfp_LUSOL/lp_LUSOL.c **** #endif
 691:lp_solve_5.5/bfp/bfp_LUSOL/lp_LUSOL.c **** 
 692:lp_solve_5.5/bfp/bfp_LUSOL/lp_LUSOL.c ****   /* Load the columns into LUSOL */
 693:lp_solve_5.5/bfp/bfp_LUSOL/lp_LUSOL.c ****   for(j = 1; j <= m; j++) {
 8844               		.loc 3 693 0
 8845 3572 81E0      		ldi r24,lo8(1)
 8846 3574 90E0      		ldi r25,0
 8847 3576 9C83      		std Y+4,r25
 8848 3578 8B83      		std Y+3,r24
 8849 357a 00C0      		rjmp .L241
 8850               	.L243:
 694:lp_solve_5.5/bfp/bfp_LUSOL/lp_LUSOL.c ****     n = cb(lp, mapcol[j], nzvalues, nzrows, maprow);
 8851               		.loc 3 694 0
 8852 357c AD85      		ldd r26,Y+13
 8853 357e BE85      		ldd r27,Y+14
 8854 3580 4F85      		ldd r20,Y+15
 8855 3582 5889      		ldd r21,Y+16
 8856 3584 8B81      		ldd r24,Y+3
 8857 3586 9C81      		ldd r25,Y+4
 8858 3588 880F      		lsl r24
 8859 358a 991F      		rol r25
 8860 358c 2B8D      		ldd r18,Y+27
 8861 358e 3C8D      		ldd r19,Y+28
 8862 3590 820F      		add r24,r18
 8863 3592 931F      		adc r25,r19
 8864 3594 FC01      		movw r30,r24
 8865 3596 6081      		ld r22,Z
 8866 3598 7181      		ldd r23,Z+1
 8867 359a 298D      		ldd r18,Y+25
 8868 359c 3A8D      		ldd r19,Y+26
 8869 359e 8B89      		ldd r24,Y+19
 8870 35a0 9C89      		ldd r25,Y+20
 8871 35a2 EF89      		ldd r30,Y+23
 8872 35a4 F88D      		ldd r31,Y+24
 8873 35a6 8901      		movw r16,r18
 8874 35a8 9D01      		movw r18,r26
 8875 35aa 0995      		icall
 8876 35ac 9A87      		std Y+10,r25
 8877 35ae 8987      		std Y+9,r24
 695:lp_solve_5.5/bfp/bfp_LUSOL/lp_LUSOL.c ****     i = LUSOL_loadColumn(LUSOL, nzrows, j, nzvalues, n, -1);
 8878               		.loc 3 695 0
 8879 35b0 2F85      		ldd r18,Y+15
 8880 35b2 3889      		ldd r19,Y+16
 8881 35b4 6D85      		ldd r22,Y+13
 8882 35b6 7E85      		ldd r23,Y+14
 8883 35b8 E985      		ldd r30,Y+9
 8884 35ba FA85      		ldd r31,Y+10
 8885 35bc 4B81      		ldd r20,Y+3
 8886 35be 5C81      		ldd r21,Y+4
 8887 35c0 8B85      		ldd r24,Y+11
 8888 35c2 9C85      		ldd r25,Y+12
 8889 35c4 EE24      		clr r14
 8890 35c6 EA94      		dec r14
 8891 35c8 FE2C      		mov r15,r14
 8892 35ca 8F01      		movw r16,r30
 8893 35cc 0E94 0000 		call LUSOL_loadColumn
 8894 35d0 9A83      		std Y+2,r25
 8895 35d2 8983      		std Y+1,r24
 696:lp_solve_5.5/bfp/bfp_LUSOL/lp_LUSOL.c ****     if(n != i) {
 8896               		.loc 3 696 0
 8897 35d4 2985      		ldd r18,Y+9
 8898 35d6 3A85      		ldd r19,Y+10
 8899 35d8 8981      		ldd r24,Y+1
 8900 35da 9A81      		ldd r25,Y+2
 8901 35dc 2817      		cp r18,r24
 8902 35de 3907      		cpc r19,r25
 8903 35e0 01F0      		breq .L242
 697:lp_solve_5.5/bfp/bfp_LUSOL/lp_LUSOL.c ****       lp->report(lp, IMPORTANT, "bfp_findredundant: Error %d while loading column %d with %d nz\n",
 8904               		.loc 3 697 0
 8905 35e2 8B89      		ldd r24,Y+19
 8906 35e4 9C89      		ldd r25,Y+20
 8907 35e6 8E51      		subi r24,30
 8908 35e8 9C4F      		sbci r25,-4
 8909 35ea FC01      		movw r30,r24
 8910 35ec 8081      		ld r24,Z
 8911 35ee 9181      		ldd r25,Z+1
 8912 35f0 2A85      		ldd r18,Y+10
 8913 35f2 2F93      		push r18
 8914 35f4 2985      		ldd r18,Y+9
 8915 35f6 2F93      		push r18
 8916 35f8 2C81      		ldd r18,Y+4
 8917 35fa 2F93      		push r18
 8918 35fc 2B81      		ldd r18,Y+3
 8919 35fe 2F93      		push r18
 8920 3600 2A81      		ldd r18,Y+2
 8921 3602 2F93      		push r18
 8922 3604 2981      		ldd r18,Y+1
 8923 3606 2F93      		push r18
 8924 3608 20E0      		ldi r18,lo8(.LC18)
 8925 360a 30E0      		ldi r19,hi8(.LC18)
 8926 360c 232F      		mov r18,r19
 8927 360e 2F93      		push r18
 8928 3610 20E0      		ldi r18,lo8(.LC18)
 8929 3612 30E0      		ldi r19,hi8(.LC18)
 8930 3614 2F93      		push r18
 8931 3616 1F92      		push __zero_reg__
 8932 3618 23E0      		ldi r18,lo8(3)
 8933 361a 2F93      		push r18
 8934 361c 2C89      		ldd r18,Y+20
 8935 361e 2F93      		push r18
 8936 3620 2B89      		ldd r18,Y+19
 8937 3622 2F93      		push r18
 8938 3624 FC01      		movw r30,r24
 8939 3626 0995      		icall
 8940 3628 8DB7      		in r24,__SP_L__
 8941 362a 9EB7      		in r25,__SP_H__
 8942 362c 0C96      		adiw r24,12
 8943 362e 0FB6      		in __tmp_reg__,__SREG__
 8944 3630 F894      		cli
 8945 3632 DEBF      		out __SP_H__,r29
 8946 3634 0FBE      		out __SREG__,__tmp_reg__
 8947 3636 CDBF      		out __SP_L__,r28
 698:lp_solve_5.5/bfp/bfp_LUSOL/lp_LUSOL.c ****                                 i, j, n);
 699:lp_solve_5.5/bfp/bfp_LUSOL/lp_LUSOL.c ****       n = 0;
 8948               		.loc 3 699 0
 8949 3638 1A86      		std Y+10,__zero_reg__
 8950 363a 1986      		std Y+9,__zero_reg__
 700:lp_solve_5.5/bfp/bfp_LUSOL/lp_LUSOL.c ****       goto Finish;
 8951               		.loc 3 700 0
 8952 363c 00C0      		rjmp .L240
 8953               	.L242:
 693:lp_solve_5.5/bfp/bfp_LUSOL/lp_LUSOL.c ****     n = cb(lp, mapcol[j], nzvalues, nzrows, maprow);
 8954               		.loc 3 693 0 discriminator 2
 8955 363e 8B81      		ldd r24,Y+3
 8956 3640 9C81      		ldd r25,Y+4
 8957 3642 0196      		adiw r24,1
 8958 3644 9C83      		std Y+4,r25
 8959 3646 8B83      		std Y+3,r24
 8960               	.L241:
 693:lp_solve_5.5/bfp/bfp_LUSOL/lp_LUSOL.c ****     n = cb(lp, mapcol[j], nzvalues, nzrows, maprow);
 8961               		.loc 3 693 0 is_stmt 0 discriminator 1
 8962 3648 2B81      		ldd r18,Y+3
 8963 364a 3C81      		ldd r19,Y+4
 8964 364c 8F81      		ldd r24,Y+7
 8965 364e 9885      		ldd r25,Y+8
 8966 3650 8217      		cp r24,r18
 8967 3652 9307      		cpc r25,r19
 8968 3654 04F0      		brlt .+2
 8969 3656 00C0      		rjmp .L243
 701:lp_solve_5.5/bfp/bfp_LUSOL/lp_LUSOL.c ****     }
 702:lp_solve_5.5/bfp/bfp_LUSOL/lp_LUSOL.c ****   }
 703:lp_solve_5.5/bfp/bfp_LUSOL/lp_LUSOL.c **** 
 704:lp_solve_5.5/bfp/bfp_LUSOL/lp_LUSOL.c ****   /* Scale rows to prevent numerical problems */
 705:lp_solve_5.5/bfp/bfp_LUSOL/lp_LUSOL.c ****   if((lp->scalemode != SCALE_NONE) && allocREAL(lp, &arraymax, items+1, TRUE)) {
 8970               		.loc 3 705 0 is_stmt 1
 8971 3658 8B89      		ldd r24,Y+19
 8972 365a 9C89      		ldd r25,Y+20
 8973 365c 8259      		subi r24,-110
 8974 365e 9D4F      		sbci r25,-3
 8975 3660 FC01      		movw r30,r24
 8976 3662 8081      		ld r24,Z
 8977 3664 9181      		ldd r25,Z+1
 8978 3666 892B      		or r24,r25
 8979 3668 01F4      		brne .+2
 8980 366a 00C0      		rjmp .L244
 8981               		.loc 3 705 0 is_stmt 0 discriminator 1
 8982 366c 8D89      		ldd r24,Y+21
 8983 366e 9E89      		ldd r25,Y+22
 8984 3670 AC01      		movw r20,r24
 8985 3672 4F5F      		subi r20,-1
 8986 3674 5F4F      		sbci r21,-1
 8987 3676 BE01      		movw r22,r28
 8988 3678 6F5E      		subi r22,-17
 8989 367a 7F4F      		sbci r23,-1
 8990 367c 8B89      		ldd r24,Y+19
 8991 367e 9C89      		ldd r25,Y+20
 8992 3680 21E0      		ldi r18,lo8(1)
 8993 3682 0E94 0000 		call allocREAL
 8994 3686 8823      		tst r24
 8995 3688 01F4      		brne .+2
 8996 368a 00C0      		rjmp .L244
 706:lp_solve_5.5/bfp/bfp_LUSOL/lp_LUSOL.c ****     for(i = 1; i <= nz; i++) {
 8997               		.loc 3 706 0 is_stmt 1
 8998 368c 81E0      		ldi r24,lo8(1)
 8999 368e 90E0      		ldi r25,0
 9000 3690 9A83      		std Y+2,r25
 9001 3692 8983      		std Y+1,r24
 9002 3694 00C0      		rjmp .L245
 9003               	.L248:
 707:lp_solve_5.5/bfp/bfp_LUSOL/lp_LUSOL.c ****       SETMAX(arraymax[LUSOL->indc[i]], fabs(LUSOL->a[i]));
 9004               		.loc 3 707 0
 9005 3696 2989      		ldd r18,Y+17
 9006 3698 3A89      		ldd r19,Y+18
 9007 369a 8B85      		ldd r24,Y+11
 9008 369c 9C85      		ldd r25,Y+12
 9009 369e 8E55      		subi r24,94
 9010 36a0 9F4F      		sbci r25,-1
 9011 36a2 FC01      		movw r30,r24
 9012 36a4 4081      		ld r20,Z
 9013 36a6 5181      		ldd r21,Z+1
 9014 36a8 8981      		ldd r24,Y+1
 9015 36aa 9A81      		ldd r25,Y+2
 9016 36ac 880F      		lsl r24
 9017 36ae 991F      		rol r25
 9018 36b0 840F      		add r24,r20
 9019 36b2 951F      		adc r25,r21
 9020 36b4 FC01      		movw r30,r24
 9021 36b6 8081      		ld r24,Z
 9022 36b8 9181      		ldd r25,Z+1
 9023 36ba 880F      		lsl r24
 9024 36bc 991F      		rol r25
 9025 36be 880F      		lsl r24
 9026 36c0 991F      		rol r25
 9027 36c2 820F      		add r24,r18
 9028 36c4 931F      		adc r25,r19
 9029 36c6 FC01      		movw r30,r24
 9030 36c8 E080      		ld r14,Z
 9031 36ca F180      		ldd r15,Z+1
 9032 36cc 0281      		ldd r16,Z+2
 9033 36ce 1381      		ldd r17,Z+3
 9034 36d0 8B85      		ldd r24,Y+11
 9035 36d2 9C85      		ldd r25,Y+12
 9036 36d4 8A55      		subi r24,90
 9037 36d6 9F4F      		sbci r25,-1
 9038 36d8 FC01      		movw r30,r24
 9039 36da 2081      		ld r18,Z
 9040 36dc 3181      		ldd r19,Z+1
 9041 36de 8981      		ldd r24,Y+1
 9042 36e0 9A81      		ldd r25,Y+2
 9043 36e2 880F      		lsl r24
 9044 36e4 991F      		rol r25
 9045 36e6 880F      		lsl r24
 9046 36e8 991F      		rol r25
 9047 36ea 820F      		add r24,r18
 9048 36ec 931F      		adc r25,r19
 9049 36ee FC01      		movw r30,r24
 9050 36f0 8081      		ld r24,Z
 9051 36f2 9181      		ldd r25,Z+1
 9052 36f4 A281      		ldd r26,Z+2
 9053 36f6 B381      		ldd r27,Z+3
 9054 36f8 BF77      		andi r27,0x7f
 9055 36fa 9C01      		movw r18,r24
 9056 36fc AD01      		movw r20,r26
 9057 36fe C801      		movw r24,r16
 9058 3700 B701      		movw r22,r14
 9059 3702 0E94 0000 		call __ltsf2
 9060 3706 8823      		tst r24
 9061 3708 04F4      		brge .L246
 9062               		.loc 3 707 0 is_stmt 0 discriminator 1
 9063 370a 2989      		ldd r18,Y+17
 9064 370c 3A89      		ldd r19,Y+18
 9065 370e 8B85      		ldd r24,Y+11
 9066 3710 9C85      		ldd r25,Y+12
 9067 3712 8E55      		subi r24,94
 9068 3714 9F4F      		sbci r25,-1
 9069 3716 FC01      		movw r30,r24
 9070 3718 4081      		ld r20,Z
 9071 371a 5181      		ldd r21,Z+1
 9072 371c 8981      		ldd r24,Y+1
 9073 371e 9A81      		ldd r25,Y+2
 9074 3720 880F      		lsl r24
 9075 3722 991F      		rol r25
 9076 3724 840F      		add r24,r20
 9077 3726 951F      		adc r25,r21
 9078 3728 FC01      		movw r30,r24
 9079 372a 8081      		ld r24,Z
 9080 372c 9181      		ldd r25,Z+1
 9081 372e 880F      		lsl r24
 9082 3730 991F      		rol r25
 9083 3732 880F      		lsl r24
 9084 3734 991F      		rol r25
 9085 3736 280F      		add r18,r24
 9086 3738 391F      		adc r19,r25
 9087 373a 8B85      		ldd r24,Y+11
 9088 373c 9C85      		ldd r25,Y+12
 9089 373e 8A55      		subi r24,90
 9090 3740 9F4F      		sbci r25,-1
 9091 3742 FC01      		movw r30,r24
 9092 3744 4081      		ld r20,Z
 9093 3746 5181      		ldd r21,Z+1
 9094 3748 8981      		ldd r24,Y+1
 9095 374a 9A81      		ldd r25,Y+2
 9096 374c 880F      		lsl r24
 9097 374e 991F      		rol r25
 9098 3750 880F      		lsl r24
 9099 3752 991F      		rol r25
 9100 3754 840F      		add r24,r20
 9101 3756 951F      		adc r25,r21
 9102 3758 FC01      		movw r30,r24
 9103 375a 8081      		ld r24,Z
 9104 375c 9181      		ldd r25,Z+1
 9105 375e A281      		ldd r26,Z+2
 9106 3760 B381      		ldd r27,Z+3
 9107 3762 BF77      		andi r27,0x7f
 9108 3764 F901      		movw r30,r18
 9109 3766 8083      		st Z,r24
 9110 3768 9183      		std Z+1,r25
 9111 376a A283      		std Z+2,r26
 9112 376c B383      		std Z+3,r27
 9113               	.L246:
 706:lp_solve_5.5/bfp/bfp_LUSOL/lp_LUSOL.c ****     for(i = 1; i <= nz; i++) {
 9114               		.loc 3 706 0 is_stmt 1 discriminator 2
 9115 376e 8981      		ldd r24,Y+1
 9116 3770 9A81      		ldd r25,Y+2
 9117 3772 0196      		adiw r24,1
 9118 3774 9A83      		std Y+2,r25
 9119 3776 8983      		std Y+1,r24
 9120               	.L245:
 706:lp_solve_5.5/bfp/bfp_LUSOL/lp_LUSOL.c ****     for(i = 1; i <= nz; i++) {
 9121               		.loc 3 706 0 is_stmt 0 discriminator 1
 9122 3778 2981      		ldd r18,Y+1
 9123 377a 3A81      		ldd r19,Y+2
 9124 377c 8D81      		ldd r24,Y+5
 9125 377e 9E81      		ldd r25,Y+6
 9126 3780 8217      		cp r24,r18
 9127 3782 9307      		cpc r25,r19
 9128 3784 04F0      		brlt .+2
 9129 3786 00C0      		rjmp .L248
 708:lp_solve_5.5/bfp/bfp_LUSOL/lp_LUSOL.c ****     }
 709:lp_solve_5.5/bfp/bfp_LUSOL/lp_LUSOL.c ****     for(i = 1; i <= nz; i++)
 9130               		.loc 3 709 0 is_stmt 1
 9131 3788 81E0      		ldi r24,lo8(1)
 9132 378a 90E0      		ldi r25,0
 9133 378c 9A83      		std Y+2,r25
 9134 378e 8983      		std Y+1,r24
 9135 3790 00C0      		rjmp .L249
 9136               	.L250:
 710:lp_solve_5.5/bfp/bfp_LUSOL/lp_LUSOL.c ****       LUSOL->a[i] /= arraymax[LUSOL->indc[i]];
 9137               		.loc 3 710 0 discriminator 3
 9138 3792 8B85      		ldd r24,Y+11
 9139 3794 9C85      		ldd r25,Y+12
 9140 3796 8A55      		subi r24,90
 9141 3798 9F4F      		sbci r25,-1
 9142 379a FC01      		movw r30,r24
 9143 379c 2081      		ld r18,Z
 9144 379e 3181      		ldd r19,Z+1
 9145 37a0 8981      		ldd r24,Y+1
 9146 37a2 9A81      		ldd r25,Y+2
 9147 37a4 880F      		lsl r24
 9148 37a6 991F      		rol r25
 9149 37a8 880F      		lsl r24
 9150 37aa 991F      		rol r25
 9151 37ac 8901      		movw r16,r18
 9152 37ae 080F      		add r16,r24
 9153 37b0 191F      		adc r17,r25
 9154 37b2 8B85      		ldd r24,Y+11
 9155 37b4 9C85      		ldd r25,Y+12
 9156 37b6 8A55      		subi r24,90
 9157 37b8 9F4F      		sbci r25,-1
 9158 37ba FC01      		movw r30,r24
 9159 37bc 2081      		ld r18,Z
 9160 37be 3181      		ldd r19,Z+1
 9161 37c0 8981      		ldd r24,Y+1
 9162 37c2 9A81      		ldd r25,Y+2
 9163 37c4 880F      		lsl r24
 9164 37c6 991F      		rol r25
 9165 37c8 880F      		lsl r24
 9166 37ca 991F      		rol r25
 9167 37cc 820F      		add r24,r18
 9168 37ce 931F      		adc r25,r19
 9169 37d0 FC01      		movw r30,r24
 9170 37d2 8081      		ld r24,Z
 9171 37d4 9181      		ldd r25,Z+1
 9172 37d6 A281      		ldd r26,Z+2
 9173 37d8 B381      		ldd r27,Z+3
 9174 37da 4989      		ldd r20,Y+17
 9175 37dc 5A89      		ldd r21,Y+18
 9176 37de 2B85      		ldd r18,Y+11
 9177 37e0 3C85      		ldd r19,Y+12
 9178 37e2 2E55      		subi r18,94
 9179 37e4 3F4F      		sbci r19,-1
 9180 37e6 F901      		movw r30,r18
 9181 37e8 6081      		ld r22,Z
 9182 37ea 7181      		ldd r23,Z+1
 9183 37ec 2981      		ldd r18,Y+1
 9184 37ee 3A81      		ldd r19,Y+2
 9185 37f0 220F      		lsl r18
 9186 37f2 331F      		rol r19
 9187 37f4 260F      		add r18,r22
 9188 37f6 371F      		adc r19,r23
 9189 37f8 F901      		movw r30,r18
 9190 37fa 2081      		ld r18,Z
 9191 37fc 3181      		ldd r19,Z+1
 9192 37fe 220F      		lsl r18
 9193 3800 331F      		rol r19
 9194 3802 220F      		lsl r18
 9195 3804 331F      		rol r19
 9196 3806 240F      		add r18,r20
 9197 3808 351F      		adc r19,r21
 9198 380a F901      		movw r30,r18
 9199 380c 2081      		ld r18,Z
 9200 380e 3181      		ldd r19,Z+1
 9201 3810 4281      		ldd r20,Z+2
 9202 3812 5381      		ldd r21,Z+3
 9203 3814 BC01      		movw r22,r24
 9204 3816 CD01      		movw r24,r26
 9205 3818 0E94 0000 		call __divsf3
 9206 381c DC01      		movw r26,r24
 9207 381e CB01      		movw r24,r22
 9208 3820 F801      		movw r30,r16
 9209 3822 8083      		st Z,r24
 9210 3824 9183      		std Z+1,r25
 9211 3826 A283      		std Z+2,r26
 9212 3828 B383      		std Z+3,r27
 709:lp_solve_5.5/bfp/bfp_LUSOL/lp_LUSOL.c ****       LUSOL->a[i] /= arraymax[LUSOL->indc[i]];
 9213               		.loc 3 709 0 discriminator 3
 9214 382a 8981      		ldd r24,Y+1
 9215 382c 9A81      		ldd r25,Y+2
 9216 382e 0196      		adiw r24,1
 9217 3830 9A83      		std Y+2,r25
 9218 3832 8983      		std Y+1,r24
 9219               	.L249:
 709:lp_solve_5.5/bfp/bfp_LUSOL/lp_LUSOL.c ****       LUSOL->a[i] /= arraymax[LUSOL->indc[i]];
 9220               		.loc 3 709 0 is_stmt 0 discriminator 1
 9221 3834 2981      		ldd r18,Y+1
 9222 3836 3A81      		ldd r19,Y+2
 9223 3838 8D81      		ldd r24,Y+5
 9224 383a 9E81      		ldd r25,Y+6
 9225 383c 8217      		cp r24,r18
 9226 383e 9307      		cpc r25,r19
 9227 3840 04F0      		brlt .+2
 9228 3842 00C0      		rjmp .L250
 711:lp_solve_5.5/bfp/bfp_LUSOL/lp_LUSOL.c ****     FREE(arraymax);
 9229               		.loc 3 711 0 is_stmt 1
 9230 3844 8989      		ldd r24,Y+17
 9231 3846 9A89      		ldd r25,Y+18
 9232 3848 892B      		or r24,r25
 9233 384a 01F0      		breq .L244
 9234               		.loc 3 711 0 is_stmt 0 discriminator 1
 9235 384c 8989      		ldd r24,Y+17
 9236 384e 9A89      		ldd r25,Y+18
 9237 3850 0E94 0000 		call free
 9238 3854 1A8A      		std Y+18,__zero_reg__
 9239 3856 198A      		std Y+17,__zero_reg__
 9240               	.L244:
 712:lp_solve_5.5/bfp/bfp_LUSOL/lp_LUSOL.c ****   }
 713:lp_solve_5.5/bfp/bfp_LUSOL/lp_LUSOL.c **** 
 714:lp_solve_5.5/bfp/bfp_LUSOL/lp_LUSOL.c ****   /* Factorize for maximum rank */
 715:lp_solve_5.5/bfp/bfp_LUSOL/lp_LUSOL.c ****   n = 0;
 9241               		.loc 3 715 0 is_stmt 1
 9242 3858 1A86      		std Y+10,__zero_reg__
 9243 385a 1986      		std Y+9,__zero_reg__
 716:lp_solve_5.5/bfp/bfp_LUSOL/lp_LUSOL.c ****   i = LUSOL_factorize(LUSOL);
 9244               		.loc 3 716 0
 9245 385c 8B85      		ldd r24,Y+11
 9246 385e 9C85      		ldd r25,Y+12
 9247 3860 0E94 0000 		call LUSOL_factorize
 9248 3864 9A83      		std Y+2,r25
 9249 3866 8983      		std Y+1,r24
 717:lp_solve_5.5/bfp/bfp_LUSOL/lp_LUSOL.c ****   /*  lp->report(lp, NORMAL, "bfp_findredundant: r=%d c=%d - %s\n", items, m, LUSOL_informstr(LUSOL
 718:lp_solve_5.5/bfp/bfp_LUSOL/lp_LUSOL.c ****   if((i == LUSOL_INFORM_LUSUCCESS) || (i != LUSOL_INFORM_LUSINGULAR))
 9250               		.loc 3 718 0
 9251 3868 8981      		ldd r24,Y+1
 9252 386a 9A81      		ldd r25,Y+2
 9253 386c 892B      		or r24,r25
 9254 386e 01F4      		brne .+2
 9255 3870 00C0      		rjmp .L240
 9256               		.loc 3 718 0 is_stmt 0 discriminator 1
 9257 3872 8981      		ldd r24,Y+1
 9258 3874 9A81      		ldd r25,Y+2
 9259 3876 0197      		sbiw r24,1
 9260 3878 01F4      		brne .L240
 719:lp_solve_5.5/bfp/bfp_LUSOL/lp_LUSOL.c ****     goto Finish;
 720:lp_solve_5.5/bfp/bfp_LUSOL/lp_LUSOL.c **** 
 721:lp_solve_5.5/bfp/bfp_LUSOL/lp_LUSOL.c ****   /* We have a singular matrix, obtain the indeces of the singular rows */
 722:lp_solve_5.5/bfp/bfp_LUSOL/lp_LUSOL.c ****   for(i = LUSOL->luparm[LUSOL_IP_RANK_U] + 1; i <= items; i++) {
 9261               		.loc 3 722 0 is_stmt 1
 9262 387a 8B85      		ldd r24,Y+11
 9263 387c 9C85      		ldd r25,Y+12
 9264 387e FC01      		movw r30,r24
 9265 3880 80A5      		ldd r24,Z+40
 9266 3882 91A5      		ldd r25,Z+41
 9267 3884 0196      		adiw r24,1
 9268 3886 9A83      		std Y+2,r25
 9269 3888 8983      		std Y+1,r24
 9270 388a 00C0      		rjmp .L251
 9271               	.L252:
 723:lp_solve_5.5/bfp/bfp_LUSOL/lp_LUSOL.c ****     n++;
 9272               		.loc 3 723 0 discriminator 3
 9273 388c 8985      		ldd r24,Y+9
 9274 388e 9A85      		ldd r25,Y+10
 9275 3890 0196      		adiw r24,1
 9276 3892 9A87      		std Y+10,r25
 9277 3894 8987      		std Y+9,r24
 724:lp_solve_5.5/bfp/bfp_LUSOL/lp_LUSOL.c ****     maprow[n] = LUSOL->ip[i];
 9278               		.loc 3 724 0 discriminator 3
 9279 3896 8985      		ldd r24,Y+9
 9280 3898 9A85      		ldd r25,Y+10
 9281 389a 880F      		lsl r24
 9282 389c 991F      		rol r25
 9283 389e 298D      		ldd r18,Y+25
 9284 38a0 3A8D      		ldd r19,Y+26
 9285 38a2 820F      		add r24,r18
 9286 38a4 931F      		adc r25,r19
 9287 38a6 2B85      		ldd r18,Y+11
 9288 38a8 3C85      		ldd r19,Y+12
 9289 38aa 2255      		subi r18,82
 9290 38ac 3F4F      		sbci r19,-1
 9291 38ae F901      		movw r30,r18
 9292 38b0 4081      		ld r20,Z
 9293 38b2 5181      		ldd r21,Z+1
 9294 38b4 2981      		ldd r18,Y+1
 9295 38b6 3A81      		ldd r19,Y+2
 9296 38b8 220F      		lsl r18
 9297 38ba 331F      		rol r19
 9298 38bc 240F      		add r18,r20
 9299 38be 351F      		adc r19,r21
 9300 38c0 F901      		movw r30,r18
 9301 38c2 2081      		ld r18,Z
 9302 38c4 3181      		ldd r19,Z+1
 9303 38c6 FC01      		movw r30,r24
 9304 38c8 3183      		std Z+1,r19
 9305 38ca 2083      		st Z,r18
 722:lp_solve_5.5/bfp/bfp_LUSOL/lp_LUSOL.c ****     n++;
 9306               		.loc 3 722 0 discriminator 3
 9307 38cc 8981      		ldd r24,Y+1
 9308 38ce 9A81      		ldd r25,Y+2
 9309 38d0 0196      		adiw r24,1
 9310 38d2 9A83      		std Y+2,r25
 9311 38d4 8983      		std Y+1,r24
 9312               	.L251:
 722:lp_solve_5.5/bfp/bfp_LUSOL/lp_LUSOL.c ****     n++;
 9313               		.loc 3 722 0 is_stmt 0 discriminator 1
 9314 38d6 2981      		ldd r18,Y+1
 9315 38d8 3A81      		ldd r19,Y+2
 9316 38da 8D89      		ldd r24,Y+21
 9317 38dc 9E89      		ldd r25,Y+22
 9318 38de 8217      		cp r24,r18
 9319 38e0 9307      		cpc r25,r19
 9320 38e2 04F4      		brge .L252
 725:lp_solve_5.5/bfp/bfp_LUSOL/lp_LUSOL.c ****   }
 726:lp_solve_5.5/bfp/bfp_LUSOL/lp_LUSOL.c ****   maprow[0] = n;
 9321               		.loc 3 726 0 is_stmt 1
 9322 38e4 898D      		ldd r24,Y+25
 9323 38e6 9A8D      		ldd r25,Y+26
 9324 38e8 2985      		ldd r18,Y+9
 9325 38ea 3A85      		ldd r19,Y+10
 9326 38ec FC01      		movw r30,r24
 9327 38ee 3183      		std Z+1,r19
 9328 38f0 2083      		st Z,r18
 9329               	.L240:
 727:lp_solve_5.5/bfp/bfp_LUSOL/lp_LUSOL.c **** 
 728:lp_solve_5.5/bfp/bfp_LUSOL/lp_LUSOL.c ****   /* Clean up */
 729:lp_solve_5.5/bfp/bfp_LUSOL/lp_LUSOL.c **** Finish:
 730:lp_solve_5.5/bfp/bfp_LUSOL/lp_LUSOL.c ****   LUSOL_free(LUSOL);
 9330               		.loc 3 730 0
 9331 38f2 8B85      		ldd r24,Y+11
 9332 38f4 9C85      		ldd r25,Y+12
 9333 38f6 0E94 0000 		call LUSOL_free
 731:lp_solve_5.5/bfp/bfp_LUSOL/lp_LUSOL.c ****   FREE(nzrows);
 9334               		.loc 3 731 0
 9335 38fa 8D85      		ldd r24,Y+13
 9336 38fc 9E85      		ldd r25,Y+14
 9337 38fe 892B      		or r24,r25
 9338 3900 01F0      		breq .L253
 9339               		.loc 3 731 0 is_stmt 0 discriminator 1
 9340 3902 8D85      		ldd r24,Y+13
 9341 3904 9E85      		ldd r25,Y+14
 9342 3906 0E94 0000 		call free
 9343 390a 1E86      		std Y+14,__zero_reg__
 9344 390c 1D86      		std Y+13,__zero_reg__
 9345               	.L253:
 732:lp_solve_5.5/bfp/bfp_LUSOL/lp_LUSOL.c ****   FREE(nzvalues);
 9346               		.loc 3 732 0 is_stmt 1
 9347 390e 8F85      		ldd r24,Y+15
 9348 3910 9889      		ldd r25,Y+16
 9349 3912 892B      		or r24,r25
 9350 3914 01F0      		breq .L254
 9351               		.loc 3 732 0 is_stmt 0 discriminator 1
 9352 3916 8F85      		ldd r24,Y+15
 9353 3918 9889      		ldd r25,Y+16
 9354 391a 0E94 0000 		call free
 9355 391e 188A      		std Y+16,__zero_reg__
 9356 3920 1F86      		std Y+15,__zero_reg__
 9357               	.L254:
 733:lp_solve_5.5/bfp/bfp_LUSOL/lp_LUSOL.c **** 
 734:lp_solve_5.5/bfp/bfp_LUSOL/lp_LUSOL.c ****   return( n );
 9358               		.loc 3 734 0 is_stmt 1
 9359 3922 8985      		ldd r24,Y+9
 9360 3924 9A85      		ldd r25,Y+10
 9361               	.L255:
 9362               	/* epilogue start */
 735:lp_solve_5.5/bfp/bfp_LUSOL/lp_LUSOL.c **** }
 9363               		.loc 3 735 0 discriminator 1
 9364 3926 6C96      		adiw r28,28
 9365 3928 0FB6      		in __tmp_reg__,__SREG__
 9366 392a F894      		cli
 9367 392c DEBF      		out __SP_H__,r29
 9368 392e 0FBE      		out __SREG__,__tmp_reg__
 9369 3930 CDBF      		out __SP_L__,r28
 9370 3932 DF91      		pop r29
 9371 3934 CF91      		pop r28
 9372 3936 1F91      		pop r17
 9373 3938 0F91      		pop r16
 9374 393a FF90      		pop r15
 9375 393c EF90      		pop r14
 9376 393e 0895      		ret
 9377               		.cfi_endproc
 9378               	.LFE47:
 9380               	.Letext0:
 9381               		.file 4 "c:\\program files (x86)\\atmel\\studio\\7.0\\toolchain\\avr8\\avr8-gnu-toolchain\\lib\\gc
 9382               		.file 5 "c:\\program files (x86)\\atmel\\studio\\7.0\\toolchain\\avr8\\avr8-gnu-toolchain\\avr\\in
 9383               		.file 6 "c:\\program files (x86)\\atmel\\studio\\7.0\\toolchain\\avr8\\avr8-gnu-toolchain\\avr\\in
 9384               		.file 7 "lp_solve_5.5/lp_types.h"
 9385               		.file 8 "lp_solve_5.5/lp_lib.h"
 9386               		.file 9 "lp_solve_5.5/bfp/bfp_LUSOL/lp_LUSOL.h"
 9387               		.file 10 "lp_solve_5.5\\shared/commonlib.h"
 9388               		.file 11 "lp_solve_5.5/lp_utils.h"
 9389               		.file 12 "lp_solve_5.5/lp_Hash.h"
 9390               		.file 13 "lp_solve_5.5/lp_matrix.h"
 9391               		.file 14 "lp_solve_5.5/lp_mipbb.h"
 9392               		.file 15 "lp_solve_5.5/lp_SOS.h"
 9393               		.file 16 "lp_solve_5.5\\bfp\\bfp_LUSOL\\LUSOL/lusol.h"
DEFINED SYMBOLS
                            *ABS*:00000000 lp_LUSOL.c
C:\Users\GUILHE~1\AppData\Local\Temp\cc5ny1jK.s:2      *ABS*:0000003e __SP_H__
C:\Users\GUILHE~1\AppData\Local\Temp\cc5ny1jK.s:3      *ABS*:0000003d __SP_L__
C:\Users\GUILHE~1\AppData\Local\Temp\cc5ny1jK.s:4      *ABS*:0000003f __SREG__
C:\Users\GUILHE~1\AppData\Local\Temp\cc5ny1jK.s:5      *ABS*:0000003b __RAMPZ__
C:\Users\GUILHE~1\AppData\Local\Temp\cc5ny1jK.s:6      *ABS*:00000000 __tmp_reg__
C:\Users\GUILHE~1\AppData\Local\Temp\cc5ny1jK.s:7      *ABS*:00000001 __zero_reg__
C:\Users\GUILHE~1\AppData\Local\Temp\cc5ny1jK.s:13     .text:00000000 bfp_compatible
C:\Users\GUILHE~1\AppData\Local\Temp\cc5ny1jK.s:89     .text:00000056 bfp_status
C:\Users\GUILHE~1\AppData\Local\Temp\cc5ny1jK.s:137    .text:00000082 bfp_indexbase
C:\Users\GUILHE~1\AppData\Local\Temp\cc5ny1jK.s:177    .text:0000009e bfp_rowoffset
C:\Users\GUILHE~1\AppData\Local\Temp\cc5ny1jK.s:232    .text:000000d0 bfp_pivotmax
C:\Users\GUILHE~1\AppData\Local\Temp\cc5ny1jK.s:294    .text:00000110 bfp_pivotvector
C:\Users\GUILHE~1\AppData\Local\Temp\cc5ny1jK.s:345    .text:0000013c bfp_efficiency
C:\Users\GUILHE~1\AppData\Local\Temp\cc5ny1jK.s:490    .text:0000022a bfp_pivotcount
C:\Users\GUILHE~1\AppData\Local\Temp\cc5ny1jK.s:538    .text:00000256 bfp_refactcount
C:\Users\GUILHE~1\AppData\Local\Temp\cc5ny1jK.s:642    .text:000002d6 bfp_mustrefactorize
C:\Users\GUILHE~1\AppData\Local\Temp\cc5ny1jK.s:1041   .text:00000570 bfp_isSetI
C:\Users\GUILHE~1\AppData\Local\Temp\cc5ny1jK.s:1092   .text:0000059a bfp_createMDO
C:\Users\GUILHE~1\AppData\Local\Temp\cc5ny1jK.s:1332   .text:00000716 bfp_updaterefactstats
C:\Users\GUILHE~1\AppData\Local\Temp\cc5ny1jK.s:1494   .text:00000810 bfp_rowextra
C:\Users\GUILHE~1\AppData\Local\Temp\cc5ny1jK.s:1554   .text:0000084c bfp_init
C:\Users\GUILHE~1\AppData\Local\Temp\cc5ny1jK.s:1730   .text:00000956 bfp_restart
C:\Users\GUILHE~1\AppData\Local\Temp\cc5ny1jK.s:1851   .text:000009f6 bfp_implicitslack
C:\Users\GUILHE~1\AppData\Local\Temp\cc5ny1jK.s:1890   .text:00000a10 bfp_colcount
C:\Users\GUILHE~1\AppData\Local\Temp\cc5ny1jK.s:1938   .text:00000a3c bfp_canresetbasis
C:\Users\GUILHE~1\AppData\Local\Temp\cc5ny1jK.s:1977   .text:00000a56 bfp_pivotalloc
C:\Users\GUILHE~1\AppData\Local\Temp\cc5ny1jK.s:2021   .text:00000a7a bfp_finishfactorization
C:\Users\GUILHE~1\AppData\Local\Temp\cc5ny1jK.s:2194   .text:00000b80 bfp_prepareupdate
C:\Users\GUILHE~1\AppData\Local\Temp\cc5ny1jK.s:2369   .text:00000c8c bfp_pivotRHS
C:\Users\GUILHE~1\AppData\Local\Temp\cc5ny1jK.s:2714   .text:00000e7c bfp_btran_double
C:\Users\GUILHE~1\AppData\Local\Temp\cc5ny1jK.s:2827   .text:00000f0c bfp_name
C:\Users\GUILHE~1\AppData\Local\Temp\cc5ny1jK.s:2863   .text:00000f1e bfp_resize
C:\Users\GUILHE~1\AppData\Local\Temp\cc5ny1jK.s:3244   .text:000011b6 bfp_free
C:\Users\GUILHE~1\AppData\Local\Temp\cc5ny1jK.s:3374   .text:00001270 bfp_nonzeros
C:\Users\GUILHE~1\AppData\Local\Temp\cc5ny1jK.s:3471   .text:000012ee bfp_memallocated
C:\Users\GUILHE~1\AppData\Local\Temp\cc5ny1jK.s:3698   .text:00001468 bfp_preparefactorization
C:\Users\GUILHE~1\AppData\Local\Temp\cc5ny1jK.s:3859   .text:0000154e bfp_LUSOLsetcolumn
C:\Users\GUILHE~1\AppData\Local\Temp\cc5ny1jK.s:4009   .text:0000162e bfp_LUSOLidentity
C:\Users\GUILHE~1\AppData\Local\Temp\cc5ny1jK.s:4202   .text:00001752 bfp_LUSOLfactorize
C:\Users\GUILHE~1\AppData\Local\Temp\cc5ny1jK.s:4759   .text:00001b04 bfp_LUSOLtighten
C:\Users\GUILHE~1\AppData\Local\Temp\cc5ny1jK.s:5049   .text:00001cc0 is_fixedvar_
C:\Users\GUILHE~1\AppData\Local\Temp\cc5ny1jK.s:5279   .text:00001e0e bfp_factorize
C:\Users\GUILHE~1\AppData\Local\Temp\cc5ny1jK.s:6458   .text:0000261c bfp_finishupdate
C:\Users\GUILHE~1\AppData\Local\Temp\cc5ny1jK.s:7561   .text:00002dbc bfp_ftran_normal
C:\Users\GUILHE~1\AppData\Local\Temp\cc5ny1jK.s:7897   .text:00002fbc bfp_ftran_prepare
C:\Users\GUILHE~1\AppData\Local\Temp\cc5ny1jK.s:8233   .text:000031bc bfp_btran_normal
C:\Users\GUILHE~1\AppData\Local\Temp\cc5ny1jK.s:8568   .text:000033ba bfp_findredundant

UNDEFINED SYMBOLS
__floatsisf
__eqsf2
__divsf3
__subsf3
__gtsf2
__ltsf2
__mulsf3
timeNow
malloc
free
calloc
strlen
strcpy
__nesf2
__addsf3
__fixsfsi
allocREAL
LUSOL_sizeto
LUSOL_create
LUSOL_setpivotmodel
LUSOL_free
LUSOL_clear
LUSOL_replaceColumn
LUSOL_loadColumn
LUSOL_factorize
createLink
removeLink
firstActiveLink
nextActiveLink
memcpy
sortByINT
__floatdisf
LUSOL_tightenpivot
LUSOL_pivotLabel
__gesf2
allocINT
__divmodhi4
LUSOL_getSingularity
LU8RPC
pow
LUSOL_informstr
__adddi3
LUSOL_ftran
LUSOL_btran
__do_copy_data
