   1               		.file	"lp_LUSOL.c"
   2               	__SP_H__ = 0x3e
   3               	__SP_L__ = 0x3d
   4               	__SREG__ = 0x3f
   5               	__RAMPZ__ = 0x3b
   6               	__tmp_reg__ = 0
   7               	__zero_reg__ = 1
   8               		.text
   9               	.Ltext0:
  10               		.cfi_sections	.debug_frame
  11               	.global	bfp_compatible
  13               	bfp_compatible:
  14               	.LFB7:
  15               		.file 1 "lp_solve_5.5\\bfp/lp_BFP1.c"
   1:lp_solve_5.5\bfp/lp_BFP1.c **** 
   2:lp_solve_5.5\bfp/lp_BFP1.c **** /* Routines located in lp_BFP1.cpp; common for all factorization engines              */
   3:lp_solve_5.5\bfp/lp_BFP1.c **** /* Cfr. lp_BFP.h for definitions                                                      */
   4:lp_solve_5.5\bfp/lp_BFP1.c **** /* ---------------------------------------------------------------------------------- */
   5:lp_solve_5.5\bfp/lp_BFP1.c **** /* Changes:                                                                           */
   6:lp_solve_5.5\bfp/lp_BFP1.c **** /* 29 May 2004       Corrected calculation of bfp_efficiency(), which required        */
   7:lp_solve_5.5\bfp/lp_BFP1.c **** /*                   modifying the max_Bsize to include slack variables. KE.          */
   8:lp_solve_5.5\bfp/lp_BFP1.c **** /* 16 June 2004      Make the symbolic minimum degree ordering routine available      */
   9:lp_solve_5.5\bfp/lp_BFP1.c **** /*                   to BFPs as a routine internal to the library. KE                 */
  10:lp_solve_5.5\bfp/lp_BFP1.c **** /* 1  July 2004      Change due to change in MDO naming.                              */
  11:lp_solve_5.5\bfp/lp_BFP1.c **** /* ---------------------------------------------------------------------------------- */
  12:lp_solve_5.5\bfp/lp_BFP1.c **** 
  13:lp_solve_5.5\bfp/lp_BFP1.c **** 
  14:lp_solve_5.5\bfp/lp_BFP1.c **** /* MUST MODIFY */
  15:lp_solve_5.5\bfp/lp_BFP1.c **** MYBOOL BFP_CALLMODEL bfp_compatible(lprec *lp, int bfpversion, int lpversion, int sizeofvar)
  16:lp_solve_5.5\bfp/lp_BFP1.c **** {
  16               		.loc 1 16 0
  17               		.cfi_startproc
  18 0000 CF93      		push r28
  19               	.LCFI0:
  20               		.cfi_def_cfa_offset 3
  21               		.cfi_offset 28, -2
  22 0002 DF93      		push r29
  23               	.LCFI1:
  24               		.cfi_def_cfa_offset 4
  25               		.cfi_offset 29, -3
  26 0004 CDB7      		in r28,__SP_L__
  27 0006 DEB7      		in r29,__SP_H__
  28               	.LCFI2:
  29               		.cfi_def_cfa_register 28
  30 0008 2997      		sbiw r28,9
  31               	.LCFI3:
  32               		.cfi_def_cfa_offset 13
  33 000a 0FB6      		in __tmp_reg__,__SREG__
  34 000c F894      		cli
  35 000e DEBF      		out __SP_H__,r29
  36 0010 0FBE      		out __SREG__,__tmp_reg__
  37 0012 CDBF      		out __SP_L__,r28
  38               	/* prologue: function */
  39               	/* frame size = 9 */
  40               	/* stack size = 11 */
  41               	.L__stack_usage = 11
  42 0014 9B83      		std Y+3,r25
  43 0016 8A83      		std Y+2,r24
  44 0018 7D83      		std Y+5,r23
  45 001a 6C83      		std Y+4,r22
  46 001c 5F83      		std Y+7,r21
  47 001e 4E83      		std Y+6,r20
  48 0020 3987      		std Y+9,r19
  49 0022 2887      		std Y+8,r18
  17:lp_solve_5.5\bfp/lp_BFP1.c ****   MYBOOL status = FALSE;
  50               		.loc 1 17 0
  51 0024 1982      		std Y+1,__zero_reg__
  18:lp_solve_5.5\bfp/lp_BFP1.c **** 
  19:lp_solve_5.5\bfp/lp_BFP1.c ****   if((lp != NULL) && (bfpversion == BFPVERSION) && (sizeof(REAL) == sizeofvar)) {
  52               		.loc 1 19 0
  53 0026 8A81      		ldd r24,Y+2
  54 0028 9B81      		ldd r25,Y+3
  55 002a 892B      		or r24,r25
  56 002c 01F0      		breq .L2
  57               		.loc 1 19 0 is_stmt 0 discriminator 1
  58 002e 8C81      		ldd r24,Y+4
  59 0030 9D81      		ldd r25,Y+5
  60 0032 0C97      		sbiw r24,12
  61 0034 01F4      		brne .L2
  62               		.loc 1 19 0 discriminator 2
  63 0036 8885      		ldd r24,Y+8
  64 0038 9985      		ldd r25,Y+9
  65 003a 0497      		sbiw r24,4
  66 003c 01F4      		brne .L2
  20:lp_solve_5.5\bfp/lp_BFP1.c **** #if 0
  21:lp_solve_5.5\bfp/lp_BFP1.c ****     if(lpversion == MAJORVERSION)  /* Forces BFP renewal at lp_solve major version changes */
  22:lp_solve_5.5\bfp/lp_BFP1.c **** #endif
  23:lp_solve_5.5\bfp/lp_BFP1.c ****       status = TRUE;
  67               		.loc 1 23 0 is_stmt 1
  68 003e 81E0      		ldi r24,lo8(1)
  69 0040 8983      		std Y+1,r24
  70               	.L2:
  24:lp_solve_5.5\bfp/lp_BFP1.c ****   }
  25:lp_solve_5.5\bfp/lp_BFP1.c ****   return( status );
  71               		.loc 1 25 0
  72 0042 8981      		ldd r24,Y+1
  73               	/* epilogue start */
  26:lp_solve_5.5\bfp/lp_BFP1.c **** }
  74               		.loc 1 26 0
  75 0044 2996      		adiw r28,9
  76 0046 0FB6      		in __tmp_reg__,__SREG__
  77 0048 F894      		cli
  78 004a DEBF      		out __SP_H__,r29
  79 004c 0FBE      		out __SREG__,__tmp_reg__
  80 004e CDBF      		out __SP_L__,r28
  81 0050 DF91      		pop r29
  82 0052 CF91      		pop r28
  83 0054 0895      		ret
  84               		.cfi_endproc
  85               	.LFE7:
  87               	.global	bfp_status
  89               	bfp_status:
  90               	.LFB8:
  27:lp_solve_5.5\bfp/lp_BFP1.c **** 
  28:lp_solve_5.5\bfp/lp_BFP1.c **** /* DON'T MODIFY */
  29:lp_solve_5.5\bfp/lp_BFP1.c **** int BFP_CALLMODEL bfp_status(lprec *lp)
  30:lp_solve_5.5\bfp/lp_BFP1.c **** {
  91               		.loc 1 30 0
  92               		.cfi_startproc
  93 0056 CF93      		push r28
  94               	.LCFI4:
  95               		.cfi_def_cfa_offset 3
  96               		.cfi_offset 28, -2
  97 0058 DF93      		push r29
  98               	.LCFI5:
  99               		.cfi_def_cfa_offset 4
 100               		.cfi_offset 29, -3
 101 005a 00D0      		rcall .
 102               	.LCFI6:
 103               		.cfi_def_cfa_offset 6
 104 005c CDB7      		in r28,__SP_L__
 105 005e DEB7      		in r29,__SP_H__
 106               	.LCFI7:
 107               		.cfi_def_cfa_register 28
 108               	/* prologue: function */
 109               	/* frame size = 2 */
 110               	/* stack size = 4 */
 111               	.L__stack_usage = 4
 112 0060 9A83      		std Y+2,r25
 113 0062 8983      		std Y+1,r24
  31:lp_solve_5.5\bfp/lp_BFP1.c ****   return(lp->invB->status);
 114               		.loc 1 31 0
 115 0064 8981      		ldd r24,Y+1
 116 0066 9A81      		ldd r25,Y+2
 117 0068 8854      		subi r24,72
 118 006a 9D4F      		sbci r25,-3
 119 006c FC01      		movw r30,r24
 120 006e 8081      		ld r24,Z
 121 0070 9181      		ldd r25,Z+1
 122 0072 FC01      		movw r30,r24
 123 0074 8081      		ld r24,Z
 124 0076 9181      		ldd r25,Z+1
 125               	/* epilogue start */
  32:lp_solve_5.5\bfp/lp_BFP1.c **** }
 126               		.loc 1 32 0
 127 0078 0F90      		pop __tmp_reg__
 128 007a 0F90      		pop __tmp_reg__
 129 007c DF91      		pop r29
 130 007e CF91      		pop r28
 131 0080 0895      		ret
 132               		.cfi_endproc
 133               	.LFE8:
 135               	.global	bfp_indexbase
 137               	bfp_indexbase:
 138               	.LFB9:
  33:lp_solve_5.5\bfp/lp_BFP1.c **** 
  34:lp_solve_5.5\bfp/lp_BFP1.c **** /* DON'T MODIFY */
  35:lp_solve_5.5\bfp/lp_BFP1.c **** int BFP_CALLMODEL bfp_indexbase(lprec *lp)
  36:lp_solve_5.5\bfp/lp_BFP1.c **** {
 139               		.loc 1 36 0
 140               		.cfi_startproc
 141 0082 CF93      		push r28
 142               	.LCFI8:
 143               		.cfi_def_cfa_offset 3
 144               		.cfi_offset 28, -2
 145 0084 DF93      		push r29
 146               	.LCFI9:
 147               		.cfi_def_cfa_offset 4
 148               		.cfi_offset 29, -3
 149 0086 00D0      		rcall .
 150               	.LCFI10:
 151               		.cfi_def_cfa_offset 6
 152 0088 CDB7      		in r28,__SP_L__
 153 008a DEB7      		in r29,__SP_H__
 154               	.LCFI11:
 155               		.cfi_def_cfa_register 28
 156               	/* prologue: function */
 157               	/* frame size = 2 */
 158               	/* stack size = 4 */
 159               	.L__stack_usage = 4
 160 008c 9A83      		std Y+2,r25
 161 008e 8983      		std Y+1,r24
  37:lp_solve_5.5\bfp/lp_BFP1.c ****   return( MATINDEXBASE );
 162               		.loc 1 37 0
 163 0090 81E0      		ldi r24,lo8(1)
 164 0092 90E0      		ldi r25,0
 165               	/* epilogue start */
  38:lp_solve_5.5\bfp/lp_BFP1.c **** }
 166               		.loc 1 38 0
 167 0094 0F90      		pop __tmp_reg__
 168 0096 0F90      		pop __tmp_reg__
 169 0098 DF91      		pop r29
 170 009a CF91      		pop r28
 171 009c 0895      		ret
 172               		.cfi_endproc
 173               	.LFE9:
 175               	.global	bfp_rowoffset
 177               	bfp_rowoffset:
 178               	.LFB10:
  39:lp_solve_5.5\bfp/lp_BFP1.c **** 
  40:lp_solve_5.5\bfp/lp_BFP1.c **** /* DON'T MODIFY */
  41:lp_solve_5.5\bfp/lp_BFP1.c **** int BFP_CALLMODEL bfp_rowoffset(lprec *lp)
  42:lp_solve_5.5\bfp/lp_BFP1.c **** {
 179               		.loc 1 42 0
 180               		.cfi_startproc
 181 009e CF93      		push r28
 182               	.LCFI12:
 183               		.cfi_def_cfa_offset 3
 184               		.cfi_offset 28, -2
 185 00a0 DF93      		push r29
 186               	.LCFI13:
 187               		.cfi_def_cfa_offset 4
 188               		.cfi_offset 29, -3
 189 00a2 00D0      		rcall .
 190               	.LCFI14:
 191               		.cfi_def_cfa_offset 6
 192 00a4 CDB7      		in r28,__SP_L__
 193 00a6 DEB7      		in r29,__SP_H__
 194               	.LCFI15:
 195               		.cfi_def_cfa_register 28
 196               	/* prologue: function */
 197               	/* frame size = 2 */
 198               	/* stack size = 4 */
 199               	.L__stack_usage = 4
 200 00a8 9A83      		std Y+2,r25
 201 00aa 8983      		std Y+1,r24
  43:lp_solve_5.5\bfp/lp_BFP1.c ****   if(lp->obj_in_basis)
 202               		.loc 1 43 0
 203 00ac 8981      		ldd r24,Y+1
 204 00ae 9A81      		ldd r25,Y+2
 205 00b0 8B5F      		subi r24,-5
 206 00b2 9D4F      		sbci r25,-3
 207 00b4 FC01      		movw r30,r24
 208 00b6 8081      		ld r24,Z
 209 00b8 8823      		tst r24
 210 00ba 01F0      		breq .L9
  44:lp_solve_5.5\bfp/lp_BFP1.c ****     return( 1 );
 211               		.loc 1 44 0
 212 00bc 81E0      		ldi r24,lo8(1)
 213 00be 90E0      		ldi r25,0
 214 00c0 00C0      		rjmp .L10
 215               	.L9:
  45:lp_solve_5.5\bfp/lp_BFP1.c ****   else
  46:lp_solve_5.5\bfp/lp_BFP1.c ****     return( 0 );
 216               		.loc 1 46 0
 217 00c2 80E0      		ldi r24,0
 218 00c4 90E0      		ldi r25,0
 219               	.L10:
 220               	/* epilogue start */
  47:lp_solve_5.5\bfp/lp_BFP1.c **** }
 221               		.loc 1 47 0
 222 00c6 0F90      		pop __tmp_reg__
 223 00c8 0F90      		pop __tmp_reg__
 224 00ca DF91      		pop r29
 225 00cc CF91      		pop r28
 226 00ce 0895      		ret
 227               		.cfi_endproc
 228               	.LFE10:
 230               	.global	bfp_pivotmax
 232               	bfp_pivotmax:
 233               	.LFB11:
  48:lp_solve_5.5\bfp/lp_BFP1.c **** 
  49:lp_solve_5.5\bfp/lp_BFP1.c **** /* DON'T MODIFY */
  50:lp_solve_5.5\bfp/lp_BFP1.c **** int BFP_CALLMODEL bfp_pivotmax(lprec *lp)
  51:lp_solve_5.5\bfp/lp_BFP1.c **** {
 234               		.loc 1 51 0
 235               		.cfi_startproc
 236 00d0 CF93      		push r28
 237               	.LCFI16:
 238               		.cfi_def_cfa_offset 3
 239               		.cfi_offset 28, -2
 240 00d2 DF93      		push r29
 241               	.LCFI17:
 242               		.cfi_def_cfa_offset 4
 243               		.cfi_offset 29, -3
 244 00d4 00D0      		rcall .
 245               	.LCFI18:
 246               		.cfi_def_cfa_offset 6
 247 00d6 CDB7      		in r28,__SP_L__
 248 00d8 DEB7      		in r29,__SP_H__
 249               	.LCFI19:
 250               		.cfi_def_cfa_register 28
 251               	/* prologue: function */
 252               	/* frame size = 2 */
 253               	/* stack size = 4 */
 254               	.L__stack_usage = 4
 255 00da 9A83      		std Y+2,r25
 256 00dc 8983      		std Y+1,r24
  52:lp_solve_5.5\bfp/lp_BFP1.c ****   if(lp->max_pivots > 0)
 257               		.loc 1 52 0
 258 00de 8981      		ldd r24,Y+1
 259 00e0 9A81      		ldd r25,Y+2
 260 00e2 8E5A      		subi r24,-82
 261 00e4 9D4F      		sbci r25,-3
 262 00e6 FC01      		movw r30,r24
 263 00e8 8081      		ld r24,Z
 264 00ea 9181      		ldd r25,Z+1
 265 00ec 1816      		cp __zero_reg__,r24
 266 00ee 1906      		cpc __zero_reg__,r25
 267 00f0 04F4      		brge .L12
  53:lp_solve_5.5\bfp/lp_BFP1.c ****     return( lp->max_pivots );
 268               		.loc 1 53 0
 269 00f2 8981      		ldd r24,Y+1
 270 00f4 9A81      		ldd r25,Y+2
 271 00f6 8E5A      		subi r24,-82
 272 00f8 9D4F      		sbci r25,-3
 273 00fa FC01      		movw r30,r24
 274 00fc 8081      		ld r24,Z
 275 00fe 9181      		ldd r25,Z+1
 276 0100 00C0      		rjmp .L13
 277               	.L12:
  54:lp_solve_5.5\bfp/lp_BFP1.c ****   else
  55:lp_solve_5.5\bfp/lp_BFP1.c ****     return( DEF_MAXPIVOT );
 278               		.loc 1 55 0
 279 0102 8AEF      		ldi r24,lo8(-6)
 280 0104 90E0      		ldi r25,0
 281               	.L13:
 282               	/* epilogue start */
  56:lp_solve_5.5\bfp/lp_BFP1.c **** }
 283               		.loc 1 56 0
 284 0106 0F90      		pop __tmp_reg__
 285 0108 0F90      		pop __tmp_reg__
 286 010a DF91      		pop r29
 287 010c CF91      		pop r28
 288 010e 0895      		ret
 289               		.cfi_endproc
 290               	.LFE11:
 292               	.global	bfp_pivotvector
 294               	bfp_pivotvector:
 295               	.LFB12:
  57:lp_solve_5.5\bfp/lp_BFP1.c **** 
  58:lp_solve_5.5\bfp/lp_BFP1.c **** /* DON'T MODIFY */
  59:lp_solve_5.5\bfp/lp_BFP1.c **** REAL * BFP_CALLMODEL bfp_pivotvector(lprec *lp)
  60:lp_solve_5.5\bfp/lp_BFP1.c **** {
 296               		.loc 1 60 0
 297               		.cfi_startproc
 298 0110 CF93      		push r28
 299               	.LCFI20:
 300               		.cfi_def_cfa_offset 3
 301               		.cfi_offset 28, -2
 302 0112 DF93      		push r29
 303               	.LCFI21:
 304               		.cfi_def_cfa_offset 4
 305               		.cfi_offset 29, -3
 306 0114 00D0      		rcall .
 307               	.LCFI22:
 308               		.cfi_def_cfa_offset 6
 309 0116 CDB7      		in r28,__SP_L__
 310 0118 DEB7      		in r29,__SP_H__
 311               	.LCFI23:
 312               		.cfi_def_cfa_register 28
 313               	/* prologue: function */
 314               	/* frame size = 2 */
 315               	/* stack size = 4 */
 316               	.L__stack_usage = 4
 317 011a 9A83      		std Y+2,r25
 318 011c 8983      		std Y+1,r24
  61:lp_solve_5.5\bfp/lp_BFP1.c ****   return( lp->invB->pcol );
 319               		.loc 1 61 0
 320 011e 8981      		ldd r24,Y+1
 321 0120 9A81      		ldd r25,Y+2
 322 0122 8854      		subi r24,72
 323 0124 9D4F      		sbci r25,-3
 324 0126 FC01      		movw r30,r24
 325 0128 8081      		ld r24,Z
 326 012a 9181      		ldd r25,Z+1
 327 012c FC01      		movw r30,r24
 328 012e 8289      		ldd r24,Z+18
 329 0130 9389      		ldd r25,Z+19
 330               	/* epilogue start */
  62:lp_solve_5.5\bfp/lp_BFP1.c **** }
 331               		.loc 1 62 0
 332 0132 0F90      		pop __tmp_reg__
 333 0134 0F90      		pop __tmp_reg__
 334 0136 DF91      		pop r29
 335 0138 CF91      		pop r28
 336 013a 0895      		ret
 337               		.cfi_endproc
 338               	.LFE12:
 340               	.global	__floatsisf
 341               	.global	__eqsf2
 342               	.global	__divsf3
 343               	.global	bfp_efficiency
 345               	bfp_efficiency:
 346               	.LFB13:
  63:lp_solve_5.5\bfp/lp_BFP1.c **** 
  64:lp_solve_5.5\bfp/lp_BFP1.c **** /* DON'T MODIFY */
  65:lp_solve_5.5\bfp/lp_BFP1.c **** REAL BFP_CALLMODEL bfp_efficiency(lprec *lp)
  66:lp_solve_5.5\bfp/lp_BFP1.c **** {
 347               		.loc 1 66 0
 348               		.cfi_startproc
 349 013c CF93      		push r28
 350               	.LCFI24:
 351               		.cfi_def_cfa_offset 3
 352               		.cfi_offset 28, -2
 353 013e DF93      		push r29
 354               	.LCFI25:
 355               		.cfi_def_cfa_offset 4
 356               		.cfi_offset 29, -3
 357 0140 00D0      		rcall .
 358 0142 00D0      		rcall .
 359 0144 00D0      		rcall .
 360               	.LCFI26:
 361               		.cfi_def_cfa_offset 10
 362 0146 CDB7      		in r28,__SP_L__
 363 0148 DEB7      		in r29,__SP_H__
 364               	.LCFI27:
 365               		.cfi_def_cfa_register 28
 366               	/* prologue: function */
 367               	/* frame size = 6 */
 368               	/* stack size = 8 */
 369               	.L__stack_usage = 8
 370 014a 9E83      		std Y+6,r25
 371 014c 8D83      		std Y+5,r24
  67:lp_solve_5.5\bfp/lp_BFP1.c ****   REAL hold;
  68:lp_solve_5.5\bfp/lp_BFP1.c **** 
  69:lp_solve_5.5\bfp/lp_BFP1.c ****   hold = lp->bfp_nonzeros(lp, AUTOMATIC);
 372               		.loc 1 69 0
 373 014e 8D81      		ldd r24,Y+5
 374 0150 9E81      		ldd r25,Y+6
 375 0152 8654      		subi r24,70
 376 0154 9C4F      		sbci r25,-4
 377 0156 FC01      		movw r30,r24
 378 0158 2081      		ld r18,Z
 379 015a 3181      		ldd r19,Z+1
 380 015c 8D81      		ldd r24,Y+5
 381 015e 9E81      		ldd r25,Y+6
 382 0160 62E0      		ldi r22,lo8(2)
 383 0162 F901      		movw r30,r18
 384 0164 0995      		icall
 385 0166 092E      		mov __tmp_reg__,r25
 386 0168 000C      		lsl r0
 387 016a AA0B      		sbc r26,r26
 388 016c BB0B      		sbc r27,r27
 389 016e BC01      		movw r22,r24
 390 0170 CD01      		movw r24,r26
 391 0172 0E94 0000 		call __floatsisf
 392 0176 DC01      		movw r26,r24
 393 0178 CB01      		movw r24,r22
 394 017a 8983      		std Y+1,r24
 395 017c 9A83      		std Y+2,r25
 396 017e AB83      		std Y+3,r26
 397 0180 BC83      		std Y+4,r27
  70:lp_solve_5.5\bfp/lp_BFP1.c ****   if(hold == 0)
 398               		.loc 1 70 0
 399 0182 20E0      		ldi r18,0
 400 0184 30E0      		ldi r19,0
 401 0186 A901      		movw r20,r18
 402 0188 6981      		ldd r22,Y+1
 403 018a 7A81      		ldd r23,Y+2
 404 018c 8B81      		ldd r24,Y+3
 405 018e 9C81      		ldd r25,Y+4
 406 0190 0E94 0000 		call __eqsf2
 407 0194 8823      		tst r24
 408 0196 01F4      		brne .L17
  71:lp_solve_5.5\bfp/lp_BFP1.c ****     hold = 1 + lp->rows;
 409               		.loc 1 71 0
 410 0198 8D81      		ldd r24,Y+5
 411 019a 9E81      		ldd r25,Y+6
 412 019c 8651      		subi r24,22
 413 019e 9E4F      		sbci r25,-2
 414 01a0 FC01      		movw r30,r24
 415 01a2 8081      		ld r24,Z
 416 01a4 9181      		ldd r25,Z+1
 417 01a6 0196      		adiw r24,1
 418 01a8 092E      		mov __tmp_reg__,r25
 419 01aa 000C      		lsl r0
 420 01ac AA0B      		sbc r26,r26
 421 01ae BB0B      		sbc r27,r27
 422 01b0 BC01      		movw r22,r24
 423 01b2 CD01      		movw r24,r26
 424 01b4 0E94 0000 		call __floatsisf
 425 01b8 DC01      		movw r26,r24
 426 01ba CB01      		movw r24,r22
 427 01bc 8983      		std Y+1,r24
 428 01be 9A83      		std Y+2,r25
 429 01c0 AB83      		std Y+3,r26
 430 01c2 BC83      		std Y+4,r27
 431               	.L17:
  72:lp_solve_5.5\bfp/lp_BFP1.c ****   hold = lp->bfp_nonzeros(lp, TRUE)/hold;
 432               		.loc 1 72 0
 433 01c4 8D81      		ldd r24,Y+5
 434 01c6 9E81      		ldd r25,Y+6
 435 01c8 8654      		subi r24,70
 436 01ca 9C4F      		sbci r25,-4
 437 01cc FC01      		movw r30,r24
 438 01ce 2081      		ld r18,Z
 439 01d0 3181      		ldd r19,Z+1
 440 01d2 8D81      		ldd r24,Y+5
 441 01d4 9E81      		ldd r25,Y+6
 442 01d6 61E0      		ldi r22,lo8(1)
 443 01d8 F901      		movw r30,r18
 444 01da 0995      		icall
 445 01dc 092E      		mov __tmp_reg__,r25
 446 01de 000C      		lsl r0
 447 01e0 AA0B      		sbc r26,r26
 448 01e2 BB0B      		sbc r27,r27
 449 01e4 BC01      		movw r22,r24
 450 01e6 CD01      		movw r24,r26
 451 01e8 0E94 0000 		call __floatsisf
 452 01ec DC01      		movw r26,r24
 453 01ee CB01      		movw r24,r22
 454 01f0 2981      		ldd r18,Y+1
 455 01f2 3A81      		ldd r19,Y+2
 456 01f4 4B81      		ldd r20,Y+3
 457 01f6 5C81      		ldd r21,Y+4
 458 01f8 BC01      		movw r22,r24
 459 01fa CD01      		movw r24,r26
 460 01fc 0E94 0000 		call __divsf3
 461 0200 DC01      		movw r26,r24
 462 0202 CB01      		movw r24,r22
 463 0204 8983      		std Y+1,r24
 464 0206 9A83      		std Y+2,r25
 465 0208 AB83      		std Y+3,r26
 466 020a BC83      		std Y+4,r27
  73:lp_solve_5.5\bfp/lp_BFP1.c **** 
  74:lp_solve_5.5\bfp/lp_BFP1.c ****   return(hold);
 467               		.loc 1 74 0
 468 020c 8981      		ldd r24,Y+1
 469 020e 9A81      		ldd r25,Y+2
 470 0210 AB81      		ldd r26,Y+3
 471 0212 BC81      		ldd r27,Y+4
  75:lp_solve_5.5\bfp/lp_BFP1.c **** }
 472               		.loc 1 75 0
 473 0214 BC01      		movw r22,r24
 474 0216 CD01      		movw r24,r26
 475               	/* epilogue start */
 476 0218 2696      		adiw r28,6
 477 021a 0FB6      		in __tmp_reg__,__SREG__
 478 021c F894      		cli
 479 021e DEBF      		out __SP_H__,r29
 480 0220 0FBE      		out __SREG__,__tmp_reg__
 481 0222 CDBF      		out __SP_L__,r28
 482 0224 DF91      		pop r29
 483 0226 CF91      		pop r28
 484 0228 0895      		ret
 485               		.cfi_endproc
 486               	.LFE13:
 488               	.global	bfp_pivotcount
 490               	bfp_pivotcount:
 491               	.LFB14:
  76:lp_solve_5.5\bfp/lp_BFP1.c **** 
  77:lp_solve_5.5\bfp/lp_BFP1.c **** /* DON'T MODIFY */
  78:lp_solve_5.5\bfp/lp_BFP1.c **** int BFP_CALLMODEL bfp_pivotcount(lprec *lp)
  79:lp_solve_5.5\bfp/lp_BFP1.c **** {
 492               		.loc 1 79 0
 493               		.cfi_startproc
 494 022a CF93      		push r28
 495               	.LCFI28:
 496               		.cfi_def_cfa_offset 3
 497               		.cfi_offset 28, -2
 498 022c DF93      		push r29
 499               	.LCFI29:
 500               		.cfi_def_cfa_offset 4
 501               		.cfi_offset 29, -3
 502 022e 00D0      		rcall .
 503               	.LCFI30:
 504               		.cfi_def_cfa_offset 6
 505 0230 CDB7      		in r28,__SP_L__
 506 0232 DEB7      		in r29,__SP_H__
 507               	.LCFI31:
 508               		.cfi_def_cfa_register 28
 509               	/* prologue: function */
 510               	/* frame size = 2 */
 511               	/* stack size = 4 */
 512               	.L__stack_usage = 4
 513 0234 9A83      		std Y+2,r25
 514 0236 8983      		std Y+1,r24
  80:lp_solve_5.5\bfp/lp_BFP1.c ****   return(lp->invB->num_pivots);
 515               		.loc 1 80 0
 516 0238 8981      		ldd r24,Y+1
 517 023a 9A81      		ldd r25,Y+2
 518 023c 8854      		subi r24,72
 519 023e 9D4F      		sbci r25,-3
 520 0240 FC01      		movw r30,r24
 521 0242 8081      		ld r24,Z
 522 0244 9181      		ldd r25,Z+1
 523 0246 FC01      		movw r30,r24
 524 0248 84A5      		ldd r24,Z+44
 525 024a 95A5      		ldd r25,Z+45
 526               	/* epilogue start */
  81:lp_solve_5.5\bfp/lp_BFP1.c **** }
 527               		.loc 1 81 0
 528 024c 0F90      		pop __tmp_reg__
 529 024e 0F90      		pop __tmp_reg__
 530 0250 DF91      		pop r29
 531 0252 CF91      		pop r28
 532 0254 0895      		ret
 533               		.cfi_endproc
 534               	.LFE14:
 536               	.global	bfp_refactcount
 538               	bfp_refactcount:
 539               	.LFB15:
  82:lp_solve_5.5\bfp/lp_BFP1.c **** 
  83:lp_solve_5.5\bfp/lp_BFP1.c **** 
  84:lp_solve_5.5\bfp/lp_BFP1.c **** /* DON'T MODIFY */
  85:lp_solve_5.5\bfp/lp_BFP1.c **** int BFP_CALLMODEL bfp_refactcount(lprec *lp, int kind)
  86:lp_solve_5.5\bfp/lp_BFP1.c **** {
 540               		.loc 1 86 0
 541               		.cfi_startproc
 542 0256 CF93      		push r28
 543               	.LCFI32:
 544               		.cfi_def_cfa_offset 3
 545               		.cfi_offset 28, -2
 546 0258 DF93      		push r29
 547               	.LCFI33:
 548               		.cfi_def_cfa_offset 4
 549               		.cfi_offset 29, -3
 550 025a 00D0      		rcall .
 551 025c 00D0      		rcall .
 552               	.LCFI34:
 553               		.cfi_def_cfa_offset 8
 554 025e CDB7      		in r28,__SP_L__
 555 0260 DEB7      		in r29,__SP_H__
 556               	.LCFI35:
 557               		.cfi_def_cfa_register 28
 558               	/* prologue: function */
 559               	/* frame size = 4 */
 560               	/* stack size = 6 */
 561               	.L__stack_usage = 6
 562 0262 9A83      		std Y+2,r25
 563 0264 8983      		std Y+1,r24
 564 0266 7C83      		std Y+4,r23
 565 0268 6B83      		std Y+3,r22
  87:lp_solve_5.5\bfp/lp_BFP1.c ****   if(kind == BFP_STAT_REFACT_TOTAL)
 566               		.loc 1 87 0
 567 026a 8B81      		ldd r24,Y+3
 568 026c 9C81      		ldd r25,Y+4
 569 026e 892B      		or r24,r25
 570 0270 01F4      		brne .L24
  88:lp_solve_5.5\bfp/lp_BFP1.c ****     return(lp->invB->num_refact);
 571               		.loc 1 88 0
 572 0272 8981      		ldd r24,Y+1
 573 0274 9A81      		ldd r25,Y+2
 574 0276 8854      		subi r24,72
 575 0278 9D4F      		sbci r25,-3
 576 027a FC01      		movw r30,r24
 577 027c 8081      		ld r24,Z
 578 027e 9181      		ldd r25,Z+1
 579 0280 FC01      		movw r30,r24
 580 0282 868D      		ldd r24,Z+30
 581 0284 978D      		ldd r25,Z+31
 582 0286 00C0      		rjmp .L25
 583               	.L24:
  89:lp_solve_5.5\bfp/lp_BFP1.c ****   else if(kind == BFP_STAT_REFACT_TIMED)
 584               		.loc 1 89 0
 585 0288 8B81      		ldd r24,Y+3
 586 028a 9C81      		ldd r25,Y+4
 587 028c 0197      		sbiw r24,1
 588 028e 01F4      		brne .L26
  90:lp_solve_5.5\bfp/lp_BFP1.c ****     return(lp->invB->num_timed_refact);
 589               		.loc 1 90 0
 590 0290 8981      		ldd r24,Y+1
 591 0292 9A81      		ldd r25,Y+2
 592 0294 8854      		subi r24,72
 593 0296 9D4F      		sbci r25,-3
 594 0298 FC01      		movw r30,r24
 595 029a 8081      		ld r24,Z
 596 029c 9181      		ldd r25,Z+1
 597 029e FC01      		movw r30,r24
 598 02a0 80A1      		ldd r24,Z+32
 599 02a2 91A1      		ldd r25,Z+33
 600 02a4 00C0      		rjmp .L25
 601               	.L26:
  91:lp_solve_5.5\bfp/lp_BFP1.c ****   else if(kind == BFP_STAT_REFACT_DENSE)
 602               		.loc 1 91 0
 603 02a6 8B81      		ldd r24,Y+3
 604 02a8 9C81      		ldd r25,Y+4
 605 02aa 0297      		sbiw r24,2
 606 02ac 01F4      		brne .L27
  92:lp_solve_5.5\bfp/lp_BFP1.c ****     return(lp->invB->num_dense_refact);
 607               		.loc 1 92 0
 608 02ae 8981      		ldd r24,Y+1
 609 02b0 9A81      		ldd r25,Y+2
 610 02b2 8854      		subi r24,72
 611 02b4 9D4F      		sbci r25,-3
 612 02b6 FC01      		movw r30,r24
 613 02b8 8081      		ld r24,Z
 614 02ba 9181      		ldd r25,Z+1
 615 02bc FC01      		movw r30,r24
 616 02be 82A1      		ldd r24,Z+34
 617 02c0 93A1      		ldd r25,Z+35
 618 02c2 00C0      		rjmp .L25
 619               	.L27:
  93:lp_solve_5.5\bfp/lp_BFP1.c ****   else
  94:lp_solve_5.5\bfp/lp_BFP1.c ****     return( BFP_STAT_ERROR );
 620               		.loc 1 94 0
 621 02c4 8FEF      		ldi r24,lo8(-1)
 622 02c6 9FEF      		ldi r25,lo8(-1)
 623               	.L25:
 624               	/* epilogue start */
  95:lp_solve_5.5\bfp/lp_BFP1.c **** }
 625               		.loc 1 95 0
 626 02c8 0F90      		pop __tmp_reg__
 627 02ca 0F90      		pop __tmp_reg__
 628 02cc 0F90      		pop __tmp_reg__
 629 02ce 0F90      		pop __tmp_reg__
 630 02d0 DF91      		pop r29
 631 02d2 CF91      		pop r28
 632 02d4 0895      		ret
 633               		.cfi_endproc
 634               	.LFE15:
 636               	.global	__subsf3
 637               	.global	__gtsf2
 638               	.global	__ltsf2
 639               	.global	__mulsf3
 640               	.global	bfp_mustrefactorize
 642               	bfp_mustrefactorize:
 643               	.LFB16:
  96:lp_solve_5.5\bfp/lp_BFP1.c **** 
  97:lp_solve_5.5\bfp/lp_BFP1.c **** /* DON'T MODIFY */
  98:lp_solve_5.5\bfp/lp_BFP1.c **** MYBOOL BFP_CALLMODEL bfp_mustrefactorize(lprec *lp)
  99:lp_solve_5.5\bfp/lp_BFP1.c **** {
 644               		.loc 1 99 0
 645               		.cfi_startproc
 646 02d6 CF92      		push r12
 647               	.LCFI36:
 648               		.cfi_def_cfa_offset 3
 649               		.cfi_offset 12, -2
 650 02d8 DF92      		push r13
 651               	.LCFI37:
 652               		.cfi_def_cfa_offset 4
 653               		.cfi_offset 13, -3
 654 02da EF92      		push r14
 655               	.LCFI38:
 656               		.cfi_def_cfa_offset 5
 657               		.cfi_offset 14, -4
 658 02dc FF92      		push r15
 659               	.LCFI39:
 660               		.cfi_def_cfa_offset 6
 661               		.cfi_offset 15, -5
 662 02de 0F93      		push r16
 663               	.LCFI40:
 664               		.cfi_def_cfa_offset 7
 665               		.cfi_offset 16, -6
 666 02e0 1F93      		push r17
 667               	.LCFI41:
 668               		.cfi_def_cfa_offset 8
 669               		.cfi_offset 17, -7
 670 02e2 CF93      		push r28
 671               	.LCFI42:
 672               		.cfi_def_cfa_offset 9
 673               		.cfi_offset 28, -8
 674 02e4 DF93      		push r29
 675               	.LCFI43:
 676               		.cfi_def_cfa_offset 10
 677               		.cfi_offset 29, -9
 678 02e6 CDB7      		in r28,__SP_L__
 679 02e8 DEB7      		in r29,__SP_H__
 680               	.LCFI44:
 681               		.cfi_def_cfa_register 28
 682 02ea 2997      		sbiw r28,9
 683               	.LCFI45:
 684               		.cfi_def_cfa_offset 19
 685 02ec 0FB6      		in __tmp_reg__,__SREG__
 686 02ee F894      		cli
 687 02f0 DEBF      		out __SP_H__,r29
 688 02f2 0FBE      		out __SREG__,__tmp_reg__
 689 02f4 CDBF      		out __SP_L__,r28
 690               	/* prologue: function */
 691               	/* frame size = 9 */
 692               	/* stack size = 17 */
 693               	.L__stack_usage = 17
 694 02f6 9987      		std Y+9,r25
 695 02f8 8887      		std Y+8,r24
 100:lp_solve_5.5\bfp/lp_BFP1.c ****   MYBOOL test = lp->is_action(lp->spx_action, ACTION_REINVERT | ACTION_TIMEDREINVERT);
 696               		.loc 1 100 0
 697 02fa 8885      		ldd r24,Y+8
 698 02fc 9985      		ldd r25,Y+9
 699 02fe 8E50      		subi r24,14
 700 0300 9C4F      		sbci r25,-4
 701 0302 FC01      		movw r30,r24
 702 0304 2081      		ld r18,Z
 703 0306 3181      		ldd r19,Z+1
 704 0308 8885      		ldd r24,Y+8
 705 030a 9985      		ldd r25,Y+9
 706 030c 8E50      		subi r24,14
 707 030e 9D4F      		sbci r25,-3
 708 0310 FC01      		movw r30,r24
 709 0312 8081      		ld r24,Z
 710 0314 9181      		ldd r25,Z+1
 711 0316 60E3      		ldi r22,lo8(48)
 712 0318 70E0      		ldi r23,0
 713 031a F901      		movw r30,r18
 714 031c 0995      		icall
 715 031e 8D83      		std Y+5,r24
 101:lp_solve_5.5\bfp/lp_BFP1.c ****   if(!test) {
 716               		.loc 1 101 0
 717 0320 8D81      		ldd r24,Y+5
 718 0322 8823      		tst r24
 719 0324 01F0      		breq .+2
 720 0326 00C0      		rjmp .L29
 721               	.LBB2:
 102:lp_solve_5.5\bfp/lp_BFP1.c ****     REAL   f;
 103:lp_solve_5.5\bfp/lp_BFP1.c ****     INVrec *lu = lp->invB;
 722               		.loc 1 103 0
 723 0328 8885      		ldd r24,Y+8
 724 032a 9985      		ldd r25,Y+9
 725 032c 8854      		subi r24,72
 726 032e 9D4F      		sbci r25,-3
 727 0330 FC01      		movw r30,r24
 728 0332 8081      		ld r24,Z
 729 0334 9181      		ldd r25,Z+1
 730 0336 9F83      		std Y+7,r25
 731 0338 8E83      		std Y+6,r24
 104:lp_solve_5.5\bfp/lp_BFP1.c **** 
 105:lp_solve_5.5\bfp/lp_BFP1.c ****     if(lu->num_pivots > 0)
 732               		.loc 1 105 0
 733 033a 8E81      		ldd r24,Y+6
 734 033c 9F81      		ldd r25,Y+7
 735 033e FC01      		movw r30,r24
 736 0340 84A5      		ldd r24,Z+44
 737 0342 95A5      		ldd r25,Z+45
 738 0344 1816      		cp __zero_reg__,r24
 739 0346 1906      		cpc __zero_reg__,r25
 740 0348 04F4      		brge .L30
 106:lp_solve_5.5\bfp/lp_BFP1.c ****       f = (timeNow()-lu->time_refactstart) / (REAL) lu->num_pivots;
 741               		.loc 1 106 0
 742 034a 0E94 0000 		call timeNow
 743 034e 7B01      		movw r14,r22
 744 0350 8C01      		movw r16,r24
 745 0352 8E81      		ldd r24,Y+6
 746 0354 9F81      		ldd r25,Y+7
 747 0356 FC01      		movw r30,r24
 748 0358 84A1      		ldd r24,Z+36
 749 035a 95A1      		ldd r25,Z+37
 750 035c A6A1      		ldd r26,Z+38
 751 035e B7A1      		ldd r27,Z+39
 752 0360 9C01      		movw r18,r24
 753 0362 AD01      		movw r20,r26
 754 0364 C801      		movw r24,r16
 755 0366 B701      		movw r22,r14
 756 0368 0E94 0000 		call __subsf3
 757 036c DC01      		movw r26,r24
 758 036e CB01      		movw r24,r22
 759 0370 6C01      		movw r12,r24
 760 0372 7D01      		movw r14,r26
 761 0374 8E81      		ldd r24,Y+6
 762 0376 9F81      		ldd r25,Y+7
 763 0378 FC01      		movw r30,r24
 764 037a 84A5      		ldd r24,Z+44
 765 037c 95A5      		ldd r25,Z+45
 766 037e 092E      		mov __tmp_reg__,r25
 767 0380 000C      		lsl r0
 768 0382 AA0B      		sbc r26,r26
 769 0384 BB0B      		sbc r27,r27
 770 0386 BC01      		movw r22,r24
 771 0388 CD01      		movw r24,r26
 772 038a 0E94 0000 		call __floatsisf
 773 038e DC01      		movw r26,r24
 774 0390 CB01      		movw r24,r22
 775 0392 9C01      		movw r18,r24
 776 0394 AD01      		movw r20,r26
 777 0396 C701      		movw r24,r14
 778 0398 B601      		movw r22,r12
 779 039a 0E94 0000 		call __divsf3
 780 039e DC01      		movw r26,r24
 781 03a0 CB01      		movw r24,r22
 782 03a2 8983      		std Y+1,r24
 783 03a4 9A83      		std Y+2,r25
 784 03a6 AB83      		std Y+3,r26
 785 03a8 BC83      		std Y+4,r27
 786 03aa 00C0      		rjmp .L31
 787               	.L30:
 107:lp_solve_5.5\bfp/lp_BFP1.c ****     else
 108:lp_solve_5.5\bfp/lp_BFP1.c ****       f = 0;
 788               		.loc 1 108 0
 789 03ac 1982      		std Y+1,__zero_reg__
 790 03ae 1A82      		std Y+2,__zero_reg__
 791 03b0 1B82      		std Y+3,__zero_reg__
 792 03b2 1C82      		std Y+4,__zero_reg__
 793               	.L31:
 109:lp_solve_5.5\bfp/lp_BFP1.c **** 
 110:lp_solve_5.5\bfp/lp_BFP1.c ****     /* Always refactorize if we are above the set pivot limit */
 111:lp_solve_5.5\bfp/lp_BFP1.c ****     if(lu->force_refact ||
 794               		.loc 1 111 0
 795 03b4 8E81      		ldd r24,Y+6
 796 03b6 9F81      		ldd r25,Y+7
 797 03b8 FC01      		movw r30,r24
 798 03ba 83A9      		ldd r24,Z+51
 799 03bc 8823      		tst r24
 800 03be 01F4      		brne .L32
 112:lp_solve_5.5\bfp/lp_BFP1.c ****        (lu->num_pivots >= lp->bfp_pivotmax(lp)))
 801               		.loc 1 112 0 discriminator 1
 802 03c0 8E81      		ldd r24,Y+6
 803 03c2 9F81      		ldd r25,Y+7
 804 03c4 FC01      		movw r30,r24
 805 03c6 04A5      		ldd r16,Z+44
 806 03c8 15A5      		ldd r17,Z+45
 807 03ca 8885      		ldd r24,Y+8
 808 03cc 9985      		ldd r25,Y+9
 809 03ce 8E53      		subi r24,62
 810 03d0 9C4F      		sbci r25,-4
 811 03d2 FC01      		movw r30,r24
 812 03d4 2081      		ld r18,Z
 813 03d6 3181      		ldd r19,Z+1
 814 03d8 8885      		ldd r24,Y+8
 815 03da 9985      		ldd r25,Y+9
 816 03dc F901      		movw r30,r18
 817 03de 0995      		icall
 111:lp_solve_5.5\bfp/lp_BFP1.c ****        (lu->num_pivots >= lp->bfp_pivotmax(lp)))
 818               		.loc 1 111 0 discriminator 1
 819 03e0 0817      		cp r16,r24
 820 03e2 1907      		cpc r17,r25
 821 03e4 04F0      		brlt .L33
 822               	.L32:
 113:lp_solve_5.5\bfp/lp_BFP1.c ****       lp->set_action(&lp->spx_action, ACTION_REINVERT);
 823               		.loc 1 113 0
 824 03e6 8885      		ldd r24,Y+8
 825 03e8 9985      		ldd r25,Y+9
 826 03ea 8051      		subi r24,16
 827 03ec 9C4F      		sbci r25,-4
 828 03ee FC01      		movw r30,r24
 829 03f0 2081      		ld r18,Z
 830 03f2 3181      		ldd r19,Z+1
 831 03f4 8885      		ldd r24,Y+8
 832 03f6 9985      		ldd r25,Y+9
 833 03f8 8E50      		subi r24,14
 834 03fa 9D4F      		sbci r25,-3
 835 03fc 60E1      		ldi r22,lo8(16)
 836 03fe 70E0      		ldi r23,0
 837 0400 F901      		movw r30,r18
 838 0402 0995      		icall
 839 0404 00C0      		rjmp .L29
 840               	.L33:
 114:lp_solve_5.5\bfp/lp_BFP1.c **** 
 115:lp_solve_5.5\bfp/lp_BFP1.c ****     /* Check if we should do an optimal time-based refactorization */
 116:lp_solve_5.5\bfp/lp_BFP1.c ****     else if(lu->timed_refact && (lu->num_pivots > 1) &&
 841               		.loc 1 116 0
 842 0406 8E81      		ldd r24,Y+6
 843 0408 9F81      		ldd r25,Y+7
 844 040a FC01      		movw r30,r24
 845 040c 84A9      		ldd r24,Z+52
 846 040e 8823      		tst r24
 847 0410 01F4      		brne .+2
 848 0412 00C0      		rjmp .L34
 849               		.loc 1 116 0 is_stmt 0 discriminator 1
 850 0414 8E81      		ldd r24,Y+6
 851 0416 9F81      		ldd r25,Y+7
 852 0418 FC01      		movw r30,r24
 853 041a 84A5      		ldd r24,Z+44
 854 041c 95A5      		ldd r25,Z+45
 855 041e 0297      		sbiw r24,2
 856 0420 04F4      		brge .+2
 857 0422 00C0      		rjmp .L34
 858               		.loc 1 116 0 discriminator 2
 859 0424 2DEC      		ldi r18,lo8(-51)
 860 0426 3CEC      		ldi r19,lo8(-52)
 861 0428 4CE4      		ldi r20,lo8(76)
 862 042a 5DE3      		ldi r21,lo8(61)
 863 042c 6981      		ldd r22,Y+1
 864 042e 7A81      		ldd r23,Y+2
 865 0430 8B81      		ldd r24,Y+3
 866 0432 9C81      		ldd r25,Y+4
 867 0434 0E94 0000 		call __gtsf2
 868 0438 1816      		cp __zero_reg__,r24
 869 043a 04F0      		brlt .+2
 870 043c 00C0      		rjmp .L34
 117:lp_solve_5.5\bfp/lp_BFP1.c ****             (f > MIN_TIMEPIVOT) && (f > lu->time_refactnext)) {
 871               		.loc 1 117 0 is_stmt 1
 872 043e 8E81      		ldd r24,Y+6
 873 0440 9F81      		ldd r25,Y+7
 874 0442 FC01      		movw r30,r24
 875 0444 80A5      		ldd r24,Z+40
 876 0446 91A5      		ldd r25,Z+41
 877 0448 A2A5      		ldd r26,Z+42
 878 044a B3A5      		ldd r27,Z+43
 879 044c 2981      		ldd r18,Y+1
 880 044e 3A81      		ldd r19,Y+2
 881 0450 4B81      		ldd r20,Y+3
 882 0452 5C81      		ldd r21,Y+4
 883 0454 BC01      		movw r22,r24
 884 0456 CD01      		movw r24,r26
 885 0458 0E94 0000 		call __ltsf2
 886 045c 8823      		tst r24
 887 045e 04F0      		brlt .+2
 888 0460 00C0      		rjmp .L34
 118:lp_solve_5.5\bfp/lp_BFP1.c ****       /* If we have excessive time usage in automatic mode then
 119:lp_solve_5.5\bfp/lp_BFP1.c ****          treat as untimed case and update optimal time metric, ... */
 120:lp_solve_5.5\bfp/lp_BFP1.c ****       if((lu->timed_refact == AUTOMATIC) &&
 889               		.loc 1 120 0
 890 0462 8E81      		ldd r24,Y+6
 891 0464 9F81      		ldd r25,Y+7
 892 0466 FC01      		movw r30,r24
 893 0468 84A9      		ldd r24,Z+52
 894 046a 8230      		cpi r24,lo8(2)
 895 046c 01F0      		breq .+2
 896 046e 00C0      		rjmp .L37
 121:lp_solve_5.5\bfp/lp_BFP1.c ****          (lu->num_pivots < 0.4*lp->bfp_pivotmax(lp)))
 897               		.loc 1 121 0 discriminator 1
 898 0470 8E81      		ldd r24,Y+6
 899 0472 9F81      		ldd r25,Y+7
 900 0474 FC01      		movw r30,r24
 901 0476 84A5      		ldd r24,Z+44
 902 0478 95A5      		ldd r25,Z+45
 903 047a 092E      		mov __tmp_reg__,r25
 904 047c 000C      		lsl r0
 905 047e AA0B      		sbc r26,r26
 906 0480 BB0B      		sbc r27,r27
 907 0482 BC01      		movw r22,r24
 908 0484 CD01      		movw r24,r26
 909 0486 0E94 0000 		call __floatsisf
 910 048a 6B01      		movw r12,r22
 911 048c 7C01      		movw r14,r24
 912 048e 8885      		ldd r24,Y+8
 913 0490 9985      		ldd r25,Y+9
 914 0492 8E53      		subi r24,62
 915 0494 9C4F      		sbci r25,-4
 916 0496 FC01      		movw r30,r24
 917 0498 2081      		ld r18,Z
 918 049a 3181      		ldd r19,Z+1
 919 049c 8885      		ldd r24,Y+8
 920 049e 9985      		ldd r25,Y+9
 921 04a0 F901      		movw r30,r18
 922 04a2 0995      		icall
 923 04a4 092E      		mov __tmp_reg__,r25
 924 04a6 000C      		lsl r0
 925 04a8 AA0B      		sbc r26,r26
 926 04aa BB0B      		sbc r27,r27
 927 04ac BC01      		movw r22,r24
 928 04ae CD01      		movw r24,r26
 929 04b0 0E94 0000 		call __floatsisf
 930 04b4 DC01      		movw r26,r24
 931 04b6 CB01      		movw r24,r22
 932 04b8 2DEC      		ldi r18,lo8(-51)
 933 04ba 3CEC      		ldi r19,lo8(-52)
 934 04bc 4CEC      		ldi r20,lo8(-52)
 935 04be 5EE3      		ldi r21,lo8(62)
 936 04c0 BC01      		movw r22,r24
 937 04c2 CD01      		movw r24,r26
 938 04c4 0E94 0000 		call __mulsf3
 939 04c8 DC01      		movw r26,r24
 940 04ca CB01      		movw r24,r22
 120:lp_solve_5.5\bfp/lp_BFP1.c ****          (lu->num_pivots < 0.4*lp->bfp_pivotmax(lp)))
 941               		.loc 1 120 0 discriminator 1
 942 04cc 9C01      		movw r18,r24
 943 04ce AD01      		movw r20,r26
 944 04d0 C701      		movw r24,r14
 945 04d2 B601      		movw r22,r12
 946 04d4 0E94 0000 		call __ltsf2
 947 04d8 8823      		tst r24
 948 04da 04F4      		brge .L37
 122:lp_solve_5.5\bfp/lp_BFP1.c ****         lu->time_refactnext = f;
 949               		.loc 1 122 0
 950 04dc 2E81      		ldd r18,Y+6
 951 04de 3F81      		ldd r19,Y+7
 952 04e0 8981      		ldd r24,Y+1
 953 04e2 9A81      		ldd r25,Y+2
 954 04e4 AB81      		ldd r26,Y+3
 955 04e6 BC81      		ldd r27,Y+4
 956 04e8 F901      		movw r30,r18
 957 04ea 80A7      		std Z+40,r24
 958 04ec 91A7      		std Z+41,r25
 959 04ee A2A7      		std Z+42,r26
 960 04f0 B3A7      		std Z+43,r27
 120:lp_solve_5.5\bfp/lp_BFP1.c ****          (lu->num_pivots < 0.4*lp->bfp_pivotmax(lp)))
 961               		.loc 1 120 0
 962 04f2 00C0      		rjmp .L29
 963               	.L37:
 123:lp_solve_5.5\bfp/lp_BFP1.c ****       /* ... otherwise set flag for the optimal time-based refactorization */
 124:lp_solve_5.5\bfp/lp_BFP1.c ****       else
 125:lp_solve_5.5\bfp/lp_BFP1.c ****         lp->set_action(&lp->spx_action, ACTION_TIMEDREINVERT);
 964               		.loc 1 125 0
 965 04f4 8885      		ldd r24,Y+8
 966 04f6 9985      		ldd r25,Y+9
 967 04f8 8051      		subi r24,16
 968 04fa 9C4F      		sbci r25,-4
 969 04fc FC01      		movw r30,r24
 970 04fe 2081      		ld r18,Z
 971 0500 3181      		ldd r19,Z+1
 972 0502 8885      		ldd r24,Y+8
 973 0504 9985      		ldd r25,Y+9
 974 0506 8E50      		subi r24,14
 975 0508 9D4F      		sbci r25,-3
 976 050a 60E2      		ldi r22,lo8(32)
 977 050c 70E0      		ldi r23,0
 978 050e F901      		movw r30,r18
 979 0510 0995      		icall
 120:lp_solve_5.5\bfp/lp_BFP1.c ****          (lu->num_pivots < 0.4*lp->bfp_pivotmax(lp)))
 980               		.loc 1 120 0
 981 0512 00C0      		rjmp .L29
 982               	.L34:
 126:lp_solve_5.5\bfp/lp_BFP1.c ****     }
 127:lp_solve_5.5\bfp/lp_BFP1.c **** 
 128:lp_solve_5.5\bfp/lp_BFP1.c ****     /* Otherwise simply update the optimal time metric */
 129:lp_solve_5.5\bfp/lp_BFP1.c ****     else
 130:lp_solve_5.5\bfp/lp_BFP1.c ****       lu->time_refactnext = f;
 983               		.loc 1 130 0
 984 0514 2E81      		ldd r18,Y+6
 985 0516 3F81      		ldd r19,Y+7
 986 0518 8981      		ldd r24,Y+1
 987 051a 9A81      		ldd r25,Y+2
 988 051c AB81      		ldd r26,Y+3
 989 051e BC81      		ldd r27,Y+4
 990 0520 F901      		movw r30,r18
 991 0522 80A7      		std Z+40,r24
 992 0524 91A7      		std Z+41,r25
 993 0526 A2A7      		std Z+42,r26
 994 0528 B3A7      		std Z+43,r27
 995               	.L29:
 996               	.LBE2:
 131:lp_solve_5.5\bfp/lp_BFP1.c **** #if 0
 132:lp_solve_5.5\bfp/lp_BFP1.c ****     if(lu->num_pivots % 10 == 0)
 133:lp_solve_5.5\bfp/lp_BFP1.c ****       lp->report(lp, NORMAL, "bfp pivot %d - start %f - timestat %f",
 134:lp_solve_5.5\bfp/lp_BFP1.c ****                              lu->num_pivots, lu->time_refactstart, f);
 135:lp_solve_5.5\bfp/lp_BFP1.c **** #endif
 136:lp_solve_5.5\bfp/lp_BFP1.c ****   }
 137:lp_solve_5.5\bfp/lp_BFP1.c **** 
 138:lp_solve_5.5\bfp/lp_BFP1.c ****   test = lp->is_action(lp->spx_action, ACTION_REINVERT | ACTION_TIMEDREINVERT);
 997               		.loc 1 138 0
 998 052a 8885      		ldd r24,Y+8
 999 052c 9985      		ldd r25,Y+9
 1000 052e 8E50      		subi r24,14
 1001 0530 9C4F      		sbci r25,-4
 1002 0532 FC01      		movw r30,r24
 1003 0534 2081      		ld r18,Z
 1004 0536 3181      		ldd r19,Z+1
 1005 0538 8885      		ldd r24,Y+8
 1006 053a 9985      		ldd r25,Y+9
 1007 053c 8E50      		subi r24,14
 1008 053e 9D4F      		sbci r25,-3
 1009 0540 FC01      		movw r30,r24
 1010 0542 8081      		ld r24,Z
 1011 0544 9181      		ldd r25,Z+1
 1012 0546 60E3      		ldi r22,lo8(48)
 1013 0548 70E0      		ldi r23,0
 1014 054a F901      		movw r30,r18
 1015 054c 0995      		icall
 1016 054e 8D83      		std Y+5,r24
 139:lp_solve_5.5\bfp/lp_BFP1.c ****   return(test);
 1017               		.loc 1 139 0
 1018 0550 8D81      		ldd r24,Y+5
 1019               	/* epilogue start */
 140:lp_solve_5.5\bfp/lp_BFP1.c **** }
 1020               		.loc 1 140 0
 1021 0552 2996      		adiw r28,9
 1022 0554 0FB6      		in __tmp_reg__,__SREG__
 1023 0556 F894      		cli
 1024 0558 DEBF      		out __SP_H__,r29
 1025 055a 0FBE      		out __SREG__,__tmp_reg__
 1026 055c CDBF      		out __SP_L__,r28
 1027 055e DF91      		pop r29
 1028 0560 CF91      		pop r28
 1029 0562 1F91      		pop r17
 1030 0564 0F91      		pop r16
 1031 0566 FF90      		pop r15
 1032 0568 EF90      		pop r14
 1033 056a DF90      		pop r13
 1034 056c CF90      		pop r12
 1035 056e 0895      		ret
 1036               		.cfi_endproc
 1037               	.LFE16:
 1039               	.global	bfp_isSetI
 1041               	bfp_isSetI:
 1042               	.LFB17:
 141:lp_solve_5.5\bfp/lp_BFP1.c **** 
 142:lp_solve_5.5\bfp/lp_BFP1.c **** /* DON'T MODIFY */
 143:lp_solve_5.5\bfp/lp_BFP1.c **** MYBOOL BFP_CALLMODEL bfp_isSetI(lprec *lp)
 144:lp_solve_5.5\bfp/lp_BFP1.c **** {
 1043               		.loc 1 144 0
 1044               		.cfi_startproc
 1045 0570 CF93      		push r28
 1046               	.LCFI46:
 1047               		.cfi_def_cfa_offset 3
 1048               		.cfi_offset 28, -2
 1049 0572 DF93      		push r29
 1050               	.LCFI47:
 1051               		.cfi_def_cfa_offset 4
 1052               		.cfi_offset 29, -3
 1053 0574 00D0      		rcall .
 1054               	.LCFI48:
 1055               		.cfi_def_cfa_offset 6
 1056 0576 CDB7      		in r28,__SP_L__
 1057 0578 DEB7      		in r29,__SP_H__
 1058               	.LCFI49:
 1059               		.cfi_def_cfa_register 28
 1060               	/* prologue: function */
 1061               	/* frame size = 2 */
 1062               	/* stack size = 4 */
 1063               	.L__stack_usage = 4
 1064 057a 9A83      		std Y+2,r25
 1065 057c 8983      		std Y+1,r24
 145:lp_solve_5.5\bfp/lp_BFP1.c ****   return( (MYBOOL) lp->invB->set_Bidentity );
 1066               		.loc 1 145 0
 1067 057e 8981      		ldd r24,Y+1
 1068 0580 9A81      		ldd r25,Y+2
 1069 0582 8854      		subi r24,72
 1070 0584 9D4F      		sbci r25,-3
 1071 0586 FC01      		movw r30,r24
 1072 0588 8081      		ld r24,Z
 1073 058a 9181      		ldd r25,Z+1
 1074 058c FC01      		movw r30,r24
 1075 058e 85A9      		ldd r24,Z+53
 1076               	/* epilogue start */
 146:lp_solve_5.5\bfp/lp_BFP1.c **** }
 1077               		.loc 1 146 0
 1078 0590 0F90      		pop __tmp_reg__
 1079 0592 0F90      		pop __tmp_reg__
 1080 0594 DF91      		pop r29
 1081 0596 CF91      		pop r28
 1082 0598 0895      		ret
 1083               		.cfi_endproc
 1084               	.LFE17:
 1086               		.section	.rodata
 1087               	.LC0:
 1088 0000 6266 705F 		.string	"bfp_createMDO: Internal error %d in minimum degree ordering routine"
 1088      6372 6561 
 1088      7465 4D44 
 1088      4F3A 2049 
 1088      6E74 6572 
 1089               		.text
 1090               	.global	bfp_createMDO
 1092               	bfp_createMDO:
 1093               	.LFB18:
 147:lp_solve_5.5\bfp/lp_BFP1.c **** 
 148:lp_solve_5.5\bfp/lp_BFP1.c **** /* DON'T MODIFY */
 149:lp_solve_5.5\bfp/lp_BFP1.c **** int *bfp_createMDO(lprec *lp, MYBOOL *usedpos, int count, MYBOOL doMDO)
 150:lp_solve_5.5\bfp/lp_BFP1.c **** {
 1094               		.loc 1 150 0
 1095               		.cfi_startproc
 1096 059a 0F93      		push r16
 1097               	.LCFI50:
 1098               		.cfi_def_cfa_offset 3
 1099               		.cfi_offset 16, -2
 1100 059c CF93      		push r28
 1101               	.LCFI51:
 1102               		.cfi_def_cfa_offset 4
 1103               		.cfi_offset 28, -3
 1104 059e DF93      		push r29
 1105               	.LCFI52:
 1106               		.cfi_def_cfa_offset 5
 1107               		.cfi_offset 29, -4
 1108 05a0 CDB7      		in r28,__SP_L__
 1109 05a2 DEB7      		in r29,__SP_H__
 1110               	.LCFI53:
 1111               		.cfi_def_cfa_register 28
 1112 05a4 2F97      		sbiw r28,15
 1113               	.LCFI54:
 1114               		.cfi_def_cfa_offset 20
 1115 05a6 0FB6      		in __tmp_reg__,__SREG__
 1116 05a8 F894      		cli
 1117 05aa DEBF      		out __SP_H__,r29
 1118 05ac 0FBE      		out __SREG__,__tmp_reg__
 1119 05ae CDBF      		out __SP_L__,r28
 1120               	/* prologue: function */
 1121               	/* frame size = 15 */
 1122               	/* stack size = 18 */
 1123               	.L__stack_usage = 18
 1124 05b0 9A87      		std Y+10,r25
 1125 05b2 8987      		std Y+9,r24
 1126 05b4 7C87      		std Y+12,r23
 1127 05b6 6B87      		std Y+11,r22
 1128 05b8 5E87      		std Y+14,r21
 1129 05ba 4D87      		std Y+13,r20
 1130 05bc 2F87      		std Y+15,r18
 151:lp_solve_5.5\bfp/lp_BFP1.c ****   int *mdo, i, j, kk;
 152:lp_solve_5.5\bfp/lp_BFP1.c **** 
 153:lp_solve_5.5\bfp/lp_BFP1.c ****   mdo = (int *) malloc((count + 1)*sizeof(*mdo));
 1131               		.loc 1 153 0
 1132 05be 8D85      		ldd r24,Y+13
 1133 05c0 9E85      		ldd r25,Y+14
 1134 05c2 0196      		adiw r24,1
 1135 05c4 880F      		lsl r24
 1136 05c6 991F      		rol r25
 1137 05c8 0E94 0000 		call malloc
 1138 05cc 9A83      		std Y+2,r25
 1139 05ce 8983      		std Y+1,r24
 154:lp_solve_5.5\bfp/lp_BFP1.c **** /*  allocINT(lp, &mdo, count + 1, FALSE); */
 155:lp_solve_5.5\bfp/lp_BFP1.c **** 
 156:lp_solve_5.5\bfp/lp_BFP1.c ****  /* Fill the mdo[] array with remaining full-pivot basic user variables */
 157:lp_solve_5.5\bfp/lp_BFP1.c ****   kk = 0;
 1140               		.loc 1 157 0
 1141 05d0 1E82      		std Y+6,__zero_reg__
 1142 05d2 1D82      		std Y+5,__zero_reg__
 158:lp_solve_5.5\bfp/lp_BFP1.c ****   for(j = 1; j <= lp->columns; j++) {
 1143               		.loc 1 158 0
 1144 05d4 81E0      		ldi r24,lo8(1)
 1145 05d6 90E0      		ldi r25,0
 1146 05d8 9C83      		std Y+4,r25
 1147 05da 8B83      		std Y+3,r24
 1148 05dc 00C0      		rjmp .L47
 1149               	.L49:
 159:lp_solve_5.5\bfp/lp_BFP1.c ****     i = lp->rows + j;
 1150               		.loc 1 159 0
 1151 05de 8985      		ldd r24,Y+9
 1152 05e0 9A85      		ldd r25,Y+10
 1153 05e2 8651      		subi r24,22
 1154 05e4 9E4F      		sbci r25,-2
 1155 05e6 DC01      		movw r26,r24
 1156 05e8 2D91      		ld r18,X+
 1157 05ea 3C91      		ld r19,X
 1158 05ec 8B81      		ldd r24,Y+3
 1159 05ee 9C81      		ldd r25,Y+4
 1160 05f0 820F      		add r24,r18
 1161 05f2 931F      		adc r25,r19
 1162 05f4 9887      		std Y+8,r25
 1163 05f6 8F83      		std Y+7,r24
 160:lp_solve_5.5\bfp/lp_BFP1.c ****     if(usedpos[i] == TRUE) {
 1164               		.loc 1 160 0
 1165 05f8 8F81      		ldd r24,Y+7
 1166 05fa 9885      		ldd r25,Y+8
 1167 05fc 2B85      		ldd r18,Y+11
 1168 05fe 3C85      		ldd r19,Y+12
 1169 0600 820F      		add r24,r18
 1170 0602 931F      		adc r25,r19
 1171 0604 FC01      		movw r30,r24
 1172 0606 8081      		ld r24,Z
 1173 0608 8130      		cpi r24,lo8(1)
 1174 060a 01F4      		brne .L48
 161:lp_solve_5.5\bfp/lp_BFP1.c ****       kk++;
 1175               		.loc 1 161 0
 1176 060c 8D81      		ldd r24,Y+5
 1177 060e 9E81      		ldd r25,Y+6
 1178 0610 0196      		adiw r24,1
 1179 0612 9E83      		std Y+6,r25
 1180 0614 8D83      		std Y+5,r24
 162:lp_solve_5.5\bfp/lp_BFP1.c ****       mdo[kk] = i;
 1181               		.loc 1 162 0
 1182 0616 8D81      		ldd r24,Y+5
 1183 0618 9E81      		ldd r25,Y+6
 1184 061a 880F      		lsl r24
 1185 061c 991F      		rol r25
 1186 061e 2981      		ldd r18,Y+1
 1187 0620 3A81      		ldd r19,Y+2
 1188 0622 820F      		add r24,r18
 1189 0624 931F      		adc r25,r19
 1190 0626 2F81      		ldd r18,Y+7
 1191 0628 3885      		ldd r19,Y+8
 1192 062a DC01      		movw r26,r24
 1193 062c 2D93      		st X+,r18
 1194 062e 3C93      		st X,r19
 1195               	.L48:
 158:lp_solve_5.5\bfp/lp_BFP1.c ****     i = lp->rows + j;
 1196               		.loc 1 158 0 discriminator 2
 1197 0630 8B81      		ldd r24,Y+3
 1198 0632 9C81      		ldd r25,Y+4
 1199 0634 0196      		adiw r24,1
 1200 0636 9C83      		std Y+4,r25
 1201 0638 8B83      		std Y+3,r24
 1202               	.L47:
 158:lp_solve_5.5\bfp/lp_BFP1.c ****     i = lp->rows + j;
 1203               		.loc 1 158 0 is_stmt 0 discriminator 1
 1204 063a 8985      		ldd r24,Y+9
 1205 063c 9A85      		ldd r25,Y+10
 1206 063e 8451      		subi r24,20
 1207 0640 9E4F      		sbci r25,-2
 1208 0642 FC01      		movw r30,r24
 1209 0644 2081      		ld r18,Z
 1210 0646 3181      		ldd r19,Z+1
 1211 0648 8B81      		ldd r24,Y+3
 1212 064a 9C81      		ldd r25,Y+4
 1213 064c 2817      		cp r18,r24
 1214 064e 3907      		cpc r19,r25
 1215 0650 04F4      		brge .L49
 163:lp_solve_5.5\bfp/lp_BFP1.c ****     }
 164:lp_solve_5.5\bfp/lp_BFP1.c ****   }
 165:lp_solve_5.5\bfp/lp_BFP1.c ****   mdo[0] = kk;
 1216               		.loc 1 165 0 is_stmt 1
 1217 0652 8981      		ldd r24,Y+1
 1218 0654 9A81      		ldd r25,Y+2
 1219 0656 2D81      		ldd r18,Y+5
 1220 0658 3E81      		ldd r19,Y+6
 1221 065a DC01      		movw r26,r24
 1222 065c 2D93      		st X+,r18
 1223 065e 3C93      		st X,r19
 166:lp_solve_5.5\bfp/lp_BFP1.c ****   if(kk == 0)
 1224               		.loc 1 166 0
 1225 0660 8D81      		ldd r24,Y+5
 1226 0662 9E81      		ldd r25,Y+6
 1227 0664 892B      		or r24,r25
 1228 0666 01F4      		brne .+2
 1229 0668 00C0      		rjmp .L53
 167:lp_solve_5.5\bfp/lp_BFP1.c ****     goto Process;
 168:lp_solve_5.5\bfp/lp_BFP1.c **** 
 169:lp_solve_5.5\bfp/lp_BFP1.c ****  /* Calculate the approximate minimum degree column ordering */
 170:lp_solve_5.5\bfp/lp_BFP1.c ****   if(doMDO) {
 1230               		.loc 1 170 0
 1231 066a 8F85      		ldd r24,Y+15
 1232 066c 8823      		tst r24
 1233 066e 01F4      		brne .+2
 1234 0670 00C0      		rjmp .L51
 171:lp_solve_5.5\bfp/lp_BFP1.c ****     i = lp->getMDO(lp, usedpos, mdo, NULL, FALSE);
 1235               		.loc 1 171 0
 1236 0672 8985      		ldd r24,Y+9
 1237 0674 9A85      		ldd r25,Y+10
 1238 0676 8451      		subi r24,20
 1239 0678 9C4F      		sbci r25,-4
 1240 067a DC01      		movw r26,r24
 1241 067c ED91      		ld r30,X+
 1242 067e FC91      		ld r31,X
 1243 0680 4981      		ldd r20,Y+1
 1244 0682 5A81      		ldd r21,Y+2
 1245 0684 6B85      		ldd r22,Y+11
 1246 0686 7C85      		ldd r23,Y+12
 1247 0688 8985      		ldd r24,Y+9
 1248 068a 9A85      		ldd r25,Y+10
 1249 068c 00E0      		ldi r16,0
 1250 068e 20E0      		ldi r18,0
 1251 0690 30E0      		ldi r19,0
 1252 0692 0995      		icall
 1253 0694 9887      		std Y+8,r25
 1254 0696 8F83      		std Y+7,r24
 172:lp_solve_5.5\bfp/lp_BFP1.c ****     if(i != 0) {
 1255               		.loc 1 172 0
 1256 0698 8F81      		ldd r24,Y+7
 1257 069a 9885      		ldd r25,Y+8
 1258 069c 892B      		or r24,r25
 1259 069e 01F0      		breq .L51
 173:lp_solve_5.5\bfp/lp_BFP1.c ****       lp->report(lp, CRITICAL, "bfp_createMDO: Internal error %d in minimum degree ordering routine
 1260               		.loc 1 173 0
 1261 06a0 8985      		ldd r24,Y+9
 1262 06a2 9A85      		ldd r25,Y+10
 1263 06a4 8E51      		subi r24,30
 1264 06a6 9C4F      		sbci r25,-4
 1265 06a8 FC01      		movw r30,r24
 1266 06aa 8081      		ld r24,Z
 1267 06ac 9181      		ldd r25,Z+1
 1268 06ae 2885      		ldd r18,Y+8
 1269 06b0 2F93      		push r18
 1270 06b2 2F81      		ldd r18,Y+7
 1271 06b4 2F93      		push r18
 1272 06b6 20E0      		ldi r18,lo8(.LC0)
 1273 06b8 30E0      		ldi r19,hi8(.LC0)
 1274 06ba 232F      		mov r18,r19
 1275 06bc 2F93      		push r18
 1276 06be 20E0      		ldi r18,lo8(.LC0)
 1277 06c0 30E0      		ldi r19,hi8(.LC0)
 1278 06c2 2F93      		push r18
 1279 06c4 1F92      		push __zero_reg__
 1280 06c6 21E0      		ldi r18,lo8(1)
 1281 06c8 2F93      		push r18
 1282 06ca 2A85      		ldd r18,Y+10
 1283 06cc 2F93      		push r18
 1284 06ce 2985      		ldd r18,Y+9
 1285 06d0 2F93      		push r18
 1286 06d2 FC01      		movw r30,r24
 1287 06d4 0995      		icall
 1288 06d6 8DB7      		in r24,__SP_L__
 1289 06d8 9EB7      		in r25,__SP_H__
 1290 06da 0896      		adiw r24,8
 1291 06dc 0FB6      		in __tmp_reg__,__SREG__
 1292 06de F894      		cli
 1293 06e0 DEBF      		out __SP_H__,r29
 1294 06e2 0FBE      		out __SREG__,__tmp_reg__
 1295 06e4 CDBF      		out __SP_L__,r28
 174:lp_solve_5.5\bfp/lp_BFP1.c ****       FREE(mdo);
 1296               		.loc 1 174 0
 1297 06e6 8981      		ldd r24,Y+1
 1298 06e8 9A81      		ldd r25,Y+2
 1299 06ea 892B      		or r24,r25
 1300 06ec 01F0      		breq .L51
 1301               		.loc 1 174 0 is_stmt 0 discriminator 1
 1302 06ee 8981      		ldd r24,Y+1
 1303 06f0 9A81      		ldd r25,Y+2
 1304 06f2 0E94 0000 		call free
 1305 06f6 1A82      		std Y+2,__zero_reg__
 1306 06f8 1982      		std Y+1,__zero_reg__
 1307 06fa 00C0      		rjmp .L51
 1308               	.L53:
 167:lp_solve_5.5\bfp/lp_BFP1.c **** 
 1309               		.loc 1 167 0 is_stmt 1
 1310 06fc 0000      		nop
 1311               	.L51:
 175:lp_solve_5.5\bfp/lp_BFP1.c ****     }
 176:lp_solve_5.5\bfp/lp_BFP1.c ****   }
 177:lp_solve_5.5\bfp/lp_BFP1.c **** Process:
 178:lp_solve_5.5\bfp/lp_BFP1.c ****   return( mdo );
 1312               		.loc 1 178 0
 1313 06fe 8981      		ldd r24,Y+1
 1314 0700 9A81      		ldd r25,Y+2
 1315               	/* epilogue start */
 179:lp_solve_5.5\bfp/lp_BFP1.c **** }
 1316               		.loc 1 179 0
 1317 0702 2F96      		adiw r28,15
 1318 0704 0FB6      		in __tmp_reg__,__SREG__
 1319 0706 F894      		cli
 1320 0708 DEBF      		out __SP_H__,r29
 1321 070a 0FBE      		out __SREG__,__tmp_reg__
 1322 070c CDBF      		out __SP_L__,r28
 1323 070e DF91      		pop r29
 1324 0710 CF91      		pop r28
 1325 0712 0F91      		pop r16
 1326 0714 0895      		ret
 1327               		.cfi_endproc
 1328               	.LFE18:
 1330               	.global	bfp_updaterefactstats
 1332               	bfp_updaterefactstats:
 1333               	.LFB19:
 180:lp_solve_5.5\bfp/lp_BFP1.c **** void BFP_CALLMODEL bfp_updaterefactstats(lprec *lp)
 181:lp_solve_5.5\bfp/lp_BFP1.c **** {
 1334               		.loc 1 181 0
 1335               		.cfi_startproc
 1336 0716 CF93      		push r28
 1337               	.LCFI55:
 1338               		.cfi_def_cfa_offset 3
 1339               		.cfi_offset 28, -2
 1340 0718 DF93      		push r29
 1341               	.LCFI56:
 1342               		.cfi_def_cfa_offset 4
 1343               		.cfi_offset 29, -3
 1344 071a 00D0      		rcall .
 1345 071c 00D0      		rcall .
 1346               	.LCFI57:
 1347               		.cfi_def_cfa_offset 8
 1348 071e CDB7      		in r28,__SP_L__
 1349 0720 DEB7      		in r29,__SP_H__
 1350               	.LCFI58:
 1351               		.cfi_def_cfa_register 28
 1352               	/* prologue: function */
 1353               	/* frame size = 4 */
 1354               	/* stack size = 6 */
 1355               	.L__stack_usage = 6
 1356 0722 9C83      		std Y+4,r25
 1357 0724 8B83      		std Y+3,r24
 182:lp_solve_5.5\bfp/lp_BFP1.c ****   INVrec *lu = lp->invB;
 1358               		.loc 1 182 0
 1359 0726 8B81      		ldd r24,Y+3
 1360 0728 9C81      		ldd r25,Y+4
 1361 072a 8854      		subi r24,72
 1362 072c 9D4F      		sbci r25,-3
 1363 072e FC01      		movw r30,r24
 1364 0730 8081      		ld r24,Z
 1365 0732 9181      		ldd r25,Z+1
 1366 0734 9A83      		std Y+2,r25
 1367 0736 8983      		std Y+1,r24
 183:lp_solve_5.5\bfp/lp_BFP1.c **** 
 184:lp_solve_5.5\bfp/lp_BFP1.c ****   /* Signal that we are refactorizing */
 185:lp_solve_5.5\bfp/lp_BFP1.c ****   lu->is_dirty = AUTOMATIC;
 1368               		.loc 1 185 0
 1369 0738 8981      		ldd r24,Y+1
 1370 073a 9A81      		ldd r25,Y+2
 1371 073c 22E0      		ldi r18,lo8(2)
 1372 073e FC01      		movw r30,r24
 1373 0740 22AB      		std Z+50,r18
 186:lp_solve_5.5\bfp/lp_BFP1.c **** 
 187:lp_solve_5.5\bfp/lp_BFP1.c ****   /* Set time of start of current refactorization cycle */
 188:lp_solve_5.5\bfp/lp_BFP1.c ****   lu->time_refactstart = timeNow();
 1374               		.loc 1 188 0
 1375 0742 0E94 0000 		call timeNow
 1376 0746 DC01      		movw r26,r24
 1377 0748 CB01      		movw r24,r22
 1378 074a 2981      		ldd r18,Y+1
 1379 074c 3A81      		ldd r19,Y+2
 1380 074e F901      		movw r30,r18
 1381 0750 84A3      		std Z+36,r24
 1382 0752 95A3      		std Z+37,r25
 1383 0754 A6A3      		std Z+38,r26
 1384 0756 B7A3      		std Z+39,r27
 189:lp_solve_5.5\bfp/lp_BFP1.c ****   lu->time_refactnext  = 0;
 1385               		.loc 1 189 0
 1386 0758 8981      		ldd r24,Y+1
 1387 075a 9A81      		ldd r25,Y+2
 1388 075c FC01      		movw r30,r24
 1389 075e 10A6      		std Z+40,__zero_reg__
 1390 0760 11A6      		std Z+41,__zero_reg__
 1391 0762 12A6      		std Z+42,__zero_reg__
 1392 0764 13A6      		std Z+43,__zero_reg__
 190:lp_solve_5.5\bfp/lp_BFP1.c ****   lu->user_colcount = 0;
 1393               		.loc 1 190 0
 1394 0766 8981      		ldd r24,Y+1
 1395 0768 9A81      		ldd r25,Y+2
 1396 076a FC01      		movw r30,r24
 1397 076c 1782      		std Z+7,__zero_reg__
 1398 076e 1682      		std Z+6,__zero_reg__
 191:lp_solve_5.5\bfp/lp_BFP1.c **** 
 192:lp_solve_5.5\bfp/lp_BFP1.c ****   /* Do the numbers */
 193:lp_solve_5.5\bfp/lp_BFP1.c ****   if(lu->force_refact)
 1399               		.loc 1 193 0
 1400 0770 8981      		ldd r24,Y+1
 1401 0772 9A81      		ldd r25,Y+2
 1402 0774 FC01      		movw r30,r24
 1403 0776 83A9      		ldd r24,Z+51
 1404 0778 8823      		tst r24
 1405 077a 01F0      		breq .L55
 194:lp_solve_5.5\bfp/lp_BFP1.c ****     lu->num_dense_refact++;
 1406               		.loc 1 194 0
 1407 077c 8981      		ldd r24,Y+1
 1408 077e 9A81      		ldd r25,Y+2
 1409 0780 FC01      		movw r30,r24
 1410 0782 82A1      		ldd r24,Z+34
 1411 0784 93A1      		ldd r25,Z+35
 1412 0786 9C01      		movw r18,r24
 1413 0788 2F5F      		subi r18,-1
 1414 078a 3F4F      		sbci r19,-1
 1415 078c 8981      		ldd r24,Y+1
 1416 078e 9A81      		ldd r25,Y+2
 1417 0790 FC01      		movw r30,r24
 1418 0792 33A3      		std Z+35,r19
 1419 0794 22A3      		std Z+34,r18
 1420 0796 00C0      		rjmp .L56
 1421               	.L55:
 195:lp_solve_5.5\bfp/lp_BFP1.c ****   else if(lu->timed_refact && lp->is_action(lp->spx_action, ACTION_TIMEDREINVERT))
 1422               		.loc 1 195 0
 1423 0798 8981      		ldd r24,Y+1
 1424 079a 9A81      		ldd r25,Y+2
 1425 079c FC01      		movw r30,r24
 1426 079e 84A9      		ldd r24,Z+52
 1427 07a0 8823      		tst r24
 1428 07a2 01F0      		breq .L56
 1429               		.loc 1 195 0 is_stmt 0 discriminator 1
 1430 07a4 8B81      		ldd r24,Y+3
 1431 07a6 9C81      		ldd r25,Y+4
 1432 07a8 8E50      		subi r24,14
 1433 07aa 9C4F      		sbci r25,-4
 1434 07ac FC01      		movw r30,r24
 1435 07ae 2081      		ld r18,Z
 1436 07b0 3181      		ldd r19,Z+1
 1437 07b2 8B81      		ldd r24,Y+3
 1438 07b4 9C81      		ldd r25,Y+4
 1439 07b6 8E50      		subi r24,14
 1440 07b8 9D4F      		sbci r25,-3
 1441 07ba FC01      		movw r30,r24
 1442 07bc 8081      		ld r24,Z
 1443 07be 9181      		ldd r25,Z+1
 1444 07c0 60E2      		ldi r22,lo8(32)
 1445 07c2 70E0      		ldi r23,0
 1446 07c4 F901      		movw r30,r18
 1447 07c6 0995      		icall
 1448 07c8 8823      		tst r24
 1449 07ca 01F0      		breq .L56
 196:lp_solve_5.5\bfp/lp_BFP1.c ****     lu->num_timed_refact++;
 1450               		.loc 1 196 0 is_stmt 1
 1451 07cc 8981      		ldd r24,Y+1
 1452 07ce 9A81      		ldd r25,Y+2
 1453 07d0 FC01      		movw r30,r24
 1454 07d2 80A1      		ldd r24,Z+32
 1455 07d4 91A1      		ldd r25,Z+33
 1456 07d6 9C01      		movw r18,r24
 1457 07d8 2F5F      		subi r18,-1
 1458 07da 3F4F      		sbci r19,-1
 1459 07dc 8981      		ldd r24,Y+1
 1460 07de 9A81      		ldd r25,Y+2
 1461 07e0 FC01      		movw r30,r24
 1462 07e2 31A3      		std Z+33,r19
 1463 07e4 20A3      		std Z+32,r18
 1464               	.L56:
 197:lp_solve_5.5\bfp/lp_BFP1.c ****   lu->num_refact++;
 1465               		.loc 1 197 0
 1466 07e6 8981      		ldd r24,Y+1
 1467 07e8 9A81      		ldd r25,Y+2
 1468 07ea FC01      		movw r30,r24
 1469 07ec 868D      		ldd r24,Z+30
 1470 07ee 978D      		ldd r25,Z+31
 1471 07f0 9C01      		movw r18,r24
 1472 07f2 2F5F      		subi r18,-1
 1473 07f4 3F4F      		sbci r19,-1
 1474 07f6 8981      		ldd r24,Y+1
 1475 07f8 9A81      		ldd r25,Y+2
 1476 07fa FC01      		movw r30,r24
 1477 07fc 378F      		std Z+31,r19
 1478 07fe 268F      		std Z+30,r18
 198:lp_solve_5.5\bfp/lp_BFP1.c **** }
 1479               		.loc 1 198 0
 1480 0800 0000      		nop
 1481               	/* epilogue start */
 1482 0802 0F90      		pop __tmp_reg__
 1483 0804 0F90      		pop __tmp_reg__
 1484 0806 0F90      		pop __tmp_reg__
 1485 0808 0F90      		pop __tmp_reg__
 1486 080a DF91      		pop r29
 1487 080c CF91      		pop r28
 1488 080e 0895      		ret
 1489               		.cfi_endproc
 1490               	.LFE19:
 1492               	.global	bfp_rowextra
 1494               	bfp_rowextra:
 1495               	.LFB20:
 199:lp_solve_5.5\bfp/lp_BFP1.c **** 
 200:lp_solve_5.5\bfp/lp_BFP1.c **** int BFP_CALLMODEL bfp_rowextra(lprec *lp)
 201:lp_solve_5.5\bfp/lp_BFP1.c **** {
 1496               		.loc 1 201 0
 1497               		.cfi_startproc
 1498 0810 CF93      		push r28
 1499               	.LCFI59:
 1500               		.cfi_def_cfa_offset 3
 1501               		.cfi_offset 28, -2
 1502 0812 DF93      		push r29
 1503               	.LCFI60:
 1504               		.cfi_def_cfa_offset 4
 1505               		.cfi_offset 29, -3
 1506 0814 00D0      		rcall .
 1507               	.LCFI61:
 1508               		.cfi_def_cfa_offset 6
 1509 0816 CDB7      		in r28,__SP_L__
 1510 0818 DEB7      		in r29,__SP_H__
 1511               	.LCFI62:
 1512               		.cfi_def_cfa_register 28
 1513               	/* prologue: function */
 1514               	/* frame size = 2 */
 1515               	/* stack size = 4 */
 1516               	.L__stack_usage = 4
 1517 081a 9A83      		std Y+2,r25
 1518 081c 8983      		std Y+1,r24
 202:lp_solve_5.5\bfp/lp_BFP1.c ****   if(lp->is_obj_in_basis(lp))
 1519               		.loc 1 202 0
 1520 081e 8981      		ldd r24,Y+1
 1521 0820 9A81      		ldd r25,Y+2
 1522 0822 8651      		subi r24,22
 1523 0824 9F4F      		sbci r25,-1
 1524 0826 FC01      		movw r30,r24
 1525 0828 2081      		ld r18,Z
 1526 082a 3181      		ldd r19,Z+1
 1527 082c 8981      		ldd r24,Y+1
 1528 082e 9A81      		ldd r25,Y+2
 1529 0830 F901      		movw r30,r18
 1530 0832 0995      		icall
 1531 0834 8823      		tst r24
 1532 0836 01F0      		breq .L58
 203:lp_solve_5.5\bfp/lp_BFP1.c ****     return( 1 );
 1533               		.loc 1 203 0
 1534 0838 81E0      		ldi r24,lo8(1)
 1535 083a 90E0      		ldi r25,0
 1536 083c 00C0      		rjmp .L59
 1537               	.L58:
 204:lp_solve_5.5\bfp/lp_BFP1.c ****   else
 205:lp_solve_5.5\bfp/lp_BFP1.c ****     return( 0 );
 1538               		.loc 1 205 0
 1539 083e 80E0      		ldi r24,0
 1540 0840 90E0      		ldi r25,0
 1541               	.L59:
 1542               	/* epilogue start */
 206:lp_solve_5.5\bfp/lp_BFP1.c **** }
 1543               		.loc 1 206 0
 1544 0842 0F90      		pop __tmp_reg__
 1545 0844 0F90      		pop __tmp_reg__
 1546 0846 DF91      		pop r29
 1547 0848 CF91      		pop r28
 1548 084a 0895      		ret
 1549               		.cfi_endproc
 1550               	.LFE20:
 1552               	.global	bfp_init
 1554               	bfp_init:
 1555               	.LFB21:
 1556               		.file 2 "lp_solve_5.5\\bfp/lp_BFP2.c"
   1:lp_solve_5.5\bfp/lp_BFP2.c **** 
   2:lp_solve_5.5\bfp/lp_BFP2.c **** 
   3:lp_solve_5.5\bfp/lp_BFP2.c **** /* Routines located in lp_BFP2.cpp; optional shared for canned implementations        */
   4:lp_solve_5.5\bfp/lp_BFP2.c **** /* Cfr. lp_BFP.h for definitions                                                      */
   5:lp_solve_5.5\bfp/lp_BFP2.c **** /* ---------------------------------------------------------------------------------- */
   6:lp_solve_5.5\bfp/lp_BFP2.c **** 
   7:lp_solve_5.5\bfp/lp_BFP2.c **** 
   8:lp_solve_5.5\bfp/lp_BFP2.c **** /* DON'T MODIFY */
   9:lp_solve_5.5\bfp/lp_BFP2.c **** MYBOOL BFP_CALLMODEL bfp_init(lprec *lp, int size, int delta, char *options)
  10:lp_solve_5.5\bfp/lp_BFP2.c **** {
 1557               		.loc 2 10 0
 1558               		.cfi_startproc
 1559 084c CF93      		push r28
 1560               	.LCFI63:
 1561               		.cfi_def_cfa_offset 3
 1562               		.cfi_offset 28, -2
 1563 084e DF93      		push r29
 1564               	.LCFI64:
 1565               		.cfi_def_cfa_offset 4
 1566               		.cfi_offset 29, -3
 1567 0850 CDB7      		in r28,__SP_L__
 1568 0852 DEB7      		in r29,__SP_H__
 1569               	.LCFI65:
 1570               		.cfi_def_cfa_register 28
 1571 0854 2C97      		sbiw r28,12
 1572               	.LCFI66:
 1573               		.cfi_def_cfa_offset 16
 1574 0856 0FB6      		in __tmp_reg__,__SREG__
 1575 0858 F894      		cli
 1576 085a DEBF      		out __SP_H__,r29
 1577 085c 0FBE      		out __SREG__,__tmp_reg__
 1578 085e CDBF      		out __SP_L__,r28
 1579               	/* prologue: function */
 1580               	/* frame size = 12 */
 1581               	/* stack size = 14 */
 1582               	.L__stack_usage = 14
 1583 0860 9E83      		std Y+6,r25
 1584 0862 8D83      		std Y+5,r24
 1585 0864 7887      		std Y+8,r23
 1586 0866 6F83      		std Y+7,r22
 1587 0868 5A87      		std Y+10,r21
 1588 086a 4987      		std Y+9,r20
 1589 086c 3C87      		std Y+12,r19
 1590 086e 2B87      		std Y+11,r18
  11:lp_solve_5.5\bfp/lp_BFP2.c ****   INVrec *lu;
  12:lp_solve_5.5\bfp/lp_BFP2.c **** 
  13:lp_solve_5.5\bfp/lp_BFP2.c ****   lp->invB = (INVrec *) calloc(1, sizeof(*(lp->invB)));
 1591               		.loc 2 13 0
 1592 0870 66E3      		ldi r22,lo8(54)
 1593 0872 70E0      		ldi r23,0
 1594 0874 81E0      		ldi r24,lo8(1)
 1595 0876 90E0      		ldi r25,0
 1596 0878 0E94 0000 		call calloc
 1597 087c 9C01      		movw r18,r24
 1598 087e 8D81      		ldd r24,Y+5
 1599 0880 9E81      		ldd r25,Y+6
 1600 0882 8854      		subi r24,72
 1601 0884 9D4F      		sbci r25,-3
 1602 0886 FC01      		movw r30,r24
 1603 0888 3183      		std Z+1,r19
 1604 088a 2083      		st Z,r18
  14:lp_solve_5.5\bfp/lp_BFP2.c ****   lu = lp->invB;
 1605               		.loc 2 14 0
 1606 088c 8D81      		ldd r24,Y+5
 1607 088e 9E81      		ldd r25,Y+6
 1608 0890 8854      		subi r24,72
 1609 0892 9D4F      		sbci r25,-3
 1610 0894 FC01      		movw r30,r24
 1611 0896 8081      		ld r24,Z
 1612 0898 9181      		ldd r25,Z+1
 1613 089a 9A83      		std Y+2,r25
 1614 089c 8983      		std Y+1,r24
  15:lp_solve_5.5\bfp/lp_BFP2.c ****   if((lu == NULL) || 
 1615               		.loc 2 15 0
 1616 089e 8981      		ldd r24,Y+1
 1617 08a0 9A81      		ldd r25,Y+2
 1618 08a2 892B      		or r24,r25
 1619 08a4 01F0      		breq .L61
  16:lp_solve_5.5\bfp/lp_BFP2.c ****      !lp->bfp_resize(lp, size) ||
 1620               		.loc 2 16 0 discriminator 1
 1621 08a6 8D81      		ldd r24,Y+5
 1622 08a8 9E81      		ldd r25,Y+6
 1623 08aa 8656      		subi r24,102
 1624 08ac 9C4F      		sbci r25,-4
 1625 08ae FC01      		movw r30,r24
 1626 08b0 2081      		ld r18,Z
 1627 08b2 3181      		ldd r19,Z+1
 1628 08b4 4F81      		ldd r20,Y+7
 1629 08b6 5885      		ldd r21,Y+8
 1630 08b8 8D81      		ldd r24,Y+5
 1631 08ba 9E81      		ldd r25,Y+6
 1632 08bc BA01      		movw r22,r20
 1633 08be F901      		movw r30,r18
 1634 08c0 0995      		icall
  15:lp_solve_5.5\bfp/lp_BFP2.c ****   if((lu == NULL) || 
 1635               		.loc 2 15 0 discriminator 1
 1636 08c2 8823      		tst r24
 1637 08c4 01F0      		breq .L61
  17:lp_solve_5.5\bfp/lp_BFP2.c ****      !lp->bfp_restart(lp))
 1638               		.loc 2 17 0
 1639 08c6 8D81      		ldd r24,Y+5
 1640 08c8 9E81      		ldd r25,Y+6
 1641 08ca 8256      		subi r24,98
 1642 08cc 9C4F      		sbci r25,-4
 1643 08ce FC01      		movw r30,r24
 1644 08d0 2081      		ld r18,Z
 1645 08d2 3181      		ldd r19,Z+1
 1646 08d4 8D81      		ldd r24,Y+5
 1647 08d6 9E81      		ldd r25,Y+6
 1648 08d8 F901      		movw r30,r18
 1649 08da 0995      		icall
  16:lp_solve_5.5\bfp/lp_BFP2.c ****      !lp->bfp_resize(lp, size) ||
 1650               		.loc 2 16 0
 1651 08dc 8823      		tst r24
 1652 08de 01F4      		brne .L62
 1653               	.L61:
  18:lp_solve_5.5\bfp/lp_BFP2.c ****     return( FALSE );
 1654               		.loc 2 18 0
 1655 08e0 80E0      		ldi r24,0
 1656 08e2 00C0      		rjmp .L63
 1657               	.L62:
  19:lp_solve_5.5\bfp/lp_BFP2.c **** 
  20:lp_solve_5.5\bfp/lp_BFP2.c ****   /* Store any passed options */
  21:lp_solve_5.5\bfp/lp_BFP2.c ****   if(options != NULL) {
 1658               		.loc 2 21 0
 1659 08e4 8B85      		ldd r24,Y+11
 1660 08e6 9C85      		ldd r25,Y+12
 1661 08e8 892B      		or r24,r25
 1662 08ea 01F0      		breq .L64
 1663               	.LBB3:
  22:lp_solve_5.5\bfp/lp_BFP2.c ****     size_t len = strlen(options);
 1664               		.loc 2 22 0
 1665 08ec 8B85      		ldd r24,Y+11
 1666 08ee 9C85      		ldd r25,Y+12
 1667 08f0 0E94 0000 		call strlen
 1668 08f4 9C83      		std Y+4,r25
 1669 08f6 8B83      		std Y+3,r24
  23:lp_solve_5.5\bfp/lp_BFP2.c ****     lu->opts = (char *) malloc(len + 1);
 1670               		.loc 2 23 0
 1671 08f8 8B81      		ldd r24,Y+3
 1672 08fa 9C81      		ldd r25,Y+4
 1673 08fc 0196      		adiw r24,1
 1674 08fe 0E94 0000 		call malloc
 1675 0902 9C01      		movw r18,r24
 1676 0904 8981      		ldd r24,Y+1
 1677 0906 9A81      		ldd r25,Y+2
 1678 0908 FC01      		movw r30,r24
 1679 090a 31AB      		std Z+49,r19
 1680 090c 20AB      		std Z+48,r18
  24:lp_solve_5.5\bfp/lp_BFP2.c ****     strcpy(lu->opts, options);
 1681               		.loc 2 24 0
 1682 090e 8981      		ldd r24,Y+1
 1683 0910 9A81      		ldd r25,Y+2
 1684 0912 FC01      		movw r30,r24
 1685 0914 80A9      		ldd r24,Z+48
 1686 0916 91A9      		ldd r25,Z+49
 1687 0918 2B85      		ldd r18,Y+11
 1688 091a 3C85      		ldd r19,Y+12
 1689 091c B901      		movw r22,r18
 1690 091e 0E94 0000 		call strcpy
 1691               	.L64:
 1692               	.LBE3:
  25:lp_solve_5.5\bfp/lp_BFP2.c ****   }
  26:lp_solve_5.5\bfp/lp_BFP2.c **** 
  27:lp_solve_5.5\bfp/lp_BFP2.c ****   /* Prepare for factorization and undo values reset by bfp_preparefactorization */
  28:lp_solve_5.5\bfp/lp_BFP2.c ****   lp->bfp_preparefactorization(lp);
 1693               		.loc 2 28 0
 1694 0922 8D81      		ldd r24,Y+5
 1695 0924 9E81      		ldd r25,Y+6
 1696 0926 8E55      		subi r24,94
 1697 0928 9C4F      		sbci r25,-4
 1698 092a FC01      		movw r30,r24
 1699 092c 2081      		ld r18,Z
 1700 092e 3181      		ldd r19,Z+1
 1701 0930 8D81      		ldd r24,Y+5
 1702 0932 9E81      		ldd r25,Y+6
 1703 0934 F901      		movw r30,r18
 1704 0936 0995      		icall
  29:lp_solve_5.5\bfp/lp_BFP2.c ****   lu->num_refact = 0;
 1705               		.loc 2 29 0
 1706 0938 8981      		ldd r24,Y+1
 1707 093a 9A81      		ldd r25,Y+2
 1708 093c FC01      		movw r30,r24
 1709 093e 178E      		std Z+31,__zero_reg__
 1710 0940 168E      		std Z+30,__zero_reg__
  30:lp_solve_5.5\bfp/lp_BFP2.c **** 
  31:lp_solve_5.5\bfp/lp_BFP2.c ****   return( TRUE );
 1711               		.loc 2 31 0
 1712 0942 81E0      		ldi r24,lo8(1)
 1713               	.L63:
 1714               	/* epilogue start */
  32:lp_solve_5.5\bfp/lp_BFP2.c **** }
 1715               		.loc 2 32 0
 1716 0944 2C96      		adiw r28,12
 1717 0946 0FB6      		in __tmp_reg__,__SREG__
 1718 0948 F894      		cli
 1719 094a DEBF      		out __SP_H__,r29
 1720 094c 0FBE      		out __SREG__,__tmp_reg__
 1721 094e CDBF      		out __SP_L__,r28
 1722 0950 DF91      		pop r29
 1723 0952 CF91      		pop r28
 1724 0954 0895      		ret
 1725               		.cfi_endproc
 1726               	.LFE21:
 1728               	.global	bfp_restart
 1730               	bfp_restart:
 1731               	.LFB22:
  33:lp_solve_5.5\bfp/lp_BFP2.c **** 
  34:lp_solve_5.5\bfp/lp_BFP2.c **** /* DON'T MODIFY */
  35:lp_solve_5.5\bfp/lp_BFP2.c **** MYBOOL BFP_CALLMODEL bfp_restart(lprec *lp)
  36:lp_solve_5.5\bfp/lp_BFP2.c **** {
 1732               		.loc 2 36 0
 1733               		.cfi_startproc
 1734 0956 CF93      		push r28
 1735               	.LCFI67:
 1736               		.cfi_def_cfa_offset 3
 1737               		.cfi_offset 28, -2
 1738 0958 DF93      		push r29
 1739               	.LCFI68:
 1740               		.cfi_def_cfa_offset 4
 1741               		.cfi_offset 29, -3
 1742 095a 00D0      		rcall .
 1743 095c 00D0      		rcall .
 1744               	.LCFI69:
 1745               		.cfi_def_cfa_offset 8
 1746 095e CDB7      		in r28,__SP_L__
 1747 0960 DEB7      		in r29,__SP_H__
 1748               	.LCFI70:
 1749               		.cfi_def_cfa_register 28
 1750               	/* prologue: function */
 1751               	/* frame size = 4 */
 1752               	/* stack size = 6 */
 1753               	.L__stack_usage = 6
 1754 0962 9C83      		std Y+4,r25
 1755 0964 8B83      		std Y+3,r24
  37:lp_solve_5.5\bfp/lp_BFP2.c ****   INVrec *lu;
  38:lp_solve_5.5\bfp/lp_BFP2.c **** 
  39:lp_solve_5.5\bfp/lp_BFP2.c ****   lu = lp->invB;
 1756               		.loc 2 39 0
 1757 0966 8B81      		ldd r24,Y+3
 1758 0968 9C81      		ldd r25,Y+4
 1759 096a 8854      		subi r24,72
 1760 096c 9D4F      		sbci r25,-3
 1761 096e FC01      		movw r30,r24
 1762 0970 8081      		ld r24,Z
 1763 0972 9181      		ldd r25,Z+1
 1764 0974 9A83      		std Y+2,r25
 1765 0976 8983      		std Y+1,r24
  40:lp_solve_5.5\bfp/lp_BFP2.c ****   if(lu == NULL)
 1766               		.loc 2 40 0
 1767 0978 8981      		ldd r24,Y+1
 1768 097a 9A81      		ldd r25,Y+2
 1769 097c 892B      		or r24,r25
 1770 097e 01F4      		brne .L66
  41:lp_solve_5.5\bfp/lp_BFP2.c ****     return( FALSE );
 1771               		.loc 2 41 0
 1772 0980 80E0      		ldi r24,0
 1773 0982 00C0      		rjmp .L67
 1774               	.L66:
  42:lp_solve_5.5\bfp/lp_BFP2.c **** 
  43:lp_solve_5.5\bfp/lp_BFP2.c ****   lu->status = BFP_STATUS_SUCCESS;
 1775               		.loc 2 43 0
 1776 0984 8981      		ldd r24,Y+1
 1777 0986 9A81      		ldd r25,Y+2
 1778 0988 FC01      		movw r30,r24
 1779 098a 1182      		std Z+1,__zero_reg__
 1780 098c 1082      		st Z,__zero_reg__
  44:lp_solve_5.5\bfp/lp_BFP2.c ****   lu->max_Bsize = 0;          /* The largest NZ-count of the B matrix            */
 1781               		.loc 2 44 0
 1782 098e 8981      		ldd r24,Y+1
 1783 0990 9A81      		ldd r25,Y+2
 1784 0992 FC01      		movw r30,r24
 1785 0994 118E      		std Z+25,__zero_reg__
 1786 0996 108E      		std Z+24,__zero_reg__
  45:lp_solve_5.5\bfp/lp_BFP2.c ****   lu->max_colcount = 0;       /* The maximum number of user columns in B         */
 1787               		.loc 2 45 0
 1788 0998 8981      		ldd r24,Y+1
 1789 099a 9A81      		ldd r25,Y+2
 1790 099c FC01      		movw r30,r24
 1791 099e 138E      		std Z+27,__zero_reg__
 1792 09a0 128E      		std Z+26,__zero_reg__
  46:lp_solve_5.5\bfp/lp_BFP2.c ****   lu->max_LUsize = 0;         /* The largest NZ-count of LU-files generated      */
 1793               		.loc 2 46 0
 1794 09a2 8981      		ldd r24,Y+1
 1795 09a4 9A81      		ldd r25,Y+2
 1796 09a6 FC01      		movw r30,r24
 1797 09a8 158E      		std Z+29,__zero_reg__
 1798 09aa 148E      		std Z+28,__zero_reg__
  47:lp_solve_5.5\bfp/lp_BFP2.c ****   lu->num_refact = 0;         /* The number of times the basis has been factored */
 1799               		.loc 2 47 0
 1800 09ac 8981      		ldd r24,Y+1
 1801 09ae 9A81      		ldd r25,Y+2
 1802 09b0 FC01      		movw r30,r24
 1803 09b2 178E      		std Z+31,__zero_reg__
 1804 09b4 168E      		std Z+30,__zero_reg__
  48:lp_solve_5.5\bfp/lp_BFP2.c ****   lu->num_timed_refact = 0;
 1805               		.loc 2 48 0
 1806 09b6 8981      		ldd r24,Y+1
 1807 09b8 9A81      		ldd r25,Y+2
 1808 09ba FC01      		movw r30,r24
 1809 09bc 11A2      		std Z+33,__zero_reg__
 1810 09be 10A2      		std Z+32,__zero_reg__
  49:lp_solve_5.5\bfp/lp_BFP2.c ****   lu->num_dense_refact = 0;
 1811               		.loc 2 49 0
 1812 09c0 8981      		ldd r24,Y+1
 1813 09c2 9A81      		ldd r25,Y+2
 1814 09c4 FC01      		movw r30,r24
 1815 09c6 13A2      		std Z+35,__zero_reg__
 1816 09c8 12A2      		std Z+34,__zero_reg__
  50:lp_solve_5.5\bfp/lp_BFP2.c ****   lu->num_pivots = 0;         /* The number of pivots since last factorization   */
 1817               		.loc 2 50 0
 1818 09ca 8981      		ldd r24,Y+1
 1819 09cc 9A81      		ldd r25,Y+2
 1820 09ce FC01      		movw r30,r24
 1821 09d0 15A6      		std Z+45,__zero_reg__
 1822 09d2 14A6      		std Z+44,__zero_reg__
  51:lp_solve_5.5\bfp/lp_BFP2.c ****   lu->pcol = NULL;
 1823               		.loc 2 51 0
 1824 09d4 8981      		ldd r24,Y+1
 1825 09d6 9A81      		ldd r25,Y+2
 1826 09d8 FC01      		movw r30,r24
 1827 09da 138A      		std Z+19,__zero_reg__
 1828 09dc 128A      		std Z+18,__zero_reg__
  52:lp_solve_5.5\bfp/lp_BFP2.c ****   lu->set_Bidentity = FALSE;
 1829               		.loc 2 52 0
 1830 09de 8981      		ldd r24,Y+1
 1831 09e0 9A81      		ldd r25,Y+2
 1832 09e2 FC01      		movw r30,r24
 1833 09e4 15AA      		std Z+53,__zero_reg__
  53:lp_solve_5.5\bfp/lp_BFP2.c **** 
  54:lp_solve_5.5\bfp/lp_BFP2.c ****   return( TRUE );
 1834               		.loc 2 54 0
 1835 09e6 81E0      		ldi r24,lo8(1)
 1836               	.L67:
 1837               	/* epilogue start */
  55:lp_solve_5.5\bfp/lp_BFP2.c **** }
 1838               		.loc 2 55 0
 1839 09e8 0F90      		pop __tmp_reg__
 1840 09ea 0F90      		pop __tmp_reg__
 1841 09ec 0F90      		pop __tmp_reg__
 1842 09ee 0F90      		pop __tmp_reg__
 1843 09f0 DF91      		pop r29
 1844 09f2 CF91      		pop r28
 1845 09f4 0895      		ret
 1846               		.cfi_endproc
 1847               	.LFE22:
 1849               	.global	bfp_implicitslack
 1851               	bfp_implicitslack:
 1852               	.LFB23:
  56:lp_solve_5.5\bfp/lp_BFP2.c **** 
  57:lp_solve_5.5\bfp/lp_BFP2.c **** /* DON'T MODIFY */
  58:lp_solve_5.5\bfp/lp_BFP2.c **** MYBOOL BFP_CALLMODEL bfp_implicitslack(lprec *lp)
  59:lp_solve_5.5\bfp/lp_BFP2.c **** {
 1853               		.loc 2 59 0
 1854               		.cfi_startproc
 1855 09f6 CF93      		push r28
 1856               	.LCFI71:
 1857               		.cfi_def_cfa_offset 3
 1858               		.cfi_offset 28, -2
 1859 09f8 DF93      		push r29
 1860               	.LCFI72:
 1861               		.cfi_def_cfa_offset 4
 1862               		.cfi_offset 29, -3
 1863 09fa 00D0      		rcall .
 1864               	.LCFI73:
 1865               		.cfi_def_cfa_offset 6
 1866 09fc CDB7      		in r28,__SP_L__
 1867 09fe DEB7      		in r29,__SP_H__
 1868               	.LCFI74:
 1869               		.cfi_def_cfa_register 28
 1870               	/* prologue: function */
 1871               	/* frame size = 2 */
 1872               	/* stack size = 4 */
 1873               	.L__stack_usage = 4
 1874 0a00 9A83      		std Y+2,r25
 1875 0a02 8983      		std Y+1,r24
  60:lp_solve_5.5\bfp/lp_BFP2.c ****   return( FALSE );
 1876               		.loc 2 60 0
 1877 0a04 80E0      		ldi r24,0
 1878               	/* epilogue start */
  61:lp_solve_5.5\bfp/lp_BFP2.c **** }
 1879               		.loc 2 61 0
 1880 0a06 0F90      		pop __tmp_reg__
 1881 0a08 0F90      		pop __tmp_reg__
 1882 0a0a DF91      		pop r29
 1883 0a0c CF91      		pop r28
 1884 0a0e 0895      		ret
 1885               		.cfi_endproc
 1886               	.LFE23:
 1888               	.global	bfp_colcount
 1890               	bfp_colcount:
 1891               	.LFB24:
  62:lp_solve_5.5\bfp/lp_BFP2.c **** 
  63:lp_solve_5.5\bfp/lp_BFP2.c **** /* DON'T MODIFY */
  64:lp_solve_5.5\bfp/lp_BFP2.c **** int BFP_CALLMODEL bfp_colcount(lprec *lp)
  65:lp_solve_5.5\bfp/lp_BFP2.c **** {
 1892               		.loc 2 65 0
 1893               		.cfi_startproc
 1894 0a10 CF93      		push r28
 1895               	.LCFI75:
 1896               		.cfi_def_cfa_offset 3
 1897               		.cfi_offset 28, -2
 1898 0a12 DF93      		push r29
 1899               	.LCFI76:
 1900               		.cfi_def_cfa_offset 4
 1901               		.cfi_offset 29, -3
 1902 0a14 00D0      		rcall .
 1903               	.LCFI77:
 1904               		.cfi_def_cfa_offset 6
 1905 0a16 CDB7      		in r28,__SP_L__
 1906 0a18 DEB7      		in r29,__SP_H__
 1907               	.LCFI78:
 1908               		.cfi_def_cfa_register 28
 1909               	/* prologue: function */
 1910               	/* frame size = 2 */
 1911               	/* stack size = 4 */
 1912               	.L__stack_usage = 4
 1913 0a1a 9A83      		std Y+2,r25
 1914 0a1c 8983      		std Y+1,r24
  66:lp_solve_5.5\bfp/lp_BFP2.c ****   return(lp->invB->user_colcount);
 1915               		.loc 2 66 0
 1916 0a1e 8981      		ldd r24,Y+1
 1917 0a20 9A81      		ldd r25,Y+2
 1918 0a22 8854      		subi r24,72
 1919 0a24 9D4F      		sbci r25,-3
 1920 0a26 FC01      		movw r30,r24
 1921 0a28 8081      		ld r24,Z
 1922 0a2a 9181      		ldd r25,Z+1
 1923 0a2c FC01      		movw r30,r24
 1924 0a2e 8681      		ldd r24,Z+6
 1925 0a30 9781      		ldd r25,Z+7
 1926               	/* epilogue start */
  67:lp_solve_5.5\bfp/lp_BFP2.c **** }
 1927               		.loc 2 67 0
 1928 0a32 0F90      		pop __tmp_reg__
 1929 0a34 0F90      		pop __tmp_reg__
 1930 0a36 DF91      		pop r29
 1931 0a38 CF91      		pop r28
 1932 0a3a 0895      		ret
 1933               		.cfi_endproc
 1934               	.LFE24:
 1936               	.global	bfp_canresetbasis
 1938               	bfp_canresetbasis:
 1939               	.LFB25:
  68:lp_solve_5.5\bfp/lp_BFP2.c **** 
  69:lp_solve_5.5\bfp/lp_BFP2.c **** 
  70:lp_solve_5.5\bfp/lp_BFP2.c **** /* DON'T MODIFY */
  71:lp_solve_5.5\bfp/lp_BFP2.c **** MYBOOL BFP_CALLMODEL bfp_canresetbasis(lprec *lp)
  72:lp_solve_5.5\bfp/lp_BFP2.c **** {
 1940               		.loc 2 72 0
 1941               		.cfi_startproc
 1942 0a3c CF93      		push r28
 1943               	.LCFI79:
 1944               		.cfi_def_cfa_offset 3
 1945               		.cfi_offset 28, -2
 1946 0a3e DF93      		push r29
 1947               	.LCFI80:
 1948               		.cfi_def_cfa_offset 4
 1949               		.cfi_offset 29, -3
 1950 0a40 00D0      		rcall .
 1951               	.LCFI81:
 1952               		.cfi_def_cfa_offset 6
 1953 0a42 CDB7      		in r28,__SP_L__
 1954 0a44 DEB7      		in r29,__SP_H__
 1955               	.LCFI82:
 1956               		.cfi_def_cfa_register 28
 1957               	/* prologue: function */
 1958               	/* frame size = 2 */
 1959               	/* stack size = 4 */
 1960               	.L__stack_usage = 4
 1961 0a46 9A83      		std Y+2,r25
 1962 0a48 8983      		std Y+1,r24
  73:lp_solve_5.5\bfp/lp_BFP2.c ****   return( FALSE );
 1963               		.loc 2 73 0
 1964 0a4a 80E0      		ldi r24,0
 1965               	/* epilogue start */
  74:lp_solve_5.5\bfp/lp_BFP2.c **** }
 1966               		.loc 2 74 0
 1967 0a4c 0F90      		pop __tmp_reg__
 1968 0a4e 0F90      		pop __tmp_reg__
 1969 0a50 DF91      		pop r29
 1970 0a52 CF91      		pop r28
 1971 0a54 0895      		ret
 1972               		.cfi_endproc
 1973               	.LFE25:
 1975               	.global	bfp_pivotalloc
 1977               	bfp_pivotalloc:
 1978               	.LFB26:
  75:lp_solve_5.5\bfp/lp_BFP2.c **** 
  76:lp_solve_5.5\bfp/lp_BFP2.c **** 
  77:lp_solve_5.5\bfp/lp_BFP2.c **** /* DON'T MODIFY */
  78:lp_solve_5.5\bfp/lp_BFP2.c **** MYBOOL BFP_CALLMODEL bfp_pivotalloc(lprec *lp, int newsize)
  79:lp_solve_5.5\bfp/lp_BFP2.c **** {
 1979               		.loc 2 79 0
 1980               		.cfi_startproc
 1981 0a56 CF93      		push r28
 1982               	.LCFI83:
 1983               		.cfi_def_cfa_offset 3
 1984               		.cfi_offset 28, -2
 1985 0a58 DF93      		push r29
 1986               	.LCFI84:
 1987               		.cfi_def_cfa_offset 4
 1988               		.cfi_offset 29, -3
 1989 0a5a 00D0      		rcall .
 1990 0a5c 00D0      		rcall .
 1991               	.LCFI85:
 1992               		.cfi_def_cfa_offset 8
 1993 0a5e CDB7      		in r28,__SP_L__
 1994 0a60 DEB7      		in r29,__SP_H__
 1995               	.LCFI86:
 1996               		.cfi_def_cfa_register 28
 1997               	/* prologue: function */
 1998               	/* frame size = 4 */
 1999               	/* stack size = 6 */
 2000               	.L__stack_usage = 6
 2001 0a62 9A83      		std Y+2,r25
 2002 0a64 8983      		std Y+1,r24
 2003 0a66 7C83      		std Y+4,r23
 2004 0a68 6B83      		std Y+3,r22
  80:lp_solve_5.5\bfp/lp_BFP2.c ****   /* Does nothing in the default implementation */
  81:lp_solve_5.5\bfp/lp_BFP2.c ****   return( TRUE );
 2005               		.loc 2 81 0
 2006 0a6a 81E0      		ldi r24,lo8(1)
 2007               	/* epilogue start */
  82:lp_solve_5.5\bfp/lp_BFP2.c **** }
 2008               		.loc 2 82 0
 2009 0a6c 0F90      		pop __tmp_reg__
 2010 0a6e 0F90      		pop __tmp_reg__
 2011 0a70 0F90      		pop __tmp_reg__
 2012 0a72 0F90      		pop __tmp_reg__
 2013 0a74 DF91      		pop r29
 2014 0a76 CF91      		pop r28
 2015 0a78 0895      		ret
 2016               		.cfi_endproc
 2017               	.LFE26:
 2019               	.global	bfp_finishfactorization
 2021               	bfp_finishfactorization:
 2022               	.LFB27:
  83:lp_solve_5.5\bfp/lp_BFP2.c **** 
  84:lp_solve_5.5\bfp/lp_BFP2.c **** 
  85:lp_solve_5.5\bfp/lp_BFP2.c **** /* DON'T MODIFY */
  86:lp_solve_5.5\bfp/lp_BFP2.c **** void BFP_CALLMODEL bfp_finishfactorization(lprec *lp)
  87:lp_solve_5.5\bfp/lp_BFP2.c **** {
 2023               		.loc 2 87 0
 2024               		.cfi_startproc
 2025 0a7a 0F93      		push r16
 2026               	.LCFI87:
 2027               		.cfi_def_cfa_offset 3
 2028               		.cfi_offset 16, -2
 2029 0a7c 1F93      		push r17
 2030               	.LCFI88:
 2031               		.cfi_def_cfa_offset 4
 2032               		.cfi_offset 17, -3
 2033 0a7e CF93      		push r28
 2034               	.LCFI89:
 2035               		.cfi_def_cfa_offset 5
 2036               		.cfi_offset 28, -4
 2037 0a80 DF93      		push r29
 2038               	.LCFI90:
 2039               		.cfi_def_cfa_offset 6
 2040               		.cfi_offset 29, -5
 2041 0a82 00D0      		rcall .
 2042 0a84 00D0      		rcall .
 2043               	.LCFI91:
 2044               		.cfi_def_cfa_offset 10
 2045 0a86 CDB7      		in r28,__SP_L__
 2046 0a88 DEB7      		in r29,__SP_H__
 2047               	.LCFI92:
 2048               		.cfi_def_cfa_register 28
 2049               	/* prologue: function */
 2050               	/* frame size = 4 */
 2051               	/* stack size = 8 */
 2052               	.L__stack_usage = 8
 2053 0a8a 9C83      		std Y+4,r25
 2054 0a8c 8B83      		std Y+3,r24
  88:lp_solve_5.5\bfp/lp_BFP2.c ****   INVrec *lu;
  89:lp_solve_5.5\bfp/lp_BFP2.c **** 
  90:lp_solve_5.5\bfp/lp_BFP2.c ****   lu = lp->invB;
 2055               		.loc 2 90 0
 2056 0a8e 8B81      		ldd r24,Y+3
 2057 0a90 9C81      		ldd r25,Y+4
 2058 0a92 8854      		subi r24,72
 2059 0a94 9D4F      		sbci r25,-3
 2060 0a96 FC01      		movw r30,r24
 2061 0a98 8081      		ld r24,Z
 2062 0a9a 9181      		ldd r25,Z+1
 2063 0a9c 9A83      		std Y+2,r25
 2064 0a9e 8983      		std Y+1,r24
  91:lp_solve_5.5\bfp/lp_BFP2.c **** 
  92:lp_solve_5.5\bfp/lp_BFP2.c ****   SETMAX(lu->max_colcount, lp->bfp_colcount(lp));
 2065               		.loc 2 92 0
 2066 0aa0 8981      		ldd r24,Y+1
 2067 0aa2 9A81      		ldd r25,Y+2
 2068 0aa4 FC01      		movw r30,r24
 2069 0aa6 028D      		ldd r16,Z+26
 2070 0aa8 138D      		ldd r17,Z+27
 2071 0aaa 8B81      		ldd r24,Y+3
 2072 0aac 9C81      		ldd r25,Y+4
 2073 0aae 8A53      		subi r24,58
 2074 0ab0 9C4F      		sbci r25,-4
 2075 0ab2 FC01      		movw r30,r24
 2076 0ab4 2081      		ld r18,Z
 2077 0ab6 3181      		ldd r19,Z+1
 2078 0ab8 8B81      		ldd r24,Y+3
 2079 0aba 9C81      		ldd r25,Y+4
 2080 0abc F901      		movw r30,r18
 2081 0abe 0995      		icall
 2082 0ac0 0817      		cp r16,r24
 2083 0ac2 1907      		cpc r17,r25
 2084 0ac4 04F4      		brge .L77
 2085               		.loc 2 92 0 is_stmt 0 discriminator 1
 2086 0ac6 8B81      		ldd r24,Y+3
 2087 0ac8 9C81      		ldd r25,Y+4
 2088 0aca 8A53      		subi r24,58
 2089 0acc 9C4F      		sbci r25,-4
 2090 0ace FC01      		movw r30,r24
 2091 0ad0 2081      		ld r18,Z
 2092 0ad2 3181      		ldd r19,Z+1
 2093 0ad4 8B81      		ldd r24,Y+3
 2094 0ad6 9C81      		ldd r25,Y+4
 2095 0ad8 F901      		movw r30,r18
 2096 0ada 0995      		icall
 2097 0adc 9C01      		movw r18,r24
 2098 0ade 8981      		ldd r24,Y+1
 2099 0ae0 9A81      		ldd r25,Y+2
 2100 0ae2 FC01      		movw r30,r24
 2101 0ae4 338F      		std Z+27,r19
 2102 0ae6 228F      		std Z+26,r18
 2103               	.L77:
  93:lp_solve_5.5\bfp/lp_BFP2.c ****   SETMAX(lu->max_LUsize, lp->bfp_nonzeros(lp, FALSE));
 2104               		.loc 2 93 0 is_stmt 1
 2105 0ae8 8981      		ldd r24,Y+1
 2106 0aea 9A81      		ldd r25,Y+2
 2107 0aec FC01      		movw r30,r24
 2108 0aee 048D      		ldd r16,Z+28
 2109 0af0 158D      		ldd r17,Z+29
 2110 0af2 8B81      		ldd r24,Y+3
 2111 0af4 9C81      		ldd r25,Y+4
 2112 0af6 8654      		subi r24,70
 2113 0af8 9C4F      		sbci r25,-4
 2114 0afa FC01      		movw r30,r24
 2115 0afc 2081      		ld r18,Z
 2116 0afe 3181      		ldd r19,Z+1
 2117 0b00 8B81      		ldd r24,Y+3
 2118 0b02 9C81      		ldd r25,Y+4
 2119 0b04 60E0      		ldi r22,0
 2120 0b06 F901      		movw r30,r18
 2121 0b08 0995      		icall
 2122 0b0a 0817      		cp r16,r24
 2123 0b0c 1907      		cpc r17,r25
 2124 0b0e 04F4      		brge .L78
 2125               		.loc 2 93 0 is_stmt 0 discriminator 1
 2126 0b10 8B81      		ldd r24,Y+3
 2127 0b12 9C81      		ldd r25,Y+4
 2128 0b14 8654      		subi r24,70
 2129 0b16 9C4F      		sbci r25,-4
 2130 0b18 FC01      		movw r30,r24
 2131 0b1a 2081      		ld r18,Z
 2132 0b1c 3181      		ldd r19,Z+1
 2133 0b1e 8B81      		ldd r24,Y+3
 2134 0b20 9C81      		ldd r25,Y+4
 2135 0b22 60E0      		ldi r22,0
 2136 0b24 F901      		movw r30,r18
 2137 0b26 0995      		icall
 2138 0b28 9C01      		movw r18,r24
 2139 0b2a 8981      		ldd r24,Y+1
 2140 0b2c 9A81      		ldd r25,Y+2
 2141 0b2e FC01      		movw r30,r24
 2142 0b30 358F      		std Z+29,r19
 2143 0b32 248F      		std Z+28,r18
 2144               	.L78:
  94:lp_solve_5.5\bfp/lp_BFP2.c **** 
  95:lp_solve_5.5\bfp/lp_BFP2.c ****   /* Signal that we done factorizing/reinverting */
  96:lp_solve_5.5\bfp/lp_BFP2.c ****   lu->is_dirty = FALSE;
 2145               		.loc 2 96 0 is_stmt 1
 2146 0b34 8981      		ldd r24,Y+1
 2147 0b36 9A81      		ldd r25,Y+2
 2148 0b38 FC01      		movw r30,r24
 2149 0b3a 12AA      		std Z+50,__zero_reg__
  97:lp_solve_5.5\bfp/lp_BFP2.c ****   lp->clear_action(&lp->spx_action, ACTION_REINVERT | ACTION_TIMEDREINVERT);
 2150               		.loc 2 97 0
 2151 0b3c 8B81      		ldd r24,Y+3
 2152 0b3e 9C81      		ldd r25,Y+4
 2153 0b40 8C50      		subi r24,12
 2154 0b42 9C4F      		sbci r25,-4
 2155 0b44 FC01      		movw r30,r24
 2156 0b46 2081      		ld r18,Z
 2157 0b48 3181      		ldd r19,Z+1
 2158 0b4a 8B81      		ldd r24,Y+3
 2159 0b4c 9C81      		ldd r25,Y+4
 2160 0b4e 8E50      		subi r24,14
 2161 0b50 9D4F      		sbci r25,-3
 2162 0b52 60E3      		ldi r22,lo8(48)
 2163 0b54 70E0      		ldi r23,0
 2164 0b56 F901      		movw r30,r18
 2165 0b58 0995      		icall
  98:lp_solve_5.5\bfp/lp_BFP2.c ****   lu->force_refact = FALSE;
 2166               		.loc 2 98 0
 2167 0b5a 8981      		ldd r24,Y+1
 2168 0b5c 9A81      		ldd r25,Y+2
 2169 0b5e FC01      		movw r30,r24
 2170 0b60 13AA      		std Z+51,__zero_reg__
  99:lp_solve_5.5\bfp/lp_BFP2.c **** 
 100:lp_solve_5.5\bfp/lp_BFP2.c ****   /* Store information about the current inverse */
 101:lp_solve_5.5\bfp/lp_BFP2.c ****   lu->num_pivots = 0;
 2171               		.loc 2 101 0
 2172 0b62 8981      		ldd r24,Y+1
 2173 0b64 9A81      		ldd r25,Y+2
 2174 0b66 FC01      		movw r30,r24
 2175 0b68 15A6      		std Z+45,__zero_reg__
 2176 0b6a 14A6      		std Z+44,__zero_reg__
 102:lp_solve_5.5\bfp/lp_BFP2.c **** 
 103:lp_solve_5.5\bfp/lp_BFP2.c **** }
 2177               		.loc 2 103 0
 2178 0b6c 0000      		nop
 2179               	/* epilogue start */
 2180 0b6e 0F90      		pop __tmp_reg__
 2181 0b70 0F90      		pop __tmp_reg__
 2182 0b72 0F90      		pop __tmp_reg__
 2183 0b74 0F90      		pop __tmp_reg__
 2184 0b76 DF91      		pop r29
 2185 0b78 CF91      		pop r28
 2186 0b7a 1F91      		pop r17
 2187 0b7c 0F91      		pop r16
 2188 0b7e 0895      		ret
 2189               		.cfi_endproc
 2190               	.LFE27:
 2192               	.global	bfp_prepareupdate
 2194               	bfp_prepareupdate:
 2195               	.LFB28:
 104:lp_solve_5.5\bfp/lp_BFP2.c **** 
 105:lp_solve_5.5\bfp/lp_BFP2.c **** 
 106:lp_solve_5.5\bfp/lp_BFP2.c **** /* DON'T MODIFY */
 107:lp_solve_5.5\bfp/lp_BFP2.c **** LREAL BFP_CALLMODEL bfp_prepareupdate(lprec *lp, int row_nr, int col_nr, REAL *pcol)
 108:lp_solve_5.5\bfp/lp_BFP2.c **** /* Was condensecol() in versions of lp_solve before 4.0.1.8 - KE */
 109:lp_solve_5.5\bfp/lp_BFP2.c **** {
 2196               		.loc 2 109 0
 2197               		.cfi_startproc
 2198 0b80 CF93      		push r28
 2199               	.LCFI93:
 2200               		.cfi_def_cfa_offset 3
 2201               		.cfi_offset 28, -2
 2202 0b82 DF93      		push r29
 2203               	.LCFI94:
 2204               		.cfi_def_cfa_offset 4
 2205               		.cfi_offset 29, -3
 2206 0b84 CDB7      		in r28,__SP_L__
 2207 0b86 DEB7      		in r29,__SP_H__
 2208               	.LCFI95:
 2209               		.cfi_def_cfa_register 28
 2210 0b88 2E97      		sbiw r28,14
 2211               	.LCFI96:
 2212               		.cfi_def_cfa_offset 18
 2213 0b8a 0FB6      		in __tmp_reg__,__SREG__
 2214 0b8c F894      		cli
 2215 0b8e DEBF      		out __SP_H__,r29
 2216 0b90 0FBE      		out __SREG__,__tmp_reg__
 2217 0b92 CDBF      		out __SP_L__,r28
 2218               	/* prologue: function */
 2219               	/* frame size = 14 */
 2220               	/* stack size = 16 */
 2221               	.L__stack_usage = 16
 2222 0b94 9887      		std Y+8,r25
 2223 0b96 8F83      		std Y+7,r24
 2224 0b98 7A87      		std Y+10,r23
 2225 0b9a 6987      		std Y+9,r22
 2226 0b9c 5C87      		std Y+12,r21
 2227 0b9e 4B87      		std Y+11,r20
 2228 0ba0 3E87      		std Y+14,r19
 2229 0ba2 2D87      		std Y+13,r18
 110:lp_solve_5.5\bfp/lp_BFP2.c ****   LREAL  pivValue;
 111:lp_solve_5.5\bfp/lp_BFP2.c ****   INVrec *lu;
 112:lp_solve_5.5\bfp/lp_BFP2.c **** 
 113:lp_solve_5.5\bfp/lp_BFP2.c ****   lu = lp->invB;
 2230               		.loc 2 113 0
 2231 0ba4 8F81      		ldd r24,Y+7
 2232 0ba6 9885      		ldd r25,Y+8
 2233 0ba8 8854      		subi r24,72
 2234 0baa 9D4F      		sbci r25,-3
 2235 0bac FC01      		movw r30,r24
 2236 0bae 8081      		ld r24,Z
 2237 0bb0 9181      		ldd r25,Z+1
 2238 0bb2 9E83      		std Y+6,r25
 2239 0bb4 8D83      		std Y+5,r24
 114:lp_solve_5.5\bfp/lp_BFP2.c **** 
 115:lp_solve_5.5\bfp/lp_BFP2.c ****   /* Store the incoming pivot value for RHS update purposes */
 116:lp_solve_5.5\bfp/lp_BFP2.c ****   lu->col_enter = col_nr;  /* The index of the new data column */
 2240               		.loc 2 116 0
 2241 0bb6 8D81      		ldd r24,Y+5
 2242 0bb8 9E81      		ldd r25,Y+6
 2243 0bba 2B85      		ldd r18,Y+11
 2244 0bbc 3C85      		ldd r19,Y+12
 2245 0bbe FC01      		movw r30,r24
 2246 0bc0 3387      		std Z+11,r19
 2247 0bc2 2287      		std Z+10,r18
 117:lp_solve_5.5\bfp/lp_BFP2.c ****   lu->col_pos   = row_nr;  /* The basis column to be replaced */
 2248               		.loc 2 117 0
 2249 0bc4 8D81      		ldd r24,Y+5
 2250 0bc6 9E81      		ldd r25,Y+6
 2251 0bc8 2985      		ldd r18,Y+9
 2252 0bca 3A85      		ldd r19,Y+10
 2253 0bcc FC01      		movw r30,r24
 2254 0bce 3787      		std Z+15,r19
 2255 0bd0 2687      		std Z+14,r18
 118:lp_solve_5.5\bfp/lp_BFP2.c ****   lu->col_leave = lp->var_basic[row_nr];
 2256               		.loc 2 118 0
 2257 0bd2 8F81      		ldd r24,Y+7
 2258 0bd4 9885      		ldd r25,Y+8
 2259 0bd6 8453      		subi r24,52
 2260 0bd8 9D4F      		sbci r25,-3
 2261 0bda FC01      		movw r30,r24
 2262 0bdc 2081      		ld r18,Z
 2263 0bde 3181      		ldd r19,Z+1
 2264 0be0 8985      		ldd r24,Y+9
 2265 0be2 9A85      		ldd r25,Y+10
 2266 0be4 880F      		lsl r24
 2267 0be6 991F      		rol r25
 2268 0be8 820F      		add r24,r18
 2269 0bea 931F      		adc r25,r19
 2270 0bec FC01      		movw r30,r24
 2271 0bee 2081      		ld r18,Z
 2272 0bf0 3181      		ldd r19,Z+1
 2273 0bf2 8D81      		ldd r24,Y+5
 2274 0bf4 9E81      		ldd r25,Y+6
 2275 0bf6 FC01      		movw r30,r24
 2276 0bf8 3587      		std Z+13,r19
 2277 0bfa 2487      		std Z+12,r18
 119:lp_solve_5.5\bfp/lp_BFP2.c ****   if(pcol == NULL)
 2278               		.loc 2 119 0
 2279 0bfc 8D85      		ldd r24,Y+13
 2280 0bfe 9E85      		ldd r25,Y+14
 2281 0c00 892B      		or r24,r25
 2282 0c02 01F4      		brne .L80
 120:lp_solve_5.5\bfp/lp_BFP2.c ****     pivValue = 0;
 2283               		.loc 2 120 0
 2284 0c04 1982      		std Y+1,__zero_reg__
 2285 0c06 1A82      		std Y+2,__zero_reg__
 2286 0c08 1B82      		std Y+3,__zero_reg__
 2287 0c0a 1C82      		std Y+4,__zero_reg__
 2288 0c0c 00C0      		rjmp .L81
 2289               	.L80:
 121:lp_solve_5.5\bfp/lp_BFP2.c ****   else
 122:lp_solve_5.5\bfp/lp_BFP2.c ****     pivValue = pcol[row_nr];
 2290               		.loc 2 122 0
 2291 0c0e 8985      		ldd r24,Y+9
 2292 0c10 9A85      		ldd r25,Y+10
 2293 0c12 880F      		lsl r24
 2294 0c14 991F      		rol r25
 2295 0c16 880F      		lsl r24
 2296 0c18 991F      		rol r25
 2297 0c1a 2D85      		ldd r18,Y+13
 2298 0c1c 3E85      		ldd r19,Y+14
 2299 0c1e 820F      		add r24,r18
 2300 0c20 931F      		adc r25,r19
 2301 0c22 FC01      		movw r30,r24
 2302 0c24 8081      		ld r24,Z
 2303 0c26 9181      		ldd r25,Z+1
 2304 0c28 A281      		ldd r26,Z+2
 2305 0c2a B381      		ldd r27,Z+3
 2306 0c2c 8983      		std Y+1,r24
 2307 0c2e 9A83      		std Y+2,r25
 2308 0c30 AB83      		std Y+3,r26
 2309 0c32 BC83      		std Y+4,r27
 2310               	.L81:
 123:lp_solve_5.5\bfp/lp_BFP2.c ****   lu->theta_enter = pivValue;
 2311               		.loc 2 123 0
 2312 0c34 2D81      		ldd r18,Y+5
 2313 0c36 3E81      		ldd r19,Y+6
 2314 0c38 8981      		ldd r24,Y+1
 2315 0c3a 9A81      		ldd r25,Y+2
 2316 0c3c AB81      		ldd r26,Y+3
 2317 0c3e BC81      		ldd r27,Y+4
 2318 0c40 F901      		movw r30,r18
 2319 0c42 848B      		std Z+20,r24
 2320 0c44 958B      		std Z+21,r25
 2321 0c46 A68B      		std Z+22,r26
 2322 0c48 B78B      		std Z+23,r27
 124:lp_solve_5.5\bfp/lp_BFP2.c **** 
 125:lp_solve_5.5\bfp/lp_BFP2.c ****   /* Save reference to the elimination vector */
 126:lp_solve_5.5\bfp/lp_BFP2.c ****   lu->pcol = pcol;
 2323               		.loc 2 126 0
 2324 0c4a 8D81      		ldd r24,Y+5
 2325 0c4c 9E81      		ldd r25,Y+6
 2326 0c4e 2D85      		ldd r18,Y+13
 2327 0c50 3E85      		ldd r19,Y+14
 2328 0c52 FC01      		movw r30,r24
 2329 0c54 338B      		std Z+19,r19
 2330 0c56 228B      		std Z+18,r18
 127:lp_solve_5.5\bfp/lp_BFP2.c **** 
 128:lp_solve_5.5\bfp/lp_BFP2.c ****   /* Set completion status; but hold if we are reinverting */
 129:lp_solve_5.5\bfp/lp_BFP2.c ****   if(lu->is_dirty != AUTOMATIC)
 2331               		.loc 2 129 0
 2332 0c58 8D81      		ldd r24,Y+5
 2333 0c5a 9E81      		ldd r25,Y+6
 2334 0c5c FC01      		movw r30,r24
 2335 0c5e 82A9      		ldd r24,Z+50
 2336 0c60 8230      		cpi r24,lo8(2)
 2337 0c62 01F0      		breq .L82
 130:lp_solve_5.5\bfp/lp_BFP2.c ****     lu->is_dirty = TRUE;
 2338               		.loc 2 130 0
 2339 0c64 8D81      		ldd r24,Y+5
 2340 0c66 9E81      		ldd r25,Y+6
 2341 0c68 21E0      		ldi r18,lo8(1)
 2342 0c6a FC01      		movw r30,r24
 2343 0c6c 22AB      		std Z+50,r18
 2344               	.L82:
 131:lp_solve_5.5\bfp/lp_BFP2.c **** 
 132:lp_solve_5.5\bfp/lp_BFP2.c ****   return( pivValue );
 2345               		.loc 2 132 0
 2346 0c6e 8981      		ldd r24,Y+1
 2347 0c70 9A81      		ldd r25,Y+2
 2348 0c72 AB81      		ldd r26,Y+3
 2349 0c74 BC81      		ldd r27,Y+4
 133:lp_solve_5.5\bfp/lp_BFP2.c **** }
 2350               		.loc 2 133 0
 2351 0c76 BC01      		movw r22,r24
 2352 0c78 CD01      		movw r24,r26
 2353               	/* epilogue start */
 2354 0c7a 2E96      		adiw r28,14
 2355 0c7c 0FB6      		in __tmp_reg__,__SREG__
 2356 0c7e F894      		cli
 2357 0c80 DEBF      		out __SP_H__,r29
 2358 0c82 0FBE      		out __SREG__,__tmp_reg__
 2359 0c84 CDBF      		out __SP_L__,r28
 2360 0c86 DF91      		pop r29
 2361 0c88 CF91      		pop r28
 2362 0c8a 0895      		ret
 2363               		.cfi_endproc
 2364               	.LFE28:
 2366               	.global	__nesf2
 2367               	.global	bfp_pivotRHS
 2369               	bfp_pivotRHS:
 2370               	.LFB29:
 134:lp_solve_5.5\bfp/lp_BFP2.c **** 
 135:lp_solve_5.5\bfp/lp_BFP2.c **** 
 136:lp_solve_5.5\bfp/lp_BFP2.c **** /* DON'T MODIFY */
 137:lp_solve_5.5\bfp/lp_BFP2.c **** REAL BFP_CALLMODEL bfp_pivotRHS(lprec *lp, LREAL theta, REAL *pcol)
 138:lp_solve_5.5\bfp/lp_BFP2.c **** /* This function is used to adjust the RHS in bound swap operations as
 139:lp_solve_5.5\bfp/lp_BFP2.c ****    well as handling the updating of the RHS for normal basis changes.
 140:lp_solve_5.5\bfp/lp_BFP2.c ****    Was rhsmincol(), ie. "rhs minus column" in versions of lp_solve before 4.0.1.8 - KE */
 141:lp_solve_5.5\bfp/lp_BFP2.c **** {
 2371               		.loc 2 141 0
 2372               		.cfi_startproc
 2373 0c8c 2F92      		push r2
 2374               	.LCFI97:
 2375               		.cfi_def_cfa_offset 3
 2376               		.cfi_offset 2, -2
 2377 0c8e 3F92      		push r3
 2378               	.LCFI98:
 2379               		.cfi_def_cfa_offset 4
 2380               		.cfi_offset 3, -3
 2381 0c90 4F92      		push r4
 2382               	.LCFI99:
 2383               		.cfi_def_cfa_offset 5
 2384               		.cfi_offset 4, -4
 2385 0c92 5F92      		push r5
 2386               	.LCFI100:
 2387               		.cfi_def_cfa_offset 6
 2388               		.cfi_offset 5, -5
 2389 0c94 6F92      		push r6
 2390               	.LCFI101:
 2391               		.cfi_def_cfa_offset 7
 2392               		.cfi_offset 6, -6
 2393 0c96 7F92      		push r7
 2394               	.LCFI102:
 2395               		.cfi_def_cfa_offset 8
 2396               		.cfi_offset 7, -7
 2397 0c98 8F92      		push r8
 2398               	.LCFI103:
 2399               		.cfi_def_cfa_offset 9
 2400               		.cfi_offset 8, -8
 2401 0c9a 9F92      		push r9
 2402               	.LCFI104:
 2403               		.cfi_def_cfa_offset 10
 2404               		.cfi_offset 9, -9
 2405 0c9c AF92      		push r10
 2406               	.LCFI105:
 2407               		.cfi_def_cfa_offset 11
 2408               		.cfi_offset 10, -10
 2409 0c9e BF92      		push r11
 2410               	.LCFI106:
 2411               		.cfi_def_cfa_offset 12
 2412               		.cfi_offset 11, -11
 2413 0ca0 CF92      		push r12
 2414               	.LCFI107:
 2415               		.cfi_def_cfa_offset 13
 2416               		.cfi_offset 12, -12
 2417 0ca2 DF92      		push r13
 2418               	.LCFI108:
 2419               		.cfi_def_cfa_offset 14
 2420               		.cfi_offset 13, -13
 2421 0ca4 EF92      		push r14
 2422               	.LCFI109:
 2423               		.cfi_def_cfa_offset 15
 2424               		.cfi_offset 14, -14
 2425 0ca6 FF92      		push r15
 2426               	.LCFI110:
 2427               		.cfi_def_cfa_offset 16
 2428               		.cfi_offset 15, -15
 2429 0ca8 0F93      		push r16
 2430               	.LCFI111:
 2431               		.cfi_def_cfa_offset 17
 2432               		.cfi_offset 16, -16
 2433 0caa 1F93      		push r17
 2434               	.LCFI112:
 2435               		.cfi_def_cfa_offset 18
 2436               		.cfi_offset 17, -17
 2437 0cac CF93      		push r28
 2438               	.LCFI113:
 2439               		.cfi_def_cfa_offset 19
 2440               		.cfi_offset 28, -18
 2441 0cae DF93      		push r29
 2442               	.LCFI114:
 2443               		.cfi_def_cfa_offset 20
 2444               		.cfi_offset 29, -19
 2445 0cb0 CDB7      		in r28,__SP_L__
 2446 0cb2 DEB7      		in r29,__SP_H__
 2447               	.LCFI115:
 2448               		.cfi_def_cfa_register 28
 2449 0cb4 2C97      		sbiw r28,12
 2450               	.LCFI116:
 2451               		.cfi_def_cfa_offset 32
 2452 0cb6 0FB6      		in __tmp_reg__,__SREG__
 2453 0cb8 F894      		cli
 2454 0cba DEBF      		out __SP_H__,r29
 2455 0cbc 0FBE      		out __SREG__,__tmp_reg__
 2456 0cbe CDBF      		out __SP_L__,r28
 2457               	/* prologue: function */
 2458               	/* frame size = 12 */
 2459               	/* stack size = 30 */
 2460               	.L__stack_usage = 30
 2461 0cc0 9C83      		std Y+4,r25
 2462 0cc2 8B83      		std Y+3,r24
 2463 0cc4 4D83      		std Y+5,r20
 2464 0cc6 5E83      		std Y+6,r21
 2465 0cc8 6F83      		std Y+7,r22
 2466 0cca 7887      		std Y+8,r23
 2467 0ccc 3A87      		std Y+10,r19
 2468 0cce 2987      		std Y+9,r18
 142:lp_solve_5.5\bfp/lp_BFP2.c ****   INVrec    *lu;
 143:lp_solve_5.5\bfp/lp_BFP2.c **** 
 144:lp_solve_5.5\bfp/lp_BFP2.c ****   lu = lp->invB;
 2469               		.loc 2 144 0
 2470 0cd0 8B81      		ldd r24,Y+3
 2471 0cd2 9C81      		ldd r25,Y+4
 2472 0cd4 8854      		subi r24,72
 2473 0cd6 9D4F      		sbci r25,-3
 2474 0cd8 FC01      		movw r30,r24
 2475 0cda 8081      		ld r24,Z
 2476 0cdc 9181      		ldd r25,Z+1
 2477 0cde 9A83      		std Y+2,r25
 2478 0ce0 8983      		std Y+1,r24
 145:lp_solve_5.5\bfp/lp_BFP2.c **** 
 146:lp_solve_5.5\bfp/lp_BFP2.c ****   if(pcol == NULL)
 2479               		.loc 2 146 0
 2480 0ce2 8985      		ldd r24,Y+9
 2481 0ce4 9A85      		ldd r25,Y+10
 2482 0ce6 892B      		or r24,r25
 2483 0ce8 01F4      		brne .L85
 147:lp_solve_5.5\bfp/lp_BFP2.c ****     pcol = lu->pcol;
 2484               		.loc 2 147 0
 2485 0cea 8981      		ldd r24,Y+1
 2486 0cec 9A81      		ldd r25,Y+2
 2487 0cee FC01      		movw r30,r24
 2488 0cf0 8289      		ldd r24,Z+18
 2489 0cf2 9389      		ldd r25,Z+19
 2490 0cf4 9A87      		std Y+10,r25
 2491 0cf6 8987      		std Y+9,r24
 2492               	.L85:
 148:lp_solve_5.5\bfp/lp_BFP2.c **** 
 149:lp_solve_5.5\bfp/lp_BFP2.c ****   if(theta != 0) {
 2493               		.loc 2 149 0
 2494 0cf8 20E0      		ldi r18,0
 2495 0cfa 30E0      		ldi r19,0
 2496 0cfc A901      		movw r20,r18
 2497 0cfe 6D81      		ldd r22,Y+5
 2498 0d00 7E81      		ldd r23,Y+6
 2499 0d02 8F81      		ldd r24,Y+7
 2500 0d04 9885      		ldd r25,Y+8
 2501 0d06 0E94 0000 		call __nesf2
 2502 0d0a 8823      		tst r24
 2503 0d0c 01F4      		brne .+2
 2504 0d0e 00C0      		rjmp .L86
 2505               	.LBB4:
 150:lp_solve_5.5\bfp/lp_BFP2.c ****     register int    i, n = lp->rows;
 2506               		.loc 2 150 0
 2507 0d10 8B81      		ldd r24,Y+3
 2508 0d12 9C81      		ldd r25,Y+4
 2509 0d14 8651      		subi r24,22
 2510 0d16 9E4F      		sbci r25,-2
 2511 0d18 FC01      		movw r30,r24
 2512 0d1a 0190      		ld __tmp_reg__,Z+
 2513 0d1c F081      		ld r31,Z
 2514 0d1e E02D      		mov r30,__tmp_reg__
 2515 0d20 FC87      		std Y+12,r31
 2516 0d22 EB87      		std Y+11,r30
 151:lp_solve_5.5\bfp/lp_BFP2.c ****     register LREAL  roundzero = lp->epsvalue;
 2517               		.loc 2 151 0
 2518 0d24 8B81      		ldd r24,Y+3
 2519 0d26 9C81      		ldd r25,Y+4
 2520 0d28 8A5E      		subi r24,-22
 2521 0d2a 9C4F      		sbci r25,-4
 2522 0d2c FC01      		movw r30,r24
 2523 0d2e 6080      		ld r6,Z
 2524 0d30 7180      		ldd r7,Z+1
 2525 0d32 8280      		ldd r8,Z+2
 2526 0d34 9380      		ldd r9,Z+3
 152:lp_solve_5.5\bfp/lp_BFP2.c ****     register LREAL  *rhs = lp->rhs, rhsmax = 0;
 2527               		.loc 2 152 0
 2528 0d36 8B81      		ldd r24,Y+3
 2529 0d38 9C81      		ldd r25,Y+4
 2530 0d3a 8855      		subi r24,88
 2531 0d3c 9D4F      		sbci r25,-3
 2532 0d3e FC01      		movw r30,r24
 2533 0d40 0081      		ld r16,Z
 2534 0d42 1181      		ldd r17,Z+1
 2535 0d44 C12C      		mov r12,__zero_reg__
 2536 0d46 D12C      		mov r13,__zero_reg__
 2537 0d48 7601      		movw r14,r12
 153:lp_solve_5.5\bfp/lp_BFP2.c **** 
 154:lp_solve_5.5\bfp/lp_BFP2.c ****     for(i = 0; i <= n; i++, rhs++, pcol++) {
 2538               		.loc 2 154 0
 2539 0d4a A12C      		mov r10,__zero_reg__
 2540 0d4c B12C      		mov r11,__zero_reg__
 2541 0d4e 00C0      		rjmp .L88
 2542               	.L93:
 155:lp_solve_5.5\bfp/lp_BFP2.c ****       (*rhs) -= theta * (*pcol);
 2543               		.loc 2 155 0
 2544 0d50 F801      		movw r30,r16
 2545 0d52 2080      		ld r2,Z
 2546 0d54 3180      		ldd r3,Z+1
 2547 0d56 4280      		ldd r4,Z+2
 2548 0d58 5380      		ldd r5,Z+3
 2549 0d5a 8985      		ldd r24,Y+9
 2550 0d5c 9A85      		ldd r25,Y+10
 2551 0d5e FC01      		movw r30,r24
 2552 0d60 8081      		ld r24,Z
 2553 0d62 9181      		ldd r25,Z+1
 2554 0d64 A281      		ldd r26,Z+2
 2555 0d66 B381      		ldd r27,Z+3
 2556 0d68 2D81      		ldd r18,Y+5
 2557 0d6a 3E81      		ldd r19,Y+6
 2558 0d6c 4F81      		ldd r20,Y+7
 2559 0d6e 5885      		ldd r21,Y+8
 2560 0d70 BC01      		movw r22,r24
 2561 0d72 CD01      		movw r24,r26
 2562 0d74 0E94 0000 		call __mulsf3
 2563 0d78 DC01      		movw r26,r24
 2564 0d7a CB01      		movw r24,r22
 2565 0d7c 9C01      		movw r18,r24
 2566 0d7e AD01      		movw r20,r26
 2567 0d80 C201      		movw r24,r4
 2568 0d82 B101      		movw r22,r2
 2569 0d84 0E94 0000 		call __subsf3
 2570 0d88 DC01      		movw r26,r24
 2571 0d8a CB01      		movw r24,r22
 2572 0d8c F801      		movw r30,r16
 2573 0d8e 8083      		st Z,r24
 2574 0d90 9183      		std Z+1,r25
 2575 0d92 A283      		std Z+2,r26
 2576 0d94 B383      		std Z+3,r27
 156:lp_solve_5.5\bfp/lp_BFP2.c ****       my_roundzero(*rhs, roundzero);
 2577               		.loc 2 156 0
 2578 0d96 F801      		movw r30,r16
 2579 0d98 8081      		ld r24,Z
 2580 0d9a 9181      		ldd r25,Z+1
 2581 0d9c A281      		ldd r26,Z+2
 2582 0d9e B381      		ldd r27,Z+3
 2583 0da0 BF77      		andi r27,0x7f
 2584 0da2 A401      		movw r20,r8
 2585 0da4 9301      		movw r18,r6
 2586 0da6 BC01      		movw r22,r24
 2587 0da8 CD01      		movw r24,r26
 2588 0daa 0E94 0000 		call __ltsf2
 2589 0dae 8823      		tst r24
 2590 0db0 04F4      		brge .L89
 2591               		.loc 2 156 0 is_stmt 0 discriminator 1
 2592 0db2 F801      		movw r30,r16
 2593 0db4 1082      		st Z,__zero_reg__
 2594 0db6 1182      		std Z+1,__zero_reg__
 2595 0db8 1282      		std Z+2,__zero_reg__
 2596 0dba 1382      		std Z+3,__zero_reg__
 2597               	.L89:
 157:lp_solve_5.5\bfp/lp_BFP2.c ****       SETMAX(rhsmax, fabs(*rhs));
 2598               		.loc 2 157 0 is_stmt 1
 2599 0dbc F801      		movw r30,r16
 2600 0dbe 8081      		ld r24,Z
 2601 0dc0 9181      		ldd r25,Z+1
 2602 0dc2 A281      		ldd r26,Z+2
 2603 0dc4 B381      		ldd r27,Z+3
 2604 0dc6 BF77      		andi r27,0x7f
 2605 0dc8 A701      		movw r20,r14
 2606 0dca 9601      		movw r18,r12
 2607 0dcc BC01      		movw r22,r24
 2608 0dce CD01      		movw r24,r26
 2609 0dd0 0E94 0000 		call __gtsf2
 2610 0dd4 1816      		cp __zero_reg__,r24
 2611 0dd6 04F4      		brge .L91
 2612               		.loc 2 157 0 is_stmt 0 discriminator 1
 2613 0dd8 F801      		movw r30,r16
 2614 0dda 8081      		ld r24,Z
 2615 0ddc 9181      		ldd r25,Z+1
 2616 0dde A281      		ldd r26,Z+2
 2617 0de0 B381      		ldd r27,Z+3
 2618 0de2 6C01      		movw r12,r24
 2619 0de4 7D01      		movw r14,r26
 2620 0de6 E894      		clt
 2621 0de8 F7F8      		bld r15,7
 2622               	.L91:
 154:lp_solve_5.5\bfp/lp_BFP2.c ****       (*rhs) -= theta * (*pcol);
 2623               		.loc 2 154 0 is_stmt 1 discriminator 2
 2624 0dea FFEF      		ldi r31,-1
 2625 0dec AF1A      		sub r10,r31
 2626 0dee BF0A      		sbc r11,r31
 2627 0df0 0C5F      		subi r16,-4
 2628 0df2 1F4F      		sbci r17,-1
 2629 0df4 8985      		ldd r24,Y+9
 2630 0df6 9A85      		ldd r25,Y+10
 2631 0df8 0496      		adiw r24,4
 2632 0dfa 9A87      		std Y+10,r25
 2633 0dfc 8987      		std Y+9,r24
 2634               	.L88:
 154:lp_solve_5.5\bfp/lp_BFP2.c ****       (*rhs) -= theta * (*pcol);
 2635               		.loc 2 154 0 is_stmt 0 discriminator 1
 2636 0dfe 2B85      		ldd r18,Y+11
 2637 0e00 3C85      		ldd r19,Y+12
 2638 0e02 2A15      		cp r18,r10
 2639 0e04 3B05      		cpc r19,r11
 2640 0e06 04F0      		brlt .+2
 2641 0e08 00C0      		rjmp .L93
 158:lp_solve_5.5\bfp/lp_BFP2.c ****     }
 159:lp_solve_5.5\bfp/lp_BFP2.c ****     lp->rhsmax = rhsmax;
 2642               		.loc 2 159 0 is_stmt 1
 2643 0e0a 8B81      		ldd r24,Y+3
 2644 0e0c 9C81      		ldd r25,Y+4
 2645 0e0e 8052      		subi r24,32
 2646 0e10 9D4F      		sbci r25,-3
 2647 0e12 FC01      		movw r30,r24
 2648 0e14 C082      		st Z,r12
 2649 0e16 D182      		std Z+1,r13
 2650 0e18 E282      		std Z+2,r14
 2651 0e1a F382      		std Z+3,r15
 2652               	.L86:
 2653               	.LBE4:
 160:lp_solve_5.5\bfp/lp_BFP2.c ****   }
 161:lp_solve_5.5\bfp/lp_BFP2.c **** 
 162:lp_solve_5.5\bfp/lp_BFP2.c ****   if(pcol == lu->pcol)
 2654               		.loc 2 162 0
 2655 0e1c 8981      		ldd r24,Y+1
 2656 0e1e 9A81      		ldd r25,Y+2
 2657 0e20 FC01      		movw r30,r24
 2658 0e22 2289      		ldd r18,Z+18
 2659 0e24 3389      		ldd r19,Z+19
 2660 0e26 8985      		ldd r24,Y+9
 2661 0e28 9A85      		ldd r25,Y+10
 2662 0e2a 2817      		cp r18,r24
 2663 0e2c 3907      		cpc r19,r25
 2664 0e2e 01F4      		brne .L94
 163:lp_solve_5.5\bfp/lp_BFP2.c ****     return( lu->theta_enter );
 2665               		.loc 2 163 0
 2666 0e30 8981      		ldd r24,Y+1
 2667 0e32 9A81      		ldd r25,Y+2
 2668 0e34 FC01      		movw r30,r24
 2669 0e36 8489      		ldd r24,Z+20
 2670 0e38 9589      		ldd r25,Z+21
 2671 0e3a A689      		ldd r26,Z+22
 2672 0e3c B789      		ldd r27,Z+23
 2673 0e3e 00C0      		rjmp .L95
 2674               	.L94:
 164:lp_solve_5.5\bfp/lp_BFP2.c ****   else
 165:lp_solve_5.5\bfp/lp_BFP2.c ****     return( 0.0 );
 2675               		.loc 2 165 0
 2676 0e40 80E0      		ldi r24,0
 2677 0e42 90E0      		ldi r25,0
 2678 0e44 DC01      		movw r26,r24
 2679               	.L95:
 166:lp_solve_5.5\bfp/lp_BFP2.c **** }
 2680               		.loc 2 166 0
 2681 0e46 BC01      		movw r22,r24
 2682 0e48 CD01      		movw r24,r26
 2683               	/* epilogue start */
 2684 0e4a 2C96      		adiw r28,12
 2685 0e4c 0FB6      		in __tmp_reg__,__SREG__
 2686 0e4e F894      		cli
 2687 0e50 DEBF      		out __SP_H__,r29
 2688 0e52 0FBE      		out __SREG__,__tmp_reg__
 2689 0e54 CDBF      		out __SP_L__,r28
 2690 0e56 DF91      		pop r29
 2691 0e58 CF91      		pop r28
 2692 0e5a 1F91      		pop r17
 2693 0e5c 0F91      		pop r16
 2694 0e5e FF90      		pop r15
 2695 0e60 EF90      		pop r14
 2696 0e62 DF90      		pop r13
 2697 0e64 CF90      		pop r12
 2698 0e66 BF90      		pop r11
 2699 0e68 AF90      		pop r10
 2700 0e6a 9F90      		pop r9
 2701 0e6c 8F90      		pop r8
 2702 0e6e 7F90      		pop r7
 2703 0e70 6F90      		pop r6
 2704 0e72 5F90      		pop r5
 2705 0e74 4F90      		pop r4
 2706 0e76 3F90      		pop r3
 2707 0e78 2F90      		pop r2
 2708 0e7a 0895      		ret
 2709               		.cfi_endproc
 2710               	.LFE29:
 2712               	.global	bfp_btran_double
 2714               	bfp_btran_double:
 2715               	.LFB30:
 167:lp_solve_5.5\bfp/lp_BFP2.c **** 
 168:lp_solve_5.5\bfp/lp_BFP2.c **** 
 169:lp_solve_5.5\bfp/lp_BFP2.c **** /* DON'T MODIFY */
 170:lp_solve_5.5\bfp/lp_BFP2.c **** void BFP_CALLMODEL bfp_btran_double(lprec *lp, REAL *prow, int *pnzidx, REAL *drow, int *dnzidx)
 171:lp_solve_5.5\bfp/lp_BFP2.c **** {
 2716               		.loc 2 171 0
 2717               		.cfi_startproc
 2718 0e7c 0F93      		push r16
 2719               	.LCFI117:
 2720               		.cfi_def_cfa_offset 3
 2721               		.cfi_offset 16, -2
 2722 0e7e 1F93      		push r17
 2723               	.LCFI118:
 2724               		.cfi_def_cfa_offset 4
 2725               		.cfi_offset 17, -3
 2726 0e80 CF93      		push r28
 2727               	.LCFI119:
 2728               		.cfi_def_cfa_offset 5
 2729               		.cfi_offset 28, -4
 2730 0e82 DF93      		push r29
 2731               	.LCFI120:
 2732               		.cfi_def_cfa_offset 6
 2733               		.cfi_offset 29, -5
 2734 0e84 CDB7      		in r28,__SP_L__
 2735 0e86 DEB7      		in r29,__SP_H__
 2736               	.LCFI121:
 2737               		.cfi_def_cfa_register 28
 2738 0e88 2A97      		sbiw r28,10
 2739               	.LCFI122:
 2740               		.cfi_def_cfa_offset 16
 2741 0e8a 0FB6      		in __tmp_reg__,__SREG__
 2742 0e8c F894      		cli
 2743 0e8e DEBF      		out __SP_H__,r29
 2744 0e90 0FBE      		out __SREG__,__tmp_reg__
 2745 0e92 CDBF      		out __SP_L__,r28
 2746               	/* prologue: function */
 2747               	/* frame size = 10 */
 2748               	/* stack size = 14 */
 2749               	.L__stack_usage = 14
 2750 0e94 9A83      		std Y+2,r25
 2751 0e96 8983      		std Y+1,r24
 2752 0e98 7C83      		std Y+4,r23
 2753 0e9a 6B83      		std Y+3,r22
 2754 0e9c 5E83      		std Y+6,r21
 2755 0e9e 4D83      		std Y+5,r20
 2756 0ea0 3887      		std Y+8,r19
 2757 0ea2 2F83      		std Y+7,r18
 2758 0ea4 1A87      		std Y+10,r17
 2759 0ea6 0987      		std Y+9,r16
 172:lp_solve_5.5\bfp/lp_BFP2.c ****   if(prow != NULL)
 2760               		.loc 2 172 0
 2761 0ea8 8B81      		ldd r24,Y+3
 2762 0eaa 9C81      		ldd r25,Y+4
 2763 0eac 892B      		or r24,r25
 2764 0eae 01F0      		breq .L100
 173:lp_solve_5.5\bfp/lp_BFP2.c ****     lp->bfp_btran_normal(lp, prow, pnzidx);
 2765               		.loc 2 173 0
 2766 0eb0 8981      		ldd r24,Y+1
 2767 0eb2 9A81      		ldd r25,Y+2
 2768 0eb4 8C54      		subi r24,76
 2769 0eb6 9C4F      		sbci r25,-4
 2770 0eb8 FC01      		movw r30,r24
 2771 0eba 2081      		ld r18,Z
 2772 0ebc 3181      		ldd r19,Z+1
 2773 0ebe 4D81      		ldd r20,Y+5
 2774 0ec0 5E81      		ldd r21,Y+6
 2775 0ec2 6B81      		ldd r22,Y+3
 2776 0ec4 7C81      		ldd r23,Y+4
 2777 0ec6 8981      		ldd r24,Y+1
 2778 0ec8 9A81      		ldd r25,Y+2
 2779 0eca F901      		movw r30,r18
 2780 0ecc 0995      		icall
 2781               	.L100:
 174:lp_solve_5.5\bfp/lp_BFP2.c ****   if(drow != NULL)
 2782               		.loc 2 174 0
 2783 0ece 8F81      		ldd r24,Y+7
 2784 0ed0 9885      		ldd r25,Y+8
 2785 0ed2 892B      		or r24,r25
 2786 0ed4 01F0      		breq .L102
 175:lp_solve_5.5\bfp/lp_BFP2.c ****     lp->bfp_btran_normal(lp, drow, dnzidx);
 2787               		.loc 2 175 0
 2788 0ed6 8981      		ldd r24,Y+1
 2789 0ed8 9A81      		ldd r25,Y+2
 2790 0eda 8C54      		subi r24,76
 2791 0edc 9C4F      		sbci r25,-4
 2792 0ede FC01      		movw r30,r24
 2793 0ee0 2081      		ld r18,Z
 2794 0ee2 3181      		ldd r19,Z+1
 2795 0ee4 4985      		ldd r20,Y+9
 2796 0ee6 5A85      		ldd r21,Y+10
 2797 0ee8 6F81      		ldd r22,Y+7
 2798 0eea 7885      		ldd r23,Y+8
 2799 0eec 8981      		ldd r24,Y+1
 2800 0eee 9A81      		ldd r25,Y+2
 2801 0ef0 F901      		movw r30,r18
 2802 0ef2 0995      		icall
 2803               	.L102:
 176:lp_solve_5.5\bfp/lp_BFP2.c **** }
 2804               		.loc 2 176 0
 2805 0ef4 0000      		nop
 2806               	/* epilogue start */
 2807 0ef6 2A96      		adiw r28,10
 2808 0ef8 0FB6      		in __tmp_reg__,__SREG__
 2809 0efa F894      		cli
 2810 0efc DEBF      		out __SP_H__,r29
 2811 0efe 0FBE      		out __SREG__,__tmp_reg__
 2812 0f00 CDBF      		out __SP_L__,r28
 2813 0f02 DF91      		pop r29
 2814 0f04 CF91      		pop r28
 2815 0f06 1F91      		pop r17
 2816 0f08 0F91      		pop r16
 2817 0f0a 0895      		ret
 2818               		.cfi_endproc
 2819               	.LFE30:
 2821               		.section	.rodata
 2822               	.LC1:
 2823 0044 4C55 534F 		.string	"LUSOL v2.2.1.0"
 2823      4C20 7632 
 2823      2E32 2E31 
 2823      2E30 00
 2824               		.text
 2825               	.global	bfp_name
 2827               	bfp_name:
 2828               	.LFB31:
 2829               		.file 3 "lp_solve_5.5/bfp/bfp_LUSOL/lp_LUSOL.c"
   1:lp_solve_5.5/bfp/bfp_LUSOL/lp_LUSOL.c **** 
   2:lp_solve_5.5/bfp/bfp_LUSOL/lp_LUSOL.c **** /*  Modularized simplex basis factorization module - w/interface for lp_solve v5.0+
   3:lp_solve_5.5/bfp/bfp_LUSOL/lp_LUSOL.c ****    ----------------------------------------------------------------------------------
   4:lp_solve_5.5/bfp/bfp_LUSOL/lp_LUSOL.c ****     Author:        Kjell Eikland
   5:lp_solve_5.5/bfp/bfp_LUSOL/lp_LUSOL.c ****     Contact:       kjell.eikland@broadpark.no
   6:lp_solve_5.5/bfp/bfp_LUSOL/lp_LUSOL.c ****     License terms: LGPL.
   7:lp_solve_5.5/bfp/bfp_LUSOL/lp_LUSOL.c **** 
   8:lp_solve_5.5/bfp/bfp_LUSOL/lp_LUSOL.c ****     Requires:      lusol.h, lp_lib.h, myblas.h
   9:lp_solve_5.5/bfp/bfp_LUSOL/lp_LUSOL.c **** 
  10:lp_solve_5.5/bfp/bfp_LUSOL/lp_LUSOL.c ****     Release notes:
  11:lp_solve_5.5/bfp/bfp_LUSOL/lp_LUSOL.c ****     v2.0.0  1 March 2004        First implementation of the LUSOL v2.0 C translation.
  12:lp_solve_5.5/bfp/bfp_LUSOL/lp_LUSOL.c ****     v2.0.1  1 April 2004        Added singularity recovery and fast/reuse update logic.
  13:lp_solve_5.5/bfp/bfp_LUSOL/lp_LUSOL.c ****     v2.0.2  23 May 2004         Moved mustrefact() function into the BFP structure.
  14:lp_solve_5.5/bfp/bfp_LUSOL/lp_LUSOL.c ****     v2.0.3  5 September 2004    Reworked pivot threshold tightening logic and default
  15:lp_solve_5.5/bfp/bfp_LUSOL/lp_LUSOL.c ****                                 values.
  16:lp_solve_5.5/bfp/bfp_LUSOL/lp_LUSOL.c ****     v2.1.0  18 June 2005        Made changes to allow for "pure" factorization;
  17:lp_solve_5.5/bfp/bfp_LUSOL/lp_LUSOL.c ****                                 i.e. without the objective function included.
  18:lp_solve_5.5/bfp/bfp_LUSOL/lp_LUSOL.c **** 
  19:lp_solve_5.5/bfp/bfp_LUSOL/lp_LUSOL.c ****    ---------------------------------------------------------------------------------- */
  20:lp_solve_5.5/bfp/bfp_LUSOL/lp_LUSOL.c **** 
  21:lp_solve_5.5/bfp/bfp_LUSOL/lp_LUSOL.c **** /* Generic include libraries */
  22:lp_solve_5.5/bfp/bfp_LUSOL/lp_LUSOL.c **** #include <stdlib.h>
  23:lp_solve_5.5/bfp/bfp_LUSOL/lp_LUSOL.c **** #include <string.h>
  24:lp_solve_5.5/bfp/bfp_LUSOL/lp_LUSOL.c **** #include "lp_lib.h"
  25:lp_solve_5.5/bfp/bfp_LUSOL/lp_LUSOL.c **** 
  26:lp_solve_5.5/bfp/bfp_LUSOL/lp_LUSOL.c **** /* Include libraries for this factorization system */
  27:lp_solve_5.5/bfp/bfp_LUSOL/lp_LUSOL.c **** #include "myblas.h"
  28:lp_solve_5.5/bfp/bfp_LUSOL/lp_LUSOL.c **** #include "commonlib.h"
  29:lp_solve_5.5/bfp/bfp_LUSOL/lp_LUSOL.c **** #include "lp_LUSOL.h"
  30:lp_solve_5.5/bfp/bfp_LUSOL/lp_LUSOL.c **** #include "lusol.h"
  31:lp_solve_5.5/bfp/bfp_LUSOL/lp_LUSOL.c **** 
  32:lp_solve_5.5/bfp/bfp_LUSOL/lp_LUSOL.c **** #ifdef FORTIFY
  33:lp_solve_5.5/bfp/bfp_LUSOL/lp_LUSOL.c **** # include "lp_fortify.h"
  34:lp_solve_5.5/bfp/bfp_LUSOL/lp_LUSOL.c **** #endif
  35:lp_solve_5.5/bfp/bfp_LUSOL/lp_LUSOL.c **** 
  36:lp_solve_5.5/bfp/bfp_LUSOL/lp_LUSOL.c **** /* Include routines common to factorization engine implementations */
  37:lp_solve_5.5/bfp/bfp_LUSOL/lp_LUSOL.c **** #include "lp_BFP1.c"
  38:lp_solve_5.5/bfp/bfp_LUSOL/lp_LUSOL.c **** #include "lp_BFP2.c"
  39:lp_solve_5.5/bfp/bfp_LUSOL/lp_LUSOL.c **** 
  40:lp_solve_5.5/bfp/bfp_LUSOL/lp_LUSOL.c **** 
  41:lp_solve_5.5/bfp/bfp_LUSOL/lp_LUSOL.c **** /* MUST MODIFY */
  42:lp_solve_5.5/bfp/bfp_LUSOL/lp_LUSOL.c **** char * BFP_CALLMODEL bfp_name(void)
  43:lp_solve_5.5/bfp/bfp_LUSOL/lp_LUSOL.c **** {
 2830               		.loc 3 43 0
 2831               		.cfi_startproc
 2832 0f0c CF93      		push r28
 2833               	.LCFI123:
 2834               		.cfi_def_cfa_offset 3
 2835               		.cfi_offset 28, -2
 2836 0f0e DF93      		push r29
 2837               	.LCFI124:
 2838               		.cfi_def_cfa_offset 4
 2839               		.cfi_offset 29, -3
 2840 0f10 CDB7      		in r28,__SP_L__
 2841 0f12 DEB7      		in r29,__SP_H__
 2842               	.LCFI125:
 2843               		.cfi_def_cfa_register 28
 2844               	/* prologue: function */
 2845               	/* frame size = 0 */
 2846               	/* stack size = 2 */
 2847               	.L__stack_usage = 2
  44:lp_solve_5.5/bfp/bfp_LUSOL/lp_LUSOL.c ****   return( "LUSOL v2.2.1.0" );
 2848               		.loc 3 44 0
 2849 0f14 80E0      		ldi r24,lo8(.LC1)
 2850 0f16 90E0      		ldi r25,hi8(.LC1)
 2851               	/* epilogue start */
  45:lp_solve_5.5/bfp/bfp_LUSOL/lp_LUSOL.c **** }
 2852               		.loc 3 45 0
 2853 0f18 DF91      		pop r29
 2854 0f1a CF91      		pop r28
 2855 0f1c 0895      		ret
 2856               		.cfi_endproc
 2857               	.LFE31:
 2859               	.global	__addsf3
 2860               	.global	__fixsfsi
 2861               	.global	bfp_resize
 2863               	bfp_resize:
 2864               	.LFB32:
  46:lp_solve_5.5/bfp/bfp_LUSOL/lp_LUSOL.c **** 
  47:lp_solve_5.5/bfp/bfp_LUSOL/lp_LUSOL.c **** 
  48:lp_solve_5.5/bfp/bfp_LUSOL/lp_LUSOL.c **** /* MUST MODIFY */
  49:lp_solve_5.5/bfp/bfp_LUSOL/lp_LUSOL.c **** MYBOOL BFP_CALLMODEL bfp_resize(lprec *lp, int newsize)
  50:lp_solve_5.5/bfp/bfp_LUSOL/lp_LUSOL.c **** {
 2865               		.loc 3 50 0
 2866               		.cfi_startproc
 2867 0f1e CF92      		push r12
 2868               	.LCFI126:
 2869               		.cfi_def_cfa_offset 3
 2870               		.cfi_offset 12, -2
 2871 0f20 DF92      		push r13
 2872               	.LCFI127:
 2873               		.cfi_def_cfa_offset 4
 2874               		.cfi_offset 13, -3
 2875 0f22 EF92      		push r14
 2876               	.LCFI128:
 2877               		.cfi_def_cfa_offset 5
 2878               		.cfi_offset 14, -4
 2879 0f24 FF92      		push r15
 2880               	.LCFI129:
 2881               		.cfi_def_cfa_offset 6
 2882               		.cfi_offset 15, -5
 2883 0f26 CF93      		push r28
 2884               	.LCFI130:
 2885               		.cfi_def_cfa_offset 7
 2886               		.cfi_offset 28, -6
 2887 0f28 DF93      		push r29
 2888               	.LCFI131:
 2889               		.cfi_def_cfa_offset 8
 2890               		.cfi_offset 29, -7
 2891 0f2a CDB7      		in r28,__SP_L__
 2892 0f2c DEB7      		in r29,__SP_H__
 2893               	.LCFI132:
 2894               		.cfi_def_cfa_register 28
 2895 0f2e 2C97      		sbiw r28,12
 2896               	.LCFI133:
 2897               		.cfi_def_cfa_offset 20
 2898 0f30 0FB6      		in __tmp_reg__,__SREG__
 2899 0f32 F894      		cli
 2900 0f34 DEBF      		out __SP_H__,r29
 2901 0f36 0FBE      		out __SREG__,__tmp_reg__
 2902 0f38 CDBF      		out __SP_L__,r28
 2903               	/* prologue: function */
 2904               	/* frame size = 12 */
 2905               	/* stack size = 18 */
 2906               	.L__stack_usage = 18
 2907 0f3a 9A87      		std Y+10,r25
 2908 0f3c 8987      		std Y+9,r24
 2909 0f3e 7C87      		std Y+12,r23
 2910 0f40 6B87      		std Y+11,r22
  51:lp_solve_5.5/bfp/bfp_LUSOL/lp_LUSOL.c ****   INVrec *lu;
  52:lp_solve_5.5/bfp/bfp_LUSOL/lp_LUSOL.c **** 
  53:lp_solve_5.5/bfp/bfp_LUSOL/lp_LUSOL.c ****   lu = lp->invB;
 2911               		.loc 3 53 0
 2912 0f42 8985      		ldd r24,Y+9
 2913 0f44 9A85      		ldd r25,Y+10
 2914 0f46 8854      		subi r24,72
 2915 0f48 9D4F      		sbci r25,-3
 2916 0f4a FC01      		movw r30,r24
 2917 0f4c 8081      		ld r24,Z
 2918 0f4e 9181      		ldd r25,Z+1
 2919 0f50 9E83      		std Y+6,r25
 2920 0f52 8D83      		std Y+5,r24
  54:lp_solve_5.5/bfp/bfp_LUSOL/lp_LUSOL.c **** 
  55:lp_solve_5.5/bfp/bfp_LUSOL/lp_LUSOL.c ****   /* Increment dimensionality since we put the objective row at the top */
  56:lp_solve_5.5/bfp/bfp_LUSOL/lp_LUSOL.c ****   newsize = newsize + bfp_rowoffset(lp);
 2921               		.loc 3 56 0
 2922 0f54 8985      		ldd r24,Y+9
 2923 0f56 9A85      		ldd r25,Y+10
 2924 0f58 0E94 0000 		call bfp_rowoffset
 2925 0f5c 9C01      		movw r18,r24
 2926 0f5e 8B85      		ldd r24,Y+11
 2927 0f60 9C85      		ldd r25,Y+12
 2928 0f62 820F      		add r24,r18
 2929 0f64 931F      		adc r25,r19
 2930 0f66 9C87      		std Y+12,r25
 2931 0f68 8B87      		std Y+11,r24
  57:lp_solve_5.5/bfp/bfp_LUSOL/lp_LUSOL.c ****   lu->dimalloc = newsize;
 2932               		.loc 3 57 0
 2933 0f6a 8D81      		ldd r24,Y+5
 2934 0f6c 9E81      		ldd r25,Y+6
 2935 0f6e 2B85      		ldd r18,Y+11
 2936 0f70 3C85      		ldd r19,Y+12
 2937 0f72 FC01      		movw r30,r24
 2938 0f74 3583      		std Z+5,r19
 2939 0f76 2483      		std Z+4,r18
  58:lp_solve_5.5/bfp/bfp_LUSOL/lp_LUSOL.c **** 
  59:lp_solve_5.5/bfp/bfp_LUSOL/lp_LUSOL.c ****   /* Allocate index tracker arrays, LU matrices and various work vectors */
  60:lp_solve_5.5/bfp/bfp_LUSOL/lp_LUSOL.c ****   if(!allocREAL(lp, &(lu->value), newsize+MATINDEXBASE, AUTOMATIC))
 2940               		.loc 3 60 0
 2941 0f78 8B85      		ldd r24,Y+11
 2942 0f7a 9C85      		ldd r25,Y+12
 2943 0f7c AC01      		movw r20,r24
 2944 0f7e 4F5F      		subi r20,-1
 2945 0f80 5F4F      		sbci r21,-1
 2946 0f82 8D81      		ldd r24,Y+5
 2947 0f84 9E81      		ldd r25,Y+6
 2948 0f86 BC01      		movw r22,r24
 2949 0f88 605F      		subi r22,-16
 2950 0f8a 7F4F      		sbci r23,-1
 2951 0f8c 8985      		ldd r24,Y+9
 2952 0f8e 9A85      		ldd r25,Y+10
 2953 0f90 22E0      		ldi r18,lo8(2)
 2954 0f92 0E94 0000 		call allocREAL
 2955 0f96 8823      		tst r24
 2956 0f98 01F4      		brne .L106
  61:lp_solve_5.5/bfp/bfp_LUSOL/lp_LUSOL.c ****     return( FALSE );
 2957               		.loc 3 61 0
 2958 0f9a 80E0      		ldi r24,0
 2959 0f9c 00C0      		rjmp .L107
 2960               	.L106:
  62:lp_solve_5.5/bfp/bfp_LUSOL/lp_LUSOL.c **** 
  63:lp_solve_5.5/bfp/bfp_LUSOL/lp_LUSOL.c ****   /* Data specific to the factorization engine */
  64:lp_solve_5.5/bfp/bfp_LUSOL/lp_LUSOL.c ****   if(lu->LUSOL != NULL) {
 2961               		.loc 3 64 0
 2962 0f9e 8D81      		ldd r24,Y+5
 2963 0fa0 9E81      		ldd r25,Y+6
 2964 0fa2 FC01      		movw r30,r24
 2965 0fa4 8085      		ldd r24,Z+8
 2966 0fa6 9185      		ldd r25,Z+9
 2967 0fa8 892B      		or r24,r25
 2968 0faa 01F0      		breq .L108
  65:lp_solve_5.5/bfp/bfp_LUSOL/lp_LUSOL.c ****     if(newsize > 0 || 1)
  66:lp_solve_5.5/bfp/bfp_LUSOL/lp_LUSOL.c ****       LUSOL_sizeto(lu->LUSOL, newsize, newsize, 0);
 2969               		.loc 3 66 0
 2970 0fac 8D81      		ldd r24,Y+5
 2971 0fae 9E81      		ldd r25,Y+6
 2972 0fb0 FC01      		movw r30,r24
 2973 0fb2 8085      		ldd r24,Z+8
 2974 0fb4 9185      		ldd r25,Z+9
 2975 0fb6 4B85      		ldd r20,Y+11
 2976 0fb8 5C85      		ldd r21,Y+12
 2977 0fba 6B85      		ldd r22,Y+11
 2978 0fbc 7C85      		ldd r23,Y+12
 2979 0fbe 20E0      		ldi r18,0
 2980 0fc0 30E0      		ldi r19,0
 2981 0fc2 0E94 0000 		call LUSOL_sizeto
 2982 0fc6 00C0      		rjmp .L109
 2983               	.L108:
 2984               	.LBB5:
  67:lp_solve_5.5/bfp/bfp_LUSOL/lp_LUSOL.c ****     else {
  68:lp_solve_5.5/bfp/bfp_LUSOL/lp_LUSOL.c ****       LUSOL_free(lu->LUSOL);
  69:lp_solve_5.5/bfp/bfp_LUSOL/lp_LUSOL.c ****       lu->LUSOL = NULL;
  70:lp_solve_5.5/bfp/bfp_LUSOL/lp_LUSOL.c ****     }
  71:lp_solve_5.5/bfp/bfp_LUSOL/lp_LUSOL.c ****   }
  72:lp_solve_5.5/bfp/bfp_LUSOL/lp_LUSOL.c ****   else if(newsize > 0 || 1) {
  73:lp_solve_5.5/bfp/bfp_LUSOL/lp_LUSOL.c ****     int  asize;
  74:lp_solve_5.5/bfp/bfp_LUSOL/lp_LUSOL.c ****     REAL bsize;
  75:lp_solve_5.5/bfp/bfp_LUSOL/lp_LUSOL.c **** 
  76:lp_solve_5.5/bfp/bfp_LUSOL/lp_LUSOL.c ****     lu->LUSOL = LUSOL_create(NULL, 0, LUSOL_PIVMOD_TPP, bfp_pivotmax(lp)*0);
 2985               		.loc 3 76 0
 2986 0fc8 8985      		ldd r24,Y+9
 2987 0fca 9A85      		ldd r25,Y+10
 2988 0fcc 0E94 0000 		call bfp_pivotmax
 2989 0fd0 20E0      		ldi r18,0
 2990 0fd2 30E0      		ldi r19,0
 2991 0fd4 40E0      		ldi r20,0
 2992 0fd6 50E0      		ldi r21,0
 2993 0fd8 60E0      		ldi r22,0
 2994 0fda 70E0      		ldi r23,0
 2995 0fdc 80E0      		ldi r24,0
 2996 0fde 90E0      		ldi r25,0
 2997 0fe0 0E94 0000 		call LUSOL_create
 2998 0fe4 9C01      		movw r18,r24
 2999 0fe6 8D81      		ldd r24,Y+5
 3000 0fe8 9E81      		ldd r25,Y+6
 3001 0fea FC01      		movw r30,r24
 3002 0fec 3187      		std Z+9,r19
 3003 0fee 2087      		std Z+8,r18
  77:lp_solve_5.5/bfp/bfp_LUSOL/lp_LUSOL.c **** 
  78:lp_solve_5.5/bfp/bfp_LUSOL/lp_LUSOL.c **** #if 1
  79:lp_solve_5.5/bfp/bfp_LUSOL/lp_LUSOL.c ****     lu->LUSOL->luparm[LUSOL_IP_ACCELERATION]  = LUSOL_AUTOORDER;
 3004               		.loc 3 79 0
 3005 0ff0 8D81      		ldd r24,Y+5
 3006 0ff2 9E81      		ldd r25,Y+6
 3007 0ff4 FC01      		movw r30,r24
 3008 0ff6 8085      		ldd r24,Z+8
 3009 0ff8 9185      		ldd r25,Z+9
 3010 0ffa 22E0      		ldi r18,lo8(2)
 3011 0ffc 30E0      		ldi r19,0
 3012 0ffe FC01      		movw r30,r24
 3013 1000 378B      		std Z+23,r19
 3014 1002 268B      		std Z+22,r18
  80:lp_solve_5.5/bfp/bfp_LUSOL/lp_LUSOL.c ****     lu->LUSOL->parmlu[LUSOL_RP_SMARTRATIO]    = 0.50;
 3015               		.loc 3 80 0
 3016 1004 8D81      		ldd r24,Y+5
 3017 1006 9E81      		ldd r25,Y+6
 3018 1008 FC01      		movw r30,r24
 3019 100a 8085      		ldd r24,Z+8
 3020 100c 9185      		ldd r25,Z+9
 3021 100e 9C01      		movw r18,r24
 3022 1010 265B      		subi r18,-74
 3023 1012 3F4F      		sbci r19,-1
 3024 1014 80E0      		ldi r24,0
 3025 1016 90E0      		ldi r25,0
 3026 1018 A0E0      		ldi r26,0
 3027 101a BFE3      		ldi r27,lo8(63)
 3028 101c F901      		movw r30,r18
 3029 101e 8083      		st Z,r24
 3030 1020 9183      		std Z+1,r25
 3031 1022 A283      		std Z+2,r26
 3032 1024 B383      		std Z+3,r27
  81:lp_solve_5.5/bfp/bfp_LUSOL/lp_LUSOL.c **** #endif
  82:lp_solve_5.5/bfp/bfp_LUSOL/lp_LUSOL.c **** #if 0
  83:lp_solve_5.5/bfp/bfp_LUSOL/lp_LUSOL.c ****     lu->timed_refact = DEF_TIMEDREFACT;
  84:lp_solve_5.5/bfp/bfp_LUSOL/lp_LUSOL.c **** #else
  85:lp_solve_5.5/bfp/bfp_LUSOL/lp_LUSOL.c ****     lu->timed_refact = FALSE;
 3033               		.loc 3 85 0
 3034 1026 8D81      		ldd r24,Y+5
 3035 1028 9E81      		ldd r25,Y+6
 3036 102a FC01      		movw r30,r24
 3037 102c 14AA      		std Z+52,__zero_reg__
  86:lp_solve_5.5/bfp/bfp_LUSOL/lp_LUSOL.c **** #endif
  87:lp_solve_5.5/bfp/bfp_LUSOL/lp_LUSOL.c **** 
  88:lp_solve_5.5/bfp/bfp_LUSOL/lp_LUSOL.c ****     /* The following adjustments seem necessary to make the really tough NETLIB
  89:lp_solve_5.5/bfp/bfp_LUSOL/lp_LUSOL.c ****        models perform reliably and still performant (e.g. cycle.mps) */
  90:lp_solve_5.5/bfp/bfp_LUSOL/lp_LUSOL.c **** #if 0
  91:lp_solve_5.5/bfp/bfp_LUSOL/lp_LUSOL.c ****     lu->LUSOL->parmlu[LUSOL_RP_SMALLDIAG_U]   =
  92:lp_solve_5.5/bfp/bfp_LUSOL/lp_LUSOL.c ****     lu->LUSOL->parmlu[LUSOL_RP_EPSDIAG_U]     = lp->epsprimal;
  93:lp_solve_5.5/bfp/bfp_LUSOL/lp_LUSOL.c **** #endif
  94:lp_solve_5.5/bfp/bfp_LUSOL/lp_LUSOL.c **** #if 0
  95:lp_solve_5.5/bfp/bfp_LUSOL/lp_LUSOL.c ****     lu->LUSOL->parmlu[LUSOL_RP_ZEROTOLERANCE] = lp->epsvalue;
  96:lp_solve_5.5/bfp/bfp_LUSOL/lp_LUSOL.c **** #endif
  97:lp_solve_5.5/bfp/bfp_LUSOL/lp_LUSOL.c **** 
  98:lp_solve_5.5/bfp/bfp_LUSOL/lp_LUSOL.c **** #if 1
  99:lp_solve_5.5/bfp/bfp_LUSOL/lp_LUSOL.c ****     LUSOL_setpivotmodel(lu->LUSOL, LUSOL_PIVMOD_NOCHANGE, LUSOL_PIVTOL_SLIM);
 3038               		.loc 3 99 0
 3039 102e 8D81      		ldd r24,Y+5
 3040 1030 9E81      		ldd r25,Y+6
 3041 1032 FC01      		movw r30,r24
 3042 1034 8085      		ldd r24,Z+8
 3043 1036 9185      		ldd r25,Z+9
 3044 1038 44E0      		ldi r20,lo8(4)
 3045 103a 50E0      		ldi r21,0
 3046 103c 6EEF      		ldi r22,lo8(-2)
 3047 103e 7FEF      		ldi r23,lo8(-1)
 3048 1040 0E94 0000 		call LUSOL_setpivotmodel
 100:lp_solve_5.5/bfp/bfp_LUSOL/lp_LUSOL.c **** #else
 101:lp_solve_5.5/bfp/bfp_LUSOL/lp_LUSOL.c ****     LUSOL_setpivotmodel(lu->LUSOL, LUSOL_PIVMOD_NOCHANGE, LUSOL_PIVTOL_TIGHT);
 102:lp_solve_5.5/bfp/bfp_LUSOL/lp_LUSOL.c **** #endif
 103:lp_solve_5.5/bfp/bfp_LUSOL/lp_LUSOL.c **** 
 104:lp_solve_5.5/bfp/bfp_LUSOL/lp_LUSOL.c **** #ifdef LUSOL_UseBLAS
 105:lp_solve_5.5/bfp/bfp_LUSOL/lp_LUSOL.c **** /*    if(fileSearchPath("PATH", "myBLAS.DLL", NULL) && load_BLAS("myBLAS")) */
 106:lp_solve_5.5/bfp/bfp_LUSOL/lp_LUSOL.c ****     if(is_nativeBLAS() && load_BLAS(libnameBLAS))
 107:lp_solve_5.5/bfp/bfp_LUSOL/lp_LUSOL.c ****       lp->report(lp, NORMAL, "Optimized BLAS was successfully loaded for bfp_LUSOL.\n");
 108:lp_solve_5.5/bfp/bfp_LUSOL/lp_LUSOL.c **** #endif
 109:lp_solve_5.5/bfp/bfp_LUSOL/lp_LUSOL.c **** 
 110:lp_solve_5.5/bfp/bfp_LUSOL/lp_LUSOL.c ****     /* Try to minimize memory allocation if we have a large number of unit columns */
 111:lp_solve_5.5/bfp/bfp_LUSOL/lp_LUSOL.c ****     bsize = (REAL) lp->get_nonzeros(lp);
 3049               		.loc 3 111 0
 3050 1044 8985      		ldd r24,Y+9
 3051 1046 9A85      		ldd r25,Y+10
 3052 1048 8C59      		subi r24,-100
 3053 104a 9F4F      		sbci r25,-1
 3054 104c FC01      		movw r30,r24
 3055 104e 2081      		ld r18,Z
 3056 1050 3181      		ldd r19,Z+1
 3057 1052 8985      		ldd r24,Y+9
 3058 1054 9A85      		ldd r25,Y+10
 3059 1056 F901      		movw r30,r18
 3060 1058 0995      		icall
 3061 105a 092E      		mov __tmp_reg__,r25
 3062 105c 000C      		lsl r0
 3063 105e AA0B      		sbc r26,r26
 3064 1060 BB0B      		sbc r27,r27
 3065 1062 BC01      		movw r22,r24
 3066 1064 CD01      		movw r24,r26
 3067 1066 0E94 0000 		call __floatsisf
 3068 106a DC01      		movw r26,r24
 3069 106c CB01      		movw r24,r22
 3070 106e 8983      		std Y+1,r24
 3071 1070 9A83      		std Y+2,r25
 3072 1072 AB83      		std Y+3,r26
 3073 1074 BC83      		std Y+4,r27
 112:lp_solve_5.5/bfp/bfp_LUSOL/lp_LUSOL.c ****     if(newsize > lp->columns)
 3074               		.loc 3 112 0
 3075 1076 8985      		ldd r24,Y+9
 3076 1078 9A85      		ldd r25,Y+10
 3077 107a 8451      		subi r24,20
 3078 107c 9E4F      		sbci r25,-2
 3079 107e FC01      		movw r30,r24
 3080 1080 2081      		ld r18,Z
 3081 1082 3181      		ldd r19,Z+1
 3082 1084 8B85      		ldd r24,Y+11
 3083 1086 9C85      		ldd r25,Y+12
 3084 1088 2817      		cp r18,r24
 3085 108a 3907      		cpc r19,r25
 3086 108c 04F4      		brge .L110
 113:lp_solve_5.5/bfp/bfp_LUSOL/lp_LUSOL.c ****       bsize += newsize;
 3087               		.loc 3 113 0
 3088 108e 8B85      		ldd r24,Y+11
 3089 1090 9C85      		ldd r25,Y+12
 3090 1092 092E      		mov __tmp_reg__,r25
 3091 1094 000C      		lsl r0
 3092 1096 AA0B      		sbc r26,r26
 3093 1098 BB0B      		sbc r27,r27
 3094 109a BC01      		movw r22,r24
 3095 109c CD01      		movw r24,r26
 3096 109e 0E94 0000 		call __floatsisf
 3097 10a2 DC01      		movw r26,r24
 3098 10a4 CB01      		movw r24,r22
 3099 10a6 9C01      		movw r18,r24
 3100 10a8 AD01      		movw r20,r26
 3101 10aa 6981      		ldd r22,Y+1
 3102 10ac 7A81      		ldd r23,Y+2
 3103 10ae 8B81      		ldd r24,Y+3
 3104 10b0 9C81      		ldd r25,Y+4
 3105 10b2 0E94 0000 		call __addsf3
 3106 10b6 DC01      		movw r26,r24
 3107 10b8 CB01      		movw r24,r22
 3108 10ba 8983      		std Y+1,r24
 3109 10bc 9A83      		std Y+2,r25
 3110 10be AB83      		std Y+3,r26
 3111 10c0 BC83      		std Y+4,r27
 3112 10c2 00C0      		rjmp .L111
 3113               	.L110:
 114:lp_solve_5.5/bfp/bfp_LUSOL/lp_LUSOL.c ****     else
 115:lp_solve_5.5/bfp/bfp_LUSOL/lp_LUSOL.c ****       bsize = bsize/lp->columns*newsize;
 3114               		.loc 3 115 0
 3115 10c4 8985      		ldd r24,Y+9
 3116 10c6 9A85      		ldd r25,Y+10
 3117 10c8 8451      		subi r24,20
 3118 10ca 9E4F      		sbci r25,-2
 3119 10cc FC01      		movw r30,r24
 3120 10ce 8081      		ld r24,Z
 3121 10d0 9181      		ldd r25,Z+1
 3122 10d2 092E      		mov __tmp_reg__,r25
 3123 10d4 000C      		lsl r0
 3124 10d6 AA0B      		sbc r26,r26
 3125 10d8 BB0B      		sbc r27,r27
 3126 10da BC01      		movw r22,r24
 3127 10dc CD01      		movw r24,r26
 3128 10de 0E94 0000 		call __floatsisf
 3129 10e2 DC01      		movw r26,r24
 3130 10e4 CB01      		movw r24,r22
 3131 10e6 9C01      		movw r18,r24
 3132 10e8 AD01      		movw r20,r26
 3133 10ea 6981      		ldd r22,Y+1
 3134 10ec 7A81      		ldd r23,Y+2
 3135 10ee 8B81      		ldd r24,Y+3
 3136 10f0 9C81      		ldd r25,Y+4
 3137 10f2 0E94 0000 		call __divsf3
 3138 10f6 DC01      		movw r26,r24
 3139 10f8 CB01      		movw r24,r22
 3140 10fa 6C01      		movw r12,r24
 3141 10fc 7D01      		movw r14,r26
 3142 10fe 8B85      		ldd r24,Y+11
 3143 1100 9C85      		ldd r25,Y+12
 3144 1102 092E      		mov __tmp_reg__,r25
 3145 1104 000C      		lsl r0
 3146 1106 AA0B      		sbc r26,r26
 3147 1108 BB0B      		sbc r27,r27
 3148 110a BC01      		movw r22,r24
 3149 110c CD01      		movw r24,r26
 3150 110e 0E94 0000 		call __floatsisf
 3151 1112 DC01      		movw r26,r24
 3152 1114 CB01      		movw r24,r22
 3153 1116 9C01      		movw r18,r24
 3154 1118 AD01      		movw r20,r26
 3155 111a C701      		movw r24,r14
 3156 111c B601      		movw r22,r12
 3157 111e 0E94 0000 		call __mulsf3
 3158 1122 DC01      		movw r26,r24
 3159 1124 CB01      		movw r24,r22
 3160 1126 8983      		std Y+1,r24
 3161 1128 9A83      		std Y+2,r25
 3162 112a AB83      		std Y+3,r26
 3163 112c BC83      		std Y+4,r27
 3164               	.L111:
 116:lp_solve_5.5/bfp/bfp_LUSOL/lp_LUSOL.c ****     /* Add a "reasonable" delta to allow for B and associated factorizations
 117:lp_solve_5.5/bfp/bfp_LUSOL/lp_LUSOL.c ****        that are denser than average; this makes reallocations less frequent.
 118:lp_solve_5.5/bfp/bfp_LUSOL/lp_LUSOL.c ****        Values between 1.2 and 1.5 appear to be reasonable. */
 119:lp_solve_5.5/bfp/bfp_LUSOL/lp_LUSOL.c ****     asize = (int) (bsize*MAX_DELTAFILLIN*1.3333);
 3165               		.loc 3 119 0
 3166 112e 8981      		ldd r24,Y+1
 3167 1130 9A81      		ldd r25,Y+2
 3168 1132 AB81      		ldd r26,Y+3
 3169 1134 BC81      		ldd r27,Y+4
 3170 1136 9C01      		movw r18,r24
 3171 1138 AD01      		movw r20,r26
 3172 113a BC01      		movw r22,r24
 3173 113c CD01      		movw r24,r26
 3174 113e 0E94 0000 		call __addsf3
 3175 1142 DC01      		movw r26,r24
 3176 1144 CB01      		movw r24,r22
 3177 1146 23E9      		ldi r18,lo8(-109)
 3178 1148 39EA      		ldi r19,lo8(-87)
 3179 114a 4AEA      		ldi r20,lo8(-86)
 3180 114c 5FE3      		ldi r21,lo8(63)
 3181 114e BC01      		movw r22,r24
 3182 1150 CD01      		movw r24,r26
 3183 1152 0E94 0000 		call __mulsf3
 3184 1156 DC01      		movw r26,r24
 3185 1158 CB01      		movw r24,r22
 3186 115a BC01      		movw r22,r24
 3187 115c CD01      		movw r24,r26
 3188 115e 0E94 0000 		call __fixsfsi
 3189 1162 DC01      		movw r26,r24
 3190 1164 CB01      		movw r24,r22
 3191 1166 9887      		std Y+8,r25
 3192 1168 8F83      		std Y+7,r24
 120:lp_solve_5.5/bfp/bfp_LUSOL/lp_LUSOL.c ****     if(!LUSOL_sizeto(lu->LUSOL, newsize, newsize, asize))
 3193               		.loc 3 120 0
 3194 116a 8D81      		ldd r24,Y+5
 3195 116c 9E81      		ldd r25,Y+6
 3196 116e FC01      		movw r30,r24
 3197 1170 8085      		ldd r24,Z+8
 3198 1172 9185      		ldd r25,Z+9
 3199 1174 2F81      		ldd r18,Y+7
 3200 1176 3885      		ldd r19,Y+8
 3201 1178 4B85      		ldd r20,Y+11
 3202 117a 5C85      		ldd r21,Y+12
 3203 117c 6B85      		ldd r22,Y+11
 3204 117e 7C85      		ldd r23,Y+12
 3205 1180 0E94 0000 		call LUSOL_sizeto
 3206 1184 8823      		tst r24
 3207 1186 01F4      		brne .L109
 121:lp_solve_5.5/bfp/bfp_LUSOL/lp_LUSOL.c ****       return( FALSE );
 3208               		.loc 3 121 0
 3209 1188 80E0      		ldi r24,0
 3210 118a 00C0      		rjmp .L107
 3211               	.L109:
 3212               	.LBE5:
 122:lp_solve_5.5/bfp/bfp_LUSOL/lp_LUSOL.c ****   }
 123:lp_solve_5.5/bfp/bfp_LUSOL/lp_LUSOL.c ****   lu->dimcount = newsize;
 3213               		.loc 3 123 0
 3214 118c 8D81      		ldd r24,Y+5
 3215 118e 9E81      		ldd r25,Y+6
 3216 1190 2B85      		ldd r18,Y+11
 3217 1192 3C85      		ldd r19,Y+12
 3218 1194 FC01      		movw r30,r24
 3219 1196 3383      		std Z+3,r19
 3220 1198 2283      		std Z+2,r18
 124:lp_solve_5.5/bfp/bfp_LUSOL/lp_LUSOL.c ****   return( TRUE );
 3221               		.loc 3 124 0
 3222 119a 81E0      		ldi r24,lo8(1)
 3223               	.L107:
 3224               	/* epilogue start */
 125:lp_solve_5.5/bfp/bfp_LUSOL/lp_LUSOL.c **** }
 3225               		.loc 3 125 0
 3226 119c 2C96      		adiw r28,12
 3227 119e 0FB6      		in __tmp_reg__,__SREG__
 3228 11a0 F894      		cli
 3229 11a2 DEBF      		out __SP_H__,r29
 3230 11a4 0FBE      		out __SREG__,__tmp_reg__
 3231 11a6 CDBF      		out __SP_L__,r28
 3232 11a8 DF91      		pop r29
 3233 11aa CF91      		pop r28
 3234 11ac FF90      		pop r15
 3235 11ae EF90      		pop r14
 3236 11b0 DF90      		pop r13
 3237 11b2 CF90      		pop r12
 3238 11b4 0895      		ret
 3239               		.cfi_endproc
 3240               	.LFE32:
 3242               	.global	bfp_free
 3244               	bfp_free:
 3245               	.LFB33:
 126:lp_solve_5.5/bfp/bfp_LUSOL/lp_LUSOL.c **** 
 127:lp_solve_5.5/bfp/bfp_LUSOL/lp_LUSOL.c **** 
 128:lp_solve_5.5/bfp/bfp_LUSOL/lp_LUSOL.c **** /* MUST MODIFY */
 129:lp_solve_5.5/bfp/bfp_LUSOL/lp_LUSOL.c **** void BFP_CALLMODEL bfp_free(lprec *lp)
 130:lp_solve_5.5/bfp/bfp_LUSOL/lp_LUSOL.c **** {
 3246               		.loc 3 130 0
 3247               		.cfi_startproc
 3248 11b6 CF93      		push r28
 3249               	.LCFI134:
 3250               		.cfi_def_cfa_offset 3
 3251               		.cfi_offset 28, -2
 3252 11b8 DF93      		push r29
 3253               	.LCFI135:
 3254               		.cfi_def_cfa_offset 4
 3255               		.cfi_offset 29, -3
 3256 11ba 00D0      		rcall .
 3257 11bc 00D0      		rcall .
 3258               	.LCFI136:
 3259               		.cfi_def_cfa_offset 8
 3260 11be CDB7      		in r28,__SP_L__
 3261 11c0 DEB7      		in r29,__SP_H__
 3262               	.LCFI137:
 3263               		.cfi_def_cfa_register 28
 3264               	/* prologue: function */
 3265               	/* frame size = 4 */
 3266               	/* stack size = 6 */
 3267               	.L__stack_usage = 6
 3268 11c2 9C83      		std Y+4,r25
 3269 11c4 8B83      		std Y+3,r24
 131:lp_solve_5.5/bfp/bfp_LUSOL/lp_LUSOL.c ****   INVrec *lu;
 132:lp_solve_5.5/bfp/bfp_LUSOL/lp_LUSOL.c **** 
 133:lp_solve_5.5/bfp/bfp_LUSOL/lp_LUSOL.c ****   lu = lp->invB;
 3270               		.loc 3 133 0
 3271 11c6 8B81      		ldd r24,Y+3
 3272 11c8 9C81      		ldd r25,Y+4
 3273 11ca 8854      		subi r24,72
 3274 11cc 9D4F      		sbci r25,-3
 3275 11ce FC01      		movw r30,r24
 3276 11d0 8081      		ld r24,Z
 3277 11d2 9181      		ldd r25,Z+1
 3278 11d4 9A83      		std Y+2,r25
 3279 11d6 8983      		std Y+1,r24
 134:lp_solve_5.5/bfp/bfp_LUSOL/lp_LUSOL.c ****   if(lu == NULL)
 3280               		.loc 3 134 0
 3281 11d8 8981      		ldd r24,Y+1
 3282 11da 9A81      		ldd r25,Y+2
 3283 11dc 892B      		or r24,r25
 3284 11de 01F4      		brne .+2
 3285 11e0 00C0      		rjmp .L118
 135:lp_solve_5.5/bfp/bfp_LUSOL/lp_LUSOL.c ****     return;
 136:lp_solve_5.5/bfp/bfp_LUSOL/lp_LUSOL.c **** 
 137:lp_solve_5.5/bfp/bfp_LUSOL/lp_LUSOL.c ****   /* General arrays */
 138:lp_solve_5.5/bfp/bfp_LUSOL/lp_LUSOL.c ****   FREE(lu->opts);
 3286               		.loc 3 138 0
 3287 11e2 8981      		ldd r24,Y+1
 3288 11e4 9A81      		ldd r25,Y+2
 3289 11e6 FC01      		movw r30,r24
 3290 11e8 80A9      		ldd r24,Z+48
 3291 11ea 91A9      		ldd r25,Z+49
 3292 11ec 892B      		or r24,r25
 3293 11ee 01F0      		breq .L115
 3294               		.loc 3 138 0 is_stmt 0 discriminator 1
 3295 11f0 8981      		ldd r24,Y+1
 3296 11f2 9A81      		ldd r25,Y+2
 3297 11f4 FC01      		movw r30,r24
 3298 11f6 80A9      		ldd r24,Z+48
 3299 11f8 91A9      		ldd r25,Z+49
 3300 11fa 0E94 0000 		call free
 3301 11fe 8981      		ldd r24,Y+1
 3302 1200 9A81      		ldd r25,Y+2
 3303 1202 FC01      		movw r30,r24
 3304 1204 11AA      		std Z+49,__zero_reg__
 3305 1206 10AA      		std Z+48,__zero_reg__
 3306               	.L115:
 139:lp_solve_5.5/bfp/bfp_LUSOL/lp_LUSOL.c ****   FREE(lu->value);
 3307               		.loc 3 139 0 is_stmt 1
 3308 1208 8981      		ldd r24,Y+1
 3309 120a 9A81      		ldd r25,Y+2
 3310 120c FC01      		movw r30,r24
 3311 120e 8089      		ldd r24,Z+16
 3312 1210 9189      		ldd r25,Z+17
 3313 1212 892B      		or r24,r25
 3314 1214 01F0      		breq .L116
 3315               		.loc 3 139 0 is_stmt 0 discriminator 1
 3316 1216 8981      		ldd r24,Y+1
 3317 1218 9A81      		ldd r25,Y+2
 3318 121a FC01      		movw r30,r24
 3319 121c 8089      		ldd r24,Z+16
 3320 121e 9189      		ldd r25,Z+17
 3321 1220 0E94 0000 		call free
 3322 1224 8981      		ldd r24,Y+1
 3323 1226 9A81      		ldd r25,Y+2
 3324 1228 FC01      		movw r30,r24
 3325 122a 118A      		std Z+17,__zero_reg__
 3326 122c 108A      		std Z+16,__zero_reg__
 3327               	.L116:
 140:lp_solve_5.5/bfp/bfp_LUSOL/lp_LUSOL.c **** 
 141:lp_solve_5.5/bfp/bfp_LUSOL/lp_LUSOL.c ****   /* Data specific to the factorization engine */
 142:lp_solve_5.5/bfp/bfp_LUSOL/lp_LUSOL.c ****   LUSOL_free(lu->LUSOL);
 3328               		.loc 3 142 0 is_stmt 1
 3329 122e 8981      		ldd r24,Y+1
 3330 1230 9A81      		ldd r25,Y+2
 3331 1232 FC01      		movw r30,r24
 3332 1234 8085      		ldd r24,Z+8
 3333 1236 9185      		ldd r25,Z+9
 3334 1238 0E94 0000 		call LUSOL_free
 143:lp_solve_5.5/bfp/bfp_LUSOL/lp_LUSOL.c **** 
 144:lp_solve_5.5/bfp/bfp_LUSOL/lp_LUSOL.c ****   FREE(lu);
 3335               		.loc 3 144 0
 3336 123c 8981      		ldd r24,Y+1
 3337 123e 9A81      		ldd r25,Y+2
 3338 1240 892B      		or r24,r25
 3339 1242 01F0      		breq .L117
 3340               		.loc 3 144 0 is_stmt 0 discriminator 1
 3341 1244 8981      		ldd r24,Y+1
 3342 1246 9A81      		ldd r25,Y+2
 3343 1248 0E94 0000 		call free
 3344 124c 1A82      		std Y+2,__zero_reg__
 3345 124e 1982      		std Y+1,__zero_reg__
 3346               	.L117:
 145:lp_solve_5.5/bfp/bfp_LUSOL/lp_LUSOL.c ****   lp->invB = NULL;
 3347               		.loc 3 145 0 is_stmt 1
 3348 1250 8B81      		ldd r24,Y+3
 3349 1252 9C81      		ldd r25,Y+4
 3350 1254 8854      		subi r24,72
 3351 1256 9D4F      		sbci r25,-3
 3352 1258 FC01      		movw r30,r24
 3353 125a 1182      		std Z+1,__zero_reg__
 3354 125c 1082      		st Z,__zero_reg__
 3355 125e 00C0      		rjmp .L112
 3356               	.L118:
 135:lp_solve_5.5/bfp/bfp_LUSOL/lp_LUSOL.c **** 
 3357               		.loc 3 135 0
 3358 1260 0000      		nop
 3359               	.L112:
 3360               	/* epilogue start */
 146:lp_solve_5.5/bfp/bfp_LUSOL/lp_LUSOL.c **** }
 3361               		.loc 3 146 0
 3362 1262 0F90      		pop __tmp_reg__
 3363 1264 0F90      		pop __tmp_reg__
 3364 1266 0F90      		pop __tmp_reg__
 3365 1268 0F90      		pop __tmp_reg__
 3366 126a DF91      		pop r29
 3367 126c CF91      		pop r28
 3368 126e 0895      		ret
 3369               		.cfi_endproc
 3370               	.LFE33:
 3372               	.global	bfp_nonzeros
 3374               	bfp_nonzeros:
 3375               	.LFB34:
 147:lp_solve_5.5/bfp/bfp_LUSOL/lp_LUSOL.c **** 
 148:lp_solve_5.5/bfp/bfp_LUSOL/lp_LUSOL.c **** 
 149:lp_solve_5.5/bfp/bfp_LUSOL/lp_LUSOL.c **** /* MUST MODIFY */
 150:lp_solve_5.5/bfp/bfp_LUSOL/lp_LUSOL.c **** int BFP_CALLMODEL bfp_nonzeros(lprec *lp, MYBOOL maximum)
 151:lp_solve_5.5/bfp/bfp_LUSOL/lp_LUSOL.c **** {
 3376               		.loc 3 151 0
 3377               		.cfi_startproc
 3378 1270 CF93      		push r28
 3379               	.LCFI138:
 3380               		.cfi_def_cfa_offset 3
 3381               		.cfi_offset 28, -2
 3382 1272 DF93      		push r29
 3383               	.LCFI139:
 3384               		.cfi_def_cfa_offset 4
 3385               		.cfi_offset 29, -3
 3386 1274 00D0      		rcall .
 3387 1276 00D0      		rcall .
 3388 1278 1F92      		push __zero_reg__
 3389               	.LCFI140:
 3390               		.cfi_def_cfa_offset 9
 3391 127a CDB7      		in r28,__SP_L__
 3392 127c DEB7      		in r29,__SP_H__
 3393               	.LCFI141:
 3394               		.cfi_def_cfa_register 28
 3395               	/* prologue: function */
 3396               	/* frame size = 5 */
 3397               	/* stack size = 7 */
 3398               	.L__stack_usage = 7
 3399 127e 9C83      		std Y+4,r25
 3400 1280 8B83      		std Y+3,r24
 3401 1282 6D83      		std Y+5,r22
 152:lp_solve_5.5/bfp/bfp_LUSOL/lp_LUSOL.c ****   INVrec *lu;
 153:lp_solve_5.5/bfp/bfp_LUSOL/lp_LUSOL.c **** 
 154:lp_solve_5.5/bfp/bfp_LUSOL/lp_LUSOL.c ****   lu = lp->invB;
 3402               		.loc 3 154 0
 3403 1284 8B81      		ldd r24,Y+3
 3404 1286 9C81      		ldd r25,Y+4
 3405 1288 8854      		subi r24,72
 3406 128a 9D4F      		sbci r25,-3
 3407 128c FC01      		movw r30,r24
 3408 128e 8081      		ld r24,Z
 3409 1290 9181      		ldd r25,Z+1
 3410 1292 9A83      		std Y+2,r25
 3411 1294 8983      		std Y+1,r24
 155:lp_solve_5.5/bfp/bfp_LUSOL/lp_LUSOL.c ****   if(maximum == TRUE)
 3412               		.loc 3 155 0
 3413 1296 8D81      		ldd r24,Y+5
 3414 1298 8130      		cpi r24,lo8(1)
 3415 129a 01F4      		brne .L120
 156:lp_solve_5.5/bfp/bfp_LUSOL/lp_LUSOL.c ****     return(lu->max_LUsize);
 3416               		.loc 3 156 0
 3417 129c 8981      		ldd r24,Y+1
 3418 129e 9A81      		ldd r25,Y+2
 3419 12a0 FC01      		movw r30,r24
 3420 12a2 848D      		ldd r24,Z+28
 3421 12a4 958D      		ldd r25,Z+29
 3422 12a6 00C0      		rjmp .L121
 3423               	.L120:
 157:lp_solve_5.5/bfp/bfp_LUSOL/lp_LUSOL.c ****   else if(maximum == AUTOMATIC)
 3424               		.loc 3 157 0
 3425 12a8 8D81      		ldd r24,Y+5
 3426 12aa 8230      		cpi r24,lo8(2)
 3427 12ac 01F4      		brne .L122
 158:lp_solve_5.5/bfp/bfp_LUSOL/lp_LUSOL.c ****     return(lu->max_Bsize);
 3428               		.loc 3 158 0
 3429 12ae 8981      		ldd r24,Y+1
 3430 12b0 9A81      		ldd r25,Y+2
 3431 12b2 FC01      		movw r30,r24
 3432 12b4 808D      		ldd r24,Z+24
 3433 12b6 918D      		ldd r25,Z+25
 3434 12b8 00C0      		rjmp .L121
 3435               	.L122:
 159:lp_solve_5.5/bfp/bfp_LUSOL/lp_LUSOL.c ****   else
 160:lp_solve_5.5/bfp/bfp_LUSOL/lp_LUSOL.c ****     return(lu->LUSOL->luparm[LUSOL_IP_NONZEROS_L0]+lu->LUSOL->luparm[LUSOL_IP_NONZEROS_U0]);
 3436               		.loc 3 160 0
 3437 12ba 8981      		ldd r24,Y+1
 3438 12bc 9A81      		ldd r25,Y+2
 3439 12be FC01      		movw r30,r24
 3440 12c0 8085      		ldd r24,Z+8
 3441 12c2 9185      		ldd r25,Z+9
 3442 12c4 FC01      		movw r30,r24
 3443 12c6 22A9      		ldd r18,Z+50
 3444 12c8 33A9      		ldd r19,Z+51
 3445 12ca 8981      		ldd r24,Y+1
 3446 12cc 9A81      		ldd r25,Y+2
 3447 12ce FC01      		movw r30,r24
 3448 12d0 8085      		ldd r24,Z+8
 3449 12d2 9185      		ldd r25,Z+9
 3450 12d4 FC01      		movw r30,r24
 3451 12d6 84A9      		ldd r24,Z+52
 3452 12d8 95A9      		ldd r25,Z+53
 3453 12da 820F      		add r24,r18
 3454 12dc 931F      		adc r25,r19
 3455               	.L121:
 3456               	/* epilogue start */
 161:lp_solve_5.5/bfp/bfp_LUSOL/lp_LUSOL.c **** /*    return(lu->LUSOL->luparm[LUSOL_IP_NONZEROS_ROW]); */
 162:lp_solve_5.5/bfp/bfp_LUSOL/lp_LUSOL.c **** }
 3457               		.loc 3 162 0
 3458 12de 0F90      		pop __tmp_reg__
 3459 12e0 0F90      		pop __tmp_reg__
 3460 12e2 0F90      		pop __tmp_reg__
 3461 12e4 0F90      		pop __tmp_reg__
 3462 12e6 0F90      		pop __tmp_reg__
 3463 12e8 DF91      		pop r29
 3464 12ea CF91      		pop r28
 3465 12ec 0895      		ret
 3466               		.cfi_endproc
 3467               	.LFE34:
 3469               	.global	bfp_memallocated
 3471               	bfp_memallocated:
 3472               	.LFB35:
 163:lp_solve_5.5/bfp/bfp_LUSOL/lp_LUSOL.c **** 
 164:lp_solve_5.5/bfp/bfp_LUSOL/lp_LUSOL.c **** 
 165:lp_solve_5.5/bfp/bfp_LUSOL/lp_LUSOL.c **** /* MUST MODIFY (or ignore) */
 166:lp_solve_5.5/bfp/bfp_LUSOL/lp_LUSOL.c **** int BFP_CALLMODEL bfp_memallocated(lprec *lp)
 167:lp_solve_5.5/bfp/bfp_LUSOL/lp_LUSOL.c **** {
 3473               		.loc 3 167 0
 3474               		.cfi_startproc
 3475 12ee CF93      		push r28
 3476               	.LCFI142:
 3477               		.cfi_def_cfa_offset 3
 3478               		.cfi_offset 28, -2
 3479 12f0 DF93      		push r29
 3480               	.LCFI143:
 3481               		.cfi_def_cfa_offset 4
 3482               		.cfi_offset 29, -3
 3483 12f2 00D0      		rcall .
 3484 12f4 00D0      		rcall .
 3485 12f6 00D0      		rcall .
 3486               	.LCFI144:
 3487               		.cfi_def_cfa_offset 10
 3488 12f8 CDB7      		in r28,__SP_L__
 3489 12fa DEB7      		in r29,__SP_H__
 3490               	.LCFI145:
 3491               		.cfi_def_cfa_register 28
 3492               	/* prologue: function */
 3493               	/* frame size = 6 */
 3494               	/* stack size = 8 */
 3495               	.L__stack_usage = 8
 3496 12fc 9E83      		std Y+6,r25
 3497 12fe 8D83      		std Y+5,r24
 168:lp_solve_5.5/bfp/bfp_LUSOL/lp_LUSOL.c ****   int      mem;
 169:lp_solve_5.5/bfp/bfp_LUSOL/lp_LUSOL.c ****   LUSOLrec *LUSOL = lp->invB->LUSOL;
 3498               		.loc 3 169 0
 3499 1300 8D81      		ldd r24,Y+5
 3500 1302 9E81      		ldd r25,Y+6
 3501 1304 8854      		subi r24,72
 3502 1306 9D4F      		sbci r25,-3
 3503 1308 FC01      		movw r30,r24
 3504 130a 8081      		ld r24,Z
 3505 130c 9181      		ldd r25,Z+1
 3506 130e FC01      		movw r30,r24
 3507 1310 8085      		ldd r24,Z+8
 3508 1312 9185      		ldd r25,Z+9
 3509 1314 9C83      		std Y+4,r25
 3510 1316 8B83      		std Y+3,r24
 170:lp_solve_5.5/bfp/bfp_LUSOL/lp_LUSOL.c **** 
 171:lp_solve_5.5/bfp/bfp_LUSOL/lp_LUSOL.c ****   mem = sizeof(REAL) * (LUSOL->lena+LUSOL->maxm+LUSOL_RP_LASTITEM);
 3511               		.loc 3 171 0
 3512 1318 8B81      		ldd r24,Y+3
 3513 131a 9C81      		ldd r25,Y+4
 3514 131c 8256      		subi r24,98
 3515 131e 9F4F      		sbci r25,-1
 3516 1320 FC01      		movw r30,r24
 3517 1322 2081      		ld r18,Z
 3518 1324 3181      		ldd r19,Z+1
 3519 1326 8B81      		ldd r24,Y+3
 3520 1328 9C81      		ldd r25,Y+4
 3521 132a 8855      		subi r24,88
 3522 132c 9F4F      		sbci r25,-1
 3523 132e FC01      		movw r30,r24
 3524 1330 8081      		ld r24,Z
 3525 1332 9181      		ldd r25,Z+1
 3526 1334 820F      		add r24,r18
 3527 1336 931F      		adc r25,r19
 3528 1338 4496      		adiw r24,20
 3529 133a 880F      		lsl r24
 3530 133c 991F      		rol r25
 3531 133e 880F      		lsl r24
 3532 1340 991F      		rol r25
 3533 1342 9A83      		std Y+2,r25
 3534 1344 8983      		std Y+1,r24
 172:lp_solve_5.5/bfp/bfp_LUSOL/lp_LUSOL.c ****   mem += sizeof(int) * (2*LUSOL->lena+5*LUSOL->maxm+5*LUSOL->maxn+LUSOL_IP_LASTITEM);
 3535               		.loc 3 172 0
 3536 1346 8B81      		ldd r24,Y+3
 3537 1348 9C81      		ldd r25,Y+4
 3538 134a 8256      		subi r24,98
 3539 134c 9F4F      		sbci r25,-1
 3540 134e FC01      		movw r30,r24
 3541 1350 8081      		ld r24,Z
 3542 1352 9181      		ldd r25,Z+1
 3543 1354 AC01      		movw r20,r24
 3544 1356 440F      		lsl r20
 3545 1358 551F      		rol r21
 3546 135a 8B81      		ldd r24,Y+3
 3547 135c 9C81      		ldd r25,Y+4
 3548 135e 8855      		subi r24,88
 3549 1360 9F4F      		sbci r25,-1
 3550 1362 FC01      		movw r30,r24
 3551 1364 2081      		ld r18,Z
 3552 1366 3181      		ldd r19,Z+1
 3553 1368 C901      		movw r24,r18
 3554 136a 880F      		lsl r24
 3555 136c 991F      		rol r25
 3556 136e 880F      		lsl r24
 3557 1370 991F      		rol r25
 3558 1372 820F      		add r24,r18
 3559 1374 931F      		adc r25,r19
 3560 1376 480F      		add r20,r24
 3561 1378 591F      		adc r21,r25
 3562 137a 8B81      		ldd r24,Y+3
 3563 137c 9C81      		ldd r25,Y+4
 3564 137e 8A54      		subi r24,74
 3565 1380 9F4F      		sbci r25,-1
 3566 1382 FC01      		movw r30,r24
 3567 1384 2081      		ld r18,Z
 3568 1386 3181      		ldd r19,Z+1
 3569 1388 C901      		movw r24,r18
 3570 138a 880F      		lsl r24
 3571 138c 991F      		rol r25
 3572 138e 880F      		lsl r24
 3573 1390 991F      		rol r25
 3574 1392 820F      		add r24,r18
 3575 1394 931F      		adc r25,r19
 3576 1396 840F      		add r24,r20
 3577 1398 951F      		adc r25,r21
 3578 139a 8096      		adiw r24,32
 3579 139c 9C01      		movw r18,r24
 3580 139e 220F      		lsl r18
 3581 13a0 331F      		rol r19
 3582 13a2 8981      		ldd r24,Y+1
 3583 13a4 9A81      		ldd r25,Y+2
 3584 13a6 820F      		add r24,r18
 3585 13a8 931F      		adc r25,r19
 3586 13aa 9A83      		std Y+2,r25
 3587 13ac 8983      		std Y+1,r24
 173:lp_solve_5.5/bfp/bfp_LUSOL/lp_LUSOL.c ****   if(LUSOL->luparm[LUSOL_IP_PIVOTTYPE] == LUSOL_PIVMOD_TCP)
 3588               		.loc 3 173 0
 3589 13ae 8B81      		ldd r24,Y+3
 3590 13b0 9C81      		ldd r25,Y+4
 3591 13b2 FC01      		movw r30,r24
 3592 13b4 8489      		ldd r24,Z+20
 3593 13b6 9589      		ldd r25,Z+21
 3594 13b8 0297      		sbiw r24,2
 3595 13ba 01F4      		brne .L124
 174:lp_solve_5.5/bfp/bfp_LUSOL/lp_LUSOL.c ****     mem += sizeof(REAL) * LUSOL->maxn + 2*sizeof(REAL)*LUSOL->maxn;
 3596               		.loc 3 174 0
 3597 13bc 8B81      		ldd r24,Y+3
 3598 13be 9C81      		ldd r25,Y+4
 3599 13c0 8A54      		subi r24,74
 3600 13c2 9F4F      		sbci r25,-1
 3601 13c4 FC01      		movw r30,r24
 3602 13c6 8081      		ld r24,Z
 3603 13c8 9181      		ldd r25,Z+1
 3604 13ca 9C01      		movw r18,r24
 3605 13cc C901      		movw r24,r18
 3606 13ce 880F      		lsl r24
 3607 13d0 991F      		rol r25
 3608 13d2 820F      		add r24,r18
 3609 13d4 931F      		adc r25,r19
 3610 13d6 880F      		lsl r24
 3611 13d8 991F      		rol r25
 3612 13da 880F      		lsl r24
 3613 13dc 991F      		rol r25
 3614 13de 9C01      		movw r18,r24
 3615 13e0 8981      		ldd r24,Y+1
 3616 13e2 9A81      		ldd r25,Y+2
 3617 13e4 820F      		add r24,r18
 3618 13e6 931F      		adc r25,r19
 3619 13e8 9A83      		std Y+2,r25
 3620 13ea 8983      		std Y+1,r24
 3621 13ec 00C0      		rjmp .L125
 3622               	.L124:
 175:lp_solve_5.5/bfp/bfp_LUSOL/lp_LUSOL.c ****   else if(LUSOL->luparm[LUSOL_IP_PIVOTTYPE] == LUSOL_PIVMOD_TRP)
 3623               		.loc 3 175 0
 3624 13ee 8B81      		ldd r24,Y+3
 3625 13f0 9C81      		ldd r25,Y+4
 3626 13f2 FC01      		movw r30,r24
 3627 13f4 8489      		ldd r24,Z+20
 3628 13f6 9589      		ldd r25,Z+21
 3629 13f8 0197      		sbiw r24,1
 3630 13fa 01F4      		brne .L125
 176:lp_solve_5.5/bfp/bfp_LUSOL/lp_LUSOL.c ****     mem += sizeof(REAL) * LUSOL->maxn;
 3631               		.loc 3 176 0
 3632 13fc 8B81      		ldd r24,Y+3
 3633 13fe 9C81      		ldd r25,Y+4
 3634 1400 8A54      		subi r24,74
 3635 1402 9F4F      		sbci r25,-1
 3636 1404 FC01      		movw r30,r24
 3637 1406 8081      		ld r24,Z
 3638 1408 9181      		ldd r25,Z+1
 3639 140a 9C01      		movw r18,r24
 3640 140c 220F      		lsl r18
 3641 140e 331F      		rol r19
 3642 1410 220F      		lsl r18
 3643 1412 331F      		rol r19
 3644 1414 8981      		ldd r24,Y+1
 3645 1416 9A81      		ldd r25,Y+2
 3646 1418 820F      		add r24,r18
 3647 141a 931F      		adc r25,r19
 3648 141c 9A83      		std Y+2,r25
 3649 141e 8983      		std Y+1,r24
 3650               	.L125:
 177:lp_solve_5.5/bfp/bfp_LUSOL/lp_LUSOL.c ****   if(!LUSOL->luparm[LUSOL_IP_KEEPLU])
 3651               		.loc 3 177 0
 3652 1420 8B81      		ldd r24,Y+3
 3653 1422 9C81      		ldd r25,Y+4
 3654 1424 FC01      		movw r30,r24
 3655 1426 808D      		ldd r24,Z+24
 3656 1428 918D      		ldd r25,Z+25
 3657 142a 892B      		or r24,r25
 3658 142c 01F4      		brne .L126
 178:lp_solve_5.5/bfp/bfp_LUSOL/lp_LUSOL.c ****     mem += sizeof(REAL) * LUSOL->maxn;
 3659               		.loc 3 178 0
 3660 142e 8B81      		ldd r24,Y+3
 3661 1430 9C81      		ldd r25,Y+4
 3662 1432 8A54      		subi r24,74
 3663 1434 9F4F      		sbci r25,-1
 3664 1436 FC01      		movw r30,r24
 3665 1438 8081      		ld r24,Z
 3666 143a 9181      		ldd r25,Z+1
 3667 143c 9C01      		movw r18,r24
 3668 143e 220F      		lsl r18
 3669 1440 331F      		rol r19
 3670 1442 220F      		lsl r18
 3671 1444 331F      		rol r19
 3672 1446 8981      		ldd r24,Y+1
 3673 1448 9A81      		ldd r25,Y+2
 3674 144a 820F      		add r24,r18
 3675 144c 931F      		adc r25,r19
 3676 144e 9A83      		std Y+2,r25
 3677 1450 8983      		std Y+1,r24
 3678               	.L126:
 179:lp_solve_5.5/bfp/bfp_LUSOL/lp_LUSOL.c ****   return( mem );
 3679               		.loc 3 179 0
 3680 1452 8981      		ldd r24,Y+1
 3681 1454 9A81      		ldd r25,Y+2
 3682               	/* epilogue start */
 180:lp_solve_5.5/bfp/bfp_LUSOL/lp_LUSOL.c **** }
 3683               		.loc 3 180 0
 3684 1456 2696      		adiw r28,6
 3685 1458 0FB6      		in __tmp_reg__,__SREG__
 3686 145a F894      		cli
 3687 145c DEBF      		out __SP_H__,r29
 3688 145e 0FBE      		out __SREG__,__tmp_reg__
 3689 1460 CDBF      		out __SP_L__,r28
 3690 1462 DF91      		pop r29
 3691 1464 CF91      		pop r28
 3692 1466 0895      		ret
 3693               		.cfi_endproc
 3694               	.LFE35:
 3696               	.global	bfp_preparefactorization
 3698               	bfp_preparefactorization:
 3699               	.LFB36:
 181:lp_solve_5.5/bfp/bfp_LUSOL/lp_LUSOL.c **** 
 182:lp_solve_5.5/bfp/bfp_LUSOL/lp_LUSOL.c **** 
 183:lp_solve_5.5/bfp/bfp_LUSOL/lp_LUSOL.c **** /* MUST MODIFY */
 184:lp_solve_5.5/bfp/bfp_LUSOL/lp_LUSOL.c **** int BFP_CALLMODEL bfp_preparefactorization(lprec *lp)
 185:lp_solve_5.5/bfp/bfp_LUSOL/lp_LUSOL.c **** {
 3700               		.loc 3 185 0
 3701               		.cfi_startproc
 3702 1468 EF92      		push r14
 3703               	.LCFI146:
 3704               		.cfi_def_cfa_offset 3
 3705               		.cfi_offset 14, -2
 3706 146a FF92      		push r15
 3707               	.LCFI147:
 3708               		.cfi_def_cfa_offset 4
 3709               		.cfi_offset 15, -3
 3710 146c 0F93      		push r16
 3711               	.LCFI148:
 3712               		.cfi_def_cfa_offset 5
 3713               		.cfi_offset 16, -4
 3714 146e 1F93      		push r17
 3715               	.LCFI149:
 3716               		.cfi_def_cfa_offset 6
 3717               		.cfi_offset 17, -5
 3718 1470 CF93      		push r28
 3719               	.LCFI150:
 3720               		.cfi_def_cfa_offset 7
 3721               		.cfi_offset 28, -6
 3722 1472 DF93      		push r29
 3723               	.LCFI151:
 3724               		.cfi_def_cfa_offset 8
 3725               		.cfi_offset 29, -7
 3726 1474 00D0      		rcall .
 3727 1476 00D0      		rcall .
 3728               	.LCFI152:
 3729               		.cfi_def_cfa_offset 12
 3730 1478 CDB7      		in r28,__SP_L__
 3731 147a DEB7      		in r29,__SP_H__
 3732               	.LCFI153:
 3733               		.cfi_def_cfa_register 28
 3734               	/* prologue: function */
 3735               	/* frame size = 4 */
 3736               	/* stack size = 10 */
 3737               	.L__stack_usage = 10
 3738 147c 9C83      		std Y+4,r25
 3739 147e 8B83      		std Y+3,r24
 186:lp_solve_5.5/bfp/bfp_LUSOL/lp_LUSOL.c ****   INVrec *lu = lp->invB;
 3740               		.loc 3 186 0
 3741 1480 8B81      		ldd r24,Y+3
 3742 1482 9C81      		ldd r25,Y+4
 3743 1484 8854      		subi r24,72
 3744 1486 9D4F      		sbci r25,-3
 3745 1488 FC01      		movw r30,r24
 3746 148a 8081      		ld r24,Z
 3747 148c 9181      		ldd r25,Z+1
 3748 148e 9A83      		std Y+2,r25
 3749 1490 8983      		std Y+1,r24
 187:lp_solve_5.5/bfp/bfp_LUSOL/lp_LUSOL.c **** 
 188:lp_solve_5.5/bfp/bfp_LUSOL/lp_LUSOL.c ****   /* Finish any outstanding business */
 189:lp_solve_5.5/bfp/bfp_LUSOL/lp_LUSOL.c ****   if(lu->is_dirty == AUTOMATIC)
 3750               		.loc 3 189 0
 3751 1492 8981      		ldd r24,Y+1
 3752 1494 9A81      		ldd r25,Y+2
 3753 1496 FC01      		movw r30,r24
 3754 1498 82A9      		ldd r24,Z+50
 3755 149a 8230      		cpi r24,lo8(2)
 3756 149c 01F4      		brne .L129
 190:lp_solve_5.5/bfp/bfp_LUSOL/lp_LUSOL.c ****     lp->bfp_finishfactorization(lp);
 3757               		.loc 3 190 0
 3758 149e 8B81      		ldd r24,Y+3
 3759 14a0 9C81      		ldd r25,Y+4
 3760 14a2 8A55      		subi r24,90
 3761 14a4 9C4F      		sbci r25,-4
 3762 14a6 FC01      		movw r30,r24
 3763 14a8 2081      		ld r18,Z
 3764 14aa 3181      		ldd r19,Z+1
 3765 14ac 8B81      		ldd r24,Y+3
 3766 14ae 9C81      		ldd r25,Y+4
 3767 14b0 F901      		movw r30,r18
 3768 14b2 0995      		icall
 3769               	.L129:
 191:lp_solve_5.5/bfp/bfp_LUSOL/lp_LUSOL.c **** 
 192:lp_solve_5.5/bfp/bfp_LUSOL/lp_LUSOL.c ****   /* Clear or resize the existing LU matrices - specific for the factorization engine */
 193:lp_solve_5.5/bfp/bfp_LUSOL/lp_LUSOL.c ****   LUSOL_clear(lu->LUSOL, TRUE);
 3770               		.loc 3 193 0
 3771 14b4 8981      		ldd r24,Y+1
 3772 14b6 9A81      		ldd r25,Y+2
 3773 14b8 FC01      		movw r30,r24
 3774 14ba 8085      		ldd r24,Z+8
 3775 14bc 9185      		ldd r25,Z+9
 3776 14be 61E0      		ldi r22,lo8(1)
 3777 14c0 0E94 0000 		call LUSOL_clear
 194:lp_solve_5.5/bfp/bfp_LUSOL/lp_LUSOL.c ****   if(lu->dimcount != lp->rows + bfp_rowoffset(lp))
 3778               		.loc 3 194 0
 3779 14c4 8981      		ldd r24,Y+1
 3780 14c6 9A81      		ldd r25,Y+2
 3781 14c8 FC01      		movw r30,r24
 3782 14ca 0281      		ldd r16,Z+2
 3783 14cc 1381      		ldd r17,Z+3
 3784 14ce 8B81      		ldd r24,Y+3
 3785 14d0 9C81      		ldd r25,Y+4
 3786 14d2 8651      		subi r24,22
 3787 14d4 9E4F      		sbci r25,-2
 3788 14d6 FC01      		movw r30,r24
 3789 14d8 E080      		ld r14,Z
 3790 14da F180      		ldd r15,Z+1
 3791 14dc 8B81      		ldd r24,Y+3
 3792 14de 9C81      		ldd r25,Y+4
 3793 14e0 0E94 0000 		call bfp_rowoffset
 3794 14e4 8E0D      		add r24,r14
 3795 14e6 9F1D      		adc r25,r15
 3796 14e8 0817      		cp r16,r24
 3797 14ea 1907      		cpc r17,r25
 3798 14ec 01F0      		breq .L130
 195:lp_solve_5.5/bfp/bfp_LUSOL/lp_LUSOL.c ****     lp->bfp_resize(lp, lp->rows);
 3799               		.loc 3 195 0
 3800 14ee 8B81      		ldd r24,Y+3
 3801 14f0 9C81      		ldd r25,Y+4
 3802 14f2 8656      		subi r24,102
 3803 14f4 9C4F      		sbci r25,-4
 3804 14f6 FC01      		movw r30,r24
 3805 14f8 2081      		ld r18,Z
 3806 14fa 3181      		ldd r19,Z+1
 3807 14fc 8B81      		ldd r24,Y+3
 3808 14fe 9C81      		ldd r25,Y+4
 3809 1500 8651      		subi r24,22
 3810 1502 9E4F      		sbci r25,-2
 3811 1504 FC01      		movw r30,r24
 3812 1506 4081      		ld r20,Z
 3813 1508 5181      		ldd r21,Z+1
 3814 150a 8B81      		ldd r24,Y+3
 3815 150c 9C81      		ldd r25,Y+4
 3816 150e BA01      		movw r22,r20
 3817 1510 F901      		movw r30,r18
 3818 1512 0995      		icall
 3819               	.L130:
 196:lp_solve_5.5/bfp/bfp_LUSOL/lp_LUSOL.c **** 
 197:lp_solve_5.5/bfp/bfp_LUSOL/lp_LUSOL.c ****   /* Reset additional indicators */
 198:lp_solve_5.5/bfp/bfp_LUSOL/lp_LUSOL.c ****   lp->bfp_updaterefactstats(lp);
 3820               		.loc 3 198 0
 3821 1514 8B81      		ldd r24,Y+3
 3822 1516 9C81      		ldd r25,Y+4
 3823 1518 8855      		subi r24,88
 3824 151a 9C4F      		sbci r25,-4
 3825 151c FC01      		movw r30,r24
 3826 151e 2081      		ld r18,Z
 3827 1520 3181      		ldd r19,Z+1
 3828 1522 8B81      		ldd r24,Y+3
 3829 1524 9C81      		ldd r25,Y+4
 3830 1526 F901      		movw r30,r18
 3831 1528 0995      		icall
 199:lp_solve_5.5/bfp/bfp_LUSOL/lp_LUSOL.c ****   lu->col_pos = 0;
 3832               		.loc 3 199 0
 3833 152a 8981      		ldd r24,Y+1
 3834 152c 9A81      		ldd r25,Y+2
 3835 152e FC01      		movw r30,r24
 3836 1530 1786      		std Z+15,__zero_reg__
 3837 1532 1686      		std Z+14,__zero_reg__
 200:lp_solve_5.5/bfp/bfp_LUSOL/lp_LUSOL.c **** 
 201:lp_solve_5.5/bfp/bfp_LUSOL/lp_LUSOL.c ****   return(0);
 3838               		.loc 3 201 0
 3839 1534 80E0      		ldi r24,0
 3840 1536 90E0      		ldi r25,0
 3841               	/* epilogue start */
 202:lp_solve_5.5/bfp/bfp_LUSOL/lp_LUSOL.c **** 
 203:lp_solve_5.5/bfp/bfp_LUSOL/lp_LUSOL.c **** }
 3842               		.loc 3 203 0
 3843 1538 0F90      		pop __tmp_reg__
 3844 153a 0F90      		pop __tmp_reg__
 3845 153c 0F90      		pop __tmp_reg__
 3846 153e 0F90      		pop __tmp_reg__
 3847 1540 DF91      		pop r29
 3848 1542 CF91      		pop r28
 3849 1544 1F91      		pop r17
 3850 1546 0F91      		pop r16
 3851 1548 FF90      		pop r15
 3852 154a EF90      		pop r14
 3853 154c 0895      		ret
 3854               		.cfi_endproc
 3855               	.LFE36:
 3857               	.global	bfp_LUSOLsetcolumn
 3859               	bfp_LUSOLsetcolumn:
 3860               	.LFB37:
 204:lp_solve_5.5/bfp/bfp_LUSOL/lp_LUSOL.c **** 
 205:lp_solve_5.5/bfp/bfp_LUSOL/lp_LUSOL.c **** 
 206:lp_solve_5.5/bfp/bfp_LUSOL/lp_LUSOL.c **** /* LOCAL HELPER ROUTINE - Replace a basis column with corresponding slack */
 207:lp_solve_5.5/bfp/bfp_LUSOL/lp_LUSOL.c **** int bfp_LUSOLsetcolumn(lprec *lp, int posnr, int colnr)
 208:lp_solve_5.5/bfp/bfp_LUSOL/lp_LUSOL.c **** {
 3861               		.loc 3 208 0
 3862               		.cfi_startproc
 3863 154e EF92      		push r14
 3864               	.LCFI154:
 3865               		.cfi_def_cfa_offset 3
 3866               		.cfi_offset 14, -2
 3867 1550 FF92      		push r15
 3868               	.LCFI155:
 3869               		.cfi_def_cfa_offset 4
 3870               		.cfi_offset 15, -3
 3871 1552 0F93      		push r16
 3872               	.LCFI156:
 3873               		.cfi_def_cfa_offset 5
 3874               		.cfi_offset 16, -4
 3875 1554 1F93      		push r17
 3876               	.LCFI157:
 3877               		.cfi_def_cfa_offset 6
 3878               		.cfi_offset 17, -5
 3879 1556 CF93      		push r28
 3880               	.LCFI158:
 3881               		.cfi_def_cfa_offset 7
 3882               		.cfi_offset 28, -6
 3883 1558 DF93      		push r29
 3884               	.LCFI159:
 3885               		.cfi_def_cfa_offset 8
 3886               		.cfi_offset 29, -7
 3887 155a CDB7      		in r28,__SP_L__
 3888 155c DEB7      		in r29,__SP_H__
 3889               	.LCFI160:
 3890               		.cfi_def_cfa_register 28
 3891 155e 2A97      		sbiw r28,10
 3892               	.LCFI161:
 3893               		.cfi_def_cfa_offset 18
 3894 1560 0FB6      		in __tmp_reg__,__SREG__
 3895 1562 F894      		cli
 3896 1564 DEBF      		out __SP_H__,r29
 3897 1566 0FBE      		out __SREG__,__tmp_reg__
 3898 1568 CDBF      		out __SP_L__,r28
 3899               	/* prologue: function */
 3900               	/* frame size = 10 */
 3901               	/* stack size = 16 */
 3902               	.L__stack_usage = 16
 3903 156a 9E83      		std Y+6,r25
 3904 156c 8D83      		std Y+5,r24
 3905 156e 7887      		std Y+8,r23
 3906 1570 6F83      		std Y+7,r22
 3907 1572 5A87      		std Y+10,r21
 3908 1574 4987      		std Y+9,r20
 209:lp_solve_5.5/bfp/bfp_LUSOL/lp_LUSOL.c ****   int nz, inform;
 210:lp_solve_5.5/bfp/bfp_LUSOL/lp_LUSOL.c **** 
 211:lp_solve_5.5/bfp/bfp_LUSOL/lp_LUSOL.c ****   nz = lp->get_lpcolumn(lp, colnr, lp->invB->LUSOL->w + bfp_rowoffset(lp), NULL, NULL);
 3909               		.loc 3 211 0
 3910 1576 8D81      		ldd r24,Y+5
 3911 1578 9E81      		ldd r25,Y+6
 3912 157a 8A51      		subi r24,26
 3913 157c 9C4F      		sbci r25,-4
 3914 157e FC01      		movw r30,r24
 3915 1580 E080      		ld r14,Z
 3916 1582 F180      		ldd r15,Z+1
 3917 1584 8D81      		ldd r24,Y+5
 3918 1586 9E81      		ldd r25,Y+6
 3919 1588 8854      		subi r24,72
 3920 158a 9D4F      		sbci r25,-3
 3921 158c FC01      		movw r30,r24
 3922 158e 8081      		ld r24,Z
 3923 1590 9181      		ldd r25,Z+1
 3924 1592 FC01      		movw r30,r24
 3925 1594 8085      		ldd r24,Z+8
 3926 1596 9185      		ldd r25,Z+9
 3927 1598 8C53      		subi r24,60
 3928 159a 9F4F      		sbci r25,-1
 3929 159c FC01      		movw r30,r24
 3930 159e 0081      		ld r16,Z
 3931 15a0 1181      		ldd r17,Z+1
 3932 15a2 8D81      		ldd r24,Y+5
 3933 15a4 9E81      		ldd r25,Y+6
 3934 15a6 0E94 0000 		call bfp_rowoffset
 3935 15aa 880F      		lsl r24
 3936 15ac 991F      		rol r25
 3937 15ae 880F      		lsl r24
 3938 15b0 991F      		rol r25
 3939 15b2 A801      		movw r20,r16
 3940 15b4 480F      		add r20,r24
 3941 15b6 591F      		adc r21,r25
 3942 15b8 6985      		ldd r22,Y+9
 3943 15ba 7A85      		ldd r23,Y+10
 3944 15bc 8D81      		ldd r24,Y+5
 3945 15be 9E81      		ldd r25,Y+6
 3946 15c0 00E0      		ldi r16,0
 3947 15c2 10E0      		ldi r17,0
 3948 15c4 20E0      		ldi r18,0
 3949 15c6 30E0      		ldi r19,0
 3950 15c8 F701      		movw r30,r14
 3951 15ca 0995      		icall
 3952 15cc 9A83      		std Y+2,r25
 3953 15ce 8983      		std Y+1,r24
 212:lp_solve_5.5/bfp/bfp_LUSOL/lp_LUSOL.c ****   inform = LUSOL_replaceColumn(lp->invB->LUSOL, posnr, lp->invB->LUSOL->w);
 3954               		.loc 3 212 0
 3955 15d0 8D81      		ldd r24,Y+5
 3956 15d2 9E81      		ldd r25,Y+6
 3957 15d4 8854      		subi r24,72
 3958 15d6 9D4F      		sbci r25,-3
 3959 15d8 FC01      		movw r30,r24
 3960 15da 8081      		ld r24,Z
 3961 15dc 9181      		ldd r25,Z+1
 3962 15de FC01      		movw r30,r24
 3963 15e0 8085      		ldd r24,Z+8
 3964 15e2 9185      		ldd r25,Z+9
 3965 15e4 8C53      		subi r24,60
 3966 15e6 9F4F      		sbci r25,-1
 3967 15e8 FC01      		movw r30,r24
 3968 15ea 4081      		ld r20,Z
 3969 15ec 5181      		ldd r21,Z+1
 3970 15ee 8D81      		ldd r24,Y+5
 3971 15f0 9E81      		ldd r25,Y+6
 3972 15f2 8854      		subi r24,72
 3973 15f4 9D4F      		sbci r25,-3
 3974 15f6 FC01      		movw r30,r24
 3975 15f8 8081      		ld r24,Z
 3976 15fa 9181      		ldd r25,Z+1
 3977 15fc FC01      		movw r30,r24
 3978 15fe 8085      		ldd r24,Z+8
 3979 1600 9185      		ldd r25,Z+9
 3980 1602 2F81      		ldd r18,Y+7
 3981 1604 3885      		ldd r19,Y+8
 3982 1606 B901      		movw r22,r18
 3983 1608 0E94 0000 		call LUSOL_replaceColumn
 3984 160c 9C83      		std Y+4,r25
 3985 160e 8B83      		std Y+3,r24
 213:lp_solve_5.5/bfp/bfp_LUSOL/lp_LUSOL.c ****   return( inform );
 3986               		.loc 3 213 0
 3987 1610 8B81      		ldd r24,Y+3
 3988 1612 9C81      		ldd r25,Y+4
 3989               	/* epilogue start */
 214:lp_solve_5.5/bfp/bfp_LUSOL/lp_LUSOL.c **** }
 3990               		.loc 3 214 0
 3991 1614 2A96      		adiw r28,10
 3992 1616 0FB6      		in __tmp_reg__,__SREG__
 3993 1618 F894      		cli
 3994 161a DEBF      		out __SP_H__,r29
 3995 161c 0FBE      		out __SREG__,__tmp_reg__
 3996 161e CDBF      		out __SP_L__,r28
 3997 1620 DF91      		pop r29
 3998 1622 CF91      		pop r28
 3999 1624 1F91      		pop r17
 4000 1626 0F91      		pop r16
 4001 1628 FF90      		pop r15
 4002 162a EF90      		pop r14
 4003 162c 0895      		ret
 4004               		.cfi_endproc
 4005               	.LFE37:
 4007               	.global	bfp_LUSOLidentity
 4009               	bfp_LUSOLidentity:
 4010               	.LFB38:
 215:lp_solve_5.5/bfp/bfp_LUSOL/lp_LUSOL.c **** 
 216:lp_solve_5.5/bfp/bfp_LUSOL/lp_LUSOL.c **** 
 217:lp_solve_5.5/bfp/bfp_LUSOL/lp_LUSOL.c **** /* LOCAL HELPER ROUTINE - force the basis to be the identity matrix */
 218:lp_solve_5.5/bfp/bfp_LUSOL/lp_LUSOL.c **** int bfp_LUSOLidentity(lprec *lp, int *rownum)
 219:lp_solve_5.5/bfp/bfp_LUSOL/lp_LUSOL.c **** {
 4011               		.loc 3 219 0
 4012               		.cfi_startproc
 4013 162e EF92      		push r14
 4014               	.LCFI162:
 4015               		.cfi_def_cfa_offset 3
 4016               		.cfi_offset 14, -2
 4017 1630 FF92      		push r15
 4018               	.LCFI163:
 4019               		.cfi_def_cfa_offset 4
 4020               		.cfi_offset 15, -3
 4021 1632 0F93      		push r16
 4022               	.LCFI164:
 4023               		.cfi_def_cfa_offset 5
 4024               		.cfi_offset 16, -4
 4025 1634 1F93      		push r17
 4026               	.LCFI165:
 4027               		.cfi_def_cfa_offset 6
 4028               		.cfi_offset 17, -5
 4029 1636 CF93      		push r28
 4030               	.LCFI166:
 4031               		.cfi_def_cfa_offset 7
 4032               		.cfi_offset 28, -6
 4033 1638 DF93      		push r29
 4034               	.LCFI167:
 4035               		.cfi_def_cfa_offset 8
 4036               		.cfi_offset 29, -7
 4037 163a CDB7      		in r28,__SP_L__
 4038 163c DEB7      		in r29,__SP_H__
 4039               	.LCFI168:
 4040               		.cfi_def_cfa_register 28
 4041 163e 2A97      		sbiw r28,10
 4042               	.LCFI169:
 4043               		.cfi_def_cfa_offset 18
 4044 1640 0FB6      		in __tmp_reg__,__SREG__
 4045 1642 F894      		cli
 4046 1644 DEBF      		out __SP_H__,r29
 4047 1646 0FBE      		out __SREG__,__tmp_reg__
 4048 1648 CDBF      		out __SP_L__,r28
 4049               	/* prologue: function */
 4050               	/* frame size = 10 */
 4051               	/* stack size = 16 */
 4052               	.L__stack_usage = 16
 4053 164a 9887      		std Y+8,r25
 4054 164c 8F83      		std Y+7,r24
 4055 164e 7A87      		std Y+10,r23
 4056 1650 6987      		std Y+9,r22
 220:lp_solve_5.5/bfp/bfp_LUSOL/lp_LUSOL.c ****   int    i, nz;
 221:lp_solve_5.5/bfp/bfp_LUSOL/lp_LUSOL.c ****   INVrec *invB = lp->invB;
 4057               		.loc 3 221 0
 4058 1652 8F81      		ldd r24,Y+7
 4059 1654 9885      		ldd r25,Y+8
 4060 1656 8854      		subi r24,72
 4061 1658 9D4F      		sbci r25,-3
 4062 165a DC01      		movw r26,r24
 4063 165c 8D91      		ld r24,X+
 4064 165e 9C91      		ld r25,X
 4065 1660 9C83      		std Y+4,r25
 4066 1662 8B83      		std Y+3,r24
 222:lp_solve_5.5/bfp/bfp_LUSOL/lp_LUSOL.c **** 
 223:lp_solve_5.5/bfp/bfp_LUSOL/lp_LUSOL.c ****   /* Reset the factorization engine */
 224:lp_solve_5.5/bfp/bfp_LUSOL/lp_LUSOL.c ****   LUSOL_clear(invB->LUSOL, TRUE);
 4067               		.loc 3 224 0
 4068 1664 8B81      		ldd r24,Y+3
 4069 1666 9C81      		ldd r25,Y+4
 4070 1668 FC01      		movw r30,r24
 4071 166a 8085      		ldd r24,Z+8
 4072 166c 9185      		ldd r25,Z+9
 4073 166e 61E0      		ldi r22,lo8(1)
 4074 1670 0E94 0000 		call LUSOL_clear
 225:lp_solve_5.5/bfp/bfp_LUSOL/lp_LUSOL.c **** 
 226:lp_solve_5.5/bfp/bfp_LUSOL/lp_LUSOL.c ****   /* Add the basis columns */
 227:lp_solve_5.5/bfp/bfp_LUSOL/lp_LUSOL.c ****   lp->invB->set_Bidentity = TRUE;
 4075               		.loc 3 227 0
 4076 1674 8F81      		ldd r24,Y+7
 4077 1676 9885      		ldd r25,Y+8
 4078 1678 8854      		subi r24,72
 4079 167a 9D4F      		sbci r25,-3
 4080 167c DC01      		movw r26,r24
 4081 167e 8D91      		ld r24,X+
 4082 1680 9C91      		ld r25,X
 4083 1682 21E0      		ldi r18,lo8(1)
 4084 1684 FC01      		movw r30,r24
 4085 1686 25AB      		std Z+53,r18
 228:lp_solve_5.5/bfp/bfp_LUSOL/lp_LUSOL.c ****   for(i = 1; i <= invB->dimcount; i++) {
 4086               		.loc 3 228 0
 4087 1688 81E0      		ldi r24,lo8(1)
 4088 168a 90E0      		ldi r25,0
 4089 168c 9A83      		std Y+2,r25
 4090 168e 8983      		std Y+1,r24
 4091 1690 00C0      		rjmp .L135
 4092               	.L136:
 229:lp_solve_5.5/bfp/bfp_LUSOL/lp_LUSOL.c ****     nz = lp->get_basiscolumn(lp, i, rownum, invB->value);
 4093               		.loc 3 229 0 discriminator 3
 4094 1692 8F81      		ldd r24,Y+7
 4095 1694 9885      		ldd r25,Y+8
 4096 1696 8851      		subi r24,24
 4097 1698 9C4F      		sbci r25,-4
 4098 169a DC01      		movw r26,r24
 4099 169c ED91      		ld r30,X+
 4100 169e FC91      		ld r31,X
 4101 16a0 8B81      		ldd r24,Y+3
 4102 16a2 9C81      		ldd r25,Y+4
 4103 16a4 DC01      		movw r26,r24
 4104 16a6 5096      		adiw r26,16
 4105 16a8 2D91      		ld r18,X+
 4106 16aa 3C91      		ld r19,X
 4107 16ac 5197      		sbiw r26,16+1
 4108 16ae 4985      		ldd r20,Y+9
 4109 16b0 5A85      		ldd r21,Y+10
 4110 16b2 6981      		ldd r22,Y+1
 4111 16b4 7A81      		ldd r23,Y+2
 4112 16b6 8F81      		ldd r24,Y+7
 4113 16b8 9885      		ldd r25,Y+8
 4114 16ba 0995      		icall
 4115 16bc 9E83      		std Y+6,r25
 4116 16be 8D83      		std Y+5,r24
 230:lp_solve_5.5/bfp/bfp_LUSOL/lp_LUSOL.c ****     LUSOL_loadColumn(invB->LUSOL, rownum, i, invB->value, nz, 0);
 4117               		.loc 3 230 0 discriminator 3
 4118 16c0 8B81      		ldd r24,Y+3
 4119 16c2 9C81      		ldd r25,Y+4
 4120 16c4 FC01      		movw r30,r24
 4121 16c6 2089      		ldd r18,Z+16
 4122 16c8 3189      		ldd r19,Z+17
 4123 16ca 8B81      		ldd r24,Y+3
 4124 16cc 9C81      		ldd r25,Y+4
 4125 16ce DC01      		movw r26,r24
 4126 16d0 1896      		adiw r26,8
 4127 16d2 8D91      		ld r24,X+
 4128 16d4 9C91      		ld r25,X
 4129 16d6 1997      		sbiw r26,8+1
 4130 16d8 ED81      		ldd r30,Y+5
 4131 16da FE81      		ldd r31,Y+6
 4132 16dc 4981      		ldd r20,Y+1
 4133 16de 5A81      		ldd r21,Y+2
 4134 16e0 6985      		ldd r22,Y+9
 4135 16e2 7A85      		ldd r23,Y+10
 4136 16e4 E12C      		mov r14,__zero_reg__
 4137 16e6 F12C      		mov r15,__zero_reg__
 4138 16e8 8F01      		movw r16,r30
 4139 16ea 0E94 0000 		call LUSOL_loadColumn
 228:lp_solve_5.5/bfp/bfp_LUSOL/lp_LUSOL.c ****   for(i = 1; i <= invB->dimcount; i++) {
 4140               		.loc 3 228 0 discriminator 3
 4141 16ee 8981      		ldd r24,Y+1
 4142 16f0 9A81      		ldd r25,Y+2
 4143 16f2 0196      		adiw r24,1
 4144 16f4 9A83      		std Y+2,r25
 4145 16f6 8983      		std Y+1,r24
 4146               	.L135:
 228:lp_solve_5.5/bfp/bfp_LUSOL/lp_LUSOL.c ****   for(i = 1; i <= invB->dimcount; i++) {
 4147               		.loc 3 228 0 is_stmt 0 discriminator 1
 4148 16f8 8B81      		ldd r24,Y+3
 4149 16fa 9C81      		ldd r25,Y+4
 4150 16fc FC01      		movw r30,r24
 4151 16fe 2281      		ldd r18,Z+2
 4152 1700 3381      		ldd r19,Z+3
 4153 1702 8981      		ldd r24,Y+1
 4154 1704 9A81      		ldd r25,Y+2
 4155 1706 2817      		cp r18,r24
 4156 1708 3907      		cpc r19,r25
 4157 170a 04F4      		brge .L136
 231:lp_solve_5.5/bfp/bfp_LUSOL/lp_LUSOL.c ****   }
 232:lp_solve_5.5/bfp/bfp_LUSOL/lp_LUSOL.c ****   lp->invB->set_Bidentity = FALSE;
 4158               		.loc 3 232 0 is_stmt 1
 4159 170c 8F81      		ldd r24,Y+7
 4160 170e 9885      		ldd r25,Y+8
 4161 1710 8854      		subi r24,72
 4162 1712 9D4F      		sbci r25,-3
 4163 1714 DC01      		movw r26,r24
 4164 1716 8D91      		ld r24,X+
 4165 1718 9C91      		ld r25,X
 4166 171a FC01      		movw r30,r24
 4167 171c 15AA      		std Z+53,__zero_reg__
 233:lp_solve_5.5/bfp/bfp_LUSOL/lp_LUSOL.c **** 
 234:lp_solve_5.5/bfp/bfp_LUSOL/lp_LUSOL.c ****   /* Factorize */
 235:lp_solve_5.5/bfp/bfp_LUSOL/lp_LUSOL.c ****   i = LUSOL_factorize(invB->LUSOL);
 4168               		.loc 3 235 0
 4169 171e 8B81      		ldd r24,Y+3
 4170 1720 9C81      		ldd r25,Y+4
 4171 1722 DC01      		movw r26,r24
 4172 1724 1896      		adiw r26,8
 4173 1726 8D91      		ld r24,X+
 4174 1728 9C91      		ld r25,X
 4175 172a 1997      		sbiw r26,8+1
 4176 172c 0E94 0000 		call LUSOL_factorize
 4177 1730 9A83      		std Y+2,r25
 4178 1732 8983      		std Y+1,r24
 236:lp_solve_5.5/bfp/bfp_LUSOL/lp_LUSOL.c **** 
 237:lp_solve_5.5/bfp/bfp_LUSOL/lp_LUSOL.c ****   return( i );
 4179               		.loc 3 237 0
 4180 1734 8981      		ldd r24,Y+1
 4181 1736 9A81      		ldd r25,Y+2
 4182               	/* epilogue start */
 238:lp_solve_5.5/bfp/bfp_LUSOL/lp_LUSOL.c **** }
 4183               		.loc 3 238 0
 4184 1738 2A96      		adiw r28,10
 4185 173a 0FB6      		in __tmp_reg__,__SREG__
 4186 173c F894      		cli
 4187 173e DEBF      		out __SP_H__,r29
 4188 1740 0FBE      		out __SREG__,__tmp_reg__
 4189 1742 CDBF      		out __SP_L__,r28
 4190 1744 DF91      		pop r29
 4191 1746 CF91      		pop r28
 4192 1748 1F91      		pop r17
 4193 174a 0F91      		pop r16
 4194 174c FF90      		pop r15
 4195 174e EF90      		pop r14
 4196 1750 0895      		ret
 4197               		.cfi_endproc
 4198               	.LFE38:
 4200               	.global	bfp_LUSOLfactorize
 4202               	bfp_LUSOLfactorize:
 4203               	.LFB39:
 239:lp_solve_5.5/bfp/bfp_LUSOL/lp_LUSOL.c **** 
 240:lp_solve_5.5/bfp/bfp_LUSOL/lp_LUSOL.c **** 
 241:lp_solve_5.5/bfp/bfp_LUSOL/lp_LUSOL.c **** /* LOCAL HELPER ROUTINE */
 242:lp_solve_5.5/bfp/bfp_LUSOL/lp_LUSOL.c **** int bfp_LUSOLfactorize(lprec *lp, MYBOOL *usedpos, int *rownum, int *singular)
 243:lp_solve_5.5/bfp/bfp_LUSOL/lp_LUSOL.c **** {
 4204               		.loc 3 243 0
 4205               		.cfi_startproc
 4206 1752 EF92      		push r14
 4207               	.LCFI170:
 4208               		.cfi_def_cfa_offset 3
 4209               		.cfi_offset 14, -2
 4210 1754 FF92      		push r15
 4211               	.LCFI171:
 4212               		.cfi_def_cfa_offset 4
 4213               		.cfi_offset 15, -3
 4214 1756 0F93      		push r16
 4215               	.LCFI172:
 4216               		.cfi_def_cfa_offset 5
 4217               		.cfi_offset 16, -4
 4218 1758 1F93      		push r17
 4219               	.LCFI173:
 4220               		.cfi_def_cfa_offset 6
 4221               		.cfi_offset 17, -5
 4222 175a CF93      		push r28
 4223               	.LCFI174:
 4224               		.cfi_def_cfa_offset 7
 4225               		.cfi_offset 28, -6
 4226 175c DF93      		push r29
 4227               	.LCFI175:
 4228               		.cfi_def_cfa_offset 8
 4229               		.cfi_offset 29, -7
 4230 175e CDB7      		in r28,__SP_L__
 4231 1760 DEB7      		in r29,__SP_H__
 4232               	.LCFI176:
 4233               		.cfi_def_cfa_register 28
 4234 1762 6497      		sbiw r28,20
 4235               	.LCFI177:
 4236               		.cfi_def_cfa_offset 28
 4237 1764 0FB6      		in __tmp_reg__,__SREG__
 4238 1766 F894      		cli
 4239 1768 DEBF      		out __SP_H__,r29
 4240 176a 0FBE      		out __SREG__,__tmp_reg__
 4241 176c CDBF      		out __SP_L__,r28
 4242               	/* prologue: function */
 4243               	/* frame size = 20 */
 4244               	/* stack size = 26 */
 4245               	.L__stack_usage = 26
 4246 176e 9E87      		std Y+14,r25
 4247 1770 8D87      		std Y+13,r24
 4248 1772 788B      		std Y+16,r23
 4249 1774 6F87      		std Y+15,r22
 4250 1776 5A8B      		std Y+18,r21
 4251 1778 498B      		std Y+17,r20
 4252 177a 3C8B      		std Y+20,r19
 4253 177c 2B8B      		std Y+19,r18
 244:lp_solve_5.5/bfp/bfp_LUSOL/lp_LUSOL.c ****   int    i, j, nz, deltarows = bfp_rowoffset(lp);
 4254               		.loc 3 244 0
 4255 177e 8D85      		ldd r24,Y+13
 4256 1780 9E85      		ldd r25,Y+14
 4257 1782 0E94 0000 		call bfp_rowoffset
 4258 1786 9E83      		std Y+6,r25
 4259 1788 8D83      		std Y+5,r24
 245:lp_solve_5.5/bfp/bfp_LUSOL/lp_LUSOL.c ****   INVrec *invB = lp->invB;
 4260               		.loc 3 245 0
 4261 178a 8D85      		ldd r24,Y+13
 4262 178c 9E85      		ldd r25,Y+14
 4263 178e 8854      		subi r24,72
 4264 1790 9D4F      		sbci r25,-3
 4265 1792 DC01      		movw r26,r24
 4266 1794 8D91      		ld r24,X+
 4267 1796 9C91      		ld r25,X
 4268 1798 9887      		std Y+8,r25
 4269 179a 8F83      		std Y+7,r24
 246:lp_solve_5.5/bfp/bfp_LUSOL/lp_LUSOL.c **** 
 247:lp_solve_5.5/bfp/bfp_LUSOL/lp_LUSOL.c ****   /* Handle normal, presumed nonsingular case */
 248:lp_solve_5.5/bfp/bfp_LUSOL/lp_LUSOL.c ****   if(singular == NULL) {
 4270               		.loc 3 248 0
 4271 179c 8B89      		ldd r24,Y+19
 4272 179e 9C89      		ldd r25,Y+20
 4273 17a0 892B      		or r24,r25
 4274 17a2 01F0      		breq .+2
 4275 17a4 00C0      		rjmp .L139
 249:lp_solve_5.5/bfp/bfp_LUSOL/lp_LUSOL.c **** 
 250:lp_solve_5.5/bfp/bfp_LUSOL/lp_LUSOL.c ****   /* Optionally do a symbolic minimum degree ordering;
 251:lp_solve_5.5/bfp/bfp_LUSOL/lp_LUSOL.c ****      not that slack variables should not be processed */
 252:lp_solve_5.5/bfp/bfp_LUSOL/lp_LUSOL.c **** /*#define UsePreprocessMDO*/
 253:lp_solve_5.5/bfp/bfp_LUSOL/lp_LUSOL.c **** #ifdef UsePreprocessMDO
 254:lp_solve_5.5/bfp/bfp_LUSOL/lp_LUSOL.c ****     int *mdo;
 255:lp_solve_5.5/bfp/bfp_LUSOL/lp_LUSOL.c ****     mdo = lp->bfp_createMDO(lp, usedpos, lp->rows, TRUE);
 256:lp_solve_5.5/bfp/bfp_LUSOL/lp_LUSOL.c ****     if(mdo != NULL) {
 257:lp_solve_5.5/bfp/bfp_LUSOL/lp_LUSOL.c ****       for(i = 1; i <= lp->rows; i++)
 258:lp_solve_5.5/bfp/bfp_LUSOL/lp_LUSOL.c ****         lp->set_basisvar(lp, i, mdo[i]);
 259:lp_solve_5.5/bfp/bfp_LUSOL/lp_LUSOL.c ****       FREE(mdo);
 260:lp_solve_5.5/bfp/bfp_LUSOL/lp_LUSOL.c ****     }
 261:lp_solve_5.5/bfp/bfp_LUSOL/lp_LUSOL.c **** #endif
 262:lp_solve_5.5/bfp/bfp_LUSOL/lp_LUSOL.c **** 
 263:lp_solve_5.5/bfp/bfp_LUSOL/lp_LUSOL.c ****     /* Reset the factorization engine */
 264:lp_solve_5.5/bfp/bfp_LUSOL/lp_LUSOL.c ****     LUSOL_clear(invB->LUSOL, TRUE);
 4276               		.loc 3 264 0
 4277 17a6 8F81      		ldd r24,Y+7
 4278 17a8 9885      		ldd r25,Y+8
 4279 17aa FC01      		movw r30,r24
 4280 17ac 8085      		ldd r24,Z+8
 4281 17ae 9185      		ldd r25,Z+9
 4282 17b0 61E0      		ldi r22,lo8(1)
 4283 17b2 0E94 0000 		call LUSOL_clear
 265:lp_solve_5.5/bfp/bfp_LUSOL/lp_LUSOL.c **** 
 266:lp_solve_5.5/bfp/bfp_LUSOL/lp_LUSOL.c ****     /* Add the basis columns in the original order */
 267:lp_solve_5.5/bfp/bfp_LUSOL/lp_LUSOL.c ****     for(i = 1; i <= invB->dimcount; i++) {
 4284               		.loc 3 267 0
 4285 17b6 81E0      		ldi r24,lo8(1)
 4286 17b8 90E0      		ldi r25,0
 4287 17ba 9A83      		std Y+2,r25
 4288 17bc 8983      		std Y+1,r24
 4289 17be 00C0      		rjmp .L140
 4290               	.L142:
 268:lp_solve_5.5/bfp/bfp_LUSOL/lp_LUSOL.c ****       nz = lp->get_basiscolumn(lp, i, rownum, invB->value);
 4291               		.loc 3 268 0
 4292 17c0 8D85      		ldd r24,Y+13
 4293 17c2 9E85      		ldd r25,Y+14
 4294 17c4 8851      		subi r24,24
 4295 17c6 9C4F      		sbci r25,-4
 4296 17c8 DC01      		movw r26,r24
 4297 17ca ED91      		ld r30,X+
 4298 17cc FC91      		ld r31,X
 4299 17ce 8F81      		ldd r24,Y+7
 4300 17d0 9885      		ldd r25,Y+8
 4301 17d2 DC01      		movw r26,r24
 4302 17d4 5096      		adiw r26,16
 4303 17d6 2D91      		ld r18,X+
 4304 17d8 3C91      		ld r19,X
 4305 17da 5197      		sbiw r26,16+1
 4306 17dc 4989      		ldd r20,Y+17
 4307 17de 5A89      		ldd r21,Y+18
 4308 17e0 6981      		ldd r22,Y+1
 4309 17e2 7A81      		ldd r23,Y+2
 4310 17e4 8D85      		ldd r24,Y+13
 4311 17e6 9E85      		ldd r25,Y+14
 4312 17e8 0995      		icall
 4313 17ea 9A87      		std Y+10,r25
 4314 17ec 8987      		std Y+9,r24
 269:lp_solve_5.5/bfp/bfp_LUSOL/lp_LUSOL.c ****       LUSOL_loadColumn(invB->LUSOL, rownum, i, invB->value, nz, 0);
 4315               		.loc 3 269 0
 4316 17ee 8F81      		ldd r24,Y+7
 4317 17f0 9885      		ldd r25,Y+8
 4318 17f2 FC01      		movw r30,r24
 4319 17f4 2089      		ldd r18,Z+16
 4320 17f6 3189      		ldd r19,Z+17
 4321 17f8 8F81      		ldd r24,Y+7
 4322 17fa 9885      		ldd r25,Y+8
 4323 17fc DC01      		movw r26,r24
 4324 17fe 1896      		adiw r26,8
 4325 1800 8D91      		ld r24,X+
 4326 1802 9C91      		ld r25,X
 4327 1804 1997      		sbiw r26,8+1
 4328 1806 E985      		ldd r30,Y+9
 4329 1808 FA85      		ldd r31,Y+10
 4330 180a 4981      		ldd r20,Y+1
 4331 180c 5A81      		ldd r21,Y+2
 4332 180e 6989      		ldd r22,Y+17
 4333 1810 7A89      		ldd r23,Y+18
 4334 1812 E12C      		mov r14,__zero_reg__
 4335 1814 F12C      		mov r15,__zero_reg__
 4336 1816 8F01      		movw r16,r30
 4337 1818 0E94 0000 		call LUSOL_loadColumn
 270:lp_solve_5.5/bfp/bfp_LUSOL/lp_LUSOL.c ****       if((i > deltarows) && (lp->var_basic[i-deltarows] > lp->rows))
 4338               		.loc 3 270 0
 4339 181c 2981      		ldd r18,Y+1
 4340 181e 3A81      		ldd r19,Y+2
 4341 1820 8D81      		ldd r24,Y+5
 4342 1822 9E81      		ldd r25,Y+6
 4343 1824 8217      		cp r24,r18
 4344 1826 9307      		cpc r25,r19
 4345 1828 04F4      		brge .L141
 4346               		.loc 3 270 0 is_stmt 0 discriminator 1
 4347 182a 8D85      		ldd r24,Y+13
 4348 182c 9E85      		ldd r25,Y+14
 4349 182e 8453      		subi r24,52
 4350 1830 9D4F      		sbci r25,-3
 4351 1832 FC01      		movw r30,r24
 4352 1834 2081      		ld r18,Z
 4353 1836 3181      		ldd r19,Z+1
 4354 1838 4981      		ldd r20,Y+1
 4355 183a 5A81      		ldd r21,Y+2
 4356 183c 8D81      		ldd r24,Y+5
 4357 183e 9E81      		ldd r25,Y+6
 4358 1840 BA01      		movw r22,r20
 4359 1842 681B      		sub r22,r24
 4360 1844 790B      		sbc r23,r25
 4361 1846 CB01      		movw r24,r22
 4362 1848 880F      		lsl r24
 4363 184a 991F      		rol r25
 4364 184c 820F      		add r24,r18
 4365 184e 931F      		adc r25,r19
 4366 1850 DC01      		movw r26,r24
 4367 1852 2D91      		ld r18,X+
 4368 1854 3C91      		ld r19,X
 4369 1856 8D85      		ldd r24,Y+13
 4370 1858 9E85      		ldd r25,Y+14
 4371 185a 8651      		subi r24,22
 4372 185c 9E4F      		sbci r25,-2
 4373 185e FC01      		movw r30,r24
 4374 1860 8081      		ld r24,Z
 4375 1862 9181      		ldd r25,Z+1
 4376 1864 8217      		cp r24,r18
 4377 1866 9307      		cpc r25,r19
 4378 1868 04F4      		brge .L141
 271:lp_solve_5.5/bfp/bfp_LUSOL/lp_LUSOL.c ****         lp->invB->user_colcount++;
 4379               		.loc 3 271 0 is_stmt 1
 4380 186a 8D85      		ldd r24,Y+13
 4381 186c 9E85      		ldd r25,Y+14
 4382 186e 8854      		subi r24,72
 4383 1870 9D4F      		sbci r25,-3
 4384 1872 DC01      		movw r26,r24
 4385 1874 8D91      		ld r24,X+
 4386 1876 9C91      		ld r25,X
 4387 1878 FC01      		movw r30,r24
 4388 187a 2681      		ldd r18,Z+6
 4389 187c 3781      		ldd r19,Z+7
 4390 187e 2F5F      		subi r18,-1
 4391 1880 3F4F      		sbci r19,-1
 4392 1882 DC01      		movw r26,r24
 4393 1884 1796      		adiw r26,6+1
 4394 1886 3C93      		st X,r19
 4395 1888 2E93      		st -X,r18
 4396 188a 1697      		sbiw r26,6
 4397               	.L141:
 267:lp_solve_5.5/bfp/bfp_LUSOL/lp_LUSOL.c ****       nz = lp->get_basiscolumn(lp, i, rownum, invB->value);
 4398               		.loc 3 267 0 discriminator 2
 4399 188c 8981      		ldd r24,Y+1
 4400 188e 9A81      		ldd r25,Y+2
 4401 1890 0196      		adiw r24,1
 4402 1892 9A83      		std Y+2,r25
 4403 1894 8983      		std Y+1,r24
 4404               	.L140:
 267:lp_solve_5.5/bfp/bfp_LUSOL/lp_LUSOL.c ****       nz = lp->get_basiscolumn(lp, i, rownum, invB->value);
 4405               		.loc 3 267 0 is_stmt 0 discriminator 1
 4406 1896 8F81      		ldd r24,Y+7
 4407 1898 9885      		ldd r25,Y+8
 4408 189a FC01      		movw r30,r24
 4409 189c 2281      		ldd r18,Z+2
 4410 189e 3381      		ldd r19,Z+3
 4411 18a0 8981      		ldd r24,Y+1
 4412 18a2 9A81      		ldd r25,Y+2
 4413 18a4 2817      		cp r18,r24
 4414 18a6 3907      		cpc r19,r25
 4415 18a8 04F0      		brlt .+2
 4416 18aa 00C0      		rjmp .L142
 272:lp_solve_5.5/bfp/bfp_LUSOL/lp_LUSOL.c ****     }
 273:lp_solve_5.5/bfp/bfp_LUSOL/lp_LUSOL.c **** 
 274:lp_solve_5.5/bfp/bfp_LUSOL/lp_LUSOL.c ****     /* Factorize */
 275:lp_solve_5.5/bfp/bfp_LUSOL/lp_LUSOL.c ****     i = LUSOL_factorize(invB->LUSOL);
 4417               		.loc 3 275 0 is_stmt 1
 4418 18ac 8F81      		ldd r24,Y+7
 4419 18ae 9885      		ldd r25,Y+8
 4420 18b0 DC01      		movw r26,r24
 4421 18b2 1896      		adiw r26,8
 4422 18b4 8D91      		ld r24,X+
 4423 18b6 9C91      		ld r25,X
 4424 18b8 1997      		sbiw r26,8+1
 4425 18ba 0E94 0000 		call LUSOL_factorize
 4426 18be 9A83      		std Y+2,r25
 4427 18c0 8983      		std Y+1,r24
 4428 18c2 00C0      		rjmp .L143
 4429               	.L139:
 4430               	.LBB6:
 276:lp_solve_5.5/bfp/bfp_LUSOL/lp_LUSOL.c ****   }
 277:lp_solve_5.5/bfp/bfp_LUSOL/lp_LUSOL.c **** 
 278:lp_solve_5.5/bfp/bfp_LUSOL/lp_LUSOL.c ****   /* Handle case where a column may be singular */
 279:lp_solve_5.5/bfp/bfp_LUSOL/lp_LUSOL.c ****   else {
 280:lp_solve_5.5/bfp/bfp_LUSOL/lp_LUSOL.c ****     LLrec *map;
 281:lp_solve_5.5/bfp/bfp_LUSOL/lp_LUSOL.c **** 
 282:lp_solve_5.5/bfp/bfp_LUSOL/lp_LUSOL.c ****     /* Reset the factorization engine */
 283:lp_solve_5.5/bfp/bfp_LUSOL/lp_LUSOL.c ****     i = bfp_LUSOLidentity(lp, rownum);
 4431               		.loc 3 283 0
 4432 18c4 2989      		ldd r18,Y+17
 4433 18c6 3A89      		ldd r19,Y+18
 4434 18c8 8D85      		ldd r24,Y+13
 4435 18ca 9E85      		ldd r25,Y+14
 4436 18cc B901      		movw r22,r18
 4437 18ce 0E94 0000 		call bfp_LUSOLidentity
 4438 18d2 9A83      		std Y+2,r25
 4439 18d4 8983      		std Y+1,r24
 284:lp_solve_5.5/bfp/bfp_LUSOL/lp_LUSOL.c **** 
 285:lp_solve_5.5/bfp/bfp_LUSOL/lp_LUSOL.c ****     /* Build map of available columns */
 286:lp_solve_5.5/bfp/bfp_LUSOL/lp_LUSOL.c ****     nz = createLink(lp->rows, &map, NULL);
 4440               		.loc 3 286 0
 4441 18d6 8D85      		ldd r24,Y+13
 4442 18d8 9E85      		ldd r25,Y+14
 4443 18da 8651      		subi r24,22
 4444 18dc 9E4F      		sbci r25,-2
 4445 18de FC01      		movw r30,r24
 4446 18e0 8081      		ld r24,Z
 4447 18e2 9181      		ldd r25,Z+1
 4448 18e4 9E01      		movw r18,r28
 4449 18e6 255F      		subi r18,-11
 4450 18e8 3F4F      		sbci r19,-1
 4451 18ea 40E0      		ldi r20,0
 4452 18ec 50E0      		ldi r21,0
 4453 18ee B901      		movw r22,r18
 4454 18f0 0E94 0000 		call createLink
 4455 18f4 9A87      		std Y+10,r25
 4456 18f6 8987      		std Y+9,r24
 287:lp_solve_5.5/bfp/bfp_LUSOL/lp_LUSOL.c ****     for(i = 1; i <= lp->rows; i++) {
 4457               		.loc 3 287 0
 4458 18f8 81E0      		ldi r24,lo8(1)
 4459 18fa 90E0      		ldi r25,0
 4460 18fc 9A83      		std Y+2,r25
 4461 18fe 8983      		std Y+1,r24
 4462 1900 00C0      		rjmp .L144
 4463               	.L146:
 288:lp_solve_5.5/bfp/bfp_LUSOL/lp_LUSOL.c ****       if(lp->var_basic[i] <= lp->rows)
 4464               		.loc 3 288 0
 4465 1902 8D85      		ldd r24,Y+13
 4466 1904 9E85      		ldd r25,Y+14
 4467 1906 8453      		subi r24,52
 4468 1908 9D4F      		sbci r25,-3
 4469 190a DC01      		movw r26,r24
 4470 190c 2D91      		ld r18,X+
 4471 190e 3C91      		ld r19,X
 4472 1910 8981      		ldd r24,Y+1
 4473 1912 9A81      		ldd r25,Y+2
 4474 1914 880F      		lsl r24
 4475 1916 991F      		rol r25
 4476 1918 820F      		add r24,r18
 4477 191a 931F      		adc r25,r19
 4478 191c FC01      		movw r30,r24
 4479 191e 2081      		ld r18,Z
 4480 1920 3181      		ldd r19,Z+1
 4481 1922 8D85      		ldd r24,Y+13
 4482 1924 9E85      		ldd r25,Y+14
 4483 1926 8651      		subi r24,22
 4484 1928 9E4F      		sbci r25,-2
 4485 192a DC01      		movw r26,r24
 4486 192c 8D91      		ld r24,X+
 4487 192e 9C91      		ld r25,X
 4488 1930 8217      		cp r24,r18
 4489 1932 9307      		cpc r25,r19
 4490 1934 04F0      		brlt .L145
 289:lp_solve_5.5/bfp/bfp_LUSOL/lp_LUSOL.c ****         removeLink(map, i);
 4491               		.loc 3 289 0
 4492 1936 8B85      		ldd r24,Y+11
 4493 1938 9C85      		ldd r25,Y+12
 4494 193a 2981      		ldd r18,Y+1
 4495 193c 3A81      		ldd r19,Y+2
 4496 193e B901      		movw r22,r18
 4497 1940 0E94 0000 		call removeLink
 4498               	.L145:
 287:lp_solve_5.5/bfp/bfp_LUSOL/lp_LUSOL.c ****     for(i = 1; i <= lp->rows; i++) {
 4499               		.loc 3 287 0 discriminator 2
 4500 1944 8981      		ldd r24,Y+1
 4501 1946 9A81      		ldd r25,Y+2
 4502 1948 0196      		adiw r24,1
 4503 194a 9A83      		std Y+2,r25
 4504 194c 8983      		std Y+1,r24
 4505               	.L144:
 287:lp_solve_5.5/bfp/bfp_LUSOL/lp_LUSOL.c ****     for(i = 1; i <= lp->rows; i++) {
 4506               		.loc 3 287 0 is_stmt 0 discriminator 1
 4507 194e 8D85      		ldd r24,Y+13
 4508 1950 9E85      		ldd r25,Y+14
 4509 1952 8651      		subi r24,22
 4510 1954 9E4F      		sbci r25,-2
 4511 1956 FC01      		movw r30,r24
 4512 1958 2081      		ld r18,Z
 4513 195a 3181      		ldd r19,Z+1
 4514 195c 8981      		ldd r24,Y+1
 4515 195e 9A81      		ldd r25,Y+2
 4516 1960 2817      		cp r18,r24
 4517 1962 3907      		cpc r19,r25
 4518 1964 04F4      		brge .L146
 290:lp_solve_5.5/bfp/bfp_LUSOL/lp_LUSOL.c ****     }
 291:lp_solve_5.5/bfp/bfp_LUSOL/lp_LUSOL.c **** 
 292:lp_solve_5.5/bfp/bfp_LUSOL/lp_LUSOL.c ****     /* Rebuild the basis, column by column, while skipping slack columns */
 293:lp_solve_5.5/bfp/bfp_LUSOL/lp_LUSOL.c ****     j = firstActiveLink(map);
 4519               		.loc 3 293 0 is_stmt 1
 4520 1966 8B85      		ldd r24,Y+11
 4521 1968 9C85      		ldd r25,Y+12
 4522 196a 0E94 0000 		call firstActiveLink
 4523 196e 9C83      		std Y+4,r25
 4524 1970 8B83      		std Y+3,r24
 294:lp_solve_5.5/bfp/bfp_LUSOL/lp_LUSOL.c ****     for(i = 1; i <= lp->rows; i++) {
 4525               		.loc 3 294 0
 4526 1972 81E0      		ldi r24,lo8(1)
 4527 1974 90E0      		ldi r25,0
 4528 1976 9A83      		std Y+2,r25
 4529 1978 8983      		std Y+1,r24
 4530 197a 00C0      		rjmp .L147
 4531               	.L152:
 295:lp_solve_5.5/bfp/bfp_LUSOL/lp_LUSOL.c ****       if(lp->var_basic[i] <= lp->rows)
 4532               		.loc 3 295 0
 4533 197c 8D85      		ldd r24,Y+13
 4534 197e 9E85      		ldd r25,Y+14
 4535 1980 8453      		subi r24,52
 4536 1982 9D4F      		sbci r25,-3
 4537 1984 DC01      		movw r26,r24
 4538 1986 2D91      		ld r18,X+
 4539 1988 3C91      		ld r19,X
 4540 198a 8981      		ldd r24,Y+1
 4541 198c 9A81      		ldd r25,Y+2
 4542 198e 880F      		lsl r24
 4543 1990 991F      		rol r25
 4544 1992 820F      		add r24,r18
 4545 1994 931F      		adc r25,r19
 4546 1996 FC01      		movw r30,r24
 4547 1998 2081      		ld r18,Z
 4548 199a 3181      		ldd r19,Z+1
 4549 199c 8D85      		ldd r24,Y+13
 4550 199e 9E85      		ldd r25,Y+14
 4551 19a0 8651      		subi r24,22
 4552 19a2 9E4F      		sbci r25,-2
 4553 19a4 DC01      		movw r26,r24
 4554 19a6 8D91      		ld r24,X+
 4555 19a8 9C91      		ld r25,X
 4556 19aa 8217      		cp r24,r18
 4557 19ac 9307      		cpc r25,r19
 4558 19ae 04F0      		brlt .+2
 4559 19b0 00C0      		rjmp .L154
 296:lp_solve_5.5/bfp/bfp_LUSOL/lp_LUSOL.c ****         continue;
 297:lp_solve_5.5/bfp/bfp_LUSOL/lp_LUSOL.c ****       nz = bfp_LUSOLsetcolumn(lp, j+deltarows, lp->var_basic[i]);
 4560               		.loc 3 297 0
 4561 19b2 8D85      		ldd r24,Y+13
 4562 19b4 9E85      		ldd r25,Y+14
 4563 19b6 8453      		subi r24,52
 4564 19b8 9D4F      		sbci r25,-3
 4565 19ba FC01      		movw r30,r24
 4566 19bc 2081      		ld r18,Z
 4567 19be 3181      		ldd r19,Z+1
 4568 19c0 8981      		ldd r24,Y+1
 4569 19c2 9A81      		ldd r25,Y+2
 4570 19c4 880F      		lsl r24
 4571 19c6 991F      		rol r25
 4572 19c8 820F      		add r24,r18
 4573 19ca 931F      		adc r25,r19
 4574 19cc DC01      		movw r26,r24
 4575 19ce 4D91      		ld r20,X+
 4576 19d0 5C91      		ld r21,X
 4577 19d2 2B81      		ldd r18,Y+3
 4578 19d4 3C81      		ldd r19,Y+4
 4579 19d6 8D81      		ldd r24,Y+5
 4580 19d8 9E81      		ldd r25,Y+6
 4581 19da 280F      		add r18,r24
 4582 19dc 391F      		adc r19,r25
 4583 19de 8D85      		ldd r24,Y+13
 4584 19e0 9E85      		ldd r25,Y+14
 4585 19e2 B901      		movw r22,r18
 4586 19e4 0E94 0000 		call bfp_LUSOLsetcolumn
 4587 19e8 9A87      		std Y+10,r25
 4588 19ea 8987      		std Y+9,r24
 298:lp_solve_5.5/bfp/bfp_LUSOL/lp_LUSOL.c ****       if(nz == LUSOL_INFORM_LUSUCCESS)
 4589               		.loc 3 298 0
 4590 19ec 8985      		ldd r24,Y+9
 4591 19ee 9A85      		ldd r25,Y+10
 4592 19f0 892B      		or r24,r25
 4593 19f2 01F4      		brne .L150
 299:lp_solve_5.5/bfp/bfp_LUSOL/lp_LUSOL.c ****         lp->invB->user_colcount++;
 4594               		.loc 3 299 0
 4595 19f4 8D85      		ldd r24,Y+13
 4596 19f6 9E85      		ldd r25,Y+14
 4597 19f8 8854      		subi r24,72
 4598 19fa 9D4F      		sbci r25,-3
 4599 19fc FC01      		movw r30,r24
 4600 19fe 8081      		ld r24,Z
 4601 1a00 9181      		ldd r25,Z+1
 4602 1a02 DC01      		movw r26,r24
 4603 1a04 1696      		adiw r26,6
 4604 1a06 2D91      		ld r18,X+
 4605 1a08 3C91      		ld r19,X
 4606 1a0a 1797      		sbiw r26,6+1
 4607 1a0c 2F5F      		subi r18,-1
 4608 1a0e 3F4F      		sbci r19,-1
 4609 1a10 FC01      		movw r30,r24
 4610 1a12 3783      		std Z+7,r19
 4611 1a14 2683      		std Z+6,r18
 4612 1a16 00C0      		rjmp .L151
 4613               	.L150:
 300:lp_solve_5.5/bfp/bfp_LUSOL/lp_LUSOL.c ****       else {
 301:lp_solve_5.5/bfp/bfp_LUSOL/lp_LUSOL.c ****         nz = bfp_LUSOLsetcolumn(lp, j+deltarows, i);
 4614               		.loc 3 301 0
 4615 1a18 2B81      		ldd r18,Y+3
 4616 1a1a 3C81      		ldd r19,Y+4
 4617 1a1c 8D81      		ldd r24,Y+5
 4618 1a1e 9E81      		ldd r25,Y+6
 4619 1a20 280F      		add r18,r24
 4620 1a22 391F      		adc r19,r25
 4621 1a24 4981      		ldd r20,Y+1
 4622 1a26 5A81      		ldd r21,Y+2
 4623 1a28 8D85      		ldd r24,Y+13
 4624 1a2a 9E85      		ldd r25,Y+14
 4625 1a2c B901      		movw r22,r18
 4626 1a2e 0E94 0000 		call bfp_LUSOLsetcolumn
 4627 1a32 9A87      		std Y+10,r25
 4628 1a34 8987      		std Y+9,r24
 302:lp_solve_5.5/bfp/bfp_LUSOL/lp_LUSOL.c ****         lp->set_basisvar(lp, i, i);
 4629               		.loc 3 302 0
 4630 1a36 8D85      		ldd r24,Y+13
 4631 1a38 9E85      		ldd r25,Y+14
 4632 1a3a 8C5C      		subi r24,-52
 4633 1a3c 9E4F      		sbci r25,-2
 4634 1a3e DC01      		movw r26,r24
 4635 1a40 2D91      		ld r18,X+
 4636 1a42 3C91      		ld r19,X
 4637 1a44 4981      		ldd r20,Y+1
 4638 1a46 5A81      		ldd r21,Y+2
 4639 1a48 6981      		ldd r22,Y+1
 4640 1a4a 7A81      		ldd r23,Y+2
 4641 1a4c 8D85      		ldd r24,Y+13
 4642 1a4e 9E85      		ldd r25,Y+14
 4643 1a50 F901      		movw r30,r18
 4644 1a52 0995      		icall
 4645               	.L151:
 303:lp_solve_5.5/bfp/bfp_LUSOL/lp_LUSOL.c ****       }
 304:lp_solve_5.5/bfp/bfp_LUSOL/lp_LUSOL.c ****       j = nextActiveLink(map, j);
 4646               		.loc 3 304 0
 4647 1a54 8B85      		ldd r24,Y+11
 4648 1a56 9C85      		ldd r25,Y+12
 4649 1a58 2B81      		ldd r18,Y+3
 4650 1a5a 3C81      		ldd r19,Y+4
 4651 1a5c B901      		movw r22,r18
 4652 1a5e 0E94 0000 		call nextActiveLink
 4653 1a62 9C83      		std Y+4,r25
 4654 1a64 8B83      		std Y+3,r24
 4655 1a66 00C0      		rjmp .L149
 4656               	.L154:
 296:lp_solve_5.5/bfp/bfp_LUSOL/lp_LUSOL.c ****       nz = bfp_LUSOLsetcolumn(lp, j+deltarows, lp->var_basic[i]);
 4657               		.loc 3 296 0
 4658 1a68 0000      		nop
 4659               	.L149:
 294:lp_solve_5.5/bfp/bfp_LUSOL/lp_LUSOL.c ****       if(lp->var_basic[i] <= lp->rows)
 4660               		.loc 3 294 0 discriminator 2
 4661 1a6a 8981      		ldd r24,Y+1
 4662 1a6c 9A81      		ldd r25,Y+2
 4663 1a6e 0196      		adiw r24,1
 4664 1a70 9A83      		std Y+2,r25
 4665 1a72 8983      		std Y+1,r24
 4666               	.L147:
 294:lp_solve_5.5/bfp/bfp_LUSOL/lp_LUSOL.c ****       if(lp->var_basic[i] <= lp->rows)
 4667               		.loc 3 294 0 is_stmt 0 discriminator 1
 4668 1a74 8D85      		ldd r24,Y+13
 4669 1a76 9E85      		ldd r25,Y+14
 4670 1a78 8651      		subi r24,22
 4671 1a7a 9E4F      		sbci r25,-2
 4672 1a7c DC01      		movw r26,r24
 4673 1a7e 2D91      		ld r18,X+
 4674 1a80 3C91      		ld r19,X
 4675 1a82 8981      		ldd r24,Y+1
 4676 1a84 9A81      		ldd r25,Y+2
 4677 1a86 2817      		cp r18,r24
 4678 1a88 3907      		cpc r19,r25
 4679 1a8a 04F0      		brlt .+2
 4680 1a8c 00C0      		rjmp .L152
 305:lp_solve_5.5/bfp/bfp_LUSOL/lp_LUSOL.c ****     }
 306:lp_solve_5.5/bfp/bfp_LUSOL/lp_LUSOL.c **** 
 307:lp_solve_5.5/bfp/bfp_LUSOL/lp_LUSOL.c ****     /* Sort the basis list */
 308:lp_solve_5.5/bfp/bfp_LUSOL/lp_LUSOL.c ****     MEMCOPY(rownum, lp->var_basic, lp->rows+1);
 4681               		.loc 3 308 0 is_stmt 1
 4682 1a8e 8D85      		ldd r24,Y+13
 4683 1a90 9E85      		ldd r25,Y+14
 4684 1a92 8651      		subi r24,22
 4685 1a94 9E4F      		sbci r25,-2
 4686 1a96 FC01      		movw r30,r24
 4687 1a98 8081      		ld r24,Z
 4688 1a9a 9181      		ldd r25,Z+1
 4689 1a9c 0196      		adiw r24,1
 4690 1a9e AC01      		movw r20,r24
 4691 1aa0 440F      		lsl r20
 4692 1aa2 551F      		rol r21
 4693 1aa4 8D85      		ldd r24,Y+13
 4694 1aa6 9E85      		ldd r25,Y+14
 4695 1aa8 8453      		subi r24,52
 4696 1aaa 9D4F      		sbci r25,-3
 4697 1aac DC01      		movw r26,r24
 4698 1aae 2D91      		ld r18,X+
 4699 1ab0 3C91      		ld r19,X
 4700 1ab2 8989      		ldd r24,Y+17
 4701 1ab4 9A89      		ldd r25,Y+18
 4702 1ab6 B901      		movw r22,r18
 4703 1ab8 0E94 0000 		call memcpy
 309:lp_solve_5.5/bfp/bfp_LUSOL/lp_LUSOL.c ****     sortByINT(lp->var_basic, rownum, lp->rows, 1, TRUE);
 4704               		.loc 3 309 0
 4705 1abc 8D85      		ldd r24,Y+13
 4706 1abe 9E85      		ldd r25,Y+14
 4707 1ac0 8651      		subi r24,22
 4708 1ac2 9E4F      		sbci r25,-2
 4709 1ac4 FC01      		movw r30,r24
 4710 1ac6 4081      		ld r20,Z
 4711 1ac8 5181      		ldd r21,Z+1
 4712 1aca 8D85      		ldd r24,Y+13
 4713 1acc 9E85      		ldd r25,Y+14
 4714 1ace 8453      		subi r24,52
 4715 1ad0 9D4F      		sbci r25,-3
 4716 1ad2 DC01      		movw r26,r24
 4717 1ad4 8D91      		ld r24,X+
 4718 1ad6 9C91      		ld r25,X
 4719 1ad8 6989      		ldd r22,Y+17
 4720 1ada 7A89      		ldd r23,Y+18
 4721 1adc 01E0      		ldi r16,lo8(1)
 4722 1ade 21E0      		ldi r18,lo8(1)
 4723 1ae0 30E0      		ldi r19,0
 4724 1ae2 0E94 0000 		call sortByINT
 4725               	.L143:
 4726               	.LBE6:
 310:lp_solve_5.5/bfp/bfp_LUSOL/lp_LUSOL.c **** 
 311:lp_solve_5.5/bfp/bfp_LUSOL/lp_LUSOL.c ****   }
 312:lp_solve_5.5/bfp/bfp_LUSOL/lp_LUSOL.c **** 
 313:lp_solve_5.5/bfp/bfp_LUSOL/lp_LUSOL.c ****   return( i );
 4727               		.loc 3 313 0
 4728 1ae6 8981      		ldd r24,Y+1
 4729 1ae8 9A81      		ldd r25,Y+2
 4730               	/* epilogue start */
 314:lp_solve_5.5/bfp/bfp_LUSOL/lp_LUSOL.c **** }
 4731               		.loc 3 314 0
 4732 1aea 6496      		adiw r28,20
 4733 1aec 0FB6      		in __tmp_reg__,__SREG__
 4734 1aee F894      		cli
 4735 1af0 DEBF      		out __SP_H__,r29
 4736 1af2 0FBE      		out __SREG__,__tmp_reg__
 4737 1af4 CDBF      		out __SP_L__,r28
 4738 1af6 DF91      		pop r29
 4739 1af8 CF91      		pop r28
 4740 1afa 1F91      		pop r17
 4741 1afc 0F91      		pop r16
 4742 1afe FF90      		pop r15
 4743 1b00 EF90      		pop r14
 4744 1b02 0895      		ret
 4745               		.cfi_endproc
 4746               	.LFE39:
 4748               		.section	.rodata
 4749               	.LC2:
 4750 0053 6266 705F 		.string	"bfp_factorize: Very hard numerics, but cannot tighten LUSOL thresholds further.\n"
 4750      6661 6374 
 4750      6F72 697A 
 4750      653A 2056 
 4750      6572 7920 
 4751               	.global	__floatdisf
 4752               	.LC3:
 4753 00a4 6266 705F 		.string	"bfp_factorize: Frequent refact pivot count %d at iter %.0f; tightened thresholds.\n"
 4753      6661 6374 
 4753      6F72 697A 
 4753      653A 2046 
 4753      7265 7175 
 4754               	.LC4:
 4755 00f7 6266 705F 		.string	"bfp_factorize: LUSOL switched to %s pivoting model to enhance stability.\n"
 4755      6661 6374 
 4755      6F72 697A 
 4755      653A 204C 
 4755      5553 4F4C 
 4756               		.text
 4757               	.global	bfp_LUSOLtighten
 4759               	bfp_LUSOLtighten:
 4760               	.LFB40:
 315:lp_solve_5.5/bfp/bfp_LUSOL/lp_LUSOL.c **** /* LOCAL HELPER ROUTINE */
 316:lp_solve_5.5/bfp/bfp_LUSOL/lp_LUSOL.c **** void bfp_LUSOLtighten(lprec *lp)
 317:lp_solve_5.5/bfp/bfp_LUSOL/lp_LUSOL.c **** {
 4761               		.loc 3 317 0
 4762               		.cfi_startproc
 4763 1b04 8F92      		push r8
 4764               	.LCFI178:
 4765               		.cfi_def_cfa_offset 3
 4766               		.cfi_offset 8, -2
 4767 1b06 9F92      		push r9
 4768               	.LCFI179:
 4769               		.cfi_def_cfa_offset 4
 4770               		.cfi_offset 9, -3
 4771 1b08 AF92      		push r10
 4772               	.LCFI180:
 4773               		.cfi_def_cfa_offset 5
 4774               		.cfi_offset 10, -4
 4775 1b0a BF92      		push r11
 4776               	.LCFI181:
 4777               		.cfi_def_cfa_offset 6
 4778               		.cfi_offset 11, -5
 4779 1b0c CF92      		push r12
 4780               	.LCFI182:
 4781               		.cfi_def_cfa_offset 7
 4782               		.cfi_offset 12, -6
 4783 1b0e DF92      		push r13
 4784               	.LCFI183:
 4785               		.cfi_def_cfa_offset 8
 4786               		.cfi_offset 13, -7
 4787 1b10 EF92      		push r14
 4788               	.LCFI184:
 4789               		.cfi_def_cfa_offset 9
 4790               		.cfi_offset 14, -8
 4791 1b12 FF92      		push r15
 4792               	.LCFI185:
 4793               		.cfi_def_cfa_offset 10
 4794               		.cfi_offset 15, -9
 4795 1b14 0F93      		push r16
 4796               	.LCFI186:
 4797               		.cfi_def_cfa_offset 11
 4798               		.cfi_offset 16, -10
 4799 1b16 1F93      		push r17
 4800               	.LCFI187:
 4801               		.cfi_def_cfa_offset 12
 4802               		.cfi_offset 17, -11
 4803 1b18 CF93      		push r28
 4804               	.LCFI188:
 4805               		.cfi_def_cfa_offset 13
 4806               		.cfi_offset 28, -12
 4807 1b1a DF93      		push r29
 4808               	.LCFI189:
 4809               		.cfi_def_cfa_offset 14
 4810               		.cfi_offset 29, -13
 4811 1b1c 00D0      		rcall .
 4812 1b1e 00D0      		rcall .
 4813               	.LCFI190:
 4814               		.cfi_def_cfa_offset 18
 4815 1b20 CDB7      		in r28,__SP_L__
 4816 1b22 DEB7      		in r29,__SP_H__
 4817               	.LCFI191:
 4818               		.cfi_def_cfa_register 28
 4819               	/* prologue: function */
 4820               	/* frame size = 4 */
 4821               	/* stack size = 16 */
 4822               	.L__stack_usage = 16
 4823 1b24 9C83      		std Y+4,r25
 4824 1b26 8B83      		std Y+3,r24
 318:lp_solve_5.5/bfp/bfp_LUSOL/lp_LUSOL.c ****   int infolevel = DETAILED;
 4825               		.loc 3 318 0
 4826 1b28 85E0      		ldi r24,lo8(5)
 4827 1b2a 90E0      		ldi r25,0
 4828 1b2c 9A83      		std Y+2,r25
 4829 1b2e 8983      		std Y+1,r24
 319:lp_solve_5.5/bfp/bfp_LUSOL/lp_LUSOL.c **** 
 320:lp_solve_5.5/bfp/bfp_LUSOL/lp_LUSOL.c ****   switch(LUSOL_tightenpivot(lp->invB->LUSOL)) {
 4830               		.loc 3 320 0
 4831 1b30 8B81      		ldd r24,Y+3
 4832 1b32 9C81      		ldd r25,Y+4
 4833 1b34 8854      		subi r24,72
 4834 1b36 9D4F      		sbci r25,-3
 4835 1b38 FC01      		movw r30,r24
 4836 1b3a 8081      		ld r24,Z
 4837 1b3c 9181      		ldd r25,Z+1
 4838 1b3e FC01      		movw r30,r24
 4839 1b40 8085      		ldd r24,Z+8
 4840 1b42 9185      		ldd r25,Z+9
 4841 1b44 0E94 0000 		call LUSOL_tightenpivot
 4842 1b48 882F      		mov r24,r24
 4843 1b4a 90E0      		ldi r25,0
 4844 1b4c 0097      		sbiw r24,0
 4845 1b4e 01F0      		breq .L157
 4846 1b50 0197      		sbiw r24,1
 4847 1b52 01F0      		breq .L158
 4848 1b54 00C0      		rjmp .L160
 4849               	.L157:
 321:lp_solve_5.5/bfp/bfp_LUSOL/lp_LUSOL.c ****     case FALSE: lp->report(lp, infolevel, "bfp_factorize: Very hard numerics, but cannot tighten LU
 4850               		.loc 3 321 0
 4851 1b56 8B81      		ldd r24,Y+3
 4852 1b58 9C81      		ldd r25,Y+4
 4853 1b5a 8E51      		subi r24,30
 4854 1b5c 9C4F      		sbci r25,-4
 4855 1b5e FC01      		movw r30,r24
 4856 1b60 8081      		ld r24,Z
 4857 1b62 9181      		ldd r25,Z+1
 4858 1b64 20E0      		ldi r18,lo8(.LC2)
 4859 1b66 30E0      		ldi r19,hi8(.LC2)
 4860 1b68 232F      		mov r18,r19
 4861 1b6a 2F93      		push r18
 4862 1b6c 20E0      		ldi r18,lo8(.LC2)
 4863 1b6e 30E0      		ldi r19,hi8(.LC2)
 4864 1b70 2F93      		push r18
 4865 1b72 2A81      		ldd r18,Y+2
 4866 1b74 2F93      		push r18
 4867 1b76 2981      		ldd r18,Y+1
 4868 1b78 2F93      		push r18
 4869 1b7a 2C81      		ldd r18,Y+4
 4870 1b7c 2F93      		push r18
 4871 1b7e 2B81      		ldd r18,Y+3
 4872 1b80 2F93      		push r18
 4873 1b82 FC01      		movw r30,r24
 4874 1b84 0995      		icall
 4875 1b86 0F90      		pop __tmp_reg__
 4876 1b88 0F90      		pop __tmp_reg__
 4877 1b8a 0F90      		pop __tmp_reg__
 4878 1b8c 0F90      		pop __tmp_reg__
 4879 1b8e 0F90      		pop __tmp_reg__
 4880 1b90 0F90      		pop __tmp_reg__
 322:lp_solve_5.5/bfp/bfp_LUSOL/lp_LUSOL.c ****                  break;
 4881               		.loc 3 322 0
 4882 1b92 00C0      		rjmp .L159
 4883               	.L158:
 323:lp_solve_5.5/bfp/bfp_LUSOL/lp_LUSOL.c ****     case TRUE:  lp->report(lp, infolevel, "bfp_factorize: Frequent refact pivot count %d at iter %.
 4884               		.loc 3 323 0
 4885 1b94 8B81      		ldd r24,Y+3
 4886 1b96 9C81      		ldd r25,Y+4
 4887 1b98 8E51      		subi r24,30
 4888 1b9a 9C4F      		sbci r25,-4
 4889 1b9c FC01      		movw r30,r24
 4890 1b9e 8080      		ld r8,Z
 4891 1ba0 9180      		ldd r9,Z+1
 324:lp_solve_5.5/bfp/bfp_LUSOL/lp_LUSOL.c ****                                            lp->invB->num_pivots, (REAL) lp->get_total_iter(lp));
 4892               		.loc 3 324 0
 4893 1ba2 8B81      		ldd r24,Y+3
 4894 1ba4 9C81      		ldd r25,Y+4
 4895 1ba6 8C54      		subi r24,76
 4896 1ba8 9F4F      		sbci r25,-1
 4897 1baa FC01      		movw r30,r24
 4898 1bac 2081      		ld r18,Z
 4899 1bae 3181      		ldd r19,Z+1
 4900 1bb0 8B81      		ldd r24,Y+3
 4901 1bb2 9C81      		ldd r25,Y+4
 4902 1bb4 F901      		movw r30,r18
 4903 1bb6 0995      		icall
 4904 1bb8 A22E      		mov r10,r18
 4905 1bba B32E      		mov r11,r19
 4906 1bbc C42E      		mov r12,r20
 4907 1bbe D52E      		mov r13,r21
 4908 1bc0 E62E      		mov r14,r22
 4909 1bc2 F72E      		mov r15,r23
 4910 1bc4 082F      		mov r16,r24
 4911 1bc6 192F      		mov r17,r25
 323:lp_solve_5.5/bfp/bfp_LUSOL/lp_LUSOL.c ****     case TRUE:  lp->report(lp, infolevel, "bfp_factorize: Frequent refact pivot count %d at iter %.
 4912               		.loc 3 323 0
 4913 1bc8 2A2D      		mov r18,r10
 4914 1bca 3B2D      		mov r19,r11
 4915 1bcc 4C2D      		mov r20,r12
 4916 1bce 5D2D      		mov r21,r13
 4917 1bd0 6E2D      		mov r22,r14
 4918 1bd2 7F2D      		mov r23,r15
 4919 1bd4 802F      		mov r24,r16
 4920 1bd6 912F      		mov r25,r17
 4921 1bd8 0E94 0000 		call __floatdisf
 4922 1bdc DC01      		movw r26,r24
 4923 1bde CB01      		movw r24,r22
 4924               		.loc 3 324 0
 4925 1be0 2B81      		ldd r18,Y+3
 4926 1be2 3C81      		ldd r19,Y+4
 4927 1be4 2854      		subi r18,72
 4928 1be6 3D4F      		sbci r19,-3
 4929 1be8 F901      		movw r30,r18
 4930 1bea 2081      		ld r18,Z
 4931 1bec 3181      		ldd r19,Z+1
 323:lp_solve_5.5/bfp/bfp_LUSOL/lp_LUSOL.c ****     case TRUE:  lp->report(lp, infolevel, "bfp_factorize: Frequent refact pivot count %d at iter %.
 4932               		.loc 3 323 0
 4933 1bee F901      		movw r30,r18
 4934 1bf0 24A5      		ldd r18,Z+44
 4935 1bf2 35A5      		ldd r19,Z+45
 4936 1bf4 4B2F      		mov r20,r27
 4937 1bf6 4F93      		push r20
 4938 1bf8 4A2F      		mov r20,r26
 4939 1bfa 4F93      		push r20
 4940 1bfc 492F      		mov r20,r25
 4941 1bfe 4F93      		push r20
 4942 1c00 8F93      		push r24
 4943 1c02 832F      		mov r24,r19
 4944 1c04 8F93      		push r24
 4945 1c06 822F      		mov r24,r18
 4946 1c08 8F93      		push r24
 4947 1c0a 80E0      		ldi r24,lo8(.LC3)
 4948 1c0c 90E0      		ldi r25,hi8(.LC3)
 4949 1c0e 892F      		mov r24,r25
 4950 1c10 8F93      		push r24
 4951 1c12 80E0      		ldi r24,lo8(.LC3)
 4952 1c14 90E0      		ldi r25,hi8(.LC3)
 4953 1c16 8F93      		push r24
 4954 1c18 8A81      		ldd r24,Y+2
 4955 1c1a 8F93      		push r24
 4956 1c1c 8981      		ldd r24,Y+1
 4957 1c1e 8F93      		push r24
 4958 1c20 8C81      		ldd r24,Y+4
 4959 1c22 8F93      		push r24
 4960 1c24 8B81      		ldd r24,Y+3
 4961 1c26 8F93      		push r24
 4962 1c28 F401      		movw r30,r8
 4963 1c2a 0995      		icall
 4964 1c2c 8DB7      		in r24,__SP_L__
 4965 1c2e 9EB7      		in r25,__SP_H__
 4966 1c30 0C96      		adiw r24,12
 4967 1c32 0FB6      		in __tmp_reg__,__SREG__
 4968 1c34 F894      		cli
 4969 1c36 DEBF      		out __SP_H__,r29
 4970 1c38 0FBE      		out __SREG__,__tmp_reg__
 4971 1c3a CDBF      		out __SP_L__,r28
 325:lp_solve_5.5/bfp/bfp_LUSOL/lp_LUSOL.c ****                  break;
 4972               		.loc 3 325 0
 4973 1c3c 00C0      		rjmp .L159
 4974               	.L160:
 326:lp_solve_5.5/bfp/bfp_LUSOL/lp_LUSOL.c ****     default:    lp->report(lp, infolevel, "bfp_factorize: LUSOL switched to %s pivoting model to en
 4975               		.loc 3 326 0
 4976 1c3e 8B81      		ldd r24,Y+3
 4977 1c40 9C81      		ldd r25,Y+4
 4978 1c42 8E51      		subi r24,30
 4979 1c44 9C4F      		sbci r25,-4
 4980 1c46 FC01      		movw r30,r24
 4981 1c48 0081      		ld r16,Z
 4982 1c4a 1181      		ldd r17,Z+1
 327:lp_solve_5.5/bfp/bfp_LUSOL/lp_LUSOL.c ****                                            LUSOL_pivotLabel(lp->invB->LUSOL));
 4983               		.loc 3 327 0
 4984 1c4c 8B81      		ldd r24,Y+3
 4985 1c4e 9C81      		ldd r25,Y+4
 4986 1c50 8854      		subi r24,72
 4987 1c52 9D4F      		sbci r25,-3
 4988 1c54 FC01      		movw r30,r24
 4989 1c56 8081      		ld r24,Z
 4990 1c58 9181      		ldd r25,Z+1
 326:lp_solve_5.5/bfp/bfp_LUSOL/lp_LUSOL.c ****     default:    lp->report(lp, infolevel, "bfp_factorize: LUSOL switched to %s pivoting model to en
 4991               		.loc 3 326 0
 4992 1c5a FC01      		movw r30,r24
 4993 1c5c 8085      		ldd r24,Z+8
 4994 1c5e 9185      		ldd r25,Z+9
 4995 1c60 0E94 0000 		call LUSOL_pivotLabel
 4996 1c64 292F      		mov r18,r25
 4997 1c66 2F93      		push r18
 4998 1c68 8F93      		push r24
 4999 1c6a 80E0      		ldi r24,lo8(.LC4)
 5000 1c6c 90E0      		ldi r25,hi8(.LC4)
 5001 1c6e 892F      		mov r24,r25
 5002 1c70 8F93      		push r24
 5003 1c72 80E0      		ldi r24,lo8(.LC4)
 5004 1c74 90E0      		ldi r25,hi8(.LC4)
 5005 1c76 8F93      		push r24
 5006 1c78 8A81      		ldd r24,Y+2
 5007 1c7a 8F93      		push r24
 5008 1c7c 8981      		ldd r24,Y+1
 5009 1c7e 8F93      		push r24
 5010 1c80 8C81      		ldd r24,Y+4
 5011 1c82 8F93      		push r24
 5012 1c84 8B81      		ldd r24,Y+3
 5013 1c86 8F93      		push r24
 5014 1c88 F801      		movw r30,r16
 5015 1c8a 0995      		icall
 5016 1c8c 8DB7      		in r24,__SP_L__
 5017 1c8e 9EB7      		in r25,__SP_H__
 5018 1c90 0896      		adiw r24,8
 5019 1c92 0FB6      		in __tmp_reg__,__SREG__
 5020 1c94 F894      		cli
 5021 1c96 DEBF      		out __SP_H__,r29
 5022 1c98 0FBE      		out __SREG__,__tmp_reg__
 5023 1c9a CDBF      		out __SP_L__,r28
 5024               	.L159:
 328:lp_solve_5.5/bfp/bfp_LUSOL/lp_LUSOL.c ****   }
 329:lp_solve_5.5/bfp/bfp_LUSOL/lp_LUSOL.c **** }
 5025               		.loc 3 329 0
 5026 1c9c 0000      		nop
 5027               	/* epilogue start */
 5028 1c9e 0F90      		pop __tmp_reg__
 5029 1ca0 0F90      		pop __tmp_reg__
 5030 1ca2 0F90      		pop __tmp_reg__
 5031 1ca4 0F90      		pop __tmp_reg__
 5032 1ca6 DF91      		pop r29
 5033 1ca8 CF91      		pop r28
 5034 1caa 1F91      		pop r17
 5035 1cac 0F91      		pop r16
 5036 1cae FF90      		pop r15
 5037 1cb0 EF90      		pop r14
 5038 1cb2 DF90      		pop r13
 5039 1cb4 CF90      		pop r12
 5040 1cb6 BF90      		pop r11
 5041 1cb8 AF90      		pop r10
 5042 1cba 9F90      		pop r9
 5043 1cbc 8F90      		pop r8
 5044 1cbe 0895      		ret
 5045               		.cfi_endproc
 5046               	.LFE40:
 5049               	is_fixedvar_:
 5050               	.LFB41:
 330:lp_solve_5.5/bfp/bfp_LUSOL/lp_LUSOL.c **** 
 331:lp_solve_5.5/bfp/bfp_LUSOL/lp_LUSOL.c **** #define is_fixedvar is_fixedvar_ /* resolves a compiler warning/error conflict with lp_lib.h */
 332:lp_solve_5.5/bfp/bfp_LUSOL/lp_LUSOL.c **** 
 333:lp_solve_5.5/bfp/bfp_LUSOL/lp_LUSOL.c **** static MYBOOL is_fixedvar(lprec *lp, int variable)
 334:lp_solve_5.5/bfp/bfp_LUSOL/lp_LUSOL.c **** {
 5051               		.loc 3 334 0
 5052               		.cfi_startproc
 5053 1cc0 DF92      		push r13
 5054               	.LCFI192:
 5055               		.cfi_def_cfa_offset 3
 5056               		.cfi_offset 13, -2
 5057 1cc2 EF92      		push r14
 5058               	.LCFI193:
 5059               		.cfi_def_cfa_offset 4
 5060               		.cfi_offset 14, -3
 5061 1cc4 FF92      		push r15
 5062               	.LCFI194:
 5063               		.cfi_def_cfa_offset 5
 5064               		.cfi_offset 15, -4
 5065 1cc6 0F93      		push r16
 5066               	.LCFI195:
 5067               		.cfi_def_cfa_offset 6
 5068               		.cfi_offset 16, -5
 5069 1cc8 1F93      		push r17
 5070               	.LCFI196:
 5071               		.cfi_def_cfa_offset 7
 5072               		.cfi_offset 17, -6
 5073 1cca CF93      		push r28
 5074               	.LCFI197:
 5075               		.cfi_def_cfa_offset 8
 5076               		.cfi_offset 28, -7
 5077 1ccc DF93      		push r29
 5078               	.LCFI198:
 5079               		.cfi_def_cfa_offset 9
 5080               		.cfi_offset 29, -8
 5081 1cce 00D0      		rcall .
 5082 1cd0 00D0      		rcall .
 5083               	.LCFI199:
 5084               		.cfi_def_cfa_offset 13
 5085 1cd2 CDB7      		in r28,__SP_L__
 5086 1cd4 DEB7      		in r29,__SP_H__
 5087               	.LCFI200:
 5088               		.cfi_def_cfa_register 28
 5089               	/* prologue: function */
 5090               	/* frame size = 4 */
 5091               	/* stack size = 11 */
 5092               	.L__stack_usage = 11
 5093 1cd6 9A83      		std Y+2,r25
 5094 1cd8 8983      		std Y+1,r24
 5095 1cda 7C83      		std Y+4,r23
 5096 1cdc 6B83      		std Y+3,r22
 335:lp_solve_5.5/bfp/bfp_LUSOL/lp_LUSOL.c ****   if((lp->bb_bounds != NULL && lp->bb_bounds->UBzerobased) || (variable <= lp->rows))
 5097               		.loc 3 335 0
 5098 1cde 8981      		ldd r24,Y+1
 5099 1ce0 9A81      		ldd r25,Y+2
 5100 1ce2 8654      		subi r24,70
 5101 1ce4 9D4F      		sbci r25,-3
 5102 1ce6 FC01      		movw r30,r24
 5103 1ce8 8081      		ld r24,Z
 5104 1cea 9181      		ldd r25,Z+1
 5105 1cec 892B      		or r24,r25
 5106 1cee 01F0      		breq .L162
 5107               		.loc 3 335 0 is_stmt 0 discriminator 1
 5108 1cf0 8981      		ldd r24,Y+1
 5109 1cf2 9A81      		ldd r25,Y+2
 5110 1cf4 8654      		subi r24,70
 5111 1cf6 9D4F      		sbci r25,-3
 5112 1cf8 FC01      		movw r30,r24
 5113 1cfa 8081      		ld r24,Z
 5114 1cfc 9181      		ldd r25,Z+1
 5115 1cfe FC01      		movw r30,r24
 5116 1d00 87A9      		ldd r24,Z+55
 5117 1d02 8823      		tst r24
 5118 1d04 01F4      		brne .L163
 5119               	.L162:
 5120               		.loc 3 335 0 discriminator 3
 5121 1d06 8981      		ldd r24,Y+1
 5122 1d08 9A81      		ldd r25,Y+2
 5123 1d0a 8651      		subi r24,22
 5124 1d0c 9E4F      		sbci r25,-2
 5125 1d0e FC01      		movw r30,r24
 5126 1d10 2081      		ld r18,Z
 5127 1d12 3181      		ldd r19,Z+1
 5128 1d14 8B81      		ldd r24,Y+3
 5129 1d16 9C81      		ldd r25,Y+4
 5130 1d18 2817      		cp r18,r24
 5131 1d1a 3907      		cpc r19,r25
 5132 1d1c 04F0      		brlt .L164
 5133               	.L163:
 336:lp_solve_5.5/bfp/bfp_LUSOL/lp_LUSOL.c ****     return( (MYBOOL) (lp->upbo[variable] < lp->epsprimal) );
 5134               		.loc 3 336 0 is_stmt 1
 5135 1d1e 8981      		ldd r24,Y+1
 5136 1d20 9A81      		ldd r25,Y+2
 5137 1d22 8055      		subi r24,80
 5138 1d24 9D4F      		sbci r25,-3
 5139 1d26 FC01      		movw r30,r24
 5140 1d28 2081      		ld r18,Z
 5141 1d2a 3181      		ldd r19,Z+1
 5142 1d2c 8B81      		ldd r24,Y+3
 5143 1d2e 9C81      		ldd r25,Y+4
 5144 1d30 880F      		lsl r24
 5145 1d32 991F      		rol r25
 5146 1d34 880F      		lsl r24
 5147 1d36 991F      		rol r25
 5148 1d38 820F      		add r24,r18
 5149 1d3a 931F      		adc r25,r19
 5150 1d3c FC01      		movw r30,r24
 5151 1d3e 8081      		ld r24,Z
 5152 1d40 9181      		ldd r25,Z+1
 5153 1d42 A281      		ldd r26,Z+2
 5154 1d44 B381      		ldd r27,Z+3
 5155 1d46 2981      		ldd r18,Y+1
 5156 1d48 3A81      		ldd r19,Y+2
 5157 1d4a 265E      		subi r18,-26
 5158 1d4c 3C4F      		sbci r19,-4
 5159 1d4e F901      		movw r30,r18
 5160 1d50 2081      		ld r18,Z
 5161 1d52 3181      		ldd r19,Z+1
 5162 1d54 4281      		ldd r20,Z+2
 5163 1d56 5381      		ldd r21,Z+3
 5164 1d58 11E0      		ldi r17,lo8(1)
 5165 1d5a BC01      		movw r22,r24
 5166 1d5c CD01      		movw r24,r26
 5167 1d5e 0E94 0000 		call __ltsf2
 5168 1d62 8823      		tst r24
 5169 1d64 04F0      		brlt .L165
 5170 1d66 10E0      		ldi r17,0
 5171               	.L165:
 5172 1d68 812F      		mov r24,r17
 5173 1d6a 00C0      		rjmp .L166
 5174               	.L164:
 337:lp_solve_5.5/bfp/bfp_LUSOL/lp_LUSOL.c ****   else
 338:lp_solve_5.5/bfp/bfp_LUSOL/lp_LUSOL.c ****     return( (MYBOOL) (lp->upbo[variable]-lp->lowbo[variable] < lp->epsprimal) );
 5175               		.loc 3 338 0
 5176 1d6c 8981      		ldd r24,Y+1
 5177 1d6e 9A81      		ldd r25,Y+2
 5178 1d70 8055      		subi r24,80
 5179 1d72 9D4F      		sbci r25,-3
 5180 1d74 FC01      		movw r30,r24
 5181 1d76 2081      		ld r18,Z
 5182 1d78 3181      		ldd r19,Z+1
 5183 1d7a 8B81      		ldd r24,Y+3
 5184 1d7c 9C81      		ldd r25,Y+4
 5185 1d7e 880F      		lsl r24
 5186 1d80 991F      		rol r25
 5187 1d82 880F      		lsl r24
 5188 1d84 991F      		rol r25
 5189 1d86 820F      		add r24,r18
 5190 1d88 931F      		adc r25,r19
 5191 1d8a FC01      		movw r30,r24
 5192 1d8c 8081      		ld r24,Z
 5193 1d8e 9181      		ldd r25,Z+1
 5194 1d90 A281      		ldd r26,Z+2
 5195 1d92 B381      		ldd r27,Z+3
 5196 1d94 2981      		ldd r18,Y+1
 5197 1d96 3A81      		ldd r19,Y+2
 5198 1d98 2C54      		subi r18,76
 5199 1d9a 3D4F      		sbci r19,-3
 5200 1d9c F901      		movw r30,r18
 5201 1d9e 4081      		ld r20,Z
 5202 1da0 5181      		ldd r21,Z+1
 5203 1da2 2B81      		ldd r18,Y+3
 5204 1da4 3C81      		ldd r19,Y+4
 5205 1da6 220F      		lsl r18
 5206 1da8 331F      		rol r19
 5207 1daa 220F      		lsl r18
 5208 1dac 331F      		rol r19
 5209 1dae 240F      		add r18,r20
 5210 1db0 351F      		adc r19,r21
 5211 1db2 F901      		movw r30,r18
 5212 1db4 2081      		ld r18,Z
 5213 1db6 3181      		ldd r19,Z+1
 5214 1db8 4281      		ldd r20,Z+2
 5215 1dba 5381      		ldd r21,Z+3
 5216 1dbc BC01      		movw r22,r24
 5217 1dbe CD01      		movw r24,r26
 5218 1dc0 0E94 0000 		call __subsf3
 5219 1dc4 DC01      		movw r26,r24
 5220 1dc6 CB01      		movw r24,r22
 5221 1dc8 7C01      		movw r14,r24
 5222 1dca 8D01      		movw r16,r26
 5223 1dcc 8981      		ldd r24,Y+1
 5224 1dce 9A81      		ldd r25,Y+2
 5225 1dd0 865E      		subi r24,-26
 5226 1dd2 9C4F      		sbci r25,-4
 5227 1dd4 FC01      		movw r30,r24
 5228 1dd6 8081      		ld r24,Z
 5229 1dd8 9181      		ldd r25,Z+1
 5230 1dda A281      		ldd r26,Z+2
 5231 1ddc B381      		ldd r27,Z+3
 5232 1dde DD24      		clr r13
 5233 1de0 D394      		inc r13
 5234 1de2 9C01      		movw r18,r24
 5235 1de4 AD01      		movw r20,r26
 5236 1de6 C801      		movw r24,r16
 5237 1de8 B701      		movw r22,r14
 5238 1dea 0E94 0000 		call __ltsf2
 5239 1dee 8823      		tst r24
 5240 1df0 04F0      		brlt .L167
 5241 1df2 D12C      		mov r13,__zero_reg__
 5242               	.L167:
 5243 1df4 8D2D      		mov r24,r13
 5244               	.L166:
 5245               	/* epilogue start */
 339:lp_solve_5.5/bfp/bfp_LUSOL/lp_LUSOL.c **** } /* is_fixedvar */
 5246               		.loc 3 339 0
 5247 1df6 0F90      		pop __tmp_reg__
 5248 1df8 0F90      		pop __tmp_reg__
 5249 1dfa 0F90      		pop __tmp_reg__
 5250 1dfc 0F90      		pop __tmp_reg__
 5251 1dfe DF91      		pop r29
 5252 1e00 CF91      		pop r28
 5253 1e02 1F91      		pop r17
 5254 1e04 0F91      		pop r16
 5255 1e06 FF90      		pop r15
 5256 1e08 EF90      		pop r14
 5257 1e0a DF90      		pop r13
 5258 1e0c 0895      		ret
 5259               		.cfi_endproc
 5260               	.LFE41:
 5262               		.section	.rodata
 5263               	.LC5:
 5264 0141 7900      		.string	"y"
 5265               	.LC6:
 5266 0143 6965 7300 		.string	"ies"
 5267               	.LC7:
 5268 0147 6266 705F 		.string	"bfp_factorize: Resolving %d singularit%s at refact %d, iter %.0f\n"
 5268      6661 6374 
 5268      6F72 697A 
 5268      653A 2052 
 5268      6573 6F6C 
 5269               	.LC8:
 5270 0189 6266 705F 		.string	"bfp_factorize: Replacement slack %d is already basic!\n"
 5270      6661 6374 
 5270      6F72 697A 
 5270      653A 2052 
 5270      6570 6C61 
 5271               	.global	__gesf2
 5272               	.LC9:
 5273 01c0 6266 705F 		.string	"bfp_factorize: Could not find replacement slack variable!\n"
 5273      6661 6374 
 5273      6F72 697A 
 5273      653A 2043 
 5273      6F75 6C64 
 5274               	.LC10:
 5275 01fb 6266 705F 		.string	"bfp_factorize: LUSOL was unable to recover from a singular basis\n"
 5275      6661 6374 
 5275      6F72 697A 
 5275      653A 204C 
 5275      5553 4F4C 
 5276               		.text
 5277               	.global	bfp_factorize
 5279               	bfp_factorize:
 5280               	.LFB42:
 340:lp_solve_5.5/bfp/bfp_LUSOL/lp_LUSOL.c **** 
 341:lp_solve_5.5/bfp/bfp_LUSOL/lp_LUSOL.c **** /* MUST MODIFY */
 342:lp_solve_5.5/bfp/bfp_LUSOL/lp_LUSOL.c **** int BFP_CALLMODEL bfp_factorize(lprec *lp, int uservars, int Bsize, MYBOOL *usedpos, MYBOOL final)
 343:lp_solve_5.5/bfp/bfp_LUSOL/lp_LUSOL.c **** {
 5281               		.loc 3 343 0
 5282               		.cfi_startproc
 5283 1e0e AF92      		push r10
 5284               	.LCFI201:
 5285               		.cfi_def_cfa_offset 3
 5286               		.cfi_offset 10, -2
 5287 1e10 BF92      		push r11
 5288               	.LCFI202:
 5289               		.cfi_def_cfa_offset 4
 5290               		.cfi_offset 11, -3
 5291 1e12 CF92      		push r12
 5292               	.LCFI203:
 5293               		.cfi_def_cfa_offset 5
 5294               		.cfi_offset 12, -4
 5295 1e14 DF92      		push r13
 5296               	.LCFI204:
 5297               		.cfi_def_cfa_offset 6
 5298               		.cfi_offset 13, -5
 5299 1e16 EF92      		push r14
 5300               	.LCFI205:
 5301               		.cfi_def_cfa_offset 7
 5302               		.cfi_offset 14, -6
 5303 1e18 FF92      		push r15
 5304               	.LCFI206:
 5305               		.cfi_def_cfa_offset 8
 5306               		.cfi_offset 15, -7
 5307 1e1a 0F93      		push r16
 5308               	.LCFI207:
 5309               		.cfi_def_cfa_offset 9
 5310               		.cfi_offset 16, -8
 5311 1e1c 1F93      		push r17
 5312               	.LCFI208:
 5313               		.cfi_def_cfa_offset 10
 5314               		.cfi_offset 17, -9
 5315 1e1e CF93      		push r28
 5316               	.LCFI209:
 5317               		.cfi_def_cfa_offset 11
 5318               		.cfi_offset 28, -10
 5319 1e20 DF93      		push r29
 5320               	.LCFI210:
 5321               		.cfi_def_cfa_offset 12
 5322               		.cfi_offset 29, -11
 5323 1e22 CDB7      		in r28,__SP_L__
 5324 1e24 DEB7      		in r29,__SP_H__
 5325               	.LCFI211:
 5326               		.cfi_def_cfa_register 28
 5327 1e26 A497      		sbiw r28,36
 5328               	.LCFI212:
 5329               		.cfi_def_cfa_offset 48
 5330 1e28 0FB6      		in __tmp_reg__,__SREG__
 5331 1e2a F894      		cli
 5332 1e2c DEBF      		out __SP_H__,r29
 5333 1e2e 0FBE      		out __SREG__,__tmp_reg__
 5334 1e30 CDBF      		out __SP_L__,r28
 5335               	/* prologue: function */
 5336               	/* frame size = 36 */
 5337               	/* stack size = 46 */
 5338               	.L__stack_usage = 46
 5339 1e32 9D8F      		std Y+29,r25
 5340 1e34 8C8F      		std Y+28,r24
 5341 1e36 7F8F      		std Y+31,r23
 5342 1e38 6E8F      		std Y+30,r22
 5343 1e3a 59A3      		std Y+33,r21
 5344 1e3c 48A3      		std Y+32,r20
 5345 1e3e 3BA3      		std Y+35,r19
 5346 1e40 2AA3      		std Y+34,r18
 5347 1e42 0CA3      		std Y+36,r16
 344:lp_solve_5.5/bfp/bfp_LUSOL/lp_LUSOL.c ****   int      kcol, inform,
 345:lp_solve_5.5/bfp/bfp_LUSOL/lp_LUSOL.c ****            *rownum = NULL,
 5348               		.loc 3 345 0
 5349 1e44 1B8E      		std Y+27,__zero_reg__
 5350 1e46 1A8E      		std Y+26,__zero_reg__
 346:lp_solve_5.5/bfp/bfp_LUSOL/lp_LUSOL.c ****            singularities = 0,
 5351               		.loc 3 346 0
 5352 1e48 1E82      		std Y+6,__zero_reg__
 5353 1e4a 1D82      		std Y+5,__zero_reg__
 347:lp_solve_5.5/bfp/bfp_LUSOL/lp_LUSOL.c ****            dimsize = lp->invB->dimcount;
 5354               		.loc 3 347 0
 5355 1e4c 8C8D      		ldd r24,Y+28
 5356 1e4e 9D8D      		ldd r25,Y+29
 5357 1e50 8854      		subi r24,72
 5358 1e52 9D4F      		sbci r25,-3
 5359 1e54 FC01      		movw r30,r24
 5360 1e56 8081      		ld r24,Z
 5361 1e58 9181      		ldd r25,Z+1
 5362 1e5a FC01      		movw r30,r24
 5363 1e5c 8281      		ldd r24,Z+2
 5364 1e5e 9381      		ldd r25,Z+3
 5365 1e60 9C87      		std Y+12,r25
 5366 1e62 8B87      		std Y+11,r24
 348:lp_solve_5.5/bfp/bfp_LUSOL/lp_LUSOL.c ****   LUSOLrec *LUSOL = lp->invB->LUSOL;
 5367               		.loc 3 348 0
 5368 1e64 8C8D      		ldd r24,Y+28
 5369 1e66 9D8D      		ldd r25,Y+29
 5370 1e68 8854      		subi r24,72
 5371 1e6a 9D4F      		sbci r25,-3
 5372 1e6c FC01      		movw r30,r24
 5373 1e6e 8081      		ld r24,Z
 5374 1e70 9181      		ldd r25,Z+1
 5375 1e72 FC01      		movw r30,r24
 5376 1e74 8085      		ldd r24,Z+8
 5377 1e76 9185      		ldd r25,Z+9
 5378 1e78 9E87      		std Y+14,r25
 5379 1e7a 8D87      		std Y+13,r24
 349:lp_solve_5.5/bfp/bfp_LUSOL/lp_LUSOL.c **** 
 350:lp_solve_5.5/bfp/bfp_LUSOL/lp_LUSOL.c ****  /* Set dimensions and create work array */
 351:lp_solve_5.5/bfp/bfp_LUSOL/lp_LUSOL.c ****   SETMAX(lp->invB->max_Bsize, Bsize+(1+lp->rows-uservars));
 5380               		.loc 3 351 0
 5381 1e7c 8C8D      		ldd r24,Y+28
 5382 1e7e 9D8D      		ldd r25,Y+29
 5383 1e80 8854      		subi r24,72
 5384 1e82 9D4F      		sbci r25,-3
 5385 1e84 FC01      		movw r30,r24
 5386 1e86 8081      		ld r24,Z
 5387 1e88 9181      		ldd r25,Z+1
 5388 1e8a FC01      		movw r30,r24
 5389 1e8c 208D      		ldd r18,Z+24
 5390 1e8e 318D      		ldd r19,Z+25
 5391 1e90 8C8D      		ldd r24,Y+28
 5392 1e92 9D8D      		ldd r25,Y+29
 5393 1e94 8651      		subi r24,22
 5394 1e96 9E4F      		sbci r25,-2
 5395 1e98 FC01      		movw r30,r24
 5396 1e9a 8081      		ld r24,Z
 5397 1e9c 9181      		ldd r25,Z+1
 5398 1e9e AC01      		movw r20,r24
 5399 1ea0 4F5F      		subi r20,-1
 5400 1ea2 5F4F      		sbci r21,-1
 5401 1ea4 8E8D      		ldd r24,Y+30
 5402 1ea6 9F8D      		ldd r25,Y+31
 5403 1ea8 481B      		sub r20,r24
 5404 1eaa 590B      		sbc r21,r25
 5405 1eac 88A1      		ldd r24,Y+32
 5406 1eae 99A1      		ldd r25,Y+33
 5407 1eb0 840F      		add r24,r20
 5408 1eb2 951F      		adc r25,r21
 5409 1eb4 2817      		cp r18,r24
 5410 1eb6 3907      		cpc r19,r25
 5411 1eb8 04F4      		brge .L169
 5412               		.loc 3 351 0 is_stmt 0 discriminator 1
 5413 1eba 8C8D      		ldd r24,Y+28
 5414 1ebc 9D8D      		ldd r25,Y+29
 5415 1ebe 8854      		subi r24,72
 5416 1ec0 9D4F      		sbci r25,-3
 5417 1ec2 FC01      		movw r30,r24
 5418 1ec4 8081      		ld r24,Z
 5419 1ec6 9181      		ldd r25,Z+1
 5420 1ec8 2C8D      		ldd r18,Y+28
 5421 1eca 3D8D      		ldd r19,Y+29
 5422 1ecc 2651      		subi r18,22
 5423 1ece 3E4F      		sbci r19,-2
 5424 1ed0 F901      		movw r30,r18
 5425 1ed2 2081      		ld r18,Z
 5426 1ed4 3181      		ldd r19,Z+1
 5427 1ed6 A901      		movw r20,r18
 5428 1ed8 4F5F      		subi r20,-1
 5429 1eda 5F4F      		sbci r21,-1
 5430 1edc 2E8D      		ldd r18,Y+30
 5431 1ede 3F8D      		ldd r19,Y+31
 5432 1ee0 421B      		sub r20,r18
 5433 1ee2 530B      		sbc r21,r19
 5434 1ee4 28A1      		ldd r18,Y+32
 5435 1ee6 39A1      		ldd r19,Y+33
 5436 1ee8 240F      		add r18,r20
 5437 1eea 351F      		adc r19,r21
 5438 1eec FC01      		movw r30,r24
 5439 1eee 318F      		std Z+25,r19
 5440 1ef0 208F      		std Z+24,r18
 5441               	.L169:
 352:lp_solve_5.5/bfp/bfp_LUSOL/lp_LUSOL.c ****   kcol = lp->invB->dimcount;
 5442               		.loc 3 352 0 is_stmt 1
 5443 1ef2 8C8D      		ldd r24,Y+28
 5444 1ef4 9D8D      		ldd r25,Y+29
 5445 1ef6 8854      		subi r24,72
 5446 1ef8 9D4F      		sbci r25,-3
 5447 1efa FC01      		movw r30,r24
 5448 1efc 8081      		ld r24,Z
 5449 1efe 9181      		ldd r25,Z+1
 5450 1f00 FC01      		movw r30,r24
 5451 1f02 8281      		ldd r24,Z+2
 5452 1f04 9381      		ldd r25,Z+3
 5453 1f06 9A83      		std Y+2,r25
 5454 1f08 8983      		std Y+1,r24
 353:lp_solve_5.5/bfp/bfp_LUSOL/lp_LUSOL.c ****   LUSOL->m = kcol;
 5455               		.loc 3 353 0
 5456 1f0a 8D85      		ldd r24,Y+13
 5457 1f0c 9E85      		ldd r25,Y+14
 5458 1f0e 8655      		subi r24,86
 5459 1f10 9F4F      		sbci r25,-1
 5460 1f12 2981      		ldd r18,Y+1
 5461 1f14 3A81      		ldd r19,Y+2
 5462 1f16 FC01      		movw r30,r24
 5463 1f18 3183      		std Z+1,r19
 5464 1f1a 2083      		st Z,r18
 354:lp_solve_5.5/bfp/bfp_LUSOL/lp_LUSOL.c ****   LUSOL->n = kcol;
 5465               		.loc 3 354 0
 5466 1f1c 8D85      		ldd r24,Y+13
 5467 1f1e 9E85      		ldd r25,Y+14
 5468 1f20 8854      		subi r24,72
 5469 1f22 9F4F      		sbci r25,-1
 5470 1f24 2981      		ldd r18,Y+1
 5471 1f26 3A81      		ldd r19,Y+2
 5472 1f28 FC01      		movw r30,r24
 5473 1f2a 3183      		std Z+1,r19
 5474 1f2c 2083      		st Z,r18
 355:lp_solve_5.5/bfp/bfp_LUSOL/lp_LUSOL.c ****   allocINT(lp, &rownum, kcol+1, FALSE);
 5475               		.loc 3 355 0
 5476 1f2e 8981      		ldd r24,Y+1
 5477 1f30 9A81      		ldd r25,Y+2
 5478 1f32 AC01      		movw r20,r24
 5479 1f34 4F5F      		subi r20,-1
 5480 1f36 5F4F      		sbci r21,-1
 5481 1f38 BE01      		movw r22,r28
 5482 1f3a 665E      		subi r22,-26
 5483 1f3c 7F4F      		sbci r23,-1
 5484 1f3e 8C8D      		ldd r24,Y+28
 5485 1f40 9D8D      		ldd r25,Y+29
 5486 1f42 20E0      		ldi r18,0
 5487 1f44 0E94 0000 		call allocINT
 356:lp_solve_5.5/bfp/bfp_LUSOL/lp_LUSOL.c **** 
 357:lp_solve_5.5/bfp/bfp_LUSOL/lp_LUSOL.c ****  /* Check if the refactorization frequency is low;
 358:lp_solve_5.5/bfp/bfp_LUSOL/lp_LUSOL.c ****     tighten pivot thresholds if appropriate */
 359:lp_solve_5.5/bfp/bfp_LUSOL/lp_LUSOL.c ****   inform = lp->bfp_pivotcount(lp);
 5488               		.loc 3 359 0
 5489 1f48 8C8D      		ldd r24,Y+28
 5490 1f4a 9D8D      		ldd r25,Y+29
 5491 1f4c 8253      		subi r24,50
 5492 1f4e 9C4F      		sbci r25,-4
 5493 1f50 FC01      		movw r30,r24
 5494 1f52 2081      		ld r18,Z
 5495 1f54 3181      		ldd r19,Z+1
 5496 1f56 8C8D      		ldd r24,Y+28
 5497 1f58 9D8D      		ldd r25,Y+29
 5498 1f5a F901      		movw r30,r18
 5499 1f5c 0995      		icall
 5500 1f5e 9C83      		std Y+4,r25
 5501 1f60 8B83      		std Y+3,r24
 360:lp_solve_5.5/bfp/bfp_LUSOL/lp_LUSOL.c ****   if(!final &&                        /* No solution update-based refactorization */
 5502               		.loc 3 360 0
 5503 1f62 8CA1      		ldd r24,Y+36
 5504 1f64 8823      		tst r24
 5505 1f66 01F0      		breq .+2
 5506 1f68 00C0      		rjmp .L170
 361:lp_solve_5.5/bfp/bfp_LUSOL/lp_LUSOL.c ****      !lp->invB->force_refact &&       /* No sparsity-based refactorization */
 5507               		.loc 3 361 0 discriminator 1
 5508 1f6a 8C8D      		ldd r24,Y+28
 5509 1f6c 9D8D      		ldd r25,Y+29
 5510 1f6e 8854      		subi r24,72
 5511 1f70 9D4F      		sbci r25,-3
 5512 1f72 FC01      		movw r30,r24
 5513 1f74 8081      		ld r24,Z
 5514 1f76 9181      		ldd r25,Z+1
 5515 1f78 FC01      		movw r30,r24
 5516 1f7a 83A9      		ldd r24,Z+51
 360:lp_solve_5.5/bfp/bfp_LUSOL/lp_LUSOL.c ****   if(!final &&                        /* No solution update-based refactorization */
 5517               		.loc 3 360 0 discriminator 1
 5518 1f7c 8823      		tst r24
 5519 1f7e 01F0      		breq .+2
 5520 1f80 00C0      		rjmp .L170
 362:lp_solve_5.5/bfp/bfp_LUSOL/lp_LUSOL.c ****      !lp->is_action(lp->spx_action,
 5521               		.loc 3 362 0
 5522 1f82 8C8D      		ldd r24,Y+28
 5523 1f84 9D8D      		ldd r25,Y+29
 5524 1f86 8E50      		subi r24,14
 5525 1f88 9C4F      		sbci r25,-4
 5526 1f8a FC01      		movw r30,r24
 5527 1f8c 2081      		ld r18,Z
 5528 1f8e 3181      		ldd r19,Z+1
 5529 1f90 8C8D      		ldd r24,Y+28
 5530 1f92 9D8D      		ldd r25,Y+29
 5531 1f94 8E50      		subi r24,14
 5532 1f96 9D4F      		sbci r25,-3
 5533 1f98 FC01      		movw r30,r24
 5534 1f9a 8081      		ld r24,Z
