   1               		.file	"nwk.c"
   2               	__SP_H__ = 0x3e
   3               	__SP_L__ = 0x3d
   4               	__SREG__ = 0x3f
   5               	__RAMPZ__ = 0x3b
   6               	__tmp_reg__ = 0
   7               	__zero_reg__ = 1
   8               		.text
   9               	.Ltext0:
  10               		.cfi_sections	.debug_frame
  11               		.comm	n,1,1
  12               		.comm	tTS,4,1
  13               		.comm	nwkIb,40,1
  14               	.global	NWK_Init
  16               	NWK_Init:
  17               	.LFB66:
  18               		.file 1 "../../../stack/LwMesh/TDMA/nwk/src/nwk.c"
   1:../../../stack/LwMesh/TDMA/nwk/src/nwk.c **** /**
   2:../../../stack/LwMesh/TDMA/nwk/src/nwk.c ****  * \file nwk.c
   3:../../../stack/LwMesh/TDMA/nwk/src/nwk.c ****  *
   4:../../../stack/LwMesh/TDMA/nwk/src/nwk.c ****  * \brief Network layer management functions implementation
   5:../../../stack/LwMesh/TDMA/nwk/src/nwk.c ****  *
   6:../../../stack/LwMesh/TDMA/nwk/src/nwk.c ****  * Copyright (C) 2014 Atmel Corporation. All rights reserved.
   7:../../../stack/LwMesh/TDMA/nwk/src/nwk.c ****  *
   8:../../../stack/LwMesh/TDMA/nwk/src/nwk.c ****  * \asf_license_start
   9:../../../stack/LwMesh/TDMA/nwk/src/nwk.c ****  *
  10:../../../stack/LwMesh/TDMA/nwk/src/nwk.c ****  * Redistribution and use in source and binary forms, with or without
  11:../../../stack/LwMesh/TDMA/nwk/src/nwk.c ****  * modification, are permitted provided that the following conditions are met:
  12:../../../stack/LwMesh/TDMA/nwk/src/nwk.c ****  *
  13:../../../stack/LwMesh/TDMA/nwk/src/nwk.c ****  * 1. Redistributions of source code must retain the above copyright notice,
  14:../../../stack/LwMesh/TDMA/nwk/src/nwk.c ****  *    this list of conditions and the following disclaimer.
  15:../../../stack/LwMesh/TDMA/nwk/src/nwk.c ****  *
  16:../../../stack/LwMesh/TDMA/nwk/src/nwk.c ****  * 2. Redistributions in binary form must reproduce the above copyright notice,
  17:../../../stack/LwMesh/TDMA/nwk/src/nwk.c ****  *    this list of conditions and the following disclaimer in the documentation
  18:../../../stack/LwMesh/TDMA/nwk/src/nwk.c ****  *    and/or other materials provided with the distribution.
  19:../../../stack/LwMesh/TDMA/nwk/src/nwk.c ****  *
  20:../../../stack/LwMesh/TDMA/nwk/src/nwk.c ****  * 3. The name of Atmel may not be used to endorse or promote products derived
  21:../../../stack/LwMesh/TDMA/nwk/src/nwk.c ****  *    from this software without specific prior written permission.
  22:../../../stack/LwMesh/TDMA/nwk/src/nwk.c ****  *
  23:../../../stack/LwMesh/TDMA/nwk/src/nwk.c ****  * 4. This software may only be redistributed and used in connection with an
  24:../../../stack/LwMesh/TDMA/nwk/src/nwk.c ****  *    Atmel microcontroller product.
  25:../../../stack/LwMesh/TDMA/nwk/src/nwk.c ****  *
  26:../../../stack/LwMesh/TDMA/nwk/src/nwk.c ****  * THIS SOFTWARE IS PROVIDED BY ATMEL "AS IS" AND ANY EXPRESS OR IMPLIED
  27:../../../stack/LwMesh/TDMA/nwk/src/nwk.c ****  * WARRANTIES, INCLUDING, BUT NOT LIMITED TO, THE IMPLIED WARRANTIES OF
  28:../../../stack/LwMesh/TDMA/nwk/src/nwk.c ****  * MERCHANTABILITY, FITNESS FOR A PARTICULAR PURPOSE AND NON-INFRINGEMENT ARE
  29:../../../stack/LwMesh/TDMA/nwk/src/nwk.c ****  * EXPRESSLY AND SPECIFICALLY DISCLAIMED. IN NO EVENT SHALL ATMEL BE LIABLE FOR
  30:../../../stack/LwMesh/TDMA/nwk/src/nwk.c ****  * ANY DIRECT, INDIRECT, INCIDENTAL, SPECIAL, EXEMPLARY, OR CONSEQUENTIAL
  31:../../../stack/LwMesh/TDMA/nwk/src/nwk.c ****  * DAMAGES (INCLUDING, BUT NOT LIMITED TO, PROCUREMENT OF SUBSTITUTE GOODS
  32:../../../stack/LwMesh/TDMA/nwk/src/nwk.c ****  * OR SERVICES; LOSS OF USE, DATA, OR PROFITS; OR BUSINESS INTERRUPTION)
  33:../../../stack/LwMesh/TDMA/nwk/src/nwk.c ****  * HOWEVER CAUSED AND ON ANY THEORY OF LIABILITY, WHETHER IN CONTRACT,
  34:../../../stack/LwMesh/TDMA/nwk/src/nwk.c ****  * STRICT LIABILITY, OR TORT (INCLUDING NEGLIGENCE OR OTHERWISE) ARISING IN
  35:../../../stack/LwMesh/TDMA/nwk/src/nwk.c ****  * ANY WAY OUT OF THE USE OF THIS SOFTWARE, EVEN IF ADVISED OF THE
  36:../../../stack/LwMesh/TDMA/nwk/src/nwk.c ****  * POSSIBILITY OF SUCH DAMAGE.
  37:../../../stack/LwMesh/TDMA/nwk/src/nwk.c ****  *
  38:../../../stack/LwMesh/TDMA/nwk/src/nwk.c ****  * \asf_license_stop
  39:../../../stack/LwMesh/TDMA/nwk/src/nwk.c ****  *
  40:../../../stack/LwMesh/TDMA/nwk/src/nwk.c ****  *
  41:../../../stack/LwMesh/TDMA/nwk/src/nwk.c ****  */
  42:../../../stack/LwMesh/TDMA/nwk/src/nwk.c **** 
  43:../../../stack/LwMesh/TDMA/nwk/src/nwk.c **** /*
  44:../../../stack/LwMesh/TDMA/nwk/src/nwk.c ****  * Copyright (c) 2014, Atmel Corporation All rights reserved.
  45:../../../stack/LwMesh/TDMA/nwk/src/nwk.c ****  *
  46:../../../stack/LwMesh/TDMA/nwk/src/nwk.c ****  * Licensed under Atmel's Limited License Agreement --> EULA.txt
  47:../../../stack/LwMesh/TDMA/nwk/src/nwk.c ****  */
  48:../../../stack/LwMesh/TDMA/nwk/src/nwk.c **** 
  49:../../../stack/LwMesh/TDMA/nwk/src/nwk.c **** /*- Includes ---------------------------------------------------------------*/
  50:../../../stack/LwMesh/TDMA/nwk/src/nwk.c **** #include <stdlib.h>
  51:../../../stack/LwMesh/TDMA/nwk/src/nwk.c **** #include <stdint.h>
  52:../../../stack/LwMesh/TDMA/nwk/src/nwk.c **** #include <stdbool.h>
  53:../../../stack/LwMesh/TDMA/nwk/src/nwk.c **** #include <string.h>
  54:../../../stack/LwMesh/TDMA/nwk/src/nwk.c **** #include "phy.h"
  55:../../../stack/LwMesh/TDMA/nwk/src/nwk.c **** #include "sysConfig.h"
  56:../../../stack/LwMesh/TDMA/nwk/src/nwk.c **** #include "nwkRx.h"
  57:../../../stack/LwMesh/TDMA/nwk/src/nwk.c **** #include "nwkTx.h"
  58:../../../stack/LwMesh/TDMA/nwk/src/nwk.c **** #include "nwkGroup.h"
  59:../../../stack/LwMesh/TDMA/nwk/src/nwk.c **** #include "nwkFrame.h"
  60:../../../stack/LwMesh/TDMA/nwk/src/nwk.c **** #include "nwkRoute.h"
  61:../../../stack/LwMesh/TDMA/nwk/src/nwk.c **** #include "nwkSecurity.h"
  62:../../../stack/LwMesh/TDMA/nwk/src/nwk.c **** #include "nwkRouteDiscovery.h"
  63:../../../stack/LwMesh/TDMA/nwk/src/nwk.c **** 
  64:../../../stack/LwMesh/TDMA/nwk/src/nwk.c **** /*- Variables --------------------------------------------------------------*/
  65:../../../stack/LwMesh/TDMA/nwk/src/nwk.c **** NwkIb_t nwkIb;
  66:../../../stack/LwMesh/TDMA/nwk/src/nwk.c **** 
  67:../../../stack/LwMesh/TDMA/nwk/src/nwk.c **** /*- Implementations --------------------------------------------------------*/
  68:../../../stack/LwMesh/TDMA/nwk/src/nwk.c **** 
  69:../../../stack/LwMesh/TDMA/nwk/src/nwk.c **** /*************************************************************************//**
  70:../../../stack/LwMesh/TDMA/nwk/src/nwk.c **** *  @brief Initializes all network layer modules
  71:../../../stack/LwMesh/TDMA/nwk/src/nwk.c **** *****************************************************************************/
  72:../../../stack/LwMesh/TDMA/nwk/src/nwk.c **** void NWK_Init(void)
  73:../../../stack/LwMesh/TDMA/nwk/src/nwk.c **** {
  19               		.loc 1 73 0
  20               		.cfi_startproc
  21 0000 CF93      		push r28
  22               	.LCFI0:
  23               		.cfi_def_cfa_offset 3
  24               		.cfi_offset 28, -2
  25 0002 DF93      		push r29
  26               	.LCFI1:
  27               		.cfi_def_cfa_offset 4
  28               		.cfi_offset 29, -3
  29 0004 1F92      		push __zero_reg__
  30               	.LCFI2:
  31               		.cfi_def_cfa_offset 5
  32 0006 CDB7      		in r28,__SP_L__
  33 0008 DEB7      		in r29,__SP_H__
  34               	.LCFI3:
  35               		.cfi_def_cfa_register 28
  36               	/* prologue: function */
  37               	/* frame size = 1 */
  38               	/* stack size = 3 */
  39               	.L__stack_usage = 3
  74:../../../stack/LwMesh/TDMA/nwk/src/nwk.c **** 	nwkIb.nwkSeqNum = 0;
  40               		.loc 1 74 0
  41 000a 1092 0000 		sts nwkIb+4,__zero_reg__
  75:../../../stack/LwMesh/TDMA/nwk/src/nwk.c **** 	nwkIb.macSeqNum = 0;
  42               		.loc 1 75 0
  43 000e 1092 0000 		sts nwkIb+5,__zero_reg__
  76:../../../stack/LwMesh/TDMA/nwk/src/nwk.c **** 	nwkIb.addr = 0;
  44               		.loc 1 76 0
  45 0012 1092 0000 		sts nwkIb+1,__zero_reg__
  46 0016 1092 0000 		sts nwkIb,__zero_reg__
  77:../../../stack/LwMesh/TDMA/nwk/src/nwk.c **** 	nwkIb.lock = 0;
  47               		.loc 1 77 0
  48 001a 1092 0000 		sts nwkIb+38+1,__zero_reg__
  49 001e 1092 0000 		sts nwkIb+38,__zero_reg__
  50               	.LBB2:
  78:../../../stack/LwMesh/TDMA/nwk/src/nwk.c **** 
  79:../../../stack/LwMesh/TDMA/nwk/src/nwk.c **** 	for (uint8_t i = 0; i < NWK_ENDPOINTS_AMOUNT; i++) {
  51               		.loc 1 79 0
  52 0022 1982      		std Y+1,__zero_reg__
  53 0024 00C0      		rjmp .L2
  54               	.L3:
  80:../../../stack/LwMesh/TDMA/nwk/src/nwk.c **** 		nwkIb.endpoint[i] = NULL;
  55               		.loc 1 80 0 discriminator 3
  56 0026 8981      		ldd r24,Y+1
  57 0028 882F      		mov r24,r24
  58 002a 90E0      		ldi r25,0
  59 002c 0396      		adiw r24,3
  60 002e 880F      		lsl r24
  61 0030 991F      		rol r25
  62 0032 8050      		subi r24,lo8(-(nwkIb))
  63 0034 9040      		sbci r25,hi8(-(nwkIb))
  64 0036 FC01      		movw r30,r24
  65 0038 1182      		std Z+1,__zero_reg__
  66 003a 1082      		st Z,__zero_reg__
  79:../../../stack/LwMesh/TDMA/nwk/src/nwk.c **** 		nwkIb.endpoint[i] = NULL;
  67               		.loc 1 79 0 discriminator 3
  68 003c 8981      		ldd r24,Y+1
  69 003e 8F5F      		subi r24,lo8(-(1))
  70 0040 8983      		std Y+1,r24
  71               	.L2:
  79:../../../stack/LwMesh/TDMA/nwk/src/nwk.c **** 		nwkIb.endpoint[i] = NULL;
  72               		.loc 1 79 0 is_stmt 0 discriminator 1
  73 0042 8981      		ldd r24,Y+1
  74 0044 8031      		cpi r24,lo8(16)
  75 0046 00F0      		brlo .L3
  76               	.LBE2:
  81:../../../stack/LwMesh/TDMA/nwk/src/nwk.c **** 	}
  82:../../../stack/LwMesh/TDMA/nwk/src/nwk.c **** 
  83:../../../stack/LwMesh/TDMA/nwk/src/nwk.c **** 	nwkTxInit();
  77               		.loc 1 83 0 is_stmt 1
  78 0048 0E94 0000 		call nwkTxInit
  84:../../../stack/LwMesh/TDMA/nwk/src/nwk.c **** 	nwkRxInit();
  79               		.loc 1 84 0
  80 004c 0E94 0000 		call nwkRxInit
  85:../../../stack/LwMesh/TDMA/nwk/src/nwk.c **** 	nwkFrameInit();
  81               		.loc 1 85 0
  82 0050 0E94 0000 		call nwkFrameInit
  86:../../../stack/LwMesh/TDMA/nwk/src/nwk.c **** 	nwkDataReqInit();
  83               		.loc 1 86 0
  84 0054 0E94 0000 		call nwkDataReqInit
  87:../../../stack/LwMesh/TDMA/nwk/src/nwk.c **** 
  88:../../../stack/LwMesh/TDMA/nwk/src/nwk.c **** #ifdef NWK_ENABLE_ROUTING
  89:../../../stack/LwMesh/TDMA/nwk/src/nwk.c **** 	nwkRouteInit();
  90:../../../stack/LwMesh/TDMA/nwk/src/nwk.c **** #endif
  91:../../../stack/LwMesh/TDMA/nwk/src/nwk.c **** 
  92:../../../stack/LwMesh/TDMA/nwk/src/nwk.c **** #ifdef NWK_ENABLE_SECURITY
  93:../../../stack/LwMesh/TDMA/nwk/src/nwk.c **** 	nwkSecurityInit();
  94:../../../stack/LwMesh/TDMA/nwk/src/nwk.c **** #endif
  95:../../../stack/LwMesh/TDMA/nwk/src/nwk.c **** 
  96:../../../stack/LwMesh/TDMA/nwk/src/nwk.c **** #ifdef NWK_ENABLE_MULTICAST
  97:../../../stack/LwMesh/TDMA/nwk/src/nwk.c **** 	nwkGroupInit();
  85               		.loc 1 97 0
  86 0058 0E94 0000 		call nwkGroupInit
  98:../../../stack/LwMesh/TDMA/nwk/src/nwk.c **** #endif
  99:../../../stack/LwMesh/TDMA/nwk/src/nwk.c **** 
 100:../../../stack/LwMesh/TDMA/nwk/src/nwk.c **** #ifdef NWK_ENABLE_ROUTE_DISCOVERY
 101:../../../stack/LwMesh/TDMA/nwk/src/nwk.c **** 	nwkRouteDiscoveryInit();
 102:../../../stack/LwMesh/TDMA/nwk/src/nwk.c **** #endif
 103:../../../stack/LwMesh/TDMA/nwk/src/nwk.c **** }
  87               		.loc 1 103 0
  88 005c 0000      		nop
  89               	/* epilogue start */
  90 005e 0F90      		pop __tmp_reg__
  91 0060 DF91      		pop r29
  92 0062 CF91      		pop r28
  93 0064 0895      		ret
  94               		.cfi_endproc
  95               	.LFE66:
  97               	.global	NWK_SetAddr
  99               	NWK_SetAddr:
 100               	.LFB67:
 104:../../../stack/LwMesh/TDMA/nwk/src/nwk.c **** 
 105:../../../stack/LwMesh/TDMA/nwk/src/nwk.c **** /*************************************************************************//**
 106:../../../stack/LwMesh/TDMA/nwk/src/nwk.c **** *  @brief Sets network address of the node
 107:../../../stack/LwMesh/TDMA/nwk/src/nwk.c **** *  @param[in] addr Adddress to set
 108:../../../stack/LwMesh/TDMA/nwk/src/nwk.c **** *****************************************************************************/
 109:../../../stack/LwMesh/TDMA/nwk/src/nwk.c **** void NWK_SetAddr(uint16_t addr)
 110:../../../stack/LwMesh/TDMA/nwk/src/nwk.c **** {
 101               		.loc 1 110 0
 102               		.cfi_startproc
 103 0066 CF93      		push r28
 104               	.LCFI4:
 105               		.cfi_def_cfa_offset 3
 106               		.cfi_offset 28, -2
 107 0068 DF93      		push r29
 108               	.LCFI5:
 109               		.cfi_def_cfa_offset 4
 110               		.cfi_offset 29, -3
 111 006a 00D0      		rcall .
 112               	.LCFI6:
 113               		.cfi_def_cfa_offset 6
 114 006c CDB7      		in r28,__SP_L__
 115 006e DEB7      		in r29,__SP_H__
 116               	.LCFI7:
 117               		.cfi_def_cfa_register 28
 118               	/* prologue: function */
 119               	/* frame size = 2 */
 120               	/* stack size = 4 */
 121               	.L__stack_usage = 4
 122 0070 9A83      		std Y+2,r25
 123 0072 8983      		std Y+1,r24
 111:../../../stack/LwMesh/TDMA/nwk/src/nwk.c **** 	nwkIb.addr = addr;
 124               		.loc 1 111 0
 125 0074 8981      		ldd r24,Y+1
 126 0076 9A81      		ldd r25,Y+2
 127 0078 9093 0000 		sts nwkIb+1,r25
 128 007c 8093 0000 		sts nwkIb,r24
 112:../../../stack/LwMesh/TDMA/nwk/src/nwk.c **** 	PHY_SetShortAddr(addr);
 129               		.loc 1 112 0
 130 0080 8981      		ldd r24,Y+1
 131 0082 9A81      		ldd r25,Y+2
 132 0084 0E94 0000 		call PHY_SetShortAddr
 113:../../../stack/LwMesh/TDMA/nwk/src/nwk.c **** }
 133               		.loc 1 113 0
 134 0088 0000      		nop
 135               	/* epilogue start */
 136 008a 0F90      		pop __tmp_reg__
 137 008c 0F90      		pop __tmp_reg__
 138 008e DF91      		pop r29
 139 0090 CF91      		pop r28
 140 0092 0895      		ret
 141               		.cfi_endproc
 142               	.LFE67:
 144               	.global	NWK_SetPanId
 146               	NWK_SetPanId:
 147               	.LFB68:
 114:../../../stack/LwMesh/TDMA/nwk/src/nwk.c **** 
 115:../../../stack/LwMesh/TDMA/nwk/src/nwk.c **** /*************************************************************************//**
 116:../../../stack/LwMesh/TDMA/nwk/src/nwk.c **** *  @brief Sets network identifier (PAN) of the node
 117:../../../stack/LwMesh/TDMA/nwk/src/nwk.c **** *  @param[in] panId PAN ID to set
 118:../../../stack/LwMesh/TDMA/nwk/src/nwk.c **** *****************************************************************************/
 119:../../../stack/LwMesh/TDMA/nwk/src/nwk.c **** void NWK_SetPanId(uint16_t panId)
 120:../../../stack/LwMesh/TDMA/nwk/src/nwk.c **** {
 148               		.loc 1 120 0
 149               		.cfi_startproc
 150 0094 CF93      		push r28
 151               	.LCFI8:
 152               		.cfi_def_cfa_offset 3
 153               		.cfi_offset 28, -2
 154 0096 DF93      		push r29
 155               	.LCFI9:
 156               		.cfi_def_cfa_offset 4
 157               		.cfi_offset 29, -3
 158 0098 00D0      		rcall .
 159               	.LCFI10:
 160               		.cfi_def_cfa_offset 6
 161 009a CDB7      		in r28,__SP_L__
 162 009c DEB7      		in r29,__SP_H__
 163               	.LCFI11:
 164               		.cfi_def_cfa_register 28
 165               	/* prologue: function */
 166               	/* frame size = 2 */
 167               	/* stack size = 4 */
 168               	.L__stack_usage = 4
 169 009e 9A83      		std Y+2,r25
 170 00a0 8983      		std Y+1,r24
 121:../../../stack/LwMesh/TDMA/nwk/src/nwk.c **** 	nwkIb.panId = panId;
 171               		.loc 1 121 0
 172 00a2 8981      		ldd r24,Y+1
 173 00a4 9A81      		ldd r25,Y+2
 174 00a6 9093 0000 		sts nwkIb+2+1,r25
 175 00aa 8093 0000 		sts nwkIb+2,r24
 122:../../../stack/LwMesh/TDMA/nwk/src/nwk.c **** 	PHY_SetPanId(panId);
 176               		.loc 1 122 0
 177 00ae 8981      		ldd r24,Y+1
 178 00b0 9A81      		ldd r25,Y+2
 179 00b2 0E94 0000 		call PHY_SetPanId
 123:../../../stack/LwMesh/TDMA/nwk/src/nwk.c **** }
 180               		.loc 1 123 0
 181 00b6 0000      		nop
 182               	/* epilogue start */
 183 00b8 0F90      		pop __tmp_reg__
 184 00ba 0F90      		pop __tmp_reg__
 185 00bc DF91      		pop r29
 186 00be CF91      		pop r28
 187 00c0 0895      		ret
 188               		.cfi_endproc
 189               	.LFE68:
 191               	.global	NWK_OpenEndpoint
 193               	NWK_OpenEndpoint:
 194               	.LFB69:
 124:../../../stack/LwMesh/TDMA/nwk/src/nwk.c **** 
 125:../../../stack/LwMesh/TDMA/nwk/src/nwk.c **** /*************************************************************************//**
 126:../../../stack/LwMesh/TDMA/nwk/src/nwk.c **** *  @brief Registers callback @a ind for the endpoint @a endpoint
 127:../../../stack/LwMesh/TDMA/nwk/src/nwk.c **** *  @param[in] id Endpoint index (1-15)
 128:../../../stack/LwMesh/TDMA/nwk/src/nwk.c **** *  @param[in] handler Pointer to the callback function
 129:../../../stack/LwMesh/TDMA/nwk/src/nwk.c **** *****************************************************************************/
 130:../../../stack/LwMesh/TDMA/nwk/src/nwk.c **** void NWK_OpenEndpoint(uint8_t id, bool (*handler)(NWK_DataInd_t *ind))
 131:../../../stack/LwMesh/TDMA/nwk/src/nwk.c **** {
 195               		.loc 1 131 0
 196               		.cfi_startproc
 197 00c2 CF93      		push r28
 198               	.LCFI12:
 199               		.cfi_def_cfa_offset 3
 200               		.cfi_offset 28, -2
 201 00c4 DF93      		push r29
 202               	.LCFI13:
 203               		.cfi_def_cfa_offset 4
 204               		.cfi_offset 29, -3
 205 00c6 00D0      		rcall .
 206 00c8 1F92      		push __zero_reg__
 207               	.LCFI14:
 208               		.cfi_def_cfa_offset 7
 209 00ca CDB7      		in r28,__SP_L__
 210 00cc DEB7      		in r29,__SP_H__
 211               	.LCFI15:
 212               		.cfi_def_cfa_register 28
 213               	/* prologue: function */
 214               	/* frame size = 3 */
 215               	/* stack size = 5 */
 216               	.L__stack_usage = 5
 217 00ce 8983      		std Y+1,r24
 218 00d0 7B83      		std Y+3,r23
 219 00d2 6A83      		std Y+2,r22
 132:../../../stack/LwMesh/TDMA/nwk/src/nwk.c **** 	nwkIb.endpoint[id] = handler;
 220               		.loc 1 132 0
 221 00d4 8981      		ldd r24,Y+1
 222 00d6 882F      		mov r24,r24
 223 00d8 90E0      		ldi r25,0
 224 00da 0396      		adiw r24,3
 225 00dc 880F      		lsl r24
 226 00de 991F      		rol r25
 227 00e0 8050      		subi r24,lo8(-(nwkIb))
 228 00e2 9040      		sbci r25,hi8(-(nwkIb))
 229 00e4 2A81      		ldd r18,Y+2
 230 00e6 3B81      		ldd r19,Y+3
 231 00e8 FC01      		movw r30,r24
 232 00ea 3183      		std Z+1,r19
 233 00ec 2083      		st Z,r18
 133:../../../stack/LwMesh/TDMA/nwk/src/nwk.c **** }
 234               		.loc 1 133 0
 235 00ee 0000      		nop
 236               	/* epilogue start */
 237 00f0 0F90      		pop __tmp_reg__
 238 00f2 0F90      		pop __tmp_reg__
 239 00f4 0F90      		pop __tmp_reg__
 240 00f6 DF91      		pop r29
 241 00f8 CF91      		pop r28
 242 00fa 0895      		ret
 243               		.cfi_endproc
 244               	.LFE69:
 246               	.global	NWK_Busy
 248               	NWK_Busy:
 249               	.LFB70:
 134:../../../stack/LwMesh/TDMA/nwk/src/nwk.c **** 
 135:../../../stack/LwMesh/TDMA/nwk/src/nwk.c **** /*************************************************************************//**
 136:../../../stack/LwMesh/TDMA/nwk/src/nwk.c **** *  @brief Checks if network layer is ready for sleep
 137:../../../stack/LwMesh/TDMA/nwk/src/nwk.c **** *  @return @c true if network layer is ready for sleep or @c false otherwise
 138:../../../stack/LwMesh/TDMA/nwk/src/nwk.c **** *****************************************************************************/
 139:../../../stack/LwMesh/TDMA/nwk/src/nwk.c **** bool NWK_Busy(void)
 140:../../../stack/LwMesh/TDMA/nwk/src/nwk.c **** {
 250               		.loc 1 140 0
 251               		.cfi_startproc
 252 00fc CF93      		push r28
 253               	.LCFI16:
 254               		.cfi_def_cfa_offset 3
 255               		.cfi_offset 28, -2
 256 00fe DF93      		push r29
 257               	.LCFI17:
 258               		.cfi_def_cfa_offset 4
 259               		.cfi_offset 29, -3
 260 0100 CDB7      		in r28,__SP_L__
 261 0102 DEB7      		in r29,__SP_H__
 262               	.LCFI18:
 263               		.cfi_def_cfa_register 28
 264               	/* prologue: function */
 265               	/* frame size = 0 */
 266               	/* stack size = 2 */
 267               	.L__stack_usage = 2
 141:../../../stack/LwMesh/TDMA/nwk/src/nwk.c **** 	return nwkIb.lock > 0;
 268               		.loc 1 141 0
 269 0104 8091 0000 		lds r24,nwkIb+38
 270 0108 9091 0000 		lds r25,nwkIb+38+1
 271 010c 21E0      		ldi r18,lo8(1)
 272 010e 892B      		or r24,r25
 273 0110 01F4      		brne .L9
 274 0112 20E0      		ldi r18,0
 275               	.L9:
 276               		.loc 1 141 0 is_stmt 0 discriminator 1
 277 0114 822F      		mov r24,r18
 278               	/* epilogue start */
 142:../../../stack/LwMesh/TDMA/nwk/src/nwk.c **** }
 279               		.loc 1 142 0 is_stmt 1 discriminator 1
 280 0116 DF91      		pop r29
 281 0118 CF91      		pop r28
 282 011a 0895      		ret
 283               		.cfi_endproc
 284               	.LFE70:
 286               	.global	NWK_Lock
 288               	NWK_Lock:
 289               	.LFB71:
 143:../../../stack/LwMesh/TDMA/nwk/src/nwk.c **** 
 144:../../../stack/LwMesh/TDMA/nwk/src/nwk.c **** /*************************************************************************//**
 145:../../../stack/LwMesh/TDMA/nwk/src/nwk.c **** *  @brief Increases the lock counter and sets a busy state
 146:../../../stack/LwMesh/TDMA/nwk/src/nwk.c **** *****************************************************************************/
 147:../../../stack/LwMesh/TDMA/nwk/src/nwk.c **** void NWK_Lock(void)
 148:../../../stack/LwMesh/TDMA/nwk/src/nwk.c **** {
 290               		.loc 1 148 0
 291               		.cfi_startproc
 292 011c CF93      		push r28
 293               	.LCFI19:
 294               		.cfi_def_cfa_offset 3
 295               		.cfi_offset 28, -2
 296 011e DF93      		push r29
 297               	.LCFI20:
 298               		.cfi_def_cfa_offset 4
 299               		.cfi_offset 29, -3
 300 0120 CDB7      		in r28,__SP_L__
 301 0122 DEB7      		in r29,__SP_H__
 302               	.LCFI21:
 303               		.cfi_def_cfa_register 28
 304               	/* prologue: function */
 305               	/* frame size = 0 */
 306               	/* stack size = 2 */
 307               	.L__stack_usage = 2
 149:../../../stack/LwMesh/TDMA/nwk/src/nwk.c **** 	nwkIb.lock++;
 308               		.loc 1 149 0
 309 0124 8091 0000 		lds r24,nwkIb+38
 310 0128 9091 0000 		lds r25,nwkIb+38+1
 311 012c 0196      		adiw r24,1
 312 012e 9093 0000 		sts nwkIb+38+1,r25
 313 0132 8093 0000 		sts nwkIb+38,r24
 150:../../../stack/LwMesh/TDMA/nwk/src/nwk.c **** }
 314               		.loc 1 150 0
 315 0136 0000      		nop
 316               	/* epilogue start */
 317 0138 DF91      		pop r29
 318 013a CF91      		pop r28
 319 013c 0895      		ret
 320               		.cfi_endproc
 321               	.LFE71:
 323               	.global	NWK_Unlock
 325               	NWK_Unlock:
 326               	.LFB72:
 151:../../../stack/LwMesh/TDMA/nwk/src/nwk.c **** 
 152:../../../stack/LwMesh/TDMA/nwk/src/nwk.c **** /*************************************************************************//**
 153:../../../stack/LwMesh/TDMA/nwk/src/nwk.c **** *  @brief Decreases the lock counter and sets a free state if counter reaches 0
 154:../../../stack/LwMesh/TDMA/nwk/src/nwk.c **** *****************************************************************************/
 155:../../../stack/LwMesh/TDMA/nwk/src/nwk.c **** void NWK_Unlock(void)
 156:../../../stack/LwMesh/TDMA/nwk/src/nwk.c **** {
 327               		.loc 1 156 0
 328               		.cfi_startproc
 329 013e CF93      		push r28
 330               	.LCFI22:
 331               		.cfi_def_cfa_offset 3
 332               		.cfi_offset 28, -2
 333 0140 DF93      		push r29
 334               	.LCFI23:
 335               		.cfi_def_cfa_offset 4
 336               		.cfi_offset 29, -3
 337 0142 CDB7      		in r28,__SP_L__
 338 0144 DEB7      		in r29,__SP_H__
 339               	.LCFI24:
 340               		.cfi_def_cfa_register 28
 341               	/* prologue: function */
 342               	/* frame size = 0 */
 343               	/* stack size = 2 */
 344               	.L__stack_usage = 2
 157:../../../stack/LwMesh/TDMA/nwk/src/nwk.c **** 	nwkIb.lock--;
 345               		.loc 1 157 0
 346 0146 8091 0000 		lds r24,nwkIb+38
 347 014a 9091 0000 		lds r25,nwkIb+38+1
 348 014e 0197      		sbiw r24,1
 349 0150 9093 0000 		sts nwkIb+38+1,r25
 350 0154 8093 0000 		sts nwkIb+38,r24
 158:../../../stack/LwMesh/TDMA/nwk/src/nwk.c **** }
 351               		.loc 1 158 0
 352 0158 0000      		nop
 353               	/* epilogue start */
 354 015a DF91      		pop r29
 355 015c CF91      		pop r28
 356 015e 0895      		ret
 357               		.cfi_endproc
 358               	.LFE72:
 360               	.global	NWK_SleepReq
 362               	NWK_SleepReq:
 363               	.LFB73:
 159:../../../stack/LwMesh/TDMA/nwk/src/nwk.c **** 
 160:../../../stack/LwMesh/TDMA/nwk/src/nwk.c **** /*************************************************************************//**
 161:../../../stack/LwMesh/TDMA/nwk/src/nwk.c **** *  @brief Puts network layer to a sleeping state
 162:../../../stack/LwMesh/TDMA/nwk/src/nwk.c **** *****************************************************************************/
 163:../../../stack/LwMesh/TDMA/nwk/src/nwk.c **** void NWK_SleepReq(void)
 164:../../../stack/LwMesh/TDMA/nwk/src/nwk.c **** {
 364               		.loc 1 164 0
 365               		.cfi_startproc
 366 0160 CF93      		push r28
 367               	.LCFI25:
 368               		.cfi_def_cfa_offset 3
 369               		.cfi_offset 28, -2
 370 0162 DF93      		push r29
 371               	.LCFI26:
 372               		.cfi_def_cfa_offset 4
 373               		.cfi_offset 29, -3
 374 0164 CDB7      		in r28,__SP_L__
 375 0166 DEB7      		in r29,__SP_H__
 376               	.LCFI27:
 377               		.cfi_def_cfa_register 28
 378               	/* prologue: function */
 379               	/* frame size = 0 */
 380               	/* stack size = 2 */
 381               	.L__stack_usage = 2
 165:../../../stack/LwMesh/TDMA/nwk/src/nwk.c **** 	PHY_Sleep();
 382               		.loc 1 165 0
 383 0168 0E94 0000 		call PHY_Sleep
 166:../../../stack/LwMesh/TDMA/nwk/src/nwk.c **** }
 384               		.loc 1 166 0
 385 016c 0000      		nop
 386               	/* epilogue start */
 387 016e DF91      		pop r29
 388 0170 CF91      		pop r28
 389 0172 0895      		ret
 390               		.cfi_endproc
 391               	.LFE73:
 393               	.global	NWK_WakeupReq
 395               	NWK_WakeupReq:
 396               	.LFB74:
 167:../../../stack/LwMesh/TDMA/nwk/src/nwk.c **** 
 168:../../../stack/LwMesh/TDMA/nwk/src/nwk.c **** /*************************************************************************//**
 169:../../../stack/LwMesh/TDMA/nwk/src/nwk.c **** *  @brief Puts network layer to an active state
 170:../../../stack/LwMesh/TDMA/nwk/src/nwk.c **** *****************************************************************************/
 171:../../../stack/LwMesh/TDMA/nwk/src/nwk.c **** void NWK_WakeupReq(void)
 172:../../../stack/LwMesh/TDMA/nwk/src/nwk.c **** {
 397               		.loc 1 172 0
 398               		.cfi_startproc
 399 0174 CF93      		push r28
 400               	.LCFI28:
 401               		.cfi_def_cfa_offset 3
 402               		.cfi_offset 28, -2
 403 0176 DF93      		push r29
 404               	.LCFI29:
 405               		.cfi_def_cfa_offset 4
 406               		.cfi_offset 29, -3
 407 0178 CDB7      		in r28,__SP_L__
 408 017a DEB7      		in r29,__SP_H__
 409               	.LCFI30:
 410               		.cfi_def_cfa_register 28
 411               	/* prologue: function */
 412               	/* frame size = 0 */
 413               	/* stack size = 2 */
 414               	.L__stack_usage = 2
 173:../../../stack/LwMesh/TDMA/nwk/src/nwk.c **** 	PHY_Wakeup();
 415               		.loc 1 173 0
 416 017c 0E94 0000 		call PHY_Wakeup
 174:../../../stack/LwMesh/TDMA/nwk/src/nwk.c **** }
 417               		.loc 1 174 0
 418 0180 0000      		nop
 419               	/* epilogue start */
 420 0182 DF91      		pop r29
 421 0184 CF91      		pop r28
 422 0186 0895      		ret
 423               		.cfi_endproc
 424               	.LFE74:
 426               		.section	.rodata
 427               	.LC0:
 428 0000 03        		.byte	3
 429 0001 08        		.byte	8
 430 0002 1A        		.byte	26
 431 0003 40        		.byte	64
 432 0004 80        		.byte	-128
 433 0005 BE        		.byte	-66
 434 0006 E6        		.byte	-26
 435 0007 F7        		.byte	-9
 436 0008 FC        		.byte	-4
 437               		.text
 438               	.global	NWK_LinearizeLqi
 440               	NWK_LinearizeLqi:
 441               	.LFB75:
 175:../../../stack/LwMesh/TDMA/nwk/src/nwk.c **** 
 176:../../../stack/LwMesh/TDMA/nwk/src/nwk.c **** /*************************************************************************//**
 177:../../../stack/LwMesh/TDMA/nwk/src/nwk.c **** *  @brief Calculates linearized value for the given value of the LQI
 178:../../../stack/LwMesh/TDMA/nwk/src/nwk.c **** *  @param[in] lqi LQI value as provided by the transceiver
 179:../../../stack/LwMesh/TDMA/nwk/src/nwk.c **** *  @return linearized value directly proportional to the probability of delivery
 180:../../../stack/LwMesh/TDMA/nwk/src/nwk.c **** *****************************************************************************/
 181:../../../stack/LwMesh/TDMA/nwk/src/nwk.c **** uint8_t NWK_LinearizeLqi(uint8_t lqi)
 182:../../../stack/LwMesh/TDMA/nwk/src/nwk.c **** {
 442               		.loc 1 182 0
 443               		.cfi_startproc
 444 0188 CF93      		push r28
 445               	.LCFI31:
 446               		.cfi_def_cfa_offset 3
 447               		.cfi_offset 28, -2
 448 018a DF93      		push r29
 449               	.LCFI32:
 450               		.cfi_def_cfa_offset 4
 451               		.cfi_offset 29, -3
 452 018c CDB7      		in r28,__SP_L__
 453 018e DEB7      		in r29,__SP_H__
 454               	.LCFI33:
 455               		.cfi_def_cfa_register 28
 456 0190 2C97      		sbiw r28,12
 457               	.LCFI34:
 458               		.cfi_def_cfa_offset 16
 459 0192 0FB6      		in __tmp_reg__,__SREG__
 460 0194 F894      		cli
 461 0196 DEBF      		out __SP_H__,r29
 462 0198 0FBE      		out __SREG__,__tmp_reg__
 463 019a CDBF      		out __SP_L__,r28
 464               	/* prologue: function */
 465               	/* frame size = 12 */
 466               	/* stack size = 14 */
 467               	.L__stack_usage = 14
 468 019c 8C87      		std Y+12,r24
 183:../../../stack/LwMesh/TDMA/nwk/src/nwk.c **** 	const uint8_t val[] = { 3, 8, 26, 64, 128, 190, 230, 247, 252 };
 469               		.loc 1 183 0
 470 019e 89E0      		ldi r24,lo8(9)
 471 01a0 E0E0      		ldi r30,lo8(.LC0)
 472 01a2 F0E0      		ldi r31,hi8(.LC0)
 473 01a4 DE01      		movw r26,r28
 474 01a6 1396      		adiw r26,3
 475               		0:
 476 01a8 0190      		ld r0,Z+
 477 01aa 0D92      		st X+,r0
 478 01ac 8A95      		dec r24
 479 01ae 01F4      		brne 0b
 184:../../../stack/LwMesh/TDMA/nwk/src/nwk.c **** 	uint8_t cl = 25;
 480               		.loc 1 184 0
 481 01b0 89E1      		ldi r24,lo8(25)
 482 01b2 8983      		std Y+1,r24
 483               	.LBB3:
 185:../../../stack/LwMesh/TDMA/nwk/src/nwk.c **** 
 186:../../../stack/LwMesh/TDMA/nwk/src/nwk.c **** 	for (uint8_t i = 0; i < sizeof(val); i++) {
 484               		.loc 1 186 0
 485 01b4 1A82      		std Y+2,__zero_reg__
 486 01b6 00C0      		rjmp .L15
 487               	.L18:
 187:../../../stack/LwMesh/TDMA/nwk/src/nwk.c **** 		if (lqi < cl) {
 488               		.loc 1 187 0
 489 01b8 9C85      		ldd r25,Y+12
 490 01ba 8981      		ldd r24,Y+1
 491 01bc 9817      		cp r25,r24
 492 01be 00F4      		brsh .L16
 188:../../../stack/LwMesh/TDMA/nwk/src/nwk.c **** 			return val[i];
 493               		.loc 1 188 0
 494 01c0 8A81      		ldd r24,Y+2
 495 01c2 882F      		mov r24,r24
 496 01c4 90E0      		ldi r25,0
 497 01c6 9E01      		movw r18,r28
 498 01c8 2D5F      		subi r18,-3
 499 01ca 3F4F      		sbci r19,-1
 500 01cc 820F      		add r24,r18
 501 01ce 931F      		adc r25,r19
 502 01d0 FC01      		movw r30,r24
 503 01d2 8081      		ld r24,Z
 504 01d4 00C0      		rjmp .L19
 505               	.L16:
 189:../../../stack/LwMesh/TDMA/nwk/src/nwk.c **** 		}
 190:../../../stack/LwMesh/TDMA/nwk/src/nwk.c **** 
 191:../../../stack/LwMesh/TDMA/nwk/src/nwk.c **** 		cl += 25;
 506               		.loc 1 191 0 discriminator 2
 507 01d6 8981      		ldd r24,Y+1
 508 01d8 875E      		subi r24,lo8(-(25))
 509 01da 8983      		std Y+1,r24
 186:../../../stack/LwMesh/TDMA/nwk/src/nwk.c **** 		if (lqi < cl) {
 510               		.loc 1 186 0 discriminator 2
 511 01dc 8A81      		ldd r24,Y+2
 512 01de 8F5F      		subi r24,lo8(-(1))
 513 01e0 8A83      		std Y+2,r24
 514               	.L15:
 186:../../../stack/LwMesh/TDMA/nwk/src/nwk.c **** 		if (lqi < cl) {
 515               		.loc 1 186 0 is_stmt 0 discriminator 1
 516 01e2 8A81      		ldd r24,Y+2
 517 01e4 8930      		cpi r24,lo8(9)
 518 01e6 00F0      		brlo .L18
 519               	.LBE3:
 192:../../../stack/LwMesh/TDMA/nwk/src/nwk.c **** 	}
 193:../../../stack/LwMesh/TDMA/nwk/src/nwk.c **** 
 194:../../../stack/LwMesh/TDMA/nwk/src/nwk.c **** 	return 255;
 520               		.loc 1 194 0 is_stmt 1
 521 01e8 8FEF      		ldi r24,lo8(-1)
 522               	.L19:
 523               	/* epilogue start */
 195:../../../stack/LwMesh/TDMA/nwk/src/nwk.c **** }
 524               		.loc 1 195 0 discriminator 1
 525 01ea 2C96      		adiw r28,12
 526 01ec 0FB6      		in __tmp_reg__,__SREG__
 527 01ee F894      		cli
 528 01f0 DEBF      		out __SP_H__,r29
 529 01f2 0FBE      		out __SREG__,__tmp_reg__
 530 01f4 CDBF      		out __SP_L__,r28
 531 01f6 DF91      		pop r29
 532 01f8 CF91      		pop r28
 533 01fa 0895      		ret
 534               		.cfi_endproc
 535               	.LFE75:
 537               	.global	NWK_TaskHandler
 539               	NWK_TaskHandler:
 540               	.LFB76:
 196:../../../stack/LwMesh/TDMA/nwk/src/nwk.c **** 
 197:../../../stack/LwMesh/TDMA/nwk/src/nwk.c **** /*************************************************************************//**
 198:../../../stack/LwMesh/TDMA/nwk/src/nwk.c **** *  @brief Network layer task handler
 199:../../../stack/LwMesh/TDMA/nwk/src/nwk.c **** *****************************************************************************/
 200:../../../stack/LwMesh/TDMA/nwk/src/nwk.c **** void NWK_TaskHandler(void)
 201:../../../stack/LwMesh/TDMA/nwk/src/nwk.c **** {
 541               		.loc 1 201 0
 542               		.cfi_startproc
 543 01fc CF93      		push r28
 544               	.LCFI35:
 545               		.cfi_def_cfa_offset 3
 546               		.cfi_offset 28, -2
 547 01fe DF93      		push r29
 548               	.LCFI36:
 549               		.cfi_def_cfa_offset 4
 550               		.cfi_offset 29, -3
 551 0200 CDB7      		in r28,__SP_L__
 552 0202 DEB7      		in r29,__SP_H__
 553               	.LCFI37:
 554               		.cfi_def_cfa_register 28
 555               	/* prologue: function */
 556               	/* frame size = 0 */
 557               	/* stack size = 2 */
 558               	.L__stack_usage = 2
 202:../../../stack/LwMesh/TDMA/nwk/src/nwk.c **** 	nwkRxTaskHandler();
 559               		.loc 1 202 0
 560 0204 0E94 0000 		call nwkRxTaskHandler
 203:../../../stack/LwMesh/TDMA/nwk/src/nwk.c **** 	nwkTxTaskHandler();
 561               		.loc 1 203 0
 562 0208 0E94 0000 		call nwkTxTaskHandler
 204:../../../stack/LwMesh/TDMA/nwk/src/nwk.c **** 	nwkDataReqTaskHandler();
 563               		.loc 1 204 0
 564 020c 0E94 0000 		call nwkDataReqTaskHandler
 205:../../../stack/LwMesh/TDMA/nwk/src/nwk.c **** #ifdef NWK_ENABLE_SECURITY
 206:../../../stack/LwMesh/TDMA/nwk/src/nwk.c **** 	nwkSecurityTaskHandler();
 207:../../../stack/LwMesh/TDMA/nwk/src/nwk.c **** #endif
 208:../../../stack/LwMesh/TDMA/nwk/src/nwk.c **** }
 565               		.loc 1 208 0
 566 0210 0000      		nop
 567               	/* epilogue start */
 568 0212 DF91      		pop r29
 569 0214 CF91      		pop r28
 570 0216 0895      		ret
 571               		.cfi_endproc
 572               	.LFE76:
 574               	.Letext0:
 575               		.file 2 "c:\\program files (x86)\\atmel\\studio\\7.0\\toolchain\\avr8\\avr8-gnu-toolchain\\avr\\in
 576               		.file 3 "../../../stack/LwMesh/TDMA/nwk/inc/nwkRx.h"
 577               		.file 4 "../../../stack/LwMesh/TDMA/nwk/inc/nwk.h"
 578               		.file 5 "config/config.h"
DEFINED SYMBOLS
                            *ABS*:00000000 nwk.c
C:\Users\GUILHE~1\AppData\Local\Temp\ccYxLOa4.s:2      *ABS*:0000003e __SP_H__
C:\Users\GUILHE~1\AppData\Local\Temp\ccYxLOa4.s:3      *ABS*:0000003d __SP_L__
C:\Users\GUILHE~1\AppData\Local\Temp\ccYxLOa4.s:4      *ABS*:0000003f __SREG__
C:\Users\GUILHE~1\AppData\Local\Temp\ccYxLOa4.s:5      *ABS*:0000003b __RAMPZ__
C:\Users\GUILHE~1\AppData\Local\Temp\ccYxLOa4.s:6      *ABS*:00000000 __tmp_reg__
C:\Users\GUILHE~1\AppData\Local\Temp\ccYxLOa4.s:7      *ABS*:00000001 __zero_reg__
                            *COM*:00000001 n
                            *COM*:00000004 tTS
                            *COM*:00000028 nwkIb
C:\Users\GUILHE~1\AppData\Local\Temp\ccYxLOa4.s:16     .text:00000000 NWK_Init
C:\Users\GUILHE~1\AppData\Local\Temp\ccYxLOa4.s:99     .text:00000066 NWK_SetAddr
C:\Users\GUILHE~1\AppData\Local\Temp\ccYxLOa4.s:146    .text:00000094 NWK_SetPanId
C:\Users\GUILHE~1\AppData\Local\Temp\ccYxLOa4.s:193    .text:000000c2 NWK_OpenEndpoint
C:\Users\GUILHE~1\AppData\Local\Temp\ccYxLOa4.s:248    .text:000000fc NWK_Busy
C:\Users\GUILHE~1\AppData\Local\Temp\ccYxLOa4.s:288    .text:0000011c NWK_Lock
C:\Users\GUILHE~1\AppData\Local\Temp\ccYxLOa4.s:325    .text:0000013e NWK_Unlock
C:\Users\GUILHE~1\AppData\Local\Temp\ccYxLOa4.s:362    .text:00000160 NWK_SleepReq
C:\Users\GUILHE~1\AppData\Local\Temp\ccYxLOa4.s:395    .text:00000174 NWK_WakeupReq
C:\Users\GUILHE~1\AppData\Local\Temp\ccYxLOa4.s:440    .text:00000188 NWK_LinearizeLqi
C:\Users\GUILHE~1\AppData\Local\Temp\ccYxLOa4.s:539    .text:000001fc NWK_TaskHandler

UNDEFINED SYMBOLS
nwkTxInit
nwkRxInit
nwkFrameInit
nwkDataReqInit
nwkGroupInit
PHY_SetShortAddr
PHY_SetPanId
PHY_Sleep
PHY_Wakeup
nwkRxTaskHandler
nwkTxTaskHandler
nwkDataReqTaskHandler
__do_copy_data
__do_clear_bss
