   1               		.file	"nwkDataReq.c"
   2               	__SP_H__ = 0x3e
   3               	__SP_L__ = 0x3d
   4               	__SREG__ = 0x3f
   5               	__RAMPZ__ = 0x3b
   6               	__tmp_reg__ = 0
   7               	__zero_reg__ = 1
   8               		.text
   9               	.Ltext0:
  10               		.cfi_sections	.debug_frame
  11               		.comm	n,1,1
  12               		.comm	tTS,4,1
  13               		.comm	macLLDNnumTimeSlots,2,1
  14               		.comm	macLLDNnumUplinkTS,2,1
  15               		.comm	macLLDNRetransmitTS,2,1
  16               		.section	.bss.nwkDataReqQueue,"aw",@nobits
  19               	nwkDataReqQueue:
  20 0000 0000      		.zero	2
  21               		.text
  22               	.global	nwkDataReqInit
  24               	nwkDataReqInit:
  25               	.LFB66:
  26               		.file 1 "../../../stack/LwMesh/TDMA/nwk/src/nwkDataReq.c"
   1:../../../stack/LwMesh/TDMA/nwk/src/nwkDataReq.c **** /**
   2:../../../stack/LwMesh/TDMA/nwk/src/nwkDataReq.c ****  * \file nwkDataReq.c
   3:../../../stack/LwMesh/TDMA/nwk/src/nwkDataReq.c ****  *
   4:../../../stack/LwMesh/TDMA/nwk/src/nwkDataReq.c ****  * \brief NWK_DataReq() implementation
   5:../../../stack/LwMesh/TDMA/nwk/src/nwkDataReq.c ****  *
   6:../../../stack/LwMesh/TDMA/nwk/src/nwkDataReq.c ****  * Copyright (C) 2014 Atmel Corporation. All rights reserved.
   7:../../../stack/LwMesh/TDMA/nwk/src/nwkDataReq.c ****  *
   8:../../../stack/LwMesh/TDMA/nwk/src/nwkDataReq.c ****  * \asf_license_start
   9:../../../stack/LwMesh/TDMA/nwk/src/nwkDataReq.c ****  *
  10:../../../stack/LwMesh/TDMA/nwk/src/nwkDataReq.c ****  * Redistribution and use in source and binary forms, with or without
  11:../../../stack/LwMesh/TDMA/nwk/src/nwkDataReq.c ****  * modification, are permitted provided that the following conditions are met:
  12:../../../stack/LwMesh/TDMA/nwk/src/nwkDataReq.c ****  *
  13:../../../stack/LwMesh/TDMA/nwk/src/nwkDataReq.c ****  * 1. Redistributions of source code must retain the above copyright notice,
  14:../../../stack/LwMesh/TDMA/nwk/src/nwkDataReq.c ****  *    this list of conditions and the following disclaimer.
  15:../../../stack/LwMesh/TDMA/nwk/src/nwkDataReq.c ****  *
  16:../../../stack/LwMesh/TDMA/nwk/src/nwkDataReq.c ****  * 2. Redistributions in binary form must reproduce the above copyright notice,
  17:../../../stack/LwMesh/TDMA/nwk/src/nwkDataReq.c ****  *    this list of conditions and the following disclaimer in the documentation
  18:../../../stack/LwMesh/TDMA/nwk/src/nwkDataReq.c ****  *    and/or other materials provided with the distribution.
  19:../../../stack/LwMesh/TDMA/nwk/src/nwkDataReq.c ****  *
  20:../../../stack/LwMesh/TDMA/nwk/src/nwkDataReq.c ****  * 3. The name of Atmel may not be used to endorse or promote products derived
  21:../../../stack/LwMesh/TDMA/nwk/src/nwkDataReq.c ****  *    from this software without specific prior written permission.
  22:../../../stack/LwMesh/TDMA/nwk/src/nwkDataReq.c ****  *
  23:../../../stack/LwMesh/TDMA/nwk/src/nwkDataReq.c ****  * 4. This software may only be redistributed and used in connection with an
  24:../../../stack/LwMesh/TDMA/nwk/src/nwkDataReq.c ****  *    Atmel microcontroller product.
  25:../../../stack/LwMesh/TDMA/nwk/src/nwkDataReq.c ****  *
  26:../../../stack/LwMesh/TDMA/nwk/src/nwkDataReq.c ****  * THIS SOFTWARE IS PROVIDED BY ATMEL "AS IS" AND ANY EXPRESS OR IMPLIED
  27:../../../stack/LwMesh/TDMA/nwk/src/nwkDataReq.c ****  * WARRANTIES, INCLUDING, BUT NOT LIMITED TO, THE IMPLIED WARRANTIES OF
  28:../../../stack/LwMesh/TDMA/nwk/src/nwkDataReq.c ****  * MERCHANTABILITY, FITNESS FOR A PARTICULAR PURPOSE AND NON-INFRINGEMENT ARE
  29:../../../stack/LwMesh/TDMA/nwk/src/nwkDataReq.c ****  * EXPRESSLY AND SPECIFICALLY DISCLAIMED. IN NO EVENT SHALL ATMEL BE LIABLE FOR
  30:../../../stack/LwMesh/TDMA/nwk/src/nwkDataReq.c ****  * ANY DIRECT, INDIRECT, INCIDENTAL, SPECIAL, EXEMPLARY, OR CONSEQUENTIAL
  31:../../../stack/LwMesh/TDMA/nwk/src/nwkDataReq.c ****  * DAMAGES (INCLUDING, BUT NOT LIMITED TO, PROCUREMENT OF SUBSTITUTE GOODS
  32:../../../stack/LwMesh/TDMA/nwk/src/nwkDataReq.c ****  * OR SERVICES; LOSS OF USE, DATA, OR PROFITS; OR BUSINESS INTERRUPTION)
  33:../../../stack/LwMesh/TDMA/nwk/src/nwkDataReq.c ****  * HOWEVER CAUSED AND ON ANY THEORY OF LIABILITY, WHETHER IN CONTRACT,
  34:../../../stack/LwMesh/TDMA/nwk/src/nwkDataReq.c ****  * STRICT LIABILITY, OR TORT (INCLUDING NEGLIGENCE OR OTHERWISE) ARISING IN
  35:../../../stack/LwMesh/TDMA/nwk/src/nwkDataReq.c ****  * ANY WAY OUT OF THE USE OF THIS SOFTWARE, EVEN IF ADVISED OF THE
  36:../../../stack/LwMesh/TDMA/nwk/src/nwkDataReq.c ****  * POSSIBILITY OF SUCH DAMAGE.
  37:../../../stack/LwMesh/TDMA/nwk/src/nwkDataReq.c ****  *
  38:../../../stack/LwMesh/TDMA/nwk/src/nwkDataReq.c ****  * \asf_license_stop
  39:../../../stack/LwMesh/TDMA/nwk/src/nwkDataReq.c ****  *
  40:../../../stack/LwMesh/TDMA/nwk/src/nwkDataReq.c ****  *
  41:../../../stack/LwMesh/TDMA/nwk/src/nwkDataReq.c ****  */
  42:../../../stack/LwMesh/TDMA/nwk/src/nwkDataReq.c **** 
  43:../../../stack/LwMesh/TDMA/nwk/src/nwkDataReq.c **** /*
  44:../../../stack/LwMesh/TDMA/nwk/src/nwkDataReq.c ****  * Copyright (c) 2014, Atmel Corporation All rights reserved.
  45:../../../stack/LwMesh/TDMA/nwk/src/nwkDataReq.c ****  *
  46:../../../stack/LwMesh/TDMA/nwk/src/nwkDataReq.c ****  * Licensed under Atmel's Limited License Agreement --> EULA.txt
  47:../../../stack/LwMesh/TDMA/nwk/src/nwkDataReq.c ****  */
  48:../../../stack/LwMesh/TDMA/nwk/src/nwkDataReq.c **** 
  49:../../../stack/LwMesh/TDMA/nwk/src/nwkDataReq.c **** /*- Includes ---------------------------------------------------------------*/
  50:../../../stack/LwMesh/TDMA/nwk/src/nwkDataReq.c **** #include <stdlib.h>
  51:../../../stack/LwMesh/TDMA/nwk/src/nwkDataReq.c **** #include <stdint.h>
  52:../../../stack/LwMesh/TDMA/nwk/src/nwkDataReq.c **** #include <stdbool.h>
  53:../../../stack/LwMesh/TDMA/nwk/src/nwkDataReq.c **** #include <string.h>
  54:../../../stack/LwMesh/TDMA/nwk/src/nwkDataReq.c **** #include "sysConfig.h"
  55:../../../stack/LwMesh/TDMA/nwk/src/nwkDataReq.c **** #include "nwk.h"
  56:../../../stack/LwMesh/TDMA/nwk/src/nwkDataReq.c **** #include "nwkTx.h"
  57:../../../stack/LwMesh/TDMA/nwk/src/nwkDataReq.c **** #include "nwkFrame.h"
  58:../../../stack/LwMesh/TDMA/nwk/src/nwkDataReq.c **** #include "nwkGroup.h"
  59:../../../stack/LwMesh/TDMA/nwk/src/nwkDataReq.c **** #include "nwkDataReq.h"
  60:../../../stack/LwMesh/TDMA/nwk/src/nwkDataReq.c **** 
  61:../../../stack/LwMesh/TDMA/nwk/src/nwkDataReq.c **** /*- Types ------------------------------------------------------------------*/
  62:../../../stack/LwMesh/TDMA/nwk/src/nwkDataReq.c **** enum {
  63:../../../stack/LwMesh/TDMA/nwk/src/nwkDataReq.c **** 	NWK_DATA_REQ_STATE_INITIAL,
  64:../../../stack/LwMesh/TDMA/nwk/src/nwkDataReq.c **** 	NWK_DATA_REQ_STATE_WAIT_CONF,
  65:../../../stack/LwMesh/TDMA/nwk/src/nwkDataReq.c **** 	NWK_DATA_REQ_STATE_CONFIRM,
  66:../../../stack/LwMesh/TDMA/nwk/src/nwkDataReq.c **** };
  67:../../../stack/LwMesh/TDMA/nwk/src/nwkDataReq.c **** 
  68:../../../stack/LwMesh/TDMA/nwk/src/nwkDataReq.c **** /*- Prototypes -------------------------------------------------------------*/
  69:../../../stack/LwMesh/TDMA/nwk/src/nwkDataReq.c **** static void nwkDataReqTxConf(NwkFrame_t *frame);
  70:../../../stack/LwMesh/TDMA/nwk/src/nwkDataReq.c **** 
  71:../../../stack/LwMesh/TDMA/nwk/src/nwkDataReq.c **** /*- Variables --------------------------------------------------------------*/
  72:../../../stack/LwMesh/TDMA/nwk/src/nwkDataReq.c **** static NWK_DataReq_t *nwkDataReqQueue;
  73:../../../stack/LwMesh/TDMA/nwk/src/nwkDataReq.c **** 
  74:../../../stack/LwMesh/TDMA/nwk/src/nwkDataReq.c **** /*- Implementations --------------------------------------------------------*/
  75:../../../stack/LwMesh/TDMA/nwk/src/nwkDataReq.c **** 
  76:../../../stack/LwMesh/TDMA/nwk/src/nwkDataReq.c **** /*************************************************************************//**
  77:../../../stack/LwMesh/TDMA/nwk/src/nwkDataReq.c **** *  @brief Initializes the Data Request module
  78:../../../stack/LwMesh/TDMA/nwk/src/nwkDataReq.c **** *****************************************************************************/
  79:../../../stack/LwMesh/TDMA/nwk/src/nwkDataReq.c **** void nwkDataReqInit(void)
  80:../../../stack/LwMesh/TDMA/nwk/src/nwkDataReq.c **** {
  27               		.loc 1 80 0
  28               		.cfi_startproc
  29 0000 CF93      		push r28
  30               	.LCFI0:
  31               		.cfi_def_cfa_offset 3
  32               		.cfi_offset 28, -2
  33 0002 DF93      		push r29
  34               	.LCFI1:
  35               		.cfi_def_cfa_offset 4
  36               		.cfi_offset 29, -3
  37 0004 CDB7      		in r28,__SP_L__
  38 0006 DEB7      		in r29,__SP_H__
  39               	.LCFI2:
  40               		.cfi_def_cfa_register 28
  41               	/* prologue: function */
  42               	/* frame size = 0 */
  43               	/* stack size = 2 */
  44               	.L__stack_usage = 2
  81:../../../stack/LwMesh/TDMA/nwk/src/nwkDataReq.c **** 	nwkDataReqQueue = NULL;
  45               		.loc 1 81 0
  46 0008 1092 0000 		sts nwkDataReqQueue+1,__zero_reg__
  47 000c 1092 0000 		sts nwkDataReqQueue,__zero_reg__
  82:../../../stack/LwMesh/TDMA/nwk/src/nwkDataReq.c **** }
  48               		.loc 1 82 0
  49 0010 0000      		nop
  50               	/* epilogue start */
  51 0012 DF91      		pop r29
  52 0014 CF91      		pop r28
  53 0016 0895      		ret
  54               		.cfi_endproc
  55               	.LFE66:
  57               	.global	NWK_DataReq
  59               	NWK_DataReq:
  60               	.LFB67:
  83:../../../stack/LwMesh/TDMA/nwk/src/nwkDataReq.c **** 
  84:../../../stack/LwMesh/TDMA/nwk/src/nwkDataReq.c **** /*************************************************************************//**
  85:../../../stack/LwMesh/TDMA/nwk/src/nwkDataReq.c **** *  @brief Adds request @a req to the queue of outgoing requests
  86:../../../stack/LwMesh/TDMA/nwk/src/nwkDataReq.c **** *  @param[in] req Pointer to the request parameters
  87:../../../stack/LwMesh/TDMA/nwk/src/nwkDataReq.c **** *****************************************************************************/
  88:../../../stack/LwMesh/TDMA/nwk/src/nwkDataReq.c **** void NWK_DataReq(NWK_DataReq_t *req)
  89:../../../stack/LwMesh/TDMA/nwk/src/nwkDataReq.c **** {
  61               		.loc 1 89 0
  62               		.cfi_startproc
  63 0018 CF93      		push r28
  64               	.LCFI3:
  65               		.cfi_def_cfa_offset 3
  66               		.cfi_offset 28, -2
  67 001a DF93      		push r29
  68               	.LCFI4:
  69               		.cfi_def_cfa_offset 4
  70               		.cfi_offset 29, -3
  71 001c 00D0      		rcall .
  72               	.LCFI5:
  73               		.cfi_def_cfa_offset 6
  74 001e CDB7      		in r28,__SP_L__
  75 0020 DEB7      		in r29,__SP_H__
  76               	.LCFI6:
  77               		.cfi_def_cfa_register 28
  78               	/* prologue: function */
  79               	/* frame size = 2 */
  80               	/* stack size = 4 */
  81               	.L__stack_usage = 4
  82 0022 9A83      		std Y+2,r25
  83 0024 8983      		std Y+1,r24
  90:../../../stack/LwMesh/TDMA/nwk/src/nwkDataReq.c **** 	req->state = NWK_DATA_REQ_STATE_INITIAL;
  84               		.loc 1 90 0
  85 0026 8981      		ldd r24,Y+1
  86 0028 9A81      		ldd r25,Y+2
  87 002a FC01      		movw r30,r24
  88 002c 1482      		std Z+4,__zero_reg__
  91:../../../stack/LwMesh/TDMA/nwk/src/nwkDataReq.c **** 	req->status = NWK_SUCCESS_STATUS;
  89               		.loc 1 91 0
  90 002e 8981      		ldd r24,Y+1
  91 0030 9A81      		ldd r25,Y+2
  92 0032 FC01      		movw r30,r24
  93 0034 128A      		std Z+18,__zero_reg__
  92:../../../stack/LwMesh/TDMA/nwk/src/nwkDataReq.c **** 	req->frame = NULL;
  94               		.loc 1 92 0
  95 0036 8981      		ldd r24,Y+1
  96 0038 9A81      		ldd r25,Y+2
  97 003a FC01      		movw r30,r24
  98 003c 1382      		std Z+3,__zero_reg__
  99 003e 1282      		std Z+2,__zero_reg__
  93:../../../stack/LwMesh/TDMA/nwk/src/nwkDataReq.c **** 
  94:../../../stack/LwMesh/TDMA/nwk/src/nwkDataReq.c **** 	nwkIb.lock++;
 100               		.loc 1 94 0
 101 0040 8091 0000 		lds r24,nwkIb+38
 102 0044 9091 0000 		lds r25,nwkIb+38+1
 103 0048 0196      		adiw r24,1
 104 004a 9093 0000 		sts nwkIb+38+1,r25
 105 004e 8093 0000 		sts nwkIb+38,r24
  95:../../../stack/LwMesh/TDMA/nwk/src/nwkDataReq.c **** 
  96:../../../stack/LwMesh/TDMA/nwk/src/nwkDataReq.c **** 	if (NULL == nwkDataReqQueue) {
 106               		.loc 1 96 0
 107 0052 8091 0000 		lds r24,nwkDataReqQueue
 108 0056 9091 0000 		lds r25,nwkDataReqQueue+1
 109 005a 892B      		or r24,r25
 110 005c 01F4      		brne .L3
  97:../../../stack/LwMesh/TDMA/nwk/src/nwkDataReq.c **** 		req->next = NULL;
 111               		.loc 1 97 0
 112 005e 8981      		ldd r24,Y+1
 113 0060 9A81      		ldd r25,Y+2
 114 0062 FC01      		movw r30,r24
 115 0064 1182      		std Z+1,__zero_reg__
 116 0066 1082      		st Z,__zero_reg__
  98:../../../stack/LwMesh/TDMA/nwk/src/nwkDataReq.c **** 		nwkDataReqQueue = req;
 117               		.loc 1 98 0
 118 0068 8981      		ldd r24,Y+1
 119 006a 9A81      		ldd r25,Y+2
 120 006c 9093 0000 		sts nwkDataReqQueue+1,r25
 121 0070 8093 0000 		sts nwkDataReqQueue,r24
  99:../../../stack/LwMesh/TDMA/nwk/src/nwkDataReq.c **** 	} else {
 100:../../../stack/LwMesh/TDMA/nwk/src/nwkDataReq.c **** 		req->next = nwkDataReqQueue;
 101:../../../stack/LwMesh/TDMA/nwk/src/nwkDataReq.c **** 		nwkDataReqQueue = req;
 102:../../../stack/LwMesh/TDMA/nwk/src/nwkDataReq.c **** 	}
 103:../../../stack/LwMesh/TDMA/nwk/src/nwkDataReq.c **** }
 122               		.loc 1 103 0
 123 0074 00C0      		rjmp .L5
 124               	.L3:
 100:../../../stack/LwMesh/TDMA/nwk/src/nwkDataReq.c **** 		nwkDataReqQueue = req;
 125               		.loc 1 100 0
 126 0076 2091 0000 		lds r18,nwkDataReqQueue
 127 007a 3091 0000 		lds r19,nwkDataReqQueue+1
 128 007e 8981      		ldd r24,Y+1
 129 0080 9A81      		ldd r25,Y+2
 130 0082 FC01      		movw r30,r24
 131 0084 3183      		std Z+1,r19
 132 0086 2083      		st Z,r18
 101:../../../stack/LwMesh/TDMA/nwk/src/nwkDataReq.c **** 	}
 133               		.loc 1 101 0
 134 0088 8981      		ldd r24,Y+1
 135 008a 9A81      		ldd r25,Y+2
 136 008c 9093 0000 		sts nwkDataReqQueue+1,r25
 137 0090 8093 0000 		sts nwkDataReqQueue,r24
 138               	.L5:
 139               		.loc 1 103 0
 140 0094 0000      		nop
 141               	/* epilogue start */
 142 0096 0F90      		pop __tmp_reg__
 143 0098 0F90      		pop __tmp_reg__
 144 009a DF91      		pop r29
 145 009c CF91      		pop r28
 146 009e 0895      		ret
 147               		.cfi_endproc
 148               	.LFE67:
 151               	nwkDataReqSendFrame:
 152               	.LFB68:
 104:../../../stack/LwMesh/TDMA/nwk/src/nwkDataReq.c **** 
 105:../../../stack/LwMesh/TDMA/nwk/src/nwkDataReq.c **** /*************************************************************************//**
 106:../../../stack/LwMesh/TDMA/nwk/src/nwkDataReq.c **** *  @brief Prepares and send outgoing frame based on the request @a req
 107:../../../stack/LwMesh/TDMA/nwk/src/nwkDataReq.c **** * parameters
 108:../../../stack/LwMesh/TDMA/nwk/src/nwkDataReq.c **** *  @param[in] req Pointer to the request parameters
 109:../../../stack/LwMesh/TDMA/nwk/src/nwkDataReq.c **** *****************************************************************************/
 110:../../../stack/LwMesh/TDMA/nwk/src/nwkDataReq.c **** static void nwkDataReqSendFrame(NWK_DataReq_t *req)
 111:../../../stack/LwMesh/TDMA/nwk/src/nwkDataReq.c **** {
 153               		.loc 1 111 0
 154               		.cfi_startproc
 155 00a0 CF93      		push r28
 156               	.LCFI7:
 157               		.cfi_def_cfa_offset 3
 158               		.cfi_offset 28, -2
 159 00a2 DF93      		push r29
 160               	.LCFI8:
 161               		.cfi_def_cfa_offset 4
 162               		.cfi_offset 29, -3
 163 00a4 CDB7      		in r28,__SP_L__
 164 00a6 DEB7      		in r29,__SP_H__
 165               	.LCFI9:
 166               		.cfi_def_cfa_register 28
 167 00a8 2897      		sbiw r28,8
 168               	.LCFI10:
 169               		.cfi_def_cfa_offset 12
 170 00aa 0FB6      		in __tmp_reg__,__SREG__
 171 00ac F894      		cli
 172 00ae DEBF      		out __SP_H__,r29
 173 00b0 0FBE      		out __SREG__,__tmp_reg__
 174 00b2 CDBF      		out __SP_L__,r28
 175               	/* prologue: function */
 176               	/* frame size = 8 */
 177               	/* stack size = 10 */
 178               	.L__stack_usage = 10
 179 00b4 9887      		std Y+8,r25
 180 00b6 8F83      		std Y+7,r24
 112:../../../stack/LwMesh/TDMA/nwk/src/nwkDataReq.c **** 	NwkFrame_t *frame;
 113:../../../stack/LwMesh/TDMA/nwk/src/nwkDataReq.c **** 	if(req->options < NWK_OPT_LLDN_BEACON ) // use original frame allocation
 181               		.loc 1 113 0
 182 00b8 8F81      		ldd r24,Y+7
 183 00ba 9885      		ldd r25,Y+8
 184 00bc FC01      		movw r30,r24
 185 00be 8185      		ldd r24,Z+9
 186 00c0 9285      		ldd r25,Z+10
 187 00c2 8034      		cpi r24,64
 188 00c4 9105      		cpc r25,__zero_reg__
 189 00c6 00F4      		brsh .L7
 114:../../../stack/LwMesh/TDMA/nwk/src/nwkDataReq.c **** 	{																			 	// this is not optimezed for
 115:../../../stack/LwMesh/TDMA/nwk/src/nwkDataReq.c **** 		if(NULL == (frame = nwkFrameAlloc()))	// NWK_OPT_BEACON
 190               		.loc 1 115 0
 191 00c8 0E94 0000 		call nwkFrameAlloc
 192 00cc 9A83      		std Y+2,r25
 193 00ce 8983      		std Y+1,r24
 194 00d0 8981      		ldd r24,Y+1
 195 00d2 9A81      		ldd r25,Y+2
 196 00d4 892B      		or r24,r25
 197 00d6 01F4      		brne .L8
 116:../../../stack/LwMesh/TDMA/nwk/src/nwkDataReq.c **** 		{
 117:../../../stack/LwMesh/TDMA/nwk/src/nwkDataReq.c **** 			req->state = NWK_DATA_REQ_STATE_CONFIRM;
 198               		.loc 1 117 0
 199 00d8 8F81      		ldd r24,Y+7
 200 00da 9885      		ldd r25,Y+8
 201 00dc 22E0      		ldi r18,lo8(2)
 202 00de FC01      		movw r30,r24
 203 00e0 2483      		std Z+4,r18
 118:../../../stack/LwMesh/TDMA/nwk/src/nwkDataReq.c **** 			req->status = NWK_OUT_OF_MEMORY_STATUS;
 204               		.loc 1 118 0
 205 00e2 8F81      		ldd r24,Y+7
 206 00e4 9885      		ldd r25,Y+8
 207 00e6 22E0      		ldi r18,lo8(2)
 208 00e8 FC01      		movw r30,r24
 209 00ea 228B      		std Z+18,r18
 119:../../../stack/LwMesh/TDMA/nwk/src/nwkDataReq.c **** 			return;
 210               		.loc 1 119 0
 211 00ec 00C0      		rjmp .L6
 212               	.L7:
 120:../../../stack/LwMesh/TDMA/nwk/src/nwkDataReq.c **** 		}
 121:../../../stack/LwMesh/TDMA/nwk/src/nwkDataReq.c **** 	}	else {		// use LLDN allocation, alocattes depending on header size
 122:../../../stack/LwMesh/TDMA/nwk/src/nwkDataReq.c **** 		if( NULL == (frame = ((req->options & NWK_OPT_LLDN_BEACON) ? nwkFrameAlloc_LLDN(true) : nwkFrameA
 213               		.loc 1 122 0
 214 00ee 8F81      		ldd r24,Y+7
 215 00f0 9885      		ldd r25,Y+8
 216 00f2 FC01      		movw r30,r24
 217 00f4 8185      		ldd r24,Z+9
 218 00f6 9285      		ldd r25,Z+10
 219 00f8 8074      		andi r24,64
 220 00fa 9927      		clr r25
 221 00fc 892B      		or r24,r25
 222 00fe 01F0      		breq .L10
 223               		.loc 1 122 0 is_stmt 0 discriminator 1
 224 0100 81E0      		ldi r24,lo8(1)
 225 0102 0E94 0000 		call nwkFrameAlloc_LLDN
 226 0106 00C0      		rjmp .L11
 227               	.L10:
 228               		.loc 1 122 0 discriminator 2
 229 0108 80E0      		ldi r24,0
 230 010a 0E94 0000 		call nwkFrameAlloc_LLDN
 231               	.L11:
 232               		.loc 1 122 0 discriminator 4
 233 010e 9A83      		std Y+2,r25
 234 0110 8983      		std Y+1,r24
 235 0112 8981      		ldd r24,Y+1
 236 0114 9A81      		ldd r25,Y+2
 237 0116 892B      		or r24,r25
 238 0118 01F4      		brne .L8
 123:../../../stack/LwMesh/TDMA/nwk/src/nwkDataReq.c **** 		{
 124:../../../stack/LwMesh/TDMA/nwk/src/nwkDataReq.c **** 			// if there isn't space avaible in frame buffer queue, requested message
 125:../../../stack/LwMesh/TDMA/nwk/src/nwkDataReq.c **** 			// can't be process
 126:../../../stack/LwMesh/TDMA/nwk/src/nwkDataReq.c **** 			req->state = NWK_DATA_REQ_STATE_CONFIRM;
 239               		.loc 1 126 0 is_stmt 1
 240 011a 8F81      		ldd r24,Y+7
 241 011c 9885      		ldd r25,Y+8
 242 011e 22E0      		ldi r18,lo8(2)
 243 0120 FC01      		movw r30,r24
 244 0122 2483      		std Z+4,r18
 127:../../../stack/LwMesh/TDMA/nwk/src/nwkDataReq.c **** 			req->status = NWK_OUT_OF_MEMORY_STATUS;
 245               		.loc 1 127 0
 246 0124 8F81      		ldd r24,Y+7
 247 0126 9885      		ldd r25,Y+8
 248 0128 22E0      		ldi r18,lo8(2)
 249 012a FC01      		movw r30,r24
 250 012c 228B      		std Z+18,r18
 128:../../../stack/LwMesh/TDMA/nwk/src/nwkDataReq.c **** 			return;
 251               		.loc 1 128 0
 252 012e 00C0      		rjmp .L6
 253               	.L8:
 129:../../../stack/LwMesh/TDMA/nwk/src/nwkDataReq.c **** 		}
 130:../../../stack/LwMesh/TDMA/nwk/src/nwkDataReq.c **** 	}
 131:../../../stack/LwMesh/TDMA/nwk/src/nwkDataReq.c **** 
 132:../../../stack/LwMesh/TDMA/nwk/src/nwkDataReq.c **** 	if(req->options & NWK_OPT_LLDN_BEACON)
 254               		.loc 1 132 0
 255 0130 8F81      		ldd r24,Y+7
 256 0132 9885      		ldd r25,Y+8
 257 0134 FC01      		movw r30,r24
 258 0136 8185      		ldd r24,Z+9
 259 0138 9285      		ldd r25,Z+10
 260 013a 8074      		andi r24,64
 261 013c 9927      		clr r25
 262 013e 892B      		or r24,r25
 263 0140 01F4      		brne .+2
 264 0142 00C0      		rjmp .L12
 265               	.LBB2:
 133:../../../stack/LwMesh/TDMA/nwk/src/nwkDataReq.c **** 	{
 134:../../../stack/LwMesh/TDMA/nwk/src/nwkDataReq.c **** 		nwkTxBeaconFrameLLDN(frame);
 266               		.loc 1 134 0
 267 0144 8981      		ldd r24,Y+1
 268 0146 9A81      		ldd r25,Y+2
 269 0148 0E94 0000 		call nwkTxBeaconFrameLLDN
 135:../../../stack/LwMesh/TDMA/nwk/src/nwkDataReq.c **** 		frame->tx.control = 0;
 270               		.loc 1 135 0
 271 014c 8981      		ldd r24,Y+1
 272 014e 9A81      		ldd r25,Y+2
 273 0150 8A57      		subi r24,122
 274 0152 9F4F      		sbci r25,-1
 275 0154 FC01      		movw r30,r24
 276 0156 1082      		st Z,__zero_reg__
 136:../../../stack/LwMesh/TDMA/nwk/src/nwkDataReq.c **** 		// Set Flag depending on current state of coordinator
 137:../../../stack/LwMesh/TDMA/nwk/src/nwkDataReq.c **** 		if (req->options & NWK_OPT_ONLINE_STATE)
 277               		.loc 1 137 0
 278 0158 8F81      		ldd r24,Y+7
 279 015a 9885      		ldd r25,Y+8
 280 015c FC01      		movw r30,r24
 281 015e 8185      		ldd r24,Z+9
 282 0160 9285      		ldd r25,Z+10
 283 0162 8078      		andi r24,128
 284 0164 9927      		clr r25
 285 0166 892B      		or r24,r25
 286 0168 01F0      		breq .L13
 138:../../../stack/LwMesh/TDMA/nwk/src/nwkDataReq.c **** 		{
 139:../../../stack/LwMesh/TDMA/nwk/src/nwkDataReq.c **** 			if(macLLDNRetransmitTS > 0)
 287               		.loc 1 139 0
 288 016a 8091 0000 		lds r24,macLLDNRetransmitTS
 289 016e 9091 0000 		lds r25,macLLDNRetransmitTS+1
 290 0172 1816      		cp __zero_reg__,r24
 291 0174 1906      		cpc __zero_reg__,r25
 292 0176 04F4      		brge .L14
 140:../../../stack/LwMesh/TDMA/nwk/src/nwkDataReq.c **** 			{
 141:../../../stack/LwMesh/TDMA/nwk/src/nwkDataReq.c **** 				memcpy(frame->payload, req->data, req->size);
 293               		.loc 1 141 0
 294 0178 8F81      		ldd r24,Y+7
 295 017a 9885      		ldd r25,Y+8
 296 017c FC01      		movw r30,r24
 297 017e 8785      		ldd r24,Z+15
 298 0180 482F      		mov r20,r24
 299 0182 50E0      		ldi r21,0
 300 0184 8F81      		ldd r24,Y+7
 301 0186 9885      		ldd r25,Y+8
 302 0188 FC01      		movw r30,r24
 303 018a 2585      		ldd r18,Z+13
 304 018c 3685      		ldd r19,Z+14
 305 018e 8981      		ldd r24,Y+1
 306 0190 9A81      		ldd r25,Y+2
 307 0192 8F57      		subi r24,127
 308 0194 9F4F      		sbci r25,-1
 309 0196 FC01      		movw r30,r24
 310 0198 8081      		ld r24,Z
 311 019a 9181      		ldd r25,Z+1
 312 019c B901      		movw r22,r18
 313 019e 0E94 0000 		call memcpy
 142:../../../stack/LwMesh/TDMA/nwk/src/nwkDataReq.c **** 				frame->size += req->size;
 314               		.loc 1 142 0
 315 01a2 8981      		ldd r24,Y+1
 316 01a4 9A81      		ldd r25,Y+2
 317 01a6 FC01      		movw r30,r24
 318 01a8 2181      		ldd r18,Z+1
 319 01aa 8F81      		ldd r24,Y+7
 320 01ac 9885      		ldd r25,Y+8
 321 01ae FC01      		movw r30,r24
 322 01b0 8785      		ldd r24,Z+15
 323 01b2 280F      		add r18,r24
 324 01b4 8981      		ldd r24,Y+1
 325 01b6 9A81      		ldd r25,Y+2
 326 01b8 FC01      		movw r30,r24
 327 01ba 2183      		std Z+1,r18
 328               	.L14:
 143:../../../stack/LwMesh/TDMA/nwk/src/nwkDataReq.c **** 			}
 144:../../../stack/LwMesh/TDMA/nwk/src/nwkDataReq.c **** 			frame->LLbeacon.Flags.txState = 0b000; // online mode
 329               		.loc 1 144 0
 330 01bc 8981      		ldd r24,Y+1
 331 01be 9A81      		ldd r25,Y+2
 332 01c0 FC01      		movw r30,r24
 333 01c2 2581      		ldd r18,Z+5
 334 01c4 287F      		andi r18,lo8(-8)
 335 01c6 FC01      		movw r30,r24
 336 01c8 2583      		std Z+5,r18
 337 01ca 00C0      		rjmp .L15
 338               	.L13:
 145:../../../stack/LwMesh/TDMA/nwk/src/nwkDataReq.c **** 		}
 146:../../../stack/LwMesh/TDMA/nwk/src/nwkDataReq.c **** 		else if (req->options & NWK_OPT_DISCOVERY_STATE)
 339               		.loc 1 146 0
 340 01cc 8F81      		ldd r24,Y+7
 341 01ce 9885      		ldd r25,Y+8
 342 01d0 FC01      		movw r30,r24
 343 01d2 8185      		ldd r24,Z+9
 344 01d4 9285      		ldd r25,Z+10
 345 01d6 8827      		clr r24
 346 01d8 9170      		andi r25,1
 347 01da 892B      		or r24,r25
 348 01dc 01F0      		breq .L16
 147:../../../stack/LwMesh/TDMA/nwk/src/nwkDataReq.c **** 			frame->LLbeacon.Flags.txState = 0b100; // discovery mode
 349               		.loc 1 147 0
 350 01de 8981      		ldd r24,Y+1
 351 01e0 9A81      		ldd r25,Y+2
 352 01e2 FC01      		movw r30,r24
 353 01e4 2581      		ldd r18,Z+5
 354 01e6 287F      		andi r18,lo8(-8)
 355 01e8 2460      		ori r18,lo8(4)
 356 01ea FC01      		movw r30,r24
 357 01ec 2583      		std Z+5,r18
 358 01ee 00C0      		rjmp .L15
 359               	.L16:
 148:../../../stack/LwMesh/TDMA/nwk/src/nwkDataReq.c **** 		else if (req->options & NWK_OPT_CONFIG_STATE)
 360               		.loc 1 148 0
 361 01f0 8F81      		ldd r24,Y+7
 362 01f2 9885      		ldd r25,Y+8
 363 01f4 FC01      		movw r30,r24
 364 01f6 8185      		ldd r24,Z+9
 365 01f8 9285      		ldd r25,Z+10
 366 01fa 8827      		clr r24
 367 01fc 9270      		andi r25,2
 368 01fe 892B      		or r24,r25
 369 0200 01F0      		breq .L17
 149:../../../stack/LwMesh/TDMA/nwk/src/nwkDataReq.c **** 			frame->LLbeacon.Flags.txState = 0b110; // configuration mode
 370               		.loc 1 149 0
 371 0202 8981      		ldd r24,Y+1
 372 0204 9A81      		ldd r25,Y+2
 373 0206 FC01      		movw r30,r24
 374 0208 2581      		ldd r18,Z+5
 375 020a 287F      		andi r18,lo8(-8)
 376 020c 2660      		ori r18,lo8(6)
 377 020e FC01      		movw r30,r24
 378 0210 2583      		std Z+5,r18
 379 0212 00C0      		rjmp .L15
 380               	.L17:
 150:../../../stack/LwMesh/TDMA/nwk/src/nwkDataReq.c **** 		else if (req->options & NWK_OPT_RESET_STATE)
 381               		.loc 1 150 0
 382 0214 8F81      		ldd r24,Y+7
 383 0216 9885      		ldd r25,Y+8
 384 0218 FC01      		movw r30,r24
 385 021a 8185      		ldd r24,Z+9
 386 021c 9285      		ldd r25,Z+10
 387 021e 8827      		clr r24
 388 0220 9470      		andi r25,4
 389 0222 892B      		or r24,r25
 390 0224 01F0      		breq .L15
 151:../../../stack/LwMesh/TDMA/nwk/src/nwkDataReq.c **** 			frame->LLbeacon.Flags.txState = 0b111; // full reset mode
 391               		.loc 1 151 0
 392 0226 8981      		ldd r24,Y+1
 393 0228 9A81      		ldd r25,Y+2
 394 022a FC01      		movw r30,r24
 395 022c 2581      		ldd r18,Z+5
 396 022e 2760      		ori r18,lo8(7)
 397 0230 FC01      		movw r30,r24
 398 0232 2583      		std Z+5,r18
 399               	.L15:
 152:../../../stack/LwMesh/TDMA/nwk/src/nwkDataReq.c **** 
 153:../../../stack/LwMesh/TDMA/nwk/src/nwkDataReq.c **** 		// set biderectional time slots: 0 - downlink 1 - uplink
 154:../../../stack/LwMesh/TDMA/nwk/src/nwkDataReq.c **** 		frame->LLbeacon.Flags.txDir 	= 0b0;
 400               		.loc 1 154 0
 401 0234 8981      		ldd r24,Y+1
 402 0236 9A81      		ldd r25,Y+2
 403 0238 FC01      		movw r30,r24
 404 023a 2581      		ldd r18,Z+5
 405 023c 277F      		andi r18,lo8(-9)
 406 023e FC01      		movw r30,r24
 407 0240 2583      		std Z+5,r18
 155:../../../stack/LwMesh/TDMA/nwk/src/nwkDataReq.c **** 		frame->LLbeacon.Flags.reserved 	= 0b0;
 408               		.loc 1 155 0
 409 0242 8981      		ldd r24,Y+1
 410 0244 9A81      		ldd r25,Y+2
 411 0246 FC01      		movw r30,r24
 412 0248 2581      		ldd r18,Z+5
 413 024a 2F7E      		andi r18,lo8(-17)
 414 024c FC01      		movw r30,r24
 415 024e 2583      		std Z+5,r18
 156:../../../stack/LwMesh/TDMA/nwk/src/nwkDataReq.c **** 		// set number of managment timeslots
 157:../../../stack/LwMesh/TDMA/nwk/src/nwkDataReq.c **** 		frame->LLbeacon.Flags.numBaseMgmtTimeslots = ((req->options & NWK_OPT_ONLINE_STATE) ? numBaseTime
 416               		.loc 1 157 0
 417 0250 8981      		ldd r24,Y+1
 418 0252 9A81      		ldd r25,Y+2
 419 0254 FC01      		movw r30,r24
 420 0256 2581      		ldd r18,Z+5
 421 0258 2F71      		andi r18,lo8(31)
 422 025a 2064      		ori r18,lo8(64)
 423 025c FC01      		movw r30,r24
 424 025e 2583      		std Z+5,r18
 158:../../../stack/LwMesh/TDMA/nwk/src/nwkDataReq.c **** 
 159:../../../stack/LwMesh/TDMA/nwk/src/nwkDataReq.c **** 		if (req->options & 	NWK_OPT_SECOND_BEACON)
 425               		.loc 1 159 0
 426 0260 8F81      		ldd r24,Y+7
 427 0262 9885      		ldd r25,Y+8
 428 0264 FC01      		movw r30,r24
 429 0266 8185      		ldd r24,Z+9
 430 0268 9285      		ldd r25,Z+10
 431 026a 8827      		clr r24
 432 026c 9870      		andi r25,8
 433 026e 892B      		or r24,r25
 434 0270 01F0      		breq .L18
 160:../../../stack/LwMesh/TDMA/nwk/src/nwkDataReq.c **** 		 frame->LLbeacon.confSeqNumber = 0x01;
 435               		.loc 1 160 0
 436 0272 8981      		ldd r24,Y+1
 437 0274 9A81      		ldd r25,Y+2
 438 0276 21E0      		ldi r18,lo8(1)
 439 0278 FC01      		movw r30,r24
 440 027a 2783      		std Z+7,r18
 441 027c 00C0      		rjmp .L19
 442               	.L18:
 161:../../../stack/LwMesh/TDMA/nwk/src/nwkDataReq.c **** 		else if (req->options & NWK_OPT_THIRD_BEACON)
 443               		.loc 1 161 0
 444 027e 8F81      		ldd r24,Y+7
 445 0280 9885      		ldd r25,Y+8
 446 0282 FC01      		movw r30,r24
 447 0284 8185      		ldd r24,Z+9
 448 0286 9285      		ldd r25,Z+10
 449 0288 8827      		clr r24
 450 028a 9071      		andi r25,16
 451 028c 892B      		or r24,r25
 452 028e 01F0      		breq .L20
 162:../../../stack/LwMesh/TDMA/nwk/src/nwkDataReq.c **** 			frame->LLbeacon.confSeqNumber = 0x02;
 453               		.loc 1 162 0
 454 0290 8981      		ldd r24,Y+1
 455 0292 9A81      		ldd r25,Y+2
 456 0294 22E0      		ldi r18,lo8(2)
 457 0296 FC01      		movw r30,r24
 458 0298 2783      		std Z+7,r18
 459 029a 00C0      		rjmp .L19
 460               	.L20:
 163:../../../stack/LwMesh/TDMA/nwk/src/nwkDataReq.c **** 		else frame->LLbeacon.confSeqNumber = 0x00;
 461               		.loc 1 163 0
 462 029c 8981      		ldd r24,Y+1
 463 029e 9A81      		ldd r25,Y+2
 464 02a0 FC01      		movw r30,r24
 465 02a2 1782      		std Z+7,__zero_reg__
 466               	.L19:
 164:../../../stack/LwMesh/TDMA/nwk/src/nwkDataReq.c **** 
 165:../../../stack/LwMesh/TDMA/nwk/src/nwkDataReq.c **** 		frame->LLbeacon.TimeSlotSize = n; 
 467               		.loc 1 165 0
 468 02a4 2091 0000 		lds r18,n
 469 02a8 8981      		ldd r24,Y+1
 470 02aa 9A81      		ldd r25,Y+2
 471 02ac FC01      		movw r30,r24
 472 02ae 2087      		std Z+8,r18
 166:../../../stack/LwMesh/TDMA/nwk/src/nwkDataReq.c **** 
 167:../../../stack/LwMesh/TDMA/nwk/src/nwkDataReq.c **** 		uint8_t* shortAddr = (uint8_t* )APP_PANID;
 473               		.loc 1 167 0
 474 02b0 8EEF      		ldi r24,lo8(-2)
 475 02b2 9AEC      		ldi r25,lo8(-54)
 476 02b4 9C83      		std Y+4,r25
 477 02b6 8B83      		std Y+3,r24
 168:../../../stack/LwMesh/TDMA/nwk/src/nwkDataReq.c **** 		frame->LLbeacon.PanId = APP_PANID;
 478               		.loc 1 168 0
 479 02b8 8981      		ldd r24,Y+1
 480 02ba 9A81      		ldd r25,Y+2
 481 02bc 2EEF      		ldi r18,lo8(-2)
 482 02be FC01      		movw r30,r24
 483 02c0 2683      		std Z+6,r18
 484               	.LBE2:
 485 02c2 00C0      		rjmp .L21
 486               	.L12:
 169:../../../stack/LwMesh/TDMA/nwk/src/nwkDataReq.c **** 		// set Frame Control, Security Header and Sequence Number fields
 170:../../../stack/LwMesh/TDMA/nwk/src/nwkDataReq.c **** 	}
 171:../../../stack/LwMesh/TDMA/nwk/src/nwkDataReq.c **** 	else if(req->options & NWK_OPT_MAC_COMMAND 
 487               		.loc 1 171 0
 488 02c4 8F81      		ldd r24,Y+7
 489 02c6 9885      		ldd r25,Y+8
 490 02c8 FC01      		movw r30,r24
 491 02ca 8185      		ldd r24,Z+9
 492 02cc 9285      		ldd r25,Z+10
 493 02ce 9923      		tst r25
 494 02d0 04F0      		brlt .L22
 172:../../../stack/LwMesh/TDMA/nwk/src/nwkDataReq.c **** 		|| req->options & NWK_OPT_LLDN_DATA
 495               		.loc 1 172 0
 496 02d2 8F81      		ldd r24,Y+7
 497 02d4 9885      		ldd r25,Y+8
 498 02d6 FC01      		movw r30,r24
 499 02d8 8185      		ldd r24,Z+9
 500 02da 9285      		ldd r25,Z+10
 501 02dc 8827      		clr r24
 502 02de 9072      		andi r25,32
 503 02e0 892B      		or r24,r25
 504 02e2 01F4      		brne .L22
 173:../../../stack/LwMesh/TDMA/nwk/src/nwkDataReq.c **** 		|| req->options & NWK_OPT_LLDN_ACK )
 505               		.loc 1 173 0
 506 02e4 8F81      		ldd r24,Y+7
 507 02e6 9885      		ldd r25,Y+8
 508 02e8 FC01      		movw r30,r24
 509 02ea 8185      		ldd r24,Z+9
 510 02ec 9285      		ldd r25,Z+10
 511 02ee 8827      		clr r24
 512 02f0 9074      		andi r25,64
 513 02f2 892B      		or r24,r25
 514 02f4 01F0      		breq .L23
 515               	.L22:
 174:../../../stack/LwMesh/TDMA/nwk/src/nwkDataReq.c **** 	{
 175:../../../stack/LwMesh/TDMA/nwk/src/nwkDataReq.c **** 		nwkTxMacCommandFrameLLDN(frame, req->options);
 516               		.loc 1 175 0
 517 02f6 8F81      		ldd r24,Y+7
 518 02f8 9885      		ldd r25,Y+8
 519 02fa FC01      		movw r30,r24
 520 02fc 2185      		ldd r18,Z+9
 521 02fe 3285      		ldd r19,Z+10
 522 0300 8981      		ldd r24,Y+1
 523 0302 9A81      		ldd r25,Y+2
 524 0304 B901      		movw r22,r18
 525 0306 0E94 0000 		call nwkTxMacCommandFrameLLDN
 176:../../../stack/LwMesh/TDMA/nwk/src/nwkDataReq.c **** 		frame->tx.control = 0;
 526               		.loc 1 176 0
 527 030a 8981      		ldd r24,Y+1
 528 030c 9A81      		ldd r25,Y+2
 529 030e 8A57      		subi r24,122
 530 0310 9F4F      		sbci r25,-1
 531 0312 FC01      		movw r30,r24
 532 0314 1082      		st Z,__zero_reg__
 177:../../../stack/LwMesh/TDMA/nwk/src/nwkDataReq.c **** 		memcpy(frame->payload, req->data, req->size);
 533               		.loc 1 177 0
 534 0316 8F81      		ldd r24,Y+7
 535 0318 9885      		ldd r25,Y+8
 536 031a FC01      		movw r30,r24
 537 031c 8785      		ldd r24,Z+15
 538 031e 482F      		mov r20,r24
 539 0320 50E0      		ldi r21,0
 540 0322 8F81      		ldd r24,Y+7
 541 0324 9885      		ldd r25,Y+8
 542 0326 FC01      		movw r30,r24
 543 0328 2585      		ldd r18,Z+13
 544 032a 3685      		ldd r19,Z+14
 545 032c 8981      		ldd r24,Y+1
 546 032e 9A81      		ldd r25,Y+2
 547 0330 8F57      		subi r24,127
 548 0332 9F4F      		sbci r25,-1
 549 0334 FC01      		movw r30,r24
 550 0336 8081      		ld r24,Z
 551 0338 9181      		ldd r25,Z+1
 552 033a B901      		movw r22,r18
 553 033c 0E94 0000 		call memcpy
 178:../../../stack/LwMesh/TDMA/nwk/src/nwkDataReq.c **** 		frame->size += req->size;
 554               		.loc 1 178 0
 555 0340 8981      		ldd r24,Y+1
 556 0342 9A81      		ldd r25,Y+2
 557 0344 FC01      		movw r30,r24
 558 0346 2181      		ldd r18,Z+1
 559 0348 8F81      		ldd r24,Y+7
 560 034a 9885      		ldd r25,Y+8
 561 034c FC01      		movw r30,r24
 562 034e 8785      		ldd r24,Z+15
 563 0350 280F      		add r18,r24
 564 0352 8981      		ldd r24,Y+1
 565 0354 9A81      		ldd r25,Y+2
 566 0356 FC01      		movw r30,r24
 567 0358 2183      		std Z+1,r18
 568 035a 00C0      		rjmp .L21
 569               	.L23:
 179:../../../stack/LwMesh/TDMA/nwk/src/nwkDataReq.c **** 	}
 180:../../../stack/LwMesh/TDMA/nwk/src/nwkDataReq.c **** 	else if(req->options & NWK_OPT_BEACON )
 570               		.loc 1 180 0
 571 035c 8F81      		ldd r24,Y+7
 572 035e 9885      		ldd r25,Y+8
 573 0360 FC01      		movw r30,r24
 574 0362 8185      		ldd r24,Z+9
 575 0364 9285      		ldd r25,Z+10
 576 0366 8072      		andi r24,32
 577 0368 9927      		clr r25
 578 036a 892B      		or r24,r25
 579 036c 01F4      		brne .+2
 580 036e 00C0      		rjmp .L24
 181:../../../stack/LwMesh/TDMA/nwk/src/nwkDataReq.c **** 	{
 182:../../../stack/LwMesh/TDMA/nwk/src/nwkDataReq.c **** 		frame->tx.control = 0;
 581               		.loc 1 182 0
 582 0370 8981      		ldd r24,Y+1
 583 0372 9A81      		ldd r25,Y+2
 584 0374 8A57      		subi r24,122
 585 0376 9F4F      		sbci r25,-1
 586 0378 FC01      		movw r30,r24
 587 037a 1082      		st Z,__zero_reg__
 183:../../../stack/LwMesh/TDMA/nwk/src/nwkDataReq.c **** 
 184:../../../stack/LwMesh/TDMA/nwk/src/nwkDataReq.c **** 		frame->beacon.macSFS.beaconOrder = BI_COEF;
 588               		.loc 1 184 0
 589 037c 8981      		ldd r24,Y+1
 590 037e 9A81      		ldd r25,Y+2
 591 0380 FC01      		movw r30,r24
 592 0382 2185      		ldd r18,Z+9
 593 0384 207F      		andi r18,lo8(-16)
 594 0386 2860      		ori r18,lo8(8)
 595 0388 FC01      		movw r30,r24
 596 038a 2187      		std Z+9,r18
 185:../../../stack/LwMesh/TDMA/nwk/src/nwkDataReq.c **** 		frame->beacon.macSFS.superframeOrder = SD_COEF;
 597               		.loc 1 185 0
 598 038c 8981      		ldd r24,Y+1
 599 038e 9A81      		ldd r25,Y+2
 600 0390 FC01      		movw r30,r24
 601 0392 2185      		ldd r18,Z+9
 602 0394 2F70      		andi r18,lo8(15)
 603 0396 2066      		ori r18,lo8(96)
 604 0398 FC01      		movw r30,r24
 605 039a 2187      		std Z+9,r18
 186:../../../stack/LwMesh/TDMA/nwk/src/nwkDataReq.c **** 		frame->beacon.macSFS.finalCAPslot = FINAL_CAP_SLOT;
 606               		.loc 1 186 0
 607 039c 8981      		ldd r24,Y+1
 608 039e 9A81      		ldd r25,Y+2
 609 03a0 FC01      		movw r30,r24
 610 03a2 2285      		ldd r18,Z+10
 611 03a4 207F      		andi r18,lo8(-16)
 612 03a6 2160      		ori r18,lo8(1)
 613 03a8 FC01      		movw r30,r24
 614 03aa 2287      		std Z+10,r18
 187:../../../stack/LwMesh/TDMA/nwk/src/nwkDataReq.c **** 		frame->beacon.macSFS.BatteryLifeExtension = TDMA_BATTERY_EXTENSION;
 615               		.loc 1 187 0
 616 03ac 8981      		ldd r24,Y+1
 617 03ae 9A81      		ldd r25,Y+2
 618 03b0 FC01      		movw r30,r24
 619 03b2 2285      		ldd r18,Z+10
 620 03b4 2061      		ori r18,lo8(16)
 621 03b6 FC01      		movw r30,r24
 622 03b8 2287      		std Z+10,r18
 188:../../../stack/LwMesh/TDMA/nwk/src/nwkDataReq.c **** 		frame->beacon.macSFS.PANCoordinator = 1;
 623               		.loc 1 188 0
 624 03ba 8981      		ldd r24,Y+1
 625 03bc 9A81      		ldd r25,Y+2
 626 03be FC01      		movw r30,r24
 627 03c0 2285      		ldd r18,Z+10
 628 03c2 2064      		ori r18,lo8(64)
 629 03c4 FC01      		movw r30,r24
 630 03c6 2287      		std Z+10,r18
 189:../../../stack/LwMesh/TDMA/nwk/src/nwkDataReq.c **** 		frame->beacon.macSFS.AssociationPermit = 0;
 631               		.loc 1 189 0
 632 03c8 8981      		ldd r24,Y+1
 633 03ca 9A81      		ldd r25,Y+2
 634 03cc FC01      		movw r30,r24
 635 03ce 2285      		ldd r18,Z+10
 636 03d0 2F77      		andi r18,lo8(127)
 637 03d2 FC01      		movw r30,r24
 638 03d4 2287      		std Z+10,r18
 190:../../../stack/LwMesh/TDMA/nwk/src/nwkDataReq.c **** 
 191:../../../stack/LwMesh/TDMA/nwk/src/nwkDataReq.c **** 		frame->beacon.macGTS = 0;
 639               		.loc 1 191 0
 640 03d6 8981      		ldd r24,Y+1
 641 03d8 9A81      		ldd r25,Y+2
 642 03da FC01      		movw r30,r24
 643 03dc 1386      		std Z+11,__zero_reg__
 192:../../../stack/LwMesh/TDMA/nwk/src/nwkDataReq.c **** 		frame->beacon.macPending = 0;
 644               		.loc 1 192 0
 645 03de 8981      		ldd r24,Y+1
 646 03e0 9A81      		ldd r25,Y+2
 647 03e2 FC01      		movw r30,r24
 648 03e4 1486      		std Z+12,__zero_reg__
 193:../../../stack/LwMesh/TDMA/nwk/src/nwkDataReq.c **** 
 194:../../../stack/LwMesh/TDMA/nwk/src/nwkDataReq.c **** 		memcpy(frame->payload, req->data, req->size);
 649               		.loc 1 194 0
 650 03e6 8F81      		ldd r24,Y+7
 651 03e8 9885      		ldd r25,Y+8
 652 03ea FC01      		movw r30,r24
 653 03ec 8785      		ldd r24,Z+15
 654 03ee 482F      		mov r20,r24
 655 03f0 50E0      		ldi r21,0
 656 03f2 8F81      		ldd r24,Y+7
 657 03f4 9885      		ldd r25,Y+8
 658 03f6 FC01      		movw r30,r24
 659 03f8 2585      		ldd r18,Z+13
 660 03fa 3685      		ldd r19,Z+14
 661 03fc 8981      		ldd r24,Y+1
 662 03fe 9A81      		ldd r25,Y+2
 663 0400 8F57      		subi r24,127
 664 0402 9F4F      		sbci r25,-1
 665 0404 FC01      		movw r30,r24
 666 0406 8081      		ld r24,Z
 667 0408 9181      		ldd r25,Z+1
 668 040a B901      		movw r22,r18
 669 040c 0E94 0000 		call memcpy
 195:../../../stack/LwMesh/TDMA/nwk/src/nwkDataReq.c **** 		frame->size += req->size;
 670               		.loc 1 195 0
 671 0410 8981      		ldd r24,Y+1
 672 0412 9A81      		ldd r25,Y+2
 673 0414 FC01      		movw r30,r24
 674 0416 2181      		ldd r18,Z+1
 675 0418 8F81      		ldd r24,Y+7
 676 041a 9885      		ldd r25,Y+8
 677 041c FC01      		movw r30,r24
 678 041e 8785      		ldd r24,Z+15
 679 0420 280F      		add r18,r24
 680 0422 8981      		ldd r24,Y+1
 681 0424 9A81      		ldd r25,Y+2
 682 0426 FC01      		movw r30,r24
 683 0428 2183      		std Z+1,r18
 196:../../../stack/LwMesh/TDMA/nwk/src/nwkDataReq.c **** 
 197:../../../stack/LwMesh/TDMA/nwk/src/nwkDataReq.c **** 		nwkTxBeaconFrame(frame);
 684               		.loc 1 197 0
 685 042a 8981      		ldd r24,Y+1
 686 042c 9A81      		ldd r25,Y+2
 687 042e 0E94 0000 		call nwkTxBeaconFrame
 688 0432 00C0      		rjmp .L21
 689               	.L24:
 198:../../../stack/LwMesh/TDMA/nwk/src/nwkDataReq.c **** 	}
 199:../../../stack/LwMesh/TDMA/nwk/src/nwkDataReq.c **** 	else if(req->options != 0)
 690               		.loc 1 199 0
 691 0434 8F81      		ldd r24,Y+7
 692 0436 9885      		ldd r25,Y+8
 693 0438 FC01      		movw r30,r24
 694 043a 8185      		ldd r24,Z+9
 695 043c 9285      		ldd r25,Z+10
 696 043e 892B      		or r24,r25
 697 0440 01F4      		brne .+2
 698 0442 00C0      		rjmp .L21
 200:../../../stack/LwMesh/TDMA/nwk/src/nwkDataReq.c **** 	{
 201:../../../stack/LwMesh/TDMA/nwk/src/nwkDataReq.c **** 		frame->tx.control = (req->options & NWK_OPT_BROADCAST_PAN_ID) ? NWK_TX_CONTROL_BROADCAST_PAN_ID :
 699               		.loc 1 201 0
 700 0444 8F81      		ldd r24,Y+7
 701 0446 9885      		ldd r25,Y+8
 702 0448 FC01      		movw r30,r24
 703 044a 8185      		ldd r24,Z+9
 704 044c 9285      		ldd r25,Z+10
 705 044e 8470      		andi r24,4
 706 0450 9927      		clr r25
 707 0452 21E0      		ldi r18,lo8(1)
 708 0454 892B      		or r24,r25
 709 0456 01F4      		brne .L25
 710 0458 20E0      		ldi r18,0
 711               	.L25:
 712 045a 8981      		ldd r24,Y+1
 713 045c 9A81      		ldd r25,Y+2
 714 045e 8A57      		subi r24,122
 715 0460 9F4F      		sbci r25,-1
 716 0462 FC01      		movw r30,r24
 717 0464 2083      		st Z,r18
 202:../../../stack/LwMesh/TDMA/nwk/src/nwkDataReq.c **** 
 203:../../../stack/LwMesh/TDMA/nwk/src/nwkDataReq.c **** 		frame->header.nwkFcf.ackRequest = (req->options & NWK_OPT_ACK_REQUEST) ? 1 : 0;
 718               		.loc 1 203 0
 719 0466 8F81      		ldd r24,Y+7
 720 0468 9885      		ldd r25,Y+8
 721 046a FC01      		movw r30,r24
 722 046c 8185      		ldd r24,Z+9
 723 046e 9285      		ldd r25,Z+10
 724 0470 8170      		andi r24,1
 725 0472 9927      		clr r25
 726 0474 21E0      		ldi r18,lo8(1)
 727 0476 892B      		or r24,r25
 728 0478 01F4      		brne .L26
 729 047a 20E0      		ldi r18,0
 730               	.L26:
 731 047c 8981      		ldd r24,Y+1
 732 047e 9A81      		ldd r25,Y+2
 733 0480 2170      		andi r18,lo8(1)
 734 0482 FC01      		movw r30,r24
 735 0484 3385      		ldd r19,Z+11
 736 0486 3E7F      		andi r19,lo8(-2)
 737 0488 232B      		or r18,r19
 738 048a FC01      		movw r30,r24
 739 048c 2387      		std Z+11,r18
 204:../../../stack/LwMesh/TDMA/nwk/src/nwkDataReq.c **** 		frame->header.nwkFcf.linkLocal = (req->options & NWK_OPT_LINK_LOCAL) ? 1 : 0;
 740               		.loc 1 204 0
 741 048e 8F81      		ldd r24,Y+7
 742 0490 9885      		ldd r25,Y+8
 743 0492 FC01      		movw r30,r24
 744 0494 8185      		ldd r24,Z+9
 745 0496 9285      		ldd r25,Z+10
 746 0498 8870      		andi r24,8
 747 049a 9927      		clr r25
 748 049c 21E0      		ldi r18,lo8(1)
 749 049e 892B      		or r24,r25
 750 04a0 01F4      		brne .L27
 751 04a2 20E0      		ldi r18,0
 752               	.L27:
 753 04a4 8981      		ldd r24,Y+1
 754 04a6 9A81      		ldd r25,Y+2
 755 04a8 2170      		andi r18,lo8(1)
 756 04aa 220F      		lsl r18
 757 04ac 220F      		lsl r18
 758 04ae FC01      		movw r30,r24
 759 04b0 3385      		ldd r19,Z+11
 760 04b2 3B7F      		andi r19,lo8(-5)
 761 04b4 232B      		or r18,r19
 762 04b6 FC01      		movw r30,r24
 763 04b8 2387      		std Z+11,r18
 205:../../../stack/LwMesh/TDMA/nwk/src/nwkDataReq.c **** 		frame->header.nwkFcf.beacon = (req->options & NWK_OPT_BEACON) ? 1 : 0;
 764               		.loc 1 205 0
 765 04ba 8F81      		ldd r24,Y+7
 766 04bc 9885      		ldd r25,Y+8
 767 04be FC01      		movw r30,r24
 768 04c0 8185      		ldd r24,Z+9
 769 04c2 9285      		ldd r25,Z+10
 770 04c4 8072      		andi r24,32
 771 04c6 9927      		clr r25
 772 04c8 21E0      		ldi r18,lo8(1)
 773 04ca 892B      		or r24,r25
 774 04cc 01F4      		brne .L28
 775 04ce 20E0      		ldi r18,0
 776               	.L28:
 777 04d0 8981      		ldd r24,Y+1
 778 04d2 9A81      		ldd r25,Y+2
 779 04d4 2170      		andi r18,lo8(1)
 780 04d6 2295      		swap r18
 781 04d8 207F      		andi r18,lo8(-16)
 782 04da FC01      		movw r30,r24
 783 04dc 3385      		ldd r19,Z+11
 784 04de 3F7E      		andi r19,lo8(-17)
 785 04e0 232B      		or r18,r19
 786 04e2 FC01      		movw r30,r24
 787 04e4 2387      		std Z+11,r18
 206:../../../stack/LwMesh/TDMA/nwk/src/nwkDataReq.c **** 
 207:../../../stack/LwMesh/TDMA/nwk/src/nwkDataReq.c **** #ifdef NWK_ENABLE_SECURITY
 208:../../../stack/LwMesh/TDMA/nwk/src/nwkDataReq.c **** 		frame->header.nwkFcf.security = (req->options & NWK_OPT_ENABLE_SECURITY) ? 1 : 0;
 209:../../../stack/LwMesh/TDMA/nwk/src/nwkDataReq.c **** #endif
 210:../../../stack/LwMesh/TDMA/nwk/src/nwkDataReq.c **** 
 211:../../../stack/LwMesh/TDMA/nwk/src/nwkDataReq.c **** #ifdef NWK_ENABLE_MULTICAST
 212:../../../stack/LwMesh/TDMA/nwk/src/nwkDataReq.c **** 		frame->header.nwkFcf.multicast = (req->options & NWK_OPT_MULTICAST) ? 1 : 0;
 788               		.loc 1 212 0
 789 04e6 8F81      		ldd r24,Y+7
 790 04e8 9885      		ldd r25,Y+8
 791 04ea FC01      		movw r30,r24
 792 04ec 8185      		ldd r24,Z+9
 793 04ee 9285      		ldd r25,Z+10
 794 04f0 8071      		andi r24,16
 795 04f2 9927      		clr r25
 796 04f4 21E0      		ldi r18,lo8(1)
 797 04f6 892B      		or r24,r25
 798 04f8 01F4      		brne .L29
 799 04fa 20E0      		ldi r18,0
 800               	.L29:
 801 04fc 8981      		ldd r24,Y+1
 802 04fe 9A81      		ldd r25,Y+2
 803 0500 2170      		andi r18,lo8(1)
 804 0502 220F      		lsl r18
 805 0504 220F      		lsl r18
 806 0506 220F      		lsl r18
 807 0508 FC01      		movw r30,r24
 808 050a 3385      		ldd r19,Z+11
 809 050c 377F      		andi r19,lo8(-9)
 810 050e 232B      		or r18,r19
 811 0510 FC01      		movw r30,r24
 812 0512 2387      		std Z+11,r18
 213:../../../stack/LwMesh/TDMA/nwk/src/nwkDataReq.c **** 
 214:../../../stack/LwMesh/TDMA/nwk/src/nwkDataReq.c **** 		if(frame->header.nwkFcf.multicast)
 813               		.loc 1 214 0
 814 0514 8981      		ldd r24,Y+1
 815 0516 9A81      		ldd r25,Y+2
 816 0518 FC01      		movw r30,r24
 817 051a 8385      		ldd r24,Z+11
 818 051c 8870      		andi r24,lo8(8)
 819 051e 8823      		tst r24
 820 0520 01F4      		brne .+2
 821 0522 00C0      		rjmp .L30
 822               	.LBB3:
 215:../../../stack/LwMesh/TDMA/nwk/src/nwkDataReq.c **** 		{
 216:../../../stack/LwMesh/TDMA/nwk/src/nwkDataReq.c **** 			NwkFrameMulticastHeader_t *mcHeader = (NwkFrameMulticastHeader_t *)frame->payload;
 823               		.loc 1 216 0
 824 0524 8981      		ldd r24,Y+1
 825 0526 9A81      		ldd r25,Y+2
 826 0528 8F57      		subi r24,127
 827 052a 9F4F      		sbci r25,-1
 828 052c FC01      		movw r30,r24
 829 052e 8081      		ld r24,Z
 830 0530 9181      		ldd r25,Z+1
 831 0532 9E83      		std Y+6,r25
 832 0534 8D83      		std Y+5,r24
 217:../../../stack/LwMesh/TDMA/nwk/src/nwkDataReq.c **** 
 218:../../../stack/LwMesh/TDMA/nwk/src/nwkDataReq.c **** 			mcHeader->memberRadius = req->memberRadius;
 833               		.loc 1 218 0
 834 0536 8F81      		ldd r24,Y+7
 835 0538 9885      		ldd r25,Y+8
 836 053a FC01      		movw r30,r24
 837 053c 8385      		ldd r24,Z+11
 838 053e 282F      		mov r18,r24
 839 0540 2F70      		andi r18,lo8(15)
 840 0542 8D81      		ldd r24,Y+5
 841 0544 9E81      		ldd r25,Y+6
 842 0546 2F70      		andi r18,lo8(15)
 843 0548 FC01      		movw r30,r24
 844 054a 3181      		ldd r19,Z+1
 845 054c 307F      		andi r19,lo8(-16)
 846 054e 232B      		or r18,r19
 847 0550 FC01      		movw r30,r24
 848 0552 2183      		std Z+1,r18
 219:../../../stack/LwMesh/TDMA/nwk/src/nwkDataReq.c **** 			mcHeader->maxMemberRadius = req->memberRadius;
 849               		.loc 1 219 0
 850 0554 8F81      		ldd r24,Y+7
 851 0556 9885      		ldd r25,Y+8
 852 0558 FC01      		movw r30,r24
 853 055a 8385      		ldd r24,Z+11
 854 055c 282F      		mov r18,r24
 855 055e 2F70      		andi r18,lo8(15)
 856 0560 8D81      		ldd r24,Y+5
 857 0562 9E81      		ldd r25,Y+6
 858 0564 2295      		swap r18
 859 0566 207F      		andi r18,lo8(-16)
 860 0568 FC01      		movw r30,r24
 861 056a 3181      		ldd r19,Z+1
 862 056c 3F70      		andi r19,lo8(15)
 863 056e 232B      		or r18,r19
 864 0570 FC01      		movw r30,r24
 865 0572 2183      		std Z+1,r18
 220:../../../stack/LwMesh/TDMA/nwk/src/nwkDataReq.c **** 			mcHeader->nonMemberRadius = req->nonMemberRadius;
 866               		.loc 1 220 0
 867 0574 8F81      		ldd r24,Y+7
 868 0576 9885      		ldd r25,Y+8
 869 0578 FC01      		movw r30,r24
 870 057a 8485      		ldd r24,Z+12
 871 057c 282F      		mov r18,r24
 872 057e 2F70      		andi r18,lo8(15)
 873 0580 8D81      		ldd r24,Y+5
 874 0582 9E81      		ldd r25,Y+6
 875 0584 2F70      		andi r18,lo8(15)
 876 0586 FC01      		movw r30,r24
 877 0588 3081      		ld r19,Z
 878 058a 307F      		andi r19,lo8(-16)
 879 058c 232B      		or r18,r19
 880 058e FC01      		movw r30,r24
 881 0590 2083      		st Z,r18
 221:../../../stack/LwMesh/TDMA/nwk/src/nwkDataReq.c **** 			mcHeader->maxNonMemberRadius = req->nonMemberRadius;
 882               		.loc 1 221 0
 883 0592 8F81      		ldd r24,Y+7
 884 0594 9885      		ldd r25,Y+8
 885 0596 FC01      		movw r30,r24
 886 0598 8485      		ldd r24,Z+12
 887 059a 282F      		mov r18,r24
 888 059c 2F70      		andi r18,lo8(15)
 889 059e 8D81      		ldd r24,Y+5
 890 05a0 9E81      		ldd r25,Y+6
 891 05a2 2295      		swap r18
 892 05a4 207F      		andi r18,lo8(-16)
 893 05a6 FC01      		movw r30,r24
 894 05a8 3081      		ld r19,Z
 895 05aa 3F70      		andi r19,lo8(15)
 896 05ac 232B      		or r18,r19
 897 05ae FC01      		movw r30,r24
 898 05b0 2083      		st Z,r18
 222:../../../stack/LwMesh/TDMA/nwk/src/nwkDataReq.c **** 
 223:../../../stack/LwMesh/TDMA/nwk/src/nwkDataReq.c **** 			frame->payload += sizeof(NwkFrameMulticastHeader_t);
 899               		.loc 1 223 0
 900 05b2 8981      		ldd r24,Y+1
 901 05b4 9A81      		ldd r25,Y+2
 902 05b6 8F57      		subi r24,127
 903 05b8 9F4F      		sbci r25,-1
 904 05ba FC01      		movw r30,r24
 905 05bc 8081      		ld r24,Z
 906 05be 9181      		ldd r25,Z+1
 907 05c0 9C01      		movw r18,r24
 908 05c2 2E5F      		subi r18,-2
 909 05c4 3F4F      		sbci r19,-1
 910 05c6 8981      		ldd r24,Y+1
 911 05c8 9A81      		ldd r25,Y+2
 912 05ca 8F57      		subi r24,127
 913 05cc 9F4F      		sbci r25,-1
 914 05ce FC01      		movw r30,r24
 915 05d0 3183      		std Z+1,r19
 916 05d2 2083      		st Z,r18
 224:../../../stack/LwMesh/TDMA/nwk/src/nwkDataReq.c **** 			frame->size += sizeof(NwkFrameMulticastHeader_t);
 917               		.loc 1 224 0
 918 05d4 8981      		ldd r24,Y+1
 919 05d6 9A81      		ldd r25,Y+2
 920 05d8 FC01      		movw r30,r24
 921 05da 8181      		ldd r24,Z+1
 922 05dc 22E0      		ldi r18,lo8(2)
 923 05de 280F      		add r18,r24
 924 05e0 8981      		ldd r24,Y+1
 925 05e2 9A81      		ldd r25,Y+2
 926 05e4 FC01      		movw r30,r24
 927 05e6 2183      		std Z+1,r18
 928               	.L30:
 929               	.LBE3:
 225:../../../stack/LwMesh/TDMA/nwk/src/nwkDataReq.c **** 		}
 226:../../../stack/LwMesh/TDMA/nwk/src/nwkDataReq.c **** #endif
 227:../../../stack/LwMesh/TDMA/nwk/src/nwkDataReq.c **** 
 228:../../../stack/LwMesh/TDMA/nwk/src/nwkDataReq.c **** 		frame->header.nwkSeq = ++nwkIb.nwkSeqNum;
 930               		.loc 1 228 0
 931 05e8 8091 0000 		lds r24,nwkIb+4
 932 05ec 8F5F      		subi r24,lo8(-(1))
 933 05ee 8093 0000 		sts nwkIb+4,r24
 934 05f2 2091 0000 		lds r18,nwkIb+4
 935 05f6 8981      		ldd r24,Y+1
 936 05f8 9A81      		ldd r25,Y+2
 937 05fa FC01      		movw r30,r24
 938 05fc 2487      		std Z+12,r18
 229:../../../stack/LwMesh/TDMA/nwk/src/nwkDataReq.c **** 		frame->header.nwkSrcAddr = nwkIb.addr;
 939               		.loc 1 229 0
 940 05fe 2091 0000 		lds r18,nwkIb
 941 0602 3091 0000 		lds r19,nwkIb+1
 942 0606 8981      		ldd r24,Y+1
 943 0608 9A81      		ldd r25,Y+2
 944 060a FC01      		movw r30,r24
 945 060c 3687      		std Z+14,r19
 946 060e 2587      		std Z+13,r18
 230:../../../stack/LwMesh/TDMA/nwk/src/nwkDataReq.c **** 		frame->header.nwkDstAddr = req->dstAddr;
 947               		.loc 1 230 0
 948 0610 8F81      		ldd r24,Y+7
 949 0612 9885      		ldd r25,Y+8
 950 0614 FC01      		movw r30,r24
 951 0616 2581      		ldd r18,Z+5
 952 0618 3681      		ldd r19,Z+6
 953 061a 8981      		ldd r24,Y+1
 954 061c 9A81      		ldd r25,Y+2
 955 061e FC01      		movw r30,r24
 956 0620 308B      		std Z+16,r19
 957 0622 2787      		std Z+15,r18
 231:../../../stack/LwMesh/TDMA/nwk/src/nwkDataReq.c **** 		frame->header.nwkSrcEndpoint = req->srcEndpoint;
 958               		.loc 1 231 0
 959 0624 8F81      		ldd r24,Y+7
 960 0626 9885      		ldd r25,Y+8
 961 0628 FC01      		movw r30,r24
 962 062a 8085      		ldd r24,Z+8
 963 062c 282F      		mov r18,r24
 964 062e 2F70      		andi r18,lo8(15)
 965 0630 8981      		ldd r24,Y+1
 966 0632 9A81      		ldd r25,Y+2
 967 0634 2F70      		andi r18,lo8(15)
 968 0636 FC01      		movw r30,r24
 969 0638 3189      		ldd r19,Z+17
 970 063a 307F      		andi r19,lo8(-16)
 971 063c 232B      		or r18,r19
 972 063e FC01      		movw r30,r24
 973 0640 218B      		std Z+17,r18
 232:../../../stack/LwMesh/TDMA/nwk/src/nwkDataReq.c **** 		frame->header.nwkDstEndpoint = req->dstEndpoint;
 974               		.loc 1 232 0
 975 0642 8F81      		ldd r24,Y+7
 976 0644 9885      		ldd r25,Y+8
 977 0646 FC01      		movw r30,r24
 978 0648 8781      		ldd r24,Z+7
 979 064a 282F      		mov r18,r24
 980 064c 2F70      		andi r18,lo8(15)
 981 064e 8981      		ldd r24,Y+1
 982 0650 9A81      		ldd r25,Y+2
 983 0652 2295      		swap r18
 984 0654 207F      		andi r18,lo8(-16)
 985 0656 FC01      		movw r30,r24
 986 0658 3189      		ldd r19,Z+17
 987 065a 3F70      		andi r19,lo8(15)
 988 065c 232B      		or r18,r19
 989 065e FC01      		movw r30,r24
 990 0660 218B      		std Z+17,r18
 233:../../../stack/LwMesh/TDMA/nwk/src/nwkDataReq.c **** 
 234:../../../stack/LwMesh/TDMA/nwk/src/nwkDataReq.c **** 		memcpy(frame->payload, req->data, req->size);
 991               		.loc 1 234 0
 992 0662 8F81      		ldd r24,Y+7
 993 0664 9885      		ldd r25,Y+8
 994 0666 FC01      		movw r30,r24
 995 0668 8785      		ldd r24,Z+15
 996 066a 482F      		mov r20,r24
 997 066c 50E0      		ldi r21,0
 998 066e 8F81      		ldd r24,Y+7
 999 0670 9885      		ldd r25,Y+8
 1000 0672 FC01      		movw r30,r24
 1001 0674 2585      		ldd r18,Z+13
 1002 0676 3685      		ldd r19,Z+14
 1003 0678 8981      		ldd r24,Y+1
 1004 067a 9A81      		ldd r25,Y+2
 1005 067c 8F57      		subi r24,127
 1006 067e 9F4F      		sbci r25,-1
 1007 0680 FC01      		movw r30,r24
 1008 0682 8081      		ld r24,Z
 1009 0684 9181      		ldd r25,Z+1
 1010 0686 B901      		movw r22,r18
 1011 0688 0E94 0000 		call memcpy
 235:../../../stack/LwMesh/TDMA/nwk/src/nwkDataReq.c **** 		frame->size += req->size;
 1012               		.loc 1 235 0
 1013 068c 8981      		ldd r24,Y+1
 1014 068e 9A81      		ldd r25,Y+2
 1015 0690 FC01      		movw r30,r24
 1016 0692 2181      		ldd r18,Z+1
 1017 0694 8F81      		ldd r24,Y+7
 1018 0696 9885      		ldd r25,Y+8
 1019 0698 FC01      		movw r30,r24
 1020 069a 8785      		ldd r24,Z+15
 1021 069c 280F      		add r18,r24
 1022 069e 8981      		ldd r24,Y+1
 1023 06a0 9A81      		ldd r25,Y+2
 1024 06a2 FC01      		movw r30,r24
 1025 06a4 2183      		std Z+1,r18
 236:../../../stack/LwMesh/TDMA/nwk/src/nwkDataReq.c **** 
 237:../../../stack/LwMesh/TDMA/nwk/src/nwkDataReq.c **** 		nwkTxFrame(frame);
 1026               		.loc 1 237 0
 1027 06a6 8981      		ldd r24,Y+1
 1028 06a8 9A81      		ldd r25,Y+2
 1029 06aa 0E94 0000 		call nwkTxFrame
 1030               	.L21:
 238:../../../stack/LwMesh/TDMA/nwk/src/nwkDataReq.c **** 	}
 239:../../../stack/LwMesh/TDMA/nwk/src/nwkDataReq.c **** 	req->frame = frame;
 1031               		.loc 1 239 0
 1032 06ae 8F81      		ldd r24,Y+7
 1033 06b0 9885      		ldd r25,Y+8
 1034 06b2 2981      		ldd r18,Y+1
 1035 06b4 3A81      		ldd r19,Y+2
 1036 06b6 FC01      		movw r30,r24
 1037 06b8 3383      		std Z+3,r19
 1038 06ba 2283      		std Z+2,r18
 240:../../../stack/LwMesh/TDMA/nwk/src/nwkDataReq.c **** 	req->state = NWK_DATA_REQ_STATE_WAIT_CONF;
 1039               		.loc 1 240 0
 1040 06bc 8F81      		ldd r24,Y+7
 1041 06be 9885      		ldd r25,Y+8
 1042 06c0 21E0      		ldi r18,lo8(1)
 1043 06c2 FC01      		movw r30,r24
 1044 06c4 2483      		std Z+4,r18
 241:../../../stack/LwMesh/TDMA/nwk/src/nwkDataReq.c **** 
 242:../../../stack/LwMesh/TDMA/nwk/src/nwkDataReq.c **** 	frame->tx.confirm = nwkDataReqTxConf;
 1045               		.loc 1 242 0
 1046 06c6 8981      		ldd r24,Y+1
 1047 06c8 9A81      		ldd r25,Y+2
 1048 06ca 8957      		subi r24,121
 1049 06cc 9F4F      		sbci r25,-1
 1050 06ce 20E0      		ldi r18,lo8(gs(nwkDataReqTxConf))
 1051 06d0 30E0      		ldi r19,hi8(gs(nwkDataReqTxConf))
 1052 06d2 FC01      		movw r30,r24
 1053 06d4 3183      		std Z+1,r19
 1054 06d6 2083      		st Z,r18
 1055               	.L6:
 1056               	/* epilogue start */
 243:../../../stack/LwMesh/TDMA/nwk/src/nwkDataReq.c **** }
 1057               		.loc 1 243 0
 1058 06d8 2896      		adiw r28,8
 1059 06da 0FB6      		in __tmp_reg__,__SREG__
 1060 06dc F894      		cli
 1061 06de DEBF      		out __SP_H__,r29
 1062 06e0 0FBE      		out __SREG__,__tmp_reg__
 1063 06e2 CDBF      		out __SP_L__,r28
 1064 06e4 DF91      		pop r29
 1065 06e6 CF91      		pop r28
 1066 06e8 0895      		ret
 1067               		.cfi_endproc
 1068               	.LFE68:
 1071               	nwkDataReqTxConf:
 1072               	.LFB69:
 244:../../../stack/LwMesh/TDMA/nwk/src/nwkDataReq.c **** 
 245:../../../stack/LwMesh/TDMA/nwk/src/nwkDataReq.c **** /*************************************************************************//**
 246:../../../stack/LwMesh/TDMA/nwk/src/nwkDataReq.c **** *  @brief Frame transmission confirmation handler
 247:../../../stack/LwMesh/TDMA/nwk/src/nwkDataReq.c **** *  @param[in] frame Pointer to the sent frame
 248:../../../stack/LwMesh/TDMA/nwk/src/nwkDataReq.c **** *****************************************************************************/
 249:../../../stack/LwMesh/TDMA/nwk/src/nwkDataReq.c **** static void nwkDataReqTxConf(NwkFrame_t *frame)
 250:../../../stack/LwMesh/TDMA/nwk/src/nwkDataReq.c **** {
 1073               		.loc 1 250 0
 1074               		.cfi_startproc
 1075 06ea CF93      		push r28
 1076               	.LCFI11:
 1077               		.cfi_def_cfa_offset 3
 1078               		.cfi_offset 28, -2
 1079 06ec DF93      		push r29
 1080               	.LCFI12:
 1081               		.cfi_def_cfa_offset 4
 1082               		.cfi_offset 29, -3
 1083 06ee 00D0      		rcall .
 1084 06f0 00D0      		rcall .
 1085               	.LCFI13:
 1086               		.cfi_def_cfa_offset 8
 1087 06f2 CDB7      		in r28,__SP_L__
 1088 06f4 DEB7      		in r29,__SP_H__
 1089               	.LCFI14:
 1090               		.cfi_def_cfa_register 28
 1091               	/* prologue: function */
 1092               	/* frame size = 4 */
 1093               	/* stack size = 6 */
 1094               	.L__stack_usage = 6
 1095 06f6 9C83      		std Y+4,r25
 1096 06f8 8B83      		std Y+3,r24
 1097               	.LBB4:
 251:../../../stack/LwMesh/TDMA/nwk/src/nwkDataReq.c **** 	for (NWK_DataReq_t *req = nwkDataReqQueue; req; req = req->next) {
 1098               		.loc 1 251 0
 1099 06fa 8091 0000 		lds r24,nwkDataReqQueue
 1100 06fe 9091 0000 		lds r25,nwkDataReqQueue+1
 1101 0702 9A83      		std Y+2,r25
 1102 0704 8983      		std Y+1,r24
 1103 0706 00C0      		rjmp .L32
 1104               	.L35:
 252:../../../stack/LwMesh/TDMA/nwk/src/nwkDataReq.c **** 		if (req->frame == frame) {
 1105               		.loc 1 252 0
 1106 0708 8981      		ldd r24,Y+1
 1107 070a 9A81      		ldd r25,Y+2
 1108 070c FC01      		movw r30,r24
 1109 070e 2281      		ldd r18,Z+2
 1110 0710 3381      		ldd r19,Z+3
 1111 0712 8B81      		ldd r24,Y+3
 1112 0714 9C81      		ldd r25,Y+4
 1113 0716 2817      		cp r18,r24
 1114 0718 3907      		cpc r19,r25
 1115 071a 01F4      		brne .L33
 253:../../../stack/LwMesh/TDMA/nwk/src/nwkDataReq.c **** 			req->status = frame->tx.status;
 1116               		.loc 1 253 0
 1117 071c 8B81      		ldd r24,Y+3
 1118 071e 9C81      		ldd r25,Y+4
 1119 0720 8D57      		subi r24,125
 1120 0722 9F4F      		sbci r25,-1
 1121 0724 FC01      		movw r30,r24
 1122 0726 2081      		ld r18,Z
 1123 0728 8981      		ldd r24,Y+1
 1124 072a 9A81      		ldd r25,Y+2
 1125 072c FC01      		movw r30,r24
 1126 072e 228B      		std Z+18,r18
 254:../../../stack/LwMesh/TDMA/nwk/src/nwkDataReq.c **** 			req->control = frame->tx.control;
 1127               		.loc 1 254 0
 1128 0730 8B81      		ldd r24,Y+3
 1129 0732 9C81      		ldd r25,Y+4
 1130 0734 8A57      		subi r24,122
 1131 0736 9F4F      		sbci r25,-1
 1132 0738 FC01      		movw r30,r24
 1133 073a 2081      		ld r18,Z
 1134 073c 8981      		ldd r24,Y+1
 1135 073e 9A81      		ldd r25,Y+2
 1136 0740 FC01      		movw r30,r24
 1137 0742 238B      		std Z+19,r18
 255:../../../stack/LwMesh/TDMA/nwk/src/nwkDataReq.c **** 			req->state = NWK_DATA_REQ_STATE_CONFIRM;
 1138               		.loc 1 255 0
 1139 0744 8981      		ldd r24,Y+1
 1140 0746 9A81      		ldd r25,Y+2
 1141 0748 22E0      		ldi r18,lo8(2)
 1142 074a FC01      		movw r30,r24
 1143 074c 2483      		std Z+4,r18
 256:../../../stack/LwMesh/TDMA/nwk/src/nwkDataReq.c **** 			break;
 1144               		.loc 1 256 0
 1145 074e 00C0      		rjmp .L34
 1146               	.L33:
 251:../../../stack/LwMesh/TDMA/nwk/src/nwkDataReq.c **** 		if (req->frame == frame) {
 1147               		.loc 1 251 0 discriminator 2
 1148 0750 8981      		ldd r24,Y+1
 1149 0752 9A81      		ldd r25,Y+2
 1150 0754 FC01      		movw r30,r24
 1151 0756 8081      		ld r24,Z
 1152 0758 9181      		ldd r25,Z+1
 1153 075a 9A83      		std Y+2,r25
 1154 075c 8983      		std Y+1,r24
 1155               	.L32:
 251:../../../stack/LwMesh/TDMA/nwk/src/nwkDataReq.c **** 		if (req->frame == frame) {
 1156               		.loc 1 251 0 is_stmt 0 discriminator 1
 1157 075e 8981      		ldd r24,Y+1
 1158 0760 9A81      		ldd r25,Y+2
 1159 0762 892B      		or r24,r25
 1160 0764 01F4      		brne .L35
 1161               	.L34:
 1162               	.LBE4:
 257:../../../stack/LwMesh/TDMA/nwk/src/nwkDataReq.c **** 		}
 258:../../../stack/LwMesh/TDMA/nwk/src/nwkDataReq.c **** 	}
 259:../../../stack/LwMesh/TDMA/nwk/src/nwkDataReq.c **** 	
 260:../../../stack/LwMesh/TDMA/nwk/src/nwkDataReq.c **** 	nwkFrameFree(frame);
 1163               		.loc 1 260 0 is_stmt 1
 1164 0766 8B81      		ldd r24,Y+3
 1165 0768 9C81      		ldd r25,Y+4
 1166 076a 0E94 0000 		call nwkFrameFree
 261:../../../stack/LwMesh/TDMA/nwk/src/nwkDataReq.c **** }
 1167               		.loc 1 261 0
 1168 076e 0000      		nop
 1169               	/* epilogue start */
 1170 0770 0F90      		pop __tmp_reg__
 1171 0772 0F90      		pop __tmp_reg__
 1172 0774 0F90      		pop __tmp_reg__
 1173 0776 0F90      		pop __tmp_reg__
 1174 0778 DF91      		pop r29
 1175 077a CF91      		pop r28
 1176 077c 0895      		ret
 1177               		.cfi_endproc
 1178               	.LFE69:
 1181               	nwkDataReqConfirm:
 1182               	.LFB70:
 262:../../../stack/LwMesh/TDMA/nwk/src/nwkDataReq.c **** 
 263:../../../stack/LwMesh/TDMA/nwk/src/nwkDataReq.c **** /*************************************************************************//**
 264:../../../stack/LwMesh/TDMA/nwk/src/nwkDataReq.c **** *  @brief Confirms request @req to the application and remove it from the queue
 265:../../../stack/LwMesh/TDMA/nwk/src/nwkDataReq.c **** *  @param[in] req Pointer to the request parameters
 266:../../../stack/LwMesh/TDMA/nwk/src/nwkDataReq.c **** *****************************************************************************/
 267:../../../stack/LwMesh/TDMA/nwk/src/nwkDataReq.c **** static void nwkDataReqConfirm(NWK_DataReq_t *req)
 268:../../../stack/LwMesh/TDMA/nwk/src/nwkDataReq.c **** {
 1183               		.loc 1 268 0
 1184               		.cfi_startproc
 1185 077e CF93      		push r28
 1186               	.LCFI15:
 1187               		.cfi_def_cfa_offset 3
 1188               		.cfi_offset 28, -2
 1189 0780 DF93      		push r29
 1190               	.LCFI16:
 1191               		.cfi_def_cfa_offset 4
 1192               		.cfi_offset 29, -3
 1193 0782 00D0      		rcall .
 1194 0784 00D0      		rcall .
 1195               	.LCFI17:
 1196               		.cfi_def_cfa_offset 8
 1197 0786 CDB7      		in r28,__SP_L__
 1198 0788 DEB7      		in r29,__SP_H__
 1199               	.LCFI18:
 1200               		.cfi_def_cfa_register 28
 1201               	/* prologue: function */
 1202               	/* frame size = 4 */
 1203               	/* stack size = 6 */
 1204               	.L__stack_usage = 6
 1205 078a 9C83      		std Y+4,r25
 1206 078c 8B83      		std Y+3,r24
 269:../../../stack/LwMesh/TDMA/nwk/src/nwkDataReq.c **** 	if (nwkDataReqQueue == req) {
 1207               		.loc 1 269 0
 1208 078e 2091 0000 		lds r18,nwkDataReqQueue
 1209 0792 3091 0000 		lds r19,nwkDataReqQueue+1
 1210 0796 8B81      		ldd r24,Y+3
 1211 0798 9C81      		ldd r25,Y+4
 1212 079a 2817      		cp r18,r24
 1213 079c 3907      		cpc r19,r25
 1214 079e 01F4      		brne .L37
 270:../../../stack/LwMesh/TDMA/nwk/src/nwkDataReq.c **** 		nwkDataReqQueue = nwkDataReqQueue->next;
 1215               		.loc 1 270 0
 1216 07a0 8091 0000 		lds r24,nwkDataReqQueue
 1217 07a4 9091 0000 		lds r25,nwkDataReqQueue+1
 1218 07a8 FC01      		movw r30,r24
 1219 07aa 8081      		ld r24,Z
 1220 07ac 9181      		ldd r25,Z+1
 1221 07ae 9093 0000 		sts nwkDataReqQueue+1,r25
 1222 07b2 8093 0000 		sts nwkDataReqQueue,r24
 1223 07b6 00C0      		rjmp .L38
 1224               	.L37:
 1225               	.LBB5:
 271:../../../stack/LwMesh/TDMA/nwk/src/nwkDataReq.c **** 	} else {
 272:../../../stack/LwMesh/TDMA/nwk/src/nwkDataReq.c **** 		NWK_DataReq_t *prev = nwkDataReqQueue;
 1226               		.loc 1 272 0
 1227 07b8 8091 0000 		lds r24,nwkDataReqQueue
 1228 07bc 9091 0000 		lds r25,nwkDataReqQueue+1
 1229 07c0 9A83      		std Y+2,r25
 1230 07c2 8983      		std Y+1,r24
 273:../../../stack/LwMesh/TDMA/nwk/src/nwkDataReq.c **** 		while (prev->next != req) {
 1231               		.loc 1 273 0
 1232 07c4 00C0      		rjmp .L39
 1233               	.L40:
 274:../../../stack/LwMesh/TDMA/nwk/src/nwkDataReq.c **** 			prev = prev->next;
 1234               		.loc 1 274 0
 1235 07c6 8981      		ldd r24,Y+1
 1236 07c8 9A81      		ldd r25,Y+2
 1237 07ca FC01      		movw r30,r24
 1238 07cc 8081      		ld r24,Z
 1239 07ce 9181      		ldd r25,Z+1
 1240 07d0 9A83      		std Y+2,r25
 1241 07d2 8983      		std Y+1,r24
 1242               	.L39:
 273:../../../stack/LwMesh/TDMA/nwk/src/nwkDataReq.c **** 		while (prev->next != req) {
 1243               		.loc 1 273 0
 1244 07d4 8981      		ldd r24,Y+1
 1245 07d6 9A81      		ldd r25,Y+2
 1246 07d8 FC01      		movw r30,r24
 1247 07da 2081      		ld r18,Z
 1248 07dc 3181      		ldd r19,Z+1
 1249 07de 8B81      		ldd r24,Y+3
 1250 07e0 9C81      		ldd r25,Y+4
 1251 07e2 2817      		cp r18,r24
 1252 07e4 3907      		cpc r19,r25
 1253 07e6 01F4      		brne .L40
 275:../../../stack/LwMesh/TDMA/nwk/src/nwkDataReq.c **** 		}
 276:../../../stack/LwMesh/TDMA/nwk/src/nwkDataReq.c **** 		prev->next = ((NWK_DataReq_t *)prev->next)->next;
 1254               		.loc 1 276 0
 1255 07e8 8981      		ldd r24,Y+1
 1256 07ea 9A81      		ldd r25,Y+2
 1257 07ec FC01      		movw r30,r24
 1258 07ee 8081      		ld r24,Z
 1259 07f0 9181      		ldd r25,Z+1
 1260 07f2 FC01      		movw r30,r24
 1261 07f4 2081      		ld r18,Z
 1262 07f6 3181      		ldd r19,Z+1
 1263 07f8 8981      		ldd r24,Y+1
 1264 07fa 9A81      		ldd r25,Y+2
 1265 07fc FC01      		movw r30,r24
 1266 07fe 3183      		std Z+1,r19
 1267 0800 2083      		st Z,r18
 1268               	.L38:
 1269               	.LBE5:
 277:../../../stack/LwMesh/TDMA/nwk/src/nwkDataReq.c **** 	}
 278:../../../stack/LwMesh/TDMA/nwk/src/nwkDataReq.c **** 
 279:../../../stack/LwMesh/TDMA/nwk/src/nwkDataReq.c **** 	nwkIb.lock--;
 1270               		.loc 1 279 0
 1271 0802 8091 0000 		lds r24,nwkIb+38
 1272 0806 9091 0000 		lds r25,nwkIb+38+1
 1273 080a 0197      		sbiw r24,1
 1274 080c 9093 0000 		sts nwkIb+38+1,r25
 1275 0810 8093 0000 		sts nwkIb+38,r24
 280:../../../stack/LwMesh/TDMA/nwk/src/nwkDataReq.c **** 
 281:../../../stack/LwMesh/TDMA/nwk/src/nwkDataReq.c **** 	if(req->confirm != NULL)
 1276               		.loc 1 281 0
 1277 0814 8B81      		ldd r24,Y+3
 1278 0816 9C81      		ldd r25,Y+4
 1279 0818 FC01      		movw r30,r24
 1280 081a 8089      		ldd r24,Z+16
 1281 081c 9189      		ldd r25,Z+17
 1282 081e 892B      		or r24,r25
 1283 0820 01F0      		breq .L42
 282:../../../stack/LwMesh/TDMA/nwk/src/nwkDataReq.c **** 	{
 283:../../../stack/LwMesh/TDMA/nwk/src/nwkDataReq.c **** 		req->confirm(req);
 1284               		.loc 1 283 0
 1285 0822 8B81      		ldd r24,Y+3
 1286 0824 9C81      		ldd r25,Y+4
 1287 0826 FC01      		movw r30,r24
 1288 0828 2089      		ldd r18,Z+16
 1289 082a 3189      		ldd r19,Z+17
 1290 082c 8B81      		ldd r24,Y+3
 1291 082e 9C81      		ldd r25,Y+4
 1292 0830 F901      		movw r30,r18
 1293 0832 0995      		icall
 1294               	.L42:
 284:../../../stack/LwMesh/TDMA/nwk/src/nwkDataReq.c **** 	}
 285:../../../stack/LwMesh/TDMA/nwk/src/nwkDataReq.c **** }
 1295               		.loc 1 285 0
 1296 0834 0000      		nop
 1297               	/* epilogue start */
 1298 0836 0F90      		pop __tmp_reg__
 1299 0838 0F90      		pop __tmp_reg__
 1300 083a 0F90      		pop __tmp_reg__
 1301 083c 0F90      		pop __tmp_reg__
 1302 083e DF91      		pop r29
 1303 0840 CF91      		pop r28
 1304 0842 0895      		ret
 1305               		.cfi_endproc
 1306               	.LFE70:
 1308               	.global	nwkDataReqTaskHandler
 1310               	nwkDataReqTaskHandler:
 1311               	.LFB71:
 286:../../../stack/LwMesh/TDMA/nwk/src/nwkDataReq.c **** 
 287:../../../stack/LwMesh/TDMA/nwk/src/nwkDataReq.c **** /*************************************************************************//**
 288:../../../stack/LwMesh/TDMA/nwk/src/nwkDataReq.c **** *  @brief Data Request module task handler
 289:../../../stack/LwMesh/TDMA/nwk/src/nwkDataReq.c **** *****************************************************************************/
 290:../../../stack/LwMesh/TDMA/nwk/src/nwkDataReq.c **** void nwkDataReqTaskHandler(void)
 291:../../../stack/LwMesh/TDMA/nwk/src/nwkDataReq.c **** {
 1312               		.loc 1 291 0
 1313               		.cfi_startproc
 1314 0844 CF93      		push r28
 1315               	.LCFI19:
 1316               		.cfi_def_cfa_offset 3
 1317               		.cfi_offset 28, -2
 1318 0846 DF93      		push r29
 1319               	.LCFI20:
 1320               		.cfi_def_cfa_offset 4
 1321               		.cfi_offset 29, -3
 1322 0848 00D0      		rcall .
 1323               	.LCFI21:
 1324               		.cfi_def_cfa_offset 6
 1325 084a CDB7      		in r28,__SP_L__
 1326 084c DEB7      		in r29,__SP_H__
 1327               	.LCFI22:
 1328               		.cfi_def_cfa_register 28
 1329               	/* prologue: function */
 1330               	/* frame size = 2 */
 1331               	/* stack size = 4 */
 1332               	.L__stack_usage = 4
 1333               	.LBB6:
 292:../../../stack/LwMesh/TDMA/nwk/src/nwkDataReq.c **** 	for (NWK_DataReq_t *req = nwkDataReqQueue; req; req = req->next) {
 1334               		.loc 1 292 0
 1335 084e 8091 0000 		lds r24,nwkDataReqQueue
 1336 0852 9091 0000 		lds r25,nwkDataReqQueue+1
 1337 0856 9A83      		std Y+2,r25
 1338 0858 8983      		std Y+1,r24
 1339 085a 00C0      		rjmp .L44
 1340               	.L51:
 293:../../../stack/LwMesh/TDMA/nwk/src/nwkDataReq.c **** 		switch (req->state) {
 1341               		.loc 1 293 0
 1342 085c 8981      		ldd r24,Y+1
 1343 085e 9A81      		ldd r25,Y+2
 1344 0860 FC01      		movw r30,r24
 1345 0862 8481      		ldd r24,Z+4
 1346 0864 882F      		mov r24,r24
 1347 0866 90E0      		ldi r25,0
 1348 0868 8130      		cpi r24,1
 1349 086a 9105      		cpc r25,__zero_reg__
 1350 086c 01F0      		breq .L52
 1351 086e 8230      		cpi r24,2
 1352 0870 9105      		cpc r25,__zero_reg__
 1353 0872 01F0      		breq .L47
 1354 0874 892B      		or r24,r25
 1355 0876 01F0      		breq .L48
 294:../../../stack/LwMesh/TDMA/nwk/src/nwkDataReq.c **** 		case NWK_DATA_REQ_STATE_INITIAL:
 295:../../../stack/LwMesh/TDMA/nwk/src/nwkDataReq.c **** 		{
 296:../../../stack/LwMesh/TDMA/nwk/src/nwkDataReq.c **** 			nwkDataReqSendFrame(req);
 297:../../../stack/LwMesh/TDMA/nwk/src/nwkDataReq.c **** 			return;
 298:../../../stack/LwMesh/TDMA/nwk/src/nwkDataReq.c **** 		}
 299:../../../stack/LwMesh/TDMA/nwk/src/nwkDataReq.c **** 		break;
 300:../../../stack/LwMesh/TDMA/nwk/src/nwkDataReq.c **** 
 301:../../../stack/LwMesh/TDMA/nwk/src/nwkDataReq.c **** 		case NWK_DATA_REQ_STATE_WAIT_CONF:
 302:../../../stack/LwMesh/TDMA/nwk/src/nwkDataReq.c **** 			break;
 303:../../../stack/LwMesh/TDMA/nwk/src/nwkDataReq.c **** 
 304:../../../stack/LwMesh/TDMA/nwk/src/nwkDataReq.c **** 		case NWK_DATA_REQ_STATE_CONFIRM:
 305:../../../stack/LwMesh/TDMA/nwk/src/nwkDataReq.c **** 		{
 306:../../../stack/LwMesh/TDMA/nwk/src/nwkDataReq.c **** 			nwkDataReqConfirm(req);
 307:../../../stack/LwMesh/TDMA/nwk/src/nwkDataReq.c **** 			
 308:../../../stack/LwMesh/TDMA/nwk/src/nwkDataReq.c **** 			return;
 309:../../../stack/LwMesh/TDMA/nwk/src/nwkDataReq.c **** 		}
 310:../../../stack/LwMesh/TDMA/nwk/src/nwkDataReq.c **** 		break;
 311:../../../stack/LwMesh/TDMA/nwk/src/nwkDataReq.c **** 
 312:../../../stack/LwMesh/TDMA/nwk/src/nwkDataReq.c **** 		default:
 313:../../../stack/LwMesh/TDMA/nwk/src/nwkDataReq.c **** 			break;
 1356               		.loc 1 313 0
 1357 0878 00C0      		rjmp .L50
 1358               	.L48:
 296:../../../stack/LwMesh/TDMA/nwk/src/nwkDataReq.c **** 			return;
 1359               		.loc 1 296 0
 1360 087a 8981      		ldd r24,Y+1
 1361 087c 9A81      		ldd r25,Y+2
 1362 087e 0E94 0000 		call nwkDataReqSendFrame
 297:../../../stack/LwMesh/TDMA/nwk/src/nwkDataReq.c **** 		}
 1363               		.loc 1 297 0
 1364 0882 00C0      		rjmp .L43
 1365               	.L47:
 306:../../../stack/LwMesh/TDMA/nwk/src/nwkDataReq.c **** 			
 1366               		.loc 1 306 0
 1367 0884 8981      		ldd r24,Y+1
 1368 0886 9A81      		ldd r25,Y+2
 1369 0888 0E94 0000 		call nwkDataReqConfirm
 308:../../../stack/LwMesh/TDMA/nwk/src/nwkDataReq.c **** 		}
 1370               		.loc 1 308 0
 1371 088c 00C0      		rjmp .L43
 1372               	.L52:
 302:../../../stack/LwMesh/TDMA/nwk/src/nwkDataReq.c **** 
 1373               		.loc 1 302 0
 1374 088e 0000      		nop
 1375               	.L50:
 292:../../../stack/LwMesh/TDMA/nwk/src/nwkDataReq.c **** 		switch (req->state) {
 1376               		.loc 1 292 0 discriminator 2
 1377 0890 8981      		ldd r24,Y+1
 1378 0892 9A81      		ldd r25,Y+2
 1379 0894 FC01      		movw r30,r24
 1380 0896 8081      		ld r24,Z
 1381 0898 9181      		ldd r25,Z+1
 1382 089a 9A83      		std Y+2,r25
 1383 089c 8983      		std Y+1,r24
 1384               	.L44:
 292:../../../stack/LwMesh/TDMA/nwk/src/nwkDataReq.c **** 		switch (req->state) {
 1385               		.loc 1 292 0 is_stmt 0 discriminator 1
 1386 089e 8981      		ldd r24,Y+1
 1387 08a0 9A81      		ldd r25,Y+2
 1388 08a2 892B      		or r24,r25
 1389 08a4 01F4      		brne .L51
 1390               	.L43:
 1391               	/* epilogue start */
 1392               	.LBE6:
 314:../../../stack/LwMesh/TDMA/nwk/src/nwkDataReq.c **** 		}
 315:../../../stack/LwMesh/TDMA/nwk/src/nwkDataReq.c **** 	}
 316:../../../stack/LwMesh/TDMA/nwk/src/nwkDataReq.c **** }
 1393               		.loc 1 316 0 is_stmt 1
 1394 08a6 0F90      		pop __tmp_reg__
 1395 08a8 0F90      		pop __tmp_reg__
 1396 08aa DF91      		pop r29
 1397 08ac CF91      		pop r28
 1398 08ae 0895      		ret
 1399               		.cfi_endproc
 1400               	.LFE71:
 1402               	.Letext0:
 1403               		.file 2 "c:\\program files (x86)\\atmel\\studio\\7.0\\toolchain\\avr8\\avr8-gnu-toolchain\\avr\\in
 1404               		.file 3 "../../../stack/LwMesh/TDMA/nwk/inc/nwkFrame.h"
 1405               		.file 4 "../../../stack/LwMesh/TDMA/nwk/inc/nwkRx.h"
 1406               		.file 5 "../../../stack/LwMesh/TDMA/nwk/inc/nwkDataReq.h"
 1407               		.file 6 "../../../stack/LwMesh/TDMA/nwk/inc/nwk.h"
 1408               		.file 7 "../../../stack/LwMesh/TDMA/nwk/inc/nwkTx.h"
 1409               		.file 8 "config/config.h"