   1              	 .cpu cortex-m4
   2              	 .eabi_attribute 20,1
   3              	 .eabi_attribute 21,1
   4              	 .eabi_attribute 23,3
   5              	 .eabi_attribute 24,1
   6              	 .eabi_attribute 25,1
   7              	 .eabi_attribute 26,1
   8              	 .eabi_attribute 30,6
   9              	 .eabi_attribute 34,1
  10              	 .eabi_attribute 18,4
  11              	 .file "nwkDataReq.c"
  12              	 .text
  13              	.Ltext0:
  14              	 .cfi_sections .debug_frame
  15              	 .section .bss.cpu_irq_critical_section_counter,"aw",%nobits
  16              	 .align 2
  19              	cpu_irq_critical_section_counter:
  20 0000 00000000 	 .space 4
  21              	 .section .bss.cpu_irq_prev_interrupt_state,"aw",%nobits
  24              	cpu_irq_prev_interrupt_state:
  25 0000 00       	 .space 1
  26              	 .comm n,1,1
  27              	 .section .bss.tTS,"aw",%nobits
  28              	 .align 2
  31              	tTS:
  32 0000 00000000 	 .space 4
  33              	 .section .bss.nwkDataReqQueue,"aw",%nobits
  34              	 .align 2
  37              	nwkDataReqQueue:
  38 0000 00000000 	 .space 4
  39              	 .text
  40              	 .align 1
  41              	 .global nwkDataReqInit
  42              	 .syntax unified
  43              	 .thumb
  44              	 .thumb_func
  45              	 .fpu softvfp
  47              	nwkDataReqInit:
  48              	.LFB127:
  49              	 .file 1 "../../../stack/LwMesh/TDMA/nwk/src/nwkDataReq.c"
   1:../../../stack/LwMesh/TDMA/nwk/src/nwkDataReq.c **** /**
   2:../../../stack/LwMesh/TDMA/nwk/src/nwkDataReq.c ****  * \file nwkDataReq.c
   3:../../../stack/LwMesh/TDMA/nwk/src/nwkDataReq.c ****  *
   4:../../../stack/LwMesh/TDMA/nwk/src/nwkDataReq.c ****  * \brief NWK_DataReq() implementation
   5:../../../stack/LwMesh/TDMA/nwk/src/nwkDataReq.c ****  *
   6:../../../stack/LwMesh/TDMA/nwk/src/nwkDataReq.c ****  * Copyright (C) 2014 Atmel Corporation. All rights reserved.
   7:../../../stack/LwMesh/TDMA/nwk/src/nwkDataReq.c ****  *
   8:../../../stack/LwMesh/TDMA/nwk/src/nwkDataReq.c ****  * \asf_license_start
   9:../../../stack/LwMesh/TDMA/nwk/src/nwkDataReq.c ****  *
  10:../../../stack/LwMesh/TDMA/nwk/src/nwkDataReq.c ****  * Redistribution and use in source and binary forms, with or without
  11:../../../stack/LwMesh/TDMA/nwk/src/nwkDataReq.c ****  * modification, are permitted provided that the following conditions are met:
  12:../../../stack/LwMesh/TDMA/nwk/src/nwkDataReq.c ****  *
  13:../../../stack/LwMesh/TDMA/nwk/src/nwkDataReq.c ****  * 1. Redistributions of source code must retain the above copyright notice,
  14:../../../stack/LwMesh/TDMA/nwk/src/nwkDataReq.c ****  *    this list of conditions and the following disclaimer.
  15:../../../stack/LwMesh/TDMA/nwk/src/nwkDataReq.c ****  *
  16:../../../stack/LwMesh/TDMA/nwk/src/nwkDataReq.c ****  * 2. Redistributions in binary form must reproduce the above copyright notice,
  17:../../../stack/LwMesh/TDMA/nwk/src/nwkDataReq.c ****  *    this list of conditions and the following disclaimer in the documentation
  18:../../../stack/LwMesh/TDMA/nwk/src/nwkDataReq.c ****  *    and/or other materials provided with the distribution.
  19:../../../stack/LwMesh/TDMA/nwk/src/nwkDataReq.c ****  *
  20:../../../stack/LwMesh/TDMA/nwk/src/nwkDataReq.c ****  * 3. The name of Atmel may not be used to endorse or promote products derived
  21:../../../stack/LwMesh/TDMA/nwk/src/nwkDataReq.c ****  *    from this software without specific prior written permission.
  22:../../../stack/LwMesh/TDMA/nwk/src/nwkDataReq.c ****  *
  23:../../../stack/LwMesh/TDMA/nwk/src/nwkDataReq.c ****  * 4. This software may only be redistributed and used in connection with an
  24:../../../stack/LwMesh/TDMA/nwk/src/nwkDataReq.c ****  *    Atmel microcontroller product.
  25:../../../stack/LwMesh/TDMA/nwk/src/nwkDataReq.c ****  *
  26:../../../stack/LwMesh/TDMA/nwk/src/nwkDataReq.c ****  * THIS SOFTWARE IS PROVIDED BY ATMEL "AS IS" AND ANY EXPRESS OR IMPLIED
  27:../../../stack/LwMesh/TDMA/nwk/src/nwkDataReq.c ****  * WARRANTIES, INCLUDING, BUT NOT LIMITED TO, THE IMPLIED WARRANTIES OF
  28:../../../stack/LwMesh/TDMA/nwk/src/nwkDataReq.c ****  * MERCHANTABILITY, FITNESS FOR A PARTICULAR PURPOSE AND NON-INFRINGEMENT ARE
  29:../../../stack/LwMesh/TDMA/nwk/src/nwkDataReq.c ****  * EXPRESSLY AND SPECIFICALLY DISCLAIMED. IN NO EVENT SHALL ATMEL BE LIABLE FOR
  30:../../../stack/LwMesh/TDMA/nwk/src/nwkDataReq.c ****  * ANY DIRECT, INDIRECT, INCIDENTAL, SPECIAL, EXEMPLARY, OR CONSEQUENTIAL
  31:../../../stack/LwMesh/TDMA/nwk/src/nwkDataReq.c ****  * DAMAGES (INCLUDING, BUT NOT LIMITED TO, PROCUREMENT OF SUBSTITUTE GOODS
  32:../../../stack/LwMesh/TDMA/nwk/src/nwkDataReq.c ****  * OR SERVICES; LOSS OF USE, DATA, OR PROFITS; OR BUSINESS INTERRUPTION)
  33:../../../stack/LwMesh/TDMA/nwk/src/nwkDataReq.c ****  * HOWEVER CAUSED AND ON ANY THEORY OF LIABILITY, WHETHER IN CONTRACT,
  34:../../../stack/LwMesh/TDMA/nwk/src/nwkDataReq.c ****  * STRICT LIABILITY, OR TORT (INCLUDING NEGLIGENCE OR OTHERWISE) ARISING IN
  35:../../../stack/LwMesh/TDMA/nwk/src/nwkDataReq.c ****  * ANY WAY OUT OF THE USE OF THIS SOFTWARE, EVEN IF ADVISED OF THE
  36:../../../stack/LwMesh/TDMA/nwk/src/nwkDataReq.c ****  * POSSIBILITY OF SUCH DAMAGE.
  37:../../../stack/LwMesh/TDMA/nwk/src/nwkDataReq.c ****  *
  38:../../../stack/LwMesh/TDMA/nwk/src/nwkDataReq.c ****  * \asf_license_stop
  39:../../../stack/LwMesh/TDMA/nwk/src/nwkDataReq.c ****  *
  40:../../../stack/LwMesh/TDMA/nwk/src/nwkDataReq.c ****  *
  41:../../../stack/LwMesh/TDMA/nwk/src/nwkDataReq.c ****  */
  42:../../../stack/LwMesh/TDMA/nwk/src/nwkDataReq.c **** 
  43:../../../stack/LwMesh/TDMA/nwk/src/nwkDataReq.c **** /*
  44:../../../stack/LwMesh/TDMA/nwk/src/nwkDataReq.c ****  * Copyright (c) 2014, Atmel Corporation All rights reserved.
  45:../../../stack/LwMesh/TDMA/nwk/src/nwkDataReq.c ****  *
  46:../../../stack/LwMesh/TDMA/nwk/src/nwkDataReq.c ****  * Licensed under Atmel's Limited License Agreement --> EULA.txt
  47:../../../stack/LwMesh/TDMA/nwk/src/nwkDataReq.c ****  */
  48:../../../stack/LwMesh/TDMA/nwk/src/nwkDataReq.c **** 
  49:../../../stack/LwMesh/TDMA/nwk/src/nwkDataReq.c **** /*- Includes ---------------------------------------------------------------*/
  50:../../../stack/LwMesh/TDMA/nwk/src/nwkDataReq.c **** #include <stdlib.h>
  51:../../../stack/LwMesh/TDMA/nwk/src/nwkDataReq.c **** #include <stdint.h>
  52:../../../stack/LwMesh/TDMA/nwk/src/nwkDataReq.c **** #include <stdbool.h>
  53:../../../stack/LwMesh/TDMA/nwk/src/nwkDataReq.c **** #include <string.h>
  54:../../../stack/LwMesh/TDMA/nwk/src/nwkDataReq.c **** #include "sysConfig.h"
  55:../../../stack/LwMesh/TDMA/nwk/src/nwkDataReq.c **** #include "nwk.h"
  56:../../../stack/LwMesh/TDMA/nwk/src/nwkDataReq.c **** #include "nwkTx.h"
  57:../../../stack/LwMesh/TDMA/nwk/src/nwkDataReq.c **** #include "nwkFrame.h"
  58:../../../stack/LwMesh/TDMA/nwk/src/nwkDataReq.c **** #include "nwkGroup.h"
  59:../../../stack/LwMesh/TDMA/nwk/src/nwkDataReq.c **** #include "nwkDataReq.h"
  60:../../../stack/LwMesh/TDMA/nwk/src/nwkDataReq.c **** 
  61:../../../stack/LwMesh/TDMA/nwk/src/nwkDataReq.c **** /*- Types ------------------------------------------------------------------*/
  62:../../../stack/LwMesh/TDMA/nwk/src/nwkDataReq.c **** enum {
  63:../../../stack/LwMesh/TDMA/nwk/src/nwkDataReq.c **** 	NWK_DATA_REQ_STATE_INITIAL,
  64:../../../stack/LwMesh/TDMA/nwk/src/nwkDataReq.c **** 	NWK_DATA_REQ_STATE_WAIT_CONF,
  65:../../../stack/LwMesh/TDMA/nwk/src/nwkDataReq.c **** 	NWK_DATA_REQ_STATE_CONFIRM,
  66:../../../stack/LwMesh/TDMA/nwk/src/nwkDataReq.c **** };
  67:../../../stack/LwMesh/TDMA/nwk/src/nwkDataReq.c **** 
  68:../../../stack/LwMesh/TDMA/nwk/src/nwkDataReq.c **** /*- Prototypes -------------------------------------------------------------*/
  69:../../../stack/LwMesh/TDMA/nwk/src/nwkDataReq.c **** static void nwkDataReqTxConf(NwkFrame_t *frame);
  70:../../../stack/LwMesh/TDMA/nwk/src/nwkDataReq.c **** 
  71:../../../stack/LwMesh/TDMA/nwk/src/nwkDataReq.c **** /*- Variables --------------------------------------------------------------*/
  72:../../../stack/LwMesh/TDMA/nwk/src/nwkDataReq.c **** static NWK_DataReq_t *nwkDataReqQueue;
  73:../../../stack/LwMesh/TDMA/nwk/src/nwkDataReq.c **** 
  74:../../../stack/LwMesh/TDMA/nwk/src/nwkDataReq.c **** /*- Implementations --------------------------------------------------------*/
  75:../../../stack/LwMesh/TDMA/nwk/src/nwkDataReq.c **** 
  76:../../../stack/LwMesh/TDMA/nwk/src/nwkDataReq.c **** /*************************************************************************//**
  77:../../../stack/LwMesh/TDMA/nwk/src/nwkDataReq.c **** *  @brief Initializes the Data Request module
  78:../../../stack/LwMesh/TDMA/nwk/src/nwkDataReq.c **** *****************************************************************************/
  79:../../../stack/LwMesh/TDMA/nwk/src/nwkDataReq.c **** void nwkDataReqInit(void)
  80:../../../stack/LwMesh/TDMA/nwk/src/nwkDataReq.c **** {
  50              	 .loc 1 80 0
  51              	 .cfi_startproc
  52              	 
  53              	 
  54              	 
  55 0000 80B4     	 push {r7}
  56              	.LCFI0:
  57              	 .cfi_def_cfa_offset 4
  58              	 .cfi_offset 7,-4
  59 0002 00AF     	 add r7,sp,#0
  60              	.LCFI1:
  61              	 .cfi_def_cfa_register 7
  81:../../../stack/LwMesh/TDMA/nwk/src/nwkDataReq.c **** 	nwkDataReqQueue = NULL;
  62              	 .loc 1 81 0
  63 0004 034B     	 ldr r3,.L2
  64 0006 0022     	 movs r2,#0
  65 0008 1A60     	 str r2,[r3]
  82:../../../stack/LwMesh/TDMA/nwk/src/nwkDataReq.c **** }
  66              	 .loc 1 82 0
  67 000a 00BF     	 nop
  68 000c BD46     	 mov sp,r7
  69              	.LCFI2:
  70              	 .cfi_def_cfa_register 13
  71              	 
  72 000e 80BC     	 pop {r7}
  73              	.LCFI3:
  74              	 .cfi_restore 7
  75              	 .cfi_def_cfa_offset 0
  76 0010 7047     	 bx lr
  77              	.L3:
  78 0012 00BF     	 .align 2
  79              	.L2:
  80 0014 00000000 	 .word nwkDataReqQueue
  81              	 .cfi_endproc
  82              	.LFE127:
  84              	 .align 1
  85              	 .global NWK_DataReq
  86              	 .syntax unified
  87              	 .thumb
  88              	 .thumb_func
  89              	 .fpu softvfp
  91              	NWK_DataReq:
  92              	.LFB128:
  83:../../../stack/LwMesh/TDMA/nwk/src/nwkDataReq.c **** 
  84:../../../stack/LwMesh/TDMA/nwk/src/nwkDataReq.c **** /*************************************************************************//**
  85:../../../stack/LwMesh/TDMA/nwk/src/nwkDataReq.c **** *  @brief Adds request @a req to the queue of outgoing requests
  86:../../../stack/LwMesh/TDMA/nwk/src/nwkDataReq.c **** *  @param[in] req Pointer to the request parameters
  87:../../../stack/LwMesh/TDMA/nwk/src/nwkDataReq.c **** *****************************************************************************/
  88:../../../stack/LwMesh/TDMA/nwk/src/nwkDataReq.c **** void NWK_DataReq(NWK_DataReq_t *req)
  89:../../../stack/LwMesh/TDMA/nwk/src/nwkDataReq.c **** {
  93              	 .loc 1 89 0
  94              	 .cfi_startproc
  95              	 
  96              	 
  97              	 
  98 0018 80B4     	 push {r7}
  99              	.LCFI4:
 100              	 .cfi_def_cfa_offset 4
 101              	 .cfi_offset 7,-4
 102 001a 83B0     	 sub sp,sp,#12
 103              	.LCFI5:
 104              	 .cfi_def_cfa_offset 16
 105 001c 00AF     	 add r7,sp,#0
 106              	.LCFI6:
 107              	 .cfi_def_cfa_register 7
 108 001e 7860     	 str r0,[r7,#4]
  90:../../../stack/LwMesh/TDMA/nwk/src/nwkDataReq.c **** 	req->state = NWK_DATA_REQ_STATE_INITIAL;
 109              	 .loc 1 90 0
 110 0020 7B68     	 ldr r3,[r7,#4]
 111 0022 0022     	 movs r2,#0
 112 0024 1A72     	 strb r2,[r3,#8]
  91:../../../stack/LwMesh/TDMA/nwk/src/nwkDataReq.c **** 	req->status = NWK_SUCCESS_STATUS;
 113              	 .loc 1 91 0
 114 0026 7B68     	 ldr r3,[r7,#4]
 115 0028 0022     	 movs r2,#0
 116 002a 83F82020 	 strb r2,[r3,#32]
  92:../../../stack/LwMesh/TDMA/nwk/src/nwkDataReq.c **** 	req->frame = NULL;
 117              	 .loc 1 92 0
 118 002e 7B68     	 ldr r3,[r7,#4]
 119 0030 0022     	 movs r2,#0
 120 0032 5A60     	 str r2,[r3,#4]
  93:../../../stack/LwMesh/TDMA/nwk/src/nwkDataReq.c **** 
  94:../../../stack/LwMesh/TDMA/nwk/src/nwkDataReq.c **** 	nwkIb.lock++;
 121              	 .loc 1 94 0
 122 0034 0F4B     	 ldr r3,.L8
 123 0036 B3F84830 	 ldrh r3,[r3,#72]
 124 003a 0133     	 adds r3,r3,#1
 125 003c 9AB2     	 uxth r2,r3
 126 003e 0D4B     	 ldr r3,.L8
 127 0040 A3F84820 	 strh r2,[r3,#72]
  95:../../../stack/LwMesh/TDMA/nwk/src/nwkDataReq.c **** 
  96:../../../stack/LwMesh/TDMA/nwk/src/nwkDataReq.c **** 	if (NULL == nwkDataReqQueue) {
 128              	 .loc 1 96 0
 129 0044 0C4B     	 ldr r3,.L8+4
 130 0046 1B68     	 ldr r3,[r3]
 131 0048 002B     	 cmp r3,#0
 132 004a 06D1     	 bne .L5
  97:../../../stack/LwMesh/TDMA/nwk/src/nwkDataReq.c **** 		req->next = NULL;
 133              	 .loc 1 97 0
 134 004c 7B68     	 ldr r3,[r7,#4]
 135 004e 0022     	 movs r2,#0
 136 0050 1A60     	 str r2,[r3]
  98:../../../stack/LwMesh/TDMA/nwk/src/nwkDataReq.c **** 		nwkDataReqQueue = req;
 137              	 .loc 1 98 0
 138 0052 094A     	 ldr r2,.L8+4
 139 0054 7B68     	 ldr r3,[r7,#4]
 140 0056 1360     	 str r3,[r2]
  99:../../../stack/LwMesh/TDMA/nwk/src/nwkDataReq.c **** 	} else {
 100:../../../stack/LwMesh/TDMA/nwk/src/nwkDataReq.c **** 		req->next = nwkDataReqQueue;
 101:../../../stack/LwMesh/TDMA/nwk/src/nwkDataReq.c **** 		nwkDataReqQueue = req;
 102:../../../stack/LwMesh/TDMA/nwk/src/nwkDataReq.c **** 	}
 103:../../../stack/LwMesh/TDMA/nwk/src/nwkDataReq.c **** }
 141              	 .loc 1 103 0
 142 0058 06E0     	 b .L7
 143              	.L5:
 100:../../../stack/LwMesh/TDMA/nwk/src/nwkDataReq.c **** 		nwkDataReqQueue = req;
 144              	 .loc 1 100 0
 145 005a 074B     	 ldr r3,.L8+4
 146 005c 1A68     	 ldr r2,[r3]
 147 005e 7B68     	 ldr r3,[r7,#4]
 148 0060 1A60     	 str r2,[r3]
 101:../../../stack/LwMesh/TDMA/nwk/src/nwkDataReq.c **** 	}
 149              	 .loc 1 101 0
 150 0062 054A     	 ldr r2,.L8+4
 151 0064 7B68     	 ldr r3,[r7,#4]
 152 0066 1360     	 str r3,[r2]
 153              	.L7:
 154              	 .loc 1 103 0
 155 0068 00BF     	 nop
 156 006a 0C37     	 adds r7,r7,#12
 157              	.LCFI7:
 158              	 .cfi_def_cfa_offset 4
 159 006c BD46     	 mov sp,r7
 160              	.LCFI8:
 161              	 .cfi_def_cfa_register 13
 162              	 
 163 006e 80BC     	 pop {r7}
 164              	.LCFI9:
 165              	 .cfi_restore 7
 166              	 .cfi_def_cfa_offset 0
 167 0070 7047     	 bx lr
 168              	.L9:
 169 0072 00BF     	 .align 2
 170              	.L8:
 171 0074 00000000 	 .word nwkIb
 172 0078 00000000 	 .word nwkDataReqQueue
 173              	 .cfi_endproc
 174              	.LFE128:
 176              	 .align 1
 177              	 .syntax unified
 178              	 .thumb
 179              	 .thumb_func
 180              	 .fpu softvfp
 182              	nwkDataReqSendFrame:
 183              	.LFB129:
 104:../../../stack/LwMesh/TDMA/nwk/src/nwkDataReq.c **** 
 105:../../../stack/LwMesh/TDMA/nwk/src/nwkDataReq.c **** /*************************************************************************//**
 106:../../../stack/LwMesh/TDMA/nwk/src/nwkDataReq.c **** *  @brief Prepares and send outgoing frame based on the request @a req
 107:../../../stack/LwMesh/TDMA/nwk/src/nwkDataReq.c **** * parameters
 108:../../../stack/LwMesh/TDMA/nwk/src/nwkDataReq.c **** *  @param[in] req Pointer to the request parameters
 109:../../../stack/LwMesh/TDMA/nwk/src/nwkDataReq.c **** *****************************************************************************/
 110:../../../stack/LwMesh/TDMA/nwk/src/nwkDataReq.c **** static void nwkDataReqSendFrame(NWK_DataReq_t *req)
 111:../../../stack/LwMesh/TDMA/nwk/src/nwkDataReq.c **** {
 184              	 .loc 1 111 0
 185              	 .cfi_startproc
 186              	 
 187              	 
 188 007c 80B5     	 push {r7,lr}
 189              	.LCFI10:
 190              	 .cfi_def_cfa_offset 8
 191              	 .cfi_offset 7,-8
 192              	 .cfi_offset 14,-4
 193 007e 86B0     	 sub sp,sp,#24
 194              	.LCFI11:
 195              	 .cfi_def_cfa_offset 32
 196 0080 00AF     	 add r7,sp,#0
 197              	.LCFI12:
 198              	 .cfi_def_cfa_register 7
 199 0082 7860     	 str r0,[r7,#4]
 112:../../../stack/LwMesh/TDMA/nwk/src/nwkDataReq.c **** 	NwkFrame_t *frame;
 113:../../../stack/LwMesh/TDMA/nwk/src/nwkDataReq.c **** 	if(req->options < NWK_OPT_LLDN_BEACON ) // use original frame allocation
 200              	 .loc 1 113 0
 201 0084 7B68     	 ldr r3,[r7,#4]
 202 0086 DB89     	 ldrh r3,[r3,#14]
 203 0088 3F2B     	 cmp r3,#63
 204 008a 0DD8     	 bhi .L11
 114:../../../stack/LwMesh/TDMA/nwk/src/nwkDataReq.c **** 	{																			 	// this is not optimezed for
 115:../../../stack/LwMesh/TDMA/nwk/src/nwkDataReq.c **** 		if(NULL == (frame = nwkFrameAlloc()))	// NWK_OPT_BEACON
 205              	 .loc 1 115 0
 206 008c 874B     	 ldr r3,.L29
 207 008e 9847     	 blx r3
 208              	.LVL0:
 209 0090 7861     	 str r0,[r7,#20]
 210 0092 7B69     	 ldr r3,[r7,#20]
 211 0094 002B     	 cmp r3,#0
 212 0096 22D1     	 bne .L12
 116:../../../stack/LwMesh/TDMA/nwk/src/nwkDataReq.c **** 		{
 117:../../../stack/LwMesh/TDMA/nwk/src/nwkDataReq.c **** 			req->state = NWK_DATA_REQ_STATE_CONFIRM;
 213              	 .loc 1 117 0
 214 0098 7B68     	 ldr r3,[r7,#4]
 215 009a 0222     	 movs r2,#2
 216 009c 1A72     	 strb r2,[r3,#8]
 118:../../../stack/LwMesh/TDMA/nwk/src/nwkDataReq.c **** 			req->status = NWK_OUT_OF_MEMORY_STATUS;
 217              	 .loc 1 118 0
 218 009e 7B68     	 ldr r3,[r7,#4]
 219 00a0 0222     	 movs r2,#2
 220 00a2 83F82020 	 strb r2,[r3,#32]
 119:../../../stack/LwMesh/TDMA/nwk/src/nwkDataReq.c **** 			return;
 221              	 .loc 1 119 0
 222 00a6 E0E1     	 b .L10
 223              	.L11:
 120:../../../stack/LwMesh/TDMA/nwk/src/nwkDataReq.c **** 		}
 121:../../../stack/LwMesh/TDMA/nwk/src/nwkDataReq.c **** 	}	else {		// use LLDN allocation, alocattes depending on header size
 122:../../../stack/LwMesh/TDMA/nwk/src/nwkDataReq.c **** 		if( NULL == (frame = ((req->options & NWK_OPT_LLDN_BEACON) ? nwkFrameAlloc_LLDN(true) : nwkFrameA
 224              	 .loc 1 122 0
 225 00a8 7B68     	 ldr r3,[r7,#4]
 226 00aa DB89     	 ldrh r3,[r3,#14]
 227 00ac 03F04003 	 and r3,r3,#64
 228 00b0 002B     	 cmp r3,#0
 229 00b2 04D0     	 beq .L14
 230              	 .loc 1 122 0 is_stmt 0 discriminator 1
 231 00b4 0120     	 movs r0,#1
 232 00b6 7E4B     	 ldr r3,.L29+4
 233 00b8 9847     	 blx r3
 234              	.LVL1:
 235 00ba 0346     	 mov r3,r0
 236 00bc 03E0     	 b .L15
 237              	.L14:
 238              	 .loc 1 122 0 discriminator 2
 239 00be 0020     	 movs r0,#0
 240 00c0 7B4B     	 ldr r3,.L29+4
 241 00c2 9847     	 blx r3
 242              	.LVL2:
 243 00c4 0346     	 mov r3,r0
 244              	.L15:
 245              	 .loc 1 122 0 discriminator 4
 246 00c6 7B61     	 str r3,[r7,#20]
 247 00c8 7B69     	 ldr r3,[r7,#20]
 248 00ca 002B     	 cmp r3,#0
 249 00cc 07D1     	 bne .L12
 123:../../../stack/LwMesh/TDMA/nwk/src/nwkDataReq.c **** 		{
 124:../../../stack/LwMesh/TDMA/nwk/src/nwkDataReq.c **** 			// if there isn't space avaible in frame buffer queue, requested message
 125:../../../stack/LwMesh/TDMA/nwk/src/nwkDataReq.c **** 			// can't be process
 126:../../../stack/LwMesh/TDMA/nwk/src/nwkDataReq.c **** 			req->state = NWK_DATA_REQ_STATE_CONFIRM;
 250              	 .loc 1 126 0 is_stmt 1
 251 00ce 7B68     	 ldr r3,[r7,#4]
 252 00d0 0222     	 movs r2,#2
 253 00d2 1A72     	 strb r2,[r3,#8]
 127:../../../stack/LwMesh/TDMA/nwk/src/nwkDataReq.c **** 			req->status = NWK_OUT_OF_MEMORY_STATUS;
 254              	 .loc 1 127 0
 255 00d4 7B68     	 ldr r3,[r7,#4]
 256 00d6 0222     	 movs r2,#2
 257 00d8 83F82020 	 strb r2,[r3,#32]
 128:../../../stack/LwMesh/TDMA/nwk/src/nwkDataReq.c **** 			return;
 258              	 .loc 1 128 0
 259 00dc C5E1     	 b .L10
 260              	.L12:
 129:../../../stack/LwMesh/TDMA/nwk/src/nwkDataReq.c **** 		}
 130:../../../stack/LwMesh/TDMA/nwk/src/nwkDataReq.c **** 	}
 131:../../../stack/LwMesh/TDMA/nwk/src/nwkDataReq.c **** 
 132:../../../stack/LwMesh/TDMA/nwk/src/nwkDataReq.c **** 	if(req->options & NWK_OPT_LLDN_BEACON)
 261              	 .loc 1 132 0
 262 00de 7B68     	 ldr r3,[r7,#4]
 263 00e0 DB89     	 ldrh r3,[r3,#14]
 264 00e2 03F04003 	 and r3,r3,#64
 265 00e6 002B     	 cmp r3,#0
 266 00e8 6BD0     	 beq .L16
 267              	.LBB2:
 133:../../../stack/LwMesh/TDMA/nwk/src/nwkDataReq.c **** 	{
 134:../../../stack/LwMesh/TDMA/nwk/src/nwkDataReq.c **** 		frame->tx.control = 0;
 268              	 .loc 1 134 0
 269 00ea 7B69     	 ldr r3,[r7,#20]
 270 00ec 0022     	 movs r2,#0
 271 00ee 83F88820 	 strb r2,[r3,#136]
 135:../../../stack/LwMesh/TDMA/nwk/src/nwkDataReq.c **** 		// Set Flag depending on current state of coordinator
 136:../../../stack/LwMesh/TDMA/nwk/src/nwkDataReq.c **** 		if (req->options & NWK_OPT_ONLINE_STATE)
 272              	 .loc 1 136 0
 273 00f2 7B68     	 ldr r3,[r7,#4]
 274 00f4 DB89     	 ldrh r3,[r3,#14]
 275 00f6 03F08003 	 and r3,r3,#128
 276 00fa 002B     	 cmp r3,#0
 277 00fc 05D0     	 beq .L17
 137:../../../stack/LwMesh/TDMA/nwk/src/nwkDataReq.c **** 			frame->LLbeacon.Flags.txState = 0b000; // online mode
 278              	 .loc 1 137 0
 279 00fe 7A69     	 ldr r2,[r7,#20]
 280 0100 5379     	 ldrb r3,[r2,#5]
 281 0102 6FF30203 	 bfc r3,#0,#3
 282 0106 5371     	 strb r3,[r2,#5]
 283 0108 24E0     	 b .L18
 284              	.L17:
 138:../../../stack/LwMesh/TDMA/nwk/src/nwkDataReq.c **** 		else if (req->options & NWK_OPT_DISCOVERY_STATE)
 285              	 .loc 1 138 0
 286 010a 7B68     	 ldr r3,[r7,#4]
 287 010c DB89     	 ldrh r3,[r3,#14]
 288 010e 03F48073 	 and r3,r3,#256
 289 0112 002B     	 cmp r3,#0
 290 0114 06D0     	 beq .L19
 139:../../../stack/LwMesh/TDMA/nwk/src/nwkDataReq.c **** 			frame->LLbeacon.Flags.txState = 0b100; // discovery mode
 291              	 .loc 1 139 0
 292 0116 7A69     	 ldr r2,[r7,#20]
 293 0118 5379     	 ldrb r3,[r2,#5]
 294 011a 0421     	 movs r1,#4
 295 011c 61F30203 	 bfi r3,r1,#0,#3
 296 0120 5371     	 strb r3,[r2,#5]
 297 0122 17E0     	 b .L18
 298              	.L19:
 140:../../../stack/LwMesh/TDMA/nwk/src/nwkDataReq.c **** 		else if (req->options & NWK_OPT_CONFIG_STATE)
 299              	 .loc 1 140 0
 300 0124 7B68     	 ldr r3,[r7,#4]
 301 0126 DB89     	 ldrh r3,[r3,#14]
 302 0128 03F40073 	 and r3,r3,#512
 303 012c 002B     	 cmp r3,#0
 304 012e 06D0     	 beq .L20
 141:../../../stack/LwMesh/TDMA/nwk/src/nwkDataReq.c **** 			frame->LLbeacon.Flags.txState = 0b110; // configuration mode
 305              	 .loc 1 141 0
 306 0130 7A69     	 ldr r2,[r7,#20]
 307 0132 5379     	 ldrb r3,[r2,#5]
 308 0134 0621     	 movs r1,#6
 309 0136 61F30203 	 bfi r3,r1,#0,#3
 310 013a 5371     	 strb r3,[r2,#5]
 311 013c 0AE0     	 b .L18
 312              	.L20:
 142:../../../stack/LwMesh/TDMA/nwk/src/nwkDataReq.c **** 		else if (req->options & NWK_OPT_RESET_STATE)
 313              	 .loc 1 142 0
 314 013e 7B68     	 ldr r3,[r7,#4]
 315 0140 DB89     	 ldrh r3,[r3,#14]
 316 0142 03F48063 	 and r3,r3,#1024
 317 0146 002B     	 cmp r3,#0
 318 0148 04D0     	 beq .L18
 143:../../../stack/LwMesh/TDMA/nwk/src/nwkDataReq.c **** 			frame->LLbeacon.Flags.txState = 0b111; // full reset mode
 319              	 .loc 1 143 0
 320 014a 7A69     	 ldr r2,[r7,#20]
 321 014c 5379     	 ldrb r3,[r2,#5]
 322 014e 43F00703 	 orr r3,r3,#7
 323 0152 5371     	 strb r3,[r2,#5]
 324              	.L18:
 144:../../../stack/LwMesh/TDMA/nwk/src/nwkDataReq.c **** 
 145:../../../stack/LwMesh/TDMA/nwk/src/nwkDataReq.c **** 		// set biderectional time slots: 0 - downlink 1 - uplink
 146:../../../stack/LwMesh/TDMA/nwk/src/nwkDataReq.c **** 		frame->LLbeacon.Flags.txDir 	= 0b0;
 325              	 .loc 1 146 0
 326 0154 7A69     	 ldr r2,[r7,#20]
 327 0156 5379     	 ldrb r3,[r2,#5]
 328 0158 6FF3C303 	 bfc r3,#3,#1
 329 015c 5371     	 strb r3,[r2,#5]
 147:../../../stack/LwMesh/TDMA/nwk/src/nwkDataReq.c **** 		frame->LLbeacon.Flags.reserved 	= 0b0;
 330              	 .loc 1 147 0
 331 015e 7A69     	 ldr r2,[r7,#20]
 332 0160 5379     	 ldrb r3,[r2,#5]
 333 0162 6FF30413 	 bfc r3,#4,#1
 334 0166 5371     	 strb r3,[r2,#5]
 148:../../../stack/LwMesh/TDMA/nwk/src/nwkDataReq.c **** 		// set number of managment timeslots
 149:../../../stack/LwMesh/TDMA/nwk/src/nwkDataReq.c **** 		frame->LLbeacon.Flags.numBaseMgmtTimeslots = numBaseTimeSlotperMgmt;
 335              	 .loc 1 149 0
 336 0168 7A69     	 ldr r2,[r7,#20]
 337 016a 5379     	 ldrb r3,[r2,#5]
 338 016c 0221     	 movs r1,#2
 339 016e 61F34713 	 bfi r3,r1,#5,#3
 340 0172 5371     	 strb r3,[r2,#5]
 150:../../../stack/LwMesh/TDMA/nwk/src/nwkDataReq.c **** 
 151:../../../stack/LwMesh/TDMA/nwk/src/nwkDataReq.c **** 		if (req->options & 	NWK_OPT_SECOND_BEACON)
 341              	 .loc 1 151 0
 342 0174 7B68     	 ldr r3,[r7,#4]
 343 0176 DB89     	 ldrh r3,[r3,#14]
 344 0178 03F40063 	 and r3,r3,#2048
 345 017c 002B     	 cmp r3,#0
 346 017e 03D0     	 beq .L21
 152:../../../stack/LwMesh/TDMA/nwk/src/nwkDataReq.c **** 		 frame->LLbeacon.confSeqNumber = 0x01;
 347              	 .loc 1 152 0
 348 0180 7B69     	 ldr r3,[r7,#20]
 349 0182 0122     	 movs r2,#1
 350 0184 DA71     	 strb r2,[r3,#7]
 351 0186 0CE0     	 b .L22
 352              	.L21:
 153:../../../stack/LwMesh/TDMA/nwk/src/nwkDataReq.c **** 		else if (req->options & NWK_OPT_THIRD_BEACON)
 353              	 .loc 1 153 0
 354 0188 7B68     	 ldr r3,[r7,#4]
 355 018a DB89     	 ldrh r3,[r3,#14]
 356 018c 03F48053 	 and r3,r3,#4096
 357 0190 002B     	 cmp r3,#0
 358 0192 03D0     	 beq .L23
 154:../../../stack/LwMesh/TDMA/nwk/src/nwkDataReq.c **** 			frame->LLbeacon.confSeqNumber = 0x02;
 359              	 .loc 1 154 0
 360 0194 7B69     	 ldr r3,[r7,#20]
 361 0196 0222     	 movs r2,#2
 362 0198 DA71     	 strb r2,[r3,#7]
 363 019a 02E0     	 b .L22
 364              	.L23:
 155:../../../stack/LwMesh/TDMA/nwk/src/nwkDataReq.c **** 		else frame->LLbeacon.confSeqNumber = 0x00;
 365              	 .loc 1 155 0
 366 019c 7B69     	 ldr r3,[r7,#20]
 367 019e 0022     	 movs r2,#0
 368 01a0 DA71     	 strb r2,[r3,#7]
 369              	.L22:
 156:../../../stack/LwMesh/TDMA/nwk/src/nwkDataReq.c **** 
 157:../../../stack/LwMesh/TDMA/nwk/src/nwkDataReq.c **** 		frame->LLbeacon.TimeSlotSize 	= n + 50 + 12;
 370              	 .loc 1 157 0
 371 01a2 444B     	 ldr r3,.L29+8
 372 01a4 1B78     	 ldrb r3,[r3]
 373 01a6 3E33     	 adds r3,r3,#62
 374 01a8 DAB2     	 uxtb r2,r3
 375 01aa 7B69     	 ldr r3,[r7,#20]
 376 01ac 1A72     	 strb r2,[r3,#8]
 158:../../../stack/LwMesh/TDMA/nwk/src/nwkDataReq.c **** 		uint8_t* shortAddr = (uint8_t* )APP_PANID;
 377              	 .loc 1 158 0
 378 01ae 4CF6FE23 	 movw r3,#51966
 379 01b2 3B61     	 str r3,[r7,#16]
 159:../../../stack/LwMesh/TDMA/nwk/src/nwkDataReq.c **** 		frame->LLbeacon.PanId = APP_PANID;
 380              	 .loc 1 159 0
 381 01b4 7B69     	 ldr r3,[r7,#20]
 382 01b6 FE22     	 movs r2,#254
 383 01b8 9A71     	 strb r2,[r3,#6]
 160:../../../stack/LwMesh/TDMA/nwk/src/nwkDataReq.c **** 		// set Frame Control, Security Header and Sequence Nuber fields
 161:../../../stack/LwMesh/TDMA/nwk/src/nwkDataReq.c **** 		nwkTxBeaconFrameLLDN(frame);
 384              	 .loc 1 161 0
 385 01ba 7869     	 ldr r0,[r7,#20]
 386 01bc 3E4B     	 ldr r3,.L29+12
 387 01be 9847     	 blx r3
 388              	.LVL3:
 389              	.LBE2:
 390 01c0 49E1     	 b .L24
 391              	.L16:
 162:../../../stack/LwMesh/TDMA/nwk/src/nwkDataReq.c **** 	}
 163:../../../stack/LwMesh/TDMA/nwk/src/nwkDataReq.c **** 	else if(req->options & NWK_OPT_MAC_COMMAND 
 392              	 .loc 1 163 0
 393 01c2 7B68     	 ldr r3,[r7,#4]
 394 01c4 DB89     	 ldrh r3,[r3,#14]
 395 01c6 1BB2     	 sxth r3,r3
 396 01c8 002B     	 cmp r3,#0
 397 01ca 0BDB     	 blt .L25
 164:../../../stack/LwMesh/TDMA/nwk/src/nwkDataReq.c **** 		|| req->options & NWK_OPT_LLDN_DATA
 398              	 .loc 1 164 0
 399 01cc 7B68     	 ldr r3,[r7,#4]
 400 01ce DB89     	 ldrh r3,[r3,#14]
 401 01d0 03F40053 	 and r3,r3,#8192
 402 01d4 002B     	 cmp r3,#0
 403 01d6 05D1     	 bne .L25
 165:../../../stack/LwMesh/TDMA/nwk/src/nwkDataReq.c **** 		|| req->options & NWK_OPT_LLDN_ACK )
 404              	 .loc 1 165 0
 405 01d8 7B68     	 ldr r3,[r7,#4]
 406 01da DB89     	 ldrh r3,[r3,#14]
 407 01dc 03F48043 	 and r3,r3,#16384
 408 01e0 002B     	 cmp r3,#0
 409 01e2 1CD0     	 beq .L26
 410              	.L25:
 166:../../../stack/LwMesh/TDMA/nwk/src/nwkDataReq.c **** 	{
 167:../../../stack/LwMesh/TDMA/nwk/src/nwkDataReq.c **** 		nwkTxMacCommandFrameLLDN(frame, req->options);
 411              	 .loc 1 167 0
 412 01e4 7B68     	 ldr r3,[r7,#4]
 413 01e6 DB89     	 ldrh r3,[r3,#14]
 414 01e8 1946     	 mov r1,r3
 415 01ea 7869     	 ldr r0,[r7,#20]
 416 01ec 334B     	 ldr r3,.L29+16
 417 01ee 9847     	 blx r3
 418              	.LVL4:
 168:../../../stack/LwMesh/TDMA/nwk/src/nwkDataReq.c **** 		frame->tx.control = 0;
 419              	 .loc 1 168 0
 420 01f0 7B69     	 ldr r3,[r7,#20]
 421 01f2 0022     	 movs r2,#0
 422 01f4 83F88820 	 strb r2,[r3,#136]
 169:../../../stack/LwMesh/TDMA/nwk/src/nwkDataReq.c **** 		memcpy(frame->payload, req->data, req->size);
 423              	 .loc 1 169 0
 424 01f8 7B69     	 ldr r3,[r7,#20]
 425 01fa D3F88100 	 ldr r0,[r3,#129]
 426 01fe 7B68     	 ldr r3,[r7,#4]
 427 0200 5969     	 ldr r1,[r3,#20]
 428 0202 7B68     	 ldr r3,[r7,#4]
 429 0204 1B7E     	 ldrb r3,[r3,#24]
 430 0206 1A46     	 mov r2,r3
 431 0208 2D4B     	 ldr r3,.L29+20
 432 020a 9847     	 blx r3
 433              	.LVL5:
 170:../../../stack/LwMesh/TDMA/nwk/src/nwkDataReq.c **** 		frame->size += req->size;
 434              	 .loc 1 170 0
 435 020c 7B69     	 ldr r3,[r7,#20]
 436 020e 5A78     	 ldrb r2,[r3,#1]
 437 0210 7B68     	 ldr r3,[r7,#4]
 438 0212 1B7E     	 ldrb r3,[r3,#24]
 439 0214 1344     	 add r3,r3,r2
 440 0216 DAB2     	 uxtb r2,r3
 441 0218 7B69     	 ldr r3,[r7,#20]
 442 021a 5A70     	 strb r2,[r3,#1]
 443 021c 1BE1     	 b .L24
 444              	.L26:
 171:../../../stack/LwMesh/TDMA/nwk/src/nwkDataReq.c **** 	}
 172:../../../stack/LwMesh/TDMA/nwk/src/nwkDataReq.c **** 	else if(req->options & NWK_OPT_BEACON )
 445              	 .loc 1 172 0
 446 021e 7B68     	 ldr r3,[r7,#4]
 447 0220 DB89     	 ldrh r3,[r3,#14]
 448 0222 03F02003 	 and r3,r3,#32
 449 0226 002B     	 cmp r3,#0
 450 0228 4ED0     	 beq .L27
 173:../../../stack/LwMesh/TDMA/nwk/src/nwkDataReq.c **** 	{
 174:../../../stack/LwMesh/TDMA/nwk/src/nwkDataReq.c **** 		frame->tx.control = 0;
 451              	 .loc 1 174 0
 452 022a 7B69     	 ldr r3,[r7,#20]
 453 022c 0022     	 movs r2,#0
 454 022e 83F88820 	 strb r2,[r3,#136]
 175:../../../stack/LwMesh/TDMA/nwk/src/nwkDataReq.c **** 
 176:../../../stack/LwMesh/TDMA/nwk/src/nwkDataReq.c **** 		frame->beacon.macSFS.beaconOrder = BI_COEF;
 455              	 .loc 1 176 0
 456 0232 7A69     	 ldr r2,[r7,#20]
 457 0234 537A     	 ldrb r3,[r2,#9]
 458 0236 0821     	 movs r1,#8
 459 0238 61F30303 	 bfi r3,r1,#0,#4
 460 023c 5372     	 strb r3,[r2,#9]
 177:../../../stack/LwMesh/TDMA/nwk/src/nwkDataReq.c **** 		frame->beacon.macSFS.superframeOrder = SD_COEF;
 461              	 .loc 1 177 0
 462 023e 7A69     	 ldr r2,[r7,#20]
 463 0240 537A     	 ldrb r3,[r2,#9]
 464 0242 0621     	 movs r1,#6
 465 0244 61F30713 	 bfi r3,r1,#4,#4
 466 0248 5372     	 strb r3,[r2,#9]
 178:../../../stack/LwMesh/TDMA/nwk/src/nwkDataReq.c **** 		frame->beacon.macSFS.finalCAPslot = FINAL_CAP_SLOT;
 467              	 .loc 1 178 0
 468 024a 7A69     	 ldr r2,[r7,#20]
 469 024c 937A     	 ldrb r3,[r2,#10]
 470 024e 0121     	 movs r1,#1
 471 0250 61F30303 	 bfi r3,r1,#0,#4
 472 0254 9372     	 strb r3,[r2,#10]
 179:../../../stack/LwMesh/TDMA/nwk/src/nwkDataReq.c **** 		frame->beacon.macSFS.BatteryLifeExtension = TDMA_BATTERY_EXTENSION;
 473              	 .loc 1 179 0
 474 0256 7A69     	 ldr r2,[r7,#20]
 475 0258 937A     	 ldrb r3,[r2,#10]
 476 025a 43F01003 	 orr r3,r3,#16
 477 025e 9372     	 strb r3,[r2,#10]
 180:../../../stack/LwMesh/TDMA/nwk/src/nwkDataReq.c **** 		frame->beacon.macSFS.PANCoordinator = 1;
 478              	 .loc 1 180 0
 479 0260 7A69     	 ldr r2,[r7,#20]
 480 0262 937A     	 ldrb r3,[r2,#10]
 481 0264 43F04003 	 orr r3,r3,#64
 482 0268 9372     	 strb r3,[r2,#10]
 181:../../../stack/LwMesh/TDMA/nwk/src/nwkDataReq.c **** 		frame->beacon.macSFS.AssociationPermit = 0;
 483              	 .loc 1 181 0
 484 026a 7A69     	 ldr r2,[r7,#20]
 485 026c 937A     	 ldrb r3,[r2,#10]
 486 026e 6FF3C713 	 bfc r3,#7,#1
 487 0272 9372     	 strb r3,[r2,#10]
 182:../../../stack/LwMesh/TDMA/nwk/src/nwkDataReq.c **** 
 183:../../../stack/LwMesh/TDMA/nwk/src/nwkDataReq.c **** 		frame->beacon.macGTS = 0;
 488              	 .loc 1 183 0
 489 0274 7B69     	 ldr r3,[r7,#20]
 490 0276 0022     	 movs r2,#0
 491 0278 DA72     	 strb r2,[r3,#11]
 184:../../../stack/LwMesh/TDMA/nwk/src/nwkDataReq.c **** 		frame->beacon.macPending = 0;
 492              	 .loc 1 184 0
 493 027a 7B69     	 ldr r3,[r7,#20]
 494 027c 0022     	 movs r2,#0
 495 027e 1A73     	 strb r2,[r3,#12]
 185:../../../stack/LwMesh/TDMA/nwk/src/nwkDataReq.c **** 
 186:../../../stack/LwMesh/TDMA/nwk/src/nwkDataReq.c **** 		memcpy(frame->payload, req->data, req->size);
 496              	 .loc 1 186 0
 497 0280 7B69     	 ldr r3,[r7,#20]
 498 0282 D3F88100 	 ldr r0,[r3,#129]
 499 0286 7B68     	 ldr r3,[r7,#4]
 500 0288 5969     	 ldr r1,[r3,#20]
 501 028a 7B68     	 ldr r3,[r7,#4]
 502 028c 1B7E     	 ldrb r3,[r3,#24]
 503 028e 1A46     	 mov r2,r3
 504 0290 0B4B     	 ldr r3,.L29+20
 505 0292 9847     	 blx r3
 506              	.LVL6:
 187:../../../stack/LwMesh/TDMA/nwk/src/nwkDataReq.c **** 		frame->size += req->size;
 507              	 .loc 1 187 0
 508 0294 7B69     	 ldr r3,[r7,#20]
 509 0296 5A78     	 ldrb r2,[r3,#1]
 510 0298 7B68     	 ldr r3,[r7,#4]
 511 029a 1B7E     	 ldrb r3,[r3,#24]
 512 029c 1344     	 add r3,r3,r2
 513 029e DAB2     	 uxtb r2,r3
 514 02a0 7B69     	 ldr r3,[r7,#20]
 515 02a2 5A70     	 strb r2,[r3,#1]
 188:../../../stack/LwMesh/TDMA/nwk/src/nwkDataReq.c **** 
 189:../../../stack/LwMesh/TDMA/nwk/src/nwkDataReq.c **** 		nwkTxBeaconFrame(frame);
 516              	 .loc 1 189 0
 517 02a4 7869     	 ldr r0,[r7,#20]
 518 02a6 074B     	 ldr r3,.L29+24
 519 02a8 9847     	 blx r3
 520              	.LVL7:
 521 02aa D4E0     	 b .L24
 522              	.L30:
 523              	 .align 2
 524              	.L29:
 525 02ac 00000000 	 .word nwkFrameAlloc
 526 02b0 00000000 	 .word nwkFrameAlloc_LLDN
 527 02b4 00000000 	 .word n
 528 02b8 00000000 	 .word nwkTxBeaconFrameLLDN
 529 02bc 00000000 	 .word nwkTxMacCommandFrameLLDN
 530 02c0 00000000 	 .word memcpy
 531 02c4 00000000 	 .word nwkTxBeaconFrame
 532              	.L27:
 190:../../../stack/LwMesh/TDMA/nwk/src/nwkDataReq.c **** 	}
 191:../../../stack/LwMesh/TDMA/nwk/src/nwkDataReq.c **** 	else if(req->options != 0)
 533              	 .loc 1 191 0
 534 02c8 7B68     	 ldr r3,[r7,#4]
 535 02ca DB89     	 ldrh r3,[r3,#14]
 536 02cc 002B     	 cmp r3,#0
 537 02ce 00F0C280 	 beq .L24
 192:../../../stack/LwMesh/TDMA/nwk/src/nwkDataReq.c **** 	{
 193:../../../stack/LwMesh/TDMA/nwk/src/nwkDataReq.c **** 		frame->tx.control = (req->options & NWK_OPT_BROADCAST_PAN_ID) ? NWK_TX_CONTROL_BROADCAST_PAN_ID :
 538              	 .loc 1 193 0
 539 02d2 7B68     	 ldr r3,[r7,#4]
 540 02d4 DB89     	 ldrh r3,[r3,#14]
 541 02d6 03F00403 	 and r3,r3,#4
 542 02da 002B     	 cmp r3,#0
 543 02dc 14BF     	 ite ne
 544 02de 0123     	 movne r3,#1
 545 02e0 0023     	 moveq r3,#0
 546 02e2 DBB2     	 uxtb r3,r3
 547 02e4 1A46     	 mov r2,r3
 548 02e6 7B69     	 ldr r3,[r7,#20]
 549 02e8 83F88820 	 strb r2,[r3,#136]
 194:../../../stack/LwMesh/TDMA/nwk/src/nwkDataReq.c **** 
 195:../../../stack/LwMesh/TDMA/nwk/src/nwkDataReq.c **** 		frame->header.nwkFcf.ackRequest = (req->options & NWK_OPT_ACK_REQUEST) ? 1 : 0;
 550              	 .loc 1 195 0
 551 02ec 7B68     	 ldr r3,[r7,#4]
 552 02ee DB89     	 ldrh r3,[r3,#14]
 553 02f0 03F00103 	 and r3,r3,#1
 554 02f4 002B     	 cmp r3,#0
 555 02f6 14BF     	 ite ne
 556 02f8 0123     	 movne r3,#1
 557 02fa 0023     	 moveq r3,#0
 558 02fc D9B2     	 uxtb r1,r3
 559 02fe 7A69     	 ldr r2,[r7,#20]
 560 0300 D37A     	 ldrb r3,[r2,#11]
 561 0302 61F30003 	 bfi r3,r1,#0,#1
 562 0306 D372     	 strb r3,[r2,#11]
 196:../../../stack/LwMesh/TDMA/nwk/src/nwkDataReq.c **** 		frame->header.nwkFcf.linkLocal = (req->options & NWK_OPT_LINK_LOCAL) ? 1 : 0;
 563              	 .loc 1 196 0
 564 0308 7B68     	 ldr r3,[r7,#4]
 565 030a DB89     	 ldrh r3,[r3,#14]
 566 030c 03F00803 	 and r3,r3,#8
 567 0310 002B     	 cmp r3,#0
 568 0312 14BF     	 ite ne
 569 0314 0123     	 movne r3,#1
 570 0316 0023     	 moveq r3,#0
 571 0318 D9B2     	 uxtb r1,r3
 572 031a 7A69     	 ldr r2,[r7,#20]
 573 031c D37A     	 ldrb r3,[r2,#11]
 574 031e 61F38203 	 bfi r3,r1,#2,#1
 575 0322 D372     	 strb r3,[r2,#11]
 197:../../../stack/LwMesh/TDMA/nwk/src/nwkDataReq.c **** 		frame->header.nwkFcf.beacon = (req->options & NWK_OPT_BEACON) ? 1 : 0;
 576              	 .loc 1 197 0
 577 0324 7B68     	 ldr r3,[r7,#4]
 578 0326 DB89     	 ldrh r3,[r3,#14]
 579 0328 03F02003 	 and r3,r3,#32
 580 032c 002B     	 cmp r3,#0
 581 032e 14BF     	 ite ne
 582 0330 0123     	 movne r3,#1
 583 0332 0023     	 moveq r3,#0
 584 0334 D9B2     	 uxtb r1,r3
 585 0336 7A69     	 ldr r2,[r7,#20]
 586 0338 D37A     	 ldrb r3,[r2,#11]
 587 033a 61F30413 	 bfi r3,r1,#4,#1
 588 033e D372     	 strb r3,[r2,#11]
 198:../../../stack/LwMesh/TDMA/nwk/src/nwkDataReq.c **** 
 199:../../../stack/LwMesh/TDMA/nwk/src/nwkDataReq.c **** #ifdef NWK_ENABLE_SECURITY
 200:../../../stack/LwMesh/TDMA/nwk/src/nwkDataReq.c **** 		frame->header.nwkFcf.security = (req->options & NWK_OPT_ENABLE_SECURITY) ? 1 : 0;
 201:../../../stack/LwMesh/TDMA/nwk/src/nwkDataReq.c **** #endif
 202:../../../stack/LwMesh/TDMA/nwk/src/nwkDataReq.c **** 
 203:../../../stack/LwMesh/TDMA/nwk/src/nwkDataReq.c **** #ifdef NWK_ENABLE_MULTICAST
 204:../../../stack/LwMesh/TDMA/nwk/src/nwkDataReq.c **** 		frame->header.nwkFcf.multicast = (req->options & NWK_OPT_MULTICAST) ? 1 : 0;
 589              	 .loc 1 204 0
 590 0340 7B68     	 ldr r3,[r7,#4]
 591 0342 DB89     	 ldrh r3,[r3,#14]
 592 0344 03F01003 	 and r3,r3,#16
 593 0348 002B     	 cmp r3,#0
 594 034a 14BF     	 ite ne
 595 034c 0123     	 movne r3,#1
 596 034e 0023     	 moveq r3,#0
 597 0350 D9B2     	 uxtb r1,r3
 598 0352 7A69     	 ldr r2,[r7,#20]
 599 0354 D37A     	 ldrb r3,[r2,#11]
 600 0356 61F3C303 	 bfi r3,r1,#3,#1
 601 035a D372     	 strb r3,[r2,#11]
 205:../../../stack/LwMesh/TDMA/nwk/src/nwkDataReq.c **** 
 206:../../../stack/LwMesh/TDMA/nwk/src/nwkDataReq.c **** 		if(frame->header.nwkFcf.multicast)
 602              	 .loc 1 206 0
 603 035c 7B69     	 ldr r3,[r7,#20]
 604 035e DB7A     	 ldrb r3,[r3,#11]
 605 0360 03F00803 	 and r3,r3,#8
 606 0364 DBB2     	 uxtb r3,r3
 607 0366 002B     	 cmp r3,#0
 608 0368 38D0     	 beq .L28
 609              	.LBB3:
 207:../../../stack/LwMesh/TDMA/nwk/src/nwkDataReq.c **** 		{
 208:../../../stack/LwMesh/TDMA/nwk/src/nwkDataReq.c **** 			NwkFrameMulticastHeader_t *mcHeader = (NwkFrameMulticastHeader_t *)frame->payload;
 610              	 .loc 1 208 0
 611 036a 7B69     	 ldr r3,[r7,#20]
 612 036c D3F88130 	 ldr r3,[r3,#129]
 613 0370 FB60     	 str r3,[r7,#12]
 209:../../../stack/LwMesh/TDMA/nwk/src/nwkDataReq.c **** 
 210:../../../stack/LwMesh/TDMA/nwk/src/nwkDataReq.c **** 			mcHeader->memberRadius = req->memberRadius;
 614              	 .loc 1 210 0
 615 0372 7B68     	 ldr r3,[r7,#4]
 616 0374 1B7C     	 ldrb r3,[r3,#16]
 617 0376 03F00F03 	 and r3,r3,#15
 618 037a D9B2     	 uxtb r1,r3
 619 037c FA68     	 ldr r2,[r7,#12]
 620 037e 5378     	 ldrb r3,[r2,#1]
 621 0380 61F30303 	 bfi r3,r1,#0,#4
 622 0384 5370     	 strb r3,[r2,#1]
 211:../../../stack/LwMesh/TDMA/nwk/src/nwkDataReq.c **** 			mcHeader->maxMemberRadius = req->memberRadius;
 623              	 .loc 1 211 0
 624 0386 7B68     	 ldr r3,[r7,#4]
 625 0388 1B7C     	 ldrb r3,[r3,#16]
 626 038a 03F00F03 	 and r3,r3,#15
 627 038e D9B2     	 uxtb r1,r3
 628 0390 FA68     	 ldr r2,[r7,#12]
 629 0392 5378     	 ldrb r3,[r2,#1]
 630 0394 61F30713 	 bfi r3,r1,#4,#4
 631 0398 5370     	 strb r3,[r2,#1]
 212:../../../stack/LwMesh/TDMA/nwk/src/nwkDataReq.c **** 			mcHeader->nonMemberRadius = req->nonMemberRadius;
 632              	 .loc 1 212 0
 633 039a 7B68     	 ldr r3,[r7,#4]
 634 039c 5B7C     	 ldrb r3,[r3,#17]
 635 039e 03F00F03 	 and r3,r3,#15
 636 03a2 D9B2     	 uxtb r1,r3
 637 03a4 FA68     	 ldr r2,[r7,#12]
 638 03a6 1378     	 ldrb r3,[r2]
 639 03a8 61F30303 	 bfi r3,r1,#0,#4
 640 03ac 1370     	 strb r3,[r2]
 213:../../../stack/LwMesh/TDMA/nwk/src/nwkDataReq.c **** 			mcHeader->maxNonMemberRadius = req->nonMemberRadius;
 641              	 .loc 1 213 0
 642 03ae 7B68     	 ldr r3,[r7,#4]
 643 03b0 5B7C     	 ldrb r3,[r3,#17]
 644 03b2 03F00F03 	 and r3,r3,#15
 645 03b6 D9B2     	 uxtb r1,r3
 646 03b8 FA68     	 ldr r2,[r7,#12]
 647 03ba 1378     	 ldrb r3,[r2]
 648 03bc 61F30713 	 bfi r3,r1,#4,#4
 649 03c0 1370     	 strb r3,[r2]
 214:../../../stack/LwMesh/TDMA/nwk/src/nwkDataReq.c **** 
 215:../../../stack/LwMesh/TDMA/nwk/src/nwkDataReq.c **** 			frame->payload += sizeof(NwkFrameMulticastHeader_t);
 650              	 .loc 1 215 0
 651 03c2 7B69     	 ldr r3,[r7,#20]
 652 03c4 D3F88130 	 ldr r3,[r3,#129]
 653 03c8 9A1C     	 adds r2,r3,#2
 654 03ca 7B69     	 ldr r3,[r7,#20]
 655 03cc C3F88120 	 str r2,[r3,#129]
 216:../../../stack/LwMesh/TDMA/nwk/src/nwkDataReq.c **** 			frame->size += sizeof(NwkFrameMulticastHeader_t);
 656              	 .loc 1 216 0
 657 03d0 7B69     	 ldr r3,[r7,#20]
 658 03d2 5B78     	 ldrb r3,[r3,#1]
 659 03d4 0233     	 adds r3,r3,#2
 660 03d6 DAB2     	 uxtb r2,r3
 661 03d8 7B69     	 ldr r3,[r7,#20]
 662 03da 5A70     	 strb r2,[r3,#1]
 663              	.L28:
 664              	.LBE3:
 217:../../../stack/LwMesh/TDMA/nwk/src/nwkDataReq.c **** 		}
 218:../../../stack/LwMesh/TDMA/nwk/src/nwkDataReq.c **** #endif
 219:../../../stack/LwMesh/TDMA/nwk/src/nwkDataReq.c **** 
 220:../../../stack/LwMesh/TDMA/nwk/src/nwkDataReq.c **** 		frame->header.nwkSeq = ++nwkIb.nwkSeqNum;
 665              	 .loc 1 220 0
 666 03dc 244B     	 ldr r3,.L31
 667 03de 1B79     	 ldrb r3,[r3,#4]
 668 03e0 0133     	 adds r3,r3,#1
 669 03e2 DAB2     	 uxtb r2,r3
 670 03e4 224B     	 ldr r3,.L31
 671 03e6 1A71     	 strb r2,[r3,#4]
 672 03e8 214B     	 ldr r3,.L31
 673 03ea 1A79     	 ldrb r2,[r3,#4]
 674 03ec 7B69     	 ldr r3,[r7,#20]
 675 03ee 1A73     	 strb r2,[r3,#12]
 221:../../../stack/LwMesh/TDMA/nwk/src/nwkDataReq.c **** 		frame->header.nwkSrcAddr = nwkIb.addr;
 676              	 .loc 1 221 0
 677 03f0 1F4B     	 ldr r3,.L31
 678 03f2 1A88     	 ldrh r2,[r3]
 679 03f4 7B69     	 ldr r3,[r7,#20]
 680 03f6 A3F80D20 	 strh r2,[r3,#13]
 222:../../../stack/LwMesh/TDMA/nwk/src/nwkDataReq.c **** 		frame->header.nwkDstAddr = req->dstAddr;
 681              	 .loc 1 222 0
 682 03fa 7B68     	 ldr r3,[r7,#4]
 683 03fc 5A89     	 ldrh r2,[r3,#10]
 684 03fe 7B69     	 ldr r3,[r7,#20]
 685 0400 A3F80F20 	 strh r2,[r3,#15]
 223:../../../stack/LwMesh/TDMA/nwk/src/nwkDataReq.c **** 		frame->header.nwkSrcEndpoint = req->srcEndpoint;
 686              	 .loc 1 223 0
 687 0404 7B68     	 ldr r3,[r7,#4]
 688 0406 5B7B     	 ldrb r3,[r3,#13]
 689 0408 03F00F03 	 and r3,r3,#15
 690 040c D9B2     	 uxtb r1,r3
 691 040e 7A69     	 ldr r2,[r7,#20]
 692 0410 537C     	 ldrb r3,[r2,#17]
 693 0412 61F30303 	 bfi r3,r1,#0,#4
 694 0416 5374     	 strb r3,[r2,#17]
 224:../../../stack/LwMesh/TDMA/nwk/src/nwkDataReq.c **** 		frame->header.nwkDstEndpoint = req->dstEndpoint;
 695              	 .loc 1 224 0
 696 0418 7B68     	 ldr r3,[r7,#4]
 697 041a 1B7B     	 ldrb r3,[r3,#12]
 698 041c 03F00F03 	 and r3,r3,#15
 699 0420 D9B2     	 uxtb r1,r3
 700 0422 7A69     	 ldr r2,[r7,#20]
 701 0424 537C     	 ldrb r3,[r2,#17]
 702 0426 61F30713 	 bfi r3,r1,#4,#4
 703 042a 5374     	 strb r3,[r2,#17]
 225:../../../stack/LwMesh/TDMA/nwk/src/nwkDataReq.c **** 
 226:../../../stack/LwMesh/TDMA/nwk/src/nwkDataReq.c **** 		memcpy(frame->payload, req->data, req->size);
 704              	 .loc 1 226 0
 705 042c 7B69     	 ldr r3,[r7,#20]
 706 042e D3F88100 	 ldr r0,[r3,#129]
 707 0432 7B68     	 ldr r3,[r7,#4]
 708 0434 5969     	 ldr r1,[r3,#20]
 709 0436 7B68     	 ldr r3,[r7,#4]
 710 0438 1B7E     	 ldrb r3,[r3,#24]
 711 043a 1A46     	 mov r2,r3
 712 043c 0D4B     	 ldr r3,.L31+4
 713 043e 9847     	 blx r3
 714              	.LVL8:
 227:../../../stack/LwMesh/TDMA/nwk/src/nwkDataReq.c **** 		frame->size += req->size;
 715              	 .loc 1 227 0
 716 0440 7B69     	 ldr r3,[r7,#20]
 717 0442 5A78     	 ldrb r2,[r3,#1]
 718 0444 7B68     	 ldr r3,[r7,#4]
 719 0446 1B7E     	 ldrb r3,[r3,#24]
 720 0448 1344     	 add r3,r3,r2
 721 044a DAB2     	 uxtb r2,r3
 722 044c 7B69     	 ldr r3,[r7,#20]
 723 044e 5A70     	 strb r2,[r3,#1]
 228:../../../stack/LwMesh/TDMA/nwk/src/nwkDataReq.c **** 
 229:../../../stack/LwMesh/TDMA/nwk/src/nwkDataReq.c **** 		nwkTxFrame(frame);
 724              	 .loc 1 229 0
 725 0450 7869     	 ldr r0,[r7,#20]
 726 0452 094B     	 ldr r3,.L31+8
 727 0454 9847     	 blx r3
 728              	.LVL9:
 729              	.L24:
 230:../../../stack/LwMesh/TDMA/nwk/src/nwkDataReq.c **** 	}
 231:../../../stack/LwMesh/TDMA/nwk/src/nwkDataReq.c **** 	req->frame = frame;
 730              	 .loc 1 231 0
 731 0456 7B68     	 ldr r3,[r7,#4]
 732 0458 7A69     	 ldr r2,[r7,#20]
 733 045a 5A60     	 str r2,[r3,#4]
 232:../../../stack/LwMesh/TDMA/nwk/src/nwkDataReq.c **** 	req->state = NWK_DATA_REQ_STATE_WAIT_CONF;
 734              	 .loc 1 232 0
 735 045c 7B68     	 ldr r3,[r7,#4]
 736 045e 0122     	 movs r2,#1
 737 0460 1A72     	 strb r2,[r3,#8]
 233:../../../stack/LwMesh/TDMA/nwk/src/nwkDataReq.c **** 
 234:../../../stack/LwMesh/TDMA/nwk/src/nwkDataReq.c **** 	frame->tx.confirm = nwkDataReqTxConf;
 738              	 .loc 1 234 0
 739 0462 7B69     	 ldr r3,[r7,#20]
 740 0464 054A     	 ldr r2,.L31+12
 741 0466 C3F88920 	 str r2,[r3,#137]
 742              	.L10:
 235:../../../stack/LwMesh/TDMA/nwk/src/nwkDataReq.c **** }
 743              	 .loc 1 235 0
 744 046a 1837     	 adds r7,r7,#24
 745              	.LCFI13:
 746              	 .cfi_def_cfa_offset 8
 747 046c BD46     	 mov sp,r7
 748              	.LCFI14:
 749              	 .cfi_def_cfa_register 13
 750              	 
 751 046e 80BD     	 pop {r7,pc}
 752              	.L32:
 753              	 .align 2
 754              	.L31:
 755 0470 00000000 	 .word nwkIb
 756 0474 00000000 	 .word memcpy
 757 0478 00000000 	 .word nwkTxFrame
 758 047c 00000000 	 .word nwkDataReqTxConf
 759              	 .cfi_endproc
 760              	.LFE129:
 762              	 .align 1
 763              	 .syntax unified
 764              	 .thumb
 765              	 .thumb_func
 766              	 .fpu softvfp
 768              	nwkDataReqTxConf:
 769              	.LFB130:
 236:../../../stack/LwMesh/TDMA/nwk/src/nwkDataReq.c **** 
 237:../../../stack/LwMesh/TDMA/nwk/src/nwkDataReq.c **** /*************************************************************************//**
 238:../../../stack/LwMesh/TDMA/nwk/src/nwkDataReq.c **** *  @brief Frame transmission confirmation handler
 239:../../../stack/LwMesh/TDMA/nwk/src/nwkDataReq.c **** *  @param[in] frame Pointer to the sent frame
 240:../../../stack/LwMesh/TDMA/nwk/src/nwkDataReq.c **** *****************************************************************************/
 241:../../../stack/LwMesh/TDMA/nwk/src/nwkDataReq.c **** static void nwkDataReqTxConf(NwkFrame_t *frame)
 242:../../../stack/LwMesh/TDMA/nwk/src/nwkDataReq.c **** {
 770              	 .loc 1 242 0
 771              	 .cfi_startproc
 772              	 
 773              	 
 774 0480 80B5     	 push {r7,lr}
 775              	.LCFI15:
 776              	 .cfi_def_cfa_offset 8
 777              	 .cfi_offset 7,-8
 778              	 .cfi_offset 14,-4
 779 0482 84B0     	 sub sp,sp,#16
 780              	.LCFI16:
 781              	 .cfi_def_cfa_offset 24
 782 0484 00AF     	 add r7,sp,#0
 783              	.LCFI17:
 784              	 .cfi_def_cfa_register 7
 785 0486 7860     	 str r0,[r7,#4]
 786              	.LBB4:
 243:../../../stack/LwMesh/TDMA/nwk/src/nwkDataReq.c **** 	for (NWK_DataReq_t *req = nwkDataReqQueue; req; req = req->next) {
 787              	 .loc 1 243 0
 788 0488 124B     	 ldr r3,.L38
 789 048a 1B68     	 ldr r3,[r3]
 790 048c FB60     	 str r3,[r7,#12]
 791 048e 17E0     	 b .L34
 792              	.L37:
 244:../../../stack/LwMesh/TDMA/nwk/src/nwkDataReq.c **** 		if (req->frame == frame) {
 793              	 .loc 1 244 0
 794 0490 FB68     	 ldr r3,[r7,#12]
 795 0492 5A68     	 ldr r2,[r3,#4]
 796 0494 7B68     	 ldr r3,[r7,#4]
 797 0496 9A42     	 cmp r2,r3
 798 0498 0FD1     	 bne .L35
 245:../../../stack/LwMesh/TDMA/nwk/src/nwkDataReq.c **** 			req->status = frame->tx.status;
 799              	 .loc 1 245 0
 800 049a 7B68     	 ldr r3,[r7,#4]
 801 049c 93F88520 	 ldrb r2,[r3,#133]
 802 04a0 FB68     	 ldr r3,[r7,#12]
 803 04a2 83F82020 	 strb r2,[r3,#32]
 246:../../../stack/LwMesh/TDMA/nwk/src/nwkDataReq.c **** 			req->control = frame->tx.control;
 804              	 .loc 1 246 0
 805 04a6 7B68     	 ldr r3,[r7,#4]
 806 04a8 93F88820 	 ldrb r2,[r3,#136]
 807 04ac FB68     	 ldr r3,[r7,#12]
 808 04ae 83F82120 	 strb r2,[r3,#33]
 247:../../../stack/LwMesh/TDMA/nwk/src/nwkDataReq.c **** 			req->state = NWK_DATA_REQ_STATE_CONFIRM;
 809              	 .loc 1 247 0
 810 04b2 FB68     	 ldr r3,[r7,#12]
 811 04b4 0222     	 movs r2,#2
 812 04b6 1A72     	 strb r2,[r3,#8]
 248:../../../stack/LwMesh/TDMA/nwk/src/nwkDataReq.c **** 			break;
 813              	 .loc 1 248 0
 814 04b8 05E0     	 b .L36
 815              	.L35:
 243:../../../stack/LwMesh/TDMA/nwk/src/nwkDataReq.c **** 		if (req->frame == frame) {
 816              	 .loc 1 243 0 discriminator 2
 817 04ba FB68     	 ldr r3,[r7,#12]
 818 04bc 1B68     	 ldr r3,[r3]
 819 04be FB60     	 str r3,[r7,#12]
 820              	.L34:
 243:../../../stack/LwMesh/TDMA/nwk/src/nwkDataReq.c **** 		if (req->frame == frame) {
 821              	 .loc 1 243 0 is_stmt 0 discriminator 1
 822 04c0 FB68     	 ldr r3,[r7,#12]
 823 04c2 002B     	 cmp r3,#0
 824 04c4 E4D1     	 bne .L37
 825              	.L36:
 826              	.LBE4:
 249:../../../stack/LwMesh/TDMA/nwk/src/nwkDataReq.c **** 		}
 250:../../../stack/LwMesh/TDMA/nwk/src/nwkDataReq.c **** 	}
 251:../../../stack/LwMesh/TDMA/nwk/src/nwkDataReq.c **** 	
 252:../../../stack/LwMesh/TDMA/nwk/src/nwkDataReq.c **** 	nwkFrameFree(frame);
 827              	 .loc 1 252 0 is_stmt 1
 828 04c6 7868     	 ldr r0,[r7,#4]
 829 04c8 034B     	 ldr r3,.L38+4
 830 04ca 9847     	 blx r3
 831              	.LVL10:
 253:../../../stack/LwMesh/TDMA/nwk/src/nwkDataReq.c **** }
 832              	 .loc 1 253 0
 833 04cc 00BF     	 nop
 834 04ce 1037     	 adds r7,r7,#16
 835              	.LCFI18:
 836              	 .cfi_def_cfa_offset 8
 837 04d0 BD46     	 mov sp,r7
 838              	.LCFI19:
 839              	 .cfi_def_cfa_register 13
 840              	 
 841 04d2 80BD     	 pop {r7,pc}
 842              	.L39:
 843              	 .align 2
 844              	.L38:
 845 04d4 00000000 	 .word nwkDataReqQueue
 846 04d8 00000000 	 .word nwkFrameFree
 847              	 .cfi_endproc
 848              	.LFE130:
 850              	 .align 1
 851              	 .syntax unified
 852              	 .thumb
 853              	 .thumb_func
 854              	 .fpu softvfp
 856              	nwkDataReqConfirm:
 857              	.LFB131:
 254:../../../stack/LwMesh/TDMA/nwk/src/nwkDataReq.c **** 
 255:../../../stack/LwMesh/TDMA/nwk/src/nwkDataReq.c **** /*************************************************************************//**
 256:../../../stack/LwMesh/TDMA/nwk/src/nwkDataReq.c **** *  @brief Confirms request @req to the application and remove it from the queue
 257:../../../stack/LwMesh/TDMA/nwk/src/nwkDataReq.c **** *  @param[in] req Pointer to the request parameters
 258:../../../stack/LwMesh/TDMA/nwk/src/nwkDataReq.c **** *****************************************************************************/
 259:../../../stack/LwMesh/TDMA/nwk/src/nwkDataReq.c **** static void nwkDataReqConfirm(NWK_DataReq_t *req)
 260:../../../stack/LwMesh/TDMA/nwk/src/nwkDataReq.c **** {
 858              	 .loc 1 260 0
 859              	 .cfi_startproc
 860              	 
 861              	 
 862 04dc 80B5     	 push {r7,lr}
 863              	.LCFI20:
 864              	 .cfi_def_cfa_offset 8
 865              	 .cfi_offset 7,-8
 866              	 .cfi_offset 14,-4
 867 04de 84B0     	 sub sp,sp,#16
 868              	.LCFI21:
 869              	 .cfi_def_cfa_offset 24
 870 04e0 00AF     	 add r7,sp,#0
 871              	.LCFI22:
 872              	 .cfi_def_cfa_register 7
 873 04e2 7860     	 str r0,[r7,#4]
 261:../../../stack/LwMesh/TDMA/nwk/src/nwkDataReq.c **** 	if (nwkDataReqQueue == req) {
 874              	 .loc 1 261 0
 875 04e4 174B     	 ldr r3,.L47
 876 04e6 1A68     	 ldr r2,[r3]
 877 04e8 7B68     	 ldr r3,[r7,#4]
 878 04ea 9A42     	 cmp r2,r3
 879 04ec 05D1     	 bne .L41
 262:../../../stack/LwMesh/TDMA/nwk/src/nwkDataReq.c **** 		nwkDataReqQueue = nwkDataReqQueue->next;
 880              	 .loc 1 262 0
 881 04ee 154B     	 ldr r3,.L47
 882 04f0 1B68     	 ldr r3,[r3]
 883 04f2 1B68     	 ldr r3,[r3]
 884 04f4 134A     	 ldr r2,.L47
 885 04f6 1360     	 str r3,[r2]
 886 04f8 10E0     	 b .L42
 887              	.L41:
 888              	.LBB5:
 263:../../../stack/LwMesh/TDMA/nwk/src/nwkDataReq.c **** 	} else {
 264:../../../stack/LwMesh/TDMA/nwk/src/nwkDataReq.c **** 		NWK_DataReq_t *prev = nwkDataReqQueue;
 889              	 .loc 1 264 0
 890 04fa 124B     	 ldr r3,.L47
 891 04fc 1B68     	 ldr r3,[r3]
 892 04fe FB60     	 str r3,[r7,#12]
 265:../../../stack/LwMesh/TDMA/nwk/src/nwkDataReq.c **** 		while (prev->next != req) {
 893              	 .loc 1 265 0
 894 0500 02E0     	 b .L43
 895              	.L44:
 266:../../../stack/LwMesh/TDMA/nwk/src/nwkDataReq.c **** 			prev = prev->next;
 896              	 .loc 1 266 0
 897 0502 FB68     	 ldr r3,[r7,#12]
 898 0504 1B68     	 ldr r3,[r3]
 899 0506 FB60     	 str r3,[r7,#12]
 900              	.L43:
 265:../../../stack/LwMesh/TDMA/nwk/src/nwkDataReq.c **** 		while (prev->next != req) {
 901              	 .loc 1 265 0
 902 0508 FB68     	 ldr r3,[r7,#12]
 903 050a 1A68     	 ldr r2,[r3]
 904 050c 7B68     	 ldr r3,[r7,#4]
 905 050e 9A42     	 cmp r2,r3
 906 0510 F7D1     	 bne .L44
 267:../../../stack/LwMesh/TDMA/nwk/src/nwkDataReq.c **** 		}
 268:../../../stack/LwMesh/TDMA/nwk/src/nwkDataReq.c **** 		prev->next = ((NWK_DataReq_t *)prev->next)->next;
 907              	 .loc 1 268 0
 908 0512 FB68     	 ldr r3,[r7,#12]
 909 0514 1B68     	 ldr r3,[r3]
 910 0516 1A68     	 ldr r2,[r3]
 911 0518 FB68     	 ldr r3,[r7,#12]
 912 051a 1A60     	 str r2,[r3]
 913              	.L42:
 914              	.LBE5:
 269:../../../stack/LwMesh/TDMA/nwk/src/nwkDataReq.c **** 	}
 270:../../../stack/LwMesh/TDMA/nwk/src/nwkDataReq.c **** 
 271:../../../stack/LwMesh/TDMA/nwk/src/nwkDataReq.c **** 	nwkIb.lock--;
 915              	 .loc 1 271 0
 916 051c 0A4B     	 ldr r3,.L47+4
 917 051e B3F84830 	 ldrh r3,[r3,#72]
 918 0522 013B     	 subs r3,r3,#1
 919 0524 9AB2     	 uxth r2,r3
 920 0526 084B     	 ldr r3,.L47+4
 921 0528 A3F84820 	 strh r2,[r3,#72]
 272:../../../stack/LwMesh/TDMA/nwk/src/nwkDataReq.c **** 
 273:../../../stack/LwMesh/TDMA/nwk/src/nwkDataReq.c **** 	if(req->confirm != NULL)
 922              	 .loc 1 273 0
 923 052c 7B68     	 ldr r3,[r7,#4]
 924 052e DB69     	 ldr r3,[r3,#28]
 925 0530 002B     	 cmp r3,#0
 926 0532 03D0     	 beq .L46
 274:../../../stack/LwMesh/TDMA/nwk/src/nwkDataReq.c **** 	{
 275:../../../stack/LwMesh/TDMA/nwk/src/nwkDataReq.c **** 		req->confirm(req);
 927              	 .loc 1 275 0
 928 0534 7B68     	 ldr r3,[r7,#4]
 929 0536 DB69     	 ldr r3,[r3,#28]
 930 0538 7868     	 ldr r0,[r7,#4]
 931 053a 9847     	 blx r3
 932              	.LVL11:
 933              	.L46:
 276:../../../stack/LwMesh/TDMA/nwk/src/nwkDataReq.c **** 	}
 277:../../../stack/LwMesh/TDMA/nwk/src/nwkDataReq.c **** }
 934              	 .loc 1 277 0
 935 053c 00BF     	 nop
 936 053e 1037     	 adds r7,r7,#16
 937              	.LCFI23:
 938              	 .cfi_def_cfa_offset 8
 939 0540 BD46     	 mov sp,r7
 940              	.LCFI24:
 941              	 .cfi_def_cfa_register 13
 942              	 
 943 0542 80BD     	 pop {r7,pc}
 944              	.L48:
 945              	 .align 2
 946              	.L47:
 947 0544 00000000 	 .word nwkDataReqQueue
 948 0548 00000000 	 .word nwkIb
 949              	 .cfi_endproc
 950              	.LFE131:
 952              	 .align 1
 953              	 .global nwkDataReqTaskHandler
 954              	 .syntax unified
 955              	 .thumb
 956              	 .thumb_func
 957              	 .fpu softvfp
 959              	nwkDataReqTaskHandler:
 960              	.LFB132:
 278:../../../stack/LwMesh/TDMA/nwk/src/nwkDataReq.c **** 
 279:../../../stack/LwMesh/TDMA/nwk/src/nwkDataReq.c **** /*************************************************************************//**
 280:../../../stack/LwMesh/TDMA/nwk/src/nwkDataReq.c **** *  @brief Data Request module task handler
 281:../../../stack/LwMesh/TDMA/nwk/src/nwkDataReq.c **** *****************************************************************************/
 282:../../../stack/LwMesh/TDMA/nwk/src/nwkDataReq.c **** void nwkDataReqTaskHandler(void)
 283:../../../stack/LwMesh/TDMA/nwk/src/nwkDataReq.c **** {
 961              	 .loc 1 283 0
 962              	 .cfi_startproc
 963              	 
 964              	 
 965 054c 80B5     	 push {r7,lr}
 966              	.LCFI25:
 967              	 .cfi_def_cfa_offset 8
 968              	 .cfi_offset 7,-8
 969              	 .cfi_offset 14,-4
 970 054e 82B0     	 sub sp,sp,#8
 971              	.LCFI26:
 972              	 .cfi_def_cfa_offset 16
 973 0550 00AF     	 add r7,sp,#0
 974              	.LCFI27:
 975              	 .cfi_def_cfa_register 7
 976              	.LBB6:
 284:../../../stack/LwMesh/TDMA/nwk/src/nwkDataReq.c **** 	for (NWK_DataReq_t *req = nwkDataReqQueue; req; req = req->next) {
 977              	 .loc 1 284 0
 978 0552 0F4B     	 ldr r3,.L59
 979 0554 1B68     	 ldr r3,[r3]
 980 0556 7B60     	 str r3,[r7,#4]
 981 0558 14E0     	 b .L50
 982              	.L57:
 285:../../../stack/LwMesh/TDMA/nwk/src/nwkDataReq.c **** 		switch (req->state) {
 983              	 .loc 1 285 0
 984 055a 7B68     	 ldr r3,[r7,#4]
 985 055c 1B7A     	 ldrb r3,[r3,#8]
 986 055e 012B     	 cmp r3,#1
 987 0560 0CD0     	 beq .L58
 988 0562 022B     	 cmp r3,#2
 989 0564 06D0     	 beq .L53
 990 0566 002B     	 cmp r3,#0
 991 0568 00D0     	 beq .L54
 286:../../../stack/LwMesh/TDMA/nwk/src/nwkDataReq.c **** 		case NWK_DATA_REQ_STATE_INITIAL:
 287:../../../stack/LwMesh/TDMA/nwk/src/nwkDataReq.c **** 		{
 288:../../../stack/LwMesh/TDMA/nwk/src/nwkDataReq.c **** 			nwkDataReqSendFrame(req);
 289:../../../stack/LwMesh/TDMA/nwk/src/nwkDataReq.c **** 			return;
 290:../../../stack/LwMesh/TDMA/nwk/src/nwkDataReq.c **** 		}
 291:../../../stack/LwMesh/TDMA/nwk/src/nwkDataReq.c **** 		break;
 292:../../../stack/LwMesh/TDMA/nwk/src/nwkDataReq.c **** 
 293:../../../stack/LwMesh/TDMA/nwk/src/nwkDataReq.c **** 		case NWK_DATA_REQ_STATE_WAIT_CONF:
 294:../../../stack/LwMesh/TDMA/nwk/src/nwkDataReq.c **** 			break;
 295:../../../stack/LwMesh/TDMA/nwk/src/nwkDataReq.c **** 
 296:../../../stack/LwMesh/TDMA/nwk/src/nwkDataReq.c **** 		case NWK_DATA_REQ_STATE_CONFIRM:
 297:../../../stack/LwMesh/TDMA/nwk/src/nwkDataReq.c **** 		{
 298:../../../stack/LwMesh/TDMA/nwk/src/nwkDataReq.c **** 			nwkDataReqConfirm(req);
 299:../../../stack/LwMesh/TDMA/nwk/src/nwkDataReq.c **** 			
 300:../../../stack/LwMesh/TDMA/nwk/src/nwkDataReq.c **** 			return;
 301:../../../stack/LwMesh/TDMA/nwk/src/nwkDataReq.c **** 		}
 302:../../../stack/LwMesh/TDMA/nwk/src/nwkDataReq.c **** 		break;
 303:../../../stack/LwMesh/TDMA/nwk/src/nwkDataReq.c **** 
 304:../../../stack/LwMesh/TDMA/nwk/src/nwkDataReq.c **** 		default:
 305:../../../stack/LwMesh/TDMA/nwk/src/nwkDataReq.c **** 			break;
 992              	 .loc 1 305 0
 993 056a 08E0     	 b .L56
 994              	.L54:
 288:../../../stack/LwMesh/TDMA/nwk/src/nwkDataReq.c **** 			return;
 995              	 .loc 1 288 0
 996 056c 7868     	 ldr r0,[r7,#4]
 997 056e FFF785FD 	 bl nwkDataReqSendFrame
 289:../../../stack/LwMesh/TDMA/nwk/src/nwkDataReq.c **** 		}
 998              	 .loc 1 289 0
 999 0572 0AE0     	 b .L49
 1000              	.L53:
 298:../../../stack/LwMesh/TDMA/nwk/src/nwkDataReq.c **** 			
 1001              	 .loc 1 298 0
 1002 0574 7868     	 ldr r0,[r7,#4]
 1003 0576 FFF7B1FF 	 bl nwkDataReqConfirm
 300:../../../stack/LwMesh/TDMA/nwk/src/nwkDataReq.c **** 		}
 1004              	 .loc 1 300 0
 1005 057a 06E0     	 b .L49
 1006              	.L58:
 294:../../../stack/LwMesh/TDMA/nwk/src/nwkDataReq.c **** 
 1007              	 .loc 1 294 0
 1008 057c 00BF     	 nop
 1009              	.L56:
 284:../../../stack/LwMesh/TDMA/nwk/src/nwkDataReq.c **** 		switch (req->state) {
 1010              	 .loc 1 284 0 discriminator 2
 1011 057e 7B68     	 ldr r3,[r7,#4]
 1012 0580 1B68     	 ldr r3,[r3]
 1013 0582 7B60     	 str r3,[r7,#4]
 1014              	.L50:
 284:../../../stack/LwMesh/TDMA/nwk/src/nwkDataReq.c **** 		switch (req->state) {
 1015              	 .loc 1 284 0 is_stmt 0 discriminator 1
 1016 0584 7B68     	 ldr r3,[r7,#4]
 1017 0586 002B     	 cmp r3,#0
 1018 0588 E7D1     	 bne .L57
 1019              	.L49:
 1020              	.LBE6:
 306:../../../stack/LwMesh/TDMA/nwk/src/nwkDataReq.c **** 		}
 307:../../../stack/LwMesh/TDMA/nwk/src/nwkDataReq.c **** 	}
 308:../../../stack/LwMesh/TDMA/nwk/src/nwkDataReq.c **** }
 1021              	 .loc 1 308 0 is_stmt 1
 1022 058a 0837     	 adds r7,r7,#8
 1023              	.LCFI28:
 1024              	 .cfi_def_cfa_offset 8
 1025 058c BD46     	 mov sp,r7
 1026              	.LCFI29:
 1027              	 .cfi_def_cfa_register 13
 1028              	 
 1029 058e 80BD     	 pop {r7,pc}
 1030              	.L60:
 1031              	 .align 2
 1032              	.L59:
 1033 0590 00000000 	 .word nwkDataReqQueue
 1034              	 .cfi_endproc
 1035              	.LFE132:
 1037              	.Letext0:
 1038              	 .file 2 "c:\\program files (x86)\\atmel\\studio\\7.0\\toolchain\\arm\\arm-gnu-toolchain\\arm-none-eabi\\include\\machine\\_default_types.h"
 1039              	 .file 3 "c:\\program files (x86)\\atmel\\studio\\7.0\\toolchain\\arm\\arm-gnu-toolchain\\arm-none-eabi\\include\\sys\\lock.h"
 1040              	 .file 4 "c:\\program files (x86)\\atmel\\studio\\7.0\\toolchain\\arm\\arm-gnu-toolchain\\arm-none-eabi\\include\\sys\\_types.h"
 1041              	 .file 5 "c:\\program files (x86)\\atmel\\studio\\7.0\\toolchain\\arm\\arm-gnu-toolchain\\lib\\gcc\\arm-none-eabi\\6.3.1\\include\\stddef.h"
 1042              	 .file 6 "c:\\program files (x86)\\atmel\\studio\\7.0\\toolchain\\arm\\arm-gnu-toolchain\\arm-none-eabi\\include\\sys\\reent.h"
 1043              	 .file 7 "c:\\program files (x86)\\atmel\\studio\\7.0\\toolchain\\arm\\arm-gnu-toolchain\\arm-none-eabi\\include\\stdlib.h"
 1044              	 .file 8 "c:\\program files (x86)\\atmel\\studio\\7.0\\toolchain\\arm\\arm-gnu-toolchain\\arm-none-eabi\\include\\sys\\_stdint.h"
 1045              	 .file 9 "../../../platform/thirdparty/CMSIS/include/core_cm4.h"
 1046              	 .file 10 "../../../platform/sam/utils/cmsis/sam4l/source/templates/system_sam4l.h"
 1047              	 .file 11 "../../../platform/common/utils/interrupt/interrupt_sam_nvic.h"
 1048              	 .file 12 "../../../platform/sam/utils/compiler.h"
 1049              	 .file 13 "../../../platform/common/services/usb/usb_protocol.h"
 1050              	 .file 14 "../../../platform/common/services/usb/udc/udi.h"
 1051              	 .file 15 "../../../platform/common/services/usb/udc/udc_desc.h"
 1052              	 .file 16 "../../../platform/common/services/usb/udc/udd.h"
 1053              	 .file 17 "../../../platform/common/services/usb/class/cdc/device/udi_cdc.h"
 1054              	 .file 18 "../../../platform/common/utils/stdio/stdio_usb/stdio_usb.h"
 1055              	 .file 19 "../../../stack/LwMesh/TDMA/nwk/inc/nwkFrame.h"
 1056              	 .file 20 "../../../stack/LwMesh/TDMA/nwk/inc/nwkRx.h"
 1057              	 .file 21 "../../../stack/LwMesh/TDMA/nwk/inc/nwkDataReq.h"
 1058              	 .file 22 "../../../stack/LwMesh/TDMA/nwk/inc/nwk.h"
 1059              	 .file 23 "../../../stack/LwMesh/TDMA/nwk/inc/nwkTx.h"
 1060              	 .file 24 "config/config.h"
 1061              	 .file 25 "<built-in>"
DEFINED SYMBOLS
                            *ABS*:00000000 nwkDataReq.c
    {standard input}:16     .bss.cpu_irq_critical_section_counter:00000000 $d
    {standard input}:19     .bss.cpu_irq_critical_section_counter:00000000 cpu_irq_critical_section_counter
    {standard input}:24     .bss.cpu_irq_prev_interrupt_state:00000000 cpu_irq_prev_interrupt_state
    {standard input}:25     .bss.cpu_irq_prev_interrupt_state:00000000 $d
                            *COM*:00000001 n
    {standard input}:28     .bss.tTS:00000000 $d
    {standard input}:31     .bss.tTS:00000000 tTS
    {standard input}:34     .bss.nwkDataReqQueue:00000000 $d
    {standard input}:37     .bss.nwkDataReqQueue:00000000 nwkDataReqQueue
    {standard input}:40     .text:00000000 $t
    {standard input}:47     .text:00000000 nwkDataReqInit
    {standard input}:80     .text:00000014 $d
    {standard input}:84     .text:00000018 $t
    {standard input}:91     .text:00000018 NWK_DataReq
    {standard input}:171    .text:00000074 $d
    {standard input}:176    .text:0000007c $t
    {standard input}:182    .text:0000007c nwkDataReqSendFrame
    {standard input}:525    .text:000002ac $d
    {standard input}:534    .text:000002c8 $t
    {standard input}:755    .text:00000470 $d
    {standard input}:768    .text:00000480 nwkDataReqTxConf
    {standard input}:762    .text:00000480 $t
    {standard input}:845    .text:000004d4 $d
    {standard input}:850    .text:000004dc $t
    {standard input}:856    .text:000004dc nwkDataReqConfirm
    {standard input}:947    .text:00000544 $d
    {standard input}:952    .text:0000054c $t
    {standard input}:959    .text:0000054c nwkDataReqTaskHandler
    {standard input}:1033   .text:00000590 $d
                     .debug_frame:00000010 $d

UNDEFINED SYMBOLS
nwkIb
nwkFrameAlloc
nwkFrameAlloc_LLDN
nwkTxBeaconFrameLLDN
nwkTxMacCommandFrameLLDN
memcpy
nwkTxBeaconFrame
nwkTxFrame
nwkFrameFree
