   1               		.file	"nwkGroup.c"
   2               	__SP_H__ = 0x3e
   3               	__SP_L__ = 0x3d
   4               	__SREG__ = 0x3f
   5               	__RAMPZ__ = 0x3b
   6               	__tmp_reg__ = 0
   7               	__zero_reg__ = 1
   8               		.text
   9               	.Ltext0:
  10               		.cfi_sections	.debug_frame
  11               		.comm	n,1,1
  12               		.comm	tTS,4,1
  13               		.section	.bss.nwkGroups,"aw",@nobits
  16               	nwkGroups:
  17 0000 0000 0000 		.zero	6
  17      0000 
  18               		.text
  19               	.global	nwkGroupInit
  21               	nwkGroupInit:
  22               	.LFB65:
  23               		.file 1 "../../../stack/LwMesh/TDMA/nwk/src/nwkGroup.c"
   1:../../../stack/LwMesh/TDMA/nwk/src/nwkGroup.c **** /**
   2:../../../stack/LwMesh/TDMA/nwk/src/nwkGroup.c ****  * \file nwkGroup.c
   3:../../../stack/LwMesh/TDMA/nwk/src/nwkGroup.c ****  *
   4:../../../stack/LwMesh/TDMA/nwk/src/nwkGroup.c ****  * \brief Multicast group management implementation
   5:../../../stack/LwMesh/TDMA/nwk/src/nwkGroup.c ****  *
   6:../../../stack/LwMesh/TDMA/nwk/src/nwkGroup.c ****  * Copyright (C) 2014 Atmel Corporation. All rights reserved.
   7:../../../stack/LwMesh/TDMA/nwk/src/nwkGroup.c ****  *
   8:../../../stack/LwMesh/TDMA/nwk/src/nwkGroup.c ****  * \asf_license_start
   9:../../../stack/LwMesh/TDMA/nwk/src/nwkGroup.c ****  *
  10:../../../stack/LwMesh/TDMA/nwk/src/nwkGroup.c ****  * Redistribution and use in source and binary forms, with or without
  11:../../../stack/LwMesh/TDMA/nwk/src/nwkGroup.c ****  * modification, are permitted provided that the following conditions are met:
  12:../../../stack/LwMesh/TDMA/nwk/src/nwkGroup.c ****  *
  13:../../../stack/LwMesh/TDMA/nwk/src/nwkGroup.c ****  * 1. Redistributions of source code must retain the above copyright notice,
  14:../../../stack/LwMesh/TDMA/nwk/src/nwkGroup.c ****  *    this list of conditions and the following disclaimer.
  15:../../../stack/LwMesh/TDMA/nwk/src/nwkGroup.c ****  *
  16:../../../stack/LwMesh/TDMA/nwk/src/nwkGroup.c ****  * 2. Redistributions in binary form must reproduce the above copyright notice,
  17:../../../stack/LwMesh/TDMA/nwk/src/nwkGroup.c ****  *    this list of conditions and the following disclaimer in the documentation
  18:../../../stack/LwMesh/TDMA/nwk/src/nwkGroup.c ****  *    and/or other materials provided with the distribution.
  19:../../../stack/LwMesh/TDMA/nwk/src/nwkGroup.c ****  *
  20:../../../stack/LwMesh/TDMA/nwk/src/nwkGroup.c ****  * 3. The name of Atmel may not be used to endorse or promote products derived
  21:../../../stack/LwMesh/TDMA/nwk/src/nwkGroup.c ****  *    from this software without specific prior written permission.
  22:../../../stack/LwMesh/TDMA/nwk/src/nwkGroup.c ****  *
  23:../../../stack/LwMesh/TDMA/nwk/src/nwkGroup.c ****  * 4. This software may only be redistributed and used in connection with an
  24:../../../stack/LwMesh/TDMA/nwk/src/nwkGroup.c ****  *    Atmel microcontroller product.
  25:../../../stack/LwMesh/TDMA/nwk/src/nwkGroup.c ****  *
  26:../../../stack/LwMesh/TDMA/nwk/src/nwkGroup.c ****  * THIS SOFTWARE IS PROVIDED BY ATMEL "AS IS" AND ANY EXPRESS OR IMPLIED
  27:../../../stack/LwMesh/TDMA/nwk/src/nwkGroup.c ****  * WARRANTIES, INCLUDING, BUT NOT LIMITED TO, THE IMPLIED WARRANTIES OF
  28:../../../stack/LwMesh/TDMA/nwk/src/nwkGroup.c ****  * MERCHANTABILITY, FITNESS FOR A PARTICULAR PURPOSE AND NON-INFRINGEMENT ARE
  29:../../../stack/LwMesh/TDMA/nwk/src/nwkGroup.c ****  * EXPRESSLY AND SPECIFICALLY DISCLAIMED. IN NO EVENT SHALL ATMEL BE LIABLE FOR
  30:../../../stack/LwMesh/TDMA/nwk/src/nwkGroup.c ****  * ANY DIRECT, INDIRECT, INCIDENTAL, SPECIAL, EXEMPLARY, OR CONSEQUENTIAL
  31:../../../stack/LwMesh/TDMA/nwk/src/nwkGroup.c ****  * DAMAGES (INCLUDING, BUT NOT LIMITED TO, PROCUREMENT OF SUBSTITUTE GOODS
  32:../../../stack/LwMesh/TDMA/nwk/src/nwkGroup.c ****  * OR SERVICES; LOSS OF USE, DATA, OR PROFITS; OR BUSINESS INTERRUPTION)
  33:../../../stack/LwMesh/TDMA/nwk/src/nwkGroup.c ****  * HOWEVER CAUSED AND ON ANY THEORY OF LIABILITY, WHETHER IN CONTRACT,
  34:../../../stack/LwMesh/TDMA/nwk/src/nwkGroup.c ****  * STRICT LIABILITY, OR TORT (INCLUDING NEGLIGENCE OR OTHERWISE) ARISING IN
  35:../../../stack/LwMesh/TDMA/nwk/src/nwkGroup.c ****  * ANY WAY OUT OF THE USE OF THIS SOFTWARE, EVEN IF ADVISED OF THE
  36:../../../stack/LwMesh/TDMA/nwk/src/nwkGroup.c ****  * POSSIBILITY OF SUCH DAMAGE.
  37:../../../stack/LwMesh/TDMA/nwk/src/nwkGroup.c ****  *
  38:../../../stack/LwMesh/TDMA/nwk/src/nwkGroup.c ****  * \asf_license_stop
  39:../../../stack/LwMesh/TDMA/nwk/src/nwkGroup.c ****  *
  40:../../../stack/LwMesh/TDMA/nwk/src/nwkGroup.c ****  *
  41:../../../stack/LwMesh/TDMA/nwk/src/nwkGroup.c ****  */
  42:../../../stack/LwMesh/TDMA/nwk/src/nwkGroup.c **** 
  43:../../../stack/LwMesh/TDMA/nwk/src/nwkGroup.c **** /*
  44:../../../stack/LwMesh/TDMA/nwk/src/nwkGroup.c ****  * Copyright (c) 2014, Atmel Corporation All rights reserved.
  45:../../../stack/LwMesh/TDMA/nwk/src/nwkGroup.c ****  *
  46:../../../stack/LwMesh/TDMA/nwk/src/nwkGroup.c ****  * Licensed under Atmel's Limited License Agreement --> EULA.txt
  47:../../../stack/LwMesh/TDMA/nwk/src/nwkGroup.c ****  */
  48:../../../stack/LwMesh/TDMA/nwk/src/nwkGroup.c **** 
  49:../../../stack/LwMesh/TDMA/nwk/src/nwkGroup.c **** /*- Includes ---------------------------------------------------------------*/
  50:../../../stack/LwMesh/TDMA/nwk/src/nwkGroup.c **** #include <stdlib.h>
  51:../../../stack/LwMesh/TDMA/nwk/src/nwkGroup.c **** #include <stdint.h>
  52:../../../stack/LwMesh/TDMA/nwk/src/nwkGroup.c **** #include <stdbool.h>
  53:../../../stack/LwMesh/TDMA/nwk/src/nwkGroup.c **** #include <string.h>
  54:../../../stack/LwMesh/TDMA/nwk/src/nwkGroup.c **** #include "sysConfig.h"
  55:../../../stack/LwMesh/TDMA/nwk/src/nwkGroup.c **** #include "nwkGroup.h"
  56:../../../stack/LwMesh/TDMA/nwk/src/nwkGroup.c **** 
  57:../../../stack/LwMesh/TDMA/nwk/src/nwkGroup.c **** #ifdef NWK_ENABLE_MULTICAST
  58:../../../stack/LwMesh/TDMA/nwk/src/nwkGroup.c **** 
  59:../../../stack/LwMesh/TDMA/nwk/src/nwkGroup.c **** /*- Definitions ------------------------------------------------------------*/
  60:../../../stack/LwMesh/TDMA/nwk/src/nwkGroup.c **** #define NWK_GROUP_FREE      0xffff
  61:../../../stack/LwMesh/TDMA/nwk/src/nwkGroup.c **** 
  62:../../../stack/LwMesh/TDMA/nwk/src/nwkGroup.c **** /*- Prototypes -------------------------------------------------------------*/
  63:../../../stack/LwMesh/TDMA/nwk/src/nwkGroup.c **** static bool nwkGroupSwitch(uint16_t from, uint16_t to);
  64:../../../stack/LwMesh/TDMA/nwk/src/nwkGroup.c **** 
  65:../../../stack/LwMesh/TDMA/nwk/src/nwkGroup.c **** /*- Variables --------------------------------------------------------------*/
  66:../../../stack/LwMesh/TDMA/nwk/src/nwkGroup.c **** static uint16_t nwkGroups[NWK_GROUPS_AMOUNT];
  67:../../../stack/LwMesh/TDMA/nwk/src/nwkGroup.c **** 
  68:../../../stack/LwMesh/TDMA/nwk/src/nwkGroup.c **** /*- Implementations --------------------------------------------------------*/
  69:../../../stack/LwMesh/TDMA/nwk/src/nwkGroup.c **** 
  70:../../../stack/LwMesh/TDMA/nwk/src/nwkGroup.c **** /*************************************************************************//**
  71:../../../stack/LwMesh/TDMA/nwk/src/nwkGroup.c **** *  @brief Initializes the Group module
  72:../../../stack/LwMesh/TDMA/nwk/src/nwkGroup.c **** *****************************************************************************/
  73:../../../stack/LwMesh/TDMA/nwk/src/nwkGroup.c **** void nwkGroupInit(void)
  74:../../../stack/LwMesh/TDMA/nwk/src/nwkGroup.c **** {
  24               		.loc 1 74 0
  25               		.cfi_startproc
  26 0000 CF93      		push r28
  27               	.LCFI0:
  28               		.cfi_def_cfa_offset 3
  29               		.cfi_offset 28, -2
  30 0002 DF93      		push r29
  31               	.LCFI1:
  32               		.cfi_def_cfa_offset 4
  33               		.cfi_offset 29, -3
  34 0004 1F92      		push __zero_reg__
  35               	.LCFI2:
  36               		.cfi_def_cfa_offset 5
  37 0006 CDB7      		in r28,__SP_L__
  38 0008 DEB7      		in r29,__SP_H__
  39               	.LCFI3:
  40               		.cfi_def_cfa_register 28
  41               	/* prologue: function */
  42               	/* frame size = 1 */
  43               	/* stack size = 3 */
  44               	.L__stack_usage = 3
  45               	.LBB2:
  75:../../../stack/LwMesh/TDMA/nwk/src/nwkGroup.c **** 	for (uint8_t i = 0; i < NWK_GROUPS_AMOUNT; i++) {
  46               		.loc 1 75 0
  47 000a 1982      		std Y+1,__zero_reg__
  48 000c 00C0      		rjmp .L2
  49               	.L3:
  76:../../../stack/LwMesh/TDMA/nwk/src/nwkGroup.c **** 		nwkGroups[i] = NWK_GROUP_FREE;
  50               		.loc 1 76 0 discriminator 3
  51 000e 8981      		ldd r24,Y+1
  52 0010 882F      		mov r24,r24
  53 0012 90E0      		ldi r25,0
  54 0014 880F      		lsl r24
  55 0016 991F      		rol r25
  56 0018 8050      		subi r24,lo8(-(nwkGroups))
  57 001a 9040      		sbci r25,hi8(-(nwkGroups))
  58 001c 2FEF      		ldi r18,lo8(-1)
  59 001e 3FEF      		ldi r19,lo8(-1)
  60 0020 FC01      		movw r30,r24
  61 0022 3183      		std Z+1,r19
  62 0024 2083      		st Z,r18
  75:../../../stack/LwMesh/TDMA/nwk/src/nwkGroup.c **** 	for (uint8_t i = 0; i < NWK_GROUPS_AMOUNT; i++) {
  63               		.loc 1 75 0 discriminator 3
  64 0026 8981      		ldd r24,Y+1
  65 0028 8F5F      		subi r24,lo8(-(1))
  66 002a 8983      		std Y+1,r24
  67               	.L2:
  75:../../../stack/LwMesh/TDMA/nwk/src/nwkGroup.c **** 	for (uint8_t i = 0; i < NWK_GROUPS_AMOUNT; i++) {
  68               		.loc 1 75 0 is_stmt 0 discriminator 1
  69 002c 8981      		ldd r24,Y+1
  70 002e 8330      		cpi r24,lo8(3)
  71 0030 00F0      		brlo .L3
  72               	.LBE2:
  77:../../../stack/LwMesh/TDMA/nwk/src/nwkGroup.c **** 	}
  78:../../../stack/LwMesh/TDMA/nwk/src/nwkGroup.c **** }
  73               		.loc 1 78 0 is_stmt 1
  74 0032 0000      		nop
  75               	/* epilogue start */
  76 0034 0F90      		pop __tmp_reg__
  77 0036 DF91      		pop r29
  78 0038 CF91      		pop r28
  79 003a 0895      		ret
  80               		.cfi_endproc
  81               	.LFE65:
  83               	.global	NWK_GroupAdd
  85               	NWK_GroupAdd:
  86               	.LFB66:
  79:../../../stack/LwMesh/TDMA/nwk/src/nwkGroup.c **** 
  80:../../../stack/LwMesh/TDMA/nwk/src/nwkGroup.c **** /*************************************************************************//**
  81:../../../stack/LwMesh/TDMA/nwk/src/nwkGroup.c **** *  @brief Adds node to the @a group
  82:../../../stack/LwMesh/TDMA/nwk/src/nwkGroup.c **** *  @param[in] group Group ID
  83:../../../stack/LwMesh/TDMA/nwk/src/nwkGroup.c **** *  @return @c true in case of success and @c false otherwise
  84:../../../stack/LwMesh/TDMA/nwk/src/nwkGroup.c **** *****************************************************************************/
  85:../../../stack/LwMesh/TDMA/nwk/src/nwkGroup.c **** bool NWK_GroupAdd(uint16_t group)
  86:../../../stack/LwMesh/TDMA/nwk/src/nwkGroup.c **** {
  87               		.loc 1 86 0
  88               		.cfi_startproc
  89 003c CF93      		push r28
  90               	.LCFI4:
  91               		.cfi_def_cfa_offset 3
  92               		.cfi_offset 28, -2
  93 003e DF93      		push r29
  94               	.LCFI5:
  95               		.cfi_def_cfa_offset 4
  96               		.cfi_offset 29, -3
  97 0040 00D0      		rcall .
  98               	.LCFI6:
  99               		.cfi_def_cfa_offset 6
 100 0042 CDB7      		in r28,__SP_L__
 101 0044 DEB7      		in r29,__SP_H__
 102               	.LCFI7:
 103               		.cfi_def_cfa_register 28
 104               	/* prologue: function */
 105               	/* frame size = 2 */
 106               	/* stack size = 4 */
 107               	.L__stack_usage = 4
 108 0046 9A83      		std Y+2,r25
 109 0048 8983      		std Y+1,r24
  87:../../../stack/LwMesh/TDMA/nwk/src/nwkGroup.c **** 	return nwkGroupSwitch(NWK_GROUP_FREE, group);
 110               		.loc 1 87 0
 111 004a 8981      		ldd r24,Y+1
 112 004c 9A81      		ldd r25,Y+2
 113 004e BC01      		movw r22,r24
 114 0050 8FEF      		ldi r24,lo8(-1)
 115 0052 9FEF      		ldi r25,lo8(-1)
 116 0054 0E94 0000 		call nwkGroupSwitch
 117               	/* epilogue start */
  88:../../../stack/LwMesh/TDMA/nwk/src/nwkGroup.c **** }
 118               		.loc 1 88 0
 119 0058 0F90      		pop __tmp_reg__
 120 005a 0F90      		pop __tmp_reg__
 121 005c DF91      		pop r29
 122 005e CF91      		pop r28
 123 0060 0895      		ret
 124               		.cfi_endproc
 125               	.LFE66:
 127               	.global	NWK_GroupRemove
 129               	NWK_GroupRemove:
 130               	.LFB67:
  89:../../../stack/LwMesh/TDMA/nwk/src/nwkGroup.c **** 
  90:../../../stack/LwMesh/TDMA/nwk/src/nwkGroup.c **** /*************************************************************************//**
  91:../../../stack/LwMesh/TDMA/nwk/src/nwkGroup.c **** *  @brief Removes node from the @a group
  92:../../../stack/LwMesh/TDMA/nwk/src/nwkGroup.c **** *  @param[in] group Group ID
  93:../../../stack/LwMesh/TDMA/nwk/src/nwkGroup.c **** *  @return @c true in case of success and @c false otherwise
  94:../../../stack/LwMesh/TDMA/nwk/src/nwkGroup.c **** *****************************************************************************/
  95:../../../stack/LwMesh/TDMA/nwk/src/nwkGroup.c **** bool NWK_GroupRemove(uint16_t group)
  96:../../../stack/LwMesh/TDMA/nwk/src/nwkGroup.c **** {
 131               		.loc 1 96 0
 132               		.cfi_startproc
 133 0062 CF93      		push r28
 134               	.LCFI8:
 135               		.cfi_def_cfa_offset 3
 136               		.cfi_offset 28, -2
 137 0064 DF93      		push r29
 138               	.LCFI9:
 139               		.cfi_def_cfa_offset 4
 140               		.cfi_offset 29, -3
 141 0066 00D0      		rcall .
 142               	.LCFI10:
 143               		.cfi_def_cfa_offset 6
 144 0068 CDB7      		in r28,__SP_L__
 145 006a DEB7      		in r29,__SP_H__
 146               	.LCFI11:
 147               		.cfi_def_cfa_register 28
 148               	/* prologue: function */
 149               	/* frame size = 2 */
 150               	/* stack size = 4 */
 151               	.L__stack_usage = 4
 152 006c 9A83      		std Y+2,r25
 153 006e 8983      		std Y+1,r24
  97:../../../stack/LwMesh/TDMA/nwk/src/nwkGroup.c **** 	return nwkGroupSwitch(group, NWK_GROUP_FREE);
 154               		.loc 1 97 0
 155 0070 8981      		ldd r24,Y+1
 156 0072 9A81      		ldd r25,Y+2
 157 0074 6FEF      		ldi r22,lo8(-1)
 158 0076 7FEF      		ldi r23,lo8(-1)
 159 0078 0E94 0000 		call nwkGroupSwitch
 160               	/* epilogue start */
  98:../../../stack/LwMesh/TDMA/nwk/src/nwkGroup.c **** }
 161               		.loc 1 98 0
 162 007c 0F90      		pop __tmp_reg__
 163 007e 0F90      		pop __tmp_reg__
 164 0080 DF91      		pop r29
 165 0082 CF91      		pop r28
 166 0084 0895      		ret
 167               		.cfi_endproc
 168               	.LFE67:
 170               	.global	NWK_GroupIsMember
 172               	NWK_GroupIsMember:
 173               	.LFB68:
  99:../../../stack/LwMesh/TDMA/nwk/src/nwkGroup.c **** 
 100:../../../stack/LwMesh/TDMA/nwk/src/nwkGroup.c **** /*************************************************************************//**
 101:../../../stack/LwMesh/TDMA/nwk/src/nwkGroup.c **** *  @brief Verifies if node is a member of the @a group
 102:../../../stack/LwMesh/TDMA/nwk/src/nwkGroup.c **** *  @param[in] group Group ID
 103:../../../stack/LwMesh/TDMA/nwk/src/nwkGroup.c **** *  @return @c true if node is a member of the group and @c false otherwise
 104:../../../stack/LwMesh/TDMA/nwk/src/nwkGroup.c **** *****************************************************************************/
 105:../../../stack/LwMesh/TDMA/nwk/src/nwkGroup.c **** bool NWK_GroupIsMember(uint16_t group)
 106:../../../stack/LwMesh/TDMA/nwk/src/nwkGroup.c **** {
 174               		.loc 1 106 0
 175               		.cfi_startproc
 176 0086 CF93      		push r28
 177               	.LCFI12:
 178               		.cfi_def_cfa_offset 3
 179               		.cfi_offset 28, -2
 180 0088 DF93      		push r29
 181               	.LCFI13:
 182               		.cfi_def_cfa_offset 4
 183               		.cfi_offset 29, -3
 184 008a 00D0      		rcall .
 185 008c 1F92      		push __zero_reg__
 186               	.LCFI14:
 187               		.cfi_def_cfa_offset 7
 188 008e CDB7      		in r28,__SP_L__
 189 0090 DEB7      		in r29,__SP_H__
 190               	.LCFI15:
 191               		.cfi_def_cfa_register 28
 192               	/* prologue: function */
 193               	/* frame size = 3 */
 194               	/* stack size = 5 */
 195               	.L__stack_usage = 5
 196 0092 9B83      		std Y+3,r25
 197 0094 8A83      		std Y+2,r24
 198               	.LBB3:
 107:../../../stack/LwMesh/TDMA/nwk/src/nwkGroup.c **** 	for (uint8_t i = 0; i < NWK_GROUPS_AMOUNT; i++) {
 199               		.loc 1 107 0
 200 0096 1982      		std Y+1,__zero_reg__
 201 0098 00C0      		rjmp .L9
 202               	.L12:
 108:../../../stack/LwMesh/TDMA/nwk/src/nwkGroup.c **** 		if (group == nwkGroups[i]) {
 203               		.loc 1 108 0
 204 009a 8981      		ldd r24,Y+1
 205 009c 882F      		mov r24,r24
 206 009e 90E0      		ldi r25,0
 207 00a0 880F      		lsl r24
 208 00a2 991F      		rol r25
 209 00a4 8050      		subi r24,lo8(-(nwkGroups))
 210 00a6 9040      		sbci r25,hi8(-(nwkGroups))
 211 00a8 FC01      		movw r30,r24
 212 00aa 2081      		ld r18,Z
 213 00ac 3181      		ldd r19,Z+1
 214 00ae 8A81      		ldd r24,Y+2
 215 00b0 9B81      		ldd r25,Y+3
 216 00b2 2817      		cp r18,r24
 217 00b4 3907      		cpc r19,r25
 218 00b6 01F4      		brne .L10
 109:../../../stack/LwMesh/TDMA/nwk/src/nwkGroup.c **** 			return true;
 219               		.loc 1 109 0
 220 00b8 81E0      		ldi r24,lo8(1)
 221 00ba 00C0      		rjmp .L11
 222               	.L10:
 107:../../../stack/LwMesh/TDMA/nwk/src/nwkGroup.c **** 	for (uint8_t i = 0; i < NWK_GROUPS_AMOUNT; i++) {
 223               		.loc 1 107 0 discriminator 2
 224 00bc 8981      		ldd r24,Y+1
 225 00be 8F5F      		subi r24,lo8(-(1))
 226 00c0 8983      		std Y+1,r24
 227               	.L9:
 107:../../../stack/LwMesh/TDMA/nwk/src/nwkGroup.c **** 	for (uint8_t i = 0; i < NWK_GROUPS_AMOUNT; i++) {
 228               		.loc 1 107 0 is_stmt 0 discriminator 1
 229 00c2 8981      		ldd r24,Y+1
 230 00c4 8330      		cpi r24,lo8(3)
 231 00c6 00F0      		brlo .L12
 232               	.LBE3:
 110:../../../stack/LwMesh/TDMA/nwk/src/nwkGroup.c **** 		}
 111:../../../stack/LwMesh/TDMA/nwk/src/nwkGroup.c **** 	}
 112:../../../stack/LwMesh/TDMA/nwk/src/nwkGroup.c **** 	return false;
 233               		.loc 1 112 0 is_stmt 1
 234 00c8 80E0      		ldi r24,0
 235               	.L11:
 236               	/* epilogue start */
 113:../../../stack/LwMesh/TDMA/nwk/src/nwkGroup.c **** }
 237               		.loc 1 113 0
 238 00ca 0F90      		pop __tmp_reg__
 239 00cc 0F90      		pop __tmp_reg__
 240 00ce 0F90      		pop __tmp_reg__
 241 00d0 DF91      		pop r29
 242 00d2 CF91      		pop r28
 243 00d4 0895      		ret
 244               		.cfi_endproc
 245               	.LFE68:
 248               	nwkGroupSwitch:
 249               	.LFB69:
 114:../../../stack/LwMesh/TDMA/nwk/src/nwkGroup.c **** 
 115:../../../stack/LwMesh/TDMA/nwk/src/nwkGroup.c **** /*************************************************************************//**
 116:../../../stack/LwMesh/TDMA/nwk/src/nwkGroup.c **** *  @brief Switches records with IDs @a from and @a to in the the group table
 117:../../../stack/LwMesh/TDMA/nwk/src/nwkGroup.c **** *  @param[in] from Source group ID
 118:../../../stack/LwMesh/TDMA/nwk/src/nwkGroup.c **** *  @param[in] to   Destination group ID
 119:../../../stack/LwMesh/TDMA/nwk/src/nwkGroup.c **** *  @return @c true if @a from entry was found and @c false otherwise
 120:../../../stack/LwMesh/TDMA/nwk/src/nwkGroup.c **** *****************************************************************************/
 121:../../../stack/LwMesh/TDMA/nwk/src/nwkGroup.c **** static bool nwkGroupSwitch(uint16_t from, uint16_t to)
 122:../../../stack/LwMesh/TDMA/nwk/src/nwkGroup.c **** {
 250               		.loc 1 122 0
 251               		.cfi_startproc
 252 00d6 CF93      		push r28
 253               	.LCFI16:
 254               		.cfi_def_cfa_offset 3
 255               		.cfi_offset 28, -2
 256 00d8 DF93      		push r29
 257               	.LCFI17:
 258               		.cfi_def_cfa_offset 4
 259               		.cfi_offset 29, -3
 260 00da 00D0      		rcall .
 261 00dc 00D0      		rcall .
 262 00de 1F92      		push __zero_reg__
 263               	.LCFI18:
 264               		.cfi_def_cfa_offset 9
 265 00e0 CDB7      		in r28,__SP_L__
 266 00e2 DEB7      		in r29,__SP_H__
 267               	.LCFI19:
 268               		.cfi_def_cfa_register 28
 269               	/* prologue: function */
 270               	/* frame size = 5 */
 271               	/* stack size = 7 */
 272               	.L__stack_usage = 7
 273 00e4 9B83      		std Y+3,r25
 274 00e6 8A83      		std Y+2,r24
 275 00e8 7D83      		std Y+5,r23
 276 00ea 6C83      		std Y+4,r22
 277               	.LBB4:
 123:../../../stack/LwMesh/TDMA/nwk/src/nwkGroup.c **** 	for (uint8_t i = 0; i < NWK_GROUPS_AMOUNT; i++) {
 278               		.loc 1 123 0
 279 00ec 1982      		std Y+1,__zero_reg__
 280 00ee 00C0      		rjmp .L14
 281               	.L17:
 124:../../../stack/LwMesh/TDMA/nwk/src/nwkGroup.c **** 		if (from == nwkGroups[i]) {
 282               		.loc 1 124 0
 283 00f0 8981      		ldd r24,Y+1
 284 00f2 882F      		mov r24,r24
 285 00f4 90E0      		ldi r25,0
 286 00f6 880F      		lsl r24
 287 00f8 991F      		rol r25
 288 00fa 8050      		subi r24,lo8(-(nwkGroups))
 289 00fc 9040      		sbci r25,hi8(-(nwkGroups))
 290 00fe FC01      		movw r30,r24
 291 0100 2081      		ld r18,Z
 292 0102 3181      		ldd r19,Z+1
 293 0104 8A81      		ldd r24,Y+2
 294 0106 9B81      		ldd r25,Y+3
 295 0108 2817      		cp r18,r24
 296 010a 3907      		cpc r19,r25
 297 010c 01F4      		brne .L15
 125:../../../stack/LwMesh/TDMA/nwk/src/nwkGroup.c **** 			nwkGroups[i] = to;
 298               		.loc 1 125 0
 299 010e 8981      		ldd r24,Y+1
 300 0110 882F      		mov r24,r24
 301 0112 90E0      		ldi r25,0
 302 0114 880F      		lsl r24
 303 0116 991F      		rol r25
 304 0118 8050      		subi r24,lo8(-(nwkGroups))
 305 011a 9040      		sbci r25,hi8(-(nwkGroups))
 306 011c 2C81      		ldd r18,Y+4
 307 011e 3D81      		ldd r19,Y+5
 308 0120 FC01      		movw r30,r24
 309 0122 3183      		std Z+1,r19
 310 0124 2083      		st Z,r18
 126:../../../stack/LwMesh/TDMA/nwk/src/nwkGroup.c **** 			return true;
 311               		.loc 1 126 0
 312 0126 81E0      		ldi r24,lo8(1)
 313 0128 00C0      		rjmp .L16
 314               	.L15:
 123:../../../stack/LwMesh/TDMA/nwk/src/nwkGroup.c **** 		if (from == nwkGroups[i]) {
 315               		.loc 1 123 0 discriminator 2
 316 012a 8981      		ldd r24,Y+1
 317 012c 8F5F      		subi r24,lo8(-(1))
 318 012e 8983      		std Y+1,r24
 319               	.L14:
 123:../../../stack/LwMesh/TDMA/nwk/src/nwkGroup.c **** 		if (from == nwkGroups[i]) {
 320               		.loc 1 123 0 is_stmt 0 discriminator 1
 321 0130 8981      		ldd r24,Y+1
 322 0132 8330      		cpi r24,lo8(3)
 323 0134 00F0      		brlo .L17
 324               	.LBE4:
 127:../../../stack/LwMesh/TDMA/nwk/src/nwkGroup.c **** 		}
 128:../../../stack/LwMesh/TDMA/nwk/src/nwkGroup.c **** 	}
 129:../../../stack/LwMesh/TDMA/nwk/src/nwkGroup.c **** 	return false;
 325               		.loc 1 129 0 is_stmt 1
 326 0136 80E0      		ldi r24,0
 327               	.L16:
 328               	/* epilogue start */
 130:../../../stack/LwMesh/TDMA/nwk/src/nwkGroup.c **** }
 329               		.loc 1 130 0
 330 0138 0F90      		pop __tmp_reg__
 331 013a 0F90      		pop __tmp_reg__
 332 013c 0F90      		pop __tmp_reg__
 333 013e 0F90      		pop __tmp_reg__
 334 0140 0F90      		pop __tmp_reg__
 335 0142 DF91      		pop r29
 336 0144 CF91      		pop r28
 337 0146 0895      		ret
 338               		.cfi_endproc
 339               	.LFE69:
 341               	.Letext0:
 342               		.file 2 "c:\\program files (x86)\\atmel\\studio\\7.0\\toolchain\\avr8\\avr8-gnu-toolchain\\avr\\in
 343               		.file 3 "config/config.h"
DEFINED SYMBOLS
                            *ABS*:00000000 nwkGroup.c
C:\Users\GUILHE~1\AppData\Local\Temp\ccPyibb7.s:2      *ABS*:0000003e __SP_H__
C:\Users\GUILHE~1\AppData\Local\Temp\ccPyibb7.s:3      *ABS*:0000003d __SP_L__
C:\Users\GUILHE~1\AppData\Local\Temp\ccPyibb7.s:4      *ABS*:0000003f __SREG__
C:\Users\GUILHE~1\AppData\Local\Temp\ccPyibb7.s:5      *ABS*:0000003b __RAMPZ__
C:\Users\GUILHE~1\AppData\Local\Temp\ccPyibb7.s:6      *ABS*:00000000 __tmp_reg__
C:\Users\GUILHE~1\AppData\Local\Temp\ccPyibb7.s:7      *ABS*:00000001 __zero_reg__
                            *COM*:00000001 n
                            *COM*:00000004 tTS
C:\Users\GUILHE~1\AppData\Local\Temp\ccPyibb7.s:16     .bss.nwkGroups:00000000 nwkGroups
C:\Users\GUILHE~1\AppData\Local\Temp\ccPyibb7.s:21     .text:00000000 nwkGroupInit
C:\Users\GUILHE~1\AppData\Local\Temp\ccPyibb7.s:85     .text:0000003c NWK_GroupAdd
C:\Users\GUILHE~1\AppData\Local\Temp\ccPyibb7.s:248    .text:000000d6 nwkGroupSwitch
C:\Users\GUILHE~1\AppData\Local\Temp\ccPyibb7.s:129    .text:00000062 NWK_GroupRemove
C:\Users\GUILHE~1\AppData\Local\Temp\ccPyibb7.s:172    .text:00000086 NWK_GroupIsMember

UNDEFINED SYMBOLS
__do_clear_bss
