   1              	 .cpu cortex-m4
   2              	 .eabi_attribute 20,1
   3              	 .eabi_attribute 21,1
   4              	 .eabi_attribute 23,3
   5              	 .eabi_attribute 24,1
   6              	 .eabi_attribute 25,1
   7              	 .eabi_attribute 26,1
   8              	 .eabi_attribute 30,6
   9              	 .eabi_attribute 34,1
  10              	 .eabi_attribute 18,4
  11              	 .file "udi_cdc.c"
  12              	 .text
  13              	.Ltext0:
  14              	 .cfi_sections .debug_frame
  15              	 .section .bss.cpu_irq_critical_section_counter,"aw",%nobits
  16              	 .align 2
  19              	cpu_irq_critical_section_counter:
  20 0000 00000000 	 .space 4
  21              	 .section .bss.cpu_irq_prev_interrupt_state,"aw",%nobits
  24              	cpu_irq_prev_interrupt_state:
  25 0000 00       	 .space 1
  26              	 .text
  27              	 .align 1
  28              	 .syntax unified
  29              	 .thumb
  30              	 .thumb_func
  31              	 .fpu softvfp
  33              	cpu_irq_save:
  34              	.LFB112:
  35              	 .file 1 "../../../platform/common/utils/interrupt/interrupt_sam_nvic.h"
   1:../../../platform/common/utils/interrupt/interrupt_sam_nvic.h **** /**
   2:../../../platform/common/utils/interrupt/interrupt_sam_nvic.h ****  * \file
   3:../../../platform/common/utils/interrupt/interrupt_sam_nvic.h ****  *
   4:../../../platform/common/utils/interrupt/interrupt_sam_nvic.h ****  * \brief Global interrupt management for SAM D20, SAM3 and SAM4 (NVIC based)
   5:../../../platform/common/utils/interrupt/interrupt_sam_nvic.h ****  *
   6:../../../platform/common/utils/interrupt/interrupt_sam_nvic.h ****  * Copyright (c) 2012-2013 Atmel Corporation. All rights reserved.
   7:../../../platform/common/utils/interrupt/interrupt_sam_nvic.h ****  *
   8:../../../platform/common/utils/interrupt/interrupt_sam_nvic.h ****  * \asf_license_start
   9:../../../platform/common/utils/interrupt/interrupt_sam_nvic.h ****  *
  10:../../../platform/common/utils/interrupt/interrupt_sam_nvic.h ****  * \page License
  11:../../../platform/common/utils/interrupt/interrupt_sam_nvic.h ****  *
  12:../../../platform/common/utils/interrupt/interrupt_sam_nvic.h ****  * Redistribution and use in source and binary forms, with or without
  13:../../../platform/common/utils/interrupt/interrupt_sam_nvic.h ****  * modification, are permitted provided that the following conditions are met:
  14:../../../platform/common/utils/interrupt/interrupt_sam_nvic.h ****  *
  15:../../../platform/common/utils/interrupt/interrupt_sam_nvic.h ****  * 1. Redistributions of source code must retain the above copyright notice,
  16:../../../platform/common/utils/interrupt/interrupt_sam_nvic.h ****  *    this list of conditions and the following disclaimer.
  17:../../../platform/common/utils/interrupt/interrupt_sam_nvic.h ****  *
  18:../../../platform/common/utils/interrupt/interrupt_sam_nvic.h ****  * 2. Redistributions in binary form must reproduce the above copyright notice,
  19:../../../platform/common/utils/interrupt/interrupt_sam_nvic.h ****  *    this list of conditions and the following disclaimer in the documentation
  20:../../../platform/common/utils/interrupt/interrupt_sam_nvic.h ****  *    and/or other materials provided with the distribution.
  21:../../../platform/common/utils/interrupt/interrupt_sam_nvic.h ****  *
  22:../../../platform/common/utils/interrupt/interrupt_sam_nvic.h ****  * 3. The name of Atmel may not be used to endorse or promote products derived
  23:../../../platform/common/utils/interrupt/interrupt_sam_nvic.h ****  *    from this software without specific prior written permission.
  24:../../../platform/common/utils/interrupt/interrupt_sam_nvic.h ****  *
  25:../../../platform/common/utils/interrupt/interrupt_sam_nvic.h ****  * 4. This software may only be redistributed and used in connection with an
  26:../../../platform/common/utils/interrupt/interrupt_sam_nvic.h ****  *    Atmel microcontroller product.
  27:../../../platform/common/utils/interrupt/interrupt_sam_nvic.h ****  *
  28:../../../platform/common/utils/interrupt/interrupt_sam_nvic.h ****  * THIS SOFTWARE IS PROVIDED BY ATMEL "AS IS" AND ANY EXPRESS OR IMPLIED
  29:../../../platform/common/utils/interrupt/interrupt_sam_nvic.h ****  * WARRANTIES, INCLUDING, BUT NOT LIMITED TO, THE IMPLIED WARRANTIES OF
  30:../../../platform/common/utils/interrupt/interrupt_sam_nvic.h ****  * MERCHANTABILITY, FITNESS FOR A PARTICULAR PURPOSE AND NON-INFRINGEMENT ARE
  31:../../../platform/common/utils/interrupt/interrupt_sam_nvic.h ****  * EXPRESSLY AND SPECIFICALLY DISCLAIMED. IN NO EVENT SHALL ATMEL BE LIABLE FOR
  32:../../../platform/common/utils/interrupt/interrupt_sam_nvic.h ****  * ANY DIRECT, INDIRECT, INCIDENTAL, SPECIAL, EXEMPLARY, OR CONSEQUENTIAL
  33:../../../platform/common/utils/interrupt/interrupt_sam_nvic.h ****  * DAMAGES (INCLUDING, BUT NOT LIMITED TO, PROCUREMENT OF SUBSTITUTE GOODS
  34:../../../platform/common/utils/interrupt/interrupt_sam_nvic.h ****  * OR SERVICES; LOSS OF USE, DATA, OR PROFITS; OR BUSINESS INTERRUPTION)
  35:../../../platform/common/utils/interrupt/interrupt_sam_nvic.h ****  * HOWEVER CAUSED AND ON ANY THEORY OF LIABILITY, WHETHER IN CONTRACT,
  36:../../../platform/common/utils/interrupt/interrupt_sam_nvic.h ****  * STRICT LIABILITY, OR TORT (INCLUDING NEGLIGENCE OR OTHERWISE) ARISING IN
  37:../../../platform/common/utils/interrupt/interrupt_sam_nvic.h ****  * ANY WAY OUT OF THE USE OF THIS SOFTWARE, EVEN IF ADVISED OF THE
  38:../../../platform/common/utils/interrupt/interrupt_sam_nvic.h ****  * POSSIBILITY OF SUCH DAMAGE.
  39:../../../platform/common/utils/interrupt/interrupt_sam_nvic.h ****  *
  40:../../../platform/common/utils/interrupt/interrupt_sam_nvic.h ****  * \asf_license_stop
  41:../../../platform/common/utils/interrupt/interrupt_sam_nvic.h ****  *
  42:../../../platform/common/utils/interrupt/interrupt_sam_nvic.h ****  */
  43:../../../platform/common/utils/interrupt/interrupt_sam_nvic.h **** 
  44:../../../platform/common/utils/interrupt/interrupt_sam_nvic.h **** #ifndef UTILS_INTERRUPT_INTERRUPT_H
  45:../../../platform/common/utils/interrupt/interrupt_sam_nvic.h **** #define UTILS_INTERRUPT_INTERRUPT_H
  46:../../../platform/common/utils/interrupt/interrupt_sam_nvic.h **** 
  47:../../../platform/common/utils/interrupt/interrupt_sam_nvic.h **** #include <compiler.h>
  48:../../../platform/common/utils/interrupt/interrupt_sam_nvic.h **** #include <parts.h>
  49:../../../platform/common/utils/interrupt/interrupt_sam_nvic.h **** 
  50:../../../platform/common/utils/interrupt/interrupt_sam_nvic.h **** /**
  51:../../../platform/common/utils/interrupt/interrupt_sam_nvic.h ****  * \weakgroup interrupt_group
  52:../../../platform/common/utils/interrupt/interrupt_sam_nvic.h ****  *
  53:../../../platform/common/utils/interrupt/interrupt_sam_nvic.h ****  * @{
  54:../../../platform/common/utils/interrupt/interrupt_sam_nvic.h ****  */
  55:../../../platform/common/utils/interrupt/interrupt_sam_nvic.h **** 
  56:../../../platform/common/utils/interrupt/interrupt_sam_nvic.h **** /**
  57:../../../platform/common/utils/interrupt/interrupt_sam_nvic.h ****  * \name Interrupt Service Routine definition
  58:../../../platform/common/utils/interrupt/interrupt_sam_nvic.h ****  *
  59:../../../platform/common/utils/interrupt/interrupt_sam_nvic.h ****  * @{
  60:../../../platform/common/utils/interrupt/interrupt_sam_nvic.h ****  */
  61:../../../platform/common/utils/interrupt/interrupt_sam_nvic.h **** 
  62:../../../platform/common/utils/interrupt/interrupt_sam_nvic.h **** /**
  63:../../../platform/common/utils/interrupt/interrupt_sam_nvic.h ****  * \brief Define service routine
  64:../../../platform/common/utils/interrupt/interrupt_sam_nvic.h ****  *
  65:../../../platform/common/utils/interrupt/interrupt_sam_nvic.h ****  * \note For NVIC devices the interrupt service routines are predefined to
  66:../../../platform/common/utils/interrupt/interrupt_sam_nvic.h ****  *       add to vector table in binary generation, so there is no service
  67:../../../platform/common/utils/interrupt/interrupt_sam_nvic.h ****  *       register at run time. The routine collections are in exceptions.h.
  68:../../../platform/common/utils/interrupt/interrupt_sam_nvic.h ****  *
  69:../../../platform/common/utils/interrupt/interrupt_sam_nvic.h ****  * Usage:
  70:../../../platform/common/utils/interrupt/interrupt_sam_nvic.h ****  * \code
  71:../../../platform/common/utils/interrupt/interrupt_sam_nvic.h ****  * ISR(foo_irq_handler)
  72:../../../platform/common/utils/interrupt/interrupt_sam_nvic.h ****  * {
  73:../../../platform/common/utils/interrupt/interrupt_sam_nvic.h ****  *      // Function definition
  74:../../../platform/common/utils/interrupt/interrupt_sam_nvic.h ****  *      ...
  75:../../../platform/common/utils/interrupt/interrupt_sam_nvic.h ****  * }
  76:../../../platform/common/utils/interrupt/interrupt_sam_nvic.h ****  * \endcode
  77:../../../platform/common/utils/interrupt/interrupt_sam_nvic.h ****  *
  78:../../../platform/common/utils/interrupt/interrupt_sam_nvic.h ****  * \param func Name for the function.
  79:../../../platform/common/utils/interrupt/interrupt_sam_nvic.h ****  */
  80:../../../platform/common/utils/interrupt/interrupt_sam_nvic.h **** #  define ISR(func)   \
  81:../../../platform/common/utils/interrupt/interrupt_sam_nvic.h **** 	void func (void)
  82:../../../platform/common/utils/interrupt/interrupt_sam_nvic.h **** 
  83:../../../platform/common/utils/interrupt/interrupt_sam_nvic.h **** /**
  84:../../../platform/common/utils/interrupt/interrupt_sam_nvic.h ****  * \brief Initialize interrupt vectors
  85:../../../platform/common/utils/interrupt/interrupt_sam_nvic.h ****  *
  86:../../../platform/common/utils/interrupt/interrupt_sam_nvic.h ****  * For NVIC the interrupt vectors are put in vector table. So nothing
  87:../../../platform/common/utils/interrupt/interrupt_sam_nvic.h ****  * to do to initialize them, except defined the vector function with
  88:../../../platform/common/utils/interrupt/interrupt_sam_nvic.h ****  * right name.
  89:../../../platform/common/utils/interrupt/interrupt_sam_nvic.h ****  *
  90:../../../platform/common/utils/interrupt/interrupt_sam_nvic.h ****  * This must be called prior to \ref irq_register_handler.
  91:../../../platform/common/utils/interrupt/interrupt_sam_nvic.h ****  */
  92:../../../platform/common/utils/interrupt/interrupt_sam_nvic.h **** #  define irq_initialize_vectors()   \
  93:../../../platform/common/utils/interrupt/interrupt_sam_nvic.h **** 	do {                             \
  94:../../../platform/common/utils/interrupt/interrupt_sam_nvic.h **** 	} while(0)
  95:../../../platform/common/utils/interrupt/interrupt_sam_nvic.h **** 
  96:../../../platform/common/utils/interrupt/interrupt_sam_nvic.h **** /**
  97:../../../platform/common/utils/interrupt/interrupt_sam_nvic.h ****  * \brief Register handler for interrupt
  98:../../../platform/common/utils/interrupt/interrupt_sam_nvic.h ****  *
  99:../../../platform/common/utils/interrupt/interrupt_sam_nvic.h ****  * For NVIC the interrupt vectors are put in vector table. So nothing
 100:../../../platform/common/utils/interrupt/interrupt_sam_nvic.h ****  * to do to register them, except defined the vector function with
 101:../../../platform/common/utils/interrupt/interrupt_sam_nvic.h ****  * right name.
 102:../../../platform/common/utils/interrupt/interrupt_sam_nvic.h ****  *
 103:../../../platform/common/utils/interrupt/interrupt_sam_nvic.h ****  * Usage:
 104:../../../platform/common/utils/interrupt/interrupt_sam_nvic.h ****  * \code
 105:../../../platform/common/utils/interrupt/interrupt_sam_nvic.h ****  * irq_initialize_vectors();
 106:../../../platform/common/utils/interrupt/interrupt_sam_nvic.h ****  * irq_register_handler(foo_irq_handler);
 107:../../../platform/common/utils/interrupt/interrupt_sam_nvic.h ****  * \endcode
 108:../../../platform/common/utils/interrupt/interrupt_sam_nvic.h ****  *
 109:../../../platform/common/utils/interrupt/interrupt_sam_nvic.h ****  * \note The function \a func must be defined with the \ref ISR macro.
 110:../../../platform/common/utils/interrupt/interrupt_sam_nvic.h ****  * \note The functions prototypes can be found in the device exception header
 111:../../../platform/common/utils/interrupt/interrupt_sam_nvic.h ****  *       files (exceptions.h).
 112:../../../platform/common/utils/interrupt/interrupt_sam_nvic.h ****  */
 113:../../../platform/common/utils/interrupt/interrupt_sam_nvic.h **** #  define irq_register_handler(int_num, int_prio)                      \
 114:../../../platform/common/utils/interrupt/interrupt_sam_nvic.h **** 	NVIC_ClearPendingIRQ(    (IRQn_Type)int_num);                      \
 115:../../../platform/common/utils/interrupt/interrupt_sam_nvic.h **** 	NVIC_SetPriority(    (IRQn_Type)int_num, int_prio);                \
 116:../../../platform/common/utils/interrupt/interrupt_sam_nvic.h **** 	NVIC_EnableIRQ(      (IRQn_Type)int_num);                          \
 117:../../../platform/common/utils/interrupt/interrupt_sam_nvic.h **** 
 118:../../../platform/common/utils/interrupt/interrupt_sam_nvic.h **** //@}
 119:../../../platform/common/utils/interrupt/interrupt_sam_nvic.h **** 
 120:../../../platform/common/utils/interrupt/interrupt_sam_nvic.h **** #  define cpu_irq_enable()                     \
 121:../../../platform/common/utils/interrupt/interrupt_sam_nvic.h **** 	do {                                       \
 122:../../../platform/common/utils/interrupt/interrupt_sam_nvic.h **** 		g_interrupt_enabled = true;            \
 123:../../../platform/common/utils/interrupt/interrupt_sam_nvic.h **** 		__DMB();                               \
 124:../../../platform/common/utils/interrupt/interrupt_sam_nvic.h **** 		__enable_irq();                        \
 125:../../../platform/common/utils/interrupt/interrupt_sam_nvic.h **** 	} while (0)
 126:../../../platform/common/utils/interrupt/interrupt_sam_nvic.h **** #  define cpu_irq_disable()                    \
 127:../../../platform/common/utils/interrupt/interrupt_sam_nvic.h **** 	do {                                       \
 128:../../../platform/common/utils/interrupt/interrupt_sam_nvic.h **** 		__disable_irq();                       \
 129:../../../platform/common/utils/interrupt/interrupt_sam_nvic.h **** 		__DMB();                               \
 130:../../../platform/common/utils/interrupt/interrupt_sam_nvic.h **** 		g_interrupt_enabled = false;           \
 131:../../../platform/common/utils/interrupt/interrupt_sam_nvic.h **** 	} while (0)
 132:../../../platform/common/utils/interrupt/interrupt_sam_nvic.h **** 
 133:../../../platform/common/utils/interrupt/interrupt_sam_nvic.h **** typedef uint32_t irqflags_t;
 134:../../../platform/common/utils/interrupt/interrupt_sam_nvic.h **** 
 135:../../../platform/common/utils/interrupt/interrupt_sam_nvic.h **** #if !defined(__DOXYGEN__)
 136:../../../platform/common/utils/interrupt/interrupt_sam_nvic.h **** extern volatile bool g_interrupt_enabled;
 137:../../../platform/common/utils/interrupt/interrupt_sam_nvic.h **** #endif
 138:../../../platform/common/utils/interrupt/interrupt_sam_nvic.h **** 
 139:../../../platform/common/utils/interrupt/interrupt_sam_nvic.h **** #define cpu_irq_is_enabled()    (__get_PRIMASK() == 0)
 140:../../../platform/common/utils/interrupt/interrupt_sam_nvic.h **** 
 141:../../../platform/common/utils/interrupt/interrupt_sam_nvic.h **** static volatile uint32_t cpu_irq_critical_section_counter;
 142:../../../platform/common/utils/interrupt/interrupt_sam_nvic.h **** static volatile bool     cpu_irq_prev_interrupt_state;
 143:../../../platform/common/utils/interrupt/interrupt_sam_nvic.h **** 
 144:../../../platform/common/utils/interrupt/interrupt_sam_nvic.h **** static inline irqflags_t cpu_irq_save(void)
 145:../../../platform/common/utils/interrupt/interrupt_sam_nvic.h **** {
  36              	 .loc 1 145 0
  37              	 .cfi_startproc
  38              	 
  39              	 
  40              	 
  41 0000 80B4     	 push {r7}
  42              	.LCFI0:
  43              	 .cfi_def_cfa_offset 4
  44              	 .cfi_offset 7,-4
  45 0002 83B0     	 sub sp,sp,#12
  46              	.LCFI1:
  47              	 .cfi_def_cfa_offset 16
  48 0004 00AF     	 add r7,sp,#0
  49              	.LCFI2:
  50              	 .cfi_def_cfa_register 7
  51              	.LBB12:
  52              	.LBB13:
  53              	 .file 2 "../../../platform/thirdparty/CMSIS/include/core_cmFunc.h"
   1:../../../platform/thirdparty/CMSIS/include/core_cmFunc.h **** /**************************************************************************//**
   2:../../../platform/thirdparty/CMSIS/include/core_cmFunc.h ****  * @file     core_cmFunc.h
   3:../../../platform/thirdparty/CMSIS/include/core_cmFunc.h ****  * @brief    CMSIS Cortex-M Core Function Access Header File
   4:../../../platform/thirdparty/CMSIS/include/core_cmFunc.h ****  * @version  V3.00
   5:../../../platform/thirdparty/CMSIS/include/core_cmFunc.h ****  * @date     19. January 2012
   6:../../../platform/thirdparty/CMSIS/include/core_cmFunc.h ****  *
   7:../../../platform/thirdparty/CMSIS/include/core_cmFunc.h ****  * @note
   8:../../../platform/thirdparty/CMSIS/include/core_cmFunc.h ****  * Copyright (C) 2009-2012 ARM Limited. All rights reserved.
   9:../../../platform/thirdparty/CMSIS/include/core_cmFunc.h ****  *
  10:../../../platform/thirdparty/CMSIS/include/core_cmFunc.h ****  * @par
  11:../../../platform/thirdparty/CMSIS/include/core_cmFunc.h ****  * ARM Limited (ARM) is supplying this software for use with Cortex-M 
  12:../../../platform/thirdparty/CMSIS/include/core_cmFunc.h ****  * processor based microcontrollers.  This file can be freely distributed 
  13:../../../platform/thirdparty/CMSIS/include/core_cmFunc.h ****  * within development tools that are supporting such ARM based processors. 
  14:../../../platform/thirdparty/CMSIS/include/core_cmFunc.h ****  *
  15:../../../platform/thirdparty/CMSIS/include/core_cmFunc.h ****  * @par
  16:../../../platform/thirdparty/CMSIS/include/core_cmFunc.h ****  * THIS SOFTWARE IS PROVIDED "AS IS".  NO WARRANTIES, WHETHER EXPRESS, IMPLIED
  17:../../../platform/thirdparty/CMSIS/include/core_cmFunc.h ****  * OR STATUTORY, INCLUDING, BUT NOT LIMITED TO, IMPLIED WARRANTIES OF
  18:../../../platform/thirdparty/CMSIS/include/core_cmFunc.h ****  * MERCHANTABILITY AND FITNESS FOR A PARTICULAR PURPOSE APPLY TO THIS SOFTWARE.
  19:../../../platform/thirdparty/CMSIS/include/core_cmFunc.h ****  * ARM SHALL NOT, IN ANY CIRCUMSTANCES, BE LIABLE FOR SPECIAL, INCIDENTAL, OR
  20:../../../platform/thirdparty/CMSIS/include/core_cmFunc.h ****  * CONSEQUENTIAL DAMAGES, FOR ANY REASON WHATSOEVER.
  21:../../../platform/thirdparty/CMSIS/include/core_cmFunc.h ****  *
  22:../../../platform/thirdparty/CMSIS/include/core_cmFunc.h ****  ******************************************************************************/
  23:../../../platform/thirdparty/CMSIS/include/core_cmFunc.h **** 
  24:../../../platform/thirdparty/CMSIS/include/core_cmFunc.h **** #ifndef __CORE_CMFUNC_H
  25:../../../platform/thirdparty/CMSIS/include/core_cmFunc.h **** #define __CORE_CMFUNC_H
  26:../../../platform/thirdparty/CMSIS/include/core_cmFunc.h **** 
  27:../../../platform/thirdparty/CMSIS/include/core_cmFunc.h **** /* ###########################  Core Function Access  ########################### */
  28:../../../platform/thirdparty/CMSIS/include/core_cmFunc.h **** /** \ingroup  CMSIS_Core_FunctionInterface   
  29:../../../platform/thirdparty/CMSIS/include/core_cmFunc.h ****     \defgroup CMSIS_Core_RegAccFunctions CMSIS Core Register Access Functions
  30:../../../platform/thirdparty/CMSIS/include/core_cmFunc.h ****   @{
  31:../../../platform/thirdparty/CMSIS/include/core_cmFunc.h ****  */
  32:../../../platform/thirdparty/CMSIS/include/core_cmFunc.h **** 
  33:../../../platform/thirdparty/CMSIS/include/core_cmFunc.h **** #if   defined ( __CC_ARM ) /*------------------RealView Compiler -----------------*/
  34:../../../platform/thirdparty/CMSIS/include/core_cmFunc.h **** /* ARM armcc specific functions */
  35:../../../platform/thirdparty/CMSIS/include/core_cmFunc.h **** 
  36:../../../platform/thirdparty/CMSIS/include/core_cmFunc.h **** #if (__ARMCC_VERSION < 400677)
  37:../../../platform/thirdparty/CMSIS/include/core_cmFunc.h ****   #error "Please use ARM Compiler Toolchain V4.0.677 or later!"
  38:../../../platform/thirdparty/CMSIS/include/core_cmFunc.h **** #endif
  39:../../../platform/thirdparty/CMSIS/include/core_cmFunc.h **** 
  40:../../../platform/thirdparty/CMSIS/include/core_cmFunc.h **** /* intrinsic void __enable_irq();     */
  41:../../../platform/thirdparty/CMSIS/include/core_cmFunc.h **** /* intrinsic void __disable_irq();    */
  42:../../../platform/thirdparty/CMSIS/include/core_cmFunc.h **** 
  43:../../../platform/thirdparty/CMSIS/include/core_cmFunc.h **** /** \brief  Get Control Register
  44:../../../platform/thirdparty/CMSIS/include/core_cmFunc.h **** 
  45:../../../platform/thirdparty/CMSIS/include/core_cmFunc.h ****     This function returns the content of the Control Register.
  46:../../../platform/thirdparty/CMSIS/include/core_cmFunc.h **** 
  47:../../../platform/thirdparty/CMSIS/include/core_cmFunc.h ****     \return               Control Register value
  48:../../../platform/thirdparty/CMSIS/include/core_cmFunc.h ****  */
  49:../../../platform/thirdparty/CMSIS/include/core_cmFunc.h **** __STATIC_INLINE uint32_t __get_CONTROL(void)
  50:../../../platform/thirdparty/CMSIS/include/core_cmFunc.h **** {
  51:../../../platform/thirdparty/CMSIS/include/core_cmFunc.h ****   register uint32_t __regControl         __ASM("control");
  52:../../../platform/thirdparty/CMSIS/include/core_cmFunc.h ****   return(__regControl);
  53:../../../platform/thirdparty/CMSIS/include/core_cmFunc.h **** }
  54:../../../platform/thirdparty/CMSIS/include/core_cmFunc.h **** 
  55:../../../platform/thirdparty/CMSIS/include/core_cmFunc.h **** 
  56:../../../platform/thirdparty/CMSIS/include/core_cmFunc.h **** /** \brief  Set Control Register
  57:../../../platform/thirdparty/CMSIS/include/core_cmFunc.h **** 
  58:../../../platform/thirdparty/CMSIS/include/core_cmFunc.h ****     This function writes the given value to the Control Register.
  59:../../../platform/thirdparty/CMSIS/include/core_cmFunc.h **** 
  60:../../../platform/thirdparty/CMSIS/include/core_cmFunc.h ****     \param [in]    control  Control Register value to set
  61:../../../platform/thirdparty/CMSIS/include/core_cmFunc.h ****  */
  62:../../../platform/thirdparty/CMSIS/include/core_cmFunc.h **** __STATIC_INLINE void __set_CONTROL(uint32_t control)
  63:../../../platform/thirdparty/CMSIS/include/core_cmFunc.h **** {
  64:../../../platform/thirdparty/CMSIS/include/core_cmFunc.h ****   register uint32_t __regControl         __ASM("control");
  65:../../../platform/thirdparty/CMSIS/include/core_cmFunc.h ****   __regControl = control;
  66:../../../platform/thirdparty/CMSIS/include/core_cmFunc.h **** }
  67:../../../platform/thirdparty/CMSIS/include/core_cmFunc.h **** 
  68:../../../platform/thirdparty/CMSIS/include/core_cmFunc.h **** 
  69:../../../platform/thirdparty/CMSIS/include/core_cmFunc.h **** /** \brief  Get IPSR Register
  70:../../../platform/thirdparty/CMSIS/include/core_cmFunc.h **** 
  71:../../../platform/thirdparty/CMSIS/include/core_cmFunc.h ****     This function returns the content of the IPSR Register.
  72:../../../platform/thirdparty/CMSIS/include/core_cmFunc.h **** 
  73:../../../platform/thirdparty/CMSIS/include/core_cmFunc.h ****     \return               IPSR Register value
  74:../../../platform/thirdparty/CMSIS/include/core_cmFunc.h ****  */
  75:../../../platform/thirdparty/CMSIS/include/core_cmFunc.h **** __STATIC_INLINE uint32_t __get_IPSR(void)
  76:../../../platform/thirdparty/CMSIS/include/core_cmFunc.h **** {
  77:../../../platform/thirdparty/CMSIS/include/core_cmFunc.h ****   register uint32_t __regIPSR          __ASM("ipsr");
  78:../../../platform/thirdparty/CMSIS/include/core_cmFunc.h ****   return(__regIPSR);
  79:../../../platform/thirdparty/CMSIS/include/core_cmFunc.h **** }
  80:../../../platform/thirdparty/CMSIS/include/core_cmFunc.h **** 
  81:../../../platform/thirdparty/CMSIS/include/core_cmFunc.h **** 
  82:../../../platform/thirdparty/CMSIS/include/core_cmFunc.h **** /** \brief  Get APSR Register
  83:../../../platform/thirdparty/CMSIS/include/core_cmFunc.h **** 
  84:../../../platform/thirdparty/CMSIS/include/core_cmFunc.h ****     This function returns the content of the APSR Register.
  85:../../../platform/thirdparty/CMSIS/include/core_cmFunc.h **** 
  86:../../../platform/thirdparty/CMSIS/include/core_cmFunc.h ****     \return               APSR Register value
  87:../../../platform/thirdparty/CMSIS/include/core_cmFunc.h ****  */
  88:../../../platform/thirdparty/CMSIS/include/core_cmFunc.h **** __STATIC_INLINE uint32_t __get_APSR(void)
  89:../../../platform/thirdparty/CMSIS/include/core_cmFunc.h **** {
  90:../../../platform/thirdparty/CMSIS/include/core_cmFunc.h ****   register uint32_t __regAPSR          __ASM("apsr");
  91:../../../platform/thirdparty/CMSIS/include/core_cmFunc.h ****   return(__regAPSR);
  92:../../../platform/thirdparty/CMSIS/include/core_cmFunc.h **** }
  93:../../../platform/thirdparty/CMSIS/include/core_cmFunc.h **** 
  94:../../../platform/thirdparty/CMSIS/include/core_cmFunc.h **** 
  95:../../../platform/thirdparty/CMSIS/include/core_cmFunc.h **** /** \brief  Get xPSR Register
  96:../../../platform/thirdparty/CMSIS/include/core_cmFunc.h **** 
  97:../../../platform/thirdparty/CMSIS/include/core_cmFunc.h ****     This function returns the content of the xPSR Register.
  98:../../../platform/thirdparty/CMSIS/include/core_cmFunc.h **** 
  99:../../../platform/thirdparty/CMSIS/include/core_cmFunc.h ****     \return               xPSR Register value
 100:../../../platform/thirdparty/CMSIS/include/core_cmFunc.h ****  */
 101:../../../platform/thirdparty/CMSIS/include/core_cmFunc.h **** __STATIC_INLINE uint32_t __get_xPSR(void)
 102:../../../platform/thirdparty/CMSIS/include/core_cmFunc.h **** {
 103:../../../platform/thirdparty/CMSIS/include/core_cmFunc.h ****   register uint32_t __regXPSR          __ASM("xpsr");
 104:../../../platform/thirdparty/CMSIS/include/core_cmFunc.h ****   return(__regXPSR);
 105:../../../platform/thirdparty/CMSIS/include/core_cmFunc.h **** }
 106:../../../platform/thirdparty/CMSIS/include/core_cmFunc.h **** 
 107:../../../platform/thirdparty/CMSIS/include/core_cmFunc.h **** 
 108:../../../platform/thirdparty/CMSIS/include/core_cmFunc.h **** /** \brief  Get Process Stack Pointer
 109:../../../platform/thirdparty/CMSIS/include/core_cmFunc.h **** 
 110:../../../platform/thirdparty/CMSIS/include/core_cmFunc.h ****     This function returns the current value of the Process Stack Pointer (PSP).
 111:../../../platform/thirdparty/CMSIS/include/core_cmFunc.h **** 
 112:../../../platform/thirdparty/CMSIS/include/core_cmFunc.h ****     \return               PSP Register value
 113:../../../platform/thirdparty/CMSIS/include/core_cmFunc.h ****  */
 114:../../../platform/thirdparty/CMSIS/include/core_cmFunc.h **** __STATIC_INLINE uint32_t __get_PSP(void)
 115:../../../platform/thirdparty/CMSIS/include/core_cmFunc.h **** {
 116:../../../platform/thirdparty/CMSIS/include/core_cmFunc.h ****   register uint32_t __regProcessStackPointer  __ASM("psp");
 117:../../../platform/thirdparty/CMSIS/include/core_cmFunc.h ****   return(__regProcessStackPointer);
 118:../../../platform/thirdparty/CMSIS/include/core_cmFunc.h **** }
 119:../../../platform/thirdparty/CMSIS/include/core_cmFunc.h **** 
 120:../../../platform/thirdparty/CMSIS/include/core_cmFunc.h **** 
 121:../../../platform/thirdparty/CMSIS/include/core_cmFunc.h **** /** \brief  Set Process Stack Pointer
 122:../../../platform/thirdparty/CMSIS/include/core_cmFunc.h **** 
 123:../../../platform/thirdparty/CMSIS/include/core_cmFunc.h ****     This function assigns the given value to the Process Stack Pointer (PSP).
 124:../../../platform/thirdparty/CMSIS/include/core_cmFunc.h **** 
 125:../../../platform/thirdparty/CMSIS/include/core_cmFunc.h ****     \param [in]    topOfProcStack  Process Stack Pointer value to set
 126:../../../platform/thirdparty/CMSIS/include/core_cmFunc.h ****  */
 127:../../../platform/thirdparty/CMSIS/include/core_cmFunc.h **** __STATIC_INLINE void __set_PSP(uint32_t topOfProcStack)
 128:../../../platform/thirdparty/CMSIS/include/core_cmFunc.h **** {
 129:../../../platform/thirdparty/CMSIS/include/core_cmFunc.h ****   register uint32_t __regProcessStackPointer  __ASM("psp");
 130:../../../platform/thirdparty/CMSIS/include/core_cmFunc.h ****   __regProcessStackPointer = topOfProcStack;
 131:../../../platform/thirdparty/CMSIS/include/core_cmFunc.h **** }
 132:../../../platform/thirdparty/CMSIS/include/core_cmFunc.h **** 
 133:../../../platform/thirdparty/CMSIS/include/core_cmFunc.h **** 
 134:../../../platform/thirdparty/CMSIS/include/core_cmFunc.h **** /** \brief  Get Main Stack Pointer
 135:../../../platform/thirdparty/CMSIS/include/core_cmFunc.h **** 
 136:../../../platform/thirdparty/CMSIS/include/core_cmFunc.h ****     This function returns the current value of the Main Stack Pointer (MSP).
 137:../../../platform/thirdparty/CMSIS/include/core_cmFunc.h **** 
 138:../../../platform/thirdparty/CMSIS/include/core_cmFunc.h ****     \return               MSP Register value
 139:../../../platform/thirdparty/CMSIS/include/core_cmFunc.h ****  */
 140:../../../platform/thirdparty/CMSIS/include/core_cmFunc.h **** __STATIC_INLINE uint32_t __get_MSP(void)
 141:../../../platform/thirdparty/CMSIS/include/core_cmFunc.h **** {
 142:../../../platform/thirdparty/CMSIS/include/core_cmFunc.h ****   register uint32_t __regMainStackPointer     __ASM("msp");
 143:../../../platform/thirdparty/CMSIS/include/core_cmFunc.h ****   return(__regMainStackPointer);
 144:../../../platform/thirdparty/CMSIS/include/core_cmFunc.h **** }
 145:../../../platform/thirdparty/CMSIS/include/core_cmFunc.h **** 
 146:../../../platform/thirdparty/CMSIS/include/core_cmFunc.h **** 
 147:../../../platform/thirdparty/CMSIS/include/core_cmFunc.h **** /** \brief  Set Main Stack Pointer
 148:../../../platform/thirdparty/CMSIS/include/core_cmFunc.h **** 
 149:../../../platform/thirdparty/CMSIS/include/core_cmFunc.h ****     This function assigns the given value to the Main Stack Pointer (MSP).
 150:../../../platform/thirdparty/CMSIS/include/core_cmFunc.h **** 
 151:../../../platform/thirdparty/CMSIS/include/core_cmFunc.h ****     \param [in]    topOfMainStack  Main Stack Pointer value to set
 152:../../../platform/thirdparty/CMSIS/include/core_cmFunc.h ****  */
 153:../../../platform/thirdparty/CMSIS/include/core_cmFunc.h **** __STATIC_INLINE void __set_MSP(uint32_t topOfMainStack)
 154:../../../platform/thirdparty/CMSIS/include/core_cmFunc.h **** {
 155:../../../platform/thirdparty/CMSIS/include/core_cmFunc.h ****   register uint32_t __regMainStackPointer     __ASM("msp");
 156:../../../platform/thirdparty/CMSIS/include/core_cmFunc.h ****   __regMainStackPointer = topOfMainStack;
 157:../../../platform/thirdparty/CMSIS/include/core_cmFunc.h **** }
 158:../../../platform/thirdparty/CMSIS/include/core_cmFunc.h **** 
 159:../../../platform/thirdparty/CMSIS/include/core_cmFunc.h **** 
 160:../../../platform/thirdparty/CMSIS/include/core_cmFunc.h **** /** \brief  Get Priority Mask
 161:../../../platform/thirdparty/CMSIS/include/core_cmFunc.h **** 
 162:../../../platform/thirdparty/CMSIS/include/core_cmFunc.h ****     This function returns the current state of the priority mask bit from the Priority Mask Registe
 163:../../../platform/thirdparty/CMSIS/include/core_cmFunc.h **** 
 164:../../../platform/thirdparty/CMSIS/include/core_cmFunc.h ****     \return               Priority Mask value
 165:../../../platform/thirdparty/CMSIS/include/core_cmFunc.h ****  */
 166:../../../platform/thirdparty/CMSIS/include/core_cmFunc.h **** __STATIC_INLINE uint32_t __get_PRIMASK(void)
 167:../../../platform/thirdparty/CMSIS/include/core_cmFunc.h **** {
 168:../../../platform/thirdparty/CMSIS/include/core_cmFunc.h ****   register uint32_t __regPriMask         __ASM("primask");
 169:../../../platform/thirdparty/CMSIS/include/core_cmFunc.h ****   return(__regPriMask);
 170:../../../platform/thirdparty/CMSIS/include/core_cmFunc.h **** }
 171:../../../platform/thirdparty/CMSIS/include/core_cmFunc.h **** 
 172:../../../platform/thirdparty/CMSIS/include/core_cmFunc.h **** 
 173:../../../platform/thirdparty/CMSIS/include/core_cmFunc.h **** /** \brief  Set Priority Mask
 174:../../../platform/thirdparty/CMSIS/include/core_cmFunc.h **** 
 175:../../../platform/thirdparty/CMSIS/include/core_cmFunc.h ****     This function assigns the given value to the Priority Mask Register.
 176:../../../platform/thirdparty/CMSIS/include/core_cmFunc.h **** 
 177:../../../platform/thirdparty/CMSIS/include/core_cmFunc.h ****     \param [in]    priMask  Priority Mask
 178:../../../platform/thirdparty/CMSIS/include/core_cmFunc.h ****  */
 179:../../../platform/thirdparty/CMSIS/include/core_cmFunc.h **** __STATIC_INLINE void __set_PRIMASK(uint32_t priMask)
 180:../../../platform/thirdparty/CMSIS/include/core_cmFunc.h **** {
 181:../../../platform/thirdparty/CMSIS/include/core_cmFunc.h ****   register uint32_t __regPriMask         __ASM("primask");
 182:../../../platform/thirdparty/CMSIS/include/core_cmFunc.h ****   __regPriMask = (priMask);
 183:../../../platform/thirdparty/CMSIS/include/core_cmFunc.h **** }
 184:../../../platform/thirdparty/CMSIS/include/core_cmFunc.h ****  
 185:../../../platform/thirdparty/CMSIS/include/core_cmFunc.h **** 
 186:../../../platform/thirdparty/CMSIS/include/core_cmFunc.h **** #if       (__CORTEX_M >= 0x03)
 187:../../../platform/thirdparty/CMSIS/include/core_cmFunc.h **** 
 188:../../../platform/thirdparty/CMSIS/include/core_cmFunc.h **** /** \brief  Enable FIQ
 189:../../../platform/thirdparty/CMSIS/include/core_cmFunc.h **** 
 190:../../../platform/thirdparty/CMSIS/include/core_cmFunc.h ****     This function enables FIQ interrupts by clearing the F-bit in the CPSR.
 191:../../../platform/thirdparty/CMSIS/include/core_cmFunc.h ****     Can only be executed in Privileged modes.
 192:../../../platform/thirdparty/CMSIS/include/core_cmFunc.h ****  */
 193:../../../platform/thirdparty/CMSIS/include/core_cmFunc.h **** #define __enable_fault_irq                __enable_fiq
 194:../../../platform/thirdparty/CMSIS/include/core_cmFunc.h **** 
 195:../../../platform/thirdparty/CMSIS/include/core_cmFunc.h **** 
 196:../../../platform/thirdparty/CMSIS/include/core_cmFunc.h **** /** \brief  Disable FIQ
 197:../../../platform/thirdparty/CMSIS/include/core_cmFunc.h **** 
 198:../../../platform/thirdparty/CMSIS/include/core_cmFunc.h ****     This function disables FIQ interrupts by setting the F-bit in the CPSR.
 199:../../../platform/thirdparty/CMSIS/include/core_cmFunc.h ****     Can only be executed in Privileged modes.
 200:../../../platform/thirdparty/CMSIS/include/core_cmFunc.h ****  */
 201:../../../platform/thirdparty/CMSIS/include/core_cmFunc.h **** #define __disable_fault_irq               __disable_fiq
 202:../../../platform/thirdparty/CMSIS/include/core_cmFunc.h **** 
 203:../../../platform/thirdparty/CMSIS/include/core_cmFunc.h **** 
 204:../../../platform/thirdparty/CMSIS/include/core_cmFunc.h **** /** \brief  Get Base Priority
 205:../../../platform/thirdparty/CMSIS/include/core_cmFunc.h **** 
 206:../../../platform/thirdparty/CMSIS/include/core_cmFunc.h ****     This function returns the current value of the Base Priority register.
 207:../../../platform/thirdparty/CMSIS/include/core_cmFunc.h **** 
 208:../../../platform/thirdparty/CMSIS/include/core_cmFunc.h ****     \return               Base Priority register value
 209:../../../platform/thirdparty/CMSIS/include/core_cmFunc.h ****  */
 210:../../../platform/thirdparty/CMSIS/include/core_cmFunc.h **** __STATIC_INLINE uint32_t  __get_BASEPRI(void)
 211:../../../platform/thirdparty/CMSIS/include/core_cmFunc.h **** {
 212:../../../platform/thirdparty/CMSIS/include/core_cmFunc.h ****   register uint32_t __regBasePri         __ASM("basepri");
 213:../../../platform/thirdparty/CMSIS/include/core_cmFunc.h ****   return(__regBasePri);
 214:../../../platform/thirdparty/CMSIS/include/core_cmFunc.h **** }
 215:../../../platform/thirdparty/CMSIS/include/core_cmFunc.h **** 
 216:../../../platform/thirdparty/CMSIS/include/core_cmFunc.h **** 
 217:../../../platform/thirdparty/CMSIS/include/core_cmFunc.h **** /** \brief  Set Base Priority
 218:../../../platform/thirdparty/CMSIS/include/core_cmFunc.h **** 
 219:../../../platform/thirdparty/CMSIS/include/core_cmFunc.h ****     This function assigns the given value to the Base Priority register.
 220:../../../platform/thirdparty/CMSIS/include/core_cmFunc.h **** 
 221:../../../platform/thirdparty/CMSIS/include/core_cmFunc.h ****     \param [in]    basePri  Base Priority value to set
 222:../../../platform/thirdparty/CMSIS/include/core_cmFunc.h ****  */
 223:../../../platform/thirdparty/CMSIS/include/core_cmFunc.h **** __STATIC_INLINE void __set_BASEPRI(uint32_t basePri)
 224:../../../platform/thirdparty/CMSIS/include/core_cmFunc.h **** {
 225:../../../platform/thirdparty/CMSIS/include/core_cmFunc.h ****   register uint32_t __regBasePri         __ASM("basepri");
 226:../../../platform/thirdparty/CMSIS/include/core_cmFunc.h ****   __regBasePri = (basePri & 0xff);
 227:../../../platform/thirdparty/CMSIS/include/core_cmFunc.h **** }
 228:../../../platform/thirdparty/CMSIS/include/core_cmFunc.h ****  
 229:../../../platform/thirdparty/CMSIS/include/core_cmFunc.h **** 
 230:../../../platform/thirdparty/CMSIS/include/core_cmFunc.h **** /** \brief  Get Fault Mask
 231:../../../platform/thirdparty/CMSIS/include/core_cmFunc.h **** 
 232:../../../platform/thirdparty/CMSIS/include/core_cmFunc.h ****     This function returns the current value of the Fault Mask register.
 233:../../../platform/thirdparty/CMSIS/include/core_cmFunc.h **** 
 234:../../../platform/thirdparty/CMSIS/include/core_cmFunc.h ****     \return               Fault Mask register value
 235:../../../platform/thirdparty/CMSIS/include/core_cmFunc.h ****  */
 236:../../../platform/thirdparty/CMSIS/include/core_cmFunc.h **** __STATIC_INLINE uint32_t __get_FAULTMASK(void)
 237:../../../platform/thirdparty/CMSIS/include/core_cmFunc.h **** {
 238:../../../platform/thirdparty/CMSIS/include/core_cmFunc.h ****   register uint32_t __regFaultMask       __ASM("faultmask");
 239:../../../platform/thirdparty/CMSIS/include/core_cmFunc.h ****   return(__regFaultMask);
 240:../../../platform/thirdparty/CMSIS/include/core_cmFunc.h **** }
 241:../../../platform/thirdparty/CMSIS/include/core_cmFunc.h **** 
 242:../../../platform/thirdparty/CMSIS/include/core_cmFunc.h **** 
 243:../../../platform/thirdparty/CMSIS/include/core_cmFunc.h **** /** \brief  Set Fault Mask
 244:../../../platform/thirdparty/CMSIS/include/core_cmFunc.h **** 
 245:../../../platform/thirdparty/CMSIS/include/core_cmFunc.h ****     This function assigns the given value to the Fault Mask register.
 246:../../../platform/thirdparty/CMSIS/include/core_cmFunc.h **** 
 247:../../../platform/thirdparty/CMSIS/include/core_cmFunc.h ****     \param [in]    faultMask  Fault Mask value to set
 248:../../../platform/thirdparty/CMSIS/include/core_cmFunc.h ****  */
 249:../../../platform/thirdparty/CMSIS/include/core_cmFunc.h **** __STATIC_INLINE void __set_FAULTMASK(uint32_t faultMask)
 250:../../../platform/thirdparty/CMSIS/include/core_cmFunc.h **** {
 251:../../../platform/thirdparty/CMSIS/include/core_cmFunc.h ****   register uint32_t __regFaultMask       __ASM("faultmask");
 252:../../../platform/thirdparty/CMSIS/include/core_cmFunc.h ****   __regFaultMask = (faultMask & (uint32_t)1);
 253:../../../platform/thirdparty/CMSIS/include/core_cmFunc.h **** }
 254:../../../platform/thirdparty/CMSIS/include/core_cmFunc.h **** 
 255:../../../platform/thirdparty/CMSIS/include/core_cmFunc.h **** #endif /* (__CORTEX_M >= 0x03) */
 256:../../../platform/thirdparty/CMSIS/include/core_cmFunc.h **** 
 257:../../../platform/thirdparty/CMSIS/include/core_cmFunc.h **** 
 258:../../../platform/thirdparty/CMSIS/include/core_cmFunc.h **** #if       (__CORTEX_M == 0x04)
 259:../../../platform/thirdparty/CMSIS/include/core_cmFunc.h **** 
 260:../../../platform/thirdparty/CMSIS/include/core_cmFunc.h **** /** \brief  Get FPSCR
 261:../../../platform/thirdparty/CMSIS/include/core_cmFunc.h **** 
 262:../../../platform/thirdparty/CMSIS/include/core_cmFunc.h ****     This function returns the current value of the Floating Point Status/Control register.
 263:../../../platform/thirdparty/CMSIS/include/core_cmFunc.h **** 
 264:../../../platform/thirdparty/CMSIS/include/core_cmFunc.h ****     \return               Floating Point Status/Control register value
 265:../../../platform/thirdparty/CMSIS/include/core_cmFunc.h ****  */
 266:../../../platform/thirdparty/CMSIS/include/core_cmFunc.h **** __STATIC_INLINE uint32_t __get_FPSCR(void)
 267:../../../platform/thirdparty/CMSIS/include/core_cmFunc.h **** {
 268:../../../platform/thirdparty/CMSIS/include/core_cmFunc.h **** #if (__FPU_PRESENT == 1) && (__FPU_USED == 1)
 269:../../../platform/thirdparty/CMSIS/include/core_cmFunc.h ****   register uint32_t __regfpscr         __ASM("fpscr");
 270:../../../platform/thirdparty/CMSIS/include/core_cmFunc.h ****   return(__regfpscr);
 271:../../../platform/thirdparty/CMSIS/include/core_cmFunc.h **** #else
 272:../../../platform/thirdparty/CMSIS/include/core_cmFunc.h ****    return(0);
 273:../../../platform/thirdparty/CMSIS/include/core_cmFunc.h **** #endif
 274:../../../platform/thirdparty/CMSIS/include/core_cmFunc.h **** }
 275:../../../platform/thirdparty/CMSIS/include/core_cmFunc.h **** 
 276:../../../platform/thirdparty/CMSIS/include/core_cmFunc.h **** 
 277:../../../platform/thirdparty/CMSIS/include/core_cmFunc.h **** /** \brief  Set FPSCR
 278:../../../platform/thirdparty/CMSIS/include/core_cmFunc.h **** 
 279:../../../platform/thirdparty/CMSIS/include/core_cmFunc.h ****     This function assigns the given value to the Floating Point Status/Control register.
 280:../../../platform/thirdparty/CMSIS/include/core_cmFunc.h **** 
 281:../../../platform/thirdparty/CMSIS/include/core_cmFunc.h ****     \param [in]    fpscr  Floating Point Status/Control value to set
 282:../../../platform/thirdparty/CMSIS/include/core_cmFunc.h ****  */
 283:../../../platform/thirdparty/CMSIS/include/core_cmFunc.h **** __STATIC_INLINE void __set_FPSCR(uint32_t fpscr)
 284:../../../platform/thirdparty/CMSIS/include/core_cmFunc.h **** {
 285:../../../platform/thirdparty/CMSIS/include/core_cmFunc.h **** #if (__FPU_PRESENT == 1) && (__FPU_USED == 1)
 286:../../../platform/thirdparty/CMSIS/include/core_cmFunc.h ****   register uint32_t __regfpscr         __ASM("fpscr");
 287:../../../platform/thirdparty/CMSIS/include/core_cmFunc.h ****   __regfpscr = (fpscr);
 288:../../../platform/thirdparty/CMSIS/include/core_cmFunc.h **** #endif
 289:../../../platform/thirdparty/CMSIS/include/core_cmFunc.h **** }
 290:../../../platform/thirdparty/CMSIS/include/core_cmFunc.h **** 
 291:../../../platform/thirdparty/CMSIS/include/core_cmFunc.h **** #endif /* (__CORTEX_M == 0x04) */
 292:../../../platform/thirdparty/CMSIS/include/core_cmFunc.h **** 
 293:../../../platform/thirdparty/CMSIS/include/core_cmFunc.h **** 
 294:../../../platform/thirdparty/CMSIS/include/core_cmFunc.h **** #elif defined ( __ICCARM__ ) /*------------------ ICC Compiler -------------------*/
 295:../../../platform/thirdparty/CMSIS/include/core_cmFunc.h **** /* IAR iccarm specific functions */
 296:../../../platform/thirdparty/CMSIS/include/core_cmFunc.h **** 
 297:../../../platform/thirdparty/CMSIS/include/core_cmFunc.h **** #include <cmsis_iar.h>
 298:../../../platform/thirdparty/CMSIS/include/core_cmFunc.h **** 
 299:../../../platform/thirdparty/CMSIS/include/core_cmFunc.h **** 
 300:../../../platform/thirdparty/CMSIS/include/core_cmFunc.h **** #elif defined ( __TMS470__ ) /*---------------- TI CCS Compiler ------------------*/
 301:../../../platform/thirdparty/CMSIS/include/core_cmFunc.h **** /* TI CCS specific functions */
 302:../../../platform/thirdparty/CMSIS/include/core_cmFunc.h **** 
 303:../../../platform/thirdparty/CMSIS/include/core_cmFunc.h **** #include <cmsis_ccs.h>
 304:../../../platform/thirdparty/CMSIS/include/core_cmFunc.h **** 
 305:../../../platform/thirdparty/CMSIS/include/core_cmFunc.h **** 
 306:../../../platform/thirdparty/CMSIS/include/core_cmFunc.h **** #elif defined ( __GNUC__ ) /*------------------ GNU Compiler ---------------------*/
 307:../../../platform/thirdparty/CMSIS/include/core_cmFunc.h **** /* GNU gcc specific functions */
 308:../../../platform/thirdparty/CMSIS/include/core_cmFunc.h **** 
 309:../../../platform/thirdparty/CMSIS/include/core_cmFunc.h **** /** \brief  Enable IRQ Interrupts
 310:../../../platform/thirdparty/CMSIS/include/core_cmFunc.h **** 
 311:../../../platform/thirdparty/CMSIS/include/core_cmFunc.h ****   This function enables IRQ interrupts by clearing the I-bit in the CPSR.
 312:../../../platform/thirdparty/CMSIS/include/core_cmFunc.h ****   Can only be executed in Privileged modes.
 313:../../../platform/thirdparty/CMSIS/include/core_cmFunc.h ****  */
 314:../../../platform/thirdparty/CMSIS/include/core_cmFunc.h **** __attribute__( ( always_inline ) ) __STATIC_INLINE void __enable_irq(void)
 315:../../../platform/thirdparty/CMSIS/include/core_cmFunc.h **** {
 316:../../../platform/thirdparty/CMSIS/include/core_cmFunc.h ****   __ASM volatile ("cpsie i");
 317:../../../platform/thirdparty/CMSIS/include/core_cmFunc.h **** }
 318:../../../platform/thirdparty/CMSIS/include/core_cmFunc.h **** 
 319:../../../platform/thirdparty/CMSIS/include/core_cmFunc.h **** 
 320:../../../platform/thirdparty/CMSIS/include/core_cmFunc.h **** /** \brief  Disable IRQ Interrupts
 321:../../../platform/thirdparty/CMSIS/include/core_cmFunc.h **** 
 322:../../../platform/thirdparty/CMSIS/include/core_cmFunc.h ****   This function disables IRQ interrupts by setting the I-bit in the CPSR.
 323:../../../platform/thirdparty/CMSIS/include/core_cmFunc.h ****   Can only be executed in Privileged modes.
 324:../../../platform/thirdparty/CMSIS/include/core_cmFunc.h ****  */
 325:../../../platform/thirdparty/CMSIS/include/core_cmFunc.h **** __attribute__( ( always_inline ) ) __STATIC_INLINE void __disable_irq(void)
 326:../../../platform/thirdparty/CMSIS/include/core_cmFunc.h **** {
 327:../../../platform/thirdparty/CMSIS/include/core_cmFunc.h ****   __ASM volatile ("cpsid i");
 328:../../../platform/thirdparty/CMSIS/include/core_cmFunc.h **** }
 329:../../../platform/thirdparty/CMSIS/include/core_cmFunc.h **** 
 330:../../../platform/thirdparty/CMSIS/include/core_cmFunc.h **** 
 331:../../../platform/thirdparty/CMSIS/include/core_cmFunc.h **** /** \brief  Get Control Register
 332:../../../platform/thirdparty/CMSIS/include/core_cmFunc.h **** 
 333:../../../platform/thirdparty/CMSIS/include/core_cmFunc.h ****     This function returns the content of the Control Register.
 334:../../../platform/thirdparty/CMSIS/include/core_cmFunc.h **** 
 335:../../../platform/thirdparty/CMSIS/include/core_cmFunc.h ****     \return               Control Register value
 336:../../../platform/thirdparty/CMSIS/include/core_cmFunc.h ****  */
 337:../../../platform/thirdparty/CMSIS/include/core_cmFunc.h **** __attribute__( ( always_inline ) ) __STATIC_INLINE uint32_t __get_CONTROL(void)
 338:../../../platform/thirdparty/CMSIS/include/core_cmFunc.h **** {
 339:../../../platform/thirdparty/CMSIS/include/core_cmFunc.h ****   uint32_t result;
 340:../../../platform/thirdparty/CMSIS/include/core_cmFunc.h **** 
 341:../../../platform/thirdparty/CMSIS/include/core_cmFunc.h ****   __ASM volatile ("MRS %0, control" : "=r" (result) );
 342:../../../platform/thirdparty/CMSIS/include/core_cmFunc.h ****   return(result);
 343:../../../platform/thirdparty/CMSIS/include/core_cmFunc.h **** }
 344:../../../platform/thirdparty/CMSIS/include/core_cmFunc.h **** 
 345:../../../platform/thirdparty/CMSIS/include/core_cmFunc.h **** 
 346:../../../platform/thirdparty/CMSIS/include/core_cmFunc.h **** /** \brief  Set Control Register
 347:../../../platform/thirdparty/CMSIS/include/core_cmFunc.h **** 
 348:../../../platform/thirdparty/CMSIS/include/core_cmFunc.h ****     This function writes the given value to the Control Register.
 349:../../../platform/thirdparty/CMSIS/include/core_cmFunc.h **** 
 350:../../../platform/thirdparty/CMSIS/include/core_cmFunc.h ****     \param [in]    control  Control Register value to set
 351:../../../platform/thirdparty/CMSIS/include/core_cmFunc.h ****  */
 352:../../../platform/thirdparty/CMSIS/include/core_cmFunc.h **** __attribute__( ( always_inline ) ) __STATIC_INLINE void __set_CONTROL(uint32_t control)
 353:../../../platform/thirdparty/CMSIS/include/core_cmFunc.h **** {
 354:../../../platform/thirdparty/CMSIS/include/core_cmFunc.h ****   __ASM volatile ("MSR control, %0" : : "r" (control) );
 355:../../../platform/thirdparty/CMSIS/include/core_cmFunc.h **** }
 356:../../../platform/thirdparty/CMSIS/include/core_cmFunc.h **** 
 357:../../../platform/thirdparty/CMSIS/include/core_cmFunc.h **** 
 358:../../../platform/thirdparty/CMSIS/include/core_cmFunc.h **** /** \brief  Get IPSR Register
 359:../../../platform/thirdparty/CMSIS/include/core_cmFunc.h **** 
 360:../../../platform/thirdparty/CMSIS/include/core_cmFunc.h ****     This function returns the content of the IPSR Register.
 361:../../../platform/thirdparty/CMSIS/include/core_cmFunc.h **** 
 362:../../../platform/thirdparty/CMSIS/include/core_cmFunc.h ****     \return               IPSR Register value
 363:../../../platform/thirdparty/CMSIS/include/core_cmFunc.h ****  */
 364:../../../platform/thirdparty/CMSIS/include/core_cmFunc.h **** __attribute__( ( always_inline ) ) __STATIC_INLINE uint32_t __get_IPSR(void)
 365:../../../platform/thirdparty/CMSIS/include/core_cmFunc.h **** {
 366:../../../platform/thirdparty/CMSIS/include/core_cmFunc.h ****   uint32_t result;
 367:../../../platform/thirdparty/CMSIS/include/core_cmFunc.h **** 
 368:../../../platform/thirdparty/CMSIS/include/core_cmFunc.h ****   __ASM volatile ("MRS %0, ipsr" : "=r" (result) );
 369:../../../platform/thirdparty/CMSIS/include/core_cmFunc.h ****   return(result);
 370:../../../platform/thirdparty/CMSIS/include/core_cmFunc.h **** }
 371:../../../platform/thirdparty/CMSIS/include/core_cmFunc.h **** 
 372:../../../platform/thirdparty/CMSIS/include/core_cmFunc.h **** 
 373:../../../platform/thirdparty/CMSIS/include/core_cmFunc.h **** /** \brief  Get APSR Register
 374:../../../platform/thirdparty/CMSIS/include/core_cmFunc.h **** 
 375:../../../platform/thirdparty/CMSIS/include/core_cmFunc.h ****     This function returns the content of the APSR Register.
 376:../../../platform/thirdparty/CMSIS/include/core_cmFunc.h **** 
 377:../../../platform/thirdparty/CMSIS/include/core_cmFunc.h ****     \return               APSR Register value
 378:../../../platform/thirdparty/CMSIS/include/core_cmFunc.h ****  */
 379:../../../platform/thirdparty/CMSIS/include/core_cmFunc.h **** __attribute__( ( always_inline ) ) __STATIC_INLINE uint32_t __get_APSR(void)
 380:../../../platform/thirdparty/CMSIS/include/core_cmFunc.h **** {
 381:../../../platform/thirdparty/CMSIS/include/core_cmFunc.h ****   uint32_t result;
 382:../../../platform/thirdparty/CMSIS/include/core_cmFunc.h **** 
 383:../../../platform/thirdparty/CMSIS/include/core_cmFunc.h ****   __ASM volatile ("MRS %0, apsr" : "=r" (result) );
 384:../../../platform/thirdparty/CMSIS/include/core_cmFunc.h ****   return(result);
 385:../../../platform/thirdparty/CMSIS/include/core_cmFunc.h **** }
 386:../../../platform/thirdparty/CMSIS/include/core_cmFunc.h **** 
 387:../../../platform/thirdparty/CMSIS/include/core_cmFunc.h **** 
 388:../../../platform/thirdparty/CMSIS/include/core_cmFunc.h **** /** \brief  Get xPSR Register
 389:../../../platform/thirdparty/CMSIS/include/core_cmFunc.h **** 
 390:../../../platform/thirdparty/CMSIS/include/core_cmFunc.h ****     This function returns the content of the xPSR Register.
 391:../../../platform/thirdparty/CMSIS/include/core_cmFunc.h **** 
 392:../../../platform/thirdparty/CMSIS/include/core_cmFunc.h ****     \return               xPSR Register value
 393:../../../platform/thirdparty/CMSIS/include/core_cmFunc.h ****  */
 394:../../../platform/thirdparty/CMSIS/include/core_cmFunc.h **** __attribute__( ( always_inline ) ) __STATIC_INLINE uint32_t __get_xPSR(void)
 395:../../../platform/thirdparty/CMSIS/include/core_cmFunc.h **** {
 396:../../../platform/thirdparty/CMSIS/include/core_cmFunc.h ****   uint32_t result;
 397:../../../platform/thirdparty/CMSIS/include/core_cmFunc.h **** 
 398:../../../platform/thirdparty/CMSIS/include/core_cmFunc.h ****   __ASM volatile ("MRS %0, xpsr" : "=r" (result) );
 399:../../../platform/thirdparty/CMSIS/include/core_cmFunc.h ****   return(result);
 400:../../../platform/thirdparty/CMSIS/include/core_cmFunc.h **** }
 401:../../../platform/thirdparty/CMSIS/include/core_cmFunc.h **** 
 402:../../../platform/thirdparty/CMSIS/include/core_cmFunc.h **** 
 403:../../../platform/thirdparty/CMSIS/include/core_cmFunc.h **** /** \brief  Get Process Stack Pointer
 404:../../../platform/thirdparty/CMSIS/include/core_cmFunc.h **** 
 405:../../../platform/thirdparty/CMSIS/include/core_cmFunc.h ****     This function returns the current value of the Process Stack Pointer (PSP).
 406:../../../platform/thirdparty/CMSIS/include/core_cmFunc.h **** 
 407:../../../platform/thirdparty/CMSIS/include/core_cmFunc.h ****     \return               PSP Register value
 408:../../../platform/thirdparty/CMSIS/include/core_cmFunc.h ****  */
 409:../../../platform/thirdparty/CMSIS/include/core_cmFunc.h **** __attribute__( ( always_inline ) ) __STATIC_INLINE uint32_t __get_PSP(void)
 410:../../../platform/thirdparty/CMSIS/include/core_cmFunc.h **** {
 411:../../../platform/thirdparty/CMSIS/include/core_cmFunc.h ****   register uint32_t result;
 412:../../../platform/thirdparty/CMSIS/include/core_cmFunc.h **** 
 413:../../../platform/thirdparty/CMSIS/include/core_cmFunc.h ****   __ASM volatile ("MRS %0, psp\n"  : "=r" (result) );
 414:../../../platform/thirdparty/CMSIS/include/core_cmFunc.h ****   return(result);
 415:../../../platform/thirdparty/CMSIS/include/core_cmFunc.h **** }
 416:../../../platform/thirdparty/CMSIS/include/core_cmFunc.h ****  
 417:../../../platform/thirdparty/CMSIS/include/core_cmFunc.h **** 
 418:../../../platform/thirdparty/CMSIS/include/core_cmFunc.h **** /** \brief  Set Process Stack Pointer
 419:../../../platform/thirdparty/CMSIS/include/core_cmFunc.h **** 
 420:../../../platform/thirdparty/CMSIS/include/core_cmFunc.h ****     This function assigns the given value to the Process Stack Pointer (PSP).
 421:../../../platform/thirdparty/CMSIS/include/core_cmFunc.h **** 
 422:../../../platform/thirdparty/CMSIS/include/core_cmFunc.h ****     \param [in]    topOfProcStack  Process Stack Pointer value to set
 423:../../../platform/thirdparty/CMSIS/include/core_cmFunc.h ****  */
 424:../../../platform/thirdparty/CMSIS/include/core_cmFunc.h **** __attribute__( ( always_inline ) ) __STATIC_INLINE void __set_PSP(uint32_t topOfProcStack)
 425:../../../platform/thirdparty/CMSIS/include/core_cmFunc.h **** {
 426:../../../platform/thirdparty/CMSIS/include/core_cmFunc.h ****   __ASM volatile ("MSR psp, %0\n" : : "r" (topOfProcStack) );
 427:../../../platform/thirdparty/CMSIS/include/core_cmFunc.h **** }
 428:../../../platform/thirdparty/CMSIS/include/core_cmFunc.h **** 
 429:../../../platform/thirdparty/CMSIS/include/core_cmFunc.h **** 
 430:../../../platform/thirdparty/CMSIS/include/core_cmFunc.h **** /** \brief  Get Main Stack Pointer
 431:../../../platform/thirdparty/CMSIS/include/core_cmFunc.h **** 
 432:../../../platform/thirdparty/CMSIS/include/core_cmFunc.h ****     This function returns the current value of the Main Stack Pointer (MSP).
 433:../../../platform/thirdparty/CMSIS/include/core_cmFunc.h **** 
 434:../../../platform/thirdparty/CMSIS/include/core_cmFunc.h ****     \return               MSP Register value
 435:../../../platform/thirdparty/CMSIS/include/core_cmFunc.h ****  */
 436:../../../platform/thirdparty/CMSIS/include/core_cmFunc.h **** __attribute__( ( always_inline ) ) __STATIC_INLINE uint32_t __get_MSP(void)
 437:../../../platform/thirdparty/CMSIS/include/core_cmFunc.h **** {
 438:../../../platform/thirdparty/CMSIS/include/core_cmFunc.h ****   register uint32_t result;
 439:../../../platform/thirdparty/CMSIS/include/core_cmFunc.h **** 
 440:../../../platform/thirdparty/CMSIS/include/core_cmFunc.h ****   __ASM volatile ("MRS %0, msp\n" : "=r" (result) );
 441:../../../platform/thirdparty/CMSIS/include/core_cmFunc.h ****   return(result);
 442:../../../platform/thirdparty/CMSIS/include/core_cmFunc.h **** }
 443:../../../platform/thirdparty/CMSIS/include/core_cmFunc.h ****  
 444:../../../platform/thirdparty/CMSIS/include/core_cmFunc.h **** 
 445:../../../platform/thirdparty/CMSIS/include/core_cmFunc.h **** /** \brief  Set Main Stack Pointer
 446:../../../platform/thirdparty/CMSIS/include/core_cmFunc.h **** 
 447:../../../platform/thirdparty/CMSIS/include/core_cmFunc.h ****     This function assigns the given value to the Main Stack Pointer (MSP).
 448:../../../platform/thirdparty/CMSIS/include/core_cmFunc.h **** 
 449:../../../platform/thirdparty/CMSIS/include/core_cmFunc.h ****     \param [in]    topOfMainStack  Main Stack Pointer value to set
 450:../../../platform/thirdparty/CMSIS/include/core_cmFunc.h ****  */
 451:../../../platform/thirdparty/CMSIS/include/core_cmFunc.h **** __attribute__( ( always_inline ) ) __STATIC_INLINE void __set_MSP(uint32_t topOfMainStack)
 452:../../../platform/thirdparty/CMSIS/include/core_cmFunc.h **** {
 453:../../../platform/thirdparty/CMSIS/include/core_cmFunc.h ****   __ASM volatile ("MSR msp, %0\n" : : "r" (topOfMainStack) );
 454:../../../platform/thirdparty/CMSIS/include/core_cmFunc.h **** }
 455:../../../platform/thirdparty/CMSIS/include/core_cmFunc.h **** 
 456:../../../platform/thirdparty/CMSIS/include/core_cmFunc.h **** 
 457:../../../platform/thirdparty/CMSIS/include/core_cmFunc.h **** /** \brief  Get Priority Mask
 458:../../../platform/thirdparty/CMSIS/include/core_cmFunc.h **** 
 459:../../../platform/thirdparty/CMSIS/include/core_cmFunc.h ****     This function returns the current state of the priority mask bit from the Priority Mask Registe
 460:../../../platform/thirdparty/CMSIS/include/core_cmFunc.h **** 
 461:../../../platform/thirdparty/CMSIS/include/core_cmFunc.h ****     \return               Priority Mask value
 462:../../../platform/thirdparty/CMSIS/include/core_cmFunc.h ****  */
 463:../../../platform/thirdparty/CMSIS/include/core_cmFunc.h **** __attribute__( ( always_inline ) ) __STATIC_INLINE uint32_t __get_PRIMASK(void)
 464:../../../platform/thirdparty/CMSIS/include/core_cmFunc.h **** {
 465:../../../platform/thirdparty/CMSIS/include/core_cmFunc.h ****   uint32_t result;
 466:../../../platform/thirdparty/CMSIS/include/core_cmFunc.h **** 
 467:../../../platform/thirdparty/CMSIS/include/core_cmFunc.h ****   __ASM volatile ("MRS %0, primask" : "=r" (result) );
  54              	 .loc 2 467 0
  55              	 .syntax unified
  56              	
  57 0006 EFF31083 	 MRS r3,primask
  58              	
  59              	 .thumb
  60              	 .syntax unified
  61 000a 3B60     	 str r3,[r7]
 468:../../../platform/thirdparty/CMSIS/include/core_cmFunc.h ****   return(result);
  62              	 .loc 2 468 0
  63 000c 3B68     	 ldr r3,[r7]
  64              	.LBE13:
  65              	.LBE12:
 146:../../../platform/common/utils/interrupt/interrupt_sam_nvic.h **** 	irqflags_t flags = cpu_irq_is_enabled();
  66              	 .loc 1 146 0
  67 000e 002B     	 cmp r3,#0
  68 0010 0CBF     	 ite eq
  69 0012 0123     	 moveq r3,#1
  70 0014 0023     	 movne r3,#0
  71 0016 DBB2     	 uxtb r3,r3
  72 0018 7B60     	 str r3,[r7,#4]
  73              	.LBB14:
  74              	.LBB15:
 327:../../../platform/thirdparty/CMSIS/include/core_cmFunc.h **** }
  75              	 .loc 2 327 0
  76              	 .syntax unified
  77              	
  78 001a 72B6     	 cpsid i
  79              	
  80              	 .thumb
  81              	 .syntax unified
  82              	.LBE15:
  83              	.LBE14:
  84              	.LBB16:
  85              	.LBB17:
  86              	 .file 3 "../../../platform/thirdparty/CMSIS/include/core_cmInstr.h"
   1:../../../platform/thirdparty/CMSIS/include/core_cmInstr.h **** /**************************************************************************//**
   2:../../../platform/thirdparty/CMSIS/include/core_cmInstr.h ****  * @file     core_cmInstr.h
   3:../../../platform/thirdparty/CMSIS/include/core_cmInstr.h ****  * @brief    CMSIS Cortex-M Core Instruction Access Header File
   4:../../../platform/thirdparty/CMSIS/include/core_cmInstr.h ****  * @version  V3.00
   5:../../../platform/thirdparty/CMSIS/include/core_cmInstr.h ****  * @date     07. February 2012
   6:../../../platform/thirdparty/CMSIS/include/core_cmInstr.h ****  *
   7:../../../platform/thirdparty/CMSIS/include/core_cmInstr.h ****  * @note
   8:../../../platform/thirdparty/CMSIS/include/core_cmInstr.h ****  * Copyright (C) 2009-2012 ARM Limited. All rights reserved.
   9:../../../platform/thirdparty/CMSIS/include/core_cmInstr.h ****  *
  10:../../../platform/thirdparty/CMSIS/include/core_cmInstr.h ****  * @par
  11:../../../platform/thirdparty/CMSIS/include/core_cmInstr.h ****  * ARM Limited (ARM) is supplying this software for use with Cortex-M
  12:../../../platform/thirdparty/CMSIS/include/core_cmInstr.h ****  * processor based microcontrollers.  This file can be freely distributed
  13:../../../platform/thirdparty/CMSIS/include/core_cmInstr.h ****  * within development tools that are supporting such ARM based processors.
  14:../../../platform/thirdparty/CMSIS/include/core_cmInstr.h ****  *
  15:../../../platform/thirdparty/CMSIS/include/core_cmInstr.h ****  * @par
  16:../../../platform/thirdparty/CMSIS/include/core_cmInstr.h ****  * THIS SOFTWARE IS PROVIDED "AS IS".  NO WARRANTIES, WHETHER EXPRESS, IMPLIED
  17:../../../platform/thirdparty/CMSIS/include/core_cmInstr.h ****  * OR STATUTORY, INCLUDING, BUT NOT LIMITED TO, IMPLIED WARRANTIES OF
  18:../../../platform/thirdparty/CMSIS/include/core_cmInstr.h ****  * MERCHANTABILITY AND FITNESS FOR A PARTICULAR PURPOSE APPLY TO THIS SOFTWARE.
  19:../../../platform/thirdparty/CMSIS/include/core_cmInstr.h ****  * ARM SHALL NOT, IN ANY CIRCUMSTANCES, BE LIABLE FOR SPECIAL, INCIDENTAL, OR
  20:../../../platform/thirdparty/CMSIS/include/core_cmInstr.h ****  * CONSEQUENTIAL DAMAGES, FOR ANY REASON WHATSOEVER.
  21:../../../platform/thirdparty/CMSIS/include/core_cmInstr.h ****  *
  22:../../../platform/thirdparty/CMSIS/include/core_cmInstr.h ****  ******************************************************************************/
  23:../../../platform/thirdparty/CMSIS/include/core_cmInstr.h **** 
  24:../../../platform/thirdparty/CMSIS/include/core_cmInstr.h **** #ifndef __CORE_CMINSTR_H
  25:../../../platform/thirdparty/CMSIS/include/core_cmInstr.h **** #define __CORE_CMINSTR_H
  26:../../../platform/thirdparty/CMSIS/include/core_cmInstr.h **** 
  27:../../../platform/thirdparty/CMSIS/include/core_cmInstr.h **** 
  28:../../../platform/thirdparty/CMSIS/include/core_cmInstr.h **** /* ##########################  Core Instruction Access  ######################### */
  29:../../../platform/thirdparty/CMSIS/include/core_cmInstr.h **** /** \defgroup CMSIS_Core_InstructionInterface CMSIS Core Instruction Interface
  30:../../../platform/thirdparty/CMSIS/include/core_cmInstr.h ****   Access to dedicated instructions
  31:../../../platform/thirdparty/CMSIS/include/core_cmInstr.h ****   @{
  32:../../../platform/thirdparty/CMSIS/include/core_cmInstr.h **** */
  33:../../../platform/thirdparty/CMSIS/include/core_cmInstr.h **** 
  34:../../../platform/thirdparty/CMSIS/include/core_cmInstr.h **** #if   defined ( __CC_ARM ) /*------------------RealView Compiler -----------------*/
  35:../../../platform/thirdparty/CMSIS/include/core_cmInstr.h **** /* ARM armcc specific functions */
  36:../../../platform/thirdparty/CMSIS/include/core_cmInstr.h **** 
  37:../../../platform/thirdparty/CMSIS/include/core_cmInstr.h **** #if (__ARMCC_VERSION < 400677)
  38:../../../platform/thirdparty/CMSIS/include/core_cmInstr.h ****   #error "Please use ARM Compiler Toolchain V4.0.677 or later!"
  39:../../../platform/thirdparty/CMSIS/include/core_cmInstr.h **** #endif
  40:../../../platform/thirdparty/CMSIS/include/core_cmInstr.h **** 
  41:../../../platform/thirdparty/CMSIS/include/core_cmInstr.h **** 
  42:../../../platform/thirdparty/CMSIS/include/core_cmInstr.h **** /** \brief  No Operation
  43:../../../platform/thirdparty/CMSIS/include/core_cmInstr.h **** 
  44:../../../platform/thirdparty/CMSIS/include/core_cmInstr.h ****     No Operation does nothing. This instruction can be used for code alignment purposes.
  45:../../../platform/thirdparty/CMSIS/include/core_cmInstr.h ****  */
  46:../../../platform/thirdparty/CMSIS/include/core_cmInstr.h **** #define __NOP                             __nop
  47:../../../platform/thirdparty/CMSIS/include/core_cmInstr.h **** 
  48:../../../platform/thirdparty/CMSIS/include/core_cmInstr.h **** 
  49:../../../platform/thirdparty/CMSIS/include/core_cmInstr.h **** /** \brief  Wait For Interrupt
  50:../../../platform/thirdparty/CMSIS/include/core_cmInstr.h **** 
  51:../../../platform/thirdparty/CMSIS/include/core_cmInstr.h ****     Wait For Interrupt is a hint instruction that suspends execution
  52:../../../platform/thirdparty/CMSIS/include/core_cmInstr.h ****     until one of a number of events occurs.
  53:../../../platform/thirdparty/CMSIS/include/core_cmInstr.h ****  */
  54:../../../platform/thirdparty/CMSIS/include/core_cmInstr.h **** #define __WFI                             __wfi
  55:../../../platform/thirdparty/CMSIS/include/core_cmInstr.h **** 
  56:../../../platform/thirdparty/CMSIS/include/core_cmInstr.h **** 
  57:../../../platform/thirdparty/CMSIS/include/core_cmInstr.h **** /** \brief  Wait For Event
  58:../../../platform/thirdparty/CMSIS/include/core_cmInstr.h **** 
  59:../../../platform/thirdparty/CMSIS/include/core_cmInstr.h ****     Wait For Event is a hint instruction that permits the processor to enter
  60:../../../platform/thirdparty/CMSIS/include/core_cmInstr.h ****     a low-power state until one of a number of events occurs.
  61:../../../platform/thirdparty/CMSIS/include/core_cmInstr.h ****  */
  62:../../../platform/thirdparty/CMSIS/include/core_cmInstr.h **** #define __WFE                             __wfe
  63:../../../platform/thirdparty/CMSIS/include/core_cmInstr.h **** 
  64:../../../platform/thirdparty/CMSIS/include/core_cmInstr.h **** 
  65:../../../platform/thirdparty/CMSIS/include/core_cmInstr.h **** /** \brief  Send Event
  66:../../../platform/thirdparty/CMSIS/include/core_cmInstr.h **** 
  67:../../../platform/thirdparty/CMSIS/include/core_cmInstr.h ****     Send Event is a hint instruction. It causes an event to be signaled to the CPU.
  68:../../../platform/thirdparty/CMSIS/include/core_cmInstr.h ****  */
  69:../../../platform/thirdparty/CMSIS/include/core_cmInstr.h **** #define __SEV                             __sev
  70:../../../platform/thirdparty/CMSIS/include/core_cmInstr.h **** 
  71:../../../platform/thirdparty/CMSIS/include/core_cmInstr.h **** 
  72:../../../platform/thirdparty/CMSIS/include/core_cmInstr.h **** /** \brief  Instruction Synchronization Barrier
  73:../../../platform/thirdparty/CMSIS/include/core_cmInstr.h **** 
  74:../../../platform/thirdparty/CMSIS/include/core_cmInstr.h ****     Instruction Synchronization Barrier flushes the pipeline in the processor,
  75:../../../platform/thirdparty/CMSIS/include/core_cmInstr.h ****     so that all instructions following the ISB are fetched from cache or
  76:../../../platform/thirdparty/CMSIS/include/core_cmInstr.h ****     memory, after the instruction has been completed.
  77:../../../platform/thirdparty/CMSIS/include/core_cmInstr.h ****  */
  78:../../../platform/thirdparty/CMSIS/include/core_cmInstr.h **** #define __ISB()                           __isb(0xF)
  79:../../../platform/thirdparty/CMSIS/include/core_cmInstr.h **** 
  80:../../../platform/thirdparty/CMSIS/include/core_cmInstr.h **** 
  81:../../../platform/thirdparty/CMSIS/include/core_cmInstr.h **** /** \brief  Data Synchronization Barrier
  82:../../../platform/thirdparty/CMSIS/include/core_cmInstr.h **** 
  83:../../../platform/thirdparty/CMSIS/include/core_cmInstr.h ****     This function acts as a special kind of Data Memory Barrier.
  84:../../../platform/thirdparty/CMSIS/include/core_cmInstr.h ****     It completes when all explicit memory accesses before this instruction complete.
  85:../../../platform/thirdparty/CMSIS/include/core_cmInstr.h ****  */
  86:../../../platform/thirdparty/CMSIS/include/core_cmInstr.h **** #define __DSB()                           __dsb(0xF)
  87:../../../platform/thirdparty/CMSIS/include/core_cmInstr.h **** 
  88:../../../platform/thirdparty/CMSIS/include/core_cmInstr.h **** 
  89:../../../platform/thirdparty/CMSIS/include/core_cmInstr.h **** /** \brief  Data Memory Barrier
  90:../../../platform/thirdparty/CMSIS/include/core_cmInstr.h **** 
  91:../../../platform/thirdparty/CMSIS/include/core_cmInstr.h ****     This function ensures the apparent order of the explicit memory operations before
  92:../../../platform/thirdparty/CMSIS/include/core_cmInstr.h ****     and after the instruction, without ensuring their completion.
  93:../../../platform/thirdparty/CMSIS/include/core_cmInstr.h ****  */
  94:../../../platform/thirdparty/CMSIS/include/core_cmInstr.h **** #define __DMB()                           __dmb(0xF)
  95:../../../platform/thirdparty/CMSIS/include/core_cmInstr.h **** 
  96:../../../platform/thirdparty/CMSIS/include/core_cmInstr.h **** 
  97:../../../platform/thirdparty/CMSIS/include/core_cmInstr.h **** /** \brief  Reverse byte order (32 bit)
  98:../../../platform/thirdparty/CMSIS/include/core_cmInstr.h **** 
  99:../../../platform/thirdparty/CMSIS/include/core_cmInstr.h ****     This function reverses the byte order in integer value.
 100:../../../platform/thirdparty/CMSIS/include/core_cmInstr.h **** 
 101:../../../platform/thirdparty/CMSIS/include/core_cmInstr.h ****     \param [in]    value  Value to reverse
 102:../../../platform/thirdparty/CMSIS/include/core_cmInstr.h ****     \return               Reversed value
 103:../../../platform/thirdparty/CMSIS/include/core_cmInstr.h ****  */
 104:../../../platform/thirdparty/CMSIS/include/core_cmInstr.h **** #define __REV                             __rev
 105:../../../platform/thirdparty/CMSIS/include/core_cmInstr.h **** 
 106:../../../platform/thirdparty/CMSIS/include/core_cmInstr.h **** 
 107:../../../platform/thirdparty/CMSIS/include/core_cmInstr.h **** /** \brief  Reverse byte order (16 bit)
 108:../../../platform/thirdparty/CMSIS/include/core_cmInstr.h **** 
 109:../../../platform/thirdparty/CMSIS/include/core_cmInstr.h ****     This function reverses the byte order in two unsigned short values.
 110:../../../platform/thirdparty/CMSIS/include/core_cmInstr.h **** 
 111:../../../platform/thirdparty/CMSIS/include/core_cmInstr.h ****     \param [in]    value  Value to reverse
 112:../../../platform/thirdparty/CMSIS/include/core_cmInstr.h ****     \return               Reversed value
 113:../../../platform/thirdparty/CMSIS/include/core_cmInstr.h ****  */
 114:../../../platform/thirdparty/CMSIS/include/core_cmInstr.h **** __attribute__((section(".rev16_text"))) __STATIC_INLINE __ASM uint32_t __REV16(uint32_t value)
 115:../../../platform/thirdparty/CMSIS/include/core_cmInstr.h **** {
 116:../../../platform/thirdparty/CMSIS/include/core_cmInstr.h ****   rev16 r0, r0
 117:../../../platform/thirdparty/CMSIS/include/core_cmInstr.h ****   bx lr
 118:../../../platform/thirdparty/CMSIS/include/core_cmInstr.h **** }
 119:../../../platform/thirdparty/CMSIS/include/core_cmInstr.h **** 
 120:../../../platform/thirdparty/CMSIS/include/core_cmInstr.h **** 
 121:../../../platform/thirdparty/CMSIS/include/core_cmInstr.h **** /** \brief  Reverse byte order in signed short value
 122:../../../platform/thirdparty/CMSIS/include/core_cmInstr.h **** 
 123:../../../platform/thirdparty/CMSIS/include/core_cmInstr.h ****     This function reverses the byte order in a signed short value with sign extension to integer.
 124:../../../platform/thirdparty/CMSIS/include/core_cmInstr.h **** 
 125:../../../platform/thirdparty/CMSIS/include/core_cmInstr.h ****     \param [in]    value  Value to reverse
 126:../../../platform/thirdparty/CMSIS/include/core_cmInstr.h ****     \return               Reversed value
 127:../../../platform/thirdparty/CMSIS/include/core_cmInstr.h ****  */
 128:../../../platform/thirdparty/CMSIS/include/core_cmInstr.h **** __attribute__((section(".revsh_text"))) __STATIC_INLINE __ASM int32_t __REVSH(int32_t value)
 129:../../../platform/thirdparty/CMSIS/include/core_cmInstr.h **** {
 130:../../../platform/thirdparty/CMSIS/include/core_cmInstr.h ****   revsh r0, r0
 131:../../../platform/thirdparty/CMSIS/include/core_cmInstr.h ****   bx lr
 132:../../../platform/thirdparty/CMSIS/include/core_cmInstr.h **** }
 133:../../../platform/thirdparty/CMSIS/include/core_cmInstr.h **** 
 134:../../../platform/thirdparty/CMSIS/include/core_cmInstr.h **** 
 135:../../../platform/thirdparty/CMSIS/include/core_cmInstr.h **** /** \brief  Rotate Right in unsigned value (32 bit)
 136:../../../platform/thirdparty/CMSIS/include/core_cmInstr.h **** 
 137:../../../platform/thirdparty/CMSIS/include/core_cmInstr.h ****     This function Rotate Right (immediate) provides the value of the contents of a register rotated
 138:../../../platform/thirdparty/CMSIS/include/core_cmInstr.h **** 
 139:../../../platform/thirdparty/CMSIS/include/core_cmInstr.h ****     \param [in]    value  Value to rotate
 140:../../../platform/thirdparty/CMSIS/include/core_cmInstr.h ****     \param [in]    value  Number of Bits to rotate
 141:../../../platform/thirdparty/CMSIS/include/core_cmInstr.h ****     \return               Rotated value
 142:../../../platform/thirdparty/CMSIS/include/core_cmInstr.h ****  */
 143:../../../platform/thirdparty/CMSIS/include/core_cmInstr.h **** #define __ROR                             __ror
 144:../../../platform/thirdparty/CMSIS/include/core_cmInstr.h **** 
 145:../../../platform/thirdparty/CMSIS/include/core_cmInstr.h **** 
 146:../../../platform/thirdparty/CMSIS/include/core_cmInstr.h **** #if       (__CORTEX_M >= 0x03)
 147:../../../platform/thirdparty/CMSIS/include/core_cmInstr.h **** 
 148:../../../platform/thirdparty/CMSIS/include/core_cmInstr.h **** /** \brief  Reverse bit order of value
 149:../../../platform/thirdparty/CMSIS/include/core_cmInstr.h **** 
 150:../../../platform/thirdparty/CMSIS/include/core_cmInstr.h ****     This function reverses the bit order of the given value.
 151:../../../platform/thirdparty/CMSIS/include/core_cmInstr.h **** 
 152:../../../platform/thirdparty/CMSIS/include/core_cmInstr.h ****     \param [in]    value  Value to reverse
 153:../../../platform/thirdparty/CMSIS/include/core_cmInstr.h ****     \return               Reversed value
 154:../../../platform/thirdparty/CMSIS/include/core_cmInstr.h ****  */
 155:../../../platform/thirdparty/CMSIS/include/core_cmInstr.h **** #define __RBIT                            __rbit
 156:../../../platform/thirdparty/CMSIS/include/core_cmInstr.h **** 
 157:../../../platform/thirdparty/CMSIS/include/core_cmInstr.h **** 
 158:../../../platform/thirdparty/CMSIS/include/core_cmInstr.h **** /** \brief  LDR Exclusive (8 bit)
 159:../../../platform/thirdparty/CMSIS/include/core_cmInstr.h **** 
 160:../../../platform/thirdparty/CMSIS/include/core_cmInstr.h ****     This function performs a exclusive LDR command for 8 bit value.
 161:../../../platform/thirdparty/CMSIS/include/core_cmInstr.h **** 
 162:../../../platform/thirdparty/CMSIS/include/core_cmInstr.h ****     \param [in]    ptr  Pointer to data
 163:../../../platform/thirdparty/CMSIS/include/core_cmInstr.h ****     \return             value of type uint8_t at (*ptr)
 164:../../../platform/thirdparty/CMSIS/include/core_cmInstr.h ****  */
 165:../../../platform/thirdparty/CMSIS/include/core_cmInstr.h **** #define __LDREXB(ptr)                     ((uint8_t ) __ldrex(ptr))
 166:../../../platform/thirdparty/CMSIS/include/core_cmInstr.h **** 
 167:../../../platform/thirdparty/CMSIS/include/core_cmInstr.h **** 
 168:../../../platform/thirdparty/CMSIS/include/core_cmInstr.h **** /** \brief  LDR Exclusive (16 bit)
 169:../../../platform/thirdparty/CMSIS/include/core_cmInstr.h **** 
 170:../../../platform/thirdparty/CMSIS/include/core_cmInstr.h ****     This function performs a exclusive LDR command for 16 bit values.
 171:../../../platform/thirdparty/CMSIS/include/core_cmInstr.h **** 
 172:../../../platform/thirdparty/CMSIS/include/core_cmInstr.h ****     \param [in]    ptr  Pointer to data
 173:../../../platform/thirdparty/CMSIS/include/core_cmInstr.h ****     \return        value of type uint16_t at (*ptr)
 174:../../../platform/thirdparty/CMSIS/include/core_cmInstr.h ****  */
 175:../../../platform/thirdparty/CMSIS/include/core_cmInstr.h **** #define __LDREXH(ptr)                     ((uint16_t) __ldrex(ptr))
 176:../../../platform/thirdparty/CMSIS/include/core_cmInstr.h **** 
 177:../../../platform/thirdparty/CMSIS/include/core_cmInstr.h **** 
 178:../../../platform/thirdparty/CMSIS/include/core_cmInstr.h **** /** \brief  LDR Exclusive (32 bit)
 179:../../../platform/thirdparty/CMSIS/include/core_cmInstr.h **** 
 180:../../../platform/thirdparty/CMSIS/include/core_cmInstr.h ****     This function performs a exclusive LDR command for 32 bit values.
 181:../../../platform/thirdparty/CMSIS/include/core_cmInstr.h **** 
 182:../../../platform/thirdparty/CMSIS/include/core_cmInstr.h ****     \param [in]    ptr  Pointer to data
 183:../../../platform/thirdparty/CMSIS/include/core_cmInstr.h ****     \return        value of type uint32_t at (*ptr)
 184:../../../platform/thirdparty/CMSIS/include/core_cmInstr.h ****  */
 185:../../../platform/thirdparty/CMSIS/include/core_cmInstr.h **** #define __LDREXW(ptr)                     ((uint32_t ) __ldrex(ptr))
 186:../../../platform/thirdparty/CMSIS/include/core_cmInstr.h **** 
 187:../../../platform/thirdparty/CMSIS/include/core_cmInstr.h **** 
 188:../../../platform/thirdparty/CMSIS/include/core_cmInstr.h **** /** \brief  STR Exclusive (8 bit)
 189:../../../platform/thirdparty/CMSIS/include/core_cmInstr.h **** 
 190:../../../platform/thirdparty/CMSIS/include/core_cmInstr.h ****     This function performs a exclusive STR command for 8 bit values.
 191:../../../platform/thirdparty/CMSIS/include/core_cmInstr.h **** 
 192:../../../platform/thirdparty/CMSIS/include/core_cmInstr.h ****     \param [in]  value  Value to store
 193:../../../platform/thirdparty/CMSIS/include/core_cmInstr.h ****     \param [in]    ptr  Pointer to location
 194:../../../platform/thirdparty/CMSIS/include/core_cmInstr.h ****     \return          0  Function succeeded
 195:../../../platform/thirdparty/CMSIS/include/core_cmInstr.h ****     \return          1  Function failed
 196:../../../platform/thirdparty/CMSIS/include/core_cmInstr.h ****  */
 197:../../../platform/thirdparty/CMSIS/include/core_cmInstr.h **** #define __STREXB(value, ptr)              __strex(value, ptr)
 198:../../../platform/thirdparty/CMSIS/include/core_cmInstr.h **** 
 199:../../../platform/thirdparty/CMSIS/include/core_cmInstr.h **** 
 200:../../../platform/thirdparty/CMSIS/include/core_cmInstr.h **** /** \brief  STR Exclusive (16 bit)
 201:../../../platform/thirdparty/CMSIS/include/core_cmInstr.h **** 
 202:../../../platform/thirdparty/CMSIS/include/core_cmInstr.h ****     This function performs a exclusive STR command for 16 bit values.
 203:../../../platform/thirdparty/CMSIS/include/core_cmInstr.h **** 
 204:../../../platform/thirdparty/CMSIS/include/core_cmInstr.h ****     \param [in]  value  Value to store
 205:../../../platform/thirdparty/CMSIS/include/core_cmInstr.h ****     \param [in]    ptr  Pointer to location
 206:../../../platform/thirdparty/CMSIS/include/core_cmInstr.h ****     \return          0  Function succeeded
 207:../../../platform/thirdparty/CMSIS/include/core_cmInstr.h ****     \return          1  Function failed
 208:../../../platform/thirdparty/CMSIS/include/core_cmInstr.h ****  */
 209:../../../platform/thirdparty/CMSIS/include/core_cmInstr.h **** #define __STREXH(value, ptr)              __strex(value, ptr)
 210:../../../platform/thirdparty/CMSIS/include/core_cmInstr.h **** 
 211:../../../platform/thirdparty/CMSIS/include/core_cmInstr.h **** 
 212:../../../platform/thirdparty/CMSIS/include/core_cmInstr.h **** /** \brief  STR Exclusive (32 bit)
 213:../../../platform/thirdparty/CMSIS/include/core_cmInstr.h **** 
 214:../../../platform/thirdparty/CMSIS/include/core_cmInstr.h ****     This function performs a exclusive STR command for 32 bit values.
 215:../../../platform/thirdparty/CMSIS/include/core_cmInstr.h **** 
 216:../../../platform/thirdparty/CMSIS/include/core_cmInstr.h ****     \param [in]  value  Value to store
 217:../../../platform/thirdparty/CMSIS/include/core_cmInstr.h ****     \param [in]    ptr  Pointer to location
 218:../../../platform/thirdparty/CMSIS/include/core_cmInstr.h ****     \return          0  Function succeeded
 219:../../../platform/thirdparty/CMSIS/include/core_cmInstr.h ****     \return          1  Function failed
 220:../../../platform/thirdparty/CMSIS/include/core_cmInstr.h ****  */
 221:../../../platform/thirdparty/CMSIS/include/core_cmInstr.h **** #define __STREXW(value, ptr)              __strex(value, ptr)
 222:../../../platform/thirdparty/CMSIS/include/core_cmInstr.h **** 
 223:../../../platform/thirdparty/CMSIS/include/core_cmInstr.h **** 
 224:../../../platform/thirdparty/CMSIS/include/core_cmInstr.h **** /** \brief  Remove the exclusive lock
 225:../../../platform/thirdparty/CMSIS/include/core_cmInstr.h **** 
 226:../../../platform/thirdparty/CMSIS/include/core_cmInstr.h ****     This function removes the exclusive lock which is created by LDREX.
 227:../../../platform/thirdparty/CMSIS/include/core_cmInstr.h **** 
 228:../../../platform/thirdparty/CMSIS/include/core_cmInstr.h ****  */
 229:../../../platform/thirdparty/CMSIS/include/core_cmInstr.h **** #define __CLREX                           __clrex
 230:../../../platform/thirdparty/CMSIS/include/core_cmInstr.h **** 
 231:../../../platform/thirdparty/CMSIS/include/core_cmInstr.h **** 
 232:../../../platform/thirdparty/CMSIS/include/core_cmInstr.h **** /** \brief  Signed Saturate
 233:../../../platform/thirdparty/CMSIS/include/core_cmInstr.h **** 
 234:../../../platform/thirdparty/CMSIS/include/core_cmInstr.h ****     This function saturates a signed value.
 235:../../../platform/thirdparty/CMSIS/include/core_cmInstr.h **** 
 236:../../../platform/thirdparty/CMSIS/include/core_cmInstr.h ****     \param [in]  value  Value to be saturated
 237:../../../platform/thirdparty/CMSIS/include/core_cmInstr.h ****     \param [in]    sat  Bit position to saturate to (1..32)
 238:../../../platform/thirdparty/CMSIS/include/core_cmInstr.h ****     \return             Saturated value
 239:../../../platform/thirdparty/CMSIS/include/core_cmInstr.h ****  */
 240:../../../platform/thirdparty/CMSIS/include/core_cmInstr.h **** #define __SSAT                            __ssat
 241:../../../platform/thirdparty/CMSIS/include/core_cmInstr.h **** 
 242:../../../platform/thirdparty/CMSIS/include/core_cmInstr.h **** 
 243:../../../platform/thirdparty/CMSIS/include/core_cmInstr.h **** /** \brief  Unsigned Saturate
 244:../../../platform/thirdparty/CMSIS/include/core_cmInstr.h **** 
 245:../../../platform/thirdparty/CMSIS/include/core_cmInstr.h ****     This function saturates an unsigned value.
 246:../../../platform/thirdparty/CMSIS/include/core_cmInstr.h **** 
 247:../../../platform/thirdparty/CMSIS/include/core_cmInstr.h ****     \param [in]  value  Value to be saturated
 248:../../../platform/thirdparty/CMSIS/include/core_cmInstr.h ****     \param [in]    sat  Bit position to saturate to (0..31)
 249:../../../platform/thirdparty/CMSIS/include/core_cmInstr.h ****     \return             Saturated value
 250:../../../platform/thirdparty/CMSIS/include/core_cmInstr.h ****  */
 251:../../../platform/thirdparty/CMSIS/include/core_cmInstr.h **** #define __USAT                            __usat
 252:../../../platform/thirdparty/CMSIS/include/core_cmInstr.h **** 
 253:../../../platform/thirdparty/CMSIS/include/core_cmInstr.h **** 
 254:../../../platform/thirdparty/CMSIS/include/core_cmInstr.h **** /** \brief  Count leading zeros
 255:../../../platform/thirdparty/CMSIS/include/core_cmInstr.h **** 
 256:../../../platform/thirdparty/CMSIS/include/core_cmInstr.h ****     This function counts the number of leading zeros of a data value.
 257:../../../platform/thirdparty/CMSIS/include/core_cmInstr.h **** 
 258:../../../platform/thirdparty/CMSIS/include/core_cmInstr.h ****     \param [in]  value  Value to count the leading zeros
 259:../../../platform/thirdparty/CMSIS/include/core_cmInstr.h ****     \return             number of leading zeros in value
 260:../../../platform/thirdparty/CMSIS/include/core_cmInstr.h ****  */
 261:../../../platform/thirdparty/CMSIS/include/core_cmInstr.h **** #define __CLZ                             __clz
 262:../../../platform/thirdparty/CMSIS/include/core_cmInstr.h **** 
 263:../../../platform/thirdparty/CMSIS/include/core_cmInstr.h **** #endif /* (__CORTEX_M >= 0x03) */
 264:../../../platform/thirdparty/CMSIS/include/core_cmInstr.h **** 
 265:../../../platform/thirdparty/CMSIS/include/core_cmInstr.h **** 
 266:../../../platform/thirdparty/CMSIS/include/core_cmInstr.h **** 
 267:../../../platform/thirdparty/CMSIS/include/core_cmInstr.h **** #elif defined ( __ICCARM__ ) /*------------------ ICC Compiler -------------------*/
 268:../../../platform/thirdparty/CMSIS/include/core_cmInstr.h **** /* IAR iccarm specific functions */
 269:../../../platform/thirdparty/CMSIS/include/core_cmInstr.h **** 
 270:../../../platform/thirdparty/CMSIS/include/core_cmInstr.h **** #include <cmsis_iar.h>
 271:../../../platform/thirdparty/CMSIS/include/core_cmInstr.h **** 
 272:../../../platform/thirdparty/CMSIS/include/core_cmInstr.h **** 
 273:../../../platform/thirdparty/CMSIS/include/core_cmInstr.h **** #elif defined ( __TMS470__ ) /*---------------- TI CCS Compiler ------------------*/
 274:../../../platform/thirdparty/CMSIS/include/core_cmInstr.h **** /* TI CCS specific functions */
 275:../../../platform/thirdparty/CMSIS/include/core_cmInstr.h **** 
 276:../../../platform/thirdparty/CMSIS/include/core_cmInstr.h **** #include <cmsis_ccs.h>
 277:../../../platform/thirdparty/CMSIS/include/core_cmInstr.h **** 
 278:../../../platform/thirdparty/CMSIS/include/core_cmInstr.h **** 
 279:../../../platform/thirdparty/CMSIS/include/core_cmInstr.h **** #elif defined ( __GNUC__ ) /*------------------ GNU Compiler ---------------------*/
 280:../../../platform/thirdparty/CMSIS/include/core_cmInstr.h **** /* GNU gcc specific functions */
 281:../../../platform/thirdparty/CMSIS/include/core_cmInstr.h **** 
 282:../../../platform/thirdparty/CMSIS/include/core_cmInstr.h **** /** \brief  No Operation
 283:../../../platform/thirdparty/CMSIS/include/core_cmInstr.h **** 
 284:../../../platform/thirdparty/CMSIS/include/core_cmInstr.h ****     No Operation does nothing. This instruction can be used for code alignment purposes.
 285:../../../platform/thirdparty/CMSIS/include/core_cmInstr.h ****  */
 286:../../../platform/thirdparty/CMSIS/include/core_cmInstr.h **** __attribute__( ( always_inline ) ) __STATIC_INLINE void __NOP(void)
 287:../../../platform/thirdparty/CMSIS/include/core_cmInstr.h **** {
 288:../../../platform/thirdparty/CMSIS/include/core_cmInstr.h ****   __ASM volatile ("nop");
 289:../../../platform/thirdparty/CMSIS/include/core_cmInstr.h **** }
 290:../../../platform/thirdparty/CMSIS/include/core_cmInstr.h **** 
 291:../../../platform/thirdparty/CMSIS/include/core_cmInstr.h **** 
 292:../../../platform/thirdparty/CMSIS/include/core_cmInstr.h **** /** \brief  Wait For Interrupt
 293:../../../platform/thirdparty/CMSIS/include/core_cmInstr.h **** 
 294:../../../platform/thirdparty/CMSIS/include/core_cmInstr.h ****     Wait For Interrupt is a hint instruction that suspends execution
 295:../../../platform/thirdparty/CMSIS/include/core_cmInstr.h ****     until one of a number of events occurs.
 296:../../../platform/thirdparty/CMSIS/include/core_cmInstr.h ****  */
 297:../../../platform/thirdparty/CMSIS/include/core_cmInstr.h **** __attribute__( ( always_inline ) ) __STATIC_INLINE void __WFI(void)
 298:../../../platform/thirdparty/CMSIS/include/core_cmInstr.h **** {
 299:../../../platform/thirdparty/CMSIS/include/core_cmInstr.h ****   __ASM volatile ("wfi");
 300:../../../platform/thirdparty/CMSIS/include/core_cmInstr.h **** }
 301:../../../platform/thirdparty/CMSIS/include/core_cmInstr.h **** 
 302:../../../platform/thirdparty/CMSIS/include/core_cmInstr.h **** 
 303:../../../platform/thirdparty/CMSIS/include/core_cmInstr.h **** /** \brief  Wait For Event
 304:../../../platform/thirdparty/CMSIS/include/core_cmInstr.h **** 
 305:../../../platform/thirdparty/CMSIS/include/core_cmInstr.h ****     Wait For Event is a hint instruction that permits the processor to enter
 306:../../../platform/thirdparty/CMSIS/include/core_cmInstr.h ****     a low-power state until one of a number of events occurs.
 307:../../../platform/thirdparty/CMSIS/include/core_cmInstr.h ****  */
 308:../../../platform/thirdparty/CMSIS/include/core_cmInstr.h **** __attribute__( ( always_inline ) ) __STATIC_INLINE void __WFE(void)
 309:../../../platform/thirdparty/CMSIS/include/core_cmInstr.h **** {
 310:../../../platform/thirdparty/CMSIS/include/core_cmInstr.h ****   __ASM volatile ("wfe");
 311:../../../platform/thirdparty/CMSIS/include/core_cmInstr.h **** }
 312:../../../platform/thirdparty/CMSIS/include/core_cmInstr.h **** 
 313:../../../platform/thirdparty/CMSIS/include/core_cmInstr.h **** 
 314:../../../platform/thirdparty/CMSIS/include/core_cmInstr.h **** /** \brief  Send Event
 315:../../../platform/thirdparty/CMSIS/include/core_cmInstr.h **** 
 316:../../../platform/thirdparty/CMSIS/include/core_cmInstr.h ****     Send Event is a hint instruction. It causes an event to be signaled to the CPU.
 317:../../../platform/thirdparty/CMSIS/include/core_cmInstr.h ****  */
 318:../../../platform/thirdparty/CMSIS/include/core_cmInstr.h **** __attribute__( ( always_inline ) ) __STATIC_INLINE void __SEV(void)
 319:../../../platform/thirdparty/CMSIS/include/core_cmInstr.h **** {
 320:../../../platform/thirdparty/CMSIS/include/core_cmInstr.h ****   __ASM volatile ("sev");
 321:../../../platform/thirdparty/CMSIS/include/core_cmInstr.h **** }
 322:../../../platform/thirdparty/CMSIS/include/core_cmInstr.h **** 
 323:../../../platform/thirdparty/CMSIS/include/core_cmInstr.h **** 
 324:../../../platform/thirdparty/CMSIS/include/core_cmInstr.h **** /** \brief  Instruction Synchronization Barrier
 325:../../../platform/thirdparty/CMSIS/include/core_cmInstr.h **** 
 326:../../../platform/thirdparty/CMSIS/include/core_cmInstr.h ****     Instruction Synchronization Barrier flushes the pipeline in the processor,
 327:../../../platform/thirdparty/CMSIS/include/core_cmInstr.h ****     so that all instructions following the ISB are fetched from cache or
 328:../../../platform/thirdparty/CMSIS/include/core_cmInstr.h ****     memory, after the instruction has been completed.
 329:../../../platform/thirdparty/CMSIS/include/core_cmInstr.h ****  */
 330:../../../platform/thirdparty/CMSIS/include/core_cmInstr.h **** __attribute__( ( always_inline ) ) __STATIC_INLINE void __ISB(void)
 331:../../../platform/thirdparty/CMSIS/include/core_cmInstr.h **** {
 332:../../../platform/thirdparty/CMSIS/include/core_cmInstr.h ****   __ASM volatile ("isb");
 333:../../../platform/thirdparty/CMSIS/include/core_cmInstr.h **** }
 334:../../../platform/thirdparty/CMSIS/include/core_cmInstr.h **** 
 335:../../../platform/thirdparty/CMSIS/include/core_cmInstr.h **** 
 336:../../../platform/thirdparty/CMSIS/include/core_cmInstr.h **** /** \brief  Data Synchronization Barrier
 337:../../../platform/thirdparty/CMSIS/include/core_cmInstr.h **** 
 338:../../../platform/thirdparty/CMSIS/include/core_cmInstr.h ****     This function acts as a special kind of Data Memory Barrier.
 339:../../../platform/thirdparty/CMSIS/include/core_cmInstr.h ****     It completes when all explicit memory accesses before this instruction complete.
 340:../../../platform/thirdparty/CMSIS/include/core_cmInstr.h ****  */
 341:../../../platform/thirdparty/CMSIS/include/core_cmInstr.h **** __attribute__( ( always_inline ) ) __STATIC_INLINE void __DSB(void)
 342:../../../platform/thirdparty/CMSIS/include/core_cmInstr.h **** {
 343:../../../platform/thirdparty/CMSIS/include/core_cmInstr.h ****   __ASM volatile ("dsb");
 344:../../../platform/thirdparty/CMSIS/include/core_cmInstr.h **** }
 345:../../../platform/thirdparty/CMSIS/include/core_cmInstr.h **** 
 346:../../../platform/thirdparty/CMSIS/include/core_cmInstr.h **** 
 347:../../../platform/thirdparty/CMSIS/include/core_cmInstr.h **** /** \brief  Data Memory Barrier
 348:../../../platform/thirdparty/CMSIS/include/core_cmInstr.h **** 
 349:../../../platform/thirdparty/CMSIS/include/core_cmInstr.h ****     This function ensures the apparent order of the explicit memory operations before
 350:../../../platform/thirdparty/CMSIS/include/core_cmInstr.h ****     and after the instruction, without ensuring their completion.
 351:../../../platform/thirdparty/CMSIS/include/core_cmInstr.h ****  */
 352:../../../platform/thirdparty/CMSIS/include/core_cmInstr.h **** __attribute__( ( always_inline ) ) __STATIC_INLINE void __DMB(void)
 353:../../../platform/thirdparty/CMSIS/include/core_cmInstr.h **** {
 354:../../../platform/thirdparty/CMSIS/include/core_cmInstr.h ****   __ASM volatile ("dmb");
  87              	 .loc 3 354 0
  88              	 .syntax unified
  89              	
  90 001c BFF35F8F 	 dmb
  91              	
  92              	 .thumb
  93              	 .syntax unified
  94              	.LBE17:
  95              	.LBE16:
 147:../../../platform/common/utils/interrupt/interrupt_sam_nvic.h **** 	cpu_irq_disable();
  96              	 .loc 1 147 0
  97 0020 044B     	 ldr r3,.L4
  98 0022 0022     	 movs r2,#0
  99 0024 1A70     	 strb r2,[r3]
 148:../../../platform/common/utils/interrupt/interrupt_sam_nvic.h **** 	return flags;
 100              	 .loc 1 148 0
 101 0026 7B68     	 ldr r3,[r7,#4]
 149:../../../platform/common/utils/interrupt/interrupt_sam_nvic.h **** }
 102              	 .loc 1 149 0
 103 0028 1846     	 mov r0,r3
 104 002a 0C37     	 adds r7,r7,#12
 105              	.LCFI3:
 106              	 .cfi_def_cfa_offset 4
 107 002c BD46     	 mov sp,r7
 108              	.LCFI4:
 109              	 .cfi_def_cfa_register 13
 110              	 
 111 002e 80BC     	 pop {r7}
 112              	.LCFI5:
 113              	 .cfi_restore 7
 114              	 .cfi_def_cfa_offset 0
 115 0030 7047     	 bx lr
 116              	.L5:
 117 0032 00BF     	 .align 2
 118              	.L4:
 119 0034 00000000 	 .word g_interrupt_enabled
 120              	 .cfi_endproc
 121              	.LFE112:
 123              	 .align 1
 124              	 .syntax unified
 125              	 .thumb
 126              	 .thumb_func
 127              	 .fpu softvfp
 129              	cpu_irq_is_enabled_flags:
 130              	.LFB113:
 150:../../../platform/common/utils/interrupt/interrupt_sam_nvic.h **** 
 151:../../../platform/common/utils/interrupt/interrupt_sam_nvic.h **** static inline bool cpu_irq_is_enabled_flags(irqflags_t flags)
 152:../../../platform/common/utils/interrupt/interrupt_sam_nvic.h **** {
 131              	 .loc 1 152 0
 132              	 .cfi_startproc
 133              	 
 134              	 
 135              	 
 136 0038 80B4     	 push {r7}
 137              	.LCFI6:
 138              	 .cfi_def_cfa_offset 4
 139              	 .cfi_offset 7,-4
 140 003a 83B0     	 sub sp,sp,#12
 141              	.LCFI7:
 142              	 .cfi_def_cfa_offset 16
 143 003c 00AF     	 add r7,sp,#0
 144              	.LCFI8:
 145              	 .cfi_def_cfa_register 7
 146 003e 7860     	 str r0,[r7,#4]
 153:../../../platform/common/utils/interrupt/interrupt_sam_nvic.h **** 	return (flags);
 147              	 .loc 1 153 0
 148 0040 7B68     	 ldr r3,[r7,#4]
 149 0042 002B     	 cmp r3,#0
 150 0044 14BF     	 ite ne
 151 0046 0123     	 movne r3,#1
 152 0048 0023     	 moveq r3,#0
 153 004a DBB2     	 uxtb r3,r3
 154:../../../platform/common/utils/interrupt/interrupt_sam_nvic.h **** }
 154              	 .loc 1 154 0
 155 004c 1846     	 mov r0,r3
 156 004e 0C37     	 adds r7,r7,#12
 157              	.LCFI9:
 158              	 .cfi_def_cfa_offset 4
 159 0050 BD46     	 mov sp,r7
 160              	.LCFI10:
 161              	 .cfi_def_cfa_register 13
 162              	 
 163 0052 80BC     	 pop {r7}
 164              	.LCFI11:
 165              	 .cfi_restore 7
 166              	 .cfi_def_cfa_offset 0
 167 0054 7047     	 bx lr
 168              	 .cfi_endproc
 169              	.LFE113:
 171              	 .align 1
 172              	 .syntax unified
 173              	 .thumb
 174              	 .thumb_func
 175              	 .fpu softvfp
 177              	cpu_irq_restore:
 178              	.LFB114:
 155:../../../platform/common/utils/interrupt/interrupt_sam_nvic.h **** 
 156:../../../platform/common/utils/interrupt/interrupt_sam_nvic.h **** static inline void cpu_irq_restore(irqflags_t flags)
 157:../../../platform/common/utils/interrupt/interrupt_sam_nvic.h **** {
 179              	 .loc 1 157 0
 180              	 .cfi_startproc
 181              	 
 182              	 
 183 0056 80B5     	 push {r7,lr}
 184              	.LCFI12:
 185              	 .cfi_def_cfa_offset 8
 186              	 .cfi_offset 7,-8
 187              	 .cfi_offset 14,-4
 188 0058 82B0     	 sub sp,sp,#8
 189              	.LCFI13:
 190              	 .cfi_def_cfa_offset 16
 191 005a 00AF     	 add r7,sp,#0
 192              	.LCFI14:
 193              	 .cfi_def_cfa_register 7
 194 005c 7860     	 str r0,[r7,#4]
 158:../../../platform/common/utils/interrupt/interrupt_sam_nvic.h **** 	if (cpu_irq_is_enabled_flags(flags))
 195              	 .loc 1 158 0
 196 005e 7868     	 ldr r0,[r7,#4]
 197 0060 FFF7EAFF 	 bl cpu_irq_is_enabled_flags
 198 0064 0346     	 mov r3,r0
 199 0066 002B     	 cmp r3,#0
 200 0068 05D0     	 beq .L10
 159:../../../platform/common/utils/interrupt/interrupt_sam_nvic.h **** 		cpu_irq_enable();
 201              	 .loc 1 159 0
 202 006a 054B     	 ldr r3,.L11
 203 006c 0122     	 movs r2,#1
 204 006e 1A70     	 strb r2,[r3]
 205              	.LBB18:
 206              	.LBB19:
 207              	 .loc 3 354 0
 208              	 .syntax unified
 209              	
 210 0070 BFF35F8F 	 dmb
 211              	
 212              	 .thumb
 213              	 .syntax unified
 214              	.LBE19:
 215              	.LBE18:
 216              	.LBB20:
 217              	.LBB21:
 316:../../../platform/thirdparty/CMSIS/include/core_cmFunc.h **** }
 218              	 .loc 2 316 0
 219              	 .syntax unified
 220              	
 221 0074 62B6     	 cpsie i
 222              	
 223              	 .thumb
 224              	 .syntax unified
 225              	.L10:
 226              	.LBE21:
 227              	.LBE20:
 160:../../../platform/common/utils/interrupt/interrupt_sam_nvic.h **** }
 228              	 .loc 1 160 0
 229 0076 00BF     	 nop
 230 0078 0837     	 adds r7,r7,#8
 231              	.LCFI15:
 232              	 .cfi_def_cfa_offset 8
 233 007a BD46     	 mov sp,r7
 234              	.LCFI16:
 235              	 .cfi_def_cfa_register 13
 236              	 
 237 007c 80BD     	 pop {r7,pc}
 238              	.L12:
 239 007e 00BF     	 .align 2
 240              	.L11:
 241 0080 00000000 	 .word g_interrupt_enabled
 242              	 .cfi_endproc
 243              	.LFE114:
 245              	 .global udi_api_cdc_comm
 246              	 .section .data.udi_api_cdc_comm,"aw",%progbits
 247              	 .align 2
 250              	udi_api_cdc_comm:
 251 0000 00000000 	 .word udi_cdc_comm_enable
 252 0004 00000000 	 .word udi_cdc_comm_disable
 253 0008 00000000 	 .word udi_cdc_comm_setup
 254 000c 00000000 	 .word udi_cdc_getsetting
 255 0010 00000000 	 .space 4
 256              	 .global udi_api_cdc_data
 257              	 .section .data.udi_api_cdc_data,"aw",%progbits
 258              	 .align 2
 261              	udi_api_cdc_data:
 262 0000 00000000 	 .word udi_cdc_data_enable
 263 0004 00000000 	 .word udi_cdc_data_disable
 264 0008 00000000 	 .word udi_cdc_data_setup
 265 000c 00000000 	 .word udi_cdc_getsetting
 266 0010 00000000 	 .word udi_cdc_data_sof_notify
 267              	 .section .bss.udi_cdc_line_coding,"aw",%nobits
 268              	 .align 2
 271              	udi_cdc_line_coding:
 272 0000 00000000 	 .space 7
 272      000000
 273              	 .section .bss.udi_cdc_serial_state_msg_ongoing,"aw",%nobits
 274              	 .align 2
 277              	udi_cdc_serial_state_msg_ongoing:
 278 0000 00       	 .space 1
 279              	 .section .bss.udi_cdc_state,"aw",%nobits
 280              	 .align 2
 283              	udi_cdc_state:
 284 0000 0000     	 .space 2
 285              	 .section .bss.uid_cdc_state_msg,"aw",%nobits
 286              	 .align 2
 289              	uid_cdc_state_msg:
 290 0000 00000000 	 .space 10
 290      00000000 
 290      0000
 291              	 .section .bss.udi_cdc_nb_comm_enabled,"aw",%nobits
 294              	udi_cdc_nb_comm_enabled:
 295 0000 00       	 .space 1
 296              	 .section .bss.udi_cdc_nb_data_enabled,"aw",%nobits
 299              	udi_cdc_nb_data_enabled:
 300 0000 00       	 .space 1
 301              	 .section .bss.udi_cdc_data_running,"aw",%nobits
 304              	udi_cdc_data_running:
 305 0000 00       	 .space 1
 306              	 .section .bss.udi_cdc_rx_buf,"aw",%nobits
 307              	 .align 2
 310              	udi_cdc_rx_buf:
 311 0000 00000000 	 .space 640
 311      00000000 
 311      00000000 
 311      00000000 
 311      00000000 
 312              	 .section .bss.udi_cdc_rx_buf_nb,"aw",%nobits
 313              	 .align 2
 316              	udi_cdc_rx_buf_nb:
 317 0000 00000000 	 .space 4
 318              	 .section .bss.udi_cdc_rx_buf_sel,"aw",%nobits
 319              	 .align 2
 322              	udi_cdc_rx_buf_sel:
 323 0000 00       	 .space 1
 324              	 .section .bss.udi_cdc_rx_pos,"aw",%nobits
 325              	 .align 2
 328              	udi_cdc_rx_pos:
 329 0000 0000     	 .space 2
 330              	 .section .bss.udi_cdc_rx_trans_ongoing,"aw",%nobits
 331              	 .align 2
 334              	udi_cdc_rx_trans_ongoing:
 335 0000 00       	 .space 1
 336              	 .section .bss.udi_cdc_tx_buf,"aw",%nobits
 337              	 .align 2
 340              	udi_cdc_tx_buf:
 341 0000 00000000 	 .space 640
 341      00000000 
 341      00000000 
 341      00000000 
 341      00000000 
 342              	 .section .bss.udi_cdc_tx_buf_nb,"aw",%nobits
 343              	 .align 2
 346              	udi_cdc_tx_buf_nb:
 347 0000 00000000 	 .space 4
 348              	 .section .bss.udi_cdc_tx_buf_sel,"aw",%nobits
 349              	 .align 2
 352              	udi_cdc_tx_buf_sel:
 353 0000 00       	 .space 1
 354              	 .section .bss.udi_cdc_tx_sof_num,"aw",%nobits
 355              	 .align 2
 358              	udi_cdc_tx_sof_num:
 359 0000 0000     	 .space 2
 360              	 .section .bss.udi_cdc_tx_trans_ongoing,"aw",%nobits
 361              	 .align 2
 364              	udi_cdc_tx_trans_ongoing:
 365 0000 00       	 .space 1
 366              	 .section .bss.udi_cdc_tx_both_buf_to_send,"aw",%nobits
 367              	 .align 2
 370              	udi_cdc_tx_both_buf_to_send:
 371 0000 00       	 .space 1
 372              	 .text
 373              	 .align 1
 374              	 .global udi_cdc_comm_enable
 375              	 .syntax unified
 376              	 .thumb
 377              	 .thumb_func
 378              	 .fpu softvfp
 380              	udi_cdc_comm_enable:
 381              	.LFB126:
 382              	 .file 4 "../../../platform/common/services/usb/class/cdc/device/udi_cdc.c"
   1:../../../platform/common/services/usb/class/cdc/device/udi_cdc.c **** /**
   2:../../../platform/common/services/usb/class/cdc/device/udi_cdc.c ****  * \file
   3:../../../platform/common/services/usb/class/cdc/device/udi_cdc.c ****  *
   4:../../../platform/common/services/usb/class/cdc/device/udi_cdc.c ****  * \brief USB Device Communication Device Class (CDC) interface.
   5:../../../platform/common/services/usb/class/cdc/device/udi_cdc.c ****  *
   6:../../../platform/common/services/usb/class/cdc/device/udi_cdc.c ****  * Copyright (c) 2009 - 2013 Atmel Corporation. All rights reserved.
   7:../../../platform/common/services/usb/class/cdc/device/udi_cdc.c ****  *
   8:../../../platform/common/services/usb/class/cdc/device/udi_cdc.c ****  * \asf_license_start
   9:../../../platform/common/services/usb/class/cdc/device/udi_cdc.c ****  *
  10:../../../platform/common/services/usb/class/cdc/device/udi_cdc.c ****  * \page License
  11:../../../platform/common/services/usb/class/cdc/device/udi_cdc.c ****  *
  12:../../../platform/common/services/usb/class/cdc/device/udi_cdc.c ****  * Redistribution and use in source and binary forms, with or without
  13:../../../platform/common/services/usb/class/cdc/device/udi_cdc.c ****  * modification, are permitted provided that the following conditions are met:
  14:../../../platform/common/services/usb/class/cdc/device/udi_cdc.c ****  *
  15:../../../platform/common/services/usb/class/cdc/device/udi_cdc.c ****  * 1. Redistributions of source code must retain the above copyright notice,
  16:../../../platform/common/services/usb/class/cdc/device/udi_cdc.c ****  *    this list of conditions and the following disclaimer.
  17:../../../platform/common/services/usb/class/cdc/device/udi_cdc.c ****  *
  18:../../../platform/common/services/usb/class/cdc/device/udi_cdc.c ****  * 2. Redistributions in binary form must reproduce the above copyright notice,
  19:../../../platform/common/services/usb/class/cdc/device/udi_cdc.c ****  *    this list of conditions and the following disclaimer in the documentation
  20:../../../platform/common/services/usb/class/cdc/device/udi_cdc.c ****  *    and/or other materials provided with the distribution.
  21:../../../platform/common/services/usb/class/cdc/device/udi_cdc.c ****  *
  22:../../../platform/common/services/usb/class/cdc/device/udi_cdc.c ****  * 3. The name of Atmel may not be used to endorse or promote products derived
  23:../../../platform/common/services/usb/class/cdc/device/udi_cdc.c ****  *    from this software without specific prior written permission.
  24:../../../platform/common/services/usb/class/cdc/device/udi_cdc.c ****  *
  25:../../../platform/common/services/usb/class/cdc/device/udi_cdc.c ****  * 4. This software may only be redistributed and used in connection with an
  26:../../../platform/common/services/usb/class/cdc/device/udi_cdc.c ****  *    Atmel microcontroller product.
  27:../../../platform/common/services/usb/class/cdc/device/udi_cdc.c ****  *
  28:../../../platform/common/services/usb/class/cdc/device/udi_cdc.c ****  * THIS SOFTWARE IS PROVIDED BY ATMEL "AS IS" AND ANY EXPRESS OR IMPLIED
  29:../../../platform/common/services/usb/class/cdc/device/udi_cdc.c ****  * WARRANTIES, INCLUDING, BUT NOT LIMITED TO, THE IMPLIED WARRANTIES OF
  30:../../../platform/common/services/usb/class/cdc/device/udi_cdc.c ****  * MERCHANTABILITY, FITNESS FOR A PARTICULAR PURPOSE AND NON-INFRINGEMENT ARE
  31:../../../platform/common/services/usb/class/cdc/device/udi_cdc.c ****  * EXPRESSLY AND SPECIFICALLY DISCLAIMED. IN NO EVENT SHALL ATMEL BE LIABLE FOR
  32:../../../platform/common/services/usb/class/cdc/device/udi_cdc.c ****  * ANY DIRECT, INDIRECT, INCIDENTAL, SPECIAL, EXEMPLARY, OR CONSEQUENTIAL
  33:../../../platform/common/services/usb/class/cdc/device/udi_cdc.c ****  * DAMAGES (INCLUDING, BUT NOT LIMITED TO, PROCUREMENT OF SUBSTITUTE GOODS
  34:../../../platform/common/services/usb/class/cdc/device/udi_cdc.c ****  * OR SERVICES; LOSS OF USE, DATA, OR PROFITS; OR BUSINESS INTERRUPTION)
  35:../../../platform/common/services/usb/class/cdc/device/udi_cdc.c ****  * HOWEVER CAUSED AND ON ANY THEORY OF LIABILITY, WHETHER IN CONTRACT,
  36:../../../platform/common/services/usb/class/cdc/device/udi_cdc.c ****  * STRICT LIABILITY, OR TORT (INCLUDING NEGLIGENCE OR OTHERWISE) ARISING IN
  37:../../../platform/common/services/usb/class/cdc/device/udi_cdc.c ****  * ANY WAY OUT OF THE USE OF THIS SOFTWARE, EVEN IF ADVISED OF THE
  38:../../../platform/common/services/usb/class/cdc/device/udi_cdc.c ****  * POSSIBILITY OF SUCH DAMAGE.
  39:../../../platform/common/services/usb/class/cdc/device/udi_cdc.c ****  *
  40:../../../platform/common/services/usb/class/cdc/device/udi_cdc.c ****  * \asf_license_stop
  41:../../../platform/common/services/usb/class/cdc/device/udi_cdc.c ****  *
  42:../../../platform/common/services/usb/class/cdc/device/udi_cdc.c ****  */
  43:../../../platform/common/services/usb/class/cdc/device/udi_cdc.c **** 
  44:../../../platform/common/services/usb/class/cdc/device/udi_cdc.c **** #include "conf_usb.h"
  45:../../../platform/common/services/usb/class/cdc/device/udi_cdc.c **** #include "usb_protocol.h"
  46:../../../platform/common/services/usb/class/cdc/device/udi_cdc.c **** #include "usb_protocol_cdc.h"
  47:../../../platform/common/services/usb/class/cdc/device/udi_cdc.c **** #include "udd.h"
  48:../../../platform/common/services/usb/class/cdc/device/udi_cdc.c **** #include "udc.h"
  49:../../../platform/common/services/usb/class/cdc/device/udi_cdc.c **** #include "udi_cdc.h"
  50:../../../platform/common/services/usb/class/cdc/device/udi_cdc.c **** #include <string.h>
  51:../../../platform/common/services/usb/class/cdc/device/udi_cdc.c **** 
  52:../../../platform/common/services/usb/class/cdc/device/udi_cdc.c **** #ifdef UDI_CDC_LOW_RATE
  53:../../../platform/common/services/usb/class/cdc/device/udi_cdc.c **** #  ifdef USB_DEVICE_HS_SUPPORT
  54:../../../platform/common/services/usb/class/cdc/device/udi_cdc.c **** #    define UDI_CDC_TX_BUFFERS     (UDI_CDC_DATA_EPS_HS_SIZE)
  55:../../../platform/common/services/usb/class/cdc/device/udi_cdc.c **** #    define UDI_CDC_RX_BUFFERS     (UDI_CDC_DATA_EPS_HS_SIZE)
  56:../../../platform/common/services/usb/class/cdc/device/udi_cdc.c **** #  else
  57:../../../platform/common/services/usb/class/cdc/device/udi_cdc.c **** #    define UDI_CDC_TX_BUFFERS     (UDI_CDC_DATA_EPS_FS_SIZE)
  58:../../../platform/common/services/usb/class/cdc/device/udi_cdc.c **** #    define UDI_CDC_RX_BUFFERS     (UDI_CDC_DATA_EPS_FS_SIZE)
  59:../../../platform/common/services/usb/class/cdc/device/udi_cdc.c **** #  endif
  60:../../../platform/common/services/usb/class/cdc/device/udi_cdc.c **** #else
  61:../../../platform/common/services/usb/class/cdc/device/udi_cdc.c **** #  ifdef USB_DEVICE_HS_SUPPORT
  62:../../../platform/common/services/usb/class/cdc/device/udi_cdc.c **** #    define UDI_CDC_TX_BUFFERS     (UDI_CDC_DATA_EPS_HS_SIZE)
  63:../../../platform/common/services/usb/class/cdc/device/udi_cdc.c **** #    define UDI_CDC_RX_BUFFERS     (UDI_CDC_DATA_EPS_HS_SIZE)
  64:../../../platform/common/services/usb/class/cdc/device/udi_cdc.c **** #  else
  65:../../../platform/common/services/usb/class/cdc/device/udi_cdc.c **** #    define UDI_CDC_TX_BUFFERS     (5*UDI_CDC_DATA_EPS_FS_SIZE)
  66:../../../platform/common/services/usb/class/cdc/device/udi_cdc.c **** #    define UDI_CDC_RX_BUFFERS     (5*UDI_CDC_DATA_EPS_FS_SIZE)
  67:../../../platform/common/services/usb/class/cdc/device/udi_cdc.c **** #  endif
  68:../../../platform/common/services/usb/class/cdc/device/udi_cdc.c **** #endif
  69:../../../platform/common/services/usb/class/cdc/device/udi_cdc.c **** 
  70:../../../platform/common/services/usb/class/cdc/device/udi_cdc.c **** #ifndef UDI_CDC_TX_EMPTY_NOTIFY
  71:../../../platform/common/services/usb/class/cdc/device/udi_cdc.c **** #  define UDI_CDC_TX_EMPTY_NOTIFY(port)
  72:../../../platform/common/services/usb/class/cdc/device/udi_cdc.c **** #endif
  73:../../../platform/common/services/usb/class/cdc/device/udi_cdc.c **** 
  74:../../../platform/common/services/usb/class/cdc/device/udi_cdc.c **** /**
  75:../../../platform/common/services/usb/class/cdc/device/udi_cdc.c ****  * \ingroup udi_cdc_group
  76:../../../platform/common/services/usb/class/cdc/device/udi_cdc.c ****  * \defgroup udi_cdc_group_udc Interface with USB Device Core (UDC)
  77:../../../platform/common/services/usb/class/cdc/device/udi_cdc.c ****  *
  78:../../../platform/common/services/usb/class/cdc/device/udi_cdc.c ****  * Structures and functions required by UDC.
  79:../../../platform/common/services/usb/class/cdc/device/udi_cdc.c ****  *
  80:../../../platform/common/services/usb/class/cdc/device/udi_cdc.c ****  * @{
  81:../../../platform/common/services/usb/class/cdc/device/udi_cdc.c ****  */
  82:../../../platform/common/services/usb/class/cdc/device/udi_cdc.c **** bool udi_cdc_comm_enable(void);
  83:../../../platform/common/services/usb/class/cdc/device/udi_cdc.c **** void udi_cdc_comm_disable(void);
  84:../../../platform/common/services/usb/class/cdc/device/udi_cdc.c **** bool udi_cdc_comm_setup(void);
  85:../../../platform/common/services/usb/class/cdc/device/udi_cdc.c **** bool udi_cdc_data_enable(void);
  86:../../../platform/common/services/usb/class/cdc/device/udi_cdc.c **** void udi_cdc_data_disable(void);
  87:../../../platform/common/services/usb/class/cdc/device/udi_cdc.c **** bool udi_cdc_data_setup(void);
  88:../../../platform/common/services/usb/class/cdc/device/udi_cdc.c **** uint8_t udi_cdc_getsetting(void);
  89:../../../platform/common/services/usb/class/cdc/device/udi_cdc.c **** void udi_cdc_data_sof_notify(void);
  90:../../../platform/common/services/usb/class/cdc/device/udi_cdc.c **** UDC_DESC_STORAGE udi_api_t udi_api_cdc_comm = {
  91:../../../platform/common/services/usb/class/cdc/device/udi_cdc.c **** 	.enable = udi_cdc_comm_enable,
  92:../../../platform/common/services/usb/class/cdc/device/udi_cdc.c **** 	.disable = udi_cdc_comm_disable,
  93:../../../platform/common/services/usb/class/cdc/device/udi_cdc.c **** 	.setup = udi_cdc_comm_setup,
  94:../../../platform/common/services/usb/class/cdc/device/udi_cdc.c **** 	.getsetting = udi_cdc_getsetting,
  95:../../../platform/common/services/usb/class/cdc/device/udi_cdc.c **** };
  96:../../../platform/common/services/usb/class/cdc/device/udi_cdc.c **** UDC_DESC_STORAGE udi_api_t udi_api_cdc_data = {
  97:../../../platform/common/services/usb/class/cdc/device/udi_cdc.c **** 	.enable = udi_cdc_data_enable,
  98:../../../platform/common/services/usb/class/cdc/device/udi_cdc.c **** 	.disable = udi_cdc_data_disable,
  99:../../../platform/common/services/usb/class/cdc/device/udi_cdc.c **** 	.setup = udi_cdc_data_setup,
 100:../../../platform/common/services/usb/class/cdc/device/udi_cdc.c **** 	.getsetting = udi_cdc_getsetting,
 101:../../../platform/common/services/usb/class/cdc/device/udi_cdc.c **** 	.sof_notify = udi_cdc_data_sof_notify,
 102:../../../platform/common/services/usb/class/cdc/device/udi_cdc.c **** };
 103:../../../platform/common/services/usb/class/cdc/device/udi_cdc.c **** //@}
 104:../../../platform/common/services/usb/class/cdc/device/udi_cdc.c **** 
 105:../../../platform/common/services/usb/class/cdc/device/udi_cdc.c **** /**
 106:../../../platform/common/services/usb/class/cdc/device/udi_cdc.c ****  * \ingroup udi_cdc_group
 107:../../../platform/common/services/usb/class/cdc/device/udi_cdc.c ****  * \defgroup udi_cdc_group_internal Implementation of UDI CDC
 108:../../../platform/common/services/usb/class/cdc/device/udi_cdc.c ****  *
 109:../../../platform/common/services/usb/class/cdc/device/udi_cdc.c ****  * Class internal implementation
 110:../../../platform/common/services/usb/class/cdc/device/udi_cdc.c ****  * @{
 111:../../../platform/common/services/usb/class/cdc/device/udi_cdc.c ****  */
 112:../../../platform/common/services/usb/class/cdc/device/udi_cdc.c **** 
 113:../../../platform/common/services/usb/class/cdc/device/udi_cdc.c **** /**
 114:../../../platform/common/services/usb/class/cdc/device/udi_cdc.c ****  * \name Internal routines
 115:../../../platform/common/services/usb/class/cdc/device/udi_cdc.c ****  */
 116:../../../platform/common/services/usb/class/cdc/device/udi_cdc.c **** //@{
 117:../../../platform/common/services/usb/class/cdc/device/udi_cdc.c **** 
 118:../../../platform/common/services/usb/class/cdc/device/udi_cdc.c **** /**
 119:../../../platform/common/services/usb/class/cdc/device/udi_cdc.c ****  * \name Routines to control serial line
 120:../../../platform/common/services/usb/class/cdc/device/udi_cdc.c ****  */
 121:../../../platform/common/services/usb/class/cdc/device/udi_cdc.c **** //@{
 122:../../../platform/common/services/usb/class/cdc/device/udi_cdc.c **** 
 123:../../../platform/common/services/usb/class/cdc/device/udi_cdc.c **** /**
 124:../../../platform/common/services/usb/class/cdc/device/udi_cdc.c ****  * \brief Returns the port number corresponding at current setup request
 125:../../../platform/common/services/usb/class/cdc/device/udi_cdc.c ****  *
 126:../../../platform/common/services/usb/class/cdc/device/udi_cdc.c ****  * \return port number
 127:../../../platform/common/services/usb/class/cdc/device/udi_cdc.c ****  */
 128:../../../platform/common/services/usb/class/cdc/device/udi_cdc.c **** static uint8_t udi_cdc_setup_to_port(void);
 129:../../../platform/common/services/usb/class/cdc/device/udi_cdc.c **** 
 130:../../../platform/common/services/usb/class/cdc/device/udi_cdc.c **** /**
 131:../../../platform/common/services/usb/class/cdc/device/udi_cdc.c ****  * \brief Sends line coding to application
 132:../../../platform/common/services/usb/class/cdc/device/udi_cdc.c ****  *
 133:../../../platform/common/services/usb/class/cdc/device/udi_cdc.c ****  * Called after SETUP request when line coding data is received.
 134:../../../platform/common/services/usb/class/cdc/device/udi_cdc.c ****  */
 135:../../../platform/common/services/usb/class/cdc/device/udi_cdc.c **** static void udi_cdc_line_coding_received(void);
 136:../../../platform/common/services/usb/class/cdc/device/udi_cdc.c **** 
 137:../../../platform/common/services/usb/class/cdc/device/udi_cdc.c **** /**
 138:../../../platform/common/services/usb/class/cdc/device/udi_cdc.c ****  * \brief Records new state
 139:../../../platform/common/services/usb/class/cdc/device/udi_cdc.c ****  *
 140:../../../platform/common/services/usb/class/cdc/device/udi_cdc.c ****  * \param port       Communication port number to manage
 141:../../../platform/common/services/usb/class/cdc/device/udi_cdc.c ****  * \param b_set      State is enabled if true, else disabled
 142:../../../platform/common/services/usb/class/cdc/device/udi_cdc.c ****  * \param bit_mask   Field to process (see CDC_SERIAL_STATE_ defines)
 143:../../../platform/common/services/usb/class/cdc/device/udi_cdc.c ****  */
 144:../../../platform/common/services/usb/class/cdc/device/udi_cdc.c **** static void udi_cdc_ctrl_state_change(uint8_t port, bool b_set, le16_t bit_mask);
 145:../../../platform/common/services/usb/class/cdc/device/udi_cdc.c **** 
 146:../../../platform/common/services/usb/class/cdc/device/udi_cdc.c **** /**
 147:../../../platform/common/services/usb/class/cdc/device/udi_cdc.c ****  * \brief Check and eventually notify the USB host of new state
 148:../../../platform/common/services/usb/class/cdc/device/udi_cdc.c ****  *
 149:../../../platform/common/services/usb/class/cdc/device/udi_cdc.c ****  * \param port       Communication port number to manage
 150:../../../platform/common/services/usb/class/cdc/device/udi_cdc.c ****  * \param ep         Port communication endpoint
 151:../../../platform/common/services/usb/class/cdc/device/udi_cdc.c ****  */
 152:../../../platform/common/services/usb/class/cdc/device/udi_cdc.c **** static void udi_cdc_ctrl_state_notify(uint8_t port, udd_ep_id_t ep);
 153:../../../platform/common/services/usb/class/cdc/device/udi_cdc.c **** 
 154:../../../platform/common/services/usb/class/cdc/device/udi_cdc.c **** /**
 155:../../../platform/common/services/usb/class/cdc/device/udi_cdc.c ****  * \brief Ack sent of serial state message
 156:../../../platform/common/services/usb/class/cdc/device/udi_cdc.c ****  * Callback called after serial state message sent
 157:../../../platform/common/services/usb/class/cdc/device/udi_cdc.c ****  *
 158:../../../platform/common/services/usb/class/cdc/device/udi_cdc.c ****  * \param status     UDD_EP_TRANSFER_OK, if transfer finished
 159:../../../platform/common/services/usb/class/cdc/device/udi_cdc.c ****  * \param status     UDD_EP_TRANSFER_ABORT, if transfer aborted
 160:../../../platform/common/services/usb/class/cdc/device/udi_cdc.c ****  * \param n          number of data transfered
 161:../../../platform/common/services/usb/class/cdc/device/udi_cdc.c ****  */
 162:../../../platform/common/services/usb/class/cdc/device/udi_cdc.c **** static void udi_cdc_serial_state_msg_sent(udd_ep_status_t status, iram_size_t n, udd_ep_id_t ep);
 163:../../../platform/common/services/usb/class/cdc/device/udi_cdc.c **** 
 164:../../../platform/common/services/usb/class/cdc/device/udi_cdc.c **** //@}
 165:../../../platform/common/services/usb/class/cdc/device/udi_cdc.c **** 
 166:../../../platform/common/services/usb/class/cdc/device/udi_cdc.c **** /**
 167:../../../platform/common/services/usb/class/cdc/device/udi_cdc.c ****  * \name Routines to process data transfer
 168:../../../platform/common/services/usb/class/cdc/device/udi_cdc.c ****  */
 169:../../../platform/common/services/usb/class/cdc/device/udi_cdc.c **** //@{
 170:../../../platform/common/services/usb/class/cdc/device/udi_cdc.c **** 
 171:../../../platform/common/services/usb/class/cdc/device/udi_cdc.c **** /**
 172:../../../platform/common/services/usb/class/cdc/device/udi_cdc.c ****  * \brief Enable the reception of data from the USB host
 173:../../../platform/common/services/usb/class/cdc/device/udi_cdc.c ****  *
 174:../../../platform/common/services/usb/class/cdc/device/udi_cdc.c ****  * The value udi_cdc_rx_trans_sel indicate the RX buffer to fill.
 175:../../../platform/common/services/usb/class/cdc/device/udi_cdc.c ****  *
 176:../../../platform/common/services/usb/class/cdc/device/udi_cdc.c ****  * \param port       Communication port number to manage
 177:../../../platform/common/services/usb/class/cdc/device/udi_cdc.c ****  *
 178:../../../platform/common/services/usb/class/cdc/device/udi_cdc.c ****  * \return \c 1 if function was successfully done, otherwise \c 0.
 179:../../../platform/common/services/usb/class/cdc/device/udi_cdc.c ****  */
 180:../../../platform/common/services/usb/class/cdc/device/udi_cdc.c **** static bool udi_cdc_rx_start(uint8_t port);
 181:../../../platform/common/services/usb/class/cdc/device/udi_cdc.c **** 
 182:../../../platform/common/services/usb/class/cdc/device/udi_cdc.c **** /**
 183:../../../platform/common/services/usb/class/cdc/device/udi_cdc.c ****  * \brief Update rx buffer management with a new data
 184:../../../platform/common/services/usb/class/cdc/device/udi_cdc.c ****  * Callback called after data reception on USB line
 185:../../../platform/common/services/usb/class/cdc/device/udi_cdc.c ****  *
 186:../../../platform/common/services/usb/class/cdc/device/udi_cdc.c ****  * \param status     UDD_EP_TRANSFER_OK, if transfer finish
 187:../../../platform/common/services/usb/class/cdc/device/udi_cdc.c ****  * \param status     UDD_EP_TRANSFER_ABORT, if transfer aborted
 188:../../../platform/common/services/usb/class/cdc/device/udi_cdc.c ****  * \param n          number of data received
 189:../../../platform/common/services/usb/class/cdc/device/udi_cdc.c ****  */
 190:../../../platform/common/services/usb/class/cdc/device/udi_cdc.c **** static void udi_cdc_data_received(udd_ep_status_t status, iram_size_t n, udd_ep_id_t ep);
 191:../../../platform/common/services/usb/class/cdc/device/udi_cdc.c **** 
 192:../../../platform/common/services/usb/class/cdc/device/udi_cdc.c **** /**
 193:../../../platform/common/services/usb/class/cdc/device/udi_cdc.c ****  * \brief Ack sent of tx buffer
 194:../../../platform/common/services/usb/class/cdc/device/udi_cdc.c ****  * Callback called after data transfer on USB line
 195:../../../platform/common/services/usb/class/cdc/device/udi_cdc.c ****  *
 196:../../../platform/common/services/usb/class/cdc/device/udi_cdc.c ****  * \param status     UDD_EP_TRANSFER_OK, if transfer finished
 197:../../../platform/common/services/usb/class/cdc/device/udi_cdc.c ****  * \param status     UDD_EP_TRANSFER_ABORT, if transfer aborted
 198:../../../platform/common/services/usb/class/cdc/device/udi_cdc.c ****  * \param n          number of data transfered
 199:../../../platform/common/services/usb/class/cdc/device/udi_cdc.c ****  */
 200:../../../platform/common/services/usb/class/cdc/device/udi_cdc.c **** static void udi_cdc_data_sent(udd_ep_status_t status, iram_size_t n, udd_ep_id_t ep);
 201:../../../platform/common/services/usb/class/cdc/device/udi_cdc.c **** 
 202:../../../platform/common/services/usb/class/cdc/device/udi_cdc.c **** /**
 203:../../../platform/common/services/usb/class/cdc/device/udi_cdc.c ****  * \brief Send buffer on line or wait a SOF event
 204:../../../platform/common/services/usb/class/cdc/device/udi_cdc.c ****  *
 205:../../../platform/common/services/usb/class/cdc/device/udi_cdc.c ****  * \param port       Communication port number to manage
 206:../../../platform/common/services/usb/class/cdc/device/udi_cdc.c ****  */
 207:../../../platform/common/services/usb/class/cdc/device/udi_cdc.c **** static void udi_cdc_tx_send(uint8_t port);
 208:../../../platform/common/services/usb/class/cdc/device/udi_cdc.c **** 
 209:../../../platform/common/services/usb/class/cdc/device/udi_cdc.c **** //@}
 210:../../../platform/common/services/usb/class/cdc/device/udi_cdc.c **** 
 211:../../../platform/common/services/usb/class/cdc/device/udi_cdc.c **** //@}
 212:../../../platform/common/services/usb/class/cdc/device/udi_cdc.c **** 
 213:../../../platform/common/services/usb/class/cdc/device/udi_cdc.c **** /**
 214:../../../platform/common/services/usb/class/cdc/device/udi_cdc.c ****  * \name Information about configuration of communication line
 215:../../../platform/common/services/usb/class/cdc/device/udi_cdc.c ****  */
 216:../../../platform/common/services/usb/class/cdc/device/udi_cdc.c **** //@{
 217:../../../platform/common/services/usb/class/cdc/device/udi_cdc.c **** static usb_cdc_line_coding_t udi_cdc_line_coding[UDI_CDC_PORT_NB];
 218:../../../platform/common/services/usb/class/cdc/device/udi_cdc.c **** static bool udi_cdc_serial_state_msg_ongoing[UDI_CDC_PORT_NB];
 219:../../../platform/common/services/usb/class/cdc/device/udi_cdc.c **** static volatile le16_t udi_cdc_state[UDI_CDC_PORT_NB];
 220:../../../platform/common/services/usb/class/cdc/device/udi_cdc.c **** COMPILER_WORD_ALIGNED static usb_cdc_notify_serial_state_t uid_cdc_state_msg[UDI_CDC_PORT_NB];
 221:../../../platform/common/services/usb/class/cdc/device/udi_cdc.c **** 
 222:../../../platform/common/services/usb/class/cdc/device/udi_cdc.c **** //! Status of CDC COMM interfaces
 223:../../../platform/common/services/usb/class/cdc/device/udi_cdc.c **** static volatile uint8_t udi_cdc_nb_comm_enabled = 0;
 224:../../../platform/common/services/usb/class/cdc/device/udi_cdc.c **** //@}
 225:../../../platform/common/services/usb/class/cdc/device/udi_cdc.c **** 
 226:../../../platform/common/services/usb/class/cdc/device/udi_cdc.c **** /**
 227:../../../platform/common/services/usb/class/cdc/device/udi_cdc.c ****  * \name Variables to manage RX/TX transfer requests
 228:../../../platform/common/services/usb/class/cdc/device/udi_cdc.c ****  * Two buffers for each sense are used to optimize the speed.
 229:../../../platform/common/services/usb/class/cdc/device/udi_cdc.c ****  */
 230:../../../platform/common/services/usb/class/cdc/device/udi_cdc.c **** //@{
 231:../../../platform/common/services/usb/class/cdc/device/udi_cdc.c **** 
 232:../../../platform/common/services/usb/class/cdc/device/udi_cdc.c **** //! Status of CDC DATA interfaces
 233:../../../platform/common/services/usb/class/cdc/device/udi_cdc.c **** static volatile uint8_t udi_cdc_nb_data_enabled = 0;
 234:../../../platform/common/services/usb/class/cdc/device/udi_cdc.c **** static volatile bool udi_cdc_data_running = false;
 235:../../../platform/common/services/usb/class/cdc/device/udi_cdc.c **** //! Buffer to receive data
 236:../../../platform/common/services/usb/class/cdc/device/udi_cdc.c **** COMPILER_WORD_ALIGNED static uint8_t udi_cdc_rx_buf[UDI_CDC_PORT_NB][2][UDI_CDC_RX_BUFFERS];
 237:../../../platform/common/services/usb/class/cdc/device/udi_cdc.c **** //! Data available in RX buffers
 238:../../../platform/common/services/usb/class/cdc/device/udi_cdc.c **** static uint16_t udi_cdc_rx_buf_nb[UDI_CDC_PORT_NB][2];
 239:../../../platform/common/services/usb/class/cdc/device/udi_cdc.c **** //! Give the current RX buffer used (rx0 if 0, rx1 if 1)
 240:../../../platform/common/services/usb/class/cdc/device/udi_cdc.c **** static volatile uint8_t udi_cdc_rx_buf_sel[UDI_CDC_PORT_NB];
 241:../../../platform/common/services/usb/class/cdc/device/udi_cdc.c **** //! Read position in current RX buffer
 242:../../../platform/common/services/usb/class/cdc/device/udi_cdc.c **** static volatile uint16_t udi_cdc_rx_pos[UDI_CDC_PORT_NB];
 243:../../../platform/common/services/usb/class/cdc/device/udi_cdc.c **** //! Signal a transfer on-going
 244:../../../platform/common/services/usb/class/cdc/device/udi_cdc.c **** static volatile bool udi_cdc_rx_trans_ongoing[UDI_CDC_PORT_NB];
 245:../../../platform/common/services/usb/class/cdc/device/udi_cdc.c **** 
 246:../../../platform/common/services/usb/class/cdc/device/udi_cdc.c **** //! Define a transfer halted
 247:../../../platform/common/services/usb/class/cdc/device/udi_cdc.c **** #define  UDI_CDC_TRANS_HALTED    2
 248:../../../platform/common/services/usb/class/cdc/device/udi_cdc.c **** 
 249:../../../platform/common/services/usb/class/cdc/device/udi_cdc.c **** //! Buffer to send data
 250:../../../platform/common/services/usb/class/cdc/device/udi_cdc.c **** COMPILER_WORD_ALIGNED static uint8_t udi_cdc_tx_buf[UDI_CDC_PORT_NB][2][UDI_CDC_TX_BUFFERS];
 251:../../../platform/common/services/usb/class/cdc/device/udi_cdc.c **** //! Data available in TX buffers
 252:../../../platform/common/services/usb/class/cdc/device/udi_cdc.c **** static uint16_t udi_cdc_tx_buf_nb[UDI_CDC_PORT_NB][2];
 253:../../../platform/common/services/usb/class/cdc/device/udi_cdc.c **** //! Give current TX buffer used (tx0 if 0, tx1 if 1)
 254:../../../platform/common/services/usb/class/cdc/device/udi_cdc.c **** static volatile uint8_t udi_cdc_tx_buf_sel[UDI_CDC_PORT_NB];
 255:../../../platform/common/services/usb/class/cdc/device/udi_cdc.c **** //! Value of SOF during last TX transfer
 256:../../../platform/common/services/usb/class/cdc/device/udi_cdc.c **** static uint16_t udi_cdc_tx_sof_num[UDI_CDC_PORT_NB];
 257:../../../platform/common/services/usb/class/cdc/device/udi_cdc.c **** //! Signal a transfer on-going
 258:../../../platform/common/services/usb/class/cdc/device/udi_cdc.c **** static volatile bool udi_cdc_tx_trans_ongoing[UDI_CDC_PORT_NB];
 259:../../../platform/common/services/usb/class/cdc/device/udi_cdc.c **** //! Signal that both buffer content data to send
 260:../../../platform/common/services/usb/class/cdc/device/udi_cdc.c **** static volatile bool udi_cdc_tx_both_buf_to_send[UDI_CDC_PORT_NB];
 261:../../../platform/common/services/usb/class/cdc/device/udi_cdc.c **** 
 262:../../../platform/common/services/usb/class/cdc/device/udi_cdc.c **** //@}
 263:../../../platform/common/services/usb/class/cdc/device/udi_cdc.c **** 
 264:../../../platform/common/services/usb/class/cdc/device/udi_cdc.c **** bool udi_cdc_comm_enable(void)
 265:../../../platform/common/services/usb/class/cdc/device/udi_cdc.c **** {
 383              	 .loc 4 265 0
 384              	 .cfi_startproc
 385              	 
 386              	 
 387 0084 80B5     	 push {r7,lr}
 388              	.LCFI17:
 389              	 .cfi_def_cfa_offset 8
 390              	 .cfi_offset 7,-8
 391              	 .cfi_offset 14,-4
 392 0086 82B0     	 sub sp,sp,#8
 393              	.LCFI18:
 394              	 .cfi_def_cfa_offset 16
 395 0088 00AF     	 add r7,sp,#0
 396              	.LCFI19:
 397              	 .cfi_def_cfa_register 7
 266:../../../platform/common/services/usb/class/cdc/device/udi_cdc.c **** 	uint8_t port;
 267:../../../platform/common/services/usb/class/cdc/device/udi_cdc.c **** 	uint8_t iface_comm_num;
 268:../../../platform/common/services/usb/class/cdc/device/udi_cdc.c **** 
 269:../../../platform/common/services/usb/class/cdc/device/udi_cdc.c **** #if UDI_CDC_PORT_NB == 1 // To optimize code
 270:../../../platform/common/services/usb/class/cdc/device/udi_cdc.c **** 	port = 0;
 398              	 .loc 4 270 0
 399 008a 0023     	 movs r3,#0
 400 008c BB71     	 strb r3,[r7,#6]
 271:../../../platform/common/services/usb/class/cdc/device/udi_cdc.c **** 	udi_cdc_nb_comm_enabled = 0;
 401              	 .loc 4 271 0
 402 008e 484B     	 ldr r3,.L20
 403 0090 0022     	 movs r2,#0
 404 0092 1A70     	 strb r2,[r3]
 272:../../../platform/common/services/usb/class/cdc/device/udi_cdc.c **** #else
 273:../../../platform/common/services/usb/class/cdc/device/udi_cdc.c **** 	if (udi_cdc_nb_comm_enabled > UDI_CDC_PORT_NB) {
 274:../../../platform/common/services/usb/class/cdc/device/udi_cdc.c **** 		udi_cdc_nb_comm_enabled = 0;
 275:../../../platform/common/services/usb/class/cdc/device/udi_cdc.c **** 	}
 276:../../../platform/common/services/usb/class/cdc/device/udi_cdc.c **** 	port = udi_cdc_nb_comm_enabled;
 277:../../../platform/common/services/usb/class/cdc/device/udi_cdc.c **** #endif
 278:../../../platform/common/services/usb/class/cdc/device/udi_cdc.c **** 
 279:../../../platform/common/services/usb/class/cdc/device/udi_cdc.c **** 	// Initialize control signal management
 280:../../../platform/common/services/usb/class/cdc/device/udi_cdc.c **** 	udi_cdc_state[port] = CPU_TO_LE16(0);
 405              	 .loc 4 280 0
 406 0094 BB79     	 ldrb r3,[r7,#6]
 407 0096 474A     	 ldr r2,.L20+4
 408 0098 0021     	 movs r1,#0
 409 009a 22F81310 	 strh r1,[r2,r3,lsl#1]
 281:../../../platform/common/services/usb/class/cdc/device/udi_cdc.c **** 
 282:../../../platform/common/services/usb/class/cdc/device/udi_cdc.c **** 	uid_cdc_state_msg[port].header.bmRequestType =
 410              	 .loc 4 282 0
 411 009e BA79     	 ldrb r2,[r7,#6]
 412 00a0 4549     	 ldr r1,.L20+8
 413 00a2 1346     	 mov r3,r2
 414 00a4 9B00     	 lsls r3,r3,#2
 415 00a6 1344     	 add r3,r3,r2
 416 00a8 5B00     	 lsls r3,r3,#1
 417 00aa 0B44     	 add r3,r3,r1
 418 00ac A122     	 movs r2,#161
 419 00ae 1A70     	 strb r2,[r3]
 283:../../../platform/common/services/usb/class/cdc/device/udi_cdc.c **** 			USB_REQ_DIR_IN | USB_REQ_TYPE_CLASS |
 284:../../../platform/common/services/usb/class/cdc/device/udi_cdc.c **** 			USB_REQ_RECIP_INTERFACE;
 285:../../../platform/common/services/usb/class/cdc/device/udi_cdc.c **** 	uid_cdc_state_msg[port].header.bNotification = USB_REQ_CDC_NOTIFY_SERIAL_STATE;
 420              	 .loc 4 285 0
 421 00b0 BA79     	 ldrb r2,[r7,#6]
 422 00b2 4149     	 ldr r1,.L20+8
 423 00b4 1346     	 mov r3,r2
 424 00b6 9B00     	 lsls r3,r3,#2
 425 00b8 1344     	 add r3,r3,r2
 426 00ba 5B00     	 lsls r3,r3,#1
 427 00bc 0B44     	 add r3,r3,r1
 428 00be 0133     	 adds r3,r3,#1
 429 00c0 2022     	 movs r2,#32
 430 00c2 1A70     	 strb r2,[r3]
 286:../../../platform/common/services/usb/class/cdc/device/udi_cdc.c **** 	uid_cdc_state_msg[port].header.wValue = LE16(0);
 431              	 .loc 4 286 0
 432 00c4 BA79     	 ldrb r2,[r7,#6]
 433 00c6 3C49     	 ldr r1,.L20+8
 434 00c8 1346     	 mov r3,r2
 435 00ca 9B00     	 lsls r3,r3,#2
 436 00cc 1344     	 add r3,r3,r2
 437 00ce 5B00     	 lsls r3,r3,#1
 438 00d0 0B44     	 add r3,r3,r1
 439 00d2 0233     	 adds r3,r3,#2
 440 00d4 0022     	 movs r2,#0
 441 00d6 1A80     	 strh r2,[r3]
 287:../../../platform/common/services/usb/class/cdc/device/udi_cdc.c **** 
 288:../../../platform/common/services/usb/class/cdc/device/udi_cdc.c **** 	switch (port) {
 442              	 .loc 4 288 0
 443 00d8 BB79     	 ldrb r3,[r7,#6]
 444 00da 002B     	 cmp r3,#0
 445 00dc 02D1     	 bne .L19
 289:../../../platform/common/services/usb/class/cdc/device/udi_cdc.c **** #define UDI_CDC_PORT_TO_IFACE_COMM(index, unused) \
 290:../../../platform/common/services/usb/class/cdc/device/udi_cdc.c **** 	case index: \
 291:../../../platform/common/services/usb/class/cdc/device/udi_cdc.c **** 		iface_comm_num = UDI_CDC_COMM_IFACE_NUMBER_##index; \
 292:../../../platform/common/services/usb/class/cdc/device/udi_cdc.c **** 		break;
 293:../../../platform/common/services/usb/class/cdc/device/udi_cdc.c **** 	MREPEAT(UDI_CDC_PORT_NB, UDI_CDC_PORT_TO_IFACE_COMM, ~)
 446              	 .loc 4 293 0
 447 00de 0023     	 movs r3,#0
 448 00e0 FB71     	 strb r3,[r7,#7]
 449 00e2 02E0     	 b .L16
 450              	.L19:
 294:../../../platform/common/services/usb/class/cdc/device/udi_cdc.c **** #undef UDI_CDC_PORT_TO_IFACE_COMM
 295:../../../platform/common/services/usb/class/cdc/device/udi_cdc.c **** 	default:
 296:../../../platform/common/services/usb/class/cdc/device/udi_cdc.c **** 		iface_comm_num = UDI_CDC_COMM_IFACE_NUMBER_0;
 451              	 .loc 4 296 0
 452 00e4 0023     	 movs r3,#0
 453 00e6 FB71     	 strb r3,[r7,#7]
 297:../../../platform/common/services/usb/class/cdc/device/udi_cdc.c **** 		break;
 454              	 .loc 4 297 0
 455 00e8 00BF     	 nop
 456              	.L16:
 298:../../../platform/common/services/usb/class/cdc/device/udi_cdc.c **** 	}
 299:../../../platform/common/services/usb/class/cdc/device/udi_cdc.c **** 
 300:../../../platform/common/services/usb/class/cdc/device/udi_cdc.c **** 	uid_cdc_state_msg[port].header.wIndex = LE16(iface_comm_num);
 457              	 .loc 4 300 0
 458 00ea BA79     	 ldrb r2,[r7,#6]
 459 00ec FB79     	 ldrb r3,[r7,#7]
 460 00ee 98B2     	 uxth r0,r3
 461 00f0 3149     	 ldr r1,.L20+8
 462 00f2 1346     	 mov r3,r2
 463 00f4 9B00     	 lsls r3,r3,#2
 464 00f6 1344     	 add r3,r3,r2
 465 00f8 5B00     	 lsls r3,r3,#1
 466 00fa 0B44     	 add r3,r3,r1
 467 00fc 0433     	 adds r3,r3,#4
 468 00fe 0246     	 mov r2,r0
 469 0100 1A80     	 strh r2,[r3]
 301:../../../platform/common/services/usb/class/cdc/device/udi_cdc.c **** 	uid_cdc_state_msg[port].header.wLength = LE16(2);
 470              	 .loc 4 301 0
 471 0102 BA79     	 ldrb r2,[r7,#6]
 472 0104 2C49     	 ldr r1,.L20+8
 473 0106 1346     	 mov r3,r2
 474 0108 9B00     	 lsls r3,r3,#2
 475 010a 1344     	 add r3,r3,r2
 476 010c 5B00     	 lsls r3,r3,#1
 477 010e 0B44     	 add r3,r3,r1
 478 0110 0633     	 adds r3,r3,#6
 479 0112 0222     	 movs r2,#2
 480 0114 1A80     	 strh r2,[r3]
 302:../../../platform/common/services/usb/class/cdc/device/udi_cdc.c **** 	uid_cdc_state_msg[port].value = CPU_TO_LE16(0);
 481              	 .loc 4 302 0
 482 0116 BA79     	 ldrb r2,[r7,#6]
 483 0118 2749     	 ldr r1,.L20+8
 484 011a 1346     	 mov r3,r2
 485 011c 9B00     	 lsls r3,r3,#2
 486 011e 1344     	 add r3,r3,r2
 487 0120 5B00     	 lsls r3,r3,#1
 488 0122 0B44     	 add r3,r3,r1
 489 0124 0833     	 adds r3,r3,#8
 490 0126 0022     	 movs r2,#0
 491 0128 1A80     	 strh r2,[r3]
 303:../../../platform/common/services/usb/class/cdc/device/udi_cdc.c **** 
 304:../../../platform/common/services/usb/class/cdc/device/udi_cdc.c **** 	udi_cdc_line_coding[port].dwDTERate = CPU_TO_LE32(UDI_CDC_DEFAULT_RATE);
 492              	 .loc 4 304 0
 493 012a BA79     	 ldrb r2,[r7,#6]
 494 012c 2349     	 ldr r1,.L20+12
 495 012e 1346     	 mov r3,r2
 496 0130 DB00     	 lsls r3,r3,#3
 497 0132 9B1A     	 subs r3,r3,r2
 498 0134 0B44     	 add r3,r3,r1
 499 0136 0022     	 movs r2,#0
 500 0138 1A70     	 strb r2,[r3]
 501 013a 0022     	 movs r2,#0
 502 013c 62F03D02 	 orn r2,r2,#61
 503 0140 5A70     	 strb r2,[r3,#1]
 504 0142 0022     	 movs r2,#0
 505 0144 42F00102 	 orr r2,r2,#1
 506 0148 9A70     	 strb r2,[r3,#2]
 507 014a 0022     	 movs r2,#0
 508 014c DA70     	 strb r2,[r3,#3]
 305:../../../platform/common/services/usb/class/cdc/device/udi_cdc.c **** 	udi_cdc_line_coding[port].bCharFormat = UDI_CDC_DEFAULT_STOPBITS;
 509              	 .loc 4 305 0
 510 014e BA79     	 ldrb r2,[r7,#6]
 511 0150 1A49     	 ldr r1,.L20+12
 512 0152 1346     	 mov r3,r2
 513 0154 DB00     	 lsls r3,r3,#3
 514 0156 9B1A     	 subs r3,r3,r2
 515 0158 0B44     	 add r3,r3,r1
 516 015a 0433     	 adds r3,r3,#4
 517 015c 0022     	 movs r2,#0
 518 015e 1A70     	 strb r2,[r3]
 306:../../../platform/common/services/usb/class/cdc/device/udi_cdc.c **** 	udi_cdc_line_coding[port].bParityType = UDI_CDC_DEFAULT_PARITY;
 519              	 .loc 4 306 0
 520 0160 BA79     	 ldrb r2,[r7,#6]
 521 0162 1649     	 ldr r1,.L20+12
 522 0164 1346     	 mov r3,r2
 523 0166 DB00     	 lsls r3,r3,#3
 524 0168 9B1A     	 subs r3,r3,r2
 525 016a 0B44     	 add r3,r3,r1
 526 016c 0533     	 adds r3,r3,#5
 527 016e 0022     	 movs r2,#0
 528 0170 1A70     	 strb r2,[r3]
 307:../../../platform/common/services/usb/class/cdc/device/udi_cdc.c **** 	udi_cdc_line_coding[port].bDataBits = UDI_CDC_DEFAULT_DATABITS;
 529              	 .loc 4 307 0
 530 0172 BA79     	 ldrb r2,[r7,#6]
 531 0174 1149     	 ldr r1,.L20+12
 532 0176 1346     	 mov r3,r2
 533 0178 DB00     	 lsls r3,r3,#3
 534 017a 9B1A     	 subs r3,r3,r2
 535 017c 0B44     	 add r3,r3,r1
 536 017e 0633     	 adds r3,r3,#6
 537 0180 0822     	 movs r2,#8
 538 0182 1A70     	 strb r2,[r3]
 308:../../../platform/common/services/usb/class/cdc/device/udi_cdc.c **** 	// Call application callback
 309:../../../platform/common/services/usb/class/cdc/device/udi_cdc.c **** 	// to initialize memories or indicate that interface is enabled
 310:../../../platform/common/services/usb/class/cdc/device/udi_cdc.c **** 	UDI_CDC_SET_CODING_EXT(port,(&udi_cdc_line_coding[port]));
 311:../../../platform/common/services/usb/class/cdc/device/udi_cdc.c **** 	if (!UDI_CDC_ENABLE_EXT(port)) {
 539              	 .loc 4 311 0
 540 0184 0E4B     	 ldr r3,.L20+16
 541 0186 9847     	 blx r3
 542              	.LVL0:
 543 0188 0346     	 mov r3,r0
 544 018a 83F00103 	 eor r3,r3,#1
 545 018e DBB2     	 uxtb r3,r3
 546 0190 002B     	 cmp r3,#0
 547 0192 01D0     	 beq .L17
 312:../../../platform/common/services/usb/class/cdc/device/udi_cdc.c **** 		return false;
 548              	 .loc 4 312 0
 549 0194 0023     	 movs r3,#0
 550 0196 07E0     	 b .L18
 551              	.L17:
 313:../../../platform/common/services/usb/class/cdc/device/udi_cdc.c **** 	}
 314:../../../platform/common/services/usb/class/cdc/device/udi_cdc.c **** 	udi_cdc_nb_comm_enabled++;
 552              	 .loc 4 314 0
 553 0198 054B     	 ldr r3,.L20
 554 019a 1B78     	 ldrb r3,[r3]
 555 019c DBB2     	 uxtb r3,r3
 556 019e 0133     	 adds r3,r3,#1
 557 01a0 DAB2     	 uxtb r2,r3
 558 01a2 034B     	 ldr r3,.L20
 559 01a4 1A70     	 strb r2,[r3]
 315:../../../platform/common/services/usb/class/cdc/device/udi_cdc.c **** 	return true;
 560              	 .loc 4 315 0
 561 01a6 0123     	 movs r3,#1
 562              	.L18:
 316:../../../platform/common/services/usb/class/cdc/device/udi_cdc.c **** }
 563              	 .loc 4 316 0
 564 01a8 1846     	 mov r0,r3
 565 01aa 0837     	 adds r7,r7,#8
 566              	.LCFI20:
 567              	 .cfi_def_cfa_offset 8
 568 01ac BD46     	 mov sp,r7
 569              	.LCFI21:
 570              	 .cfi_def_cfa_register 13
 571              	 
 572 01ae 80BD     	 pop {r7,pc}
 573              	.L21:
 574              	 .align 2
 575              	.L20:
 576 01b0 00000000 	 .word udi_cdc_nb_comm_enabled
 577 01b4 00000000 	 .word udi_cdc_state
 578 01b8 00000000 	 .word uid_cdc_state_msg
 579 01bc 00000000 	 .word udi_cdc_line_coding
 580 01c0 00000000 	 .word stdio_usb_enable
 581              	 .cfi_endproc
 582              	.LFE126:
 584              	 .align 1
 585              	 .global udi_cdc_data_enable
 586              	 .syntax unified
 587              	 .thumb
 588              	 .thumb_func
 589              	 .fpu softvfp
 591              	udi_cdc_data_enable:
 592              	.LFB127:
 317:../../../platform/common/services/usb/class/cdc/device/udi_cdc.c **** 
 318:../../../platform/common/services/usb/class/cdc/device/udi_cdc.c **** bool udi_cdc_data_enable(void)
 319:../../../platform/common/services/usb/class/cdc/device/udi_cdc.c **** {
 593              	 .loc 4 319 0
 594              	 .cfi_startproc
 595              	 
 596              	 
 597 01c4 80B5     	 push {r7,lr}
 598              	.LCFI22:
 599              	 .cfi_def_cfa_offset 8
 600              	 .cfi_offset 7,-8
 601              	 .cfi_offset 14,-4
 602 01c6 82B0     	 sub sp,sp,#8
 603              	.LCFI23:
 604              	 .cfi_def_cfa_offset 16
 605 01c8 00AF     	 add r7,sp,#0
 606              	.LCFI24:
 607              	 .cfi_def_cfa_register 7
 320:../../../platform/common/services/usb/class/cdc/device/udi_cdc.c **** 	uint8_t port;
 321:../../../platform/common/services/usb/class/cdc/device/udi_cdc.c **** 
 322:../../../platform/common/services/usb/class/cdc/device/udi_cdc.c **** #if UDI_CDC_PORT_NB == 1 // To optimize code
 323:../../../platform/common/services/usb/class/cdc/device/udi_cdc.c **** 	port = 0;
 608              	 .loc 4 323 0
 609 01ca 0023     	 movs r3,#0
 610 01cc FB71     	 strb r3,[r7,#7]
 324:../../../platform/common/services/usb/class/cdc/device/udi_cdc.c **** 	udi_cdc_nb_data_enabled = 0;
 611              	 .loc 4 324 0
 612 01ce 2A4B     	 ldr r3,.L26
 613 01d0 0022     	 movs r2,#0
 614 01d2 1A70     	 strb r2,[r3]
 325:../../../platform/common/services/usb/class/cdc/device/udi_cdc.c **** #else
 326:../../../platform/common/services/usb/class/cdc/device/udi_cdc.c **** 	if (udi_cdc_nb_data_enabled > UDI_CDC_PORT_NB) {
 327:../../../platform/common/services/usb/class/cdc/device/udi_cdc.c **** 		udi_cdc_nb_data_enabled = 0;
 328:../../../platform/common/services/usb/class/cdc/device/udi_cdc.c **** 	}
 329:../../../platform/common/services/usb/class/cdc/device/udi_cdc.c **** 	port = udi_cdc_nb_data_enabled;
 330:../../../platform/common/services/usb/class/cdc/device/udi_cdc.c **** #endif
 331:../../../platform/common/services/usb/class/cdc/device/udi_cdc.c **** 
 332:../../../platform/common/services/usb/class/cdc/device/udi_cdc.c **** 	// Initialize TX management
 333:../../../platform/common/services/usb/class/cdc/device/udi_cdc.c **** 	udi_cdc_tx_trans_ongoing[port] = false;
 615              	 .loc 4 333 0
 616 01d4 FB79     	 ldrb r3,[r7,#7]
 617 01d6 294A     	 ldr r2,.L26+4
 618 01d8 0021     	 movs r1,#0
 619 01da D154     	 strb r1,[r2,r3]
 334:../../../platform/common/services/usb/class/cdc/device/udi_cdc.c **** 	udi_cdc_tx_both_buf_to_send[port] = false;
 620              	 .loc 4 334 0
 621 01dc FB79     	 ldrb r3,[r7,#7]
 622 01de 284A     	 ldr r2,.L26+8
 623 01e0 0021     	 movs r1,#0
 624 01e2 D154     	 strb r1,[r2,r3]
 335:../../../platform/common/services/usb/class/cdc/device/udi_cdc.c **** 	udi_cdc_tx_buf_sel[port] = 0;
 625              	 .loc 4 335 0
 626 01e4 FB79     	 ldrb r3,[r7,#7]
 627 01e6 274A     	 ldr r2,.L26+12
 628 01e8 0021     	 movs r1,#0
 629 01ea D154     	 strb r1,[r2,r3]
 336:../../../platform/common/services/usb/class/cdc/device/udi_cdc.c **** 	udi_cdc_tx_buf_nb[port][0] = 0;
 630              	 .loc 4 336 0
 631 01ec FB79     	 ldrb r3,[r7,#7]
 632 01ee 264A     	 ldr r2,.L26+16
 633 01f0 0021     	 movs r1,#0
 634 01f2 22F82310 	 strh r1,[r2,r3,lsl#2]
 337:../../../platform/common/services/usb/class/cdc/device/udi_cdc.c **** 	udi_cdc_tx_buf_nb[port][1] = 0;
 635              	 .loc 4 337 0
 636 01f6 FB79     	 ldrb r3,[r7,#7]
 637 01f8 234A     	 ldr r2,.L26+16
 638 01fa 9B00     	 lsls r3,r3,#2
 639 01fc 1344     	 add r3,r3,r2
 640 01fe 0022     	 movs r2,#0
 641 0200 5A80     	 strh r2,[r3,#2]
 338:../../../platform/common/services/usb/class/cdc/device/udi_cdc.c **** 	udi_cdc_tx_sof_num[port] = 0;
 642              	 .loc 4 338 0
 643 0202 FB79     	 ldrb r3,[r7,#7]
 644 0204 214A     	 ldr r2,.L26+20
 645 0206 0021     	 movs r1,#0
 646 0208 22F81310 	 strh r1,[r2,r3,lsl#1]
 339:../../../platform/common/services/usb/class/cdc/device/udi_cdc.c **** 	udi_cdc_tx_send(port);
 647              	 .loc 4 339 0
 648 020c FB79     	 ldrb r3,[r7,#7]
 649 020e 1846     	 mov r0,r3
 650 0210 00F0FAFA 	 bl udi_cdc_tx_send
 340:../../../platform/common/services/usb/class/cdc/device/udi_cdc.c **** 
 341:../../../platform/common/services/usb/class/cdc/device/udi_cdc.c **** 	// Initialize RX management
 342:../../../platform/common/services/usb/class/cdc/device/udi_cdc.c **** 	udi_cdc_rx_trans_ongoing[port] = false;
 651              	 .loc 4 342 0
 652 0214 FB79     	 ldrb r3,[r7,#7]
 653 0216 1E4A     	 ldr r2,.L26+24
 654 0218 0021     	 movs r1,#0
 655 021a D154     	 strb r1,[r2,r3]
 343:../../../platform/common/services/usb/class/cdc/device/udi_cdc.c **** 	udi_cdc_rx_buf_sel[port] = 0;
 656              	 .loc 4 343 0
 657 021c FB79     	 ldrb r3,[r7,#7]
 658 021e 1D4A     	 ldr r2,.L26+28
 659 0220 0021     	 movs r1,#0
 660 0222 D154     	 strb r1,[r2,r3]
 344:../../../platform/common/services/usb/class/cdc/device/udi_cdc.c **** 	udi_cdc_rx_buf_nb[port][0] = 0;
 661              	 .loc 4 344 0
 662 0224 FB79     	 ldrb r3,[r7,#7]
 663 0226 1C4A     	 ldr r2,.L26+32
 664 0228 0021     	 movs r1,#0
 665 022a 22F82310 	 strh r1,[r2,r3,lsl#2]
 345:../../../platform/common/services/usb/class/cdc/device/udi_cdc.c **** 	udi_cdc_rx_pos[port] = 0;
 666              	 .loc 4 345 0
 667 022e FB79     	 ldrb r3,[r7,#7]
 668 0230 1A4A     	 ldr r2,.L26+36
 669 0232 0021     	 movs r1,#0
 670 0234 22F81310 	 strh r1,[r2,r3,lsl#1]
 346:../../../platform/common/services/usb/class/cdc/device/udi_cdc.c **** 	if (!udi_cdc_rx_start(port)) {
 671              	 .loc 4 346 0
 672 0238 FB79     	 ldrb r3,[r7,#7]
 673 023a 1846     	 mov r0,r3
 674 023c 00F0D6F9 	 bl udi_cdc_rx_start
 675 0240 0346     	 mov r3,r0
 676 0242 83F00103 	 eor r3,r3,#1
 677 0246 DBB2     	 uxtb r3,r3
 678 0248 002B     	 cmp r3,#0
 679 024a 01D0     	 beq .L23
 347:../../../platform/common/services/usb/class/cdc/device/udi_cdc.c **** 		return false;
 680              	 .loc 4 347 0
 681 024c 0023     	 movs r3,#0
 682 024e 0FE0     	 b .L24
 683              	.L23:
 348:../../../platform/common/services/usb/class/cdc/device/udi_cdc.c **** 	}
 349:../../../platform/common/services/usb/class/cdc/device/udi_cdc.c **** 	udi_cdc_nb_data_enabled++;
 684              	 .loc 4 349 0
 685 0250 094B     	 ldr r3,.L26
 686 0252 1B78     	 ldrb r3,[r3]
 687 0254 DBB2     	 uxtb r3,r3
 688 0256 0133     	 adds r3,r3,#1
 689 0258 DAB2     	 uxtb r2,r3
 690 025a 074B     	 ldr r3,.L26
 691 025c 1A70     	 strb r2,[r3]
 350:../../../platform/common/services/usb/class/cdc/device/udi_cdc.c **** 	if (udi_cdc_nb_data_enabled == UDI_CDC_PORT_NB) {
 692              	 .loc 4 350 0
 693 025e 064B     	 ldr r3,.L26
 694 0260 1B78     	 ldrb r3,[r3]
 695 0262 DBB2     	 uxtb r3,r3
 696 0264 012B     	 cmp r3,#1
 697 0266 02D1     	 bne .L25
 351:../../../platform/common/services/usb/class/cdc/device/udi_cdc.c **** 		udi_cdc_data_running = true;
 698              	 .loc 4 351 0
 699 0268 0D4B     	 ldr r3,.L26+40
 700 026a 0122     	 movs r2,#1
 701 026c 1A70     	 strb r2,[r3]
 702              	.L25:
 352:../../../platform/common/services/usb/class/cdc/device/udi_cdc.c **** 	}
 353:../../../platform/common/services/usb/class/cdc/device/udi_cdc.c **** 	return true;
 703              	 .loc 4 353 0
 704 026e 0123     	 movs r3,#1
 705              	.L24:
 354:../../../platform/common/services/usb/class/cdc/device/udi_cdc.c **** }
 706              	 .loc 4 354 0
 707 0270 1846     	 mov r0,r3
 708 0272 0837     	 adds r7,r7,#8
 709              	.LCFI25:
 710              	 .cfi_def_cfa_offset 8
 711 0274 BD46     	 mov sp,r7
 712              	.LCFI26:
 713              	 .cfi_def_cfa_register 13
 714              	 
 715 0276 80BD     	 pop {r7,pc}
 716              	.L27:
 717              	 .align 2
 718              	.L26:
 719 0278 00000000 	 .word udi_cdc_nb_data_enabled
 720 027c 00000000 	 .word udi_cdc_tx_trans_ongoing
 721 0280 00000000 	 .word udi_cdc_tx_both_buf_to_send
 722 0284 00000000 	 .word udi_cdc_tx_buf_sel
 723 0288 00000000 	 .word udi_cdc_tx_buf_nb
 724 028c 00000000 	 .word udi_cdc_tx_sof_num
 725 0290 00000000 	 .word udi_cdc_rx_trans_ongoing
 726 0294 00000000 	 .word udi_cdc_rx_buf_sel
 727 0298 00000000 	 .word udi_cdc_rx_buf_nb
 728 029c 00000000 	 .word udi_cdc_rx_pos
 729 02a0 00000000 	 .word udi_cdc_data_running
 730              	 .cfi_endproc
 731              	.LFE127:
 733              	 .align 1
 734              	 .global udi_cdc_comm_disable
 735              	 .syntax unified
 736              	 .thumb
 737              	 .thumb_func
 738              	 .fpu softvfp
 740              	udi_cdc_comm_disable:
 741              	.LFB128:
 355:../../../platform/common/services/usb/class/cdc/device/udi_cdc.c **** 
 356:../../../platform/common/services/usb/class/cdc/device/udi_cdc.c **** void udi_cdc_comm_disable(void)
 357:../../../platform/common/services/usb/class/cdc/device/udi_cdc.c **** {
 742              	 .loc 4 357 0
 743              	 .cfi_startproc
 744              	 
 745              	 
 746              	 
 747 02a4 80B4     	 push {r7}
 748              	.LCFI27:
 749              	 .cfi_def_cfa_offset 4
 750              	 .cfi_offset 7,-4
 751 02a6 00AF     	 add r7,sp,#0
 752              	.LCFI28:
 753              	 .cfi_def_cfa_register 7
 358:../../../platform/common/services/usb/class/cdc/device/udi_cdc.c **** 	Assert(udi_cdc_nb_comm_enabled != 0);
 359:../../../platform/common/services/usb/class/cdc/device/udi_cdc.c **** 	udi_cdc_nb_comm_enabled--;
 754              	 .loc 4 359 0
 755 02a8 054B     	 ldr r3,.L29
 756 02aa 1B78     	 ldrb r3,[r3]
 757 02ac DBB2     	 uxtb r3,r3
 758 02ae 013B     	 subs r3,r3,#1
 759 02b0 DAB2     	 uxtb r2,r3
 760 02b2 034B     	 ldr r3,.L29
 761 02b4 1A70     	 strb r2,[r3]
 360:../../../platform/common/services/usb/class/cdc/device/udi_cdc.c **** }
 762              	 .loc 4 360 0
 763 02b6 00BF     	 nop
 764 02b8 BD46     	 mov sp,r7
 765              	.LCFI29:
 766              	 .cfi_def_cfa_register 13
 767              	 
 768 02ba 80BC     	 pop {r7}
 769              	.LCFI30:
 770              	 .cfi_restore 7
 771              	 .cfi_def_cfa_offset 0
 772 02bc 7047     	 bx lr
 773              	.L30:
 774 02be 00BF     	 .align 2
 775              	.L29:
 776 02c0 00000000 	 .word udi_cdc_nb_comm_enabled
 777              	 .cfi_endproc
 778              	.LFE128:
 780              	 .align 1
 781              	 .global udi_cdc_data_disable
 782              	 .syntax unified
 783              	 .thumb
 784              	 .thumb_func
 785              	 .fpu softvfp
 787              	udi_cdc_data_disable:
 788              	.LFB129:
 361:../../../platform/common/services/usb/class/cdc/device/udi_cdc.c **** 
 362:../../../platform/common/services/usb/class/cdc/device/udi_cdc.c **** void udi_cdc_data_disable(void)
 363:../../../platform/common/services/usb/class/cdc/device/udi_cdc.c **** {
 789              	 .loc 4 363 0
 790              	 .cfi_startproc
 791              	 
 792              	 
 793 02c4 80B5     	 push {r7,lr}
 794              	.LCFI31:
 795              	 .cfi_def_cfa_offset 8
 796              	 .cfi_offset 7,-8
 797              	 .cfi_offset 14,-4
 798 02c6 82B0     	 sub sp,sp,#8
 799              	.LCFI32:
 800              	 .cfi_def_cfa_offset 16
 801 02c8 00AF     	 add r7,sp,#0
 802              	.LCFI33:
 803              	 .cfi_def_cfa_register 7
 364:../../../platform/common/services/usb/class/cdc/device/udi_cdc.c **** 	uint8_t port;
 365:../../../platform/common/services/usb/class/cdc/device/udi_cdc.c **** 	UNUSED(port);
 366:../../../platform/common/services/usb/class/cdc/device/udi_cdc.c **** 
 367:../../../platform/common/services/usb/class/cdc/device/udi_cdc.c **** 	Assert(udi_cdc_nb_data_enabled != 0);
 368:../../../platform/common/services/usb/class/cdc/device/udi_cdc.c **** 	udi_cdc_nb_data_enabled--;
 804              	 .loc 4 368 0
 805 02ca 094B     	 ldr r3,.L32
 806 02cc 1B78     	 ldrb r3,[r3]
 807 02ce DBB2     	 uxtb r3,r3
 808 02d0 013B     	 subs r3,r3,#1
 809 02d2 DAB2     	 uxtb r2,r3
 810 02d4 064B     	 ldr r3,.L32
 811 02d6 1A70     	 strb r2,[r3]
 369:../../../platform/common/services/usb/class/cdc/device/udi_cdc.c **** 	port = udi_cdc_nb_data_enabled;
 812              	 .loc 4 369 0
 813 02d8 054B     	 ldr r3,.L32
 814 02da 1B78     	 ldrb r3,[r3]
 815 02dc FB71     	 strb r3,[r7,#7]
 370:../../../platform/common/services/usb/class/cdc/device/udi_cdc.c **** 	UDI_CDC_DISABLE_EXT(port);
 816              	 .loc 4 370 0
 817 02de 054B     	 ldr r3,.L32+4
 818 02e0 9847     	 blx r3
 819              	.LVL1:
 371:../../../platform/common/services/usb/class/cdc/device/udi_cdc.c **** 	udi_cdc_data_running = false;
 820              	 .loc 4 371 0
 821 02e2 054B     	 ldr r3,.L32+8
 822 02e4 0022     	 movs r2,#0
 823 02e6 1A70     	 strb r2,[r3]
 372:../../../platform/common/services/usb/class/cdc/device/udi_cdc.c **** }
 824              	 .loc 4 372 0
 825 02e8 00BF     	 nop
 826 02ea 0837     	 adds r7,r7,#8
 827              	.LCFI34:
 828              	 .cfi_def_cfa_offset 8
 829 02ec BD46     	 mov sp,r7
 830              	.LCFI35:
 831              	 .cfi_def_cfa_register 13
 832              	 
 833 02ee 80BD     	 pop {r7,pc}
 834              	.L33:
 835              	 .align 2
 836              	.L32:
 837 02f0 00000000 	 .word udi_cdc_nb_data_enabled
 838 02f4 00000000 	 .word stdio_usb_disable
 839 02f8 00000000 	 .word udi_cdc_data_running
 840              	 .cfi_endproc
 841              	.LFE129:
 843              	 .align 1
 844              	 .global udi_cdc_comm_setup
 845              	 .syntax unified
 846              	 .thumb
 847              	 .thumb_func
 848              	 .fpu softvfp
 850              	udi_cdc_comm_setup:
 851              	.LFB130:
 373:../../../platform/common/services/usb/class/cdc/device/udi_cdc.c **** 
 374:../../../platform/common/services/usb/class/cdc/device/udi_cdc.c **** bool udi_cdc_comm_setup(void)
 375:../../../platform/common/services/usb/class/cdc/device/udi_cdc.c **** {
 852              	 .loc 4 375 0
 853              	 .cfi_startproc
 854              	 
 855              	 
 856 02fc 80B5     	 push {r7,lr}
 857              	.LCFI36:
 858              	 .cfi_def_cfa_offset 8
 859              	 .cfi_offset 7,-8
 860              	 .cfi_offset 14,-4
 861 02fe 82B0     	 sub sp,sp,#8
 862              	.LCFI37:
 863              	 .cfi_def_cfa_offset 16
 864 0300 00AF     	 add r7,sp,#0
 865              	.LCFI38:
 866              	 .cfi_def_cfa_register 7
 376:../../../platform/common/services/usb/class/cdc/device/udi_cdc.c **** 	uint8_t port = udi_cdc_setup_to_port();
 867              	 .loc 4 376 0
 868 0302 00F073F8 	 bl udi_cdc_setup_to_port
 869 0306 0346     	 mov r3,r0
 870 0308 FB71     	 strb r3,[r7,#7]
 377:../../../platform/common/services/usb/class/cdc/device/udi_cdc.c **** 
 378:../../../platform/common/services/usb/class/cdc/device/udi_cdc.c **** 	if (Udd_setup_is_in()) {
 871              	 .loc 4 378 0
 872 030a 284B     	 ldr r3,.L43
 873 030c 1B78     	 ldrb r3,[r3]
 874 030e 5BB2     	 sxtb r3,r3
 875 0310 002B     	 cmp r3,#0
 876 0312 1CDA     	 bge .L35
 379:../../../platform/common/services/usb/class/cdc/device/udi_cdc.c **** 		// GET Interface Requests
 380:../../../platform/common/services/usb/class/cdc/device/udi_cdc.c **** 		if (Udd_setup_type() == USB_REQ_TYPE_CLASS) {
 877              	 .loc 4 380 0
 878 0314 254B     	 ldr r3,.L43
 879 0316 1B78     	 ldrb r3,[r3]
 880 0318 03F06003 	 and r3,r3,#96
 881 031c 202B     	 cmp r3,#32
 882 031e 16D1     	 bne .L35
 381:../../../platform/common/services/usb/class/cdc/device/udi_cdc.c **** 			// Requests Class Interface Get
 382:../../../platform/common/services/usb/class/cdc/device/udi_cdc.c **** 			switch (udd_g_ctrlreq.req.bRequest) {
 883              	 .loc 4 382 0
 884 0320 224B     	 ldr r3,.L43
 885 0322 5B78     	 ldrb r3,[r3,#1]
 886 0324 212B     	 cmp r3,#33
 887 0326 12D1     	 bne .L35
 383:../../../platform/common/services/usb/class/cdc/device/udi_cdc.c **** 			case USB_REQ_CDC_GET_LINE_CODING:
 384:../../../platform/common/services/usb/class/cdc/device/udi_cdc.c **** 				// Get configuration of CDC line
 385:../../../platform/common/services/usb/class/cdc/device/udi_cdc.c **** 				if (sizeof(usb_cdc_line_coding_t) !=
 386:../../../platform/common/services/usb/class/cdc/device/udi_cdc.c **** 						udd_g_ctrlreq.req.wLength)
 888              	 .loc 4 386 0
 889 0328 204B     	 ldr r3,.L43
 890 032a DB88     	 ldrh r3,[r3,#6]
 385:../../../platform/common/services/usb/class/cdc/device/udi_cdc.c **** 						udd_g_ctrlreq.req.wLength)
 891              	 .loc 4 385 0
 892 032c 072B     	 cmp r3,#7
 893 032e 01D0     	 beq .L37
 387:../../../platform/common/services/usb/class/cdc/device/udi_cdc.c **** 					return false; // Error for USB host
 894              	 .loc 4 387 0
 895 0330 0023     	 movs r3,#0
 896 0332 37E0     	 b .L38
 897              	.L37:
 388:../../../platform/common/services/usb/class/cdc/device/udi_cdc.c **** 				udd_g_ctrlreq.payload =
 389:../../../platform/common/services/usb/class/cdc/device/udi_cdc.c **** 						(uint8_t *) &
 390:../../../platform/common/services/usb/class/cdc/device/udi_cdc.c **** 						udi_cdc_line_coding[port];
 898              	 .loc 4 390 0
 899 0334 FA79     	 ldrb r2,[r7,#7]
 389:../../../platform/common/services/usb/class/cdc/device/udi_cdc.c **** 						udi_cdc_line_coding[port];
 900              	 .loc 4 389 0
 901 0336 1346     	 mov r3,r2
 902 0338 DB00     	 lsls r3,r3,#3
 903 033a 9B1A     	 subs r3,r3,r2
 904 033c 1C4A     	 ldr r2,.L43+4
 905 033e 1344     	 add r3,r3,r2
 388:../../../platform/common/services/usb/class/cdc/device/udi_cdc.c **** 				udd_g_ctrlreq.payload =
 906              	 .loc 4 388 0
 907 0340 1A4A     	 ldr r2,.L43
 908 0342 9360     	 str r3,[r2,#8]
 391:../../../platform/common/services/usb/class/cdc/device/udi_cdc.c **** 				udd_g_ctrlreq.payload_size =
 909              	 .loc 4 391 0
 910 0344 194B     	 ldr r3,.L43
 911 0346 0722     	 movs r2,#7
 912 0348 9A81     	 strh r2,[r3,#12]
 392:../../../platform/common/services/usb/class/cdc/device/udi_cdc.c **** 						sizeof(usb_cdc_line_coding_t);
 393:../../../platform/common/services/usb/class/cdc/device/udi_cdc.c **** 				return true;
 913              	 .loc 4 393 0
 914 034a 0123     	 movs r3,#1
 915 034c 2AE0     	 b .L38
 916              	.L35:
 394:../../../platform/common/services/usb/class/cdc/device/udi_cdc.c **** 			}
 395:../../../platform/common/services/usb/class/cdc/device/udi_cdc.c **** 		}
 396:../../../platform/common/services/usb/class/cdc/device/udi_cdc.c **** 	}
 397:../../../platform/common/services/usb/class/cdc/device/udi_cdc.c **** 	if (Udd_setup_is_out()) {
 917              	 .loc 4 397 0
 918 034e 174B     	 ldr r3,.L43
 919 0350 1B78     	 ldrb r3,[r3]
 920 0352 5BB2     	 sxtb r3,r3
 921 0354 002B     	 cmp r3,#0
 922 0356 24DB     	 blt .L39
 398:../../../platform/common/services/usb/class/cdc/device/udi_cdc.c **** 		// SET Interface Requests
 399:../../../platform/common/services/usb/class/cdc/device/udi_cdc.c **** 		if (Udd_setup_type() == USB_REQ_TYPE_CLASS) {
 923              	 .loc 4 399 0
 924 0358 144B     	 ldr r3,.L43
 925 035a 1B78     	 ldrb r3,[r3]
 926 035c 03F06003 	 and r3,r3,#96
 927 0360 202B     	 cmp r3,#32
 928 0362 1ED1     	 bne .L39
 400:../../../platform/common/services/usb/class/cdc/device/udi_cdc.c **** 			// Requests Class Interface Set
 401:../../../platform/common/services/usb/class/cdc/device/udi_cdc.c **** 			switch (udd_g_ctrlreq.req.bRequest) {
 929              	 .loc 4 401 0
 930 0364 114B     	 ldr r3,.L43
 931 0366 5B78     	 ldrb r3,[r3,#1]
 932 0368 202B     	 cmp r3,#32
 933 036a 02D0     	 beq .L40
 934 036c 222B     	 cmp r3,#34
 935 036e 16D0     	 beq .L41
 936 0370 17E0     	 b .L39
 937              	.L40:
 402:../../../platform/common/services/usb/class/cdc/device/udi_cdc.c **** 			case USB_REQ_CDC_SET_LINE_CODING:
 403:../../../platform/common/services/usb/class/cdc/device/udi_cdc.c **** 				// Change configuration of CDC line
 404:../../../platform/common/services/usb/class/cdc/device/udi_cdc.c **** 				if (sizeof(usb_cdc_line_coding_t) !=
 405:../../../platform/common/services/usb/class/cdc/device/udi_cdc.c **** 						udd_g_ctrlreq.req.wLength)
 938              	 .loc 4 405 0
 939 0372 0E4B     	 ldr r3,.L43
 940 0374 DB88     	 ldrh r3,[r3,#6]
 404:../../../platform/common/services/usb/class/cdc/device/udi_cdc.c **** 						udd_g_ctrlreq.req.wLength)
 941              	 .loc 4 404 0
 942 0376 072B     	 cmp r3,#7
 943 0378 01D0     	 beq .L42
 406:../../../platform/common/services/usb/class/cdc/device/udi_cdc.c **** 					return false; // Error for USB host
 944              	 .loc 4 406 0
 945 037a 0023     	 movs r3,#0
 946 037c 12E0     	 b .L38
 947              	.L42:
 407:../../../platform/common/services/usb/class/cdc/device/udi_cdc.c **** 				udd_g_ctrlreq.callback =
 948              	 .loc 4 407 0
 949 037e 0B4B     	 ldr r3,.L43
 950 0380 0C4A     	 ldr r2,.L43+8
 951 0382 1A61     	 str r2,[r3,#16]
 408:../../../platform/common/services/usb/class/cdc/device/udi_cdc.c **** 						udi_cdc_line_coding_received;
 409:../../../platform/common/services/usb/class/cdc/device/udi_cdc.c **** 				udd_g_ctrlreq.payload =
 410:../../../platform/common/services/usb/class/cdc/device/udi_cdc.c **** 						(uint8_t *) &
 411:../../../platform/common/services/usb/class/cdc/device/udi_cdc.c **** 						udi_cdc_line_coding[port];
 952              	 .loc 4 411 0
 953 0384 FA79     	 ldrb r2,[r7,#7]
 410:../../../platform/common/services/usb/class/cdc/device/udi_cdc.c **** 						udi_cdc_line_coding[port];
 954              	 .loc 4 410 0
 955 0386 1346     	 mov r3,r2
 956 0388 DB00     	 lsls r3,r3,#3
 957 038a 9B1A     	 subs r3,r3,r2
 958 038c 084A     	 ldr r2,.L43+4
 959 038e 1344     	 add r3,r3,r2
 409:../../../platform/common/services/usb/class/cdc/device/udi_cdc.c **** 						(uint8_t *) &
 960              	 .loc 4 409 0
 961 0390 064A     	 ldr r2,.L43
 962 0392 9360     	 str r3,[r2,#8]
 412:../../../platform/common/services/usb/class/cdc/device/udi_cdc.c **** 				udd_g_ctrlreq.payload_size =
 963              	 .loc 4 412 0
 964 0394 054B     	 ldr r3,.L43
 965 0396 0722     	 movs r2,#7
 966 0398 9A81     	 strh r2,[r3,#12]
 413:../../../platform/common/services/usb/class/cdc/device/udi_cdc.c **** 						sizeof(usb_cdc_line_coding_t);
 414:../../../platform/common/services/usb/class/cdc/device/udi_cdc.c **** 				return true;
 967              	 .loc 4 414 0
 968 039a 0123     	 movs r3,#1
 969 039c 02E0     	 b .L38
 970              	.L41:
 415:../../../platform/common/services/usb/class/cdc/device/udi_cdc.c **** 			case USB_REQ_CDC_SET_CONTROL_LINE_STATE:
 416:../../../platform/common/services/usb/class/cdc/device/udi_cdc.c **** 				// According cdc spec 1.1 chapter 6.2.14
 417:../../../platform/common/services/usb/class/cdc/device/udi_cdc.c **** 				UDI_CDC_SET_DTR_EXT(port, (0 !=
 418:../../../platform/common/services/usb/class/cdc/device/udi_cdc.c **** 						(udd_g_ctrlreq.req.wValue
 419:../../../platform/common/services/usb/class/cdc/device/udi_cdc.c **** 						 & CDC_CTRL_SIGNAL_DTE_PRESENT)));
 420:../../../platform/common/services/usb/class/cdc/device/udi_cdc.c **** 				UDI_CDC_SET_RTS_EXT(port, (0 !=
 421:../../../platform/common/services/usb/class/cdc/device/udi_cdc.c **** 						(udd_g_ctrlreq.req.wValue
 422:../../../platform/common/services/usb/class/cdc/device/udi_cdc.c **** 						 & CDC_CTRL_SIGNAL_ACTIVATE_CARRIER)));
 423:../../../platform/common/services/usb/class/cdc/device/udi_cdc.c **** 				return true;
 971              	 .loc 4 423 0
 972 039e 0123     	 movs r3,#1
 973 03a0 00E0     	 b .L38
 974              	.L39:
 424:../../../platform/common/services/usb/class/cdc/device/udi_cdc.c **** 			}
 425:../../../platform/common/services/usb/class/cdc/device/udi_cdc.c **** 		}
 426:../../../platform/common/services/usb/class/cdc/device/udi_cdc.c **** 	}
 427:../../../platform/common/services/usb/class/cdc/device/udi_cdc.c **** 	return false;  // request Not supported
 975              	 .loc 4 427 0
 976 03a2 0023     	 movs r3,#0
 977              	.L38:
 428:../../../platform/common/services/usb/class/cdc/device/udi_cdc.c **** }
 978              	 .loc 4 428 0
 979 03a4 1846     	 mov r0,r3
 980 03a6 0837     	 adds r7,r7,#8
 981              	.LCFI39:
 982              	 .cfi_def_cfa_offset 8
 983 03a8 BD46     	 mov sp,r7
 984              	.LCFI40:
 985              	 .cfi_def_cfa_register 13
 986              	 
 987 03aa 80BD     	 pop {r7,pc}
 988              	.L44:
 989              	 .align 2
 990              	.L43:
 991 03ac 00000000 	 .word udd_g_ctrlreq
 992 03b0 00000000 	 .word udi_cdc_line_coding
 993 03b4 00000000 	 .word udi_cdc_line_coding_received
 994              	 .cfi_endproc
 995              	.LFE130:
 997              	 .align 1
 998              	 .global udi_cdc_data_setup
 999              	 .syntax unified
 1000              	 .thumb
 1001              	 .thumb_func
 1002              	 .fpu softvfp
 1004              	udi_cdc_data_setup:
 1005              	.LFB131:
 429:../../../platform/common/services/usb/class/cdc/device/udi_cdc.c **** 
 430:../../../platform/common/services/usb/class/cdc/device/udi_cdc.c **** bool udi_cdc_data_setup(void)
 431:../../../platform/common/services/usb/class/cdc/device/udi_cdc.c **** {
 1006              	 .loc 4 431 0
 1007              	 .cfi_startproc
 1008              	 
 1009              	 
 1010              	 
 1011 03b8 80B4     	 push {r7}
 1012              	.LCFI41:
 1013              	 .cfi_def_cfa_offset 4
 1014              	 .cfi_offset 7,-4
 1015 03ba 00AF     	 add r7,sp,#0
 1016              	.LCFI42:
 1017              	 .cfi_def_cfa_register 7
 432:../../../platform/common/services/usb/class/cdc/device/udi_cdc.c **** 	return false;  // request Not supported
 1018              	 .loc 4 432 0
 1019 03bc 0023     	 movs r3,#0
 433:../../../platform/common/services/usb/class/cdc/device/udi_cdc.c **** }
 1020              	 .loc 4 433 0
 1021 03be 1846     	 mov r0,r3
 1022 03c0 BD46     	 mov sp,r7
 1023              	.LCFI43:
 1024              	 .cfi_def_cfa_register 13
 1025              	 
 1026 03c2 80BC     	 pop {r7}
 1027              	.LCFI44:
 1028              	 .cfi_restore 7
 1029              	 .cfi_def_cfa_offset 0
 1030 03c4 7047     	 bx lr
 1031              	 .cfi_endproc
 1032              	.LFE131:
 1034              	 .align 1
 1035              	 .global udi_cdc_getsetting
 1036              	 .syntax unified
 1037              	 .thumb
 1038              	 .thumb_func
 1039              	 .fpu softvfp
 1041              	udi_cdc_getsetting:
 1042              	.LFB132:
 434:../../../platform/common/services/usb/class/cdc/device/udi_cdc.c **** 
 435:../../../platform/common/services/usb/class/cdc/device/udi_cdc.c **** uint8_t udi_cdc_getsetting(void)
 436:../../../platform/common/services/usb/class/cdc/device/udi_cdc.c **** {
 1043              	 .loc 4 436 0
 1044              	 .cfi_startproc
 1045              	 
 1046              	 
 1047              	 
 1048 03c6 80B4     	 push {r7}
 1049              	.LCFI45:
 1050              	 .cfi_def_cfa_offset 4
 1051              	 .cfi_offset 7,-4
 1052 03c8 00AF     	 add r7,sp,#0
 1053              	.LCFI46:
 1054              	 .cfi_def_cfa_register 7
 437:../../../platform/common/services/usb/class/cdc/device/udi_cdc.c **** 	return 0;      // CDC don't have multiple alternate setting
 1055              	 .loc 4 437 0
 1056 03ca 0023     	 movs r3,#0
 438:../../../platform/common/services/usb/class/cdc/device/udi_cdc.c **** }
 1057              	 .loc 4 438 0
 1058 03cc 1846     	 mov r0,r3
 1059 03ce BD46     	 mov sp,r7
 1060              	.LCFI47:
 1061              	 .cfi_def_cfa_register 13
 1062              	 
 1063 03d0 80BC     	 pop {r7}
 1064              	.LCFI48:
 1065              	 .cfi_restore 7
 1066              	 .cfi_def_cfa_offset 0
 1067 03d2 7047     	 bx lr
 1068              	 .cfi_endproc
 1069              	.LFE132:
 1071              	 .align 1
 1072              	 .global udi_cdc_data_sof_notify
 1073              	 .syntax unified
 1074              	 .thumb
 1075              	 .thumb_func
 1076              	 .fpu softvfp
 1078              	udi_cdc_data_sof_notify:
 1079              	.LFB133:
 439:../../../platform/common/services/usb/class/cdc/device/udi_cdc.c **** 
 440:../../../platform/common/services/usb/class/cdc/device/udi_cdc.c **** void udi_cdc_data_sof_notify(void)
 441:../../../platform/common/services/usb/class/cdc/device/udi_cdc.c **** {
 1080              	 .loc 4 441 0
 1081              	 .cfi_startproc
 1082              	 
 1083              	 
 1084 03d4 80B5     	 push {r7,lr}
 1085              	.LCFI49:
 1086              	 .cfi_def_cfa_offset 8
 1087              	 .cfi_offset 7,-8
 1088              	 .cfi_offset 14,-4
 1089 03d6 00AF     	 add r7,sp,#0
 1090              	.LCFI50:
 1091              	 .cfi_def_cfa_register 7
 442:../../../platform/common/services/usb/class/cdc/device/udi_cdc.c **** 	static uint8_t port_notify = 0;
 443:../../../platform/common/services/usb/class/cdc/device/udi_cdc.c **** 
 444:../../../platform/common/services/usb/class/cdc/device/udi_cdc.c **** 	// A call of udi_cdc_data_sof_notify() is done for each port
 445:../../../platform/common/services/usb/class/cdc/device/udi_cdc.c **** 	udi_cdc_tx_send(port_notify);
 1092              	 .loc 4 445 0
 1093 03d8 034B     	 ldr r3,.L50
 1094 03da 1B78     	 ldrb r3,[r3]
 1095 03dc 1846     	 mov r0,r3
 1096 03de 00F013FA 	 bl udi_cdc_tx_send
 446:../../../platform/common/services/usb/class/cdc/device/udi_cdc.c **** #if UDI_CDC_PORT_NB != 1 // To optimize code
 447:../../../platform/common/services/usb/class/cdc/device/udi_cdc.c **** 	port_notify++;
 448:../../../platform/common/services/usb/class/cdc/device/udi_cdc.c **** 	if (port_notify >= UDI_CDC_PORT_NB) {
 449:../../../platform/common/services/usb/class/cdc/device/udi_cdc.c **** 		port_notify = 0;
 450:../../../platform/common/services/usb/class/cdc/device/udi_cdc.c **** 	}
 451:../../../platform/common/services/usb/class/cdc/device/udi_cdc.c **** #endif
 452:../../../platform/common/services/usb/class/cdc/device/udi_cdc.c **** }
 1097              	 .loc 4 452 0
 1098 03e2 00BF     	 nop
 1099 03e4 80BD     	 pop {r7,pc}
 1100              	.L51:
 1101 03e6 00BF     	 .align 2
 1102              	.L50:
 1103 03e8 00000000 	 .word port_notify.8459
 1104              	 .cfi_endproc
 1105              	.LFE133:
 1107              	 .align 1
 1108              	 .syntax unified
 1109              	 .thumb
 1110              	 .thumb_func
 1111              	 .fpu softvfp
 1113              	udi_cdc_setup_to_port:
 1114              	.LFB134:
 453:../../../platform/common/services/usb/class/cdc/device/udi_cdc.c **** 
 454:../../../platform/common/services/usb/class/cdc/device/udi_cdc.c **** 
 455:../../../platform/common/services/usb/class/cdc/device/udi_cdc.c **** //-------------------------------------------------
 456:../../../platform/common/services/usb/class/cdc/device/udi_cdc.c **** //------- Internal routines to control serial line
 457:../../../platform/common/services/usb/class/cdc/device/udi_cdc.c **** 
 458:../../../platform/common/services/usb/class/cdc/device/udi_cdc.c **** static uint8_t udi_cdc_setup_to_port(void)
 459:../../../platform/common/services/usb/class/cdc/device/udi_cdc.c **** {
 1115              	 .loc 4 459 0
 1116              	 .cfi_startproc
 1117              	 
 1118              	 
 1119              	 
 1120 03ec 80B4     	 push {r7}
 1121              	.LCFI51:
 1122              	 .cfi_def_cfa_offset 4
 1123              	 .cfi_offset 7,-4
 1124 03ee 83B0     	 sub sp,sp,#12
 1125              	.LCFI52:
 1126              	 .cfi_def_cfa_offset 16
 1127 03f0 00AF     	 add r7,sp,#0
 1128              	.LCFI53:
 1129              	 .cfi_def_cfa_register 7
 460:../../../platform/common/services/usb/class/cdc/device/udi_cdc.c **** 	uint8_t port;
 461:../../../platform/common/services/usb/class/cdc/device/udi_cdc.c **** 
 462:../../../platform/common/services/usb/class/cdc/device/udi_cdc.c **** 	switch (udd_g_ctrlreq.req.wIndex & 0xFF) {
 1130              	 .loc 4 462 0
 1131 03f2 084B     	 ldr r3,.L58
 1132 03f4 9B88     	 ldrh r3,[r3,#4]
 1133 03f6 DBB2     	 uxtb r3,r3
 1134 03f8 002B     	 cmp r3,#0
 1135 03fa 02D1     	 bne .L57
 463:../../../platform/common/services/usb/class/cdc/device/udi_cdc.c **** #define UDI_CDC_IFACE_COMM_TO_PORT(iface, unused) \
 464:../../../platform/common/services/usb/class/cdc/device/udi_cdc.c **** 	case UDI_CDC_COMM_IFACE_NUMBER_##iface: \
 465:../../../platform/common/services/usb/class/cdc/device/udi_cdc.c **** 		port = iface; \
 466:../../../platform/common/services/usb/class/cdc/device/udi_cdc.c **** 		break;
 467:../../../platform/common/services/usb/class/cdc/device/udi_cdc.c **** 	MREPEAT(UDI_CDC_PORT_NB, UDI_CDC_IFACE_COMM_TO_PORT, ~)
 1136              	 .loc 4 467 0
 1137 03fc 0023     	 movs r3,#0
 1138 03fe FB71     	 strb r3,[r7,#7]
 1139 0400 02E0     	 b .L55
 1140              	.L57:
 468:../../../platform/common/services/usb/class/cdc/device/udi_cdc.c **** #undef UDI_CDC_IFACE_COMM_TO_PORT
 469:../../../platform/common/services/usb/class/cdc/device/udi_cdc.c **** 	default:
 470:../../../platform/common/services/usb/class/cdc/device/udi_cdc.c **** 		port = 0;
 1141              	 .loc 4 470 0
 1142 0402 0023     	 movs r3,#0
 1143 0404 FB71     	 strb r3,[r7,#7]
 471:../../../platform/common/services/usb/class/cdc/device/udi_cdc.c **** 		break;
 1144              	 .loc 4 471 0
 1145 0406 00BF     	 nop
 1146              	.L55:
 472:../../../platform/common/services/usb/class/cdc/device/udi_cdc.c **** 	}
 473:../../../platform/common/services/usb/class/cdc/device/udi_cdc.c **** 	return port;
 1147              	 .loc 4 473 0
 1148 0408 FB79     	 ldrb r3,[r7,#7]
 474:../../../platform/common/services/usb/class/cdc/device/udi_cdc.c **** }
 1149              	 .loc 4 474 0
 1150 040a 1846     	 mov r0,r3
 1151 040c 0C37     	 adds r7,r7,#12
 1152              	.LCFI54:
 1153              	 .cfi_def_cfa_offset 4
 1154 040e BD46     	 mov sp,r7
 1155              	.LCFI55:
 1156              	 .cfi_def_cfa_register 13
 1157              	 
 1158 0410 80BC     	 pop {r7}
 1159              	.LCFI56:
 1160              	 .cfi_restore 7
 1161              	 .cfi_def_cfa_offset 0
 1162 0412 7047     	 bx lr
 1163              	.L59:
 1164              	 .align 2
 1165              	.L58:
 1166 0414 00000000 	 .word udd_g_ctrlreq
 1167              	 .cfi_endproc
 1168              	.LFE134:
 1170              	 .align 1
 1171              	 .syntax unified
 1172              	 .thumb
 1173              	 .thumb_func
 1174              	 .fpu softvfp
 1176              	udi_cdc_line_coding_received:
 1177              	.LFB135:
 475:../../../platform/common/services/usb/class/cdc/device/udi_cdc.c **** 
 476:../../../platform/common/services/usb/class/cdc/device/udi_cdc.c **** static void udi_cdc_line_coding_received(void)
 477:../../../platform/common/services/usb/class/cdc/device/udi_cdc.c **** {
 1178              	 .loc 4 477 0
 1179              	 .cfi_startproc
 1180              	 
 1181              	 
 1182 0418 80B5     	 push {r7,lr}
 1183              	.LCFI57:
 1184              	 .cfi_def_cfa_offset 8
 1185              	 .cfi_offset 7,-8
 1186              	 .cfi_offset 14,-4
 1187 041a 82B0     	 sub sp,sp,#8
 1188              	.LCFI58:
 1189              	 .cfi_def_cfa_offset 16
 1190 041c 00AF     	 add r7,sp,#0
 1191              	.LCFI59:
 1192              	 .cfi_def_cfa_register 7
 478:../../../platform/common/services/usb/class/cdc/device/udi_cdc.c **** 	uint8_t port = udi_cdc_setup_to_port();
 1193              	 .loc 4 478 0
 1194 041e FFF7E5FF 	 bl udi_cdc_setup_to_port
 1195 0422 0346     	 mov r3,r0
 1196 0424 FB71     	 strb r3,[r7,#7]
 479:../../../platform/common/services/usb/class/cdc/device/udi_cdc.c **** 	UNUSED(port);
 480:../../../platform/common/services/usb/class/cdc/device/udi_cdc.c **** 
 481:../../../platform/common/services/usb/class/cdc/device/udi_cdc.c **** 	UDI_CDC_SET_CODING_EXT(port, (&udi_cdc_line_coding[port]));
 482:../../../platform/common/services/usb/class/cdc/device/udi_cdc.c **** }
 1197              	 .loc 4 482 0
 1198 0426 00BF     	 nop
 1199 0428 0837     	 adds r7,r7,#8
 1200              	.LCFI60:
 1201              	 .cfi_def_cfa_offset 8
 1202 042a BD46     	 mov sp,r7
 1203              	.LCFI61:
 1204              	 .cfi_def_cfa_register 13
 1205              	 
 1206 042c 80BD     	 pop {r7,pc}
 1207              	 .cfi_endproc
 1208              	.LFE135:
 1210              	 .align 1
 1211              	 .syntax unified
 1212              	 .thumb
 1213              	 .thumb_func
 1214              	 .fpu softvfp
 1216              	udi_cdc_ctrl_state_change:
 1217              	.LFB136:
 483:../../../platform/common/services/usb/class/cdc/device/udi_cdc.c **** 
 484:../../../platform/common/services/usb/class/cdc/device/udi_cdc.c **** static void udi_cdc_ctrl_state_change(uint8_t port, bool b_set, le16_t bit_mask)
 485:../../../platform/common/services/usb/class/cdc/device/udi_cdc.c **** {
 1218              	 .loc 4 485 0
 1219              	 .cfi_startproc
 1220              	 
 1221              	 
 1222 042e 80B5     	 push {r7,lr}
 1223              	.LCFI62:
 1224              	 .cfi_def_cfa_offset 8
 1225              	 .cfi_offset 7,-8
 1226              	 .cfi_offset 14,-4
 1227 0430 84B0     	 sub sp,sp,#16
 1228              	.LCFI63:
 1229              	 .cfi_def_cfa_offset 24
 1230 0432 00AF     	 add r7,sp,#0
 1231              	.LCFI64:
 1232              	 .cfi_def_cfa_register 7
 1233 0434 0346     	 mov r3,r0
 1234 0436 FB71     	 strb r3,[r7,#7]
 1235 0438 0B46     	 mov r3,r1
 1236 043a BB71     	 strb r3,[r7,#6]
 1237 043c 1346     	 mov r3,r2
 1238 043e BB80     	 strh r3,[r7,#4]
 486:../../../platform/common/services/usb/class/cdc/device/udi_cdc.c **** 	irqflags_t flags;
 487:../../../platform/common/services/usb/class/cdc/device/udi_cdc.c **** 	udd_ep_id_t ep_comm;
 488:../../../platform/common/services/usb/class/cdc/device/udi_cdc.c **** 
 489:../../../platform/common/services/usb/class/cdc/device/udi_cdc.c **** #if UDI_CDC_PORT_NB == 1 // To optimize code
 490:../../../platform/common/services/usb/class/cdc/device/udi_cdc.c **** 	port = 0;
 1239              	 .loc 4 490 0
 1240 0440 0023     	 movs r3,#0
 1241 0442 FB71     	 strb r3,[r7,#7]
 491:../../../platform/common/services/usb/class/cdc/device/udi_cdc.c **** #endif
 492:../../../platform/common/services/usb/class/cdc/device/udi_cdc.c **** 
 493:../../../platform/common/services/usb/class/cdc/device/udi_cdc.c **** 	// Update state
 494:../../../platform/common/services/usb/class/cdc/device/udi_cdc.c **** 	flags = cpu_irq_save(); // Protect udi_cdc_state
 1242              	 .loc 4 494 0
 1243 0444 FFF7DCFD 	 bl cpu_irq_save
 1244 0448 B860     	 str r0,[r7,#8]
 495:../../../platform/common/services/usb/class/cdc/device/udi_cdc.c **** 	if (b_set) {
 1245              	 .loc 4 495 0
 1246 044a BB79     	 ldrb r3,[r7,#6]
 1247 044c 002B     	 cmp r3,#0
 1248 044e 0CD0     	 beq .L62
 496:../../../platform/common/services/usb/class/cdc/device/udi_cdc.c **** 		udi_cdc_state[port] |= bit_mask;
 1249              	 .loc 4 496 0
 1250 0450 FB79     	 ldrb r3,[r7,#7]
 1251 0452 FA79     	 ldrb r2,[r7,#7]
 1252 0454 1749     	 ldr r1,.L68
 1253 0456 31F81220 	 ldrh r2,[r1,r2,lsl#1]
 1254 045a 91B2     	 uxth r1,r2
 1255 045c BA88     	 ldrh r2,[r7,#4]
 1256 045e 0A43     	 orrs r2,r2,r1
 1257 0460 91B2     	 uxth r1,r2
 1258 0462 144A     	 ldr r2,.L68
 1259 0464 22F81310 	 strh r1,[r2,r3,lsl#1]
 1260 0468 0DE0     	 b .L63
 1261              	.L62:
 497:../../../platform/common/services/usb/class/cdc/device/udi_cdc.c **** 	} else {
 498:../../../platform/common/services/usb/class/cdc/device/udi_cdc.c **** 		udi_cdc_state[port] &= ~(unsigned)bit_mask;
 1262              	 .loc 4 498 0
 1263 046a FB79     	 ldrb r3,[r7,#7]
 1264 046c FA79     	 ldrb r2,[r7,#7]
 1265 046e 1149     	 ldr r1,.L68
 1266 0470 31F81220 	 ldrh r2,[r1,r2,lsl#1]
 1267 0474 91B2     	 uxth r1,r2
 1268 0476 BA88     	 ldrh r2,[r7,#4]
 1269 0478 D243     	 mvns r2,r2
 1270 047a 92B2     	 uxth r2,r2
 1271 047c 0A40     	 ands r2,r2,r1
 1272 047e 91B2     	 uxth r1,r2
 1273 0480 0C4A     	 ldr r2,.L68
 1274 0482 22F81310 	 strh r1,[r2,r3,lsl#1]
 1275              	.L63:
 499:../../../platform/common/services/usb/class/cdc/device/udi_cdc.c **** 	}
 500:../../../platform/common/services/usb/class/cdc/device/udi_cdc.c **** 	cpu_irq_restore(flags);
 1276              	 .loc 4 500 0
 1277 0486 B868     	 ldr r0,[r7,#8]
 1278 0488 FFF7E5FD 	 bl cpu_irq_restore
 501:../../../platform/common/services/usb/class/cdc/device/udi_cdc.c **** 
 502:../../../platform/common/services/usb/class/cdc/device/udi_cdc.c **** 	// Send it if possible and state changed
 503:../../../platform/common/services/usb/class/cdc/device/udi_cdc.c **** 	switch (port) {
 1279              	 .loc 4 503 0
 1280 048c FB79     	 ldrb r3,[r7,#7]
 1281 048e 002B     	 cmp r3,#0
 1282 0490 02D1     	 bne .L67
 504:../../../platform/common/services/usb/class/cdc/device/udi_cdc.c **** #define UDI_CDC_PORT_TO_COMM_EP(index, unused) \
 505:../../../platform/common/services/usb/class/cdc/device/udi_cdc.c **** 	case index: \
 506:../../../platform/common/services/usb/class/cdc/device/udi_cdc.c **** 		ep_comm = UDI_CDC_COMM_EP_##index; \
 507:../../../platform/common/services/usb/class/cdc/device/udi_cdc.c **** 		break;
 508:../../../platform/common/services/usb/class/cdc/device/udi_cdc.c **** 	MREPEAT(UDI_CDC_PORT_NB, UDI_CDC_PORT_TO_COMM_EP, ~)
 1283              	 .loc 4 508 0
 1284 0492 8323     	 movs r3,#131
 1285 0494 FB73     	 strb r3,[r7,#15]
 1286 0496 02E0     	 b .L66
 1287              	.L67:
 509:../../../platform/common/services/usb/class/cdc/device/udi_cdc.c **** #undef UDI_CDC_PORT_TO_COMM_EP
 510:../../../platform/common/services/usb/class/cdc/device/udi_cdc.c **** 	default:
 511:../../../platform/common/services/usb/class/cdc/device/udi_cdc.c **** 		ep_comm = UDI_CDC_COMM_EP_0;
 1288              	 .loc 4 511 0
 1289 0498 8323     	 movs r3,#131
 1290 049a FB73     	 strb r3,[r7,#15]
 512:../../../platform/common/services/usb/class/cdc/device/udi_cdc.c **** 		break;
 1291              	 .loc 4 512 0
 1292 049c 00BF     	 nop
 1293              	.L66:
 513:../../../platform/common/services/usb/class/cdc/device/udi_cdc.c **** 	}
 514:../../../platform/common/services/usb/class/cdc/device/udi_cdc.c **** 	udi_cdc_ctrl_state_notify(port, ep_comm);
 1294              	 .loc 4 514 0
 1295 049e FA7B     	 ldrb r2,[r7,#15]
 1296 04a0 FB79     	 ldrb r3,[r7,#7]
 1297 04a2 1146     	 mov r1,r2
 1298 04a4 1846     	 mov r0,r3
 1299 04a6 00F007F8 	 bl udi_cdc_ctrl_state_notify
 515:../../../platform/common/services/usb/class/cdc/device/udi_cdc.c **** }
 1300              	 .loc 4 515 0
 1301 04aa 00BF     	 nop
 1302 04ac 1037     	 adds r7,r7,#16
 1303              	.LCFI65:
 1304              	 .cfi_def_cfa_offset 8
 1305 04ae BD46     	 mov sp,r7
 1306              	.LCFI66:
 1307              	 .cfi_def_cfa_register 13
 1308              	 
 1309 04b0 80BD     	 pop {r7,pc}
 1310              	.L69:
 1311 04b2 00BF     	 .align 2
 1312              	.L68:
 1313 04b4 00000000 	 .word udi_cdc_state
 1314              	 .cfi_endproc
 1315              	.LFE136:
 1317              	 .align 1
 1318              	 .syntax unified
 1319              	 .thumb
 1320              	 .thumb_func
 1321              	 .fpu softvfp
 1323              	udi_cdc_ctrl_state_notify:
 1324              	.LFB137:
 516:../../../platform/common/services/usb/class/cdc/device/udi_cdc.c **** 
 517:../../../platform/common/services/usb/class/cdc/device/udi_cdc.c **** 
 518:../../../platform/common/services/usb/class/cdc/device/udi_cdc.c **** static void udi_cdc_ctrl_state_notify(uint8_t port, udd_ep_id_t ep)
 519:../../../platform/common/services/usb/class/cdc/device/udi_cdc.c **** {
 1325              	 .loc 4 519 0
 1326              	 .cfi_startproc
 1327              	 
 1328              	 
 1329 04b8 B0B5     	 push {r4,r5,r7,lr}
 1330              	.LCFI67:
 1331              	 .cfi_def_cfa_offset 16
 1332              	 .cfi_offset 4,-16
 1333              	 .cfi_offset 5,-12
 1334              	 .cfi_offset 7,-8
 1335              	 .cfi_offset 14,-4
 1336 04ba 84B0     	 sub sp,sp,#16
 1337              	.LCFI68:
 1338              	 .cfi_def_cfa_offset 32
 1339 04bc 02AF     	 add r7,sp,#8
 1340              	.LCFI69:
 1341              	 .cfi_def_cfa 7,24
 1342 04be 0346     	 mov r3,r0
 1343 04c0 0A46     	 mov r2,r1
 1344 04c2 FB71     	 strb r3,[r7,#7]
 1345 04c4 1346     	 mov r3,r2
 1346 04c6 BB71     	 strb r3,[r7,#6]
 520:../../../platform/common/services/usb/class/cdc/device/udi_cdc.c **** #if UDI_CDC_PORT_NB == 1 // To optimize code
 521:../../../platform/common/services/usb/class/cdc/device/udi_cdc.c **** 	port = 0;
 1347              	 .loc 4 521 0
 1348 04c8 0023     	 movs r3,#0
 1349 04ca FB71     	 strb r3,[r7,#7]
 522:../../../platform/common/services/usb/class/cdc/device/udi_cdc.c **** #endif
 523:../../../platform/common/services/usb/class/cdc/device/udi_cdc.c **** 
 524:../../../platform/common/services/usb/class/cdc/device/udi_cdc.c **** 	// Send it if possible and state changed
 525:../../../platform/common/services/usb/class/cdc/device/udi_cdc.c **** 	if ((!udi_cdc_serial_state_msg_ongoing[port])
 1350              	 .loc 4 525 0
 1351 04cc FB79     	 ldrb r3,[r7,#7]
 1352 04ce 1E4A     	 ldr r2,.L73
 1353 04d0 D35C     	 ldrb r3,[r2,r3]
 1354 04d2 83F00103 	 eor r3,r3,#1
 1355 04d6 DBB2     	 uxtb r3,r3
 1356 04d8 002B     	 cmp r3,#0
 1357 04da 31D0     	 beq .L72
 526:../../../platform/common/services/usb/class/cdc/device/udi_cdc.c **** 			&& (udi_cdc_state[port] != uid_cdc_state_msg[port].value)) {
 1358              	 .loc 4 526 0
 1359 04dc FB79     	 ldrb r3,[r7,#7]
 1360 04de 1B4A     	 ldr r2,.L73+4
 1361 04e0 32F81330 	 ldrh r3,[r2,r3,lsl#1]
 1362 04e4 99B2     	 uxth r1,r3
 1363 04e6 FA79     	 ldrb r2,[r7,#7]
 1364 04e8 1948     	 ldr r0,.L73+8
 1365 04ea 1346     	 mov r3,r2
 1366 04ec 9B00     	 lsls r3,r3,#2
 1367 04ee 1344     	 add r3,r3,r2
 1368 04f0 5B00     	 lsls r3,r3,#1
 1369 04f2 0344     	 add r3,r3,r0
 1370 04f4 0833     	 adds r3,r3,#8
 1371 04f6 1B88     	 ldrh r3,[r3]
 1372 04f8 9942     	 cmp r1,r3
 1373 04fa 21D0     	 beq .L72
 527:../../../platform/common/services/usb/class/cdc/device/udi_cdc.c **** 		// Fill notification message
 528:../../../platform/common/services/usb/class/cdc/device/udi_cdc.c **** 		uid_cdc_state_msg[port].value = udi_cdc_state[port];
 1374              	 .loc 4 528 0
 1375 04fc FA79     	 ldrb r2,[r7,#7]
 1376 04fe FB79     	 ldrb r3,[r7,#7]
 1377 0500 1249     	 ldr r1,.L73+4
 1378 0502 31F81330 	 ldrh r3,[r1,r3,lsl#1]
 1379 0506 98B2     	 uxth r0,r3
 1380 0508 1149     	 ldr r1,.L73+8
 1381 050a 1346     	 mov r3,r2
 1382 050c 9B00     	 lsls r3,r3,#2
 1383 050e 1344     	 add r3,r3,r2
 1384 0510 5B00     	 lsls r3,r3,#1
 1385 0512 0B44     	 add r3,r3,r1
 1386 0514 0833     	 adds r3,r3,#8
 1387 0516 0246     	 mov r2,r0
 1388 0518 1A80     	 strh r2,[r3]
 529:../../../platform/common/services/usb/class/cdc/device/udi_cdc.c **** 		// Send notification message
 530:../../../platform/common/services/usb/class/cdc/device/udi_cdc.c **** 		udi_cdc_serial_state_msg_ongoing[port] =
 1389              	 .loc 4 530 0
 1390 051a FC79     	 ldrb r4,[r7,#7]
 531:../../../platform/common/services/usb/class/cdc/device/udi_cdc.c **** 				udd_ep_run(ep,
 532:../../../platform/common/services/usb/class/cdc/device/udi_cdc.c **** 				false,
 533:../../../platform/common/services/usb/class/cdc/device/udi_cdc.c **** 				(uint8_t *) & uid_cdc_state_msg[port],
 1391              	 .loc 4 533 0
 1392 051c FA79     	 ldrb r2,[r7,#7]
 1393 051e 1346     	 mov r3,r2
 1394 0520 9B00     	 lsls r3,r3,#2
 1395 0522 1344     	 add r3,r3,r2
 1396 0524 5B00     	 lsls r3,r3,#1
 1397 0526 0A4A     	 ldr r2,.L73+8
 1398 0528 1A44     	 add r2,r2,r3
 531:../../../platform/common/services/usb/class/cdc/device/udi_cdc.c **** 				udd_ep_run(ep,
 1399              	 .loc 4 531 0
 1400 052a B879     	 ldrb r0,[r7,#6]
 1401 052c 094B     	 ldr r3,.L73+12
 1402 052e 0093     	 str r3,[sp]
 1403 0530 0A23     	 movs r3,#10
 1404 0532 0021     	 movs r1,#0
 1405 0534 084D     	 ldr r5,.L73+16
 1406 0536 A847     	 blx r5
 1407              	.LVL2:
 1408 0538 0346     	 mov r3,r0
 1409 053a 1A46     	 mov r2,r3
 530:../../../platform/common/services/usb/class/cdc/device/udi_cdc.c **** 				udd_ep_run(ep,
 1410              	 .loc 4 530 0
 1411 053c 024B     	 ldr r3,.L73
 1412 053e 1A55     	 strb r2,[r3,r4]
 1413              	.L72:
 534:../../../platform/common/services/usb/class/cdc/device/udi_cdc.c **** 				sizeof(uid_cdc_state_msg[0]),
 535:../../../platform/common/services/usb/class/cdc/device/udi_cdc.c **** 				udi_cdc_serial_state_msg_sent);
 536:../../../platform/common/services/usb/class/cdc/device/udi_cdc.c **** 	}
 537:../../../platform/common/services/usb/class/cdc/device/udi_cdc.c **** }
 1414              	 .loc 4 537 0
 1415 0540 00BF     	 nop
 1416 0542 0837     	 adds r7,r7,#8
 1417              	.LCFI70:
 1418              	 .cfi_def_cfa_offset 16
 1419 0544 BD46     	 mov sp,r7
 1420              	.LCFI71:
 1421              	 .cfi_def_cfa_register 13
 1422              	 
 1423 0546 B0BD     	 pop {r4,r5,r7,pc}
 1424              	.L74:
 1425              	 .align 2
 1426              	.L73:
 1427 0548 00000000 	 .word udi_cdc_serial_state_msg_ongoing
 1428 054c 00000000 	 .word udi_cdc_state
 1429 0550 00000000 	 .word uid_cdc_state_msg
 1430 0554 00000000 	 .word udi_cdc_serial_state_msg_sent
 1431 0558 00000000 	 .word udd_ep_run
 1432              	 .cfi_endproc
 1433              	.LFE137:
 1435              	 .align 1
 1436              	 .syntax unified
 1437              	 .thumb
 1438              	 .thumb_func
 1439              	 .fpu softvfp
 1441              	udi_cdc_serial_state_msg_sent:
 1442              	.LFB138:
 538:../../../platform/common/services/usb/class/cdc/device/udi_cdc.c **** 
 539:../../../platform/common/services/usb/class/cdc/device/udi_cdc.c **** 
 540:../../../platform/common/services/usb/class/cdc/device/udi_cdc.c **** static void udi_cdc_serial_state_msg_sent(udd_ep_status_t status, iram_size_t n, udd_ep_id_t ep)
 541:../../../platform/common/services/usb/class/cdc/device/udi_cdc.c **** {
 1443              	 .loc 4 541 0
 1444              	 .cfi_startproc
 1445              	 
 1446              	 
 1447 055c 80B5     	 push {r7,lr}
 1448              	.LCFI72:
 1449              	 .cfi_def_cfa_offset 8
 1450              	 .cfi_offset 7,-8
 1451              	 .cfi_offset 14,-4
 1452 055e 84B0     	 sub sp,sp,#16
 1453              	.LCFI73:
 1454              	 .cfi_def_cfa_offset 24
 1455 0560 00AF     	 add r7,sp,#0
 1456              	.LCFI74:
 1457              	 .cfi_def_cfa_register 7
 1458 0562 0346     	 mov r3,r0
 1459 0564 3960     	 str r1,[r7]
 1460 0566 FB71     	 strb r3,[r7,#7]
 1461 0568 1346     	 mov r3,r2
 1462 056a BB71     	 strb r3,[r7,#6]
 542:../../../platform/common/services/usb/class/cdc/device/udi_cdc.c **** 	uint8_t port;
 543:../../../platform/common/services/usb/class/cdc/device/udi_cdc.c **** 	UNUSED(n);
 544:../../../platform/common/services/usb/class/cdc/device/udi_cdc.c **** 	UNUSED(status);
 545:../../../platform/common/services/usb/class/cdc/device/udi_cdc.c **** 
 546:../../../platform/common/services/usb/class/cdc/device/udi_cdc.c **** 	switch (ep) {
 1463              	 .loc 4 546 0
 1464 056c BB79     	 ldrb r3,[r7,#6]
 1465 056e 832B     	 cmp r3,#131
 1466 0570 02D1     	 bne .L79
 547:../../../platform/common/services/usb/class/cdc/device/udi_cdc.c **** #define UDI_CDC_GET_PORT_FROM_COMM_EP(iface, unused) \
 548:../../../platform/common/services/usb/class/cdc/device/udi_cdc.c **** 	case UDI_CDC_COMM_EP_##iface: \
 549:../../../platform/common/services/usb/class/cdc/device/udi_cdc.c **** 		port = iface; \
 550:../../../platform/common/services/usb/class/cdc/device/udi_cdc.c **** 		break;
 551:../../../platform/common/services/usb/class/cdc/device/udi_cdc.c **** 	MREPEAT(UDI_CDC_PORT_NB, UDI_CDC_GET_PORT_FROM_COMM_EP, ~)
 1467              	 .loc 4 551 0
 1468 0572 0023     	 movs r3,#0
 1469 0574 FB73     	 strb r3,[r7,#15]
 1470 0576 02E0     	 b .L78
 1471              	.L79:
 552:../../../platform/common/services/usb/class/cdc/device/udi_cdc.c **** #undef UDI_CDC_GET_PORT_FROM_COMM_EP
 553:../../../platform/common/services/usb/class/cdc/device/udi_cdc.c **** 	default:
 554:../../../platform/common/services/usb/class/cdc/device/udi_cdc.c **** 		port = 0;
 1472              	 .loc 4 554 0
 1473 0578 0023     	 movs r3,#0
 1474 057a FB73     	 strb r3,[r7,#15]
 555:../../../platform/common/services/usb/class/cdc/device/udi_cdc.c **** 		break;
 1475              	 .loc 4 555 0
 1476 057c 00BF     	 nop
 1477              	.L78:
 556:../../../platform/common/services/usb/class/cdc/device/udi_cdc.c **** 	}
 557:../../../platform/common/services/usb/class/cdc/device/udi_cdc.c **** 
 558:../../../platform/common/services/usb/class/cdc/device/udi_cdc.c **** 	udi_cdc_serial_state_msg_ongoing[port] = false;
 1478              	 .loc 4 558 0
 1479 057e FB7B     	 ldrb r3,[r7,#15]
 1480 0580 174A     	 ldr r2,.L80
 1481 0582 0021     	 movs r1,#0
 1482 0584 D154     	 strb r1,[r2,r3]
 559:../../../platform/common/services/usb/class/cdc/device/udi_cdc.c **** 
 560:../../../platform/common/services/usb/class/cdc/device/udi_cdc.c **** 	// For the irregular signals like break, the incoming ring signal,
 561:../../../platform/common/services/usb/class/cdc/device/udi_cdc.c **** 	// or the overrun error state, this will reset their values to zero
 562:../../../platform/common/services/usb/class/cdc/device/udi_cdc.c **** 	// and again will not send another notification until their state changes.
 563:../../../platform/common/services/usb/class/cdc/device/udi_cdc.c **** 	udi_cdc_state[port] &= ~(CDC_SERIAL_STATE_BREAK |
 1483              	 .loc 4 563 0
 1484 0586 FB7B     	 ldrb r3,[r7,#15]
 1485 0588 FA7B     	 ldrb r2,[r7,#15]
 1486 058a 1649     	 ldr r1,.L80+4
 1487 058c 31F81220 	 ldrh r2,[r1,r2,lsl#1]
 1488 0590 92B2     	 uxth r2,r2
 1489 0592 22F07C02 	 bic r2,r2,#124
 1490 0596 91B2     	 uxth r1,r2
 1491 0598 124A     	 ldr r2,.L80+4
 1492 059a 22F81310 	 strh r1,[r2,r3,lsl#1]
 564:../../../platform/common/services/usb/class/cdc/device/udi_cdc.c **** 			CDC_SERIAL_STATE_RING |
 565:../../../platform/common/services/usb/class/cdc/device/udi_cdc.c **** 			CDC_SERIAL_STATE_FRAMING |
 566:../../../platform/common/services/usb/class/cdc/device/udi_cdc.c **** 			CDC_SERIAL_STATE_PARITY | CDC_SERIAL_STATE_OVERRUN);
 567:../../../platform/common/services/usb/class/cdc/device/udi_cdc.c **** 	uid_cdc_state_msg[port].value &= ~(CDC_SERIAL_STATE_BREAK |
 1493              	 .loc 4 567 0
 1494 059e FA7B     	 ldrb r2,[r7,#15]
 1495 05a0 F97B     	 ldrb r1,[r7,#15]
 1496 05a2 1148     	 ldr r0,.L80+8
 1497 05a4 0B46     	 mov r3,r1
 1498 05a6 9B00     	 lsls r3,r3,#2
 1499 05a8 0B44     	 add r3,r3,r1
 1500 05aa 5B00     	 lsls r3,r3,#1
 1501 05ac 0344     	 add r3,r3,r0
 1502 05ae 0833     	 adds r3,r3,#8
 1503 05b0 1B88     	 ldrh r3,[r3]
 1504 05b2 23F07C03 	 bic r3,r3,#124
 1505 05b6 98B2     	 uxth r0,r3
 1506 05b8 0B49     	 ldr r1,.L80+8
 1507 05ba 1346     	 mov r3,r2
 1508 05bc 9B00     	 lsls r3,r3,#2
 1509 05be 1344     	 add r3,r3,r2
 1510 05c0 5B00     	 lsls r3,r3,#1
 1511 05c2 0B44     	 add r3,r3,r1
 1512 05c4 0833     	 adds r3,r3,#8
 1513 05c6 0246     	 mov r2,r0
 1514 05c8 1A80     	 strh r2,[r3]
 568:../../../platform/common/services/usb/class/cdc/device/udi_cdc.c **** 			CDC_SERIAL_STATE_RING |
 569:../../../platform/common/services/usb/class/cdc/device/udi_cdc.c **** 			CDC_SERIAL_STATE_FRAMING |
 570:../../../platform/common/services/usb/class/cdc/device/udi_cdc.c **** 			CDC_SERIAL_STATE_PARITY | CDC_SERIAL_STATE_OVERRUN);
 571:../../../platform/common/services/usb/class/cdc/device/udi_cdc.c **** 	// Send it if possible and state changed
 572:../../../platform/common/services/usb/class/cdc/device/udi_cdc.c **** 	udi_cdc_ctrl_state_notify(port, ep);
 1515              	 .loc 4 572 0
 1516 05ca BA79     	 ldrb r2,[r7,#6]
 1517 05cc FB7B     	 ldrb r3,[r7,#15]
 1518 05ce 1146     	 mov r1,r2
 1519 05d0 1846     	 mov r0,r3
 1520 05d2 FFF771FF 	 bl udi_cdc_ctrl_state_notify
 573:../../../platform/common/services/usb/class/cdc/device/udi_cdc.c **** }
 1521              	 .loc 4 573 0
 1522 05d6 00BF     	 nop
 1523 05d8 1037     	 adds r7,r7,#16
 1524              	.LCFI75:
 1525              	 .cfi_def_cfa_offset 8
 1526 05da BD46     	 mov sp,r7
 1527              	.LCFI76:
 1528              	 .cfi_def_cfa_register 13
 1529              	 
 1530 05dc 80BD     	 pop {r7,pc}
 1531              	.L81:
 1532 05de 00BF     	 .align 2
 1533              	.L80:
 1534 05e0 00000000 	 .word udi_cdc_serial_state_msg_ongoing
 1535 05e4 00000000 	 .word udi_cdc_state
 1536 05e8 00000000 	 .word uid_cdc_state_msg
 1537              	 .cfi_endproc
 1538              	.LFE138:
 1540              	 .align 1
 1541              	 .syntax unified
 1542              	 .thumb
 1543              	 .thumb_func
 1544              	 .fpu softvfp
 1546              	udi_cdc_rx_start:
 1547              	.LFB139:
 574:../../../platform/common/services/usb/class/cdc/device/udi_cdc.c **** 
 575:../../../platform/common/services/usb/class/cdc/device/udi_cdc.c **** 
 576:../../../platform/common/services/usb/class/cdc/device/udi_cdc.c **** //-------------------------------------------------
 577:../../../platform/common/services/usb/class/cdc/device/udi_cdc.c **** //------- Internal routines to process data transfer
 578:../../../platform/common/services/usb/class/cdc/device/udi_cdc.c **** 
 579:../../../platform/common/services/usb/class/cdc/device/udi_cdc.c **** 
 580:../../../platform/common/services/usb/class/cdc/device/udi_cdc.c **** static bool udi_cdc_rx_start(uint8_t port)
 581:../../../platform/common/services/usb/class/cdc/device/udi_cdc.c **** {
 1548              	 .loc 4 581 0
 1549              	 .cfi_startproc
 1550              	 
 1551              	 
 1552 05ec 90B5     	 push {r4,r7,lr}
 1553              	.LCFI77:
 1554              	 .cfi_def_cfa_offset 12
 1555              	 .cfi_offset 4,-12
 1556              	 .cfi_offset 7,-8
 1557              	 .cfi_offset 14,-4
 1558 05ee 89B0     	 sub sp,sp,#36
 1559              	.LCFI78:
 1560              	 .cfi_def_cfa_offset 48
 1561 05f0 02AF     	 add r7,sp,#8
 1562              	.LCFI79:
 1563              	 .cfi_def_cfa 7,40
 1564 05f2 0346     	 mov r3,r0
 1565 05f4 FB71     	 strb r3,[r7,#7]
 582:../../../platform/common/services/usb/class/cdc/device/udi_cdc.c **** 	irqflags_t flags;
 583:../../../platform/common/services/usb/class/cdc/device/udi_cdc.c **** 	uint8_t buf_sel_trans;
 584:../../../platform/common/services/usb/class/cdc/device/udi_cdc.c **** 	udd_ep_id_t ep;
 585:../../../platform/common/services/usb/class/cdc/device/udi_cdc.c **** 
 586:../../../platform/common/services/usb/class/cdc/device/udi_cdc.c **** #if UDI_CDC_PORT_NB == 1 // To optimize code
 587:../../../platform/common/services/usb/class/cdc/device/udi_cdc.c **** 	port = 0;
 1566              	 .loc 4 587 0
 1567 05f6 0023     	 movs r3,#0
 1568 05f8 FB71     	 strb r3,[r7,#7]
 588:../../../platform/common/services/usb/class/cdc/device/udi_cdc.c **** #endif
 589:../../../platform/common/services/usb/class/cdc/device/udi_cdc.c **** 
 590:../../../platform/common/services/usb/class/cdc/device/udi_cdc.c **** 	flags = cpu_irq_save();
 1569              	 .loc 4 590 0
 1570 05fa FFF701FD 	 bl cpu_irq_save
 1571 05fe 3861     	 str r0,[r7,#16]
 591:../../../platform/common/services/usb/class/cdc/device/udi_cdc.c **** 	buf_sel_trans = udi_cdc_rx_buf_sel[port];
 1572              	 .loc 4 591 0
 1573 0600 FB79     	 ldrb r3,[r7,#7]
 1574 0602 2D4A     	 ldr r2,.L90
 1575 0604 D35C     	 ldrb r3,[r2,r3]
 1576 0606 FB73     	 strb r3,[r7,#15]
 592:../../../platform/common/services/usb/class/cdc/device/udi_cdc.c **** 	if (udi_cdc_rx_trans_ongoing[port] ||
 1577              	 .loc 4 592 0
 1578 0608 FB79     	 ldrb r3,[r7,#7]
 1579 060a 2C4A     	 ldr r2,.L90+4
 1580 060c D35C     	 ldrb r3,[r2,r3]
 1581 060e DBB2     	 uxtb r3,r3
 1582 0610 002B     	 cmp r3,#0
 1583 0612 0DD1     	 bne .L83
 593:../../../platform/common/services/usb/class/cdc/device/udi_cdc.c **** 		(udi_cdc_rx_pos[port] < udi_cdc_rx_buf_nb[port][buf_sel_trans])) {
 1584              	 .loc 4 593 0 discriminator 1
 1585 0614 FB79     	 ldrb r3,[r7,#7]
 1586 0616 2A4A     	 ldr r2,.L90+8
 1587 0618 32F81330 	 ldrh r3,[r2,r3,lsl#1]
 1588 061c 9AB2     	 uxth r2,r3
 1589 061e F979     	 ldrb r1,[r7,#7]
 1590 0620 FB7B     	 ldrb r3,[r7,#15]
 1591 0622 2848     	 ldr r0,.L90+12
 1592 0624 4900     	 lsls r1,r1,#1
 1593 0626 0B44     	 add r3,r3,r1
 1594 0628 30F81330 	 ldrh r3,[r0,r3,lsl#1]
 592:../../../platform/common/services/usb/class/cdc/device/udi_cdc.c **** 	if (udi_cdc_rx_trans_ongoing[port] ||
 1595              	 .loc 4 592 0 discriminator 1
 1596 062c 9A42     	 cmp r2,r3
 1597 062e 04D2     	 bcs .L84
 1598              	.L83:
 594:../../../platform/common/services/usb/class/cdc/device/udi_cdc.c **** 		// Transfer already on-going or current buffer no empty
 595:../../../platform/common/services/usb/class/cdc/device/udi_cdc.c **** 		cpu_irq_restore(flags);
 1599              	 .loc 4 595 0
 1600 0630 3869     	 ldr r0,[r7,#16]
 1601 0632 FFF710FD 	 bl cpu_irq_restore
 596:../../../platform/common/services/usb/class/cdc/device/udi_cdc.c **** 		return false;
 1602              	 .loc 4 596 0
 1603 0636 0023     	 movs r3,#0
 1604 0638 39E0     	 b .L85
 1605              	.L84:
 597:../../../platform/common/services/usb/class/cdc/device/udi_cdc.c **** 	}
 598:../../../platform/common/services/usb/class/cdc/device/udi_cdc.c **** 
 599:../../../platform/common/services/usb/class/cdc/device/udi_cdc.c **** 	// Change current buffer
 600:../../../platform/common/services/usb/class/cdc/device/udi_cdc.c **** 	udi_cdc_rx_pos[port] = 0;
 1606              	 .loc 4 600 0
 1607 063a FB79     	 ldrb r3,[r7,#7]
 1608 063c 204A     	 ldr r2,.L90+8
 1609 063e 0021     	 movs r1,#0
 1610 0640 22F81310 	 strh r1,[r2,r3,lsl#1]
 601:../../../platform/common/services/usb/class/cdc/device/udi_cdc.c **** 	udi_cdc_rx_buf_sel[port] = (buf_sel_trans==0)?1:0;
 1611              	 .loc 4 601 0
 1612 0644 FB79     	 ldrb r3,[r7,#7]
 1613 0646 FA7B     	 ldrb r2,[r7,#15]
 1614 0648 002A     	 cmp r2,#0
 1615 064a 0CBF     	 ite eq
 1616 064c 0122     	 moveq r2,#1
 1617 064e 0022     	 movne r2,#0
 1618 0650 D2B2     	 uxtb r2,r2
 1619 0652 1146     	 mov r1,r2
 1620 0654 184A     	 ldr r2,.L90
 1621 0656 D154     	 strb r1,[r2,r3]
 602:../../../platform/common/services/usb/class/cdc/device/udi_cdc.c **** 
 603:../../../platform/common/services/usb/class/cdc/device/udi_cdc.c **** 	// Start transfer on RX
 604:../../../platform/common/services/usb/class/cdc/device/udi_cdc.c **** 	udi_cdc_rx_trans_ongoing[port] = true;
 1622              	 .loc 4 604 0
 1623 0658 FB79     	 ldrb r3,[r7,#7]
 1624 065a 184A     	 ldr r2,.L90+4
 1625 065c 0121     	 movs r1,#1
 1626 065e D154     	 strb r1,[r2,r3]
 605:../../../platform/common/services/usb/class/cdc/device/udi_cdc.c **** 	cpu_irq_restore(flags);
 1627              	 .loc 4 605 0
 1628 0660 3869     	 ldr r0,[r7,#16]
 1629 0662 FFF7F8FC 	 bl cpu_irq_restore
 606:../../../platform/common/services/usb/class/cdc/device/udi_cdc.c **** 
 607:../../../platform/common/services/usb/class/cdc/device/udi_cdc.c **** 	if (udi_cdc_multi_is_rx_ready(port)) {
 1630              	 .loc 4 607 0
 1631 0666 FB79     	 ldrb r3,[r7,#7]
 1632 0668 1846     	 mov r0,r3
 1633 066a FFF7FEFF 	 bl udi_cdc_multi_is_rx_ready
 608:../../../platform/common/services/usb/class/cdc/device/udi_cdc.c **** 		UDI_CDC_RX_NOTIFY(port);
 609:../../../platform/common/services/usb/class/cdc/device/udi_cdc.c **** 	}
 610:../../../platform/common/services/usb/class/cdc/device/udi_cdc.c **** 	// Send the buffer with enable of short packet
 611:../../../platform/common/services/usb/class/cdc/device/udi_cdc.c **** 	switch (port) {
 1634              	 .loc 4 611 0
 1635 066e FB79     	 ldrb r3,[r7,#7]
 1636 0670 002B     	 cmp r3,#0
 1637 0672 02D1     	 bne .L89
 612:../../../platform/common/services/usb/class/cdc/device/udi_cdc.c **** #define UDI_CDC_PORT_TO_DATA_EP_OUT(index, unused) \
 613:../../../platform/common/services/usb/class/cdc/device/udi_cdc.c **** 	case index: \
 614:../../../platform/common/services/usb/class/cdc/device/udi_cdc.c **** 		ep = UDI_CDC_DATA_EP_OUT_##index; \
 615:../../../platform/common/services/usb/class/cdc/device/udi_cdc.c **** 		break;
 616:../../../platform/common/services/usb/class/cdc/device/udi_cdc.c **** 	MREPEAT(UDI_CDC_PORT_NB, UDI_CDC_PORT_TO_DATA_EP_OUT, ~)
 1638              	 .loc 4 616 0
 1639 0674 0223     	 movs r3,#2
 1640 0676 FB75     	 strb r3,[r7,#23]
 1641 0678 02E0     	 b .L88
 1642              	.L89:
 617:../../../platform/common/services/usb/class/cdc/device/udi_cdc.c **** #undef UDI_CDC_PORT_TO_DATA_EP_OUT
 618:../../../platform/common/services/usb/class/cdc/device/udi_cdc.c **** 	default:
 619:../../../platform/common/services/usb/class/cdc/device/udi_cdc.c **** 		ep = UDI_CDC_DATA_EP_OUT_0;
 1643              	 .loc 4 619 0
 1644 067a 0223     	 movs r3,#2
 1645 067c FB75     	 strb r3,[r7,#23]
 620:../../../platform/common/services/usb/class/cdc/device/udi_cdc.c **** 		break;
 1646              	 .loc 4 620 0
 1647 067e 00BF     	 nop
 1648              	.L88:
 621:../../../platform/common/services/usb/class/cdc/device/udi_cdc.c **** 	}
 622:../../../platform/common/services/usb/class/cdc/device/udi_cdc.c **** 	return udd_ep_run(ep,
 623:../../../platform/common/services/usb/class/cdc/device/udi_cdc.c **** 			true,
 624:../../../platform/common/services/usb/class/cdc/device/udi_cdc.c **** 			udi_cdc_rx_buf[port][buf_sel_trans],
 1649              	 .loc 4 624 0
 1650 0680 F979     	 ldrb r1,[r7,#7]
 1651 0682 FB7B     	 ldrb r3,[r7,#15]
 1652 0684 1A46     	 mov r2,r3
 1653 0686 9200     	 lsls r2,r2,#2
 1654 0688 1A44     	 add r2,r2,r3
 1655 068a 9301     	 lsls r3,r2,#6
 1656 068c 1A46     	 mov r2,r3
 1657 068e 0B46     	 mov r3,r1
 1658 0690 9B00     	 lsls r3,r3,#2
 1659 0692 0B44     	 add r3,r3,r1
 1660 0694 DB01     	 lsls r3,r3,#7
 1661 0696 1344     	 add r3,r3,r2
 1662 0698 0B4A     	 ldr r2,.L90+16
 1663 069a 1A44     	 add r2,r2,r3
 622:../../../platform/common/services/usb/class/cdc/device/udi_cdc.c **** 			true,
 1664              	 .loc 4 622 0
 1665 069c F87D     	 ldrb r0,[r7,#23]
 1666 069e 0B4B     	 ldr r3,.L90+20
 1667 06a0 0093     	 str r3,[sp]
 1668 06a2 4FF4A073 	 mov r3,#320
 1669 06a6 0121     	 movs r1,#1
 1670 06a8 094C     	 ldr r4,.L90+24
 1671 06aa A047     	 blx r4
 1672              	.LVL3:
 1673 06ac 0346     	 mov r3,r0
 1674              	.L85:
 625:../../../platform/common/services/usb/class/cdc/device/udi_cdc.c **** 			UDI_CDC_RX_BUFFERS,
 626:../../../platform/common/services/usb/class/cdc/device/udi_cdc.c **** 			udi_cdc_data_received);
 627:../../../platform/common/services/usb/class/cdc/device/udi_cdc.c **** }
 1675              	 .loc 4 627 0
 1676 06ae 1846     	 mov r0,r3
 1677 06b0 1C37     	 adds r7,r7,#28
 1678              	.LCFI80:
 1679              	 .cfi_def_cfa_offset 12
 1680 06b2 BD46     	 mov sp,r7
 1681              	.LCFI81:
 1682              	 .cfi_def_cfa_register 13
 1683              	 
 1684 06b4 90BD     	 pop {r4,r7,pc}
 1685              	.L91:
 1686 06b6 00BF     	 .align 2
 1687              	.L90:
 1688 06b8 00000000 	 .word udi_cdc_rx_buf_sel
 1689 06bc 00000000 	 .word udi_cdc_rx_trans_ongoing
 1690 06c0 00000000 	 .word udi_cdc_rx_pos
 1691 06c4 00000000 	 .word udi_cdc_rx_buf_nb
 1692 06c8 00000000 	 .word udi_cdc_rx_buf
 1693 06cc 00000000 	 .word udi_cdc_data_received
 1694 06d0 00000000 	 .word udd_ep_run
 1695              	 .cfi_endproc
 1696              	.LFE139:
 1698              	 .align 1
 1699              	 .syntax unified
 1700              	 .thumb
 1701              	 .thumb_func
 1702              	 .fpu softvfp
 1704              	udi_cdc_data_received:
 1705              	.LFB140:
 628:../../../platform/common/services/usb/class/cdc/device/udi_cdc.c **** 
 629:../../../platform/common/services/usb/class/cdc/device/udi_cdc.c **** 
 630:../../../platform/common/services/usb/class/cdc/device/udi_cdc.c **** static void udi_cdc_data_received(udd_ep_status_t status, iram_size_t n, udd_ep_id_t ep)
 631:../../../platform/common/services/usb/class/cdc/device/udi_cdc.c **** {
 1706              	 .loc 4 631 0
 1707              	 .cfi_startproc
 1708              	 
 1709              	 
 1710 06d4 90B5     	 push {r4,r7,lr}
 1711              	.LCFI82:
 1712              	 .cfi_def_cfa_offset 12
 1713              	 .cfi_offset 4,-12
 1714              	 .cfi_offset 7,-8
 1715              	 .cfi_offset 14,-4
 1716 06d6 87B0     	 sub sp,sp,#28
 1717              	.LCFI83:
 1718              	 .cfi_def_cfa_offset 40
 1719 06d8 02AF     	 add r7,sp,#8
 1720              	.LCFI84:
 1721              	 .cfi_def_cfa 7,32
 1722 06da 0346     	 mov r3,r0
 1723 06dc 3960     	 str r1,[r7]
 1724 06de FB71     	 strb r3,[r7,#7]
 1725 06e0 1346     	 mov r3,r2
 1726 06e2 BB71     	 strb r3,[r7,#6]
 632:../../../platform/common/services/usb/class/cdc/device/udi_cdc.c **** 	uint8_t buf_sel_trans;
 633:../../../platform/common/services/usb/class/cdc/device/udi_cdc.c **** 	uint8_t port;
 634:../../../platform/common/services/usb/class/cdc/device/udi_cdc.c **** 
 635:../../../platform/common/services/usb/class/cdc/device/udi_cdc.c **** 	switch (ep) {
 1727              	 .loc 4 635 0
 1728 06e4 BB79     	 ldrb r3,[r7,#6]
 1729 06e6 022B     	 cmp r3,#2
 1730 06e8 02D1     	 bne .L99
 636:../../../platform/common/services/usb/class/cdc/device/udi_cdc.c **** #define UDI_CDC_DATA_EP_OUT_TO_PORT(index, unused) \
 637:../../../platform/common/services/usb/class/cdc/device/udi_cdc.c **** 	case UDI_CDC_DATA_EP_OUT_##index: \
 638:../../../platform/common/services/usb/class/cdc/device/udi_cdc.c **** 		port = index; \
 639:../../../platform/common/services/usb/class/cdc/device/udi_cdc.c **** 		break;
 640:../../../platform/common/services/usb/class/cdc/device/udi_cdc.c **** 	MREPEAT(UDI_CDC_PORT_NB, UDI_CDC_DATA_EP_OUT_TO_PORT, ~)
 1731              	 .loc 4 640 0
 1732 06ea 0023     	 movs r3,#0
 1733 06ec FB73     	 strb r3,[r7,#15]
 1734 06ee 02E0     	 b .L95
 1735              	.L99:
 641:../../../platform/common/services/usb/class/cdc/device/udi_cdc.c **** #undef UDI_CDC_DATA_EP_OUT_TO_PORT
 642:../../../platform/common/services/usb/class/cdc/device/udi_cdc.c **** 	default:
 643:../../../platform/common/services/usb/class/cdc/device/udi_cdc.c **** 		port = 0;
 1736              	 .loc 4 643 0
 1737 06f0 0023     	 movs r3,#0
 1738 06f2 FB73     	 strb r3,[r7,#15]
 644:../../../platform/common/services/usb/class/cdc/device/udi_cdc.c **** 		break;
 1739              	 .loc 4 644 0
 1740 06f4 00BF     	 nop
 1741              	.L95:
 645:../../../platform/common/services/usb/class/cdc/device/udi_cdc.c **** 	}
 646:../../../platform/common/services/usb/class/cdc/device/udi_cdc.c **** 
 647:../../../platform/common/services/usb/class/cdc/device/udi_cdc.c **** 	if (UDD_EP_TRANSFER_OK != status) {
 1742              	 .loc 4 647 0
 1743 06f6 FB79     	 ldrb r3,[r7,#7]
 1744 06f8 002B     	 cmp r3,#0
 1745 06fa 36D1     	 bne .L100
 648:../../../platform/common/services/usb/class/cdc/device/udi_cdc.c **** 		// Abort reception
 649:../../../platform/common/services/usb/class/cdc/device/udi_cdc.c **** 		return;
 650:../../../platform/common/services/usb/class/cdc/device/udi_cdc.c **** 	}
 651:../../../platform/common/services/usb/class/cdc/device/udi_cdc.c **** 	buf_sel_trans = (udi_cdc_rx_buf_sel[port]==0)?1:0;
 1746              	 .loc 4 651 0
 1747 06fc FB7B     	 ldrb r3,[r7,#15]
 1748 06fe 1D4A     	 ldr r2,.L101
 1749 0700 D35C     	 ldrb r3,[r2,r3]
 1750 0702 DBB2     	 uxtb r3,r3
 1751 0704 002B     	 cmp r3,#0
 1752 0706 0CBF     	 ite eq
 1753 0708 0123     	 moveq r3,#1
 1754 070a 0023     	 movne r3,#0
 1755 070c DBB2     	 uxtb r3,r3
 1756 070e BB73     	 strb r3,[r7,#14]
 652:../../../platform/common/services/usb/class/cdc/device/udi_cdc.c **** 	if (!n) {
 1757              	 .loc 4 652 0
 1758 0710 3B68     	 ldr r3,[r7]
 1759 0712 002B     	 cmp r3,#0
 1760 0714 16D1     	 bne .L98
 653:../../../platform/common/services/usb/class/cdc/device/udi_cdc.c **** 		udd_ep_run( ep,
 654:../../../platform/common/services/usb/class/cdc/device/udi_cdc.c **** 				true,
 655:../../../platform/common/services/usb/class/cdc/device/udi_cdc.c **** 				udi_cdc_rx_buf[port][buf_sel_trans],
 1761              	 .loc 4 655 0
 1762 0716 F97B     	 ldrb r1,[r7,#15]
 1763 0718 BB7B     	 ldrb r3,[r7,#14]
 1764 071a 1A46     	 mov r2,r3
 1765 071c 9200     	 lsls r2,r2,#2
 1766 071e 1A44     	 add r2,r2,r3
 1767 0720 9301     	 lsls r3,r2,#6
 1768 0722 1A46     	 mov r2,r3
 1769 0724 0B46     	 mov r3,r1
 1770 0726 9B00     	 lsls r3,r3,#2
 1771 0728 0B44     	 add r3,r3,r1
 1772 072a DB01     	 lsls r3,r3,#7
 1773 072c 1344     	 add r3,r3,r2
 1774 072e 124A     	 ldr r2,.L101+4
 1775 0730 1A44     	 add r2,r2,r3
 653:../../../platform/common/services/usb/class/cdc/device/udi_cdc.c **** 		udd_ep_run( ep,
 1776              	 .loc 4 653 0
 1777 0732 B879     	 ldrb r0,[r7,#6]
 1778 0734 114B     	 ldr r3,.L101+8
 1779 0736 0093     	 str r3,[sp]
 1780 0738 4FF4A073 	 mov r3,#320
 1781 073c 0121     	 movs r1,#1
 1782 073e 104C     	 ldr r4,.L101+12
 1783 0740 A047     	 blx r4
 1784              	.LVL4:
 656:../../../platform/common/services/usb/class/cdc/device/udi_cdc.c **** 				UDI_CDC_RX_BUFFERS,
 657:../../../platform/common/services/usb/class/cdc/device/udi_cdc.c **** 				udi_cdc_data_received);
 658:../../../platform/common/services/usb/class/cdc/device/udi_cdc.c **** 		return;
 1785              	 .loc 4 658 0
 1786 0742 13E0     	 b .L92
 1787              	.L98:
 659:../../../platform/common/services/usb/class/cdc/device/udi_cdc.c **** 	}
 660:../../../platform/common/services/usb/class/cdc/device/udi_cdc.c **** 	udi_cdc_rx_buf_nb[port][buf_sel_trans] = n;
 1788              	 .loc 4 660 0
 1789 0744 FA7B     	 ldrb r2,[r7,#15]
 1790 0746 BB7B     	 ldrb r3,[r7,#14]
 1791 0748 3968     	 ldr r1,[r7]
 1792 074a 88B2     	 uxth r0,r1
 1793 074c 0D49     	 ldr r1,.L101+16
 1794 074e 5200     	 lsls r2,r2,#1
 1795 0750 1344     	 add r3,r3,r2
 1796 0752 0246     	 mov r2,r0
 1797 0754 21F81320 	 strh r2,[r1,r3,lsl#1]
 661:../../../platform/common/services/usb/class/cdc/device/udi_cdc.c **** 	udi_cdc_rx_trans_ongoing[port] = false;
 1798              	 .loc 4 661 0
 1799 0758 FB7B     	 ldrb r3,[r7,#15]
 1800 075a 0B4A     	 ldr r2,.L101+20
 1801 075c 0021     	 movs r1,#0
 1802 075e D154     	 strb r1,[r2,r3]
 662:../../../platform/common/services/usb/class/cdc/device/udi_cdc.c **** 	udi_cdc_rx_start(port);
 1803              	 .loc 4 662 0
 1804 0760 FB7B     	 ldrb r3,[r7,#15]
 1805 0762 1846     	 mov r0,r3
 1806 0764 FFF742FF 	 bl udi_cdc_rx_start
 1807 0768 00E0     	 b .L92
 1808              	.L100:
 649:../../../platform/common/services/usb/class/cdc/device/udi_cdc.c **** 	}
 1809              	 .loc 4 649 0
 1810 076a 00BF     	 nop
 1811              	.L92:
 663:../../../platform/common/services/usb/class/cdc/device/udi_cdc.c **** }
 1812              	 .loc 4 663 0
 1813 076c 1437     	 adds r7,r7,#20
 1814              	.LCFI85:
 1815              	 .cfi_def_cfa_offset 12
 1816 076e BD46     	 mov sp,r7
 1817              	.LCFI86:
 1818              	 .cfi_def_cfa_register 13
 1819              	 
 1820 0770 90BD     	 pop {r4,r7,pc}
 1821              	.L102:
 1822 0772 00BF     	 .align 2
 1823              	.L101:
 1824 0774 00000000 	 .word udi_cdc_rx_buf_sel
 1825 0778 00000000 	 .word udi_cdc_rx_buf
 1826 077c 00000000 	 .word udi_cdc_data_received
 1827 0780 00000000 	 .word udd_ep_run
 1828 0784 00000000 	 .word udi_cdc_rx_buf_nb
 1829 0788 00000000 	 .word udi_cdc_rx_trans_ongoing
 1830              	 .cfi_endproc
 1831              	.LFE140:
 1833              	 .align 1
 1834              	 .syntax unified
 1835              	 .thumb
 1836              	 .thumb_func
 1837              	 .fpu softvfp
 1839              	udi_cdc_data_sent:
 1840              	.LFB141:
 664:../../../platform/common/services/usb/class/cdc/device/udi_cdc.c **** 
 665:../../../platform/common/services/usb/class/cdc/device/udi_cdc.c **** 
 666:../../../platform/common/services/usb/class/cdc/device/udi_cdc.c **** static void udi_cdc_data_sent(udd_ep_status_t status, iram_size_t n, udd_ep_id_t ep)
 667:../../../platform/common/services/usb/class/cdc/device/udi_cdc.c **** {
 1841              	 .loc 4 667 0
 1842              	 .cfi_startproc
 1843              	 
 1844              	 
 1845 078c 80B5     	 push {r7,lr}
 1846              	.LCFI87:
 1847              	 .cfi_def_cfa_offset 8
 1848              	 .cfi_offset 7,-8
 1849              	 .cfi_offset 14,-4
 1850 078e 84B0     	 sub sp,sp,#16
 1851              	.LCFI88:
 1852              	 .cfi_def_cfa_offset 24
 1853 0790 00AF     	 add r7,sp,#0
 1854              	.LCFI89:
 1855              	 .cfi_def_cfa_register 7
 1856 0792 0346     	 mov r3,r0
 1857 0794 3960     	 str r1,[r7]
 1858 0796 FB71     	 strb r3,[r7,#7]
 1859 0798 1346     	 mov r3,r2
 1860 079a BB71     	 strb r3,[r7,#6]
 668:../../../platform/common/services/usb/class/cdc/device/udi_cdc.c **** 	uint8_t port;
 669:../../../platform/common/services/usb/class/cdc/device/udi_cdc.c **** 	UNUSED(n);
 670:../../../platform/common/services/usb/class/cdc/device/udi_cdc.c **** 
 671:../../../platform/common/services/usb/class/cdc/device/udi_cdc.c **** 	switch (ep) {
 1861              	 .loc 4 671 0
 1862 079c BB79     	 ldrb r3,[r7,#6]
 1863 079e 812B     	 cmp r3,#129
 1864 07a0 02D1     	 bne .L109
 672:../../../platform/common/services/usb/class/cdc/device/udi_cdc.c **** #define UDI_CDC_DATA_EP_IN_TO_PORT(index, unused) \
 673:../../../platform/common/services/usb/class/cdc/device/udi_cdc.c **** 	case UDI_CDC_DATA_EP_IN_##index: \
 674:../../../platform/common/services/usb/class/cdc/device/udi_cdc.c **** 		port = index; \
 675:../../../platform/common/services/usb/class/cdc/device/udi_cdc.c **** 		break;
 676:../../../platform/common/services/usb/class/cdc/device/udi_cdc.c **** 	MREPEAT(UDI_CDC_PORT_NB, UDI_CDC_DATA_EP_IN_TO_PORT, ~)
 1865              	 .loc 4 676 0
 1866 07a2 0023     	 movs r3,#0
 1867 07a4 FB73     	 strb r3,[r7,#15]
 1868 07a6 02E0     	 b .L106
 1869              	.L109:
 677:../../../platform/common/services/usb/class/cdc/device/udi_cdc.c **** #undef UDI_CDC_DATA_EP_IN_TO_PORT
 678:../../../platform/common/services/usb/class/cdc/device/udi_cdc.c **** 	default:
 679:../../../platform/common/services/usb/class/cdc/device/udi_cdc.c **** 		port = 0;
 1870              	 .loc 4 679 0
 1871 07a8 0023     	 movs r3,#0
 1872 07aa FB73     	 strb r3,[r7,#15]
 680:../../../platform/common/services/usb/class/cdc/device/udi_cdc.c **** 		break;
 1873              	 .loc 4 680 0
 1874 07ac 00BF     	 nop
 1875              	.L106:
 681:../../../platform/common/services/usb/class/cdc/device/udi_cdc.c **** 	}
 682:../../../platform/common/services/usb/class/cdc/device/udi_cdc.c **** 
 683:../../../platform/common/services/usb/class/cdc/device/udi_cdc.c **** 	if (UDD_EP_TRANSFER_OK != status) {
 1876              	 .loc 4 683 0
 1877 07ae FB79     	 ldrb r3,[r7,#7]
 1878 07b0 002B     	 cmp r3,#0
 1879 07b2 1DD1     	 bne .L110
 684:../../../platform/common/services/usb/class/cdc/device/udi_cdc.c **** 		// Abort transfer
 685:../../../platform/common/services/usb/class/cdc/device/udi_cdc.c **** 		return;
 686:../../../platform/common/services/usb/class/cdc/device/udi_cdc.c **** 	}
 687:../../../platform/common/services/usb/class/cdc/device/udi_cdc.c **** 	udi_cdc_tx_buf_nb[port][(udi_cdc_tx_buf_sel[port]==0)?1:0] = 0;
 1880              	 .loc 4 687 0
 1881 07b4 FB7B     	 ldrb r3,[r7,#15]
 1882 07b6 FA7B     	 ldrb r2,[r7,#15]
 1883 07b8 0F49     	 ldr r1,.L111
 1884 07ba 8A5C     	 ldrb r2,[r1,r2]
 1885 07bc D2B2     	 uxtb r2,r2
 1886 07be 002A     	 cmp r2,#0
 1887 07c0 0CBF     	 ite eq
 1888 07c2 0122     	 moveq r2,#1
 1889 07c4 0022     	 movne r2,#0
 1890 07c6 D2B2     	 uxtb r2,r2
 1891 07c8 1146     	 mov r1,r2
 1892 07ca 0C4A     	 ldr r2,.L111+4
 1893 07cc 5B00     	 lsls r3,r3,#1
 1894 07ce 0B44     	 add r3,r3,r1
 1895 07d0 0021     	 movs r1,#0
 1896 07d2 22F81310 	 strh r1,[r2,r3,lsl#1]
 688:../../../platform/common/services/usb/class/cdc/device/udi_cdc.c **** 	udi_cdc_tx_both_buf_to_send[port] = false;
 1897              	 .loc 4 688 0
 1898 07d6 FB7B     	 ldrb r3,[r7,#15]
 1899 07d8 094A     	 ldr r2,.L111+8
 1900 07da 0021     	 movs r1,#0
 1901 07dc D154     	 strb r1,[r2,r3]
 689:../../../platform/common/services/usb/class/cdc/device/udi_cdc.c **** 	udi_cdc_tx_trans_ongoing[port] = false;
 1902              	 .loc 4 689 0
 1903 07de FB7B     	 ldrb r3,[r7,#15]
 1904 07e0 084A     	 ldr r2,.L111+12
 1905 07e2 0021     	 movs r1,#0
 1906 07e4 D154     	 strb r1,[r2,r3]
 690:../../../platform/common/services/usb/class/cdc/device/udi_cdc.c **** 
 691:../../../platform/common/services/usb/class/cdc/device/udi_cdc.c **** 	if (n != 0) {
 692:../../../platform/common/services/usb/class/cdc/device/udi_cdc.c **** 		UDI_CDC_TX_EMPTY_NOTIFY(port);
 693:../../../platform/common/services/usb/class/cdc/device/udi_cdc.c **** 	}
 694:../../../platform/common/services/usb/class/cdc/device/udi_cdc.c **** 	udi_cdc_tx_send(port);
 1907              	 .loc 4 694 0
 1908 07e6 FB7B     	 ldrb r3,[r7,#15]
 1909 07e8 1846     	 mov r0,r3
 1910 07ea 00F00DF8 	 bl udi_cdc_tx_send
 1911 07ee 00E0     	 b .L103
 1912              	.L110:
 685:../../../platform/common/services/usb/class/cdc/device/udi_cdc.c **** 	}
 1913              	 .loc 4 685 0
 1914 07f0 00BF     	 nop
 1915              	.L103:
 695:../../../platform/common/services/usb/class/cdc/device/udi_cdc.c **** }
 1916              	 .loc 4 695 0
 1917 07f2 1037     	 adds r7,r7,#16
 1918              	.LCFI90:
 1919              	 .cfi_def_cfa_offset 8
 1920 07f4 BD46     	 mov sp,r7
 1921              	.LCFI91:
 1922              	 .cfi_def_cfa_register 13
 1923              	 
 1924 07f6 80BD     	 pop {r7,pc}
 1925              	.L112:
 1926              	 .align 2
 1927              	.L111:
 1928 07f8 00000000 	 .word udi_cdc_tx_buf_sel
 1929 07fc 00000000 	 .word udi_cdc_tx_buf_nb
 1930 0800 00000000 	 .word udi_cdc_tx_both_buf_to_send
 1931 0804 00000000 	 .word udi_cdc_tx_trans_ongoing
 1932              	 .cfi_endproc
 1933              	.LFE141:
 1935              	 .align 1
 1936              	 .syntax unified
 1937              	 .thumb
 1938              	 .thumb_func
 1939              	 .fpu softvfp
 1941              	udi_cdc_tx_send:
 1942              	.LFB142:
 696:../../../platform/common/services/usb/class/cdc/device/udi_cdc.c **** 
 697:../../../platform/common/services/usb/class/cdc/device/udi_cdc.c **** 
 698:../../../platform/common/services/usb/class/cdc/device/udi_cdc.c **** static void udi_cdc_tx_send(uint8_t port)
 699:../../../platform/common/services/usb/class/cdc/device/udi_cdc.c **** {
 1943              	 .loc 4 699 0
 1944              	 .cfi_startproc
 1945              	 
 1946              	 
 1947 0808 90B5     	 push {r4,r7,lr}
 1948              	.LCFI92:
 1949              	 .cfi_def_cfa_offset 12
 1950              	 .cfi_offset 4,-12
 1951              	 .cfi_offset 7,-8
 1952              	 .cfi_offset 14,-4
 1953 080a 89B0     	 sub sp,sp,#36
 1954              	.LCFI93:
 1955              	 .cfi_def_cfa_offset 48
 1956 080c 02AF     	 add r7,sp,#8
 1957              	.LCFI94:
 1958              	 .cfi_def_cfa 7,40
 1959 080e 0346     	 mov r3,r0
 1960 0810 FB71     	 strb r3,[r7,#7]
 700:../../../platform/common/services/usb/class/cdc/device/udi_cdc.c **** 	irqflags_t flags;
 701:../../../platform/common/services/usb/class/cdc/device/udi_cdc.c **** 	uint8_t buf_sel_trans;
 702:../../../platform/common/services/usb/class/cdc/device/udi_cdc.c **** 	bool b_short_packet;
 703:../../../platform/common/services/usb/class/cdc/device/udi_cdc.c **** 	udd_ep_id_t ep;
 704:../../../platform/common/services/usb/class/cdc/device/udi_cdc.c **** 	static uint16_t sof_zlp_counter = 0;
 705:../../../platform/common/services/usb/class/cdc/device/udi_cdc.c **** 
 706:../../../platform/common/services/usb/class/cdc/device/udi_cdc.c **** #if UDI_CDC_PORT_NB == 1 // To optimize code
 707:../../../platform/common/services/usb/class/cdc/device/udi_cdc.c **** 	port = 0;
 1961              	 .loc 4 707 0
 1962 0812 0023     	 movs r3,#0
 1963 0814 FB71     	 strb r3,[r7,#7]
 708:../../../platform/common/services/usb/class/cdc/device/udi_cdc.c **** #endif
 709:../../../platform/common/services/usb/class/cdc/device/udi_cdc.c **** 
 710:../../../platform/common/services/usb/class/cdc/device/udi_cdc.c **** 	if (udi_cdc_tx_trans_ongoing[port]) {
 1964              	 .loc 4 710 0
 1965 0816 FB79     	 ldrb r3,[r7,#7]
 1966 0818 664A     	 ldr r2,.L133
 1967 081a D35C     	 ldrb r3,[r2,r3]
 1968 081c DBB2     	 uxtb r3,r3
 1969 081e 002B     	 cmp r3,#0
 1970 0820 40F0C280 	 bne .L131
 711:../../../platform/common/services/usb/class/cdc/device/udi_cdc.c **** 		return; // Already on going or wait next SOF to send next data
 712:../../../platform/common/services/usb/class/cdc/device/udi_cdc.c **** 	}
 713:../../../platform/common/services/usb/class/cdc/device/udi_cdc.c **** 	if (udd_is_high_speed()) {
 1971              	 .loc 4 713 0
 1972 0824 644B     	 ldr r3,.L133+4
 1973 0826 9847     	 blx r3
 1974              	.LVL5:
 1975 0828 0346     	 mov r3,r0
 1976 082a 002B     	 cmp r3,#0
 1977 082c 09D0     	 beq .L116
 714:../../../platform/common/services/usb/class/cdc/device/udi_cdc.c **** 		if (udi_cdc_tx_sof_num[port] == udd_get_micro_frame_number()) {
 1978              	 .loc 4 714 0
 1979 082e FB79     	 ldrb r3,[r7,#7]
 1980 0830 624A     	 ldr r2,.L133+8
 1981 0832 32F81340 	 ldrh r4,[r2,r3,lsl#1]
 1982 0836 624B     	 ldr r3,.L133+12
 1983 0838 9847     	 blx r3
 1984              	.LVL6:
 1985 083a 0346     	 mov r3,r0
 1986 083c 9C42     	 cmp r4,r3
 1987 083e 0AD1     	 bne .L117
 715:../../../platform/common/services/usb/class/cdc/device/udi_cdc.c **** 			return; // Wait next SOF to send next data
 1988              	 .loc 4 715 0
 1989 0840 B5E0     	 b .L113
 1990              	.L116:
 716:../../../platform/common/services/usb/class/cdc/device/udi_cdc.c **** 		}
 717:../../../platform/common/services/usb/class/cdc/device/udi_cdc.c **** 	}else{
 718:../../../platform/common/services/usb/class/cdc/device/udi_cdc.c **** 		if (udi_cdc_tx_sof_num[port] == udd_get_frame_number()) {
 1991              	 .loc 4 718 0
 1992 0842 FB79     	 ldrb r3,[r7,#7]
 1993 0844 5D4A     	 ldr r2,.L133+8
 1994 0846 32F81340 	 ldrh r4,[r2,r3,lsl#1]
 1995 084a 5E4B     	 ldr r3,.L133+16
 1996 084c 9847     	 blx r3
 1997              	.LVL7:
 1998 084e 0346     	 mov r3,r0
 1999 0850 9C42     	 cmp r4,r3
 2000 0852 00F0AB80 	 beq .L132
 2001              	.L117:
 719:../../../platform/common/services/usb/class/cdc/device/udi_cdc.c **** 			return; // Wait next SOF to send next data
 720:../../../platform/common/services/usb/class/cdc/device/udi_cdc.c **** 		}
 721:../../../platform/common/services/usb/class/cdc/device/udi_cdc.c **** 	}
 722:../../../platform/common/services/usb/class/cdc/device/udi_cdc.c **** 
 723:../../../platform/common/services/usb/class/cdc/device/udi_cdc.c **** 	flags = cpu_irq_save(); // to protect udi_cdc_tx_buf_sel
 2002              	 .loc 4 723 0
 2003 0856 FFF7D3FB 	 bl cpu_irq_save
 2004 085a 3861     	 str r0,[r7,#16]
 724:../../../platform/common/services/usb/class/cdc/device/udi_cdc.c **** 	buf_sel_trans = udi_cdc_tx_buf_sel[port];
 2005              	 .loc 4 724 0
 2006 085c FB79     	 ldrb r3,[r7,#7]
 2007 085e 5A4A     	 ldr r2,.L133+20
 2008 0860 D35C     	 ldrb r3,[r2,r3]
 2009 0862 FB75     	 strb r3,[r7,#23]
 725:../../../platform/common/services/usb/class/cdc/device/udi_cdc.c **** 	if (udi_cdc_tx_buf_nb[port][buf_sel_trans] == 0) {
 2010              	 .loc 4 725 0
 2011 0864 FA79     	 ldrb r2,[r7,#7]
 2012 0866 FB7D     	 ldrb r3,[r7,#23]
 2013 0868 5849     	 ldr r1,.L133+24
 2014 086a 5200     	 lsls r2,r2,#1
 2015 086c 1344     	 add r3,r3,r2
 2016 086e 31F81330 	 ldrh r3,[r1,r3,lsl#1]
 2017 0872 002B     	 cmp r3,#0
 2018 0874 1FD1     	 bne .L118
 726:../../../platform/common/services/usb/class/cdc/device/udi_cdc.c **** 		sof_zlp_counter++;
 2019              	 .loc 4 726 0
 2020 0876 564B     	 ldr r3,.L133+28
 2021 0878 1B88     	 ldrh r3,[r3]
 2022 087a 0133     	 adds r3,r3,#1
 2023 087c 9AB2     	 uxth r2,r3
 2024 087e 544B     	 ldr r3,.L133+28
 2025 0880 1A80     	 strh r2,[r3]
 727:../../../platform/common/services/usb/class/cdc/device/udi_cdc.c **** 		if (((!udd_is_high_speed()) && (sof_zlp_counter < 100))
 2026              	 .loc 4 727 0
 2027 0882 4D4B     	 ldr r3,.L133+4
 2028 0884 9847     	 blx r3
 2029              	.LVL8:
 2030 0886 0346     	 mov r3,r0
 2031 0888 83F00103 	 eor r3,r3,#1
 2032 088c DBB2     	 uxtb r3,r3
 2033 088e 002B     	 cmp r3,#0
 2034 0890 03D0     	 beq .L119
 2035              	 .loc 4 727 0 is_stmt 0 discriminator 1
 2036 0892 4F4B     	 ldr r3,.L133+28
 2037 0894 1B88     	 ldrh r3,[r3]
 2038 0896 632B     	 cmp r3,#99
 2039 0898 09D9     	 bls .L120
 2040              	.L119:
 728:../../../platform/common/services/usb/class/cdc/device/udi_cdc.c **** 				|| (udd_is_high_speed() && (sof_zlp_counter < 800))) {
 2041              	 .loc 4 728 0 is_stmt 1
 2042 089a 474B     	 ldr r3,.L133+4
 2043 089c 9847     	 blx r3
 2044              	.LVL9:
 2045 089e 0346     	 mov r3,r0
 2046 08a0 002B     	 cmp r3,#0
 2047 08a2 08D0     	 beq .L118
 2048              	 .loc 4 728 0 is_stmt 0 discriminator 1
 2049 08a4 4A4B     	 ldr r3,.L133+28
 2050 08a6 1B88     	 ldrh r3,[r3]
 2051 08a8 B3F5487F 	 cmp r3,#800
 2052 08ac 03D2     	 bcs .L118
 2053              	.L120:
 729:../../../platform/common/services/usb/class/cdc/device/udi_cdc.c **** 			cpu_irq_restore(flags);
 2054              	 .loc 4 729 0 is_stmt 1
 2055 08ae 3869     	 ldr r0,[r7,#16]
 2056 08b0 FFF7D1FB 	 bl cpu_irq_restore
 730:../../../platform/common/services/usb/class/cdc/device/udi_cdc.c **** 			return;
 2057              	 .loc 4 730 0
 2058 08b4 7BE0     	 b .L113
 2059              	.L118:
 731:../../../platform/common/services/usb/class/cdc/device/udi_cdc.c **** 		}
 732:../../../platform/common/services/usb/class/cdc/device/udi_cdc.c **** 	}
 733:../../../platform/common/services/usb/class/cdc/device/udi_cdc.c **** 	sof_zlp_counter = 0;
 2060              	 .loc 4 733 0
 2061 08b6 464B     	 ldr r3,.L133+28
 2062 08b8 0022     	 movs r2,#0
 2063 08ba 1A80     	 strh r2,[r3]
 734:../../../platform/common/services/usb/class/cdc/device/udi_cdc.c **** 
 735:../../../platform/common/services/usb/class/cdc/device/udi_cdc.c **** 	if (!udi_cdc_tx_both_buf_to_send[port]) {
 2064              	 .loc 4 735 0
 2065 08bc FB79     	 ldrb r3,[r7,#7]
 2066 08be 454A     	 ldr r2,.L133+32
 2067 08c0 D35C     	 ldrb r3,[r2,r3]
 2068 08c2 DBB2     	 uxtb r3,r3
 2069 08c4 83F00103 	 eor r3,r3,#1
 2070 08c8 DBB2     	 uxtb r3,r3
 2071 08ca 002B     	 cmp r3,#0
 2072 08cc 0AD0     	 beq .L121
 736:../../../platform/common/services/usb/class/cdc/device/udi_cdc.c **** 		// Send current Buffer
 737:../../../platform/common/services/usb/class/cdc/device/udi_cdc.c **** 		// and switch the current buffer
 738:../../../platform/common/services/usb/class/cdc/device/udi_cdc.c **** 		udi_cdc_tx_buf_sel[port] = (buf_sel_trans==0)?1:0;
 2073              	 .loc 4 738 0
 2074 08ce FB79     	 ldrb r3,[r7,#7]
 2075 08d0 FA7D     	 ldrb r2,[r7,#23]
 2076 08d2 002A     	 cmp r2,#0
 2077 08d4 0CBF     	 ite eq
 2078 08d6 0122     	 moveq r2,#1
 2079 08d8 0022     	 movne r2,#0
 2080 08da D2B2     	 uxtb r2,r2
 2081 08dc 1146     	 mov r1,r2
 2082 08de 3A4A     	 ldr r2,.L133+20
 2083 08e0 D154     	 strb r1,[r2,r3]
 2084 08e2 06E0     	 b .L122
 2085              	.L121:
 739:../../../platform/common/services/usb/class/cdc/device/udi_cdc.c **** 	}else{
 740:../../../platform/common/services/usb/class/cdc/device/udi_cdc.c **** 		// Send the other Buffer
 741:../../../platform/common/services/usb/class/cdc/device/udi_cdc.c **** 		// and no switch the current buffer
 742:../../../platform/common/services/usb/class/cdc/device/udi_cdc.c **** 		buf_sel_trans = (buf_sel_trans==0)?1:0;
 2086              	 .loc 4 742 0
 2087 08e4 FB7D     	 ldrb r3,[r7,#23]
 2088 08e6 002B     	 cmp r3,#0
 2089 08e8 0CBF     	 ite eq
 2090 08ea 0123     	 moveq r3,#1
 2091 08ec 0023     	 movne r3,#0
 2092 08ee DBB2     	 uxtb r3,r3
 2093 08f0 FB75     	 strb r3,[r7,#23]
 2094              	.L122:
 743:../../../platform/common/services/usb/class/cdc/device/udi_cdc.c **** 	}
 744:../../../platform/common/services/usb/class/cdc/device/udi_cdc.c **** 	udi_cdc_tx_trans_ongoing[port] = true;
 2095              	 .loc 4 744 0
 2096 08f2 FB79     	 ldrb r3,[r7,#7]
 2097 08f4 2F4A     	 ldr r2,.L133
 2098 08f6 0121     	 movs r1,#1
 2099 08f8 D154     	 strb r1,[r2,r3]
 745:../../../platform/common/services/usb/class/cdc/device/udi_cdc.c **** 	cpu_irq_restore(flags);
 2100              	 .loc 4 745 0
 2101 08fa 3869     	 ldr r0,[r7,#16]
 2102 08fc FFF7ABFB 	 bl cpu_irq_restore
 746:../../../platform/common/services/usb/class/cdc/device/udi_cdc.c **** 
 747:../../../platform/common/services/usb/class/cdc/device/udi_cdc.c **** 	b_short_packet = (udi_cdc_tx_buf_nb[port][buf_sel_trans] != UDI_CDC_TX_BUFFERS);
 2103              	 .loc 4 747 0
 2104 0900 FA79     	 ldrb r2,[r7,#7]
 2105 0902 FB7D     	 ldrb r3,[r7,#23]
 2106 0904 3149     	 ldr r1,.L133+24
 2107 0906 5200     	 lsls r2,r2,#1
 2108 0908 1344     	 add r3,r3,r2
 2109 090a 31F81330 	 ldrh r3,[r1,r3,lsl#1]
 2110 090e B3F5A07F 	 cmp r3,#320
 2111 0912 14BF     	 ite ne
 2112 0914 0123     	 movne r3,#1
 2113 0916 0023     	 moveq r3,#0
 2114 0918 FB73     	 strb r3,[r7,#15]
 748:../../../platform/common/services/usb/class/cdc/device/udi_cdc.c **** 	if (b_short_packet) {
 2115              	 .loc 4 748 0
 2116 091a FB7B     	 ldrb r3,[r7,#15]
 2117 091c 002B     	 cmp r3,#0
 2118 091e 16D0     	 beq .L123
 749:../../../platform/common/services/usb/class/cdc/device/udi_cdc.c **** 		if (udd_is_high_speed()) {
 2119              	 .loc 4 749 0
 2120 0920 254B     	 ldr r3,.L133+4
 2121 0922 9847     	 blx r3
 2122              	.LVL10:
 2123 0924 0346     	 mov r3,r0
 2124 0926 002B     	 cmp r3,#0
 2125 0928 08D0     	 beq .L124
 750:../../../platform/common/services/usb/class/cdc/device/udi_cdc.c **** 			udi_cdc_tx_sof_num[port] = udd_get_micro_frame_number();
 2126              	 .loc 4 750 0
 2127 092a FC79     	 ldrb r4,[r7,#7]
 2128 092c 244B     	 ldr r3,.L133+12
 2129 092e 9847     	 blx r3
 2130              	.LVL11:
 2131 0930 0346     	 mov r3,r0
 2132 0932 1A46     	 mov r2,r3
 2133 0934 214B     	 ldr r3,.L133+8
 2134 0936 23F81420 	 strh r2,[r3,r4,lsl#1]
 2135 093a 0DE0     	 b .L126
 2136              	.L124:
 751:../../../platform/common/services/usb/class/cdc/device/udi_cdc.c **** 		}else{
 752:../../../platform/common/services/usb/class/cdc/device/udi_cdc.c **** 			udi_cdc_tx_sof_num[port] = udd_get_frame_number();
 2137              	 .loc 4 752 0
 2138 093c FC79     	 ldrb r4,[r7,#7]
 2139 093e 214B     	 ldr r3,.L133+16
 2140 0940 9847     	 blx r3
 2141              	.LVL12:
 2142 0942 0346     	 mov r3,r0
 2143 0944 1A46     	 mov r2,r3
 2144 0946 1D4B     	 ldr r3,.L133+8
 2145 0948 23F81420 	 strh r2,[r3,r4,lsl#1]
 2146 094c 04E0     	 b .L126
 2147              	.L123:
 753:../../../platform/common/services/usb/class/cdc/device/udi_cdc.c **** 		}
 754:../../../platform/common/services/usb/class/cdc/device/udi_cdc.c **** 	}else{
 755:../../../platform/common/services/usb/class/cdc/device/udi_cdc.c **** 		udi_cdc_tx_sof_num[port] = 0; // Force next transfer without wait SOF
 2148              	 .loc 4 755 0
 2149 094e FB79     	 ldrb r3,[r7,#7]
 2150 0950 1A4A     	 ldr r2,.L133+8
 2151 0952 0021     	 movs r1,#0
 2152 0954 22F81310 	 strh r1,[r2,r3,lsl#1]
 2153              	.L126:
 756:../../../platform/common/services/usb/class/cdc/device/udi_cdc.c **** 	}
 757:../../../platform/common/services/usb/class/cdc/device/udi_cdc.c **** 
 758:../../../platform/common/services/usb/class/cdc/device/udi_cdc.c **** 	// Send the buffer with enable of short packet
 759:../../../platform/common/services/usb/class/cdc/device/udi_cdc.c **** 	switch (port) {
 2154              	 .loc 4 759 0
 2155 0958 FB79     	 ldrb r3,[r7,#7]
 2156 095a 002B     	 cmp r3,#0
 2157 095c 02D1     	 bne .L130
 760:../../../platform/common/services/usb/class/cdc/device/udi_cdc.c **** #define UDI_CDC_PORT_TO_DATA_EP_IN(index, unused) \
 761:../../../platform/common/services/usb/class/cdc/device/udi_cdc.c **** 	case index: \
 762:../../../platform/common/services/usb/class/cdc/device/udi_cdc.c **** 		ep = UDI_CDC_DATA_EP_IN_##index; \
 763:../../../platform/common/services/usb/class/cdc/device/udi_cdc.c **** 		break;
 764:../../../platform/common/services/usb/class/cdc/device/udi_cdc.c **** 	MREPEAT(UDI_CDC_PORT_NB, UDI_CDC_PORT_TO_DATA_EP_IN, ~)
 2158              	 .loc 4 764 0
 2159 095e 8123     	 movs r3,#129
 2160 0960 BB75     	 strb r3,[r7,#22]
 2161 0962 02E0     	 b .L129
 2162              	.L130:
 765:../../../platform/common/services/usb/class/cdc/device/udi_cdc.c **** #undef UDI_CDC_PORT_TO_DATA_EP_IN
 766:../../../platform/common/services/usb/class/cdc/device/udi_cdc.c **** 	default:
 767:../../../platform/common/services/usb/class/cdc/device/udi_cdc.c **** 		ep = UDI_CDC_DATA_EP_IN_0;
 2163              	 .loc 4 767 0
 2164 0964 8123     	 movs r3,#129
 2165 0966 BB75     	 strb r3,[r7,#22]
 768:../../../platform/common/services/usb/class/cdc/device/udi_cdc.c **** 		break;
 2166              	 .loc 4 768 0
 2167 0968 00BF     	 nop
 2168              	.L129:
 769:../../../platform/common/services/usb/class/cdc/device/udi_cdc.c **** 	}
 770:../../../platform/common/services/usb/class/cdc/device/udi_cdc.c **** 	udd_ep_run( ep,
 771:../../../platform/common/services/usb/class/cdc/device/udi_cdc.c **** 			b_short_packet,
 772:../../../platform/common/services/usb/class/cdc/device/udi_cdc.c **** 			udi_cdc_tx_buf[port][buf_sel_trans],
 2169              	 .loc 4 772 0
 2170 096a F979     	 ldrb r1,[r7,#7]
 2171 096c FB7D     	 ldrb r3,[r7,#23]
 2172 096e 1A46     	 mov r2,r3
 2173 0970 9200     	 lsls r2,r2,#2
 2174 0972 1A44     	 add r2,r2,r3
 2175 0974 9301     	 lsls r3,r2,#6
 2176 0976 1A46     	 mov r2,r3
 2177 0978 0B46     	 mov r3,r1
 2178 097a 9B00     	 lsls r3,r3,#2
 2179 097c 0B44     	 add r3,r3,r1
 2180 097e DB01     	 lsls r3,r3,#7
 2181 0980 1344     	 add r3,r3,r2
 2182 0982 154A     	 ldr r2,.L133+36
 2183 0984 9C18     	 adds r4,r3,r2
 773:../../../platform/common/services/usb/class/cdc/device/udi_cdc.c **** 			udi_cdc_tx_buf_nb[port][buf_sel_trans],
 2184              	 .loc 4 773 0
 2185 0986 FA79     	 ldrb r2,[r7,#7]
 2186 0988 FB7D     	 ldrb r3,[r7,#23]
 2187 098a 1049     	 ldr r1,.L133+24
 2188 098c 5200     	 lsls r2,r2,#1
 2189 098e 1344     	 add r3,r3,r2
 2190 0990 31F81330 	 ldrh r3,[r1,r3,lsl#1]
 770:../../../platform/common/services/usb/class/cdc/device/udi_cdc.c **** 			b_short_packet,
 2191              	 .loc 4 770 0
 2192 0994 1A46     	 mov r2,r3
 2193 0996 F97B     	 ldrb r1,[r7,#15]
 2194 0998 B87D     	 ldrb r0,[r7,#22]
 2195 099a 104B     	 ldr r3,.L133+40
 2196 099c 0093     	 str r3,[sp]
 2197 099e 1346     	 mov r3,r2
 2198 09a0 2246     	 mov r2,r4
 2199 09a2 0F4C     	 ldr r4,.L133+44
 2200 09a4 A047     	 blx r4
 2201              	.LVL13:
 2202 09a6 02E0     	 b .L113
 2203              	.L131:
 711:../../../platform/common/services/usb/class/cdc/device/udi_cdc.c **** 	}
 2204              	 .loc 4 711 0
 2205 09a8 00BF     	 nop
 2206 09aa 00E0     	 b .L113
 2207              	.L132:
 719:../../../platform/common/services/usb/class/cdc/device/udi_cdc.c **** 		}
 2208              	 .loc 4 719 0
 2209 09ac 00BF     	 nop
 2210              	.L113:
 774:../../../platform/common/services/usb/class/cdc/device/udi_cdc.c **** 			udi_cdc_data_sent);
 775:../../../platform/common/services/usb/class/cdc/device/udi_cdc.c **** }
 2211              	 .loc 4 775 0
 2212 09ae 1C37     	 adds r7,r7,#28
 2213              	.LCFI95:
 2214              	 .cfi_def_cfa_offset 12
 2215 09b0 BD46     	 mov sp,r7
 2216              	.LCFI96:
 2217              	 .cfi_def_cfa_register 13
 2218              	 
 2219 09b2 90BD     	 pop {r4,r7,pc}
 2220              	.L134:
 2221              	 .align 2
 2222              	.L133:
 2223 09b4 00000000 	 .word udi_cdc_tx_trans_ongoing
 2224 09b8 00000000 	 .word udd_is_high_speed
 2225 09bc 00000000 	 .word udi_cdc_tx_sof_num
 2226 09c0 00000000 	 .word udd_get_micro_frame_number
 2227 09c4 00000000 	 .word udd_get_frame_number
 2228 09c8 00000000 	 .word udi_cdc_tx_buf_sel
 2229 09cc 00000000 	 .word udi_cdc_tx_buf_nb
 2230 09d0 00000000 	 .word sof_zlp_counter.8529
 2231 09d4 00000000 	 .word udi_cdc_tx_both_buf_to_send
 2232 09d8 00000000 	 .word udi_cdc_tx_buf
 2233 09dc 00000000 	 .word udi_cdc_data_sent
 2234 09e0 00000000 	 .word udd_ep_run
 2235              	 .cfi_endproc
 2236              	.LFE142:
 2238              	 .align 1
 2239              	 .global udi_cdc_ctrl_signal_dcd
 2240              	 .syntax unified
 2241              	 .thumb
 2242              	 .thumb_func
 2243              	 .fpu softvfp
 2245              	udi_cdc_ctrl_signal_dcd:
 2246              	.LFB143:
 776:../../../platform/common/services/usb/class/cdc/device/udi_cdc.c **** 
 777:../../../platform/common/services/usb/class/cdc/device/udi_cdc.c **** 
 778:../../../platform/common/services/usb/class/cdc/device/udi_cdc.c **** //---------------------------------------------
 779:../../../platform/common/services/usb/class/cdc/device/udi_cdc.c **** //------- Application interface
 780:../../../platform/common/services/usb/class/cdc/device/udi_cdc.c **** 
 781:../../../platform/common/services/usb/class/cdc/device/udi_cdc.c **** 
 782:../../../platform/common/services/usb/class/cdc/device/udi_cdc.c **** //------- Application interface
 783:../../../platform/common/services/usb/class/cdc/device/udi_cdc.c **** 
 784:../../../platform/common/services/usb/class/cdc/device/udi_cdc.c **** void udi_cdc_ctrl_signal_dcd(bool b_set)
 785:../../../platform/common/services/usb/class/cdc/device/udi_cdc.c **** {
 2247              	 .loc 4 785 0
 2248              	 .cfi_startproc
 2249              	 
 2250              	 
 2251 09e4 80B5     	 push {r7,lr}
 2252              	.LCFI97:
 2253              	 .cfi_def_cfa_offset 8
 2254              	 .cfi_offset 7,-8
 2255              	 .cfi_offset 14,-4
 2256 09e6 82B0     	 sub sp,sp,#8
 2257              	.LCFI98:
 2258              	 .cfi_def_cfa_offset 16
 2259 09e8 00AF     	 add r7,sp,#0
 2260              	.LCFI99:
 2261              	 .cfi_def_cfa_register 7
 2262 09ea 0346     	 mov r3,r0
 2263 09ec FB71     	 strb r3,[r7,#7]
 786:../../../platform/common/services/usb/class/cdc/device/udi_cdc.c **** 	udi_cdc_ctrl_state_change(0, b_set, CDC_SERIAL_STATE_DCD);
 2264              	 .loc 4 786 0
 2265 09ee FB79     	 ldrb r3,[r7,#7]
 2266 09f0 0122     	 movs r2,#1
 2267 09f2 1946     	 mov r1,r3
 2268 09f4 0020     	 movs r0,#0
 2269 09f6 FFF71AFD 	 bl udi_cdc_ctrl_state_change
 787:../../../platform/common/services/usb/class/cdc/device/udi_cdc.c **** }
 2270              	 .loc 4 787 0
 2271 09fa 00BF     	 nop
 2272 09fc 0837     	 adds r7,r7,#8
 2273              	.LCFI100:
 2274              	 .cfi_def_cfa_offset 8
 2275 09fe BD46     	 mov sp,r7
 2276              	.LCFI101:
 2277              	 .cfi_def_cfa_register 13
 2278              	 
 2279 0a00 80BD     	 pop {r7,pc}
 2280              	 .cfi_endproc
 2281              	.LFE143:
 2283              	 .align 1
 2284              	 .global udi_cdc_ctrl_signal_dsr
 2285              	 .syntax unified
 2286              	 .thumb
 2287              	 .thumb_func
 2288              	 .fpu softvfp
 2290              	udi_cdc_ctrl_signal_dsr:
 2291              	.LFB144:
 788:../../../platform/common/services/usb/class/cdc/device/udi_cdc.c **** 
 789:../../../platform/common/services/usb/class/cdc/device/udi_cdc.c **** void udi_cdc_ctrl_signal_dsr(bool b_set)
 790:../../../platform/common/services/usb/class/cdc/device/udi_cdc.c **** {
 2292              	 .loc 4 790 0
 2293              	 .cfi_startproc
 2294              	 
 2295              	 
 2296 0a02 80B5     	 push {r7,lr}
 2297              	.LCFI102:
 2298              	 .cfi_def_cfa_offset 8
 2299              	 .cfi_offset 7,-8
 2300              	 .cfi_offset 14,-4
 2301 0a04 82B0     	 sub sp,sp,#8
 2302              	.LCFI103:
 2303              	 .cfi_def_cfa_offset 16
 2304 0a06 00AF     	 add r7,sp,#0
 2305              	.LCFI104:
 2306              	 .cfi_def_cfa_register 7
 2307 0a08 0346     	 mov r3,r0
 2308 0a0a FB71     	 strb r3,[r7,#7]
 791:../../../platform/common/services/usb/class/cdc/device/udi_cdc.c **** 	udi_cdc_ctrl_state_change(0, b_set, CDC_SERIAL_STATE_DSR);
 2309              	 .loc 4 791 0
 2310 0a0c FB79     	 ldrb r3,[r7,#7]
 2311 0a0e 0222     	 movs r2,#2
 2312 0a10 1946     	 mov r1,r3
 2313 0a12 0020     	 movs r0,#0
 2314 0a14 FFF70BFD 	 bl udi_cdc_ctrl_state_change
 792:../../../platform/common/services/usb/class/cdc/device/udi_cdc.c **** }
 2315              	 .loc 4 792 0
 2316 0a18 00BF     	 nop
 2317 0a1a 0837     	 adds r7,r7,#8
 2318              	.LCFI105:
 2319              	 .cfi_def_cfa_offset 8
 2320 0a1c BD46     	 mov sp,r7
 2321              	.LCFI106:
 2322              	 .cfi_def_cfa_register 13
 2323              	 
 2324 0a1e 80BD     	 pop {r7,pc}
 2325              	 .cfi_endproc
 2326              	.LFE144:
 2328              	 .align 1
 2329              	 .global udi_cdc_signal_framing_error
 2330              	 .syntax unified
 2331              	 .thumb
 2332              	 .thumb_func
 2333              	 .fpu softvfp
 2335              	udi_cdc_signal_framing_error:
 2336              	.LFB145:
 793:../../../platform/common/services/usb/class/cdc/device/udi_cdc.c **** 
 794:../../../platform/common/services/usb/class/cdc/device/udi_cdc.c **** void udi_cdc_signal_framing_error(void)
 795:../../../platform/common/services/usb/class/cdc/device/udi_cdc.c **** {
 2337              	 .loc 4 795 0
 2338              	 .cfi_startproc
 2339              	 
 2340              	 
 2341 0a20 80B5     	 push {r7,lr}
 2342              	.LCFI107:
 2343              	 .cfi_def_cfa_offset 8
 2344              	 .cfi_offset 7,-8
 2345              	 .cfi_offset 14,-4
 2346 0a22 00AF     	 add r7,sp,#0
 2347              	.LCFI108:
 2348              	 .cfi_def_cfa_register 7
 796:../../../platform/common/services/usb/class/cdc/device/udi_cdc.c **** 	udi_cdc_ctrl_state_change(0, true, CDC_SERIAL_STATE_FRAMING);
 2349              	 .loc 4 796 0
 2350 0a24 1022     	 movs r2,#16
 2351 0a26 0121     	 movs r1,#1
 2352 0a28 0020     	 movs r0,#0
 2353 0a2a FFF700FD 	 bl udi_cdc_ctrl_state_change
 797:../../../platform/common/services/usb/class/cdc/device/udi_cdc.c **** }
 2354              	 .loc 4 797 0
 2355 0a2e 00BF     	 nop
 2356 0a30 80BD     	 pop {r7,pc}
 2357              	 .cfi_endproc
 2358              	.LFE145:
 2360              	 .align 1
 2361              	 .global udi_cdc_signal_parity_error
 2362              	 .syntax unified
 2363              	 .thumb
 2364              	 .thumb_func
 2365              	 .fpu softvfp
 2367              	udi_cdc_signal_parity_error:
 2368              	.LFB146:
 798:../../../platform/common/services/usb/class/cdc/device/udi_cdc.c **** 
 799:../../../platform/common/services/usb/class/cdc/device/udi_cdc.c **** void udi_cdc_signal_parity_error(void)
 800:../../../platform/common/services/usb/class/cdc/device/udi_cdc.c **** {
 2369              	 .loc 4 800 0
 2370              	 .cfi_startproc
 2371              	 
 2372              	 
 2373 0a32 80B5     	 push {r7,lr}
 2374              	.LCFI109:
 2375              	 .cfi_def_cfa_offset 8
 2376              	 .cfi_offset 7,-8
 2377              	 .cfi_offset 14,-4
 2378 0a34 00AF     	 add r7,sp,#0
 2379              	.LCFI110:
 2380              	 .cfi_def_cfa_register 7
 801:../../../platform/common/services/usb/class/cdc/device/udi_cdc.c **** 	udi_cdc_ctrl_state_change(0, true, CDC_SERIAL_STATE_PARITY);
 2381              	 .loc 4 801 0
 2382 0a36 2022     	 movs r2,#32
 2383 0a38 0121     	 movs r1,#1
 2384 0a3a 0020     	 movs r0,#0
 2385 0a3c FFF7F7FC 	 bl udi_cdc_ctrl_state_change
 802:../../../platform/common/services/usb/class/cdc/device/udi_cdc.c **** }
 2386              	 .loc 4 802 0
 2387 0a40 00BF     	 nop
 2388 0a42 80BD     	 pop {r7,pc}
 2389              	 .cfi_endproc
 2390              	.LFE146:
 2392              	 .align 1
 2393              	 .global udi_cdc_signal_overrun
 2394              	 .syntax unified
 2395              	 .thumb
 2396              	 .thumb_func
 2397              	 .fpu softvfp
 2399              	udi_cdc_signal_overrun:
 2400              	.LFB147:
 803:../../../platform/common/services/usb/class/cdc/device/udi_cdc.c **** 
 804:../../../platform/common/services/usb/class/cdc/device/udi_cdc.c **** void udi_cdc_signal_overrun(void)
 805:../../../platform/common/services/usb/class/cdc/device/udi_cdc.c **** {
 2401              	 .loc 4 805 0
 2402              	 .cfi_startproc
 2403              	 
 2404              	 
 2405 0a44 80B5     	 push {r7,lr}
 2406              	.LCFI111:
 2407              	 .cfi_def_cfa_offset 8
 2408              	 .cfi_offset 7,-8
 2409              	 .cfi_offset 14,-4
 2410 0a46 00AF     	 add r7,sp,#0
 2411              	.LCFI112:
 2412              	 .cfi_def_cfa_register 7
 806:../../../platform/common/services/usb/class/cdc/device/udi_cdc.c **** 	udi_cdc_ctrl_state_change(0, true, CDC_SERIAL_STATE_OVERRUN);
 2413              	 .loc 4 806 0
 2414 0a48 4022     	 movs r2,#64
 2415 0a4a 0121     	 movs r1,#1
 2416 0a4c 0020     	 movs r0,#0
 2417 0a4e FFF7EEFC 	 bl udi_cdc_ctrl_state_change
 807:../../../platform/common/services/usb/class/cdc/device/udi_cdc.c **** }
 2418              	 .loc 4 807 0
 2419 0a52 00BF     	 nop
 2420 0a54 80BD     	 pop {r7,pc}
 2421              	 .cfi_endproc
 2422              	.LFE147:
 2424              	 .align 1
 2425              	 .global udi_cdc_multi_ctrl_signal_dcd
 2426              	 .syntax unified
 2427              	 .thumb
 2428              	 .thumb_func
 2429              	 .fpu softvfp
 2431              	udi_cdc_multi_ctrl_signal_dcd:
 2432              	.LFB148:
 808:../../../platform/common/services/usb/class/cdc/device/udi_cdc.c **** 
 809:../../../platform/common/services/usb/class/cdc/device/udi_cdc.c **** void udi_cdc_multi_ctrl_signal_dcd(uint8_t port, bool b_set)
 810:../../../platform/common/services/usb/class/cdc/device/udi_cdc.c **** {
 2433              	 .loc 4 810 0
 2434              	 .cfi_startproc
 2435              	 
 2436              	 
 2437 0a56 80B5     	 push {r7,lr}
 2438              	.LCFI113:
 2439              	 .cfi_def_cfa_offset 8
 2440              	 .cfi_offset 7,-8
 2441              	 .cfi_offset 14,-4
 2442 0a58 82B0     	 sub sp,sp,#8
 2443              	.LCFI114:
 2444              	 .cfi_def_cfa_offset 16
 2445 0a5a 00AF     	 add r7,sp,#0
 2446              	.LCFI115:
 2447              	 .cfi_def_cfa_register 7
 2448 0a5c 0346     	 mov r3,r0
 2449 0a5e 0A46     	 mov r2,r1
 2450 0a60 FB71     	 strb r3,[r7,#7]
 2451 0a62 1346     	 mov r3,r2
 2452 0a64 BB71     	 strb r3,[r7,#6]
 811:../../../platform/common/services/usb/class/cdc/device/udi_cdc.c **** 	udi_cdc_ctrl_state_change(port, b_set, CDC_SERIAL_STATE_DCD);
 2453              	 .loc 4 811 0
 2454 0a66 B979     	 ldrb r1,[r7,#6]
 2455 0a68 FB79     	 ldrb r3,[r7,#7]
 2456 0a6a 0122     	 movs r2,#1
 2457 0a6c 1846     	 mov r0,r3
 2458 0a6e FFF7DEFC 	 bl udi_cdc_ctrl_state_change
 812:../../../platform/common/services/usb/class/cdc/device/udi_cdc.c **** }
 2459              	 .loc 4 812 0
 2460 0a72 00BF     	 nop
 2461 0a74 0837     	 adds r7,r7,#8
 2462              	.LCFI116:
 2463              	 .cfi_def_cfa_offset 8
 2464 0a76 BD46     	 mov sp,r7
 2465              	.LCFI117:
 2466              	 .cfi_def_cfa_register 13
 2467              	 
 2468 0a78 80BD     	 pop {r7,pc}
 2469              	 .cfi_endproc
 2470              	.LFE148:
 2472              	 .align 1
 2473              	 .global udi_cdc_multi_ctrl_signal_dsr
 2474              	 .syntax unified
 2475              	 .thumb
 2476              	 .thumb_func
 2477              	 .fpu softvfp
 2479              	udi_cdc_multi_ctrl_signal_dsr:
 2480              	.LFB149:
 813:../../../platform/common/services/usb/class/cdc/device/udi_cdc.c **** 
 814:../../../platform/common/services/usb/class/cdc/device/udi_cdc.c **** void udi_cdc_multi_ctrl_signal_dsr(uint8_t port, bool b_set)
 815:../../../platform/common/services/usb/class/cdc/device/udi_cdc.c **** {
 2481              	 .loc 4 815 0
 2482              	 .cfi_startproc
 2483              	 
 2484              	 
 2485 0a7a 80B5     	 push {r7,lr}
 2486              	.LCFI118:
 2487              	 .cfi_def_cfa_offset 8
 2488              	 .cfi_offset 7,-8
 2489              	 .cfi_offset 14,-4
 2490 0a7c 82B0     	 sub sp,sp,#8
 2491              	.LCFI119:
 2492              	 .cfi_def_cfa_offset 16
 2493 0a7e 00AF     	 add r7,sp,#0
 2494              	.LCFI120:
 2495              	 .cfi_def_cfa_register 7
 2496 0a80 0346     	 mov r3,r0
 2497 0a82 0A46     	 mov r2,r1
 2498 0a84 FB71     	 strb r3,[r7,#7]
 2499 0a86 1346     	 mov r3,r2
 2500 0a88 BB71     	 strb r3,[r7,#6]
 816:../../../platform/common/services/usb/class/cdc/device/udi_cdc.c **** 	udi_cdc_ctrl_state_change(port, b_set, CDC_SERIAL_STATE_DSR);
 2501              	 .loc 4 816 0
 2502 0a8a B979     	 ldrb r1,[r7,#6]
 2503 0a8c FB79     	 ldrb r3,[r7,#7]
 2504 0a8e 0222     	 movs r2,#2
 2505 0a90 1846     	 mov r0,r3
 2506 0a92 FFF7CCFC 	 bl udi_cdc_ctrl_state_change
 817:../../../platform/common/services/usb/class/cdc/device/udi_cdc.c **** }
 2507              	 .loc 4 817 0
 2508 0a96 00BF     	 nop
 2509 0a98 0837     	 adds r7,r7,#8
 2510              	.LCFI121:
 2511              	 .cfi_def_cfa_offset 8
 2512 0a9a BD46     	 mov sp,r7
 2513              	.LCFI122:
 2514              	 .cfi_def_cfa_register 13
 2515              	 
 2516 0a9c 80BD     	 pop {r7,pc}
 2517              	 .cfi_endproc
 2518              	.LFE149:
 2520              	 .align 1
 2521              	 .global udi_cdc_multi_signal_framing_error
 2522              	 .syntax unified
 2523              	 .thumb
 2524              	 .thumb_func
 2525              	 .fpu softvfp
 2527              	udi_cdc_multi_signal_framing_error:
 2528              	.LFB150:
 818:../../../platform/common/services/usb/class/cdc/device/udi_cdc.c **** 
 819:../../../platform/common/services/usb/class/cdc/device/udi_cdc.c **** void udi_cdc_multi_signal_framing_error(uint8_t port)
 820:../../../platform/common/services/usb/class/cdc/device/udi_cdc.c **** {
 2529              	 .loc 4 820 0
 2530              	 .cfi_startproc
 2531              	 
 2532              	 
 2533 0a9e 80B5     	 push {r7,lr}
 2534              	.LCFI123:
 2535              	 .cfi_def_cfa_offset 8
 2536              	 .cfi_offset 7,-8
 2537              	 .cfi_offset 14,-4
 2538 0aa0 82B0     	 sub sp,sp,#8
 2539              	.LCFI124:
 2540              	 .cfi_def_cfa_offset 16
 2541 0aa2 00AF     	 add r7,sp,#0
 2542              	.LCFI125:
 2543              	 .cfi_def_cfa_register 7
 2544 0aa4 0346     	 mov r3,r0
 2545 0aa6 FB71     	 strb r3,[r7,#7]
 821:../../../platform/common/services/usb/class/cdc/device/udi_cdc.c **** 	udi_cdc_ctrl_state_change(port, true, CDC_SERIAL_STATE_FRAMING);
 2546              	 .loc 4 821 0
 2547 0aa8 FB79     	 ldrb r3,[r7,#7]
 2548 0aaa 1022     	 movs r2,#16
 2549 0aac 0121     	 movs r1,#1
 2550 0aae 1846     	 mov r0,r3
 2551 0ab0 FFF7BDFC 	 bl udi_cdc_ctrl_state_change
 822:../../../platform/common/services/usb/class/cdc/device/udi_cdc.c **** }
 2552              	 .loc 4 822 0
 2553 0ab4 00BF     	 nop
 2554 0ab6 0837     	 adds r7,r7,#8
 2555              	.LCFI126:
 2556              	 .cfi_def_cfa_offset 8
 2557 0ab8 BD46     	 mov sp,r7
 2558              	.LCFI127:
 2559              	 .cfi_def_cfa_register 13
 2560              	 
 2561 0aba 80BD     	 pop {r7,pc}
 2562              	 .cfi_endproc
 2563              	.LFE150:
 2565              	 .align 1
 2566              	 .global udi_cdc_multi_signal_parity_error
 2567              	 .syntax unified
 2568              	 .thumb
 2569              	 .thumb_func
 2570              	 .fpu softvfp
 2572              	udi_cdc_multi_signal_parity_error:
 2573              	.LFB151:
 823:../../../platform/common/services/usb/class/cdc/device/udi_cdc.c **** 
 824:../../../platform/common/services/usb/class/cdc/device/udi_cdc.c **** void udi_cdc_multi_signal_parity_error(uint8_t port)
 825:../../../platform/common/services/usb/class/cdc/device/udi_cdc.c **** {
 2574              	 .loc 4 825 0
 2575              	 .cfi_startproc
 2576              	 
 2577              	 
 2578 0abc 80B5     	 push {r7,lr}
 2579              	.LCFI128:
 2580              	 .cfi_def_cfa_offset 8
 2581              	 .cfi_offset 7,-8
 2582              	 .cfi_offset 14,-4
 2583 0abe 82B0     	 sub sp,sp,#8
 2584              	.LCFI129:
 2585              	 .cfi_def_cfa_offset 16
 2586 0ac0 00AF     	 add r7,sp,#0
 2587              	.LCFI130:
 2588              	 .cfi_def_cfa_register 7
 2589 0ac2 0346     	 mov r3,r0
 2590 0ac4 FB71     	 strb r3,[r7,#7]
 826:../../../platform/common/services/usb/class/cdc/device/udi_cdc.c **** 	udi_cdc_ctrl_state_change(port, true, CDC_SERIAL_STATE_PARITY);
 2591              	 .loc 4 826 0
 2592 0ac6 FB79     	 ldrb r3,[r7,#7]
 2593 0ac8 2022     	 movs r2,#32
 2594 0aca 0121     	 movs r1,#1
 2595 0acc 1846     	 mov r0,r3
 2596 0ace FFF7AEFC 	 bl udi_cdc_ctrl_state_change
 827:../../../platform/common/services/usb/class/cdc/device/udi_cdc.c **** }
 2597              	 .loc 4 827 0
 2598 0ad2 00BF     	 nop
 2599 0ad4 0837     	 adds r7,r7,#8
 2600              	.LCFI131:
 2601              	 .cfi_def_cfa_offset 8
 2602 0ad6 BD46     	 mov sp,r7
 2603              	.LCFI132:
 2604              	 .cfi_def_cfa_register 13
 2605              	 
 2606 0ad8 80BD     	 pop {r7,pc}
 2607              	 .cfi_endproc
 2608              	.LFE151:
 2610              	 .align 1
 2611              	 .global udi_cdc_multi_signal_overrun
 2612              	 .syntax unified
 2613              	 .thumb
 2614              	 .thumb_func
 2615              	 .fpu softvfp
 2617              	udi_cdc_multi_signal_overrun:
 2618              	.LFB152:
 828:../../../platform/common/services/usb/class/cdc/device/udi_cdc.c **** 
 829:../../../platform/common/services/usb/class/cdc/device/udi_cdc.c **** void udi_cdc_multi_signal_overrun(uint8_t port)
 830:../../../platform/common/services/usb/class/cdc/device/udi_cdc.c **** {
 2619              	 .loc 4 830 0
 2620              	 .cfi_startproc
 2621              	 
 2622              	 
 2623 0ada 80B5     	 push {r7,lr}
 2624              	.LCFI133:
 2625              	 .cfi_def_cfa_offset 8
 2626              	 .cfi_offset 7,-8
 2627              	 .cfi_offset 14,-4
 2628 0adc 82B0     	 sub sp,sp,#8
 2629              	.LCFI134:
 2630              	 .cfi_def_cfa_offset 16
 2631 0ade 00AF     	 add r7,sp,#0
 2632              	.LCFI135:
 2633              	 .cfi_def_cfa_register 7
 2634 0ae0 0346     	 mov r3,r0
 2635 0ae2 FB71     	 strb r3,[r7,#7]
 831:../../../platform/common/services/usb/class/cdc/device/udi_cdc.c **** 	udi_cdc_ctrl_state_change(port, true, CDC_SERIAL_STATE_OVERRUN);
 2636              	 .loc 4 831 0
 2637 0ae4 FB79     	 ldrb r3,[r7,#7]
 2638 0ae6 4022     	 movs r2,#64
 2639 0ae8 0121     	 movs r1,#1
 2640 0aea 1846     	 mov r0,r3
 2641 0aec FFF79FFC 	 bl udi_cdc_ctrl_state_change
 832:../../../platform/common/services/usb/class/cdc/device/udi_cdc.c **** }
 2642              	 .loc 4 832 0
 2643 0af0 00BF     	 nop
 2644 0af2 0837     	 adds r7,r7,#8
 2645              	.LCFI136:
 2646              	 .cfi_def_cfa_offset 8
 2647 0af4 BD46     	 mov sp,r7
 2648              	.LCFI137:
 2649              	 .cfi_def_cfa_register 13
 2650              	 
 2651 0af6 80BD     	 pop {r7,pc}
 2652              	 .cfi_endproc
 2653              	.LFE152:
 2655              	 .align 1
 2656              	 .global udi_cdc_multi_get_nb_received_data
 2657              	 .syntax unified
 2658              	 .thumb
 2659              	 .thumb_func
 2660              	 .fpu softvfp
 2662              	udi_cdc_multi_get_nb_received_data:
 2663              	.LFB153:
 833:../../../platform/common/services/usb/class/cdc/device/udi_cdc.c **** 
 834:../../../platform/common/services/usb/class/cdc/device/udi_cdc.c **** iram_size_t udi_cdc_multi_get_nb_received_data(uint8_t port)
 835:../../../platform/common/services/usb/class/cdc/device/udi_cdc.c **** {
 2664              	 .loc 4 835 0
 2665              	 .cfi_startproc
 2666              	 
 2667              	 
 2668 0af8 80B5     	 push {r7,lr}
 2669              	.LCFI138:
 2670              	 .cfi_def_cfa_offset 8
 2671              	 .cfi_offset 7,-8
 2672              	 .cfi_offset 14,-4
 2673 0afa 86B0     	 sub sp,sp,#24
 2674              	.LCFI139:
 2675              	 .cfi_def_cfa_offset 32
 2676 0afc 00AF     	 add r7,sp,#0
 2677              	.LCFI140:
 2678              	 .cfi_def_cfa_register 7
 2679 0afe 0346     	 mov r3,r0
 2680 0b00 FB71     	 strb r3,[r7,#7]
 836:../../../platform/common/services/usb/class/cdc/device/udi_cdc.c **** 	irqflags_t flags;
 837:../../../platform/common/services/usb/class/cdc/device/udi_cdc.c **** 	uint16_t pos;
 838:../../../platform/common/services/usb/class/cdc/device/udi_cdc.c **** 	iram_size_t nb_received;
 839:../../../platform/common/services/usb/class/cdc/device/udi_cdc.c **** 
 840:../../../platform/common/services/usb/class/cdc/device/udi_cdc.c **** #if UDI_CDC_PORT_NB == 1 // To optimize code
 841:../../../platform/common/services/usb/class/cdc/device/udi_cdc.c **** 	port = 0;
 2681              	 .loc 4 841 0
 2682 0b02 0023     	 movs r3,#0
 2683 0b04 FB71     	 strb r3,[r7,#7]
 842:../../../platform/common/services/usb/class/cdc/device/udi_cdc.c **** #endif
 843:../../../platform/common/services/usb/class/cdc/device/udi_cdc.c **** 	flags = cpu_irq_save();
 2684              	 .loc 4 843 0
 2685 0b06 FFF77BFA 	 bl cpu_irq_save
 2686 0b0a 7861     	 str r0,[r7,#20]
 844:../../../platform/common/services/usb/class/cdc/device/udi_cdc.c **** 	pos = udi_cdc_rx_pos[port];
 2687              	 .loc 4 844 0
 2688 0b0c FB79     	 ldrb r3,[r7,#7]
 2689 0b0e 0D4A     	 ldr r2,.L147
 2690 0b10 32F81330 	 ldrh r3,[r2,r3,lsl#1]
 2691 0b14 7B82     	 strh r3,[r7,#18]
 845:../../../platform/common/services/usb/class/cdc/device/udi_cdc.c **** 	nb_received = udi_cdc_rx_buf_nb[port][udi_cdc_rx_buf_sel[port]] - pos;
 2692              	 .loc 4 845 0
 2693 0b16 FB79     	 ldrb r3,[r7,#7]
 2694 0b18 FA79     	 ldrb r2,[r7,#7]
 2695 0b1a 0B49     	 ldr r1,.L147+4
 2696 0b1c 8A5C     	 ldrb r2,[r1,r2]
 2697 0b1e D2B2     	 uxtb r2,r2
 2698 0b20 1146     	 mov r1,r2
 2699 0b22 0A4A     	 ldr r2,.L147+8
 2700 0b24 5B00     	 lsls r3,r3,#1
 2701 0b26 0B44     	 add r3,r3,r1
 2702 0b28 32F81330 	 ldrh r3,[r2,r3,lsl#1]
 2703 0b2c 1A46     	 mov r2,r3
 2704 0b2e 7B8A     	 ldrh r3,[r7,#18]
 2705 0b30 D31A     	 subs r3,r2,r3
 2706 0b32 FB60     	 str r3,[r7,#12]
 846:../../../platform/common/services/usb/class/cdc/device/udi_cdc.c **** 	cpu_irq_restore(flags);
 2707              	 .loc 4 846 0
 2708 0b34 7869     	 ldr r0,[r7,#20]
 2709 0b36 FFF78EFA 	 bl cpu_irq_restore
 847:../../../platform/common/services/usb/class/cdc/device/udi_cdc.c **** 	return nb_received;
 2710              	 .loc 4 847 0
 2711 0b3a FB68     	 ldr r3,[r7,#12]
 848:../../../platform/common/services/usb/class/cdc/device/udi_cdc.c **** }
 2712              	 .loc 4 848 0
 2713 0b3c 1846     	 mov r0,r3
 2714 0b3e 1837     	 adds r7,r7,#24
 2715              	.LCFI141:
 2716              	 .cfi_def_cfa_offset 8
 2717 0b40 BD46     	 mov sp,r7
 2718              	.LCFI142:
 2719              	 .cfi_def_cfa_register 13
 2720              	 
 2721 0b42 80BD     	 pop {r7,pc}
 2722              	.L148:
 2723              	 .align 2
 2724              	.L147:
 2725 0b44 00000000 	 .word udi_cdc_rx_pos
 2726 0b48 00000000 	 .word udi_cdc_rx_buf_sel
 2727 0b4c 00000000 	 .word udi_cdc_rx_buf_nb
 2728              	 .cfi_endproc
 2729              	.LFE153:
 2731              	 .align 1
 2732              	 .global udi_cdc_get_nb_received_data
 2733              	 .syntax unified
 2734              	 .thumb
 2735              	 .thumb_func
 2736              	 .fpu softvfp
 2738              	udi_cdc_get_nb_received_data:
 2739              	.LFB154:
 849:../../../platform/common/services/usb/class/cdc/device/udi_cdc.c **** 
 850:../../../platform/common/services/usb/class/cdc/device/udi_cdc.c **** iram_size_t udi_cdc_get_nb_received_data(void)
 851:../../../platform/common/services/usb/class/cdc/device/udi_cdc.c **** {
 2740              	 .loc 4 851 0
 2741              	 .cfi_startproc
 2742              	 
 2743              	 
 2744 0b50 80B5     	 push {r7,lr}
 2745              	.LCFI143:
 2746              	 .cfi_def_cfa_offset 8
 2747              	 .cfi_offset 7,-8
 2748              	 .cfi_offset 14,-4
 2749 0b52 00AF     	 add r7,sp,#0
 2750              	.LCFI144:
 2751              	 .cfi_def_cfa_register 7
 852:../../../platform/common/services/usb/class/cdc/device/udi_cdc.c **** 	return udi_cdc_multi_get_nb_received_data(0);
 2752              	 .loc 4 852 0
 2753 0b54 0020     	 movs r0,#0
 2754 0b56 FFF7FEFF 	 bl udi_cdc_multi_get_nb_received_data
 2755 0b5a 0346     	 mov r3,r0
 853:../../../platform/common/services/usb/class/cdc/device/udi_cdc.c **** }
 2756              	 .loc 4 853 0
 2757 0b5c 1846     	 mov r0,r3
 2758 0b5e 80BD     	 pop {r7,pc}
 2759              	 .cfi_endproc
 2760              	.LFE154:
 2762              	 .align 1
 2763              	 .global udi_cdc_multi_is_rx_ready
 2764              	 .syntax unified
 2765              	 .thumb
 2766              	 .thumb_func
 2767              	 .fpu softvfp
 2769              	udi_cdc_multi_is_rx_ready:
 2770              	.LFB155:
 854:../../../platform/common/services/usb/class/cdc/device/udi_cdc.c **** 
 855:../../../platform/common/services/usb/class/cdc/device/udi_cdc.c **** bool udi_cdc_multi_is_rx_ready(uint8_t port)
 856:../../../platform/common/services/usb/class/cdc/device/udi_cdc.c **** {
 2771              	 .loc 4 856 0
 2772              	 .cfi_startproc
 2773              	 
 2774              	 
 2775 0b60 80B5     	 push {r7,lr}
 2776              	.LCFI145:
 2777              	 .cfi_def_cfa_offset 8
 2778              	 .cfi_offset 7,-8
 2779              	 .cfi_offset 14,-4
 2780 0b62 82B0     	 sub sp,sp,#8
 2781              	.LCFI146:
 2782              	 .cfi_def_cfa_offset 16
 2783 0b64 00AF     	 add r7,sp,#0
 2784              	.LCFI147:
 2785              	 .cfi_def_cfa_register 7
 2786 0b66 0346     	 mov r3,r0
 2787 0b68 FB71     	 strb r3,[r7,#7]
 857:../../../platform/common/services/usb/class/cdc/device/udi_cdc.c **** 	return (udi_cdc_multi_get_nb_received_data(port) > 0);
 2788              	 .loc 4 857 0
 2789 0b6a FB79     	 ldrb r3,[r7,#7]
 2790 0b6c 1846     	 mov r0,r3
 2791 0b6e FFF7FEFF 	 bl udi_cdc_multi_get_nb_received_data
 2792 0b72 0346     	 mov r3,r0
 2793 0b74 002B     	 cmp r3,#0
 2794 0b76 14BF     	 ite ne
 2795 0b78 0123     	 movne r3,#1
 2796 0b7a 0023     	 moveq r3,#0
 2797 0b7c DBB2     	 uxtb r3,r3
 858:../../../platform/common/services/usb/class/cdc/device/udi_cdc.c **** }
 2798              	 .loc 4 858 0
 2799 0b7e 1846     	 mov r0,r3
 2800 0b80 0837     	 adds r7,r7,#8
 2801              	.LCFI148:
 2802              	 .cfi_def_cfa_offset 8
 2803 0b82 BD46     	 mov sp,r7
 2804              	.LCFI149:
 2805              	 .cfi_def_cfa_register 13
 2806              	 
 2807 0b84 80BD     	 pop {r7,pc}
 2808              	 .cfi_endproc
 2809              	.LFE155:
 2811              	 .align 1
 2812              	 .global udi_cdc_is_rx_ready
 2813              	 .syntax unified
 2814              	 .thumb
 2815              	 .thumb_func
 2816              	 .fpu softvfp
 2818              	udi_cdc_is_rx_ready:
 2819              	.LFB156:
 859:../../../platform/common/services/usb/class/cdc/device/udi_cdc.c **** 
 860:../../../platform/common/services/usb/class/cdc/device/udi_cdc.c **** bool udi_cdc_is_rx_ready(void)
 861:../../../platform/common/services/usb/class/cdc/device/udi_cdc.c **** {
 2820              	 .loc 4 861 0
 2821              	 .cfi_startproc
 2822              	 
 2823              	 
 2824 0b86 80B5     	 push {r7,lr}
 2825              	.LCFI150:
 2826              	 .cfi_def_cfa_offset 8
 2827              	 .cfi_offset 7,-8
 2828              	 .cfi_offset 14,-4
 2829 0b88 00AF     	 add r7,sp,#0
 2830              	.LCFI151:
 2831              	 .cfi_def_cfa_register 7
 862:../../../platform/common/services/usb/class/cdc/device/udi_cdc.c **** 	return udi_cdc_multi_is_rx_ready(0);
 2832              	 .loc 4 862 0
 2833 0b8a 0020     	 movs r0,#0
 2834 0b8c FFF7FEFF 	 bl udi_cdc_multi_is_rx_ready
 2835 0b90 0346     	 mov r3,r0
 863:../../../platform/common/services/usb/class/cdc/device/udi_cdc.c **** }
 2836              	 .loc 4 863 0
 2837 0b92 1846     	 mov r0,r3
 2838 0b94 80BD     	 pop {r7,pc}
 2839              	 .cfi_endproc
 2840              	.LFE156:
 2842              	 .align 1
 2843              	 .global udi_cdc_multi_getc
 2844              	 .syntax unified
 2845              	 .thumb
 2846              	 .thumb_func
 2847              	 .fpu softvfp
 2849              	udi_cdc_multi_getc:
 2850              	.LFB157:
 864:../../../platform/common/services/usb/class/cdc/device/udi_cdc.c **** 
 865:../../../platform/common/services/usb/class/cdc/device/udi_cdc.c **** int udi_cdc_multi_getc(uint8_t port)
 866:../../../platform/common/services/usb/class/cdc/device/udi_cdc.c **** {
 2851              	 .loc 4 866 0
 2852              	 .cfi_startproc
 2853              	 
 2854              	 
 2855 0b96 90B5     	 push {r4,r7,lr}
 2856              	.LCFI152:
 2857              	 .cfi_def_cfa_offset 12
 2858              	 .cfi_offset 4,-12
 2859              	 .cfi_offset 7,-8
 2860              	 .cfi_offset 14,-4
 2861 0b98 87B0     	 sub sp,sp,#28
 2862              	.LCFI153:
 2863              	 .cfi_def_cfa_offset 40
 2864 0b9a 00AF     	 add r7,sp,#0
 2865              	.LCFI154:
 2866              	 .cfi_def_cfa_register 7
 2867 0b9c 0346     	 mov r3,r0
 2868 0b9e FB71     	 strb r3,[r7,#7]
 867:../../../platform/common/services/usb/class/cdc/device/udi_cdc.c **** 	irqflags_t flags;
 868:../../../platform/common/services/usb/class/cdc/device/udi_cdc.c **** 	int rx_data = 0;
 2869              	 .loc 4 868 0
 2870 0ba0 0023     	 movs r3,#0
 2871 0ba2 7B61     	 str r3,[r7,#20]
 869:../../../platform/common/services/usb/class/cdc/device/udi_cdc.c **** 	bool b_databit_9;
 870:../../../platform/common/services/usb/class/cdc/device/udi_cdc.c **** 	uint16_t pos;
 871:../../../platform/common/services/usb/class/cdc/device/udi_cdc.c **** 	uint8_t buf_sel;
 872:../../../platform/common/services/usb/class/cdc/device/udi_cdc.c **** 
 873:../../../platform/common/services/usb/class/cdc/device/udi_cdc.c **** #if UDI_CDC_PORT_NB == 1 // To optimize code
 874:../../../platform/common/services/usb/class/cdc/device/udi_cdc.c **** 	port = 0;
 2872              	 .loc 4 874 0
 2873 0ba4 0023     	 movs r3,#0
 2874 0ba6 FB71     	 strb r3,[r7,#7]
 875:../../../platform/common/services/usb/class/cdc/device/udi_cdc.c **** #endif
 876:../../../platform/common/services/usb/class/cdc/device/udi_cdc.c **** 
 877:../../../platform/common/services/usb/class/cdc/device/udi_cdc.c **** 	b_databit_9 = (9 == udi_cdc_line_coding[port].bDataBits);
 2875              	 .loc 4 877 0
 2876 0ba8 FA79     	 ldrb r2,[r7,#7]
 2877 0baa 2F49     	 ldr r1,.L163
 2878 0bac 1346     	 mov r3,r2
 2879 0bae DB00     	 lsls r3,r3,#3
 2880 0bb0 9B1A     	 subs r3,r3,r2
 2881 0bb2 0B44     	 add r3,r3,r1
 2882 0bb4 0633     	 adds r3,r3,#6
 2883 0bb6 1B78     	 ldrb r3,[r3]
 2884 0bb8 092B     	 cmp r3,#9
 2885 0bba 0CBF     	 ite eq
 2886 0bbc 0123     	 moveq r3,#1
 2887 0bbe 0023     	 movne r3,#0
 2888 0bc0 FB74     	 strb r3,[r7,#19]
 2889              	.L156:
 878:../../../platform/common/services/usb/class/cdc/device/udi_cdc.c **** 
 879:../../../platform/common/services/usb/class/cdc/device/udi_cdc.c **** udi_cdc_getc_process_one_byte:
 880:../../../platform/common/services/usb/class/cdc/device/udi_cdc.c **** 	// Check available data
 881:../../../platform/common/services/usb/class/cdc/device/udi_cdc.c **** 	flags = cpu_irq_save();
 2890              	 .loc 4 881 0
 2891 0bc2 FFF71DFA 	 bl cpu_irq_save
 2892 0bc6 F860     	 str r0,[r7,#12]
 882:../../../platform/common/services/usb/class/cdc/device/udi_cdc.c **** 	pos = udi_cdc_rx_pos[port];
 2893              	 .loc 4 882 0
 2894 0bc8 FB79     	 ldrb r3,[r7,#7]
 2895 0bca 284A     	 ldr r2,.L163+4
 2896 0bcc 32F81330 	 ldrh r3,[r2,r3,lsl#1]
 2897 0bd0 7B81     	 strh r3,[r7,#10]
 883:../../../platform/common/services/usb/class/cdc/device/udi_cdc.c **** 	buf_sel = udi_cdc_rx_buf_sel[port];
 2898              	 .loc 4 883 0
 2899 0bd2 FB79     	 ldrb r3,[r7,#7]
 2900 0bd4 264A     	 ldr r2,.L163+8
 2901 0bd6 D35C     	 ldrb r3,[r2,r3]
 2902 0bd8 7B72     	 strb r3,[r7,#9]
 884:../../../platform/common/services/usb/class/cdc/device/udi_cdc.c **** 	cpu_irq_restore(flags);
 2903              	 .loc 4 884 0
 2904 0bda F868     	 ldr r0,[r7,#12]
 2905 0bdc FFF73BFA 	 bl cpu_irq_restore
 885:../../../platform/common/services/usb/class/cdc/device/udi_cdc.c **** 	while (pos >= udi_cdc_rx_buf_nb[port][buf_sel]) {
 2906              	 .loc 4 885 0
 2907 0be0 00BF     	 nop
 2908 0be2 FA79     	 ldrb r2,[r7,#7]
 2909 0be4 7B7A     	 ldrb r3,[r7,#9]
 2910 0be6 2349     	 ldr r1,.L163+12
 2911 0be8 5200     	 lsls r2,r2,#1
 2912 0bea 1344     	 add r3,r3,r2
 2913 0bec 31F81330 	 ldrh r3,[r1,r3,lsl#1]
 2914 0bf0 7A89     	 ldrh r2,[r7,#10]
 2915 0bf2 9A42     	 cmp r2,r3
 2916 0bf4 09D3     	 bcc .L162
 886:../../../platform/common/services/usb/class/cdc/device/udi_cdc.c **** 		if (!udi_cdc_data_running) {
 2917              	 .loc 4 886 0
 2918 0bf6 204B     	 ldr r3,.L163+16
 2919 0bf8 1B78     	 ldrb r3,[r3]
 2920 0bfa DBB2     	 uxtb r3,r3
 2921 0bfc 83F00103 	 eor r3,r3,#1
 2922 0c00 DBB2     	 uxtb r3,r3
 2923 0c02 002B     	 cmp r3,#0
 2924 0c04 DDD0     	 beq .L156
 887:../../../platform/common/services/usb/class/cdc/device/udi_cdc.c **** 			return 0;
 2925              	 .loc 4 887 0
 2926 0c06 0023     	 movs r3,#0
 2927 0c08 29E0     	 b .L159
 2928              	.L162:
 888:../../../platform/common/services/usb/class/cdc/device/udi_cdc.c **** 		}
 889:../../../platform/common/services/usb/class/cdc/device/udi_cdc.c **** 		goto udi_cdc_getc_process_one_byte;
 890:../../../platform/common/services/usb/class/cdc/device/udi_cdc.c **** 	}
 891:../../../platform/common/services/usb/class/cdc/device/udi_cdc.c **** 
 892:../../../platform/common/services/usb/class/cdc/device/udi_cdc.c **** 	// Read data
 893:../../../platform/common/services/usb/class/cdc/device/udi_cdc.c **** 	rx_data |= udi_cdc_rx_buf[port][buf_sel][pos];
 2929              	 .loc 4 893 0
 2930 0c0a F979     	 ldrb r1,[r7,#7]
 2931 0c0c 7B7A     	 ldrb r3,[r7,#9]
 2932 0c0e 7889     	 ldrh r0,[r7,#10]
 2933 0c10 1A4C     	 ldr r4,.L163+20
 2934 0c12 1A46     	 mov r2,r3
 2935 0c14 9200     	 lsls r2,r2,#2
 2936 0c16 1A44     	 add r2,r2,r3
 2937 0c18 9301     	 lsls r3,r2,#6
 2938 0c1a 1A46     	 mov r2,r3
 2939 0c1c 0B46     	 mov r3,r1
 2940 0c1e 9B00     	 lsls r3,r3,#2
 2941 0c20 0B44     	 add r3,r3,r1
 2942 0c22 DB01     	 lsls r3,r3,#7
 2943 0c24 1344     	 add r3,r3,r2
 2944 0c26 2344     	 add r3,r3,r4
 2945 0c28 0344     	 add r3,r3,r0
 2946 0c2a 1B78     	 ldrb r3,[r3]
 2947 0c2c 1A46     	 mov r2,r3
 2948 0c2e 7B69     	 ldr r3,[r7,#20]
 2949 0c30 1343     	 orrs r3,r3,r2
 2950 0c32 7B61     	 str r3,[r7,#20]
 894:../../../platform/common/services/usb/class/cdc/device/udi_cdc.c **** 	udi_cdc_rx_pos[port] = pos+1;
 2951              	 .loc 4 894 0
 2952 0c34 FB79     	 ldrb r3,[r7,#7]
 2953 0c36 7A89     	 ldrh r2,[r7,#10]
 2954 0c38 0132     	 adds r2,r2,#1
 2955 0c3a 91B2     	 uxth r1,r2
 2956 0c3c 0B4A     	 ldr r2,.L163+4
 2957 0c3e 22F81310 	 strh r1,[r2,r3,lsl#1]
 895:../../../platform/common/services/usb/class/cdc/device/udi_cdc.c **** 
 896:../../../platform/common/services/usb/class/cdc/device/udi_cdc.c **** 	udi_cdc_rx_start(port);
 2958              	 .loc 4 896 0
 2959 0c42 FB79     	 ldrb r3,[r7,#7]
 2960 0c44 1846     	 mov r0,r3
 2961 0c46 FFF7D1FC 	 bl udi_cdc_rx_start
 897:../../../platform/common/services/usb/class/cdc/device/udi_cdc.c **** 
 898:../../../platform/common/services/usb/class/cdc/device/udi_cdc.c **** 	if (b_databit_9) {
 2962              	 .loc 4 898 0
 2963 0c4a FB7C     	 ldrb r3,[r7,#19]
 2964 0c4c 002B     	 cmp r3,#0
 2965 0c4e 05D0     	 beq .L161
 899:../../../platform/common/services/usb/class/cdc/device/udi_cdc.c **** 		// Receive MSB
 900:../../../platform/common/services/usb/class/cdc/device/udi_cdc.c **** 		b_databit_9 = false;
 2966              	 .loc 4 900 0
 2967 0c50 0023     	 movs r3,#0
 2968 0c52 FB74     	 strb r3,[r7,#19]
 901:../../../platform/common/services/usb/class/cdc/device/udi_cdc.c **** 		rx_data = rx_data << 8;
 2969              	 .loc 4 901 0
 2970 0c54 7B69     	 ldr r3,[r7,#20]
 2971 0c56 1B02     	 lsls r3,r3,#8
 2972 0c58 7B61     	 str r3,[r7,#20]
 902:../../../platform/common/services/usb/class/cdc/device/udi_cdc.c **** 		goto udi_cdc_getc_process_one_byte;
 2973              	 .loc 4 902 0
 2974 0c5a B2E7     	 b .L156
 2975              	.L161:
 903:../../../platform/common/services/usb/class/cdc/device/udi_cdc.c **** 	}
 904:../../../platform/common/services/usb/class/cdc/device/udi_cdc.c **** 	return rx_data;
 2976              	 .loc 4 904 0
 2977 0c5c 7B69     	 ldr r3,[r7,#20]
 2978              	.L159:
 905:../../../platform/common/services/usb/class/cdc/device/udi_cdc.c **** }
 2979              	 .loc 4 905 0
 2980 0c5e 1846     	 mov r0,r3
 2981 0c60 1C37     	 adds r7,r7,#28
 2982              	.LCFI155:
 2983              	 .cfi_def_cfa_offset 12
 2984 0c62 BD46     	 mov sp,r7
 2985              	.LCFI156:
 2986              	 .cfi_def_cfa_register 13
 2987              	 
 2988 0c64 90BD     	 pop {r4,r7,pc}
 2989              	.L164:
 2990 0c66 00BF     	 .align 2
 2991              	.L163:
 2992 0c68 00000000 	 .word udi_cdc_line_coding
 2993 0c6c 00000000 	 .word udi_cdc_rx_pos
 2994 0c70 00000000 	 .word udi_cdc_rx_buf_sel
 2995 0c74 00000000 	 .word udi_cdc_rx_buf_nb
 2996 0c78 00000000 	 .word udi_cdc_data_running
 2997 0c7c 00000000 	 .word udi_cdc_rx_buf
 2998              	 .cfi_endproc
 2999              	.LFE157:
 3001              	 .align 1
 3002              	 .global udi_cdc_getc
 3003              	 .syntax unified
 3004              	 .thumb
 3005              	 .thumb_func
 3006              	 .fpu softvfp
 3008              	udi_cdc_getc:
 3009              	.LFB158:
 906:../../../platform/common/services/usb/class/cdc/device/udi_cdc.c **** 
 907:../../../platform/common/services/usb/class/cdc/device/udi_cdc.c **** int udi_cdc_getc(void)
 908:../../../platform/common/services/usb/class/cdc/device/udi_cdc.c **** {
 3010              	 .loc 4 908 0
 3011              	 .cfi_startproc
 3012              	 
 3013              	 
 3014 0c80 80B5     	 push {r7,lr}
 3015              	.LCFI157:
 3016              	 .cfi_def_cfa_offset 8
 3017              	 .cfi_offset 7,-8
 3018              	 .cfi_offset 14,-4
 3019 0c82 00AF     	 add r7,sp,#0
 3020              	.LCFI158:
 3021              	 .cfi_def_cfa_register 7
 909:../../../platform/common/services/usb/class/cdc/device/udi_cdc.c **** 	return udi_cdc_multi_getc(0);
 3022              	 .loc 4 909 0
 3023 0c84 0020     	 movs r0,#0
 3024 0c86 FFF7FEFF 	 bl udi_cdc_multi_getc
 3025 0c8a 0346     	 mov r3,r0
 910:../../../platform/common/services/usb/class/cdc/device/udi_cdc.c **** }
 3026              	 .loc 4 910 0
 3027 0c8c 1846     	 mov r0,r3
 3028 0c8e 80BD     	 pop {r7,pc}
 3029              	 .cfi_endproc
 3030              	.LFE158:
 3032              	 .align 1
 3033              	 .global udi_cdc_multi_read_buf
 3034              	 .syntax unified
 3035              	 .thumb
 3036              	 .thumb_func
 3037              	 .fpu softvfp
 3039              	udi_cdc_multi_read_buf:
 3040              	.LFB159:
 911:../../../platform/common/services/usb/class/cdc/device/udi_cdc.c **** 
 912:../../../platform/common/services/usb/class/cdc/device/udi_cdc.c **** iram_size_t udi_cdc_multi_read_buf(uint8_t port, void* buf, iram_size_t size)
 913:../../../platform/common/services/usb/class/cdc/device/udi_cdc.c **** {
 3041              	 .loc 4 913 0
 3042              	 .cfi_startproc
 3043              	 
 3044              	 
 3045 0c90 80B5     	 push {r7,lr}
 3046              	.LCFI159:
 3047              	 .cfi_def_cfa_offset 8
 3048              	 .cfi_offset 7,-8
 3049              	 .cfi_offset 14,-4
 3050 0c92 88B0     	 sub sp,sp,#32
 3051              	.LCFI160:
 3052              	 .cfi_def_cfa_offset 40
 3053 0c94 00AF     	 add r7,sp,#0
 3054              	.LCFI161:
 3055              	 .cfi_def_cfa_register 7
 3056 0c96 0346     	 mov r3,r0
 3057 0c98 B960     	 str r1,[r7,#8]
 3058 0c9a 7A60     	 str r2,[r7,#4]
 3059 0c9c FB73     	 strb r3,[r7,#15]
 914:../../../platform/common/services/usb/class/cdc/device/udi_cdc.c **** 	irqflags_t flags;
 915:../../../platform/common/services/usb/class/cdc/device/udi_cdc.c **** 	uint8_t *ptr_buf = (uint8_t *)buf;
 3060              	 .loc 4 915 0
 3061 0c9e BB68     	 ldr r3,[r7,#8]
 3062 0ca0 FB61     	 str r3,[r7,#28]
 916:../../../platform/common/services/usb/class/cdc/device/udi_cdc.c **** 	iram_size_t copy_nb;
 917:../../../platform/common/services/usb/class/cdc/device/udi_cdc.c **** 	uint16_t pos;
 918:../../../platform/common/services/usb/class/cdc/device/udi_cdc.c **** 	uint8_t buf_sel;
 919:../../../platform/common/services/usb/class/cdc/device/udi_cdc.c **** 
 920:../../../platform/common/services/usb/class/cdc/device/udi_cdc.c **** #if UDI_CDC_PORT_NB == 1 // To optimize code
 921:../../../platform/common/services/usb/class/cdc/device/udi_cdc.c **** 	port = 0;
 3063              	 .loc 4 921 0
 3064 0ca2 0023     	 movs r3,#0
 3065 0ca4 FB73     	 strb r3,[r7,#15]
 3066              	.L168:
 922:../../../platform/common/services/usb/class/cdc/device/udi_cdc.c **** #endif
 923:../../../platform/common/services/usb/class/cdc/device/udi_cdc.c **** 
 924:../../../platform/common/services/usb/class/cdc/device/udi_cdc.c **** udi_cdc_read_buf_loop_wait:
 925:../../../platform/common/services/usb/class/cdc/device/udi_cdc.c **** 	// Check available data
 926:../../../platform/common/services/usb/class/cdc/device/udi_cdc.c **** 	flags = cpu_irq_save();
 3067              	 .loc 4 926 0
 3068 0ca6 FFF7ABF9 	 bl cpu_irq_save
 3069 0caa 7861     	 str r0,[r7,#20]
 927:../../../platform/common/services/usb/class/cdc/device/udi_cdc.c **** 	pos = udi_cdc_rx_pos[port];
 3070              	 .loc 4 927 0
 3071 0cac FB7B     	 ldrb r3,[r7,#15]
 3072 0cae 344A     	 ldr r2,.L176
 3073 0cb0 32F81330 	 ldrh r3,[r2,r3,lsl#1]
 3074 0cb4 7B82     	 strh r3,[r7,#18]
 928:../../../platform/common/services/usb/class/cdc/device/udi_cdc.c **** 	buf_sel = udi_cdc_rx_buf_sel[port];
 3075              	 .loc 4 928 0
 3076 0cb6 FB7B     	 ldrb r3,[r7,#15]
 3077 0cb8 324A     	 ldr r2,.L176+4
 3078 0cba D35C     	 ldrb r3,[r2,r3]
 3079 0cbc 7B74     	 strb r3,[r7,#17]
 929:../../../platform/common/services/usb/class/cdc/device/udi_cdc.c **** 	cpu_irq_restore(flags);
 3080              	 .loc 4 929 0
 3081 0cbe 7869     	 ldr r0,[r7,#20]
 3082 0cc0 FFF7C9F9 	 bl cpu_irq_restore
 930:../../../platform/common/services/usb/class/cdc/device/udi_cdc.c **** 	while (pos >= udi_cdc_rx_buf_nb[port][buf_sel]) {
 3083              	 .loc 4 930 0
 3084 0cc4 00BF     	 nop
 3085 0cc6 FA7B     	 ldrb r2,[r7,#15]
 3086 0cc8 7B7C     	 ldrb r3,[r7,#17]
 3087 0cca 2F49     	 ldr r1,.L176+8
 3088 0ccc 5200     	 lsls r2,r2,#1
 3089 0cce 1344     	 add r3,r3,r2
 3090 0cd0 31F81330 	 ldrh r3,[r1,r3,lsl#1]
 3091 0cd4 7A8A     	 ldrh r2,[r7,#18]
 3092 0cd6 9A42     	 cmp r2,r3
 3093 0cd8 09D3     	 bcc .L175
 931:../../../platform/common/services/usb/class/cdc/device/udi_cdc.c **** 		if (!udi_cdc_data_running) {
 3094              	 .loc 4 931 0
 3095 0cda 2C4B     	 ldr r3,.L176+12
 3096 0cdc 1B78     	 ldrb r3,[r3]
 3097 0cde DBB2     	 uxtb r3,r3
 3098 0ce0 83F00103 	 eor r3,r3,#1
 3099 0ce4 DBB2     	 uxtb r3,r3
 3100 0ce6 002B     	 cmp r3,#0
 3101 0ce8 DDD0     	 beq .L168
 932:../../../platform/common/services/usb/class/cdc/device/udi_cdc.c **** 			return size;
 3102              	 .loc 4 932 0
 3103 0cea 7B68     	 ldr r3,[r7,#4]
 3104 0cec 43E0     	 b .L171
 3105              	.L175:
 933:../../../platform/common/services/usb/class/cdc/device/udi_cdc.c **** 		}
 934:../../../platform/common/services/usb/class/cdc/device/udi_cdc.c **** 		goto udi_cdc_read_buf_loop_wait;
 935:../../../platform/common/services/usb/class/cdc/device/udi_cdc.c **** 	}
 936:../../../platform/common/services/usb/class/cdc/device/udi_cdc.c **** 
 937:../../../platform/common/services/usb/class/cdc/device/udi_cdc.c **** 	// Read data
 938:../../../platform/common/services/usb/class/cdc/device/udi_cdc.c **** 	copy_nb = udi_cdc_rx_buf_nb[port][buf_sel] - pos;
 3106              	 .loc 4 938 0
 3107 0cee FA7B     	 ldrb r2,[r7,#15]
 3108 0cf0 7B7C     	 ldrb r3,[r7,#17]
 3109 0cf2 2549     	 ldr r1,.L176+8
 3110 0cf4 5200     	 lsls r2,r2,#1
 3111 0cf6 1344     	 add r3,r3,r2
 3112 0cf8 31F81330 	 ldrh r3,[r1,r3,lsl#1]
 3113 0cfc 1A46     	 mov r2,r3
 3114 0cfe 7B8A     	 ldrh r3,[r7,#18]
 3115 0d00 D31A     	 subs r3,r2,r3
 3116 0d02 BB61     	 str r3,[r7,#24]
 939:../../../platform/common/services/usb/class/cdc/device/udi_cdc.c **** 	if (copy_nb>size) {
 3117              	 .loc 4 939 0
 3118 0d04 BA69     	 ldr r2,[r7,#24]
 3119 0d06 7B68     	 ldr r3,[r7,#4]
 3120 0d08 9A42     	 cmp r2,r3
 3121 0d0a 01D9     	 bls .L173
 940:../../../platform/common/services/usb/class/cdc/device/udi_cdc.c **** 		copy_nb = size;
 3122              	 .loc 4 940 0
 3123 0d0c 7B68     	 ldr r3,[r7,#4]
 3124 0d0e BB61     	 str r3,[r7,#24]
 3125              	.L173:
 941:../../../platform/common/services/usb/class/cdc/device/udi_cdc.c **** 	}
 942:../../../platform/common/services/usb/class/cdc/device/udi_cdc.c **** 	memcpy(ptr_buf, &udi_cdc_rx_buf[port][buf_sel][pos], copy_nb);
 3126              	 .loc 4 942 0
 3127 0d10 F97B     	 ldrb r1,[r7,#15]
 3128 0d12 7B7C     	 ldrb r3,[r7,#17]
 3129 0d14 788A     	 ldrh r0,[r7,#18]
 3130 0d16 1A46     	 mov r2,r3
 3131 0d18 9200     	 lsls r2,r2,#2
 3132 0d1a 1A44     	 add r2,r2,r3
 3133 0d1c 9301     	 lsls r3,r2,#6
 3134 0d1e 1A46     	 mov r2,r3
 3135 0d20 0B46     	 mov r3,r1
 3136 0d22 9B00     	 lsls r3,r3,#2
 3137 0d24 0B44     	 add r3,r3,r1
 3138 0d26 DB01     	 lsls r3,r3,#7
 3139 0d28 1344     	 add r3,r3,r2
 3140 0d2a 0344     	 add r3,r3,r0
 3141 0d2c 184A     	 ldr r2,.L176+16
 3142 0d2e 1344     	 add r3,r3,r2
 3143 0d30 BA69     	 ldr r2,[r7,#24]
 3144 0d32 1946     	 mov r1,r3
 3145 0d34 F869     	 ldr r0,[r7,#28]
 3146 0d36 174B     	 ldr r3,.L176+20
 3147 0d38 9847     	 blx r3
 3148              	.LVL14:
 943:../../../platform/common/services/usb/class/cdc/device/udi_cdc.c **** 	udi_cdc_rx_pos[port] += copy_nb;
 3149              	 .loc 4 943 0
 3150 0d3a FB7B     	 ldrb r3,[r7,#15]
 3151 0d3c FA7B     	 ldrb r2,[r7,#15]
 3152 0d3e 1049     	 ldr r1,.L176
 3153 0d40 31F81220 	 ldrh r2,[r1,r2,lsl#1]
 3154 0d44 91B2     	 uxth r1,r2
 3155 0d46 BA69     	 ldr r2,[r7,#24]
 3156 0d48 92B2     	 uxth r2,r2
 3157 0d4a 0A44     	 add r2,r2,r1
 3158 0d4c 91B2     	 uxth r1,r2
 3159 0d4e 0C4A     	 ldr r2,.L176
 3160 0d50 22F81310 	 strh r1,[r2,r3,lsl#1]
 944:../../../platform/common/services/usb/class/cdc/device/udi_cdc.c **** 	ptr_buf += copy_nb;
 3161              	 .loc 4 944 0
 3162 0d54 FA69     	 ldr r2,[r7,#28]
 3163 0d56 BB69     	 ldr r3,[r7,#24]
 3164 0d58 1344     	 add r3,r3,r2
 3165 0d5a FB61     	 str r3,[r7,#28]
 945:../../../platform/common/services/usb/class/cdc/device/udi_cdc.c **** 	size -= copy_nb;
 3166              	 .loc 4 945 0
 3167 0d5c 7A68     	 ldr r2,[r7,#4]
 3168 0d5e BB69     	 ldr r3,[r7,#24]
 3169 0d60 D31A     	 subs r3,r2,r3
 3170 0d62 7B60     	 str r3,[r7,#4]
 946:../../../platform/common/services/usb/class/cdc/device/udi_cdc.c **** 	udi_cdc_rx_start(port);
 3171              	 .loc 4 946 0
 3172 0d64 FB7B     	 ldrb r3,[r7,#15]
 3173 0d66 1846     	 mov r0,r3
 3174 0d68 FFF740FC 	 bl udi_cdc_rx_start
 947:../../../platform/common/services/usb/class/cdc/device/udi_cdc.c **** 
 948:../../../platform/common/services/usb/class/cdc/device/udi_cdc.c **** 	if (size) {
 3175              	 .loc 4 948 0
 3176 0d6c 7B68     	 ldr r3,[r7,#4]
 3177 0d6e 002B     	 cmp r3,#0
 3178 0d70 00D0     	 beq .L174
 949:../../../platform/common/services/usb/class/cdc/device/udi_cdc.c **** 		goto udi_cdc_read_buf_loop_wait;
 3179              	 .loc 4 949 0
 3180 0d72 98E7     	 b .L168
 3181              	.L174:
 950:../../../platform/common/services/usb/class/cdc/device/udi_cdc.c **** 	}
 951:../../../platform/common/services/usb/class/cdc/device/udi_cdc.c **** 	return 0;
 3182              	 .loc 4 951 0
 3183 0d74 0023     	 movs r3,#0
 3184              	.L171:
 952:../../../platform/common/services/usb/class/cdc/device/udi_cdc.c **** }
 3185              	 .loc 4 952 0
 3186 0d76 1846     	 mov r0,r3
 3187 0d78 2037     	 adds r7,r7,#32
 3188              	.LCFI162:
 3189              	 .cfi_def_cfa_offset 8
 3190 0d7a BD46     	 mov sp,r7
 3191              	.LCFI163:
 3192              	 .cfi_def_cfa_register 13
 3193              	 
 3194 0d7c 80BD     	 pop {r7,pc}
 3195              	.L177:
 3196 0d7e 00BF     	 .align 2
 3197              	.L176:
 3198 0d80 00000000 	 .word udi_cdc_rx_pos
 3199 0d84 00000000 	 .word udi_cdc_rx_buf_sel
 3200 0d88 00000000 	 .word udi_cdc_rx_buf_nb
 3201 0d8c 00000000 	 .word udi_cdc_data_running
 3202 0d90 00000000 	 .word udi_cdc_rx_buf
 3203 0d94 00000000 	 .word memcpy
 3204              	 .cfi_endproc
 3205              	.LFE159:
 3207              	 .align 1
 3208              	 .global udi_cdc_read_buf
 3209              	 .syntax unified
 3210              	 .thumb
 3211              	 .thumb_func
 3212              	 .fpu softvfp
 3214              	udi_cdc_read_buf:
 3215              	.LFB160:
 953:../../../platform/common/services/usb/class/cdc/device/udi_cdc.c **** 
 954:../../../platform/common/services/usb/class/cdc/device/udi_cdc.c **** iram_size_t udi_cdc_read_buf(void* buf, iram_size_t size)
 955:../../../platform/common/services/usb/class/cdc/device/udi_cdc.c **** {
 3216              	 .loc 4 955 0
 3217              	 .cfi_startproc
 3218              	 
 3219              	 
 3220 0d98 80B5     	 push {r7,lr}
 3221              	.LCFI164:
 3222              	 .cfi_def_cfa_offset 8
 3223              	 .cfi_offset 7,-8
 3224              	 .cfi_offset 14,-4
 3225 0d9a 82B0     	 sub sp,sp,#8
 3226              	.LCFI165:
 3227              	 .cfi_def_cfa_offset 16
 3228 0d9c 00AF     	 add r7,sp,#0
 3229              	.LCFI166:
 3230              	 .cfi_def_cfa_register 7
 3231 0d9e 7860     	 str r0,[r7,#4]
 3232 0da0 3960     	 str r1,[r7]
 956:../../../platform/common/services/usb/class/cdc/device/udi_cdc.c **** 	return udi_cdc_multi_read_buf(0, buf, size);
 3233              	 .loc 4 956 0
 3234 0da2 3A68     	 ldr r2,[r7]
 3235 0da4 7968     	 ldr r1,[r7,#4]
 3236 0da6 0020     	 movs r0,#0
 3237 0da8 FFF7FEFF 	 bl udi_cdc_multi_read_buf
 3238 0dac 0346     	 mov r3,r0
 957:../../../platform/common/services/usb/class/cdc/device/udi_cdc.c **** }
 3239              	 .loc 4 957 0
 3240 0dae 1846     	 mov r0,r3
 3241 0db0 0837     	 adds r7,r7,#8
 3242              	.LCFI167:
 3243              	 .cfi_def_cfa_offset 8
 3244 0db2 BD46     	 mov sp,r7
 3245              	.LCFI168:
 3246              	 .cfi_def_cfa_register 13
 3247              	 
 3248 0db4 80BD     	 pop {r7,pc}
 3249              	 .cfi_endproc
 3250              	.LFE160:
 3252              	 .align 1
 3253              	 .global udi_cdc_multi_get_free_tx_buffer
 3254              	 .syntax unified
 3255              	 .thumb
 3256              	 .thumb_func
 3257              	 .fpu softvfp
 3259              	udi_cdc_multi_get_free_tx_buffer:
 3260              	.LFB161:
 958:../../../platform/common/services/usb/class/cdc/device/udi_cdc.c **** 
 959:../../../platform/common/services/usb/class/cdc/device/udi_cdc.c **** iram_size_t udi_cdc_multi_get_free_tx_buffer(uint8_t port)
 960:../../../platform/common/services/usb/class/cdc/device/udi_cdc.c **** {
 3261              	 .loc 4 960 0
 3262              	 .cfi_startproc
 3263              	 
 3264              	 
 3265 0db6 80B5     	 push {r7,lr}
 3266              	.LCFI169:
 3267              	 .cfi_def_cfa_offset 8
 3268              	 .cfi_offset 7,-8
 3269              	 .cfi_offset 14,-4
 3270 0db8 86B0     	 sub sp,sp,#24
 3271              	.LCFI170:
 3272              	 .cfi_def_cfa_offset 32
 3273 0dba 00AF     	 add r7,sp,#0
 3274              	.LCFI171:
 3275              	 .cfi_def_cfa_register 7
 3276 0dbc 0346     	 mov r3,r0
 3277 0dbe FB71     	 strb r3,[r7,#7]
 961:../../../platform/common/services/usb/class/cdc/device/udi_cdc.c **** 	irqflags_t flags;
 962:../../../platform/common/services/usb/class/cdc/device/udi_cdc.c **** 	iram_size_t buf_sel_nb, buf_nosel_nb;
 963:../../../platform/common/services/usb/class/cdc/device/udi_cdc.c **** 	uint8_t buf_sel;
 964:../../../platform/common/services/usb/class/cdc/device/udi_cdc.c **** 
 965:../../../platform/common/services/usb/class/cdc/device/udi_cdc.c **** #if UDI_CDC_PORT_NB == 1 // To optimize code
 966:../../../platform/common/services/usb/class/cdc/device/udi_cdc.c **** 	port = 0;
 3278              	 .loc 4 966 0
 3279 0dc0 0023     	 movs r3,#0
 3280 0dc2 FB71     	 strb r3,[r7,#7]
 967:../../../platform/common/services/usb/class/cdc/device/udi_cdc.c **** #endif
 968:../../../platform/common/services/usb/class/cdc/device/udi_cdc.c **** 
 969:../../../platform/common/services/usb/class/cdc/device/udi_cdc.c **** 	flags = cpu_irq_save();
 3281              	 .loc 4 969 0
 3282 0dc4 FFF71CF9 	 bl cpu_irq_save
 3283 0dc8 F860     	 str r0,[r7,#12]
 970:../../../platform/common/services/usb/class/cdc/device/udi_cdc.c **** 	buf_sel = udi_cdc_tx_buf_sel[port];
 3284              	 .loc 4 970 0
 3285 0dca FB79     	 ldrb r3,[r7,#7]
 3286 0dcc 274A     	 ldr r2,.L183
 3287 0dce D35C     	 ldrb r3,[r2,r3]
 3288 0dd0 FB72     	 strb r3,[r7,#11]
 971:../../../platform/common/services/usb/class/cdc/device/udi_cdc.c **** 	buf_sel_nb = udi_cdc_tx_buf_nb[port][buf_sel];
 3289              	 .loc 4 971 0
 3290 0dd2 FA79     	 ldrb r2,[r7,#7]
 3291 0dd4 FB7A     	 ldrb r3,[r7,#11]
 3292 0dd6 2649     	 ldr r1,.L183+4
 3293 0dd8 5200     	 lsls r2,r2,#1
 3294 0dda 1344     	 add r3,r3,r2
 3295 0ddc 31F81330 	 ldrh r3,[r1,r3,lsl#1]
 3296 0de0 7B61     	 str r3,[r7,#20]
 972:../../../platform/common/services/usb/class/cdc/device/udi_cdc.c **** 	buf_nosel_nb = udi_cdc_tx_buf_nb[port][(buf_sel == 0)? 1 : 0];
 3297              	 .loc 4 972 0
 3298 0de2 FB79     	 ldrb r3,[r7,#7]
 3299 0de4 FA7A     	 ldrb r2,[r7,#11]
 3300 0de6 002A     	 cmp r2,#0
 3301 0de8 0CBF     	 ite eq
 3302 0dea 0122     	 moveq r2,#1
 3303 0dec 0022     	 movne r2,#0
 3304 0dee D2B2     	 uxtb r2,r2
 3305 0df0 1146     	 mov r1,r2
 3306 0df2 1F4A     	 ldr r2,.L183+4
 3307 0df4 5B00     	 lsls r3,r3,#1
 3308 0df6 0B44     	 add r3,r3,r1
 3309 0df8 32F81330 	 ldrh r3,[r2,r3,lsl#1]
 3310 0dfc 3B61     	 str r3,[r7,#16]
 973:../../../platform/common/services/usb/class/cdc/device/udi_cdc.c **** 	if (buf_sel_nb == UDI_CDC_TX_BUFFERS) {
 3311              	 .loc 4 973 0
 3312 0dfe 7B69     	 ldr r3,[r7,#20]
 3313 0e00 B3F5A07F 	 cmp r3,#320
 3314 0e04 24D1     	 bne .L181
 974:../../../platform/common/services/usb/class/cdc/device/udi_cdc.c **** 		if ((!udi_cdc_tx_trans_ongoing[port])
 3315              	 .loc 4 974 0
 3316 0e06 FB79     	 ldrb r3,[r7,#7]
 3317 0e08 1A4A     	 ldr r2,.L183+8
 3318 0e0a D35C     	 ldrb r3,[r2,r3]
 3319 0e0c DBB2     	 uxtb r3,r3
 3320 0e0e 83F00103 	 eor r3,r3,#1
 3321 0e12 DBB2     	 uxtb r3,r3
 3322 0e14 002B     	 cmp r3,#0
 3323 0e16 1BD0     	 beq .L181
 975:../../../platform/common/services/usb/class/cdc/device/udi_cdc.c **** 			&& (!udi_cdc_tx_both_buf_to_send[port])) {
 3324              	 .loc 4 975 0
 3325 0e18 FB79     	 ldrb r3,[r7,#7]
 3326 0e1a 174A     	 ldr r2,.L183+12
 3327 0e1c D35C     	 ldrb r3,[r2,r3]
 3328 0e1e DBB2     	 uxtb r3,r3
 3329 0e20 83F00103 	 eor r3,r3,#1
 3330 0e24 DBB2     	 uxtb r3,r3
 3331 0e26 002B     	 cmp r3,#0
 3332 0e28 12D0     	 beq .L181
 976:../../../platform/common/services/usb/class/cdc/device/udi_cdc.c **** 			/* One buffer is full, but the other buffer is not used.
 977:../../../platform/common/services/usb/class/cdc/device/udi_cdc.c **** 			 * (not used = transfer on-going)
 978:../../../platform/common/services/usb/class/cdc/device/udi_cdc.c **** 			 * then move to the other buffer to store data */
 979:../../../platform/common/services/usb/class/cdc/device/udi_cdc.c **** 			udi_cdc_tx_both_buf_to_send[port] = true;
 3333              	 .loc 4 979 0
 3334 0e2a FB79     	 ldrb r3,[r7,#7]
 3335 0e2c 124A     	 ldr r2,.L183+12
 3336 0e2e 0121     	 movs r1,#1
 3337 0e30 D154     	 strb r1,[r2,r3]
 980:../../../platform/common/services/usb/class/cdc/device/udi_cdc.c **** 			udi_cdc_tx_buf_sel[port] = (buf_sel == 0)? 1 : 0;
 3338              	 .loc 4 980 0
 3339 0e32 FB79     	 ldrb r3,[r7,#7]
 3340 0e34 FA7A     	 ldrb r2,[r7,#11]
 3341 0e36 002A     	 cmp r2,#0
 3342 0e38 0CBF     	 ite eq
 3343 0e3a 0122     	 moveq r2,#1
 3344 0e3c 0022     	 movne r2,#0
 3345 0e3e D2B2     	 uxtb r2,r2
 3346 0e40 1146     	 mov r1,r2
 3347 0e42 0A4A     	 ldr r2,.L183
 3348 0e44 D154     	 strb r1,[r2,r3]
 981:../../../platform/common/services/usb/class/cdc/device/udi_cdc.c **** 			buf_sel_nb = 0;
 3349              	 .loc 4 981 0
 3350 0e46 0023     	 movs r3,#0
 3351 0e48 7B61     	 str r3,[r7,#20]
 982:../../../platform/common/services/usb/class/cdc/device/udi_cdc.c **** 			buf_nosel_nb = UDI_CDC_TX_BUFFERS;
 3352              	 .loc 4 982 0
 3353 0e4a 4FF4A073 	 mov r3,#320
 3354 0e4e 3B61     	 str r3,[r7,#16]
 3355              	.L181:
 983:../../../platform/common/services/usb/class/cdc/device/udi_cdc.c **** 		}
 984:../../../platform/common/services/usb/class/cdc/device/udi_cdc.c **** 	}
 985:../../../platform/common/services/usb/class/cdc/device/udi_cdc.c **** 	cpu_irq_restore(flags);
 3356              	 .loc 4 985 0
 3357 0e50 F868     	 ldr r0,[r7,#12]
 3358 0e52 FFF700F9 	 bl cpu_irq_restore
 986:../../../platform/common/services/usb/class/cdc/device/udi_cdc.c **** 
 987:../../../platform/common/services/usb/class/cdc/device/udi_cdc.c **** 	return (UDI_CDC_TX_BUFFERS - buf_sel_nb) + (UDI_CDC_TX_BUFFERS - buf_nosel_nb);
 3359              	 .loc 4 987 0
 3360 0e56 7B69     	 ldr r3,[r7,#20]
 3361 0e58 5A42     	 negs r2,r3
 3362 0e5a 3B69     	 ldr r3,[r7,#16]
 3363 0e5c D31A     	 subs r3,r2,r3
 3364 0e5e 03F52073 	 add r3,r3,#640
 988:../../../platform/common/services/usb/class/cdc/device/udi_cdc.c **** }
 3365              	 .loc 4 988 0
 3366 0e62 1846     	 mov r0,r3
 3367 0e64 1837     	 adds r7,r7,#24
 3368              	.LCFI172:
 3369              	 .cfi_def_cfa_offset 8
 3370 0e66 BD46     	 mov sp,r7
 3371              	.LCFI173:
 3372              	 .cfi_def_cfa_register 13
 3373              	 
 3374 0e68 80BD     	 pop {r7,pc}
 3375              	.L184:
 3376 0e6a 00BF     	 .align 2
 3377              	.L183:
 3378 0e6c 00000000 	 .word udi_cdc_tx_buf_sel
 3379 0e70 00000000 	 .word udi_cdc_tx_buf_nb
 3380 0e74 00000000 	 .word udi_cdc_tx_trans_ongoing
 3381 0e78 00000000 	 .word udi_cdc_tx_both_buf_to_send
 3382              	 .cfi_endproc
 3383              	.LFE161:
 3385              	 .align 1
 3386              	 .global udi_cdc_get_free_tx_buffer
 3387              	 .syntax unified
 3388              	 .thumb
 3389              	 .thumb_func
 3390              	 .fpu softvfp
 3392              	udi_cdc_get_free_tx_buffer:
 3393              	.LFB162:
 989:../../../platform/common/services/usb/class/cdc/device/udi_cdc.c **** 
 990:../../../platform/common/services/usb/class/cdc/device/udi_cdc.c **** iram_size_t udi_cdc_get_free_tx_buffer(void)
 991:../../../platform/common/services/usb/class/cdc/device/udi_cdc.c **** {
 3394              	 .loc 4 991 0
 3395              	 .cfi_startproc
 3396              	 
 3397              	 
 3398 0e7c 80B5     	 push {r7,lr}
 3399              	.LCFI174:
 3400              	 .cfi_def_cfa_offset 8
 3401              	 .cfi_offset 7,-8
 3402              	 .cfi_offset 14,-4
 3403 0e7e 00AF     	 add r7,sp,#0
 3404              	.LCFI175:
 3405              	 .cfi_def_cfa_register 7
 992:../../../platform/common/services/usb/class/cdc/device/udi_cdc.c **** 	return udi_cdc_multi_get_free_tx_buffer(0);
 3406              	 .loc 4 992 0
 3407 0e80 0020     	 movs r0,#0
 3408 0e82 FFF7FEFF 	 bl udi_cdc_multi_get_free_tx_buffer
 3409 0e86 0346     	 mov r3,r0
 993:../../../platform/common/services/usb/class/cdc/device/udi_cdc.c **** }
 3410              	 .loc 4 993 0
 3411 0e88 1846     	 mov r0,r3
 3412 0e8a 80BD     	 pop {r7,pc}
 3413              	 .cfi_endproc
 3414              	.LFE162:
 3416              	 .align 1
 3417              	 .global udi_cdc_multi_is_tx_ready
 3418              	 .syntax unified
 3419              	 .thumb
 3420              	 .thumb_func
 3421              	 .fpu softvfp
 3423              	udi_cdc_multi_is_tx_ready:
 3424              	.LFB163:
 994:../../../platform/common/services/usb/class/cdc/device/udi_cdc.c **** 
 995:../../../platform/common/services/usb/class/cdc/device/udi_cdc.c **** bool udi_cdc_multi_is_tx_ready(uint8_t port)
 996:../../../platform/common/services/usb/class/cdc/device/udi_cdc.c **** {
 3425              	 .loc 4 996 0
 3426              	 .cfi_startproc
 3427              	 
 3428              	 
 3429 0e8c 80B5     	 push {r7,lr}
 3430              	.LCFI176:
 3431              	 .cfi_def_cfa_offset 8
 3432              	 .cfi_offset 7,-8
 3433              	 .cfi_offset 14,-4
 3434 0e8e 82B0     	 sub sp,sp,#8
 3435              	.LCFI177:
 3436              	 .cfi_def_cfa_offset 16
 3437 0e90 00AF     	 add r7,sp,#0
 3438              	.LCFI178:
 3439              	 .cfi_def_cfa_register 7
 3440 0e92 0346     	 mov r3,r0
 3441 0e94 FB71     	 strb r3,[r7,#7]
 997:../../../platform/common/services/usb/class/cdc/device/udi_cdc.c **** 	return (udi_cdc_multi_get_free_tx_buffer(port) != 0);
 3442              	 .loc 4 997 0
 3443 0e96 FB79     	 ldrb r3,[r7,#7]
 3444 0e98 1846     	 mov r0,r3
 3445 0e9a FFF7FEFF 	 bl udi_cdc_multi_get_free_tx_buffer
 3446 0e9e 0346     	 mov r3,r0
 3447 0ea0 002B     	 cmp r3,#0
 3448 0ea2 14BF     	 ite ne
 3449 0ea4 0123     	 movne r3,#1
 3450 0ea6 0023     	 moveq r3,#0
 3451 0ea8 DBB2     	 uxtb r3,r3
 998:../../../platform/common/services/usb/class/cdc/device/udi_cdc.c **** }
 3452              	 .loc 4 998 0
 3453 0eaa 1846     	 mov r0,r3
 3454 0eac 0837     	 adds r7,r7,#8
 3455              	.LCFI179:
 3456              	 .cfi_def_cfa_offset 8
 3457 0eae BD46     	 mov sp,r7
 3458              	.LCFI180:
 3459              	 .cfi_def_cfa_register 13
 3460              	 
 3461 0eb0 80BD     	 pop {r7,pc}
 3462              	 .cfi_endproc
 3463              	.LFE163:
 3465              	 .align 1
 3466              	 .global udi_cdc_is_tx_ready
 3467              	 .syntax unified
 3468              	 .thumb
 3469              	 .thumb_func
 3470              	 .fpu softvfp
 3472              	udi_cdc_is_tx_ready:
 3473              	.LFB164:
 999:../../../platform/common/services/usb/class/cdc/device/udi_cdc.c **** 
1000:../../../platform/common/services/usb/class/cdc/device/udi_cdc.c **** bool udi_cdc_is_tx_ready(void)
1001:../../../platform/common/services/usb/class/cdc/device/udi_cdc.c **** {
 3474              	 .loc 4 1001 0
 3475              	 .cfi_startproc
 3476              	 
 3477              	 
 3478 0eb2 80B5     	 push {r7,lr}
 3479              	.LCFI181:
 3480              	 .cfi_def_cfa_offset 8
 3481              	 .cfi_offset 7,-8
 3482              	 .cfi_offset 14,-4
 3483 0eb4 00AF     	 add r7,sp,#0
 3484              	.LCFI182:
 3485              	 .cfi_def_cfa_register 7
1002:../../../platform/common/services/usb/class/cdc/device/udi_cdc.c **** 	return udi_cdc_multi_is_tx_ready(0);
 3486              	 .loc 4 1002 0
 3487 0eb6 0020     	 movs r0,#0
 3488 0eb8 FFF7FEFF 	 bl udi_cdc_multi_is_tx_ready
 3489 0ebc 0346     	 mov r3,r0
1003:../../../platform/common/services/usb/class/cdc/device/udi_cdc.c **** }
 3490              	 .loc 4 1003 0
 3491 0ebe 1846     	 mov r0,r3
 3492 0ec0 80BD     	 pop {r7,pc}
 3493              	 .cfi_endproc
 3494              	.LFE164:
 3496              	 .align 1
 3497              	 .global udi_cdc_multi_putc
 3498              	 .syntax unified
 3499              	 .thumb
 3500              	 .thumb_func
 3501              	 .fpu softvfp
 3503              	udi_cdc_multi_putc:
 3504              	.LFB165:
1004:../../../platform/common/services/usb/class/cdc/device/udi_cdc.c **** 
1005:../../../platform/common/services/usb/class/cdc/device/udi_cdc.c **** int udi_cdc_multi_putc(uint8_t port, int value)
1006:../../../platform/common/services/usb/class/cdc/device/udi_cdc.c **** {
 3505              	 .loc 4 1006 0
 3506              	 .cfi_startproc
 3507              	 
 3508              	 
 3509 0ec2 F0B5     	 push {r4,r5,r6,r7,lr}
 3510              	.LCFI183:
 3511              	 .cfi_def_cfa_offset 20
 3512              	 .cfi_offset 4,-20
 3513              	 .cfi_offset 5,-16
 3514              	 .cfi_offset 6,-12
 3515              	 .cfi_offset 7,-8
 3516              	 .cfi_offset 14,-4
 3517 0ec4 87B0     	 sub sp,sp,#28
 3518              	.LCFI184:
 3519              	 .cfi_def_cfa_offset 48
 3520 0ec6 00AF     	 add r7,sp,#0
 3521              	.LCFI185:
 3522              	 .cfi_def_cfa_register 7
 3523 0ec8 0346     	 mov r3,r0
 3524 0eca 3960     	 str r1,[r7]
 3525 0ecc FB71     	 strb r3,[r7,#7]
1007:../../../platform/common/services/usb/class/cdc/device/udi_cdc.c **** 	irqflags_t flags;
1008:../../../platform/common/services/usb/class/cdc/device/udi_cdc.c **** 	bool b_databit_9;
1009:../../../platform/common/services/usb/class/cdc/device/udi_cdc.c **** 	uint8_t buf_sel;
1010:../../../platform/common/services/usb/class/cdc/device/udi_cdc.c **** 
1011:../../../platform/common/services/usb/class/cdc/device/udi_cdc.c **** #if UDI_CDC_PORT_NB == 1 // To optimize code
1012:../../../platform/common/services/usb/class/cdc/device/udi_cdc.c **** 	port = 0;
 3526              	 .loc 4 1012 0
 3527 0ece 0023     	 movs r3,#0
 3528 0ed0 FB71     	 strb r3,[r7,#7]
1013:../../../platform/common/services/usb/class/cdc/device/udi_cdc.c **** #endif
1014:../../../platform/common/services/usb/class/cdc/device/udi_cdc.c **** 
1015:../../../platform/common/services/usb/class/cdc/device/udi_cdc.c **** 	b_databit_9 = (9 == udi_cdc_line_coding[port].bDataBits);
 3529              	 .loc 4 1015 0
 3530 0ed2 FA79     	 ldrb r2,[r7,#7]
 3531 0ed4 2D49     	 ldr r1,.L197
 3532 0ed6 1346     	 mov r3,r2
 3533 0ed8 DB00     	 lsls r3,r3,#3
 3534 0eda 9B1A     	 subs r3,r3,r2
 3535 0edc 0B44     	 add r3,r3,r1
 3536 0ede 0633     	 adds r3,r3,#6
 3537 0ee0 1B78     	 ldrb r3,[r3]
 3538 0ee2 092B     	 cmp r3,#9
 3539 0ee4 0CBF     	 ite eq
 3540 0ee6 0123     	 moveq r3,#1
 3541 0ee8 0023     	 movne r3,#0
 3542 0eea FB75     	 strb r3,[r7,#23]
 3543              	.L192:
1016:../../../platform/common/services/usb/class/cdc/device/udi_cdc.c **** 
1017:../../../platform/common/services/usb/class/cdc/device/udi_cdc.c **** udi_cdc_putc_process_one_byte:
1018:../../../platform/common/services/usb/class/cdc/device/udi_cdc.c **** 	// Check available space
1019:../../../platform/common/services/usb/class/cdc/device/udi_cdc.c **** 	if (!udi_cdc_multi_is_tx_ready(port)) {
 3544              	 .loc 4 1019 0
 3545 0eec FB79     	 ldrb r3,[r7,#7]
 3546 0eee 1846     	 mov r0,r3
 3547 0ef0 FFF7FEFF 	 bl udi_cdc_multi_is_tx_ready
 3548 0ef4 0346     	 mov r3,r0
 3549 0ef6 83F00103 	 eor r3,r3,#1
 3550 0efa DBB2     	 uxtb r3,r3
 3551 0efc 002B     	 cmp r3,#0
 3552 0efe 09D0     	 beq .L193
1020:../../../platform/common/services/usb/class/cdc/device/udi_cdc.c **** 		if (!udi_cdc_data_running) {
 3553              	 .loc 4 1020 0
 3554 0f00 234B     	 ldr r3,.L197+4
 3555 0f02 1B78     	 ldrb r3,[r3]
 3556 0f04 DBB2     	 uxtb r3,r3
 3557 0f06 83F00103 	 eor r3,r3,#1
 3558 0f0a DBB2     	 uxtb r3,r3
 3559 0f0c 002B     	 cmp r3,#0
 3560 0f0e EDD0     	 beq .L192
1021:../../../platform/common/services/usb/class/cdc/device/udi_cdc.c **** 			return false;
 3561              	 .loc 4 1021 0
 3562 0f10 0023     	 movs r3,#0
 3563 0f12 36E0     	 b .L195
 3564              	.L193:
1022:../../../platform/common/services/usb/class/cdc/device/udi_cdc.c **** 		}
1023:../../../platform/common/services/usb/class/cdc/device/udi_cdc.c **** 		goto udi_cdc_putc_process_one_byte;
1024:../../../platform/common/services/usb/class/cdc/device/udi_cdc.c **** 	}
1025:../../../platform/common/services/usb/class/cdc/device/udi_cdc.c **** 
1026:../../../platform/common/services/usb/class/cdc/device/udi_cdc.c **** 	// Write value
1027:../../../platform/common/services/usb/class/cdc/device/udi_cdc.c **** 	flags = cpu_irq_save();
 3565              	 .loc 4 1027 0
 3566 0f14 FFF774F8 	 bl cpu_irq_save
 3567 0f18 3861     	 str r0,[r7,#16]
1028:../../../platform/common/services/usb/class/cdc/device/udi_cdc.c **** 	buf_sel = udi_cdc_tx_buf_sel[port];
 3568              	 .loc 4 1028 0
 3569 0f1a FB79     	 ldrb r3,[r7,#7]
 3570 0f1c 1D4A     	 ldr r2,.L197+8
 3571 0f1e D35C     	 ldrb r3,[r2,r3]
 3572 0f20 FB73     	 strb r3,[r7,#15]
1029:../../../platform/common/services/usb/class/cdc/device/udi_cdc.c **** 	udi_cdc_tx_buf[port][buf_sel][udi_cdc_tx_buf_nb[port][buf_sel]++] = value;
 3573              	 .loc 4 1029 0
 3574 0f22 F979     	 ldrb r1,[r7,#7]
 3575 0f24 F87B     	 ldrb r0,[r7,#15]
 3576 0f26 FA79     	 ldrb r2,[r7,#7]
 3577 0f28 FB7B     	 ldrb r3,[r7,#15]
 3578 0f2a 1B4D     	 ldr r5,.L197+12
 3579 0f2c 5400     	 lsls r4,r2,#1
 3580 0f2e 1C44     	 add r4,r4,r3
 3581 0f30 35F81440 	 ldrh r4,[r5,r4,lsl#1]
 3582 0f34 651C     	 adds r5,r4,#1
 3583 0f36 AEB2     	 uxth r6,r5
 3584 0f38 174D     	 ldr r5,.L197+12
 3585 0f3a 5200     	 lsls r2,r2,#1
 3586 0f3c 1344     	 add r3,r3,r2
 3587 0f3e 3246     	 mov r2,r6
 3588 0f40 25F81320 	 strh r2,[r5,r3,lsl#1]
 3589 0f44 2646     	 mov r6,r4
 3590 0f46 3B68     	 ldr r3,[r7]
 3591 0f48 DDB2     	 uxtb r5,r3
 3592 0f4a 144C     	 ldr r4,.L197+16
 3593 0f4c 0246     	 mov r2,r0
 3594 0f4e 9200     	 lsls r2,r2,#2
 3595 0f50 0244     	 add r2,r2,r0
 3596 0f52 9301     	 lsls r3,r2,#6
 3597 0f54 1A46     	 mov r2,r3
 3598 0f56 0B46     	 mov r3,r1
 3599 0f58 9B00     	 lsls r3,r3,#2
 3600 0f5a 0B44     	 add r3,r3,r1
 3601 0f5c DB01     	 lsls r3,r3,#7
 3602 0f5e 1344     	 add r3,r3,r2
 3603 0f60 2344     	 add r3,r3,r4
 3604 0f62 3344     	 add r3,r3,r6
 3605 0f64 2A46     	 mov r2,r5
 3606 0f66 1A70     	 strb r2,[r3]
1030:../../../platform/common/services/usb/class/cdc/device/udi_cdc.c **** 	cpu_irq_restore(flags);
 3607              	 .loc 4 1030 0
 3608 0f68 3869     	 ldr r0,[r7,#16]
 3609 0f6a FFF774F8 	 bl cpu_irq_restore
1031:../../../platform/common/services/usb/class/cdc/device/udi_cdc.c **** 
1032:../../../platform/common/services/usb/class/cdc/device/udi_cdc.c **** 	if (b_databit_9) {
 3610              	 .loc 4 1032 0
 3611 0f6e FB7D     	 ldrb r3,[r7,#23]
 3612 0f70 002B     	 cmp r3,#0
 3613 0f72 05D0     	 beq .L196
1033:../../../platform/common/services/usb/class/cdc/device/udi_cdc.c **** 		// Send MSB
1034:../../../platform/common/services/usb/class/cdc/device/udi_cdc.c **** 		b_databit_9 = false;
 3614              	 .loc 4 1034 0
 3615 0f74 0023     	 movs r3,#0
 3616 0f76 FB75     	 strb r3,[r7,#23]
1035:../../../platform/common/services/usb/class/cdc/device/udi_cdc.c **** 		value = value >> 8;
 3617              	 .loc 4 1035 0
 3618 0f78 3B68     	 ldr r3,[r7]
 3619 0f7a 1B12     	 asrs r3,r3,#8
 3620 0f7c 3B60     	 str r3,[r7]
1036:../../../platform/common/services/usb/class/cdc/device/udi_cdc.c **** 		goto udi_cdc_putc_process_one_byte;
 3621              	 .loc 4 1036 0
 3622 0f7e B5E7     	 b .L192
 3623              	.L196:
1037:../../../platform/common/services/usb/class/cdc/device/udi_cdc.c **** 	}
1038:../../../platform/common/services/usb/class/cdc/device/udi_cdc.c **** 	return true;
 3624              	 .loc 4 1038 0
 3625 0f80 0123     	 movs r3,#1
 3626              	.L195:
1039:../../../platform/common/services/usb/class/cdc/device/udi_cdc.c **** }
 3627              	 .loc 4 1039 0
 3628 0f82 1846     	 mov r0,r3
 3629 0f84 1C37     	 adds r7,r7,#28
 3630              	.LCFI186:
 3631              	 .cfi_def_cfa_offset 20
 3632 0f86 BD46     	 mov sp,r7
 3633              	.LCFI187:
 3634              	 .cfi_def_cfa_register 13
 3635              	 
 3636 0f88 F0BD     	 pop {r4,r5,r6,r7,pc}
 3637              	.L198:
 3638 0f8a 00BF     	 .align 2
 3639              	.L197:
 3640 0f8c 00000000 	 .word udi_cdc_line_coding
 3641 0f90 00000000 	 .word udi_cdc_data_running
 3642 0f94 00000000 	 .word udi_cdc_tx_buf_sel
 3643 0f98 00000000 	 .word udi_cdc_tx_buf_nb
 3644 0f9c 00000000 	 .word udi_cdc_tx_buf
 3645              	 .cfi_endproc
 3646              	.LFE165:
 3648              	 .align 1
 3649              	 .global udi_cdc_putc
 3650              	 .syntax unified
 3651              	 .thumb
 3652              	 .thumb_func
 3653              	 .fpu softvfp
 3655              	udi_cdc_putc:
 3656              	.LFB166:
1040:../../../platform/common/services/usb/class/cdc/device/udi_cdc.c **** 
1041:../../../platform/common/services/usb/class/cdc/device/udi_cdc.c **** int udi_cdc_putc(int value)
1042:../../../platform/common/services/usb/class/cdc/device/udi_cdc.c **** {
 3657              	 .loc 4 1042 0
 3658              	 .cfi_startproc
 3659              	 
 3660              	 
 3661 0fa0 80B5     	 push {r7,lr}
 3662              	.LCFI188:
 3663              	 .cfi_def_cfa_offset 8
 3664              	 .cfi_offset 7,-8
 3665              	 .cfi_offset 14,-4
 3666 0fa2 82B0     	 sub sp,sp,#8
 3667              	.LCFI189:
 3668              	 .cfi_def_cfa_offset 16
 3669 0fa4 00AF     	 add r7,sp,#0
 3670              	.LCFI190:
 3671              	 .cfi_def_cfa_register 7
 3672 0fa6 7860     	 str r0,[r7,#4]
1043:../../../platform/common/services/usb/class/cdc/device/udi_cdc.c **** 	return udi_cdc_multi_putc(0, value);
 3673              	 .loc 4 1043 0
 3674 0fa8 7968     	 ldr r1,[r7,#4]
 3675 0faa 0020     	 movs r0,#0
 3676 0fac FFF7FEFF 	 bl udi_cdc_multi_putc
 3677 0fb0 0346     	 mov r3,r0
1044:../../../platform/common/services/usb/class/cdc/device/udi_cdc.c **** }
 3678              	 .loc 4 1044 0
 3679 0fb2 1846     	 mov r0,r3
 3680 0fb4 0837     	 adds r7,r7,#8
 3681              	.LCFI191:
 3682              	 .cfi_def_cfa_offset 8
 3683 0fb6 BD46     	 mov sp,r7
 3684              	.LCFI192:
 3685              	 .cfi_def_cfa_register 13
 3686              	 
 3687 0fb8 80BD     	 pop {r7,pc}
 3688              	 .cfi_endproc
 3689              	.LFE166:
 3691              	 .align 1
 3692              	 .global udi_cdc_multi_write_buf
 3693              	 .syntax unified
 3694              	 .thumb
 3695              	 .thumb_func
 3696              	 .fpu softvfp
 3698              	udi_cdc_multi_write_buf:
 3699              	.LFB167:
1045:../../../platform/common/services/usb/class/cdc/device/udi_cdc.c **** 
1046:../../../platform/common/services/usb/class/cdc/device/udi_cdc.c **** iram_size_t udi_cdc_multi_write_buf(uint8_t port, const void* buf, iram_size_t size)
1047:../../../platform/common/services/usb/class/cdc/device/udi_cdc.c **** {
 3700              	 .loc 4 1047 0
 3701              	 .cfi_startproc
 3702              	 
 3703              	 
 3704 0fba 80B5     	 push {r7,lr}
 3705              	.LCFI193:
 3706              	 .cfi_def_cfa_offset 8
 3707              	 .cfi_offset 7,-8
 3708              	 .cfi_offset 14,-4
 3709 0fbc 88B0     	 sub sp,sp,#32
 3710              	.LCFI194:
 3711              	 .cfi_def_cfa_offset 40
 3712 0fbe 00AF     	 add r7,sp,#0
 3713              	.LCFI195:
 3714              	 .cfi_def_cfa_register 7
 3715 0fc0 0346     	 mov r3,r0
 3716 0fc2 B960     	 str r1,[r7,#8]
 3717 0fc4 7A60     	 str r2,[r7,#4]
 3718 0fc6 FB73     	 strb r3,[r7,#15]
1048:../../../platform/common/services/usb/class/cdc/device/udi_cdc.c **** 	irqflags_t flags;
1049:../../../platform/common/services/usb/class/cdc/device/udi_cdc.c **** 	uint8_t buf_sel;
1050:../../../platform/common/services/usb/class/cdc/device/udi_cdc.c **** 	uint16_t buf_nb;
1051:../../../platform/common/services/usb/class/cdc/device/udi_cdc.c **** 	iram_size_t copy_nb;
1052:../../../platform/common/services/usb/class/cdc/device/udi_cdc.c **** 	uint8_t *ptr_buf = (uint8_t *)buf;
 3719              	 .loc 4 1052 0
 3720 0fc8 BB68     	 ldr r3,[r7,#8]
 3721 0fca BB61     	 str r3,[r7,#24]
1053:../../../platform/common/services/usb/class/cdc/device/udi_cdc.c **** 
1054:../../../platform/common/services/usb/class/cdc/device/udi_cdc.c **** #if UDI_CDC_PORT_NB == 1 // To optimize code
1055:../../../platform/common/services/usb/class/cdc/device/udi_cdc.c **** 	port = 0;
 3722              	 .loc 4 1055 0
 3723 0fcc 0023     	 movs r3,#0
 3724 0fce FB73     	 strb r3,[r7,#15]
1056:../../../platform/common/services/usb/class/cdc/device/udi_cdc.c **** #endif
1057:../../../platform/common/services/usb/class/cdc/device/udi_cdc.c **** 
1058:../../../platform/common/services/usb/class/cdc/device/udi_cdc.c **** 	if (9 == udi_cdc_line_coding[port].bDataBits) {
 3725              	 .loc 4 1058 0
 3726 0fd0 FA7B     	 ldrb r2,[r7,#15]
 3727 0fd2 3749     	 ldr r1,.L208
 3728 0fd4 1346     	 mov r3,r2
 3729 0fd6 DB00     	 lsls r3,r3,#3
 3730 0fd8 9B1A     	 subs r3,r3,r2
 3731 0fda 0B44     	 add r3,r3,r1
 3732 0fdc 0633     	 adds r3,r3,#6
 3733 0fde 1B78     	 ldrb r3,[r3]
 3734 0fe0 092B     	 cmp r3,#9
 3735 0fe2 02D1     	 bne .L202
1059:../../../platform/common/services/usb/class/cdc/device/udi_cdc.c **** 		size *=2;
 3736              	 .loc 4 1059 0
 3737 0fe4 7B68     	 ldr r3,[r7,#4]
 3738 0fe6 5B00     	 lsls r3,r3,#1
 3739 0fe8 7B60     	 str r3,[r7,#4]
 3740              	.L202:
1060:../../../platform/common/services/usb/class/cdc/device/udi_cdc.c **** 	}
1061:../../../platform/common/services/usb/class/cdc/device/udi_cdc.c **** 
1062:../../../platform/common/services/usb/class/cdc/device/udi_cdc.c **** udi_cdc_write_buf_loop_wait:
1063:../../../platform/common/services/usb/class/cdc/device/udi_cdc.c **** 	// Check available space
1064:../../../platform/common/services/usb/class/cdc/device/udi_cdc.c **** 	if (!udi_cdc_multi_is_tx_ready(port)) {
 3741              	 .loc 4 1064 0
 3742 0fea FB7B     	 ldrb r3,[r7,#15]
 3743 0fec 1846     	 mov r0,r3
 3744 0fee FFF7FEFF 	 bl udi_cdc_multi_is_tx_ready
 3745 0ff2 0346     	 mov r3,r0
 3746 0ff4 83F00103 	 eor r3,r3,#1
 3747 0ff8 DBB2     	 uxtb r3,r3
 3748 0ffa 002B     	 cmp r3,#0
 3749 0ffc 09D0     	 beq .L203
1065:../../../platform/common/services/usb/class/cdc/device/udi_cdc.c **** 		if (!udi_cdc_data_running) {
 3750              	 .loc 4 1065 0
 3751 0ffe 2D4B     	 ldr r3,.L208+4
 3752 1000 1B78     	 ldrb r3,[r3]
 3753 1002 DBB2     	 uxtb r3,r3
 3754 1004 83F00103 	 eor r3,r3,#1
 3755 1008 DBB2     	 uxtb r3,r3
 3756 100a 002B     	 cmp r3,#0
 3757 100c EDD0     	 beq .L202
1066:../../../platform/common/services/usb/class/cdc/device/udi_cdc.c **** 			return size;
 3758              	 .loc 4 1066 0
 3759 100e 7B68     	 ldr r3,[r7,#4]
 3760 1010 4AE0     	 b .L205
 3761              	.L203:
1067:../../../platform/common/services/usb/class/cdc/device/udi_cdc.c **** 		}
1068:../../../platform/common/services/usb/class/cdc/device/udi_cdc.c **** 		goto udi_cdc_write_buf_loop_wait;
1069:../../../platform/common/services/usb/class/cdc/device/udi_cdc.c **** 	}
1070:../../../platform/common/services/usb/class/cdc/device/udi_cdc.c **** 
1071:../../../platform/common/services/usb/class/cdc/device/udi_cdc.c **** 	// Write values
1072:../../../platform/common/services/usb/class/cdc/device/udi_cdc.c **** 	flags = cpu_irq_save();
 3762              	 .loc 4 1072 0
 3763 1012 FEF7F5FF 	 bl cpu_irq_save
 3764 1016 7861     	 str r0,[r7,#20]
1073:../../../platform/common/services/usb/class/cdc/device/udi_cdc.c **** 	buf_sel = udi_cdc_tx_buf_sel[port];
 3765              	 .loc 4 1073 0
 3766 1018 FB7B     	 ldrb r3,[r7,#15]
 3767 101a 274A     	 ldr r2,.L208+8
 3768 101c D35C     	 ldrb r3,[r2,r3]
 3769 101e FB74     	 strb r3,[r7,#19]
1074:../../../platform/common/services/usb/class/cdc/device/udi_cdc.c **** 	buf_nb = udi_cdc_tx_buf_nb[port][buf_sel];
 3770              	 .loc 4 1074 0
 3771 1020 FA7B     	 ldrb r2,[r7,#15]
 3772 1022 FB7C     	 ldrb r3,[r7,#19]
 3773 1024 2549     	 ldr r1,.L208+12
 3774 1026 5200     	 lsls r2,r2,#1
 3775 1028 1344     	 add r3,r3,r2
 3776 102a 31F81330 	 ldrh r3,[r1,r3,lsl#1]
 3777 102e 3B82     	 strh r3,[r7,#16]
1075:../../../platform/common/services/usb/class/cdc/device/udi_cdc.c **** 	copy_nb = UDI_CDC_TX_BUFFERS - buf_nb;
 3778              	 .loc 4 1075 0
 3779 1030 3B8A     	 ldrh r3,[r7,#16]
 3780 1032 C3F5A073 	 rsb r3,r3,#320
 3781 1036 FB61     	 str r3,[r7,#28]
1076:../../../platform/common/services/usb/class/cdc/device/udi_cdc.c **** 	if (copy_nb > size) {
 3782              	 .loc 4 1076 0
 3783 1038 FA69     	 ldr r2,[r7,#28]
 3784 103a 7B68     	 ldr r3,[r7,#4]
 3785 103c 9A42     	 cmp r2,r3
 3786 103e 01D9     	 bls .L206
1077:../../../platform/common/services/usb/class/cdc/device/udi_cdc.c **** 		copy_nb = size;
 3787              	 .loc 4 1077 0
 3788 1040 7B68     	 ldr r3,[r7,#4]
 3789 1042 FB61     	 str r3,[r7,#28]
 3790              	.L206:
1078:../../../platform/common/services/usb/class/cdc/device/udi_cdc.c **** 	}
1079:../../../platform/common/services/usb/class/cdc/device/udi_cdc.c **** 	memcpy(&udi_cdc_tx_buf[port][buf_sel][buf_nb], ptr_buf, copy_nb);
 3791              	 .loc 4 1079 0
 3792 1044 F97B     	 ldrb r1,[r7,#15]
 3793 1046 FB7C     	 ldrb r3,[r7,#19]
 3794 1048 388A     	 ldrh r0,[r7,#16]
 3795 104a 1A46     	 mov r2,r3
 3796 104c 9200     	 lsls r2,r2,#2
 3797 104e 1A44     	 add r2,r2,r3
 3798 1050 9301     	 lsls r3,r2,#6
 3799 1052 1A46     	 mov r2,r3
 3800 1054 0B46     	 mov r3,r1
 3801 1056 9B00     	 lsls r3,r3,#2
 3802 1058 0B44     	 add r3,r3,r1
 3803 105a DB01     	 lsls r3,r3,#7
 3804 105c 1344     	 add r3,r3,r2
 3805 105e 0344     	 add r3,r3,r0
 3806 1060 174A     	 ldr r2,.L208+16
 3807 1062 1344     	 add r3,r3,r2
 3808 1064 FA69     	 ldr r2,[r7,#28]
 3809 1066 B969     	 ldr r1,[r7,#24]
 3810 1068 1846     	 mov r0,r3
 3811 106a 164B     	 ldr r3,.L208+20
 3812 106c 9847     	 blx r3
 3813              	.LVL15:
1080:../../../platform/common/services/usb/class/cdc/device/udi_cdc.c **** 	udi_cdc_tx_buf_nb[port][buf_sel] = buf_nb + copy_nb;
 3814              	 .loc 4 1080 0
 3815 106e FA7B     	 ldrb r2,[r7,#15]
 3816 1070 FB7C     	 ldrb r3,[r7,#19]
 3817 1072 F969     	 ldr r1,[r7,#28]
 3818 1074 88B2     	 uxth r0,r1
 3819 1076 398A     	 ldrh r1,[r7,#16]
 3820 1078 0144     	 add r1,r1,r0
 3821 107a 88B2     	 uxth r0,r1
 3822 107c 0F49     	 ldr r1,.L208+12
 3823 107e 5200     	 lsls r2,r2,#1
 3824 1080 1344     	 add r3,r3,r2
 3825 1082 0246     	 mov r2,r0
 3826 1084 21F81320 	 strh r2,[r1,r3,lsl#1]
1081:../../../platform/common/services/usb/class/cdc/device/udi_cdc.c **** 	cpu_irq_restore(flags);
 3827              	 .loc 4 1081 0
 3828 1088 7869     	 ldr r0,[r7,#20]
 3829 108a FEF7E4FF 	 bl cpu_irq_restore
1082:../../../platform/common/services/usb/class/cdc/device/udi_cdc.c **** 
1083:../../../platform/common/services/usb/class/cdc/device/udi_cdc.c **** 	// Update buffer pointer
1084:../../../platform/common/services/usb/class/cdc/device/udi_cdc.c **** 	ptr_buf = ptr_buf + copy_nb;
 3830              	 .loc 4 1084 0
 3831 108e BA69     	 ldr r2,[r7,#24]
 3832 1090 FB69     	 ldr r3,[r7,#28]
 3833 1092 1344     	 add r3,r3,r2
 3834 1094 BB61     	 str r3,[r7,#24]
1085:../../../platform/common/services/usb/class/cdc/device/udi_cdc.c **** 	size -= copy_nb;
 3835              	 .loc 4 1085 0
 3836 1096 7A68     	 ldr r2,[r7,#4]
 3837 1098 FB69     	 ldr r3,[r7,#28]
 3838 109a D31A     	 subs r3,r2,r3
 3839 109c 7B60     	 str r3,[r7,#4]
1086:../../../platform/common/services/usb/class/cdc/device/udi_cdc.c **** 
1087:../../../platform/common/services/usb/class/cdc/device/udi_cdc.c **** 	if (size) {
 3840              	 .loc 4 1087 0
 3841 109e 7B68     	 ldr r3,[r7,#4]
 3842 10a0 002B     	 cmp r3,#0
 3843 10a2 00D0     	 beq .L207
1088:../../../platform/common/services/usb/class/cdc/device/udi_cdc.c **** 		goto udi_cdc_write_buf_loop_wait;
 3844              	 .loc 4 1088 0
 3845 10a4 A1E7     	 b .L202
 3846              	.L207:
1089:../../../platform/common/services/usb/class/cdc/device/udi_cdc.c **** 	}
1090:../../../platform/common/services/usb/class/cdc/device/udi_cdc.c **** 
1091:../../../platform/common/services/usb/class/cdc/device/udi_cdc.c **** 	return 0;
 3847              	 .loc 4 1091 0
 3848 10a6 0023     	 movs r3,#0
 3849              	.L205:
1092:../../../platform/common/services/usb/class/cdc/device/udi_cdc.c **** }
 3850              	 .loc 4 1092 0
 3851 10a8 1846     	 mov r0,r3
 3852 10aa 2037     	 adds r7,r7,#32
 3853              	.LCFI196:
 3854              	 .cfi_def_cfa_offset 8
 3855 10ac BD46     	 mov sp,r7
 3856              	.LCFI197:
 3857              	 .cfi_def_cfa_register 13
 3858              	 
 3859 10ae 80BD     	 pop {r7,pc}
 3860              	.L209:
 3861              	 .align 2
 3862              	.L208:
 3863 10b0 00000000 	 .word udi_cdc_line_coding
 3864 10b4 00000000 	 .word udi_cdc_data_running
 3865 10b8 00000000 	 .word udi_cdc_tx_buf_sel
 3866 10bc 00000000 	 .word udi_cdc_tx_buf_nb
 3867 10c0 00000000 	 .word udi_cdc_tx_buf
 3868 10c4 00000000 	 .word memcpy
 3869              	 .cfi_endproc
 3870              	.LFE167:
 3872              	 .align 1
 3873              	 .global udi_cdc_write_buf
 3874              	 .syntax unified
 3875              	 .thumb
 3876              	 .thumb_func
 3877              	 .fpu softvfp
 3879              	udi_cdc_write_buf:
 3880              	.LFB168:
1093:../../../platform/common/services/usb/class/cdc/device/udi_cdc.c **** 
1094:../../../platform/common/services/usb/class/cdc/device/udi_cdc.c **** iram_size_t udi_cdc_write_buf(const void* buf, iram_size_t size)
1095:../../../platform/common/services/usb/class/cdc/device/udi_cdc.c **** {
 3881              	 .loc 4 1095 0
 3882              	 .cfi_startproc
 3883              	 
 3884              	 
 3885 10c8 80B5     	 push {r7,lr}
 3886              	.LCFI198:
 3887              	 .cfi_def_cfa_offset 8
 3888              	 .cfi_offset 7,-8
 3889              	 .cfi_offset 14,-4
 3890 10ca 82B0     	 sub sp,sp,#8
 3891              	.LCFI199:
 3892              	 .cfi_def_cfa_offset 16
 3893 10cc 00AF     	 add r7,sp,#0
 3894              	.LCFI200:
 3895              	 .cfi_def_cfa_register 7
 3896 10ce 7860     	 str r0,[r7,#4]
 3897 10d0 3960     	 str r1,[r7]
1096:../../../platform/common/services/usb/class/cdc/device/udi_cdc.c **** 	return udi_cdc_multi_write_buf(0, buf, size);
 3898              	 .loc 4 1096 0
 3899 10d2 3A68     	 ldr r2,[r7]
 3900 10d4 7968     	 ldr r1,[r7,#4]
 3901 10d6 0020     	 movs r0,#0
 3902 10d8 FFF7FEFF 	 bl udi_cdc_multi_write_buf
 3903 10dc 0346     	 mov r3,r0
1097:../../../platform/common/services/usb/class/cdc/device/udi_cdc.c **** }
 3904              	 .loc 4 1097 0
 3905 10de 1846     	 mov r0,r3
 3906 10e0 0837     	 adds r7,r7,#8
 3907              	.LCFI201:
 3908              	 .cfi_def_cfa_offset 8
 3909 10e2 BD46     	 mov sp,r7
 3910              	.LCFI202:
 3911              	 .cfi_def_cfa_register 13
 3912              	 
 3913 10e4 80BD     	 pop {r7,pc}
 3914              	 .cfi_endproc
 3915              	.LFE168:
 3917              	 .section .bss.port_notify.8459,"aw",%nobits
 3920              	port_notify.8459:
 3921 0000 00       	 .space 1
 3922              	 .section .bss.sof_zlp_counter.8529,"aw",%nobits
 3923              	 .align 1
 3926              	sof_zlp_counter.8529:
 3927 0000 0000     	 .space 2
 3928              	 .text
 3929              	.Letext0:
 3930              	 .file 5 "c:\\program files (x86)\\atmel\\studio\\7.0\\toolchain\\arm\\arm-gnu-toolchain\\arm-none-eabi\\include\\machine\\_default_types.h"
 3931              	 .file 6 "c:\\program files (x86)\\atmel\\studio\\7.0\\toolchain\\arm\\arm-gnu-toolchain\\arm-none-eabi\\include\\sys\\_stdint.h"
 3932              	 .file 7 "../../../platform/thirdparty/CMSIS/include/core_cm4.h"
 3933              	 .file 8 "../../../platform/sam/utils/cmsis/sam4l/source/templates/system_sam4l.h"
 3934              	 .file 9 "c:\\program files (x86)\\atmel\\studio\\7.0\\toolchain\\arm\\arm-gnu-toolchain\\arm-none-eabi\\include\\sys\\lock.h"
 3935              	 .file 10 "c:\\program files (x86)\\atmel\\studio\\7.0\\toolchain\\arm\\arm-gnu-toolchain\\arm-none-eabi\\include\\sys\\_types.h"
 3936              	 .file 11 "c:\\program files (x86)\\atmel\\studio\\7.0\\toolchain\\arm\\arm-gnu-toolchain\\lib\\gcc\\arm-none-eabi\\6.3.1\\include\\stddef.h"
 3937              	 .file 12 "c:\\program files (x86)\\atmel\\studio\\7.0\\toolchain\\arm\\arm-gnu-toolchain\\arm-none-eabi\\include\\sys\\reent.h"
 3938              	 .file 13 "c:\\program files (x86)\\atmel\\studio\\7.0\\toolchain\\arm\\arm-gnu-toolchain\\arm-none-eabi\\include\\stdlib.h"
 3939              	 .file 14 "../../../platform/sam/utils/compiler.h"
 3940              	 .file 15 "../../../platform/common/services/usb/class/cdc/usb_protocol_cdc.h"
 3941              	 .file 16 "../../../platform/common/services/usb/usb_protocol.h"
 3942              	 .file 17 "../../../platform/common/services/usb/udc/udi.h"
 3943              	 .file 18 "../../../platform/common/services/usb/udc/udc_desc.h"
 3944              	 .file 19 "../../../platform/common/services/usb/udc/udd.h"
 3945              	 .file 20 "../../../platform/common/services/usb/class/cdc/device/udi_cdc.h"
 3946              	 .file 21 "../../../platform/common/utils/stdio/stdio_usb/stdio_usb.h"
 3947              	 .file 22 "<built-in>"
DEFINED SYMBOLS
                            *ABS*:00000000 udi_cdc.c
    {standard input}:16     .bss.cpu_irq_critical_section_counter:00000000 $d
    {standard input}:19     .bss.cpu_irq_critical_section_counter:00000000 cpu_irq_critical_section_counter
    {standard input}:24     .bss.cpu_irq_prev_interrupt_state:00000000 cpu_irq_prev_interrupt_state
    {standard input}:25     .bss.cpu_irq_prev_interrupt_state:00000000 $d
    {standard input}:27     .text:00000000 $t
    {standard input}:33     .text:00000000 cpu_irq_save
    {standard input}:119    .text:00000034 $d
    {standard input}:123    .text:00000038 $t
    {standard input}:129    .text:00000038 cpu_irq_is_enabled_flags
    {standard input}:177    .text:00000056 cpu_irq_restore
    {standard input}:241    .text:00000080 $d
    {standard input}:250    .data.udi_api_cdc_comm:00000000 udi_api_cdc_comm
    {standard input}:247    .data.udi_api_cdc_comm:00000000 $d
    {standard input}:380    .text:00000084 udi_cdc_comm_enable
    {standard input}:740    .text:000002a4 udi_cdc_comm_disable
    {standard input}:850    .text:000002fc udi_cdc_comm_setup
    {standard input}:1041   .text:000003c6 udi_cdc_getsetting
    {standard input}:261    .data.udi_api_cdc_data:00000000 udi_api_cdc_data
    {standard input}:258    .data.udi_api_cdc_data:00000000 $d
    {standard input}:591    .text:000001c4 udi_cdc_data_enable
    {standard input}:787    .text:000002c4 udi_cdc_data_disable
    {standard input}:1004   .text:000003b8 udi_cdc_data_setup
    {standard input}:1078   .text:000003d4 udi_cdc_data_sof_notify
    {standard input}:268    .bss.udi_cdc_line_coding:00000000 $d
    {standard input}:271    .bss.udi_cdc_line_coding:00000000 udi_cdc_line_coding
    {standard input}:274    .bss.udi_cdc_serial_state_msg_ongoing:00000000 $d
    {standard input}:277    .bss.udi_cdc_serial_state_msg_ongoing:00000000 udi_cdc_serial_state_msg_ongoing
    {standard input}:280    .bss.udi_cdc_state:00000000 $d
    {standard input}:283    .bss.udi_cdc_state:00000000 udi_cdc_state
    {standard input}:286    .bss.uid_cdc_state_msg:00000000 $d
    {standard input}:289    .bss.uid_cdc_state_msg:00000000 uid_cdc_state_msg
    {standard input}:294    .bss.udi_cdc_nb_comm_enabled:00000000 udi_cdc_nb_comm_enabled
    {standard input}:295    .bss.udi_cdc_nb_comm_enabled:00000000 $d
    {standard input}:299    .bss.udi_cdc_nb_data_enabled:00000000 udi_cdc_nb_data_enabled
    {standard input}:300    .bss.udi_cdc_nb_data_enabled:00000000 $d
    {standard input}:304    .bss.udi_cdc_data_running:00000000 udi_cdc_data_running
    {standard input}:305    .bss.udi_cdc_data_running:00000000 $d
    {standard input}:307    .bss.udi_cdc_rx_buf:00000000 $d
    {standard input}:310    .bss.udi_cdc_rx_buf:00000000 udi_cdc_rx_buf
    {standard input}:313    .bss.udi_cdc_rx_buf_nb:00000000 $d
    {standard input}:316    .bss.udi_cdc_rx_buf_nb:00000000 udi_cdc_rx_buf_nb
    {standard input}:319    .bss.udi_cdc_rx_buf_sel:00000000 $d
    {standard input}:322    .bss.udi_cdc_rx_buf_sel:00000000 udi_cdc_rx_buf_sel
    {standard input}:325    .bss.udi_cdc_rx_pos:00000000 $d
    {standard input}:328    .bss.udi_cdc_rx_pos:00000000 udi_cdc_rx_pos
    {standard input}:331    .bss.udi_cdc_rx_trans_ongoing:00000000 $d
    {standard input}:334    .bss.udi_cdc_rx_trans_ongoing:00000000 udi_cdc_rx_trans_ongoing
    {standard input}:337    .bss.udi_cdc_tx_buf:00000000 $d
    {standard input}:340    .bss.udi_cdc_tx_buf:00000000 udi_cdc_tx_buf
    {standard input}:343    .bss.udi_cdc_tx_buf_nb:00000000 $d
    {standard input}:346    .bss.udi_cdc_tx_buf_nb:00000000 udi_cdc_tx_buf_nb
    {standard input}:349    .bss.udi_cdc_tx_buf_sel:00000000 $d
    {standard input}:352    .bss.udi_cdc_tx_buf_sel:00000000 udi_cdc_tx_buf_sel
    {standard input}:355    .bss.udi_cdc_tx_sof_num:00000000 $d
    {standard input}:358    .bss.udi_cdc_tx_sof_num:00000000 udi_cdc_tx_sof_num
    {standard input}:361    .bss.udi_cdc_tx_trans_ongoing:00000000 $d
    {standard input}:364    .bss.udi_cdc_tx_trans_ongoing:00000000 udi_cdc_tx_trans_ongoing
    {standard input}:367    .bss.udi_cdc_tx_both_buf_to_send:00000000 $d
    {standard input}:370    .bss.udi_cdc_tx_both_buf_to_send:00000000 udi_cdc_tx_both_buf_to_send
    {standard input}:373    .text:00000084 $t
    {standard input}:576    .text:000001b0 $d
    {standard input}:584    .text:000001c4 $t
    {standard input}:1941   .text:00000808 udi_cdc_tx_send
    {standard input}:1546   .text:000005ec udi_cdc_rx_start
    {standard input}:719    .text:00000278 $d
    {standard input}:733    .text:000002a4 $t
    {standard input}:776    .text:000002c0 $d
    {standard input}:780    .text:000002c4 $t
    {standard input}:837    .text:000002f0 $d
    {standard input}:843    .text:000002fc $t
    {standard input}:1113   .text:000003ec udi_cdc_setup_to_port
    {standard input}:991    .text:000003ac $d
    {standard input}:1176   .text:00000418 udi_cdc_line_coding_received
    {standard input}:997    .text:000003b8 $t
    {standard input}:1103   .text:000003e8 $d
    {standard input}:3920   .bss.port_notify.8459:00000000 port_notify.8459
    {standard input}:1107   .text:000003ec $t
    {standard input}:1166   .text:00000414 $d
    {standard input}:1170   .text:00000418 $t
    {standard input}:1216   .text:0000042e udi_cdc_ctrl_state_change
    {standard input}:1323   .text:000004b8 udi_cdc_ctrl_state_notify
    {standard input}:1313   .text:000004b4 $d
    {standard input}:1317   .text:000004b8 $t
    {standard input}:1427   .text:00000548 $d
    {standard input}:1441   .text:0000055c udi_cdc_serial_state_msg_sent
    {standard input}:1435   .text:0000055c $t
    {standard input}:1534   .text:000005e0 $d
    {standard input}:1540   .text:000005ec $t
    {standard input}:2769   .text:00000b60 udi_cdc_multi_is_rx_ready
    {standard input}:1688   .text:000006b8 $d
    {standard input}:1704   .text:000006d4 udi_cdc_data_received
    {standard input}:1698   .text:000006d4 $t
    {standard input}:1824   .text:00000774 $d
    {standard input}:1833   .text:0000078c $t
    {standard input}:1839   .text:0000078c udi_cdc_data_sent
    {standard input}:1928   .text:000007f8 $d
    {standard input}:1935   .text:00000808 $t
    {standard input}:2223   .text:000009b4 $d
    {standard input}:3926   .bss.sof_zlp_counter.8529:00000000 sof_zlp_counter.8529
    {standard input}:2238   .text:000009e4 $t
    {standard input}:2245   .text:000009e4 udi_cdc_ctrl_signal_dcd
    {standard input}:2290   .text:00000a02 udi_cdc_ctrl_signal_dsr
    {standard input}:2335   .text:00000a20 udi_cdc_signal_framing_error
    {standard input}:2367   .text:00000a32 udi_cdc_signal_parity_error
    {standard input}:2399   .text:00000a44 udi_cdc_signal_overrun
    {standard input}:2431   .text:00000a56 udi_cdc_multi_ctrl_signal_dcd
    {standard input}:2479   .text:00000a7a udi_cdc_multi_ctrl_signal_dsr
    {standard input}:2527   .text:00000a9e udi_cdc_multi_signal_framing_error
    {standard input}:2572   .text:00000abc udi_cdc_multi_signal_parity_error
    {standard input}:2617   .text:00000ada udi_cdc_multi_signal_overrun
    {standard input}:2662   .text:00000af8 udi_cdc_multi_get_nb_received_data
    {standard input}:2725   .text:00000b44 $d
    {standard input}:2731   .text:00000b50 $t
    {standard input}:2738   .text:00000b50 udi_cdc_get_nb_received_data
    {standard input}:2818   .text:00000b86 udi_cdc_is_rx_ready
    {standard input}:2849   .text:00000b96 udi_cdc_multi_getc
    {standard input}:2992   .text:00000c68 $d
    {standard input}:3001   .text:00000c80 $t
    {standard input}:3008   .text:00000c80 udi_cdc_getc
    {standard input}:3039   .text:00000c90 udi_cdc_multi_read_buf
    {standard input}:3198   .text:00000d80 $d
    {standard input}:3207   .text:00000d98 $t
    {standard input}:3214   .text:00000d98 udi_cdc_read_buf
    {standard input}:3259   .text:00000db6 udi_cdc_multi_get_free_tx_buffer
    {standard input}:3378   .text:00000e6c $d
    {standard input}:3385   .text:00000e7c $t
    {standard input}:3392   .text:00000e7c udi_cdc_get_free_tx_buffer
    {standard input}:3423   .text:00000e8c udi_cdc_multi_is_tx_ready
    {standard input}:3472   .text:00000eb2 udi_cdc_is_tx_ready
    {standard input}:3503   .text:00000ec2 udi_cdc_multi_putc
    {standard input}:3640   .text:00000f8c $d
    {standard input}:3648   .text:00000fa0 $t
    {standard input}:3655   .text:00000fa0 udi_cdc_putc
    {standard input}:3698   .text:00000fba udi_cdc_multi_write_buf
    {standard input}:3863   .text:000010b0 $d
    {standard input}:3872   .text:000010c8 $t
    {standard input}:3879   .text:000010c8 udi_cdc_write_buf
    {standard input}:3921   .bss.port_notify.8459:00000000 $d
    {standard input}:3923   .bss.sof_zlp_counter.8529:00000000 $d
                     .debug_frame:00000010 $d

UNDEFINED SYMBOLS
g_interrupt_enabled
stdio_usb_enable
stdio_usb_disable
udd_g_ctrlreq
udd_ep_run
udd_is_high_speed
udd_get_micro_frame_number
udd_get_frame_number
memcpy
