   1               		.file	"macsc_megarf.c"
   2               	__SP_H__ = 0x3e
   3               	__SP_L__ = 0x3d
   4               	__SREG__ = 0x3f
   5               	__RAMPZ__ = 0x3b
   6               	__tmp_reg__ = 0
   7               	__zero_reg__ = 1
   8               		.text
   9               	.Ltext0:
  10               		.cfi_sections	.debug_frame
  12               	cpu_irq_save:
  13               	.LFB4:
  14               		.file 1 "../../../platform/common/utils/interrupt/interrupt_avr8.h"
   1:../../../platform/common/utils/interrupt/interrupt_avr8.h **** /**
   2:../../../platform/common/utils/interrupt/interrupt_avr8.h ****  * \file
   3:../../../platform/common/utils/interrupt/interrupt_avr8.h ****  *
   4:../../../platform/common/utils/interrupt/interrupt_avr8.h ****  * \brief Global interrupt management for 8-bit AVR
   5:../../../platform/common/utils/interrupt/interrupt_avr8.h ****  *
   6:../../../platform/common/utils/interrupt/interrupt_avr8.h ****  * Copyright (C) 2010-2012 Atmel Corporation. All rights reserved.
   7:../../../platform/common/utils/interrupt/interrupt_avr8.h ****  *
   8:../../../platform/common/utils/interrupt/interrupt_avr8.h ****  * \asf_license_start
   9:../../../platform/common/utils/interrupt/interrupt_avr8.h ****  *
  10:../../../platform/common/utils/interrupt/interrupt_avr8.h ****  * \page License
  11:../../../platform/common/utils/interrupt/interrupt_avr8.h ****  *
  12:../../../platform/common/utils/interrupt/interrupt_avr8.h ****  * Redistribution and use in source and binary forms, with or without
  13:../../../platform/common/utils/interrupt/interrupt_avr8.h ****  * modification, are permitted provided that the following conditions are met:
  14:../../../platform/common/utils/interrupt/interrupt_avr8.h ****  *
  15:../../../platform/common/utils/interrupt/interrupt_avr8.h ****  * 1. Redistributions of source code must retain the above copyright notice,
  16:../../../platform/common/utils/interrupt/interrupt_avr8.h ****  *    this list of conditions and the following disclaimer.
  17:../../../platform/common/utils/interrupt/interrupt_avr8.h ****  *
  18:../../../platform/common/utils/interrupt/interrupt_avr8.h ****  * 2. Redistributions in binary form must reproduce the above copyright notice,
  19:../../../platform/common/utils/interrupt/interrupt_avr8.h ****  *    this list of conditions and the following disclaimer in the documentation
  20:../../../platform/common/utils/interrupt/interrupt_avr8.h ****  *    and/or other materials provided with the distribution.
  21:../../../platform/common/utils/interrupt/interrupt_avr8.h ****  *
  22:../../../platform/common/utils/interrupt/interrupt_avr8.h ****  * 3. The name of Atmel may not be used to endorse or promote products derived
  23:../../../platform/common/utils/interrupt/interrupt_avr8.h ****  *    from this software without specific prior written permission.
  24:../../../platform/common/utils/interrupt/interrupt_avr8.h ****  *
  25:../../../platform/common/utils/interrupt/interrupt_avr8.h ****  * 4. This software may only be redistributed and used in connection with an
  26:../../../platform/common/utils/interrupt/interrupt_avr8.h ****  *    Atmel microcontroller product.
  27:../../../platform/common/utils/interrupt/interrupt_avr8.h ****  *
  28:../../../platform/common/utils/interrupt/interrupt_avr8.h ****  * THIS SOFTWARE IS PROVIDED BY ATMEL "AS IS" AND ANY EXPRESS OR IMPLIED
  29:../../../platform/common/utils/interrupt/interrupt_avr8.h ****  * WARRANTIES, INCLUDING, BUT NOT LIMITED TO, THE IMPLIED WARRANTIES OF
  30:../../../platform/common/utils/interrupt/interrupt_avr8.h ****  * MERCHANTABILITY, FITNESS FOR A PARTICULAR PURPOSE AND NON-INFRINGEMENT ARE
  31:../../../platform/common/utils/interrupt/interrupt_avr8.h ****  * EXPRESSLY AND SPECIFICALLY DISCLAIMED. IN NO EVENT SHALL ATMEL BE LIABLE FOR
  32:../../../platform/common/utils/interrupt/interrupt_avr8.h ****  * ANY DIRECT, INDIRECT, INCIDENTAL, SPECIAL, EXEMPLARY, OR CONSEQUENTIAL
  33:../../../platform/common/utils/interrupt/interrupt_avr8.h ****  * DAMAGES (INCLUDING, BUT NOT LIMITED TO, PROCUREMENT OF SUBSTITUTE GOODS
  34:../../../platform/common/utils/interrupt/interrupt_avr8.h ****  * OR SERVICES; LOSS OF USE, DATA, OR PROFITS; OR BUSINESS INTERRUPTION)
  35:../../../platform/common/utils/interrupt/interrupt_avr8.h ****  * HOWEVER CAUSED AND ON ANY THEORY OF LIABILITY, WHETHER IN CONTRACT,
  36:../../../platform/common/utils/interrupt/interrupt_avr8.h ****  * STRICT LIABILITY, OR TORT (INCLUDING NEGLIGENCE OR OTHERWISE) ARISING IN
  37:../../../platform/common/utils/interrupt/interrupt_avr8.h ****  * ANY WAY OUT OF THE USE OF THIS SOFTWARE, EVEN IF ADVISED OF THE
  38:../../../platform/common/utils/interrupt/interrupt_avr8.h ****  * POSSIBILITY OF SUCH DAMAGE.
  39:../../../platform/common/utils/interrupt/interrupt_avr8.h ****  *
  40:../../../platform/common/utils/interrupt/interrupt_avr8.h ****  * \asf_license_stop
  41:../../../platform/common/utils/interrupt/interrupt_avr8.h ****  *
  42:../../../platform/common/utils/interrupt/interrupt_avr8.h ****  */
  43:../../../platform/common/utils/interrupt/interrupt_avr8.h **** #ifndef UTILS_INTERRUPT_INTERRUPT_H
  44:../../../platform/common/utils/interrupt/interrupt_avr8.h **** #define UTILS_INTERRUPT_INTERRUPT_H
  45:../../../platform/common/utils/interrupt/interrupt_avr8.h **** 
  46:../../../platform/common/utils/interrupt/interrupt_avr8.h **** #include <compiler.h>
  47:../../../platform/common/utils/interrupt/interrupt_avr8.h **** #include <parts.h>
  48:../../../platform/common/utils/interrupt/interrupt_avr8.h **** 
  49:../../../platform/common/utils/interrupt/interrupt_avr8.h **** /**
  50:../../../platform/common/utils/interrupt/interrupt_avr8.h ****  * \weakgroup interrupt_group
  51:../../../platform/common/utils/interrupt/interrupt_avr8.h ****  *
  52:../../../platform/common/utils/interrupt/interrupt_avr8.h ****  * @{
  53:../../../platform/common/utils/interrupt/interrupt_avr8.h ****  */
  54:../../../platform/common/utils/interrupt/interrupt_avr8.h **** 
  55:../../../platform/common/utils/interrupt/interrupt_avr8.h **** #ifdef ISR_CUSTOM_H
  56:../../../platform/common/utils/interrupt/interrupt_avr8.h **** #  include ISR_CUSTOM_H
  57:../../../platform/common/utils/interrupt/interrupt_avr8.h **** #else
  58:../../../platform/common/utils/interrupt/interrupt_avr8.h **** 
  59:../../../platform/common/utils/interrupt/interrupt_avr8.h **** /**
  60:../../../platform/common/utils/interrupt/interrupt_avr8.h ****  * \def ISR
  61:../../../platform/common/utils/interrupt/interrupt_avr8.h ****  * \brief Define service routine for specified interrupt vector
  62:../../../platform/common/utils/interrupt/interrupt_avr8.h ****  *
  63:../../../platform/common/utils/interrupt/interrupt_avr8.h ****  * Usage:
  64:../../../platform/common/utils/interrupt/interrupt_avr8.h ****  * \code
  65:../../../platform/common/utils/interrupt/interrupt_avr8.h ****  * ISR(FOO_vect)
  66:../../../platform/common/utils/interrupt/interrupt_avr8.h ****  * {
  67:../../../platform/common/utils/interrupt/interrupt_avr8.h ****  *     ...
  68:../../../platform/common/utils/interrupt/interrupt_avr8.h ****  * }
  69:../../../platform/common/utils/interrupt/interrupt_avr8.h ****  * \endcode
  70:../../../platform/common/utils/interrupt/interrupt_avr8.h ****  *
  71:../../../platform/common/utils/interrupt/interrupt_avr8.h ****  * \param vect Interrupt vector name as found in the device header files.
  72:../../../platform/common/utils/interrupt/interrupt_avr8.h ****  */
  73:../../../platform/common/utils/interrupt/interrupt_avr8.h **** #if defined(__DOXYGEN__)
  74:../../../platform/common/utils/interrupt/interrupt_avr8.h **** #  define ISR(vect)
  75:../../../platform/common/utils/interrupt/interrupt_avr8.h **** #elif defined(__GNUC__)
  76:../../../platform/common/utils/interrupt/interrupt_avr8.h **** #  include <avr/interrupt.h>
  77:../../../platform/common/utils/interrupt/interrupt_avr8.h **** #elif defined(__ICCAVR__)
  78:../../../platform/common/utils/interrupt/interrupt_avr8.h **** #  define __ISR(x) _Pragma(#x)
  79:../../../platform/common/utils/interrupt/interrupt_avr8.h **** #  define ISR(vect) __ISR(vector=vect) __interrupt void handler_##vect(void)
  80:../../../platform/common/utils/interrupt/interrupt_avr8.h **** #endif
  81:../../../platform/common/utils/interrupt/interrupt_avr8.h **** #endif // ISR_CUSTOM_H
  82:../../../platform/common/utils/interrupt/interrupt_avr8.h **** 
  83:../../../platform/common/utils/interrupt/interrupt_avr8.h **** #if XMEGA
  84:../../../platform/common/utils/interrupt/interrupt_avr8.h **** /**
  85:../../../platform/common/utils/interrupt/interrupt_avr8.h ****  * \brief Initialize interrupt vectors
  86:../../../platform/common/utils/interrupt/interrupt_avr8.h ****  * Enables all interrupt levels, with vectors located in the application section
  87:../../../platform/common/utils/interrupt/interrupt_avr8.h ****  * and fixed priority scheduling.
  88:../../../platform/common/utils/interrupt/interrupt_avr8.h ****  */
  89:../../../platform/common/utils/interrupt/interrupt_avr8.h **** #define irq_initialize_vectors() \
  90:../../../platform/common/utils/interrupt/interrupt_avr8.h **** 	PMIC.CTRL = PMIC_LOLVLEN_bm | PMIC_MEDLVLEN_bm | PMIC_HILVLEN_bm;
  91:../../../platform/common/utils/interrupt/interrupt_avr8.h **** #endif
  92:../../../platform/common/utils/interrupt/interrupt_avr8.h **** 
  93:../../../platform/common/utils/interrupt/interrupt_avr8.h **** #ifdef __GNUC__
  94:../../../platform/common/utils/interrupt/interrupt_avr8.h **** #  define cpu_irq_enable()     sei()
  95:../../../platform/common/utils/interrupt/interrupt_avr8.h **** #  define cpu_irq_disable()    cli()
  96:../../../platform/common/utils/interrupt/interrupt_avr8.h **** #else
  97:../../../platform/common/utils/interrupt/interrupt_avr8.h **** #  define cpu_irq_enable()     __enable_interrupt()
  98:../../../platform/common/utils/interrupt/interrupt_avr8.h **** #  define cpu_irq_disable()    __disable_interrupt()
  99:../../../platform/common/utils/interrupt/interrupt_avr8.h **** #endif
 100:../../../platform/common/utils/interrupt/interrupt_avr8.h **** 
 101:../../../platform/common/utils/interrupt/interrupt_avr8.h **** typedef uint8_t irqflags_t;
 102:../../../platform/common/utils/interrupt/interrupt_avr8.h **** 
 103:../../../platform/common/utils/interrupt/interrupt_avr8.h **** static inline irqflags_t cpu_irq_save(void)
 104:../../../platform/common/utils/interrupt/interrupt_avr8.h **** {
  15               		.loc 1 104 0
  16               		.cfi_startproc
  17 0000 CF93      		push r28
  18               	.LCFI0:
  19               		.cfi_def_cfa_offset 3
  20               		.cfi_offset 28, -2
  21 0002 DF93      		push r29
  22               	.LCFI1:
  23               		.cfi_def_cfa_offset 4
  24               		.cfi_offset 29, -3
  25 0004 1F92      		push __zero_reg__
  26               	.LCFI2:
  27               		.cfi_def_cfa_offset 5
  28 0006 CDB7      		in r28,__SP_L__
  29 0008 DEB7      		in r29,__SP_H__
  30               	.LCFI3:
  31               		.cfi_def_cfa_register 28
  32               	/* prologue: function */
  33               	/* frame size = 1 */
  34               	/* stack size = 3 */
  35               	.L__stack_usage = 3
 105:../../../platform/common/utils/interrupt/interrupt_avr8.h **** 	irqflags_t flags = SREG;
  36               		.loc 1 105 0
  37 000a 8FE5      		ldi r24,lo8(95)
  38 000c 90E0      		ldi r25,0
  39 000e FC01      		movw r30,r24
  40 0010 8081      		ld r24,Z
  41 0012 8983      		std Y+1,r24
 106:../../../platform/common/utils/interrupt/interrupt_avr8.h **** 	cpu_irq_disable();
  42               		.loc 1 106 0
  43               	/* #APP */
  44               	 ;  106 "../../../platform/common/utils/interrupt/interrupt_avr8.h" 1
  45 0014 F894      		cli
  46               	 ;  0 "" 2
 107:../../../platform/common/utils/interrupt/interrupt_avr8.h **** 	return flags;
  47               		.loc 1 107 0
  48               	/* #NOAPP */
  49 0016 8981      		ldd r24,Y+1
  50               	/* epilogue start */
 108:../../../platform/common/utils/interrupt/interrupt_avr8.h **** }
  51               		.loc 1 108 0
  52 0018 0F90      		pop __tmp_reg__
  53 001a DF91      		pop r29
  54 001c CF91      		pop r28
  55 001e 0895      		ret
  56               		.cfi_endproc
  57               	.LFE4:
  60               	cpu_irq_restore:
  61               	.LFB5:
 109:../../../platform/common/utils/interrupt/interrupt_avr8.h **** 
 110:../../../platform/common/utils/interrupt/interrupt_avr8.h **** static inline void cpu_irq_restore(irqflags_t flags)
 111:../../../platform/common/utils/interrupt/interrupt_avr8.h **** {
  62               		.loc 1 111 0
  63               		.cfi_startproc
  64 0020 CF93      		push r28
  65               	.LCFI4:
  66               		.cfi_def_cfa_offset 3
  67               		.cfi_offset 28, -2
  68 0022 DF93      		push r29
  69               	.LCFI5:
  70               		.cfi_def_cfa_offset 4
  71               		.cfi_offset 29, -3
  72 0024 1F92      		push __zero_reg__
  73               	.LCFI6:
  74               		.cfi_def_cfa_offset 5
  75 0026 CDB7      		in r28,__SP_L__
  76 0028 DEB7      		in r29,__SP_H__
  77               	.LCFI7:
  78               		.cfi_def_cfa_register 28
  79               	/* prologue: function */
  80               	/* frame size = 1 */
  81               	/* stack size = 3 */
  82               	.L__stack_usage = 3
  83 002a 8983      		std Y+1,r24
 112:../../../platform/common/utils/interrupt/interrupt_avr8.h **** 	barrier();
  84               		.loc 1 112 0
 113:../../../platform/common/utils/interrupt/interrupt_avr8.h **** 	SREG = flags;
  85               		.loc 1 113 0
  86 002c 8FE5      		ldi r24,lo8(95)
  87 002e 90E0      		ldi r25,0
  88 0030 2981      		ldd r18,Y+1
  89 0032 FC01      		movw r30,r24
  90 0034 2083      		st Z,r18
 114:../../../platform/common/utils/interrupt/interrupt_avr8.h **** }
  91               		.loc 1 114 0
  92 0036 0000      		nop
  93               	/* epilogue start */
  94 0038 0F90      		pop __tmp_reg__
  95 003a DF91      		pop r29
  96 003c CF91      		pop r28
  97 003e 0895      		ret
  98               		.cfi_endproc
  99               	.LFE5:
 101               		.section	.bss.macsc_ovf_cb,"aw",@nobits
 104               	macsc_ovf_cb:
 105 0000 0000      		.zero	2
 106               		.section	.bss.macsc_cmp1_cb,"aw",@nobits
 109               	macsc_cmp1_cb:
 110 0000 0000      		.zero	2
 111               		.section	.bss.macsc_cmp2_cb,"aw",@nobits
 114               	macsc_cmp2_cb:
 115 0000 0000      		.zero	2
 116               		.section	.bss.macsc_cmp3_cb,"aw",@nobits
 119               	macsc_cmp3_cb:
 120 0000 0000      		.zero	2
 121               		.section	.bss.macsc_slotcnt_cb,"aw",@nobits
 124               	macsc_slotcnt_cb:
 125 0000 0000      		.zero	2
 126               		.text
 127               	.global	__vector_68
 129               	__vector_68:
 130               	.LFB30:
 131               		.file 2 "../../../platform/mega_rf/drivers/macsc/macsc_megarf.c"
   1:../../../platform/mega_rf/drivers/macsc/macsc_megarf.c **** /**
   2:../../../platform/mega_rf/drivers/macsc/macsc_megarf.c ****  * \file
   3:../../../platform/mega_rf/drivers/macsc/macsc_megarf.c ****  *
   4:../../../platform/mega_rf/drivers/macsc/macsc_megarf.c ****  * \brief AVR MEGARF MAC Symbol Counter Driver 
   5:../../../platform/mega_rf/drivers/macsc/macsc_megarf.c ****  *
   6:../../../platform/mega_rf/drivers/macsc/macsc_megarf.c ****  * Copyright (c) 2013 Atmel Corporation. All rights reserved.
   7:../../../platform/mega_rf/drivers/macsc/macsc_megarf.c ****  *
   8:../../../platform/mega_rf/drivers/macsc/macsc_megarf.c ****  * \asf_license_start
   9:../../../platform/mega_rf/drivers/macsc/macsc_megarf.c ****  *
  10:../../../platform/mega_rf/drivers/macsc/macsc_megarf.c ****  * \page License
  11:../../../platform/mega_rf/drivers/macsc/macsc_megarf.c ****  *
  12:../../../platform/mega_rf/drivers/macsc/macsc_megarf.c ****  * Redistribution and use in source and binary forms, with or without
  13:../../../platform/mega_rf/drivers/macsc/macsc_megarf.c ****  * modification, are permitted provided that the following conditions are met:
  14:../../../platform/mega_rf/drivers/macsc/macsc_megarf.c ****  *
  15:../../../platform/mega_rf/drivers/macsc/macsc_megarf.c ****  * 1. Redistributions of source code must retain the above copyright notice,
  16:../../../platform/mega_rf/drivers/macsc/macsc_megarf.c ****  *    this list of conditions and the following disclaimer.
  17:../../../platform/mega_rf/drivers/macsc/macsc_megarf.c ****  *
  18:../../../platform/mega_rf/drivers/macsc/macsc_megarf.c ****  * 2. Redistributions in binary form must reproduce the above copyright notice,
  19:../../../platform/mega_rf/drivers/macsc/macsc_megarf.c ****  *    this list of conditions and the following disclaimer in the documentation
  20:../../../platform/mega_rf/drivers/macsc/macsc_megarf.c ****  *    and/or other materials provided with the distribution.
  21:../../../platform/mega_rf/drivers/macsc/macsc_megarf.c ****  *
  22:../../../platform/mega_rf/drivers/macsc/macsc_megarf.c ****  * 3. The name of Atmel may not be used to endorse or promote products derived
  23:../../../platform/mega_rf/drivers/macsc/macsc_megarf.c ****  *    from this software without specific prior written permission.
  24:../../../platform/mega_rf/drivers/macsc/macsc_megarf.c ****  *
  25:../../../platform/mega_rf/drivers/macsc/macsc_megarf.c ****  * 4. This software may only be redistributed and used in connection with an
  26:../../../platform/mega_rf/drivers/macsc/macsc_megarf.c ****  *    Atmel microcontroller product.
  27:../../../platform/mega_rf/drivers/macsc/macsc_megarf.c ****  *
  28:../../../platform/mega_rf/drivers/macsc/macsc_megarf.c ****  * THIS SOFTWARE IS PROVIDED BY ATMEL "AS IS" AND ANY EXPRESS OR IMPLIED
  29:../../../platform/mega_rf/drivers/macsc/macsc_megarf.c ****  * WARRANTIES, INCLUDING, BUT NOT LIMITED TO, THE IMPLIED WARRANTIES OF
  30:../../../platform/mega_rf/drivers/macsc/macsc_megarf.c ****  * MERCHANTABILITY, FITNESS FOR A PARTICULAR PURPOSE AND NON-INFRINGEMENT ARE
  31:../../../platform/mega_rf/drivers/macsc/macsc_megarf.c ****  * EXPRESSLY AND SPECIFICALLY DISCLAIMED. IN NO EVENT SHALL ATMEL BE LIABLE FOR
  32:../../../platform/mega_rf/drivers/macsc/macsc_megarf.c ****  * ANY DIRECT, INDIRECT, INCIDENTAL, SPECIAL, EXEMPLARY, OR CONSEQUENTIAL
  33:../../../platform/mega_rf/drivers/macsc/macsc_megarf.c ****  * DAMAGES (INCLUDING, BUT NOT LIMITED TO, PROCUREMENT OF SUBSTITUTE GOODS
  34:../../../platform/mega_rf/drivers/macsc/macsc_megarf.c ****  * OR SERVICES; LOSS OF USE, DATA, OR PROFITS; OR BUSINESS INTERRUPTION)
  35:../../../platform/mega_rf/drivers/macsc/macsc_megarf.c ****  * HOWEVER CAUSED AND ON ANY THEORY OF LIABILITY, WHETHER IN CONTRACT,
  36:../../../platform/mega_rf/drivers/macsc/macsc_megarf.c ****  * STRICT LIABILITY, OR TORT (INCLUDING NEGLIGENCE OR OTHERWISE) ARISING IN
  37:../../../platform/mega_rf/drivers/macsc/macsc_megarf.c ****  * ANY WAY OUT OF THE USE OF THIS SOFTWARE, EVEN IF ADVISED OF THE
  38:../../../platform/mega_rf/drivers/macsc/macsc_megarf.c ****  * POSSIBILITY OF SUCH DAMAGE.
  39:../../../platform/mega_rf/drivers/macsc/macsc_megarf.c ****  *
  40:../../../platform/mega_rf/drivers/macsc/macsc_megarf.c ****  * \asf_license_stop
  41:../../../platform/mega_rf/drivers/macsc/macsc_megarf.c ****  *
  42:../../../platform/mega_rf/drivers/macsc/macsc_megarf.c ****  */
  43:../../../platform/mega_rf/drivers/macsc/macsc_megarf.c **** #include <stdint.h>
  44:../../../platform/mega_rf/drivers/macsc/macsc_megarf.c **** 
  45:../../../platform/mega_rf/drivers/macsc/macsc_megarf.c **** #include "compiler.h"
  46:../../../platform/mega_rf/drivers/macsc/macsc_megarf.c **** #include "macsc_megarf.h"
  47:../../../platform/mega_rf/drivers/macsc/macsc_megarf.c **** 
  48:../../../platform/mega_rf/drivers/macsc/macsc_megarf.c **** /* ! \internal Local storage of Timer Counter TCC0 interrupt callback function */
  49:../../../platform/mega_rf/drivers/macsc/macsc_megarf.c **** static macsc_callback_t macsc_ovf_cb;
  50:../../../platform/mega_rf/drivers/macsc/macsc_megarf.c **** static macsc_callback_t macsc_cmp1_cb;
  51:../../../platform/mega_rf/drivers/macsc/macsc_megarf.c **** static macsc_callback_t macsc_cmp2_cb;
  52:../../../platform/mega_rf/drivers/macsc/macsc_megarf.c **** static macsc_callback_t macsc_cmp3_cb;
  53:../../../platform/mega_rf/drivers/macsc/macsc_megarf.c **** static macsc_callback_t macsc_slotcnt_cb;
  54:../../../platform/mega_rf/drivers/macsc/macsc_megarf.c **** 
  55:../../../platform/mega_rf/drivers/macsc/macsc_megarf.c **** /**
  56:../../../platform/mega_rf/drivers/macsc/macsc_megarf.c ****  * \internal
  57:../../../platform/mega_rf/drivers/macsc/macsc_megarf.c ****  * \brief Interrupt handler for MAC Symbol counter overflow
  58:../../../platform/mega_rf/drivers/macsc/macsc_megarf.c ****  *
  59:../../../platform/mega_rf/drivers/macsc/macsc_megarf.c ****  * This function will handle interrupt on MAC Symbol counter overflow and
  60:../../../platform/mega_rf/drivers/macsc/macsc_megarf.c ****  * call the callback function.
  61:../../../platform/mega_rf/drivers/macsc/macsc_megarf.c ****  */
  62:../../../platform/mega_rf/drivers/macsc/macsc_megarf.c **** ISR(SCNT_OVFL_vect)
  63:../../../platform/mega_rf/drivers/macsc/macsc_megarf.c **** {
 132               		.loc 2 63 0
 133               		.cfi_startproc
 134 0040 1F92      		push r1
 135               	.LCFI8:
 136               		.cfi_def_cfa_offset 3
 137               		.cfi_offset 1, -2
 138 0042 0F92      		push r0
 139               	.LCFI9:
 140               		.cfi_def_cfa_offset 4
 141               		.cfi_offset 0, -3
 142 0044 0090 5F00 		lds r0,95
 143 0048 0F92      		push r0
 144 004a 1124      		clr __zero_reg__
 145 004c 0090 5B00 		lds r0,91
 146 0050 0F92      		push r0
 147 0052 2F93      		push r18
 148               	.LCFI10:
 149               		.cfi_def_cfa_offset 5
 150               		.cfi_offset 18, -4
 151 0054 3F93      		push r19
 152               	.LCFI11:
 153               		.cfi_def_cfa_offset 6
 154               		.cfi_offset 19, -5
 155 0056 4F93      		push r20
 156               	.LCFI12:
 157               		.cfi_def_cfa_offset 7
 158               		.cfi_offset 20, -6
 159 0058 5F93      		push r21
 160               	.LCFI13:
 161               		.cfi_def_cfa_offset 8
 162               		.cfi_offset 21, -7
 163 005a 6F93      		push r22
 164               	.LCFI14:
 165               		.cfi_def_cfa_offset 9
 166               		.cfi_offset 22, -8
 167 005c 7F93      		push r23
 168               	.LCFI15:
 169               		.cfi_def_cfa_offset 10
 170               		.cfi_offset 23, -9
 171 005e 8F93      		push r24
 172               	.LCFI16:
 173               		.cfi_def_cfa_offset 11
 174               		.cfi_offset 24, -10
 175 0060 9F93      		push r25
 176               	.LCFI17:
 177               		.cfi_def_cfa_offset 12
 178               		.cfi_offset 25, -11
 179 0062 AF93      		push r26
 180               	.LCFI18:
 181               		.cfi_def_cfa_offset 13
 182               		.cfi_offset 26, -12
 183 0064 BF93      		push r27
 184               	.LCFI19:
 185               		.cfi_def_cfa_offset 14
 186               		.cfi_offset 27, -13
 187 0066 EF93      		push r30
 188               	.LCFI20:
 189               		.cfi_def_cfa_offset 15
 190               		.cfi_offset 30, -14
 191 0068 FF93      		push r31
 192               	.LCFI21:
 193               		.cfi_def_cfa_offset 16
 194               		.cfi_offset 31, -15
 195 006a CF93      		push r28
 196               	.LCFI22:
 197               		.cfi_def_cfa_offset 17
 198               		.cfi_offset 28, -16
 199 006c DF93      		push r29
 200               	.LCFI23:
 201               		.cfi_def_cfa_offset 18
 202               		.cfi_offset 29, -17
 203 006e CDB7      		in r28,__SP_L__
 204 0070 DEB7      		in r29,__SP_H__
 205               	.LCFI24:
 206               		.cfi_def_cfa_register 28
 207               	/* prologue: Signal */
 208               	/* frame size = 0 */
 209               	/* stack size = 18 */
 210               	.L__stack_usage = 18
  64:../../../platform/mega_rf/drivers/macsc/macsc_megarf.c **** 	if (macsc_ovf_cb) {
 211               		.loc 2 64 0
 212 0072 8091 0000 		lds r24,macsc_ovf_cb
 213 0076 9091 0000 		lds r25,macsc_ovf_cb+1
 214 007a 892B      		or r24,r25
 215 007c 01F0      		breq .L6
  65:../../../platform/mega_rf/drivers/macsc/macsc_megarf.c **** 		macsc_ovf_cb();
 216               		.loc 2 65 0
 217 007e 8091 0000 		lds r24,macsc_ovf_cb
 218 0082 9091 0000 		lds r25,macsc_ovf_cb+1
 219 0086 FC01      		movw r30,r24
 220 0088 0995      		icall
 221               	.L6:
  66:../../../platform/mega_rf/drivers/macsc/macsc_megarf.c **** 	}
  67:../../../platform/mega_rf/drivers/macsc/macsc_megarf.c **** }
 222               		.loc 2 67 0
 223 008a 0000      		nop
 224               	/* epilogue start */
 225 008c DF91      		pop r29
 226 008e CF91      		pop r28
 227 0090 FF91      		pop r31
 228 0092 EF91      		pop r30
 229 0094 BF91      		pop r27
 230 0096 AF91      		pop r26
 231 0098 9F91      		pop r25
 232 009a 8F91      		pop r24
 233 009c 7F91      		pop r23
 234 009e 6F91      		pop r22
 235 00a0 5F91      		pop r21
 236 00a2 4F91      		pop r20
 237 00a4 3F91      		pop r19
 238 00a6 2F91      		pop r18
 239 00a8 0F90      		pop r0
 240 00aa 0092 5B00 		sts 91,r0
 241 00ae 0F90      		pop r0
 242 00b0 0092 5F00 		sts 95,r0
 243 00b4 0F90      		pop r0
 244 00b6 1F90      		pop r1
 245 00b8 1895      		reti
 246               		.cfi_endproc
 247               	.LFE30:
 249               	.global	__vector_65
 251               	__vector_65:
 252               	.LFB31:
  68:../../../platform/mega_rf/drivers/macsc/macsc_megarf.c **** 
  69:../../../platform/mega_rf/drivers/macsc/macsc_megarf.c **** /**
  70:../../../platform/mega_rf/drivers/macsc/macsc_megarf.c ****  * \internal
  71:../../../platform/mega_rf/drivers/macsc/macsc_megarf.c ****  * \brief Interrupt handler for MAC Symbol counter Compare 1 Match
  72:../../../platform/mega_rf/drivers/macsc/macsc_megarf.c ****  *
  73:../../../platform/mega_rf/drivers/macsc/macsc_megarf.c ****  * This function will handle interrupt on MAC Symbol counter Compare 1 Match and
  74:../../../platform/mega_rf/drivers/macsc/macsc_megarf.c ****  * call the callback function.
  75:../../../platform/mega_rf/drivers/macsc/macsc_megarf.c ****  */
  76:../../../platform/mega_rf/drivers/macsc/macsc_megarf.c **** ISR(SCNT_CMP1_vect)
  77:../../../platform/mega_rf/drivers/macsc/macsc_megarf.c **** {
 253               		.loc 2 77 0
 254               		.cfi_startproc
 255 00ba 1F92      		push r1
 256               	.LCFI25:
 257               		.cfi_def_cfa_offset 3
 258               		.cfi_offset 1, -2
 259 00bc 0F92      		push r0
 260               	.LCFI26:
 261               		.cfi_def_cfa_offset 4
 262               		.cfi_offset 0, -3
 263 00be 0090 5F00 		lds r0,95
 264 00c2 0F92      		push r0
 265 00c4 1124      		clr __zero_reg__
 266 00c6 0090 5B00 		lds r0,91
 267 00ca 0F92      		push r0
 268 00cc 2F93      		push r18
 269               	.LCFI27:
 270               		.cfi_def_cfa_offset 5
 271               		.cfi_offset 18, -4
 272 00ce 3F93      		push r19
 273               	.LCFI28:
 274               		.cfi_def_cfa_offset 6
 275               		.cfi_offset 19, -5
 276 00d0 4F93      		push r20
 277               	.LCFI29:
 278               		.cfi_def_cfa_offset 7
 279               		.cfi_offset 20, -6
 280 00d2 5F93      		push r21
 281               	.LCFI30:
 282               		.cfi_def_cfa_offset 8
 283               		.cfi_offset 21, -7
 284 00d4 6F93      		push r22
 285               	.LCFI31:
 286               		.cfi_def_cfa_offset 9
 287               		.cfi_offset 22, -8
 288 00d6 7F93      		push r23
 289               	.LCFI32:
 290               		.cfi_def_cfa_offset 10
 291               		.cfi_offset 23, -9
 292 00d8 8F93      		push r24
 293               	.LCFI33:
 294               		.cfi_def_cfa_offset 11
 295               		.cfi_offset 24, -10
 296 00da 9F93      		push r25
 297               	.LCFI34:
 298               		.cfi_def_cfa_offset 12
 299               		.cfi_offset 25, -11
 300 00dc AF93      		push r26
 301               	.LCFI35:
 302               		.cfi_def_cfa_offset 13
 303               		.cfi_offset 26, -12
 304 00de BF93      		push r27
 305               	.LCFI36:
 306               		.cfi_def_cfa_offset 14
 307               		.cfi_offset 27, -13
 308 00e0 EF93      		push r30
 309               	.LCFI37:
 310               		.cfi_def_cfa_offset 15
 311               		.cfi_offset 30, -14
 312 00e2 FF93      		push r31
 313               	.LCFI38:
 314               		.cfi_def_cfa_offset 16
 315               		.cfi_offset 31, -15
 316 00e4 CF93      		push r28
 317               	.LCFI39:
 318               		.cfi_def_cfa_offset 17
 319               		.cfi_offset 28, -16
 320 00e6 DF93      		push r29
 321               	.LCFI40:
 322               		.cfi_def_cfa_offset 18
 323               		.cfi_offset 29, -17
 324 00e8 CDB7      		in r28,__SP_L__
 325 00ea DEB7      		in r29,__SP_H__
 326               	.LCFI41:
 327               		.cfi_def_cfa_register 28
 328               	/* prologue: Signal */
 329               	/* frame size = 0 */
 330               	/* stack size = 18 */
 331               	.L__stack_usage = 18
  78:../../../platform/mega_rf/drivers/macsc/macsc_megarf.c **** 	if (macsc_cmp1_cb) {
 332               		.loc 2 78 0
 333 00ec 8091 0000 		lds r24,macsc_cmp1_cb
 334 00f0 9091 0000 		lds r25,macsc_cmp1_cb+1
 335 00f4 892B      		or r24,r25
 336 00f6 01F0      		breq .L9
  79:../../../platform/mega_rf/drivers/macsc/macsc_megarf.c **** 		macsc_cmp1_cb();
 337               		.loc 2 79 0
 338 00f8 8091 0000 		lds r24,macsc_cmp1_cb
 339 00fc 9091 0000 		lds r25,macsc_cmp1_cb+1
 340 0100 FC01      		movw r30,r24
 341 0102 0995      		icall
 342               	.L9:
  80:../../../platform/mega_rf/drivers/macsc/macsc_megarf.c **** 	}
  81:../../../platform/mega_rf/drivers/macsc/macsc_megarf.c **** }
 343               		.loc 2 81 0
 344 0104 0000      		nop
 345               	/* epilogue start */
 346 0106 DF91      		pop r29
 347 0108 CF91      		pop r28
 348 010a FF91      		pop r31
 349 010c EF91      		pop r30
 350 010e BF91      		pop r27
 351 0110 AF91      		pop r26
 352 0112 9F91      		pop r25
 353 0114 8F91      		pop r24
 354 0116 7F91      		pop r23
 355 0118 6F91      		pop r22
 356 011a 5F91      		pop r21
 357 011c 4F91      		pop r20
 358 011e 3F91      		pop r19
 359 0120 2F91      		pop r18
 360 0122 0F90      		pop r0
 361 0124 0092 5B00 		sts 91,r0
 362 0128 0F90      		pop r0
 363 012a 0092 5F00 		sts 95,r0
 364 012e 0F90      		pop r0
 365 0130 1F90      		pop r1
 366 0132 1895      		reti
 367               		.cfi_endproc
 368               	.LFE31:
 370               	.global	__vector_66
 372               	__vector_66:
 373               	.LFB32:
  82:../../../platform/mega_rf/drivers/macsc/macsc_megarf.c **** 
  83:../../../platform/mega_rf/drivers/macsc/macsc_megarf.c **** /**
  84:../../../platform/mega_rf/drivers/macsc/macsc_megarf.c ****  * \internal
  85:../../../platform/mega_rf/drivers/macsc/macsc_megarf.c ****  * \brief Interrupt handler for MAC Symbol counter Compare 2 Match
  86:../../../platform/mega_rf/drivers/macsc/macsc_megarf.c ****  *
  87:../../../platform/mega_rf/drivers/macsc/macsc_megarf.c ****  * This function will handle interrupt on MAC Symbol counter Compare 2 Match and
  88:../../../platform/mega_rf/drivers/macsc/macsc_megarf.c ****  * call the callback function.
  89:../../../platform/mega_rf/drivers/macsc/macsc_megarf.c ****  */
  90:../../../platform/mega_rf/drivers/macsc/macsc_megarf.c **** ISR(SCNT_CMP2_vect)
  91:../../../platform/mega_rf/drivers/macsc/macsc_megarf.c **** {
 374               		.loc 2 91 0
 375               		.cfi_startproc
 376 0134 1F92      		push r1
 377               	.LCFI42:
 378               		.cfi_def_cfa_offset 3
 379               		.cfi_offset 1, -2
 380 0136 0F92      		push r0
 381               	.LCFI43:
 382               		.cfi_def_cfa_offset 4
 383               		.cfi_offset 0, -3
 384 0138 0090 5F00 		lds r0,95
 385 013c 0F92      		push r0
 386 013e 1124      		clr __zero_reg__
 387 0140 0090 5B00 		lds r0,91
 388 0144 0F92      		push r0
 389 0146 2F93      		push r18
 390               	.LCFI44:
 391               		.cfi_def_cfa_offset 5
 392               		.cfi_offset 18, -4
 393 0148 3F93      		push r19
 394               	.LCFI45:
 395               		.cfi_def_cfa_offset 6
 396               		.cfi_offset 19, -5
 397 014a 4F93      		push r20
 398               	.LCFI46:
 399               		.cfi_def_cfa_offset 7
 400               		.cfi_offset 20, -6
 401 014c 5F93      		push r21
 402               	.LCFI47:
 403               		.cfi_def_cfa_offset 8
 404               		.cfi_offset 21, -7
 405 014e 6F93      		push r22
 406               	.LCFI48:
 407               		.cfi_def_cfa_offset 9
 408               		.cfi_offset 22, -8
 409 0150 7F93      		push r23
 410               	.LCFI49:
 411               		.cfi_def_cfa_offset 10
 412               		.cfi_offset 23, -9
 413 0152 8F93      		push r24
 414               	.LCFI50:
 415               		.cfi_def_cfa_offset 11
 416               		.cfi_offset 24, -10
 417 0154 9F93      		push r25
 418               	.LCFI51:
 419               		.cfi_def_cfa_offset 12
 420               		.cfi_offset 25, -11
 421 0156 AF93      		push r26
 422               	.LCFI52:
 423               		.cfi_def_cfa_offset 13
 424               		.cfi_offset 26, -12
 425 0158 BF93      		push r27
 426               	.LCFI53:
 427               		.cfi_def_cfa_offset 14
 428               		.cfi_offset 27, -13
 429 015a EF93      		push r30
 430               	.LCFI54:
 431               		.cfi_def_cfa_offset 15
 432               		.cfi_offset 30, -14
 433 015c FF93      		push r31
 434               	.LCFI55:
 435               		.cfi_def_cfa_offset 16
 436               		.cfi_offset 31, -15
 437 015e CF93      		push r28
 438               	.LCFI56:
 439               		.cfi_def_cfa_offset 17
 440               		.cfi_offset 28, -16
 441 0160 DF93      		push r29
 442               	.LCFI57:
 443               		.cfi_def_cfa_offset 18
 444               		.cfi_offset 29, -17
 445 0162 CDB7      		in r28,__SP_L__
 446 0164 DEB7      		in r29,__SP_H__
 447               	.LCFI58:
 448               		.cfi_def_cfa_register 28
 449               	/* prologue: Signal */
 450               	/* frame size = 0 */
 451               	/* stack size = 18 */
 452               	.L__stack_usage = 18
  92:../../../platform/mega_rf/drivers/macsc/macsc_megarf.c **** 	if (macsc_cmp2_cb) {
 453               		.loc 2 92 0
 454 0166 8091 0000 		lds r24,macsc_cmp2_cb
 455 016a 9091 0000 		lds r25,macsc_cmp2_cb+1
 456 016e 892B      		or r24,r25
 457 0170 01F0      		breq .L12
  93:../../../platform/mega_rf/drivers/macsc/macsc_megarf.c **** 		macsc_cmp2_cb();
 458               		.loc 2 93 0
 459 0172 8091 0000 		lds r24,macsc_cmp2_cb
 460 0176 9091 0000 		lds r25,macsc_cmp2_cb+1
 461 017a FC01      		movw r30,r24
 462 017c 0995      		icall
 463               	.L12:
  94:../../../platform/mega_rf/drivers/macsc/macsc_megarf.c **** 	}
  95:../../../platform/mega_rf/drivers/macsc/macsc_megarf.c **** }
 464               		.loc 2 95 0
 465 017e 0000      		nop
 466               	/* epilogue start */
 467 0180 DF91      		pop r29
 468 0182 CF91      		pop r28
 469 0184 FF91      		pop r31
 470 0186 EF91      		pop r30
 471 0188 BF91      		pop r27
 472 018a AF91      		pop r26
 473 018c 9F91      		pop r25
 474 018e 8F91      		pop r24
 475 0190 7F91      		pop r23
 476 0192 6F91      		pop r22
 477 0194 5F91      		pop r21
 478 0196 4F91      		pop r20
 479 0198 3F91      		pop r19
 480 019a 2F91      		pop r18
 481 019c 0F90      		pop r0
 482 019e 0092 5B00 		sts 91,r0
 483 01a2 0F90      		pop r0
 484 01a4 0092 5F00 		sts 95,r0
 485 01a8 0F90      		pop r0
 486 01aa 1F90      		pop r1
 487 01ac 1895      		reti
 488               		.cfi_endproc
 489               	.LFE32:
 491               	.global	__vector_67
 493               	__vector_67:
 494               	.LFB33:
  96:../../../platform/mega_rf/drivers/macsc/macsc_megarf.c **** 
  97:../../../platform/mega_rf/drivers/macsc/macsc_megarf.c **** /**
  98:../../../platform/mega_rf/drivers/macsc/macsc_megarf.c ****  * \internal
  99:../../../platform/mega_rf/drivers/macsc/macsc_megarf.c ****  * \brief Interrupt handler for MAC Symbol counter Compare 3 Match
 100:../../../platform/mega_rf/drivers/macsc/macsc_megarf.c ****  *
 101:../../../platform/mega_rf/drivers/macsc/macsc_megarf.c ****  * This function will handle interrupt on MAC Symbol counter Compare 3 Match and
 102:../../../platform/mega_rf/drivers/macsc/macsc_megarf.c ****  * call the callback function.
 103:../../../platform/mega_rf/drivers/macsc/macsc_megarf.c ****  */
 104:../../../platform/mega_rf/drivers/macsc/macsc_megarf.c **** ISR(SCNT_CMP3_vect)
 105:../../../platform/mega_rf/drivers/macsc/macsc_megarf.c **** {
 495               		.loc 2 105 0
 496               		.cfi_startproc
 497 01ae 1F92      		push r1
 498               	.LCFI59:
 499               		.cfi_def_cfa_offset 3
 500               		.cfi_offset 1, -2
 501 01b0 0F92      		push r0
 502               	.LCFI60:
 503               		.cfi_def_cfa_offset 4
 504               		.cfi_offset 0, -3
 505 01b2 0090 5F00 		lds r0,95
 506 01b6 0F92      		push r0
 507 01b8 1124      		clr __zero_reg__
 508 01ba 0090 5B00 		lds r0,91
 509 01be 0F92      		push r0
 510 01c0 2F93      		push r18
 511               	.LCFI61:
 512               		.cfi_def_cfa_offset 5
 513               		.cfi_offset 18, -4
 514 01c2 3F93      		push r19
 515               	.LCFI62:
 516               		.cfi_def_cfa_offset 6
 517               		.cfi_offset 19, -5
 518 01c4 4F93      		push r20
 519               	.LCFI63:
 520               		.cfi_def_cfa_offset 7
 521               		.cfi_offset 20, -6
 522 01c6 5F93      		push r21
 523               	.LCFI64:
 524               		.cfi_def_cfa_offset 8
 525               		.cfi_offset 21, -7
 526 01c8 6F93      		push r22
 527               	.LCFI65:
 528               		.cfi_def_cfa_offset 9
 529               		.cfi_offset 22, -8
 530 01ca 7F93      		push r23
 531               	.LCFI66:
 532               		.cfi_def_cfa_offset 10
 533               		.cfi_offset 23, -9
 534 01cc 8F93      		push r24
 535               	.LCFI67:
 536               		.cfi_def_cfa_offset 11
 537               		.cfi_offset 24, -10
 538 01ce 9F93      		push r25
 539               	.LCFI68:
 540               		.cfi_def_cfa_offset 12
 541               		.cfi_offset 25, -11
 542 01d0 AF93      		push r26
 543               	.LCFI69:
 544               		.cfi_def_cfa_offset 13
 545               		.cfi_offset 26, -12
 546 01d2 BF93      		push r27
 547               	.LCFI70:
 548               		.cfi_def_cfa_offset 14
 549               		.cfi_offset 27, -13
 550 01d4 EF93      		push r30
 551               	.LCFI71:
 552               		.cfi_def_cfa_offset 15
 553               		.cfi_offset 30, -14
 554 01d6 FF93      		push r31
 555               	.LCFI72:
 556               		.cfi_def_cfa_offset 16
 557               		.cfi_offset 31, -15
 558 01d8 CF93      		push r28
 559               	.LCFI73:
 560               		.cfi_def_cfa_offset 17
 561               		.cfi_offset 28, -16
 562 01da DF93      		push r29
 563               	.LCFI74:
 564               		.cfi_def_cfa_offset 18
 565               		.cfi_offset 29, -17
 566 01dc CDB7      		in r28,__SP_L__
 567 01de DEB7      		in r29,__SP_H__
 568               	.LCFI75:
 569               		.cfi_def_cfa_register 28
 570               	/* prologue: Signal */
 571               	/* frame size = 0 */
 572               	/* stack size = 18 */
 573               	.L__stack_usage = 18
 106:../../../platform/mega_rf/drivers/macsc/macsc_megarf.c **** 	if (macsc_cmp3_cb) {
 574               		.loc 2 106 0
 575 01e0 8091 0000 		lds r24,macsc_cmp3_cb
 576 01e4 9091 0000 		lds r25,macsc_cmp3_cb+1
 577 01e8 892B      		or r24,r25
 578 01ea 01F0      		breq .L15
 107:../../../platform/mega_rf/drivers/macsc/macsc_megarf.c **** 		macsc_cmp3_cb();
 579               		.loc 2 107 0
 580 01ec 8091 0000 		lds r24,macsc_cmp3_cb
 581 01f0 9091 0000 		lds r25,macsc_cmp3_cb+1
 582 01f4 FC01      		movw r30,r24
 583 01f6 0995      		icall
 584               	.L15:
 108:../../../platform/mega_rf/drivers/macsc/macsc_megarf.c **** 	}
 109:../../../platform/mega_rf/drivers/macsc/macsc_megarf.c **** }
 585               		.loc 2 109 0
 586 01f8 0000      		nop
 587               	/* epilogue start */
 588 01fa DF91      		pop r29
 589 01fc CF91      		pop r28
 590 01fe FF91      		pop r31
 591 0200 EF91      		pop r30
 592 0202 BF91      		pop r27
 593 0204 AF91      		pop r26
 594 0206 9F91      		pop r25
 595 0208 8F91      		pop r24
 596 020a 7F91      		pop r23
 597 020c 6F91      		pop r22
 598 020e 5F91      		pop r21
 599 0210 4F91      		pop r20
 600 0212 3F91      		pop r19
 601 0214 2F91      		pop r18
 602 0216 0F90      		pop r0
 603 0218 0092 5B00 		sts 91,r0
 604 021c 0F90      		pop r0
 605 021e 0092 5F00 		sts 95,r0
 606 0222 0F90      		pop r0
 607 0224 1F90      		pop r1
 608 0226 1895      		reti
 609               		.cfi_endproc
 610               	.LFE33:
 612               	.global	__vector_69
 614               	__vector_69:
 615               	.LFB34:
 110:../../../platform/mega_rf/drivers/macsc/macsc_megarf.c **** 
 111:../../../platform/mega_rf/drivers/macsc/macsc_megarf.c **** /**
 112:../../../platform/mega_rf/drivers/macsc/macsc_megarf.c ****  * \internal
 113:../../../platform/mega_rf/drivers/macsc/macsc_megarf.c ****  * \brief Interrupt handler for Back-off Slot counter
 114:../../../platform/mega_rf/drivers/macsc/macsc_megarf.c ****  *
 115:../../../platform/mega_rf/drivers/macsc/macsc_megarf.c ****  * This function will handle interrupt of the Back-off Slot counter and
 116:../../../platform/mega_rf/drivers/macsc/macsc_megarf.c ****  * call the callback function.
 117:../../../platform/mega_rf/drivers/macsc/macsc_megarf.c ****  */
 118:../../../platform/mega_rf/drivers/macsc/macsc_megarf.c **** ISR(SCNT_BACKOFF_vect)
 119:../../../platform/mega_rf/drivers/macsc/macsc_megarf.c **** {
 616               		.loc 2 119 0
 617               		.cfi_startproc
 618 0228 1F92      		push r1
 619               	.LCFI76:
 620               		.cfi_def_cfa_offset 3
 621               		.cfi_offset 1, -2
 622 022a 0F92      		push r0
 623               	.LCFI77:
 624               		.cfi_def_cfa_offset 4
 625               		.cfi_offset 0, -3
 626 022c 0090 5F00 		lds r0,95
 627 0230 0F92      		push r0
 628 0232 1124      		clr __zero_reg__
 629 0234 0090 5B00 		lds r0,91
 630 0238 0F92      		push r0
 631 023a 2F93      		push r18
 632               	.LCFI78:
 633               		.cfi_def_cfa_offset 5
 634               		.cfi_offset 18, -4
 635 023c 3F93      		push r19
 636               	.LCFI79:
 637               		.cfi_def_cfa_offset 6
 638               		.cfi_offset 19, -5
 639 023e 4F93      		push r20
 640               	.LCFI80:
 641               		.cfi_def_cfa_offset 7
 642               		.cfi_offset 20, -6
 643 0240 5F93      		push r21
 644               	.LCFI81:
 645               		.cfi_def_cfa_offset 8
 646               		.cfi_offset 21, -7
 647 0242 6F93      		push r22
 648               	.LCFI82:
 649               		.cfi_def_cfa_offset 9
 650               		.cfi_offset 22, -8
 651 0244 7F93      		push r23
 652               	.LCFI83:
 653               		.cfi_def_cfa_offset 10
 654               		.cfi_offset 23, -9
 655 0246 8F93      		push r24
 656               	.LCFI84:
 657               		.cfi_def_cfa_offset 11
 658               		.cfi_offset 24, -10
 659 0248 9F93      		push r25
 660               	.LCFI85:
 661               		.cfi_def_cfa_offset 12
 662               		.cfi_offset 25, -11
 663 024a AF93      		push r26
 664               	.LCFI86:
 665               		.cfi_def_cfa_offset 13
 666               		.cfi_offset 26, -12
 667 024c BF93      		push r27
 668               	.LCFI87:
 669               		.cfi_def_cfa_offset 14
 670               		.cfi_offset 27, -13
 671 024e EF93      		push r30
 672               	.LCFI88:
 673               		.cfi_def_cfa_offset 15
 674               		.cfi_offset 30, -14
 675 0250 FF93      		push r31
 676               	.LCFI89:
 677               		.cfi_def_cfa_offset 16
 678               		.cfi_offset 31, -15
 679 0252 CF93      		push r28
 680               	.LCFI90:
 681               		.cfi_def_cfa_offset 17
 682               		.cfi_offset 28, -16
 683 0254 DF93      		push r29
 684               	.LCFI91:
 685               		.cfi_def_cfa_offset 18
 686               		.cfi_offset 29, -17
 687 0256 CDB7      		in r28,__SP_L__
 688 0258 DEB7      		in r29,__SP_H__
 689               	.LCFI92:
 690               		.cfi_def_cfa_register 28
 691               	/* prologue: Signal */
 692               	/* frame size = 0 */
 693               	/* stack size = 18 */
 694               	.L__stack_usage = 18
 120:../../../platform/mega_rf/drivers/macsc/macsc_megarf.c **** 	if (macsc_slotcnt_cb) {
 695               		.loc 2 120 0
 696 025a 8091 0000 		lds r24,macsc_slotcnt_cb
 697 025e 9091 0000 		lds r25,macsc_slotcnt_cb+1
 698 0262 892B      		or r24,r25
 699 0264 01F0      		breq .L18
 121:../../../platform/mega_rf/drivers/macsc/macsc_megarf.c **** 		macsc_slotcnt_cb();
 700               		.loc 2 121 0
 701 0266 8091 0000 		lds r24,macsc_slotcnt_cb
 702 026a 9091 0000 		lds r25,macsc_slotcnt_cb+1
 703 026e FC01      		movw r30,r24
 704 0270 0995      		icall
 705               	.L18:
 122:../../../platform/mega_rf/drivers/macsc/macsc_megarf.c **** 	}
 123:../../../platform/mega_rf/drivers/macsc/macsc_megarf.c **** }
 706               		.loc 2 123 0
 707 0272 0000      		nop
 708               	/* epilogue start */
 709 0274 DF91      		pop r29
 710 0276 CF91      		pop r28
 711 0278 FF91      		pop r31
 712 027a EF91      		pop r30
 713 027c BF91      		pop r27
 714 027e AF91      		pop r26
 715 0280 9F91      		pop r25
 716 0282 8F91      		pop r24
 717 0284 7F91      		pop r23
 718 0286 6F91      		pop r22
 719 0288 5F91      		pop r21
 720 028a 4F91      		pop r20
 721 028c 3F91      		pop r19
 722 028e 2F91      		pop r18
 723 0290 0F90      		pop r0
 724 0292 0092 5B00 		sts 91,r0
 725 0296 0F90      		pop r0
 726 0298 0092 5F00 		sts 95,r0
 727 029c 0F90      		pop r0
 728 029e 1F90      		pop r1
 729 02a0 1895      		reti
 730               		.cfi_endproc
 731               	.LFE34:
 733               	.global	macsc_enable
 735               	macsc_enable:
 736               	.LFB35:
 124:../../../platform/mega_rf/drivers/macsc/macsc_megarf.c **** 
 125:../../../platform/mega_rf/drivers/macsc/macsc_megarf.c **** /**
 126:../../../platform/mega_rf/drivers/macsc/macsc_megarf.c ****  * \brief Enable MAC SC
 127:../../../platform/mega_rf/drivers/macsc/macsc_megarf.c ****  *
 128:../../../platform/mega_rf/drivers/macsc/macsc_megarf.c ****  * Enables the SC
 129:../../../platform/mega_rf/drivers/macsc/macsc_megarf.c ****  *
 130:../../../platform/mega_rf/drivers/macsc/macsc_megarf.c ****  * \param none
 131:../../../platform/mega_rf/drivers/macsc/macsc_megarf.c ****  *
 132:../../../platform/mega_rf/drivers/macsc/macsc_megarf.c ****  */
 133:../../../platform/mega_rf/drivers/macsc/macsc_megarf.c **** void macsc_enable(void)
 134:../../../platform/mega_rf/drivers/macsc/macsc_megarf.c **** {
 737               		.loc 2 134 0
 738               		.cfi_startproc
 739 02a2 CF93      		push r28
 740               	.LCFI93:
 741               		.cfi_def_cfa_offset 3
 742               		.cfi_offset 28, -2
 743 02a4 DF93      		push r29
 744               	.LCFI94:
 745               		.cfi_def_cfa_offset 4
 746               		.cfi_offset 29, -3
 747 02a6 1F92      		push __zero_reg__
 748               	.LCFI95:
 749               		.cfi_def_cfa_offset 5
 750 02a8 CDB7      		in r28,__SP_L__
 751 02aa DEB7      		in r29,__SP_H__
 752               	.LCFI96:
 753               		.cfi_def_cfa_register 28
 754               	/* prologue: function */
 755               	/* frame size = 1 */
 756               	/* stack size = 3 */
 757               	.L__stack_usage = 3
 135:../../../platform/mega_rf/drivers/macsc/macsc_megarf.c **** 	irqflags_t iflags = cpu_irq_save();
 758               		.loc 2 135 0
 759 02ac 0E94 0000 		call cpu_irq_save
 760 02b0 8983      		std Y+1,r24
 136:../../../platform/mega_rf/drivers/macsc/macsc_megarf.c **** 
 137:../../../platform/mega_rf/drivers/macsc/macsc_megarf.c **** 	SCCR0 |= (1 << SCEN);
 761               		.loc 2 137 0
 762 02b2 8CED      		ldi r24,lo8(-36)
 763 02b4 90E0      		ldi r25,0
 764 02b6 2CED      		ldi r18,lo8(-36)
 765 02b8 30E0      		ldi r19,0
 766 02ba F901      		movw r30,r18
 767 02bc 2081      		ld r18,Z
 768 02be 2062      		ori r18,lo8(32)
 769 02c0 FC01      		movw r30,r24
 770 02c2 2083      		st Z,r18
 138:../../../platform/mega_rf/drivers/macsc/macsc_megarf.c **** 
 139:../../../platform/mega_rf/drivers/macsc/macsc_megarf.c **** 	cpu_irq_restore(iflags);
 771               		.loc 2 139 0
 772 02c4 8981      		ldd r24,Y+1
 773 02c6 0E94 0000 		call cpu_irq_restore
 140:../../../platform/mega_rf/drivers/macsc/macsc_megarf.c **** }
 774               		.loc 2 140 0
 775 02ca 0000      		nop
 776               	/* epilogue start */
 777 02cc 0F90      		pop __tmp_reg__
 778 02ce DF91      		pop r29
 779 02d0 CF91      		pop r28
 780 02d2 0895      		ret
 781               		.cfi_endproc
 782               	.LFE35:
 784               	.global	is_macsc_enable
 786               	is_macsc_enable:
 787               	.LFB36:
 141:../../../platform/mega_rf/drivers/macsc/macsc_megarf.c **** 
 142:../../../platform/mega_rf/drivers/macsc/macsc_megarf.c **** /**
 143:../../../platform/mega_rf/drivers/macsc/macsc_megarf.c ****  * \brief Check if MACSC is enabled
 144:../../../platform/mega_rf/drivers/macsc/macsc_megarf.c ****  *
 145:../../../platform/mega_rf/drivers/macsc/macsc_megarf.c ****  * check if the MACSC is enabled.
 146:../../../platform/mega_rf/drivers/macsc/macsc_megarf.c ****  *
 147:../../../platform/mega_rf/drivers/macsc/macsc_megarf.c ****  * \param none
 148:../../../platform/mega_rf/drivers/macsc/macsc_megarf.c ****  *
 149:../../../platform/mega_rf/drivers/macsc/macsc_megarf.c ****  */
 150:../../../platform/mega_rf/drivers/macsc/macsc_megarf.c **** bool is_macsc_enable(void)
 151:../../../platform/mega_rf/drivers/macsc/macsc_megarf.c **** {	
 788               		.loc 2 151 0
 789               		.cfi_startproc
 790 02d4 CF93      		push r28
 791               	.LCFI97:
 792               		.cfi_def_cfa_offset 3
 793               		.cfi_offset 28, -2
 794 02d6 DF93      		push r29
 795               	.LCFI98:
 796               		.cfi_def_cfa_offset 4
 797               		.cfi_offset 29, -3
 798 02d8 CDB7      		in r28,__SP_L__
 799 02da DEB7      		in r29,__SP_H__
 800               	.LCFI99:
 801               		.cfi_def_cfa_register 28
 802               	/* prologue: function */
 803               	/* frame size = 0 */
 804               	/* stack size = 2 */
 805               	.L__stack_usage = 2
 152:../../../platform/mega_rf/drivers/macsc/macsc_megarf.c ****    	return(SCCR0&&(1<<SCEN));	
 806               		.loc 2 152 0
 807 02dc 8CED      		ldi r24,lo8(-36)
 808 02de 90E0      		ldi r25,0
 809 02e0 FC01      		movw r30,r24
 810 02e2 8081      		ld r24,Z
 811 02e4 8823      		tst r24
 812 02e6 01F0      		breq .L21
 813               		.loc 2 152 0 is_stmt 0 discriminator 3
 814 02e8 81E0      		ldi r24,lo8(1)
 815 02ea 90E0      		ldi r25,0
 816 02ec 00C0      		rjmp .L22
 817               	.L21:
 818               		.loc 2 152 0 discriminator 4
 819 02ee 80E0      		ldi r24,0
 820 02f0 90E0      		ldi r25,0
 821               	.L22:
 822               		.loc 2 152 0 discriminator 6
 823 02f2 8170      		andi r24,lo8(1)
 824               	/* epilogue start */
 153:../../../platform/mega_rf/drivers/macsc/macsc_megarf.c **** }
 825               		.loc 2 153 0 is_stmt 1 discriminator 6
 826 02f4 DF91      		pop r29
 827 02f6 CF91      		pop r28
 828 02f8 0895      		ret
 829               		.cfi_endproc
 830               	.LFE36:
 832               	.global	macsc_disable
 834               	macsc_disable:
 835               	.LFB37:
 154:../../../platform/mega_rf/drivers/macsc/macsc_megarf.c **** 
 155:../../../platform/mega_rf/drivers/macsc/macsc_megarf.c **** /**
 156:../../../platform/mega_rf/drivers/macsc/macsc_megarf.c ****  * \brief Disable MAC SC
 157:../../../platform/mega_rf/drivers/macsc/macsc_megarf.c ****  *
 158:../../../platform/mega_rf/drivers/macsc/macsc_megarf.c ****  * Disables the MAC SC
 159:../../../platform/mega_rf/drivers/macsc/macsc_megarf.c ****  *
 160:../../../platform/mega_rf/drivers/macsc/macsc_megarf.c ****  * \param none
 161:../../../platform/mega_rf/drivers/macsc/macsc_megarf.c ****  *
 162:../../../platform/mega_rf/drivers/macsc/macsc_megarf.c ****  */
 163:../../../platform/mega_rf/drivers/macsc/macsc_megarf.c **** void macsc_disable(void)
 164:../../../platform/mega_rf/drivers/macsc/macsc_megarf.c **** {
 836               		.loc 2 164 0
 837               		.cfi_startproc
 838 02fa CF93      		push r28
 839               	.LCFI100:
 840               		.cfi_def_cfa_offset 3
 841               		.cfi_offset 28, -2
 842 02fc DF93      		push r29
 843               	.LCFI101:
 844               		.cfi_def_cfa_offset 4
 845               		.cfi_offset 29, -3
 846 02fe CDB7      		in r28,__SP_L__
 847 0300 DEB7      		in r29,__SP_H__
 848               	.LCFI102:
 849               		.cfi_def_cfa_register 28
 850               	/* prologue: function */
 851               	/* frame size = 0 */
 852               	/* stack size = 2 */
 853               	.L__stack_usage = 2
 165:../../../platform/mega_rf/drivers/macsc/macsc_megarf.c **** 	SCCR0 &= ~(1<<SCEN);
 854               		.loc 2 165 0
 855 0302 8CED      		ldi r24,lo8(-36)
 856 0304 90E0      		ldi r25,0
 857 0306 2CED      		ldi r18,lo8(-36)
 858 0308 30E0      		ldi r19,0
 859 030a F901      		movw r30,r18
 860 030c 2081      		ld r18,Z
 861 030e 2F7D      		andi r18,lo8(-33)
 862 0310 FC01      		movw r30,r24
 863 0312 2083      		st Z,r18
 166:../../../platform/mega_rf/drivers/macsc/macsc_megarf.c **** }
 864               		.loc 2 166 0
 865 0314 0000      		nop
 866               	/* epilogue start */
 867 0316 DF91      		pop r29
 868 0318 CF91      		pop r28
 869 031a 0895      		ret
 870               		.cfi_endproc
 871               	.LFE37:
 873               	.global	is_macsc_backoff_enable
 875               	is_macsc_backoff_enable:
 876               	.LFB38:
 167:../../../platform/mega_rf/drivers/macsc/macsc_megarf.c **** 
 168:../../../platform/mega_rf/drivers/macsc/macsc_megarf.c **** /**
 169:../../../platform/mega_rf/drivers/macsc/macsc_megarf.c ****  * \brief Check if back-off slot counter is enabled
 170:../../../platform/mega_rf/drivers/macsc/macsc_megarf.c ****  *
 171:../../../platform/mega_rf/drivers/macsc/macsc_megarf.c ****  * check if the back-off slot counter is enabled.
 172:../../../platform/mega_rf/drivers/macsc/macsc_megarf.c ****  *
 173:../../../platform/mega_rf/drivers/macsc/macsc_megarf.c ****  * \param none
 174:../../../platform/mega_rf/drivers/macsc/macsc_megarf.c ****  *
 175:../../../platform/mega_rf/drivers/macsc/macsc_megarf.c ****  */
 176:../../../platform/mega_rf/drivers/macsc/macsc_megarf.c **** bool is_macsc_backoff_enable(void)
 177:../../../platform/mega_rf/drivers/macsc/macsc_megarf.c **** {	
 877               		.loc 2 177 0
 878               		.cfi_startproc
 879 031c CF93      		push r28
 880               	.LCFI103:
 881               		.cfi_def_cfa_offset 3
 882               		.cfi_offset 28, -2
 883 031e DF93      		push r29
 884               	.LCFI104:
 885               		.cfi_def_cfa_offset 4
 886               		.cfi_offset 29, -3
 887 0320 CDB7      		in r28,__SP_L__
 888 0322 DEB7      		in r29,__SP_H__
 889               	.LCFI105:
 890               		.cfi_def_cfa_register 28
 891               	/* prologue: function */
 892               	/* frame size = 0 */
 893               	/* stack size = 2 */
 894               	.L__stack_usage = 2
 178:../../../platform/mega_rf/drivers/macsc/macsc_megarf.c ****    	return(SCCR1&&(1<<SCENBO));	
 895               		.loc 2 178 0
 896 0324 8DED      		ldi r24,lo8(-35)
 897 0326 90E0      		ldi r25,0
 898 0328 FC01      		movw r30,r24
 899 032a 8081      		ld r24,Z
 900 032c 8823      		tst r24
 901 032e 01F0      		breq .L26
 902               		.loc 2 178 0 is_stmt 0 discriminator 3
 903 0330 81E0      		ldi r24,lo8(1)
 904 0332 90E0      		ldi r25,0
 905 0334 00C0      		rjmp .L27
 906               	.L26:
 907               		.loc 2 178 0 discriminator 4
 908 0336 80E0      		ldi r24,0
 909 0338 90E0      		ldi r25,0
 910               	.L27:
 911               		.loc 2 178 0 discriminator 6
 912 033a 8170      		andi r24,lo8(1)
 913               	/* epilogue start */
 179:../../../platform/mega_rf/drivers/macsc/macsc_megarf.c **** }
 914               		.loc 2 179 0 is_stmt 1 discriminator 6
 915 033c DF91      		pop r29
 916 033e CF91      		pop r28
 917 0340 0895      		ret
 918               		.cfi_endproc
 919               	.LFE38:
 921               	.global	macsc_enable_cmp_int
 923               	macsc_enable_cmp_int:
 924               	.LFB39:
 180:../../../platform/mega_rf/drivers/macsc/macsc_megarf.c **** 
 181:../../../platform/mega_rf/drivers/macsc/macsc_megarf.c **** /**
 182:../../../platform/mega_rf/drivers/macsc/macsc_megarf.c ****  * \brief Enables compare interrupts of the MACSC 
 183:../../../platform/mega_rf/drivers/macsc/macsc_megarf.c ****  * \param channel Compare channel
 184:../../../platform/mega_rf/drivers/macsc/macsc_megarf.c ****  */
 185:../../../platform/mega_rf/drivers/macsc/macsc_megarf.c **** void macsc_enable_cmp_int(enum macsc_cc_channel channel)
 186:../../../platform/mega_rf/drivers/macsc/macsc_megarf.c **** {
 925               		.loc 2 186 0
 926               		.cfi_startproc
 927 0342 CF93      		push r28
 928               	.LCFI106:
 929               		.cfi_def_cfa_offset 3
 930               		.cfi_offset 28, -2
 931 0344 DF93      		push r29
 932               	.LCFI107:
 933               		.cfi_def_cfa_offset 4
 934               		.cfi_offset 29, -3
 935 0346 1F92      		push __zero_reg__
 936               	.LCFI108:
 937               		.cfi_def_cfa_offset 5
 938 0348 CDB7      		in r28,__SP_L__
 939 034a DEB7      		in r29,__SP_H__
 940               	.LCFI109:
 941               		.cfi_def_cfa_register 28
 942               	/* prologue: function */
 943               	/* frame size = 1 */
 944               	/* stack size = 3 */
 945               	.L__stack_usage = 3
 946 034c 8983      		std Y+1,r24
 187:../../../platform/mega_rf/drivers/macsc/macsc_megarf.c **** 	switch (channel) {
 947               		.loc 2 187 0
 948 034e 8981      		ldd r24,Y+1
 949 0350 882F      		mov r24,r24
 950 0352 90E0      		ldi r25,0
 951 0354 8230      		cpi r24,2
 952 0356 9105      		cpc r25,__zero_reg__
 953 0358 01F0      		breq .L31
 954 035a 8330      		cpi r24,3
 955 035c 9105      		cpc r25,__zero_reg__
 956 035e 01F4      		brne .+2
 957 0360 00C0      		rjmp .L32
 958 0362 0197      		sbiw r24,1
 959 0364 01F0      		breq .L33
 188:../../../platform/mega_rf/drivers/macsc/macsc_megarf.c **** 	case MACSC_CC1:
 189:../../../platform/mega_rf/drivers/macsc/macsc_megarf.c **** 	{
 190:../../../platform/mega_rf/drivers/macsc/macsc_megarf.c **** 		if ((SCIRQM & (1 << IRQMCP1)) == 0) {
 191:../../../platform/mega_rf/drivers/macsc/macsc_megarf.c **** 			SCIRQS |= (1 << IRQSCP1);
 192:../../../platform/mega_rf/drivers/macsc/macsc_megarf.c **** 			SCIRQM |= (1 << IRQMCP1);
 193:../../../platform/mega_rf/drivers/macsc/macsc_megarf.c **** 		}
 194:../../../platform/mega_rf/drivers/macsc/macsc_megarf.c **** 	}
 195:../../../platform/mega_rf/drivers/macsc/macsc_megarf.c **** 	break;
 196:../../../platform/mega_rf/drivers/macsc/macsc_megarf.c **** 
 197:../../../platform/mega_rf/drivers/macsc/macsc_megarf.c **** 	case MACSC_CC2:
 198:../../../platform/mega_rf/drivers/macsc/macsc_megarf.c **** 	{
 199:../../../platform/mega_rf/drivers/macsc/macsc_megarf.c **** 		if ((SCIRQM & (1 << IRQMCP2)) == 0) {
 200:../../../platform/mega_rf/drivers/macsc/macsc_megarf.c **** 			SCIRQS |= (1 << IRQSCP2);
 201:../../../platform/mega_rf/drivers/macsc/macsc_megarf.c **** 			SCIRQM |= (1 << IRQMCP2);
 202:../../../platform/mega_rf/drivers/macsc/macsc_megarf.c **** 		}
 203:../../../platform/mega_rf/drivers/macsc/macsc_megarf.c **** 	}
 204:../../../platform/mega_rf/drivers/macsc/macsc_megarf.c **** 	break;
 205:../../../platform/mega_rf/drivers/macsc/macsc_megarf.c **** 
 206:../../../platform/mega_rf/drivers/macsc/macsc_megarf.c **** 	case MACSC_CC3:
 207:../../../platform/mega_rf/drivers/macsc/macsc_megarf.c **** 	{
 208:../../../platform/mega_rf/drivers/macsc/macsc_megarf.c **** 		if ((SCIRQM & (1 << IRQMCP3)) == 0) {
 209:../../../platform/mega_rf/drivers/macsc/macsc_megarf.c **** 			SCIRQS |= (1 << IRQSCP3);
 210:../../../platform/mega_rf/drivers/macsc/macsc_megarf.c **** 			SCIRQM |= (1 << IRQMCP3);
 211:../../../platform/mega_rf/drivers/macsc/macsc_megarf.c **** 		}
 212:../../../platform/mega_rf/drivers/macsc/macsc_megarf.c **** 	}
 213:../../../platform/mega_rf/drivers/macsc/macsc_megarf.c **** 	break;
 214:../../../platform/mega_rf/drivers/macsc/macsc_megarf.c **** 
 215:../../../platform/mega_rf/drivers/macsc/macsc_megarf.c **** 	default:
 216:../../../platform/mega_rf/drivers/macsc/macsc_megarf.c **** 		break;
 960               		.loc 2 216 0
 961 0366 00C0      		rjmp .L35
 962               	.L33:
 190:../../../platform/mega_rf/drivers/macsc/macsc_megarf.c **** 			SCIRQS |= (1 << IRQSCP1);
 963               		.loc 2 190 0
 964 0368 8FED      		ldi r24,lo8(-33)
 965 036a 90E0      		ldi r25,0
 966 036c FC01      		movw r30,r24
 967 036e 8081      		ld r24,Z
 968 0370 882F      		mov r24,r24
 969 0372 90E0      		ldi r25,0
 970 0374 8170      		andi r24,1
 971 0376 9927      		clr r25
 972 0378 892B      		or r24,r25
 973 037a 01F0      		breq .+2
 974 037c 00C0      		rjmp .L38
 191:../../../platform/mega_rf/drivers/macsc/macsc_megarf.c **** 			SCIRQM |= (1 << IRQMCP1);
 975               		.loc 2 191 0
 976 037e 80EE      		ldi r24,lo8(-32)
 977 0380 90E0      		ldi r25,0
 978 0382 20EE      		ldi r18,lo8(-32)
 979 0384 30E0      		ldi r19,0
 980 0386 F901      		movw r30,r18
 981 0388 2081      		ld r18,Z
 982 038a 2160      		ori r18,lo8(1)
 983 038c FC01      		movw r30,r24
 984 038e 2083      		st Z,r18
 192:../../../platform/mega_rf/drivers/macsc/macsc_megarf.c **** 		}
 985               		.loc 2 192 0
 986 0390 8FED      		ldi r24,lo8(-33)
 987 0392 90E0      		ldi r25,0
 988 0394 2FED      		ldi r18,lo8(-33)
 989 0396 30E0      		ldi r19,0
 990 0398 F901      		movw r30,r18
 991 039a 2081      		ld r18,Z
 992 039c 2160      		ori r18,lo8(1)
 993 039e FC01      		movw r30,r24
 994 03a0 2083      		st Z,r18
 195:../../../platform/mega_rf/drivers/macsc/macsc_megarf.c **** 
 995               		.loc 2 195 0
 996 03a2 00C0      		rjmp .L38
 997               	.L31:
 199:../../../platform/mega_rf/drivers/macsc/macsc_megarf.c **** 			SCIRQS |= (1 << IRQSCP2);
 998               		.loc 2 199 0
 999 03a4 8FED      		ldi r24,lo8(-33)
 1000 03a6 90E0      		ldi r25,0
 1001 03a8 FC01      		movw r30,r24
 1002 03aa 8081      		ld r24,Z
 1003 03ac 882F      		mov r24,r24
 1004 03ae 90E0      		ldi r25,0
 1005 03b0 8270      		andi r24,2
 1006 03b2 9927      		clr r25
 1007 03b4 892B      		or r24,r25
 1008 03b6 01F4      		brne .L39
 200:../../../platform/mega_rf/drivers/macsc/macsc_megarf.c **** 			SCIRQM |= (1 << IRQMCP2);
 1009               		.loc 2 200 0
 1010 03b8 80EE      		ldi r24,lo8(-32)
 1011 03ba 90E0      		ldi r25,0
 1012 03bc 20EE      		ldi r18,lo8(-32)
 1013 03be 30E0      		ldi r19,0
 1014 03c0 F901      		movw r30,r18
 1015 03c2 2081      		ld r18,Z
 1016 03c4 2260      		ori r18,lo8(2)
 1017 03c6 FC01      		movw r30,r24
 1018 03c8 2083      		st Z,r18
 201:../../../platform/mega_rf/drivers/macsc/macsc_megarf.c **** 		}
 1019               		.loc 2 201 0
 1020 03ca 8FED      		ldi r24,lo8(-33)
 1021 03cc 90E0      		ldi r25,0
 1022 03ce 2FED      		ldi r18,lo8(-33)
 1023 03d0 30E0      		ldi r19,0
 1024 03d2 F901      		movw r30,r18
 1025 03d4 2081      		ld r18,Z
 1026 03d6 2260      		ori r18,lo8(2)
 1027 03d8 FC01      		movw r30,r24
 1028 03da 2083      		st Z,r18
 204:../../../platform/mega_rf/drivers/macsc/macsc_megarf.c **** 
 1029               		.loc 2 204 0
 1030 03dc 00C0      		rjmp .L39
 1031               	.L32:
 208:../../../platform/mega_rf/drivers/macsc/macsc_megarf.c **** 			SCIRQS |= (1 << IRQSCP3);
 1032               		.loc 2 208 0
 1033 03de 8FED      		ldi r24,lo8(-33)
 1034 03e0 90E0      		ldi r25,0
 1035 03e2 FC01      		movw r30,r24
 1036 03e4 8081      		ld r24,Z
 1037 03e6 882F      		mov r24,r24
 1038 03e8 90E0      		ldi r25,0
 1039 03ea 8470      		andi r24,4
 1040 03ec 9927      		clr r25
 1041 03ee 892B      		or r24,r25
 1042 03f0 01F4      		brne .L40
 209:../../../platform/mega_rf/drivers/macsc/macsc_megarf.c **** 			SCIRQM |= (1 << IRQMCP3);
 1043               		.loc 2 209 0
 1044 03f2 80EE      		ldi r24,lo8(-32)
 1045 03f4 90E0      		ldi r25,0
 1046 03f6 20EE      		ldi r18,lo8(-32)
 1047 03f8 30E0      		ldi r19,0
 1048 03fa F901      		movw r30,r18
 1049 03fc 2081      		ld r18,Z
 1050 03fe 2460      		ori r18,lo8(4)
 1051 0400 FC01      		movw r30,r24
 1052 0402 2083      		st Z,r18
 210:../../../platform/mega_rf/drivers/macsc/macsc_megarf.c **** 		}
 1053               		.loc 2 210 0
 1054 0404 8FED      		ldi r24,lo8(-33)
 1055 0406 90E0      		ldi r25,0
 1056 0408 2FED      		ldi r18,lo8(-33)
 1057 040a 30E0      		ldi r19,0
 1058 040c F901      		movw r30,r18
 1059 040e 2081      		ld r18,Z
 1060 0410 2460      		ori r18,lo8(4)
 1061 0412 FC01      		movw r30,r24
 1062 0414 2083      		st Z,r18
 213:../../../platform/mega_rf/drivers/macsc/macsc_megarf.c **** 
 1063               		.loc 2 213 0
 1064 0416 00C0      		rjmp .L40
 1065               	.L38:
 195:../../../platform/mega_rf/drivers/macsc/macsc_megarf.c **** 
 1066               		.loc 2 195 0
 1067 0418 0000      		nop
 1068 041a 00C0      		rjmp .L35
 1069               	.L39:
 204:../../../platform/mega_rf/drivers/macsc/macsc_megarf.c **** 
 1070               		.loc 2 204 0
 1071 041c 0000      		nop
 1072 041e 00C0      		rjmp .L35
 1073               	.L40:
 213:../../../platform/mega_rf/drivers/macsc/macsc_megarf.c **** 
 1074               		.loc 2 213 0
 1075 0420 0000      		nop
 1076               	.L35:
 217:../../../platform/mega_rf/drivers/macsc/macsc_megarf.c **** 	}
 218:../../../platform/mega_rf/drivers/macsc/macsc_megarf.c **** }
 1077               		.loc 2 218 0
 1078 0422 0000      		nop
 1079               	/* epilogue start */
 1080 0424 0F90      		pop __tmp_reg__
 1081 0426 DF91      		pop r29
 1082 0428 CF91      		pop r28
 1083 042a 0895      		ret
 1084               		.cfi_endproc
 1085               	.LFE39:
 1087               	.global	macsc_disable_cmp_int
 1089               	macsc_disable_cmp_int:
 1090               	.LFB40:
 219:../../../platform/mega_rf/drivers/macsc/macsc_megarf.c **** 
 220:../../../platform/mega_rf/drivers/macsc/macsc_megarf.c **** /**
 221:../../../platform/mega_rf/drivers/macsc/macsc_megarf.c ****  * \brief Disables compare interrupts of the MACSC 
 222:../../../platform/mega_rf/drivers/macsc/macsc_megarf.c ****  * \param channel Compare channel
 223:../../../platform/mega_rf/drivers/macsc/macsc_megarf.c ****  */
 224:../../../platform/mega_rf/drivers/macsc/macsc_megarf.c **** void macsc_disable_cmp_int(enum macsc_cc_channel channel)
 225:../../../platform/mega_rf/drivers/macsc/macsc_megarf.c **** {
 1091               		.loc 2 225 0
 1092               		.cfi_startproc
 1093 042c CF93      		push r28
 1094               	.LCFI110:
 1095               		.cfi_def_cfa_offset 3
 1096               		.cfi_offset 28, -2
 1097 042e DF93      		push r29
 1098               	.LCFI111:
 1099               		.cfi_def_cfa_offset 4
 1100               		.cfi_offset 29, -3
 1101 0430 1F92      		push __zero_reg__
 1102               	.LCFI112:
 1103               		.cfi_def_cfa_offset 5
 1104 0432 CDB7      		in r28,__SP_L__
 1105 0434 DEB7      		in r29,__SP_H__
 1106               	.LCFI113:
 1107               		.cfi_def_cfa_register 28
 1108               	/* prologue: function */
 1109               	/* frame size = 1 */
 1110               	/* stack size = 3 */
 1111               	.L__stack_usage = 3
 1112 0436 8983      		std Y+1,r24
 226:../../../platform/mega_rf/drivers/macsc/macsc_megarf.c **** 	switch (channel) {
 1113               		.loc 2 226 0
 1114 0438 8981      		ldd r24,Y+1
 1115 043a 882F      		mov r24,r24
 1116 043c 90E0      		ldi r25,0
 1117 043e 8230      		cpi r24,2
 1118 0440 9105      		cpc r25,__zero_reg__
 1119 0442 01F0      		breq .L43
 1120 0444 8330      		cpi r24,3
 1121 0446 9105      		cpc r25,__zero_reg__
 1122 0448 01F0      		breq .L44
 1123 044a 0197      		sbiw r24,1
 1124 044c 01F0      		breq .L45
 227:../../../platform/mega_rf/drivers/macsc/macsc_megarf.c **** 	case MACSC_CC1:
 228:../../../platform/mega_rf/drivers/macsc/macsc_megarf.c **** 	{
 229:../../../platform/mega_rf/drivers/macsc/macsc_megarf.c **** 		if ((SCIRQM & (1 << IRQMCP1)) == 1) {
 230:../../../platform/mega_rf/drivers/macsc/macsc_megarf.c **** 			SCIRQS |= (1 << IRQSCP1);
 231:../../../platform/mega_rf/drivers/macsc/macsc_megarf.c **** 			SCIRQM &= ~(1 << IRQMCP1);
 232:../../../platform/mega_rf/drivers/macsc/macsc_megarf.c **** 		}
 233:../../../platform/mega_rf/drivers/macsc/macsc_megarf.c **** 	}
 234:../../../platform/mega_rf/drivers/macsc/macsc_megarf.c **** 	break;
 235:../../../platform/mega_rf/drivers/macsc/macsc_megarf.c **** 
 236:../../../platform/mega_rf/drivers/macsc/macsc_megarf.c **** 	case MACSC_CC2:
 237:../../../platform/mega_rf/drivers/macsc/macsc_megarf.c **** 	{
 238:../../../platform/mega_rf/drivers/macsc/macsc_megarf.c **** 		if ((SCIRQM & (1 << IRQMCP2)) == 1) {
 239:../../../platform/mega_rf/drivers/macsc/macsc_megarf.c **** 			SCIRQS |= (1 << IRQSCP2);
 240:../../../platform/mega_rf/drivers/macsc/macsc_megarf.c **** 			SCIRQM &= ~(1 << IRQMCP2);
 241:../../../platform/mega_rf/drivers/macsc/macsc_megarf.c **** 		}
 242:../../../platform/mega_rf/drivers/macsc/macsc_megarf.c **** 	}
 243:../../../platform/mega_rf/drivers/macsc/macsc_megarf.c **** 	break;
 244:../../../platform/mega_rf/drivers/macsc/macsc_megarf.c **** 
 245:../../../platform/mega_rf/drivers/macsc/macsc_megarf.c **** 	case MACSC_CC3:
 246:../../../platform/mega_rf/drivers/macsc/macsc_megarf.c **** 	{
 247:../../../platform/mega_rf/drivers/macsc/macsc_megarf.c **** 		if ((SCIRQM & (1 << IRQMCP3)) == 1) {
 248:../../../platform/mega_rf/drivers/macsc/macsc_megarf.c **** 			SCIRQS |= (1 << IRQSCP3);
 249:../../../platform/mega_rf/drivers/macsc/macsc_megarf.c **** 			SCIRQM &= ~(1 << IRQMCP3);
 250:../../../platform/mega_rf/drivers/macsc/macsc_megarf.c **** 		}
 251:../../../platform/mega_rf/drivers/macsc/macsc_megarf.c **** 	}
 252:../../../platform/mega_rf/drivers/macsc/macsc_megarf.c **** 	break;
 253:../../../platform/mega_rf/drivers/macsc/macsc_megarf.c **** 
 254:../../../platform/mega_rf/drivers/macsc/macsc_megarf.c **** 	default:
 255:../../../platform/mega_rf/drivers/macsc/macsc_megarf.c **** 		break;
 1125               		.loc 2 255 0
 1126 044e 00C0      		rjmp .L47
 1127               	.L45:
 229:../../../platform/mega_rf/drivers/macsc/macsc_megarf.c **** 			SCIRQS |= (1 << IRQSCP1);
 1128               		.loc 2 229 0
 1129 0450 8FED      		ldi r24,lo8(-33)
 1130 0452 90E0      		ldi r25,0
 1131 0454 FC01      		movw r30,r24
 1132 0456 8081      		ld r24,Z
 1133 0458 882F      		mov r24,r24
 1134 045a 90E0      		ldi r25,0
 1135 045c 8170      		andi r24,1
 1136 045e 9927      		clr r25
 1137 0460 892B      		or r24,r25
 1138 0462 01F0      		breq .L48
 230:../../../platform/mega_rf/drivers/macsc/macsc_megarf.c **** 			SCIRQM &= ~(1 << IRQMCP1);
 1139               		.loc 2 230 0
 1140 0464 80EE      		ldi r24,lo8(-32)
 1141 0466 90E0      		ldi r25,0
 1142 0468 20EE      		ldi r18,lo8(-32)
 1143 046a 30E0      		ldi r19,0
 1144 046c F901      		movw r30,r18
 1145 046e 2081      		ld r18,Z
 1146 0470 2160      		ori r18,lo8(1)
 1147 0472 FC01      		movw r30,r24
 1148 0474 2083      		st Z,r18
 231:../../../platform/mega_rf/drivers/macsc/macsc_megarf.c **** 		}
 1149               		.loc 2 231 0
 1150 0476 8FED      		ldi r24,lo8(-33)
 1151 0478 90E0      		ldi r25,0
 1152 047a 2FED      		ldi r18,lo8(-33)
 1153 047c 30E0      		ldi r19,0
 1154 047e F901      		movw r30,r18
 1155 0480 2081      		ld r18,Z
 1156 0482 2E7F      		andi r18,lo8(-2)
 1157 0484 FC01      		movw r30,r24
 1158 0486 2083      		st Z,r18
 234:../../../platform/mega_rf/drivers/macsc/macsc_megarf.c **** 
 1159               		.loc 2 234 0
 1160 0488 00C0      		rjmp .L48
 1161               	.L43:
 238:../../../platform/mega_rf/drivers/macsc/macsc_megarf.c **** 			SCIRQS |= (1 << IRQSCP2);
 1162               		.loc 2 238 0
 1163 048a 8FED      		ldi r24,lo8(-33)
 1164 048c 90E0      		ldi r25,0
 1165 048e FC01      		movw r30,r24
 1166 0490 8081      		ld r24,Z
 243:../../../platform/mega_rf/drivers/macsc/macsc_megarf.c **** 
 1167               		.loc 2 243 0
 1168 0492 00C0      		rjmp .L47
 1169               	.L44:
 247:../../../platform/mega_rf/drivers/macsc/macsc_megarf.c **** 			SCIRQS |= (1 << IRQSCP3);
 1170               		.loc 2 247 0
 1171 0494 8FED      		ldi r24,lo8(-33)
 1172 0496 90E0      		ldi r25,0
 1173 0498 FC01      		movw r30,r24
 1174 049a 8081      		ld r24,Z
 252:../../../platform/mega_rf/drivers/macsc/macsc_megarf.c **** 
 1175               		.loc 2 252 0
 1176 049c 00C0      		rjmp .L47
 1177               	.L48:
 234:../../../platform/mega_rf/drivers/macsc/macsc_megarf.c **** 
 1178               		.loc 2 234 0
 1179 049e 0000      		nop
 1180               	.L47:
 256:../../../platform/mega_rf/drivers/macsc/macsc_megarf.c **** 	}
 257:../../../platform/mega_rf/drivers/macsc/macsc_megarf.c **** }
 1181               		.loc 2 257 0
 1182 04a0 0000      		nop
 1183               	/* epilogue start */
 1184 04a2 0F90      		pop __tmp_reg__
 1185 04a4 DF91      		pop r29
 1186 04a6 CF91      		pop r28
 1187 04a8 0895      		ret
 1188               		.cfi_endproc
 1189               	.LFE40:
 1191               	.global	macsc_use_cmp
 1193               	macsc_use_cmp:
 1194               	.LFB41:
 258:../../../platform/mega_rf/drivers/macsc/macsc_megarf.c **** 
 259:../../../platform/mega_rf/drivers/macsc/macsc_megarf.c **** /**
 260:../../../platform/mega_rf/drivers/macsc/macsc_megarf.c ****  * \brief Absolute compare usage
 261:../../../platform/mega_rf/drivers/macsc/macsc_megarf.c ****  *
 262:../../../platform/mega_rf/drivers/macsc/macsc_megarf.c ****  * \param abs_rel  0 for absoulte cmp;1 for relative cmp
 263:../../../platform/mega_rf/drivers/macsc/macsc_megarf.c ****  * \param cmp compare value for SCOCRx register
 264:../../../platform/mega_rf/drivers/macsc/macsc_megarf.c ****  * \param channel Compare channel
 265:../../../platform/mega_rf/drivers/macsc/macsc_megarf.c ****  */
 266:../../../platform/mega_rf/drivers/macsc/macsc_megarf.c **** void macsc_use_cmp(bool abs_rel, uint32_t cmp,
 267:../../../platform/mega_rf/drivers/macsc/macsc_megarf.c **** 		enum macsc_cc_channel channel)
 268:../../../platform/mega_rf/drivers/macsc/macsc_megarf.c **** {
 1195               		.loc 2 268 0
 1196               		.cfi_startproc
 1197 04aa CF93      		push r28
 1198               	.LCFI114:
 1199               		.cfi_def_cfa_offset 3
 1200               		.cfi_offset 28, -2
 1201 04ac DF93      		push r29
 1202               	.LCFI115:
 1203               		.cfi_def_cfa_offset 4
 1204               		.cfi_offset 29, -3
 1205 04ae CDB7      		in r28,__SP_L__
 1206 04b0 DEB7      		in r29,__SP_H__
 1207               	.LCFI116:
 1208               		.cfi_def_cfa_register 28
 1209 04b2 6297      		sbiw r28,18
 1210               	.LCFI117:
 1211               		.cfi_def_cfa_offset 22
 1212 04b4 0FB6      		in __tmp_reg__,__SREG__
 1213 04b6 F894      		cli
 1214 04b8 DEBF      		out __SP_H__,r29
 1215 04ba 0FBE      		out __SREG__,__tmp_reg__
 1216 04bc CDBF      		out __SP_L__,r28
 1217               	/* prologue: function */
 1218               	/* frame size = 18 */
 1219               	/* stack size = 20 */
 1220               	.L__stack_usage = 20
 1221 04be 8D87      		std Y+13,r24
 1222 04c0 4E87      		std Y+14,r20
 1223 04c2 5F87      		std Y+15,r21
 1224 04c4 688B      		std Y+16,r22
 1225 04c6 798B      		std Y+17,r23
 1226 04c8 2A8B      		std Y+18,r18
 269:../../../platform/mega_rf/drivers/macsc/macsc_megarf.c **** 	switch (channel) {
 1227               		.loc 2 269 0
 1228 04ca 8A89      		ldd r24,Y+18
 1229 04cc 882F      		mov r24,r24
 1230 04ce 90E0      		ldi r25,0
 1231 04d0 8230      		cpi r24,2
 1232 04d2 9105      		cpc r25,__zero_reg__
 1233 04d4 01F0      		breq .L51
 1234 04d6 8330      		cpi r24,3
 1235 04d8 9105      		cpc r25,__zero_reg__
 1236 04da 01F4      		brne .+2
 1237 04dc 00C0      		rjmp .L52
 1238 04de 0197      		sbiw r24,1
 1239 04e0 01F0      		breq .L53
 270:../../../platform/mega_rf/drivers/macsc/macsc_megarf.c **** 	case MACSC_CC1:
 271:../../../platform/mega_rf/drivers/macsc/macsc_megarf.c **** 	{
 272:../../../platform/mega_rf/drivers/macsc/macsc_megarf.c **** 		if (abs_rel) {
 273:../../../platform/mega_rf/drivers/macsc/macsc_megarf.c **** 			SCCR0 |= (1 << SCCMP1);
 274:../../../platform/mega_rf/drivers/macsc/macsc_megarf.c **** 		} else {
 275:../../../platform/mega_rf/drivers/macsc/macsc_megarf.c **** 			SCCR0 &= ~(1 << SCCMP1);
 276:../../../platform/mega_rf/drivers/macsc/macsc_megarf.c **** 		}
 277:../../../platform/mega_rf/drivers/macsc/macsc_megarf.c **** 
 278:../../../platform/mega_rf/drivers/macsc/macsc_megarf.c **** 		MACSC_WRITE32(SCOCR1, cmp);
 279:../../../platform/mega_rf/drivers/macsc/macsc_megarf.c **** 	}
 280:../../../platform/mega_rf/drivers/macsc/macsc_megarf.c **** 	break;
 281:../../../platform/mega_rf/drivers/macsc/macsc_megarf.c **** 
 282:../../../platform/mega_rf/drivers/macsc/macsc_megarf.c **** 	case MACSC_CC2:
 283:../../../platform/mega_rf/drivers/macsc/macsc_megarf.c **** 	{
 284:../../../platform/mega_rf/drivers/macsc/macsc_megarf.c **** 		if (abs_rel) {
 285:../../../platform/mega_rf/drivers/macsc/macsc_megarf.c **** 			SCCR0 |= (1 << SCCMP2);
 286:../../../platform/mega_rf/drivers/macsc/macsc_megarf.c **** 		} else {
 287:../../../platform/mega_rf/drivers/macsc/macsc_megarf.c **** 			SCCR0 &= ~(1 << SCCMP2);
 288:../../../platform/mega_rf/drivers/macsc/macsc_megarf.c **** 		}
 289:../../../platform/mega_rf/drivers/macsc/macsc_megarf.c **** 
 290:../../../platform/mega_rf/drivers/macsc/macsc_megarf.c **** 		MACSC_WRITE32(SCOCR2, cmp);
 291:../../../platform/mega_rf/drivers/macsc/macsc_megarf.c **** 	}
 292:../../../platform/mega_rf/drivers/macsc/macsc_megarf.c **** 	break;
 293:../../../platform/mega_rf/drivers/macsc/macsc_megarf.c **** 
 294:../../../platform/mega_rf/drivers/macsc/macsc_megarf.c **** 	case MACSC_CC3:
 295:../../../platform/mega_rf/drivers/macsc/macsc_megarf.c **** 	{
 296:../../../platform/mega_rf/drivers/macsc/macsc_megarf.c **** 		if (abs_rel) {
 297:../../../platform/mega_rf/drivers/macsc/macsc_megarf.c **** 			SCCR0 |= (1 << SCCMP3);
 298:../../../platform/mega_rf/drivers/macsc/macsc_megarf.c **** 		} else {
 299:../../../platform/mega_rf/drivers/macsc/macsc_megarf.c **** 			SCCR0 &= ~(1 << SCCMP3);
 300:../../../platform/mega_rf/drivers/macsc/macsc_megarf.c **** 		}
 301:../../../platform/mega_rf/drivers/macsc/macsc_megarf.c **** 
 302:../../../platform/mega_rf/drivers/macsc/macsc_megarf.c **** 		MACSC_WRITE32(SCOCR3, cmp);
 303:../../../platform/mega_rf/drivers/macsc/macsc_megarf.c **** 	}
 304:../../../platform/mega_rf/drivers/macsc/macsc_megarf.c **** 	break;
 305:../../../platform/mega_rf/drivers/macsc/macsc_megarf.c **** 
 306:../../../platform/mega_rf/drivers/macsc/macsc_megarf.c **** 	default:
 307:../../../platform/mega_rf/drivers/macsc/macsc_megarf.c **** 		break;
 1240               		.loc 2 307 0
 1241 04e2 00C0      		rjmp .L56
 1242               	.L53:
 272:../../../platform/mega_rf/drivers/macsc/macsc_megarf.c **** 			SCCR0 |= (1 << SCCMP1);
 1243               		.loc 2 272 0
 1244 04e4 8D85      		ldd r24,Y+13
 1245 04e6 8823      		tst r24
 1246 04e8 01F0      		breq .L54
 273:../../../platform/mega_rf/drivers/macsc/macsc_megarf.c **** 		} else {
 1247               		.loc 2 273 0
 1248 04ea 8CED      		ldi r24,lo8(-36)
 1249 04ec 90E0      		ldi r25,0
 1250 04ee 2CED      		ldi r18,lo8(-36)
 1251 04f0 30E0      		ldi r19,0
 1252 04f2 F901      		movw r30,r18
 1253 04f4 2081      		ld r18,Z
 1254 04f6 2160      		ori r18,lo8(1)
 1255 04f8 FC01      		movw r30,r24
 1256 04fa 2083      		st Z,r18
 1257 04fc 00C0      		rjmp .L55
 1258               	.L54:
 275:../../../platform/mega_rf/drivers/macsc/macsc_megarf.c **** 		}
 1259               		.loc 2 275 0
 1260 04fe 8CED      		ldi r24,lo8(-36)
 1261 0500 90E0      		ldi r25,0
 1262 0502 2CED      		ldi r18,lo8(-36)
 1263 0504 30E0      		ldi r19,0
 1264 0506 F901      		movw r30,r18
 1265 0508 2081      		ld r18,Z
 1266 050a 2E7F      		andi r18,lo8(-2)
 1267 050c FC01      		movw r30,r24
 1268 050e 2083      		st Z,r18
 1269               	.L55:
 1270               	.LBB2:
 278:../../../platform/mega_rf/drivers/macsc/macsc_megarf.c **** 	}
 1271               		.loc 2 278 0
 1272 0510 8E85      		ldd r24,Y+14
 1273 0512 9F85      		ldd r25,Y+15
 1274 0514 A889      		ldd r26,Y+16
 1275 0516 B989      		ldd r27,Y+17
 1276 0518 8983      		std Y+1,r24
 1277 051a 9A83      		std Y+2,r25
 1278 051c AB83      		std Y+3,r26
 1279 051e BC83      		std Y+4,r27
 1280 0520 88EF      		ldi r24,lo8(-8)
 1281 0522 90E0      		ldi r25,0
 1282 0524 2C81      		ldd r18,Y+4
 1283 0526 FC01      		movw r30,r24
 1284 0528 2083      		st Z,r18
 1285 052a 87EF      		ldi r24,lo8(-9)
 1286 052c 90E0      		ldi r25,0
 1287 052e 2B81      		ldd r18,Y+3
 1288 0530 FC01      		movw r30,r24
 1289 0532 2083      		st Z,r18
 1290 0534 86EF      		ldi r24,lo8(-10)
 1291 0536 90E0      		ldi r25,0
 1292 0538 2A81      		ldd r18,Y+2
 1293 053a FC01      		movw r30,r24
 1294 053c 2083      		st Z,r18
 1295 053e 85EF      		ldi r24,lo8(-11)
 1296 0540 90E0      		ldi r25,0
 1297 0542 2981      		ldd r18,Y+1
 1298 0544 FC01      		movw r30,r24
 1299 0546 2083      		st Z,r18
 1300               	.LBE2:
 280:../../../platform/mega_rf/drivers/macsc/macsc_megarf.c **** 
 1301               		.loc 2 280 0
 1302 0548 00C0      		rjmp .L56
 1303               	.L51:
 284:../../../platform/mega_rf/drivers/macsc/macsc_megarf.c **** 			SCCR0 |= (1 << SCCMP2);
 1304               		.loc 2 284 0
 1305 054a 8D85      		ldd r24,Y+13
 1306 054c 8823      		tst r24
 1307 054e 01F0      		breq .L57
 285:../../../platform/mega_rf/drivers/macsc/macsc_megarf.c **** 		} else {
 1308               		.loc 2 285 0
 1309 0550 8CED      		ldi r24,lo8(-36)
 1310 0552 90E0      		ldi r25,0
 1311 0554 2CED      		ldi r18,lo8(-36)
 1312 0556 30E0      		ldi r19,0
 1313 0558 F901      		movw r30,r18
 1314 055a 2081      		ld r18,Z
 1315 055c 2260      		ori r18,lo8(2)
 1316 055e FC01      		movw r30,r24
 1317 0560 2083      		st Z,r18
 1318 0562 00C0      		rjmp .L58
 1319               	.L57:
 287:../../../platform/mega_rf/drivers/macsc/macsc_megarf.c **** 		}
 1320               		.loc 2 287 0
 1321 0564 8CED      		ldi r24,lo8(-36)
 1322 0566 90E0      		ldi r25,0
 1323 0568 2CED      		ldi r18,lo8(-36)
 1324 056a 30E0      		ldi r19,0
 1325 056c F901      		movw r30,r18
 1326 056e 2081      		ld r18,Z
 1327 0570 2D7F      		andi r18,lo8(-3)
 1328 0572 FC01      		movw r30,r24
 1329 0574 2083      		st Z,r18
 1330               	.L58:
 1331               	.LBB3:
 290:../../../platform/mega_rf/drivers/macsc/macsc_megarf.c **** 	}
 1332               		.loc 2 290 0
 1333 0576 8E85      		ldd r24,Y+14
 1334 0578 9F85      		ldd r25,Y+15
 1335 057a A889      		ldd r26,Y+16
 1336 057c B989      		ldd r27,Y+17
 1337 057e 8D83      		std Y+5,r24
 1338 0580 9E83      		std Y+6,r25
 1339 0582 AF83      		std Y+7,r26
 1340 0584 B887      		std Y+8,r27
 1341 0586 84EF      		ldi r24,lo8(-12)
 1342 0588 90E0      		ldi r25,0
 1343 058a 2885      		ldd r18,Y+8
 1344 058c FC01      		movw r30,r24
 1345 058e 2083      		st Z,r18
 1346 0590 83EF      		ldi r24,lo8(-13)
 1347 0592 90E0      		ldi r25,0
 1348 0594 2F81      		ldd r18,Y+7
 1349 0596 FC01      		movw r30,r24
 1350 0598 2083      		st Z,r18
 1351 059a 82EF      		ldi r24,lo8(-14)
 1352 059c 90E0      		ldi r25,0
 1353 059e 2E81      		ldd r18,Y+6
 1354 05a0 FC01      		movw r30,r24
 1355 05a2 2083      		st Z,r18
 1356 05a4 81EF      		ldi r24,lo8(-15)
 1357 05a6 90E0      		ldi r25,0
 1358 05a8 2D81      		ldd r18,Y+5
 1359 05aa FC01      		movw r30,r24
 1360 05ac 2083      		st Z,r18
 1361               	.LBE3:
 292:../../../platform/mega_rf/drivers/macsc/macsc_megarf.c **** 
 1362               		.loc 2 292 0
 1363 05ae 00C0      		rjmp .L56
 1364               	.L52:
 296:../../../platform/mega_rf/drivers/macsc/macsc_megarf.c **** 			SCCR0 |= (1 << SCCMP3);
 1365               		.loc 2 296 0
 1366 05b0 8D85      		ldd r24,Y+13
 1367 05b2 8823      		tst r24
 1368 05b4 01F0      		breq .L59
 297:../../../platform/mega_rf/drivers/macsc/macsc_megarf.c **** 		} else {
 1369               		.loc 2 297 0
 1370 05b6 8CED      		ldi r24,lo8(-36)
 1371 05b8 90E0      		ldi r25,0
 1372 05ba 2CED      		ldi r18,lo8(-36)
 1373 05bc 30E0      		ldi r19,0
 1374 05be F901      		movw r30,r18
 1375 05c0 2081      		ld r18,Z
 1376 05c2 2460      		ori r18,lo8(4)
 1377 05c4 FC01      		movw r30,r24
 1378 05c6 2083      		st Z,r18
 1379 05c8 00C0      		rjmp .L60
 1380               	.L59:
 299:../../../platform/mega_rf/drivers/macsc/macsc_megarf.c **** 		}
 1381               		.loc 2 299 0
 1382 05ca 8CED      		ldi r24,lo8(-36)
 1383 05cc 90E0      		ldi r25,0
 1384 05ce 2CED      		ldi r18,lo8(-36)
 1385 05d0 30E0      		ldi r19,0
 1386 05d2 F901      		movw r30,r18
 1387 05d4 2081      		ld r18,Z
 1388 05d6 2B7F      		andi r18,lo8(-5)
 1389 05d8 FC01      		movw r30,r24
 1390 05da 2083      		st Z,r18
 1391               	.L60:
 1392               	.LBB4:
 302:../../../platform/mega_rf/drivers/macsc/macsc_megarf.c **** 	}
 1393               		.loc 2 302 0
 1394 05dc 8E85      		ldd r24,Y+14
 1395 05de 9F85      		ldd r25,Y+15
 1396 05e0 A889      		ldd r26,Y+16
 1397 05e2 B989      		ldd r27,Y+17
 1398 05e4 8987      		std Y+9,r24
 1399 05e6 9A87      		std Y+10,r25
 1400 05e8 AB87      		std Y+11,r26
 1401 05ea BC87      		std Y+12,r27
 1402 05ec 80EF      		ldi r24,lo8(-16)
 1403 05ee 90E0      		ldi r25,0
 1404 05f0 2C85      		ldd r18,Y+12
 1405 05f2 FC01      		movw r30,r24
 1406 05f4 2083      		st Z,r18
 1407 05f6 8FEE      		ldi r24,lo8(-17)
 1408 05f8 90E0      		ldi r25,0
 1409 05fa 2B85      		ldd r18,Y+11
 1410 05fc FC01      		movw r30,r24
 1411 05fe 2083      		st Z,r18
 1412 0600 8EEE      		ldi r24,lo8(-18)
 1413 0602 90E0      		ldi r25,0
 1414 0604 2A85      		ldd r18,Y+10
 1415 0606 FC01      		movw r30,r24
 1416 0608 2083      		st Z,r18
 1417 060a 8DEE      		ldi r24,lo8(-19)
 1418 060c 90E0      		ldi r25,0
 1419 060e 2985      		ldd r18,Y+9
 1420 0610 FC01      		movw r30,r24
 1421 0612 2083      		st Z,r18
 1422               	.LBE4:
 304:../../../platform/mega_rf/drivers/macsc/macsc_megarf.c **** 
 1423               		.loc 2 304 0
 1424 0614 0000      		nop
 1425               	.L56:
 308:../../../platform/mega_rf/drivers/macsc/macsc_megarf.c **** 	}
 309:../../../platform/mega_rf/drivers/macsc/macsc_megarf.c **** }
 1426               		.loc 2 309 0
 1427 0616 0000      		nop
 1428               	/* epilogue start */
 1429 0618 6296      		adiw r28,18
 1430 061a 0FB6      		in __tmp_reg__,__SREG__
 1431 061c F894      		cli
 1432 061e DEBF      		out __SP_H__,r29
 1433 0620 0FBE      		out __SREG__,__tmp_reg__
 1434 0622 CDBF      		out __SP_L__,r28
 1435 0624 DF91      		pop r29
 1436 0626 CF91      		pop r28
 1437 0628 0895      		ret
 1438               		.cfi_endproc
 1439               	.LFE41:
 1441               	.global	macsc_set_ovf_int_cb
 1443               	macsc_set_ovf_int_cb:
 1444               	.LFB42:
 310:../../../platform/mega_rf/drivers/macsc/macsc_megarf.c **** 
 311:../../../platform/mega_rf/drivers/macsc/macsc_megarf.c **** void macsc_set_ovf_int_cb(macsc_callback_t callback)
 312:../../../platform/mega_rf/drivers/macsc/macsc_megarf.c **** {
 1445               		.loc 2 312 0
 1446               		.cfi_startproc
 1447 062a CF93      		push r28
 1448               	.LCFI118:
 1449               		.cfi_def_cfa_offset 3
 1450               		.cfi_offset 28, -2
 1451 062c DF93      		push r29
 1452               	.LCFI119:
 1453               		.cfi_def_cfa_offset 4
 1454               		.cfi_offset 29, -3
 1455 062e 00D0      		rcall .
 1456               	.LCFI120:
 1457               		.cfi_def_cfa_offset 6
 1458 0630 CDB7      		in r28,__SP_L__
 1459 0632 DEB7      		in r29,__SP_H__
 1460               	.LCFI121:
 1461               		.cfi_def_cfa_register 28
 1462               	/* prologue: function */
 1463               	/* frame size = 2 */
 1464               	/* stack size = 4 */
 1465               	.L__stack_usage = 4
 1466 0634 9A83      		std Y+2,r25
 1467 0636 8983      		std Y+1,r24
 313:../../../platform/mega_rf/drivers/macsc/macsc_megarf.c **** 	macsc_ovf_cb = callback;
 1468               		.loc 2 313 0
 1469 0638 8981      		ldd r24,Y+1
 1470 063a 9A81      		ldd r25,Y+2
 1471 063c 9093 0000 		sts macsc_ovf_cb+1,r25
 1472 0640 8093 0000 		sts macsc_ovf_cb,r24
 314:../../../platform/mega_rf/drivers/macsc/macsc_megarf.c **** }
 1473               		.loc 2 314 0
 1474 0644 0000      		nop
 1475               	/* epilogue start */
 1476 0646 0F90      		pop __tmp_reg__
 1477 0648 0F90      		pop __tmp_reg__
 1478 064a DF91      		pop r29
 1479 064c CF91      		pop r28
 1480 064e 0895      		ret
 1481               		.cfi_endproc
 1482               	.LFE42:
 1484               	.global	macsc_set_cmp1_int_cb
 1486               	macsc_set_cmp1_int_cb:
 1487               	.LFB43:
 315:../../../platform/mega_rf/drivers/macsc/macsc_megarf.c **** 
 316:../../../platform/mega_rf/drivers/macsc/macsc_megarf.c **** void macsc_set_cmp1_int_cb(macsc_callback_t callback)
 317:../../../platform/mega_rf/drivers/macsc/macsc_megarf.c **** {
 1488               		.loc 2 317 0
 1489               		.cfi_startproc
 1490 0650 CF93      		push r28
 1491               	.LCFI122:
 1492               		.cfi_def_cfa_offset 3
 1493               		.cfi_offset 28, -2
 1494 0652 DF93      		push r29
 1495               	.LCFI123:
 1496               		.cfi_def_cfa_offset 4
 1497               		.cfi_offset 29, -3
 1498 0654 00D0      		rcall .
 1499               	.LCFI124:
 1500               		.cfi_def_cfa_offset 6
 1501 0656 CDB7      		in r28,__SP_L__
 1502 0658 DEB7      		in r29,__SP_H__
 1503               	.LCFI125:
 1504               		.cfi_def_cfa_register 28
 1505               	/* prologue: function */
 1506               	/* frame size = 2 */
 1507               	/* stack size = 4 */
 1508               	.L__stack_usage = 4
 1509 065a 9A83      		std Y+2,r25
 1510 065c 8983      		std Y+1,r24
 318:../../../platform/mega_rf/drivers/macsc/macsc_megarf.c **** 	macsc_cmp1_cb = callback;
 1511               		.loc 2 318 0
 1512 065e 8981      		ldd r24,Y+1
 1513 0660 9A81      		ldd r25,Y+2
 1514 0662 9093 0000 		sts macsc_cmp1_cb+1,r25
 1515 0666 8093 0000 		sts macsc_cmp1_cb,r24
 319:../../../platform/mega_rf/drivers/macsc/macsc_megarf.c **** }
 1516               		.loc 2 319 0
 1517 066a 0000      		nop
 1518               	/* epilogue start */
 1519 066c 0F90      		pop __tmp_reg__
 1520 066e 0F90      		pop __tmp_reg__
 1521 0670 DF91      		pop r29
 1522 0672 CF91      		pop r28
 1523 0674 0895      		ret
 1524               		.cfi_endproc
 1525               	.LFE43:
 1527               	.global	macsc_set_cmp2_int_cb
 1529               	macsc_set_cmp2_int_cb:
 1530               	.LFB44:
 320:../../../platform/mega_rf/drivers/macsc/macsc_megarf.c **** 
 321:../../../platform/mega_rf/drivers/macsc/macsc_megarf.c **** void macsc_set_cmp2_int_cb(macsc_callback_t callback)
 322:../../../platform/mega_rf/drivers/macsc/macsc_megarf.c **** {
 1531               		.loc 2 322 0
 1532               		.cfi_startproc
 1533 0676 CF93      		push r28
 1534               	.LCFI126:
 1535               		.cfi_def_cfa_offset 3
 1536               		.cfi_offset 28, -2
 1537 0678 DF93      		push r29
 1538               	.LCFI127:
 1539               		.cfi_def_cfa_offset 4
 1540               		.cfi_offset 29, -3
 1541 067a 00D0      		rcall .
 1542               	.LCFI128:
 1543               		.cfi_def_cfa_offset 6
 1544 067c CDB7      		in r28,__SP_L__
 1545 067e DEB7      		in r29,__SP_H__
 1546               	.LCFI129:
 1547               		.cfi_def_cfa_register 28
 1548               	/* prologue: function */
 1549               	/* frame size = 2 */
 1550               	/* stack size = 4 */
 1551               	.L__stack_usage = 4
 1552 0680 9A83      		std Y+2,r25
 1553 0682 8983      		std Y+1,r24
 323:../../../platform/mega_rf/drivers/macsc/macsc_megarf.c **** 	macsc_cmp2_cb = callback;
 1554               		.loc 2 323 0
 1555 0684 8981      		ldd r24,Y+1
 1556 0686 9A81      		ldd r25,Y+2
 1557 0688 9093 0000 		sts macsc_cmp2_cb+1,r25
 1558 068c 8093 0000 		sts macsc_cmp2_cb,r24
 324:../../../platform/mega_rf/drivers/macsc/macsc_megarf.c **** }
 1559               		.loc 2 324 0
 1560 0690 0000      		nop
 1561               	/* epilogue start */
 1562 0692 0F90      		pop __tmp_reg__
 1563 0694 0F90      		pop __tmp_reg__
 1564 0696 DF91      		pop r29
 1565 0698 CF91      		pop r28
 1566 069a 0895      		ret
 1567               		.cfi_endproc
 1568               	.LFE44:
 1570               	.global	macsc_set_cmp3_int_cb
 1572               	macsc_set_cmp3_int_cb:
 1573               	.LFB45:
 325:../../../platform/mega_rf/drivers/macsc/macsc_megarf.c **** 
 326:../../../platform/mega_rf/drivers/macsc/macsc_megarf.c **** void macsc_set_cmp3_int_cb(macsc_callback_t callback)
 327:../../../platform/mega_rf/drivers/macsc/macsc_megarf.c **** {
 1574               		.loc 2 327 0
 1575               		.cfi_startproc
 1576 069c CF93      		push r28
 1577               	.LCFI130:
 1578               		.cfi_def_cfa_offset 3
 1579               		.cfi_offset 28, -2
 1580 069e DF93      		push r29
 1581               	.LCFI131:
 1582               		.cfi_def_cfa_offset 4
 1583               		.cfi_offset 29, -3
 1584 06a0 00D0      		rcall .
 1585               	.LCFI132:
 1586               		.cfi_def_cfa_offset 6
 1587 06a2 CDB7      		in r28,__SP_L__
 1588 06a4 DEB7      		in r29,__SP_H__
 1589               	.LCFI133:
 1590               		.cfi_def_cfa_register 28
 1591               	/* prologue: function */
 1592               	/* frame size = 2 */
 1593               	/* stack size = 4 */
 1594               	.L__stack_usage = 4
 1595 06a6 9A83      		std Y+2,r25
 1596 06a8 8983      		std Y+1,r24
 328:../../../platform/mega_rf/drivers/macsc/macsc_megarf.c **** 	macsc_cmp3_cb = callback;
 1597               		.loc 2 328 0
 1598 06aa 8981      		ldd r24,Y+1
 1599 06ac 9A81      		ldd r25,Y+2
 1600 06ae 9093 0000 		sts macsc_cmp3_cb+1,r25
 1601 06b2 8093 0000 		sts macsc_cmp3_cb,r24
 329:../../../platform/mega_rf/drivers/macsc/macsc_megarf.c **** }
 1602               		.loc 2 329 0
 1603 06b6 0000      		nop
 1604               	/* epilogue start */
 1605 06b8 0F90      		pop __tmp_reg__
 1606 06ba 0F90      		pop __tmp_reg__
 1607 06bc DF91      		pop r29
 1608 06be CF91      		pop r28
 1609 06c0 0895      		ret
 1610               		.cfi_endproc
 1611               	.LFE45:
 1613               	.global	macsc_set_backoff_slot_cntr_int_cb
 1615               	macsc_set_backoff_slot_cntr_int_cb:
 1616               	.LFB46:
 330:../../../platform/mega_rf/drivers/macsc/macsc_megarf.c **** 
 331:../../../platform/mega_rf/drivers/macsc/macsc_megarf.c **** void macsc_set_backoff_slot_cntr_int_cb(macsc_callback_t callback)
 332:../../../platform/mega_rf/drivers/macsc/macsc_megarf.c **** {
 1617               		.loc 2 332 0
 1618               		.cfi_startproc
 1619 06c2 CF93      		push r28
 1620               	.LCFI134:
 1621               		.cfi_def_cfa_offset 3
 1622               		.cfi_offset 28, -2
 1623 06c4 DF93      		push r29
 1624               	.LCFI135:
 1625               		.cfi_def_cfa_offset 4
 1626               		.cfi_offset 29, -3
 1627 06c6 00D0      		rcall .
 1628               	.LCFI136:
 1629               		.cfi_def_cfa_offset 6
 1630 06c8 CDB7      		in r28,__SP_L__
 1631 06ca DEB7      		in r29,__SP_H__
 1632               	.LCFI137:
 1633               		.cfi_def_cfa_register 28
 1634               	/* prologue: function */
 1635               	/* frame size = 2 */
 1636               	/* stack size = 4 */
 1637               	.L__stack_usage = 4
 1638 06cc 9A83      		std Y+2,r25
 1639 06ce 8983      		std Y+1,r24
 333:../../../platform/mega_rf/drivers/macsc/macsc_megarf.c **** 	macsc_slotcnt_cb = callback;
 1640               		.loc 2 333 0
 1641 06d0 8981      		ldd r24,Y+1
 1642 06d2 9A81      		ldd r25,Y+2
 1643 06d4 9093 0000 		sts macsc_slotcnt_cb+1,r25
 1644 06d8 8093 0000 		sts macsc_slotcnt_cb,r24
 334:../../../platform/mega_rf/drivers/macsc/macsc_megarf.c **** }
 1645               		.loc 2 334 0
 1646 06dc 0000      		nop
 1647               	/* epilogue start */
 1648 06de 0F90      		pop __tmp_reg__
 1649 06e0 0F90      		pop __tmp_reg__
 1650 06e2 DF91      		pop r29
 1651 06e4 CF91      		pop r28
 1652 06e6 0895      		ret
 1653               		.cfi_endproc
 1654               	.LFE46:
 1656               	.Letext0:
 1657               		.file 3 "c:\\program files (x86)\\atmel\\studio\\7.0\\toolchain\\avr8\\avr8-gnu-toolchain\\avr\\in
 1658               		.file 4 "../../../platform/mega_rf/drivers/macsc/macsc_megarf.h"