   1               		.file	"colamd.c"
   2               	__SP_H__ = 0x3e
   3               	__SP_L__ = 0x3d
   4               	__SREG__ = 0x3f
   5               	__RAMPZ__ = 0x3b
   6               	__tmp_reg__ = 0
   7               	__zero_reg__ = 1
   8               		.text
   9               	.Ltext0:
  10               		.cfi_sections	.debug_frame
  11               	.global	colamd_recommended
  13               	colamd_recommended:
  14               	.LFB5:
  15               		.file 1 "lp_solve_5.5/colamd/colamd.c"
   1:lp_solve_5.5/colamd/colamd.c **** /* ========================================================================== */
   2:lp_solve_5.5/colamd/colamd.c **** /* === colamd/symamd - a sparse matrix column ordering algorithm ============ */
   3:lp_solve_5.5/colamd/colamd.c **** /* ========================================================================== */
   4:lp_solve_5.5/colamd/colamd.c **** 
   5:lp_solve_5.5/colamd/colamd.c **** /*
   6:lp_solve_5.5/colamd/colamd.c ****     colamd:  an approximate minimum degree column ordering algorithm,
   7:lp_solve_5.5/colamd/colamd.c ****     	for LU factorization of symmetric or unsymmetric matrices,
   8:lp_solve_5.5/colamd/colamd.c **** 	QR factorization, least squares, interior point methods for
   9:lp_solve_5.5/colamd/colamd.c **** 	linear programming problems, and other related problems.
  10:lp_solve_5.5/colamd/colamd.c **** 
  11:lp_solve_5.5/colamd/colamd.c ****     symamd:  an approximate minimum degree ordering algorithm for Cholesky
  12:lp_solve_5.5/colamd/colamd.c ****     	factorization of symmetric matrices.
  13:lp_solve_5.5/colamd/colamd.c **** 
  14:lp_solve_5.5/colamd/colamd.c ****     Purpose:
  15:lp_solve_5.5/colamd/colamd.c **** 
  16:lp_solve_5.5/colamd/colamd.c **** 	Colamd computes a permutation Q such that the Cholesky factorization of
  17:lp_solve_5.5/colamd/colamd.c **** 	(AQ)'(AQ) has less fill-in and requires fewer floating point operations
  18:lp_solve_5.5/colamd/colamd.c **** 	than A'A.  This also provides a good ordering for sparse partial
  19:lp_solve_5.5/colamd/colamd.c **** 	pivoting methods, P(AQ) = LU, where Q is computed prior to numerical
  20:lp_solve_5.5/colamd/colamd.c **** 	factorization, and P is computed during numerical factorization via
  21:lp_solve_5.5/colamd/colamd.c **** 	conventional partial pivoting with row interchanges.  Colamd is the
  22:lp_solve_5.5/colamd/colamd.c **** 	column ordering method used in SuperLU, part of the ScaLAPACK library.
  23:lp_solve_5.5/colamd/colamd.c **** 	It is also available as built-in function in Matlab Version 6,
  24:lp_solve_5.5/colamd/colamd.c **** 	available from MathWorks, Inc. (http://www.mathworks.com).  This
  25:lp_solve_5.5/colamd/colamd.c **** 	routine can be used in place of colmmd in Matlab.  By default, the \
  26:lp_solve_5.5/colamd/colamd.c **** 	and / operators in Matlab perform a column ordering (using colmmd
  27:lp_solve_5.5/colamd/colamd.c **** 	or colamd) prior to LU factorization using sparse partial pivoting,
  28:lp_solve_5.5/colamd/colamd.c **** 	in the built-in Matlab lu(A) routine.
  29:lp_solve_5.5/colamd/colamd.c **** 
  30:lp_solve_5.5/colamd/colamd.c ****     	Symamd computes a permutation P of a symmetric matrix A such that the
  31:lp_solve_5.5/colamd/colamd.c **** 	Cholesky factorization of PAP' has less fill-in and requires fewer
  32:lp_solve_5.5/colamd/colamd.c **** 	floating point operations than A.  Symamd constructs a matrix M such
  33:lp_solve_5.5/colamd/colamd.c **** 	that M'M has the same nonzero pattern of A, and then orders the columns
  34:lp_solve_5.5/colamd/colamd.c **** 	of M using colmmd.  The column ordering of M is then returned as the
  35:lp_solve_5.5/colamd/colamd.c **** 	row and column ordering P of A. 
  36:lp_solve_5.5/colamd/colamd.c **** 
  37:lp_solve_5.5/colamd/colamd.c ****     Authors:
  38:lp_solve_5.5/colamd/colamd.c **** 
  39:lp_solve_5.5/colamd/colamd.c **** 	The authors of the code itself are Stefan I. Larimore and Timothy A.
  40:lp_solve_5.5/colamd/colamd.c **** 	Davis (davis@cise.ufl.edu), University of Florida.  The algorithm was
  41:lp_solve_5.5/colamd/colamd.c **** 	developed in collaboration with John Gilbert, Xerox PARC, and Esmond
  42:lp_solve_5.5/colamd/colamd.c **** 	Ng, Oak Ridge National Laboratory.
  43:lp_solve_5.5/colamd/colamd.c **** 
  44:lp_solve_5.5/colamd/colamd.c ****     Date:
  45:lp_solve_5.5/colamd/colamd.c **** 
  46:lp_solve_5.5/colamd/colamd.c **** 	May 4, 2001.  Version 2.1.
  47:lp_solve_5.5/colamd/colamd.c **** 
  48:lp_solve_5.5/colamd/colamd.c ****     Acknowledgements:
  49:lp_solve_5.5/colamd/colamd.c **** 
  50:lp_solve_5.5/colamd/colamd.c **** 	This work was supported by the National Science Foundation, under
  51:lp_solve_5.5/colamd/colamd.c **** 	grants DMS-9504974 and DMS-9803599.
  52:lp_solve_5.5/colamd/colamd.c **** 
  53:lp_solve_5.5/colamd/colamd.c ****     Notice:
  54:lp_solve_5.5/colamd/colamd.c **** 
  55:lp_solve_5.5/colamd/colamd.c **** 	Copyright (c) 1998-2001 by the University of Florida.
  56:lp_solve_5.5/colamd/colamd.c **** 	All Rights Reserved.
  57:lp_solve_5.5/colamd/colamd.c **** 
  58:lp_solve_5.5/colamd/colamd.c **** 	THIS MATERIAL IS PROVIDED AS IS, WITH ABSOLUTELY NO WARRANTY
  59:lp_solve_5.5/colamd/colamd.c **** 	EXPRESSED OR IMPLIED.  ANY USE IS AT YOUR OWN RISK.
  60:lp_solve_5.5/colamd/colamd.c **** 
  61:lp_solve_5.5/colamd/colamd.c **** 	Permission is hereby granted to use or copy this program for any
  62:lp_solve_5.5/colamd/colamd.c **** 	purpose, provided the above notices are retained on all copies.
  63:lp_solve_5.5/colamd/colamd.c **** 	User documentation of any code that uses this code must cite the
  64:lp_solve_5.5/colamd/colamd.c **** 	Authors, the Copyright, and "Used by permission."  If this code is
  65:lp_solve_5.5/colamd/colamd.c **** 	accessible from within Matlab, then typing "help colamd" and "help
  66:lp_solve_5.5/colamd/colamd.c **** 	symamd" must cite the Authors.  Permission to modify the code and to
  67:lp_solve_5.5/colamd/colamd.c **** 	distribute modified code is granted, provided the above notices are
  68:lp_solve_5.5/colamd/colamd.c **** 	retained, and a notice that the code was modified is included with the
  69:lp_solve_5.5/colamd/colamd.c **** 	above copyright notice.  You must also retain the Availability
  70:lp_solve_5.5/colamd/colamd.c **** 	information below, of the original version.
  71:lp_solve_5.5/colamd/colamd.c **** 
  72:lp_solve_5.5/colamd/colamd.c **** 	This software is provided free of charge.
  73:lp_solve_5.5/colamd/colamd.c **** 
  74:lp_solve_5.5/colamd/colamd.c ****     Availability:
  75:lp_solve_5.5/colamd/colamd.c **** 
  76:lp_solve_5.5/colamd/colamd.c **** 	The colamd/symamd library is available at
  77:lp_solve_5.5/colamd/colamd.c **** 
  78:lp_solve_5.5/colamd/colamd.c **** 	    http://www.cise.ufl.edu/research/sparse/colamd/
  79:lp_solve_5.5/colamd/colamd.c **** 
  80:lp_solve_5.5/colamd/colamd.c **** 	This is the http://www.cise.ufl.edu/research/sparse/colamd/colamd.c
  81:lp_solve_5.5/colamd/colamd.c **** 	file.  It requires the colamd.h file.  It is required by the colamdmex.c
  82:lp_solve_5.5/colamd/colamd.c **** 	and symamdmex.c files, for the Matlab interface to colamd and symamd.
  83:lp_solve_5.5/colamd/colamd.c **** 
  84:lp_solve_5.5/colamd/colamd.c ****     Changes to the colamd library since Version 1.0 and 1.1:
  85:lp_solve_5.5/colamd/colamd.c **** 
  86:lp_solve_5.5/colamd/colamd.c **** 	No bugs were found in version 1.1.  These changes merely add new
  87:lp_solve_5.5/colamd/colamd.c **** 	functionality.
  88:lp_solve_5.5/colamd/colamd.c **** 
  89:lp_solve_5.5/colamd/colamd.c ****     	* added the COLAMD_RECOMMENDED (nnz, n_row, n_col) macro.
  90:lp_solve_5.5/colamd/colamd.c **** 
  91:lp_solve_5.5/colamd/colamd.c **** 	* moved the output statistics, from A, to a separate output argument.
  92:lp_solve_5.5/colamd/colamd.c **** 		The arguments changed for the C-callable routines.
  93:lp_solve_5.5/colamd/colamd.c **** 
  94:lp_solve_5.5/colamd/colamd.c **** 	* added colamd_report and symamd_report.
  95:lp_solve_5.5/colamd/colamd.c **** 
  96:lp_solve_5.5/colamd/colamd.c **** 	* added a C-callable symamd routine.  Formerly, symamd was only
  97:lp_solve_5.5/colamd/colamd.c **** 		available as a mexFunction from Matlab.
  98:lp_solve_5.5/colamd/colamd.c **** 
  99:lp_solve_5.5/colamd/colamd.c **** 	* added error-checking to symamd.  Formerly, it assumed its input
 100:lp_solve_5.5/colamd/colamd.c **** 		was error-free.
 101:lp_solve_5.5/colamd/colamd.c **** 
 102:lp_solve_5.5/colamd/colamd.c **** 	* added the optional stats and knobs arguments to the symamd mexFunction
 103:lp_solve_5.5/colamd/colamd.c **** 
 104:lp_solve_5.5/colamd/colamd.c **** 	* deleted colamd_help.  A help message is still available from
 105:lp_solve_5.5/colamd/colamd.c **** 		"help colamd" and "help symamd" in Matlab.
 106:lp_solve_5.5/colamd/colamd.c **** 
 107:lp_solve_5.5/colamd/colamd.c **** 	* deleted colamdtree.m and symamdtree.m.  Now, colamd.m and symamd.m
 108:lp_solve_5.5/colamd/colamd.c **** 		also do the elimination tree post-ordering.  The Version 1.1
 109:lp_solve_5.5/colamd/colamd.c **** 		colamd and symamd mexFunctions, which do not do the post-
 110:lp_solve_5.5/colamd/colamd.c **** 		ordering, are now visible as colamdmex and symamdmex from
 111:lp_solve_5.5/colamd/colamd.c **** 		Matlab.  Essentialy, the post-ordering is now the default
 112:lp_solve_5.5/colamd/colamd.c **** 		behavior of colamd.m and symamd.m, to match the behavior of
 113:lp_solve_5.5/colamd/colamd.c **** 		colmmd and symmmd.  The post-ordering is only available in the
 114:lp_solve_5.5/colamd/colamd.c **** 		Matlab interface, not the C-callable interface.
 115:lp_solve_5.5/colamd/colamd.c **** 
 116:lp_solve_5.5/colamd/colamd.c **** 	* made a slight change to the dense row/column detection in symamd,
 117:lp_solve_5.5/colamd/colamd.c **** 		to match the stated specifications.
 118:lp_solve_5.5/colamd/colamd.c **** 
 119:lp_solve_5.5/colamd/colamd.c ****     Changes from Version 2.0 to 2.1:
 120:lp_solve_5.5/colamd/colamd.c **** 
 121:lp_solve_5.5/colamd/colamd.c **** 	* TRUE and FALSE are predefined on some systems, so they are defined
 122:lp_solve_5.5/colamd/colamd.c **** 		here only if not already defined.
 123:lp_solve_5.5/colamd/colamd.c **** 	
 124:lp_solve_5.5/colamd/colamd.c **** 	* web site changed
 125:lp_solve_5.5/colamd/colamd.c **** 
 126:lp_solve_5.5/colamd/colamd.c **** 	* UNIX Makefile modified, to handle the case if "." is not in your path.
 127:lp_solve_5.5/colamd/colamd.c **** 
 128:lp_solve_5.5/colamd/colamd.c **** */
 129:lp_solve_5.5/colamd/colamd.c **** 
 130:lp_solve_5.5/colamd/colamd.c **** /* ========================================================================== */
 131:lp_solve_5.5/colamd/colamd.c **** /* === Description of user-callable routines ================================ */
 132:lp_solve_5.5/colamd/colamd.c **** /* ========================================================================== */
 133:lp_solve_5.5/colamd/colamd.c **** 
 134:lp_solve_5.5/colamd/colamd.c **** /*
 135:lp_solve_5.5/colamd/colamd.c ****     ----------------------------------------------------------------------------
 136:lp_solve_5.5/colamd/colamd.c ****     colamd_recommended:
 137:lp_solve_5.5/colamd/colamd.c ****     ----------------------------------------------------------------------------
 138:lp_solve_5.5/colamd/colamd.c **** 
 139:lp_solve_5.5/colamd/colamd.c **** 	C syntax:
 140:lp_solve_5.5/colamd/colamd.c **** 
 141:lp_solve_5.5/colamd/colamd.c **** 	    #include "colamd.h"
 142:lp_solve_5.5/colamd/colamd.c **** 	    int colamd_recommended (int nnz, int n_row, int n_col) ;
 143:lp_solve_5.5/colamd/colamd.c **** 
 144:lp_solve_5.5/colamd/colamd.c **** 	    or as a C macro
 145:lp_solve_5.5/colamd/colamd.c **** 
 146:lp_solve_5.5/colamd/colamd.c **** 	    #include "colamd.h"
 147:lp_solve_5.5/colamd/colamd.c **** 	    Alen = COLAMD_RECOMMENDED (int nnz, int n_row, int n_col) ;
 148:lp_solve_5.5/colamd/colamd.c **** 
 149:lp_solve_5.5/colamd/colamd.c **** 	Purpose:
 150:lp_solve_5.5/colamd/colamd.c **** 
 151:lp_solve_5.5/colamd/colamd.c **** 	    Returns recommended value of Alen for use by colamd.  Returns -1
 152:lp_solve_5.5/colamd/colamd.c **** 	    if any input argument is negative.  The use of this routine
 153:lp_solve_5.5/colamd/colamd.c **** 	    or macro is optional.  Note that the macro uses its arguments
 154:lp_solve_5.5/colamd/colamd.c **** 	    more than once, so be careful for side effects, if you pass
 155:lp_solve_5.5/colamd/colamd.c **** 	    expressions as arguments to COLAMD_RECOMMENDED.  Not needed for
 156:lp_solve_5.5/colamd/colamd.c **** 	    symamd, which dynamically allocates its own memory.
 157:lp_solve_5.5/colamd/colamd.c **** 
 158:lp_solve_5.5/colamd/colamd.c **** 	Arguments (all input arguments):
 159:lp_solve_5.5/colamd/colamd.c **** 
 160:lp_solve_5.5/colamd/colamd.c **** 	    int nnz ;		Number of nonzeros in the matrix A.  This must
 161:lp_solve_5.5/colamd/colamd.c **** 				be the same value as p [n_col] in the call to
 162:lp_solve_5.5/colamd/colamd.c **** 				colamd - otherwise you will get a wrong value
 163:lp_solve_5.5/colamd/colamd.c **** 				of the recommended memory to use.
 164:lp_solve_5.5/colamd/colamd.c **** 
 165:lp_solve_5.5/colamd/colamd.c **** 	    int n_row ;		Number of rows in the matrix A.
 166:lp_solve_5.5/colamd/colamd.c **** 
 167:lp_solve_5.5/colamd/colamd.c **** 	    int n_col ;		Number of columns in the matrix A.
 168:lp_solve_5.5/colamd/colamd.c **** 
 169:lp_solve_5.5/colamd/colamd.c ****     ----------------------------------------------------------------------------
 170:lp_solve_5.5/colamd/colamd.c ****     colamd_set_defaults:
 171:lp_solve_5.5/colamd/colamd.c ****     ----------------------------------------------------------------------------
 172:lp_solve_5.5/colamd/colamd.c **** 
 173:lp_solve_5.5/colamd/colamd.c **** 	C syntax:
 174:lp_solve_5.5/colamd/colamd.c **** 
 175:lp_solve_5.5/colamd/colamd.c **** 	    #include "colamd.h"
 176:lp_solve_5.5/colamd/colamd.c **** 	    colamd_set_defaults (int knobs [COLAMD_KNOBS]) ;
 177:lp_solve_5.5/colamd/colamd.c **** 
 178:lp_solve_5.5/colamd/colamd.c **** 	Purpose:
 179:lp_solve_5.5/colamd/colamd.c **** 
 180:lp_solve_5.5/colamd/colamd.c **** 	    Sets the default parameters.  The use of this routine is optional.
 181:lp_solve_5.5/colamd/colamd.c **** 
 182:lp_solve_5.5/colamd/colamd.c **** 	Arguments:
 183:lp_solve_5.5/colamd/colamd.c **** 
 184:lp_solve_5.5/colamd/colamd.c **** 	    double knobs [COLAMD_KNOBS] ;	Output only.
 185:lp_solve_5.5/colamd/colamd.c **** 
 186:lp_solve_5.5/colamd/colamd.c **** 		Colamd: rows with more than (knobs [COLAMD_DENSE_ROW] * n_col)
 187:lp_solve_5.5/colamd/colamd.c **** 		entries are removed prior to ordering.  Columns with more than
 188:lp_solve_5.5/colamd/colamd.c **** 		(knobs [COLAMD_DENSE_COL] * n_row) entries are removed prior to
 189:lp_solve_5.5/colamd/colamd.c **** 		ordering, and placed last in the output column ordering. 
 190:lp_solve_5.5/colamd/colamd.c **** 
 191:lp_solve_5.5/colamd/colamd.c **** 		Symamd: uses only knobs [COLAMD_DENSE_ROW], which is knobs [0].
 192:lp_solve_5.5/colamd/colamd.c **** 		Rows and columns with more than (knobs [COLAMD_DENSE_ROW] * n)
 193:lp_solve_5.5/colamd/colamd.c **** 		entries are removed prior to ordering, and placed last in the
 194:lp_solve_5.5/colamd/colamd.c **** 		output ordering.
 195:lp_solve_5.5/colamd/colamd.c **** 
 196:lp_solve_5.5/colamd/colamd.c **** 		COLAMD_DENSE_ROW and COLAMD_DENSE_COL are defined as 0 and 1,
 197:lp_solve_5.5/colamd/colamd.c **** 		respectively, in colamd.h.  Default values of these two knobs
 198:lp_solve_5.5/colamd/colamd.c **** 		are both 0.5.  Currently, only knobs [0] and knobs [1] are
 199:lp_solve_5.5/colamd/colamd.c **** 		used, but future versions may use more knobs.  If so, they will
 200:lp_solve_5.5/colamd/colamd.c **** 		be properly set to their defaults by the future version of
 201:lp_solve_5.5/colamd/colamd.c **** 		colamd_set_defaults, so that the code that calls colamd will
 202:lp_solve_5.5/colamd/colamd.c **** 		not need to change, assuming that you either use
 203:lp_solve_5.5/colamd/colamd.c **** 		colamd_set_defaults, or pass a (double *) NULL pointer as the
 204:lp_solve_5.5/colamd/colamd.c **** 		knobs array to colamd or symamd.
 205:lp_solve_5.5/colamd/colamd.c **** 
 206:lp_solve_5.5/colamd/colamd.c ****     ----------------------------------------------------------------------------
 207:lp_solve_5.5/colamd/colamd.c ****     colamd:
 208:lp_solve_5.5/colamd/colamd.c ****     ----------------------------------------------------------------------------
 209:lp_solve_5.5/colamd/colamd.c **** 
 210:lp_solve_5.5/colamd/colamd.c **** 	C syntax:
 211:lp_solve_5.5/colamd/colamd.c **** 
 212:lp_solve_5.5/colamd/colamd.c **** 	    #include "colamd.h"
 213:lp_solve_5.5/colamd/colamd.c **** 	    int colamd (int n_row, int n_col, int Alen, int *A, int *p,
 214:lp_solve_5.5/colamd/colamd.c **** 	    	double knobs [COLAMD_KNOBS], int stats [COLAMD_STATS]) ;
 215:lp_solve_5.5/colamd/colamd.c **** 
 216:lp_solve_5.5/colamd/colamd.c **** 	Purpose:
 217:lp_solve_5.5/colamd/colamd.c **** 
 218:lp_solve_5.5/colamd/colamd.c **** 	    Computes a column ordering (Q) of A such that P(AQ)=LU or
 219:lp_solve_5.5/colamd/colamd.c **** 	    (AQ)'AQ=LL' have less fill-in and require fewer floating point
 220:lp_solve_5.5/colamd/colamd.c **** 	    operations than factorizing the unpermuted matrix A or A'A,
 221:lp_solve_5.5/colamd/colamd.c **** 	    respectively.
 222:lp_solve_5.5/colamd/colamd.c **** 	    
 223:lp_solve_5.5/colamd/colamd.c **** 	Returns:
 224:lp_solve_5.5/colamd/colamd.c **** 
 225:lp_solve_5.5/colamd/colamd.c **** 	    TRUE (1) if successful, FALSE (0) otherwise.
 226:lp_solve_5.5/colamd/colamd.c **** 
 227:lp_solve_5.5/colamd/colamd.c **** 	Arguments:
 228:lp_solve_5.5/colamd/colamd.c **** 
 229:lp_solve_5.5/colamd/colamd.c **** 	    int n_row ;		Input argument.
 230:lp_solve_5.5/colamd/colamd.c **** 
 231:lp_solve_5.5/colamd/colamd.c **** 		Number of rows in the matrix A.
 232:lp_solve_5.5/colamd/colamd.c **** 		Restriction:  n_row >= 0.
 233:lp_solve_5.5/colamd/colamd.c **** 		Colamd returns FALSE if n_row is negative.
 234:lp_solve_5.5/colamd/colamd.c **** 
 235:lp_solve_5.5/colamd/colamd.c **** 	    int n_col ;		Input argument.
 236:lp_solve_5.5/colamd/colamd.c **** 
 237:lp_solve_5.5/colamd/colamd.c **** 		Number of columns in the matrix A.
 238:lp_solve_5.5/colamd/colamd.c **** 		Restriction:  n_col >= 0.
 239:lp_solve_5.5/colamd/colamd.c **** 		Colamd returns FALSE if n_col is negative.
 240:lp_solve_5.5/colamd/colamd.c **** 
 241:lp_solve_5.5/colamd/colamd.c **** 	    int Alen ;		Input argument.
 242:lp_solve_5.5/colamd/colamd.c **** 
 243:lp_solve_5.5/colamd/colamd.c **** 		Restriction (see note):
 244:lp_solve_5.5/colamd/colamd.c **** 		Alen >= 2*nnz + 6*(n_col+1) + 4*(n_row+1) + n_col
 245:lp_solve_5.5/colamd/colamd.c **** 		Colamd returns FALSE if these conditions are not met.
 246:lp_solve_5.5/colamd/colamd.c **** 
 247:lp_solve_5.5/colamd/colamd.c **** 		Note:  this restriction makes an modest assumption regarding
 248:lp_solve_5.5/colamd/colamd.c **** 		the size of the two typedef's structures in colamd.h.
 249:lp_solve_5.5/colamd/colamd.c **** 		We do, however, guarantee that
 250:lp_solve_5.5/colamd/colamd.c **** 
 251:lp_solve_5.5/colamd/colamd.c **** 			Alen >= colamd_recommended (nnz, n_row, n_col)
 252:lp_solve_5.5/colamd/colamd.c **** 		
 253:lp_solve_5.5/colamd/colamd.c **** 		or equivalently as a C preprocessor macro: 
 254:lp_solve_5.5/colamd/colamd.c **** 
 255:lp_solve_5.5/colamd/colamd.c **** 			Alen >= COLAMD_RECOMMENDED (nnz, n_row, n_col)
 256:lp_solve_5.5/colamd/colamd.c **** 
 257:lp_solve_5.5/colamd/colamd.c **** 		will be sufficient.
 258:lp_solve_5.5/colamd/colamd.c **** 
 259:lp_solve_5.5/colamd/colamd.c **** 	    int A [Alen] ;	Input argument, undefined on output.
 260:lp_solve_5.5/colamd/colamd.c **** 
 261:lp_solve_5.5/colamd/colamd.c **** 		A is an integer array of size Alen.  Alen must be at least as
 262:lp_solve_5.5/colamd/colamd.c **** 		large as the bare minimum value given above, but this is very
 263:lp_solve_5.5/colamd/colamd.c **** 		low, and can result in excessive run time.  For best
 264:lp_solve_5.5/colamd/colamd.c **** 		performance, we recommend that Alen be greater than or equal to
 265:lp_solve_5.5/colamd/colamd.c **** 		colamd_recommended (nnz, n_row, n_col), which adds
 266:lp_solve_5.5/colamd/colamd.c **** 		nnz/5 to the bare minimum value given above.
 267:lp_solve_5.5/colamd/colamd.c **** 
 268:lp_solve_5.5/colamd/colamd.c **** 		On input, the row indices of the entries in column c of the
 269:lp_solve_5.5/colamd/colamd.c **** 		matrix are held in A [(p [c]) ... (p [c+1]-1)].  The row indices
 270:lp_solve_5.5/colamd/colamd.c **** 		in a given column c need not be in ascending order, and
 271:lp_solve_5.5/colamd/colamd.c **** 		duplicate row indices may be be present.  However, colamd will
 272:lp_solve_5.5/colamd/colamd.c **** 		work a little faster if both of these conditions are met
 273:lp_solve_5.5/colamd/colamd.c **** 		(Colamd puts the matrix into this format, if it finds that the
 274:lp_solve_5.5/colamd/colamd.c **** 		the conditions are not met).
 275:lp_solve_5.5/colamd/colamd.c **** 
 276:lp_solve_5.5/colamd/colamd.c **** 		The matrix is 0-based.  That is, rows are in the range 0 to
 277:lp_solve_5.5/colamd/colamd.c **** 		n_row-1, and columns are in the range 0 to n_col-1.  Colamd
 278:lp_solve_5.5/colamd/colamd.c **** 		returns FALSE if any row index is out of range.
 279:lp_solve_5.5/colamd/colamd.c **** 
 280:lp_solve_5.5/colamd/colamd.c **** 		The contents of A are modified during ordering, and are
 281:lp_solve_5.5/colamd/colamd.c **** 		undefined on output.
 282:lp_solve_5.5/colamd/colamd.c **** 
 283:lp_solve_5.5/colamd/colamd.c **** 	    int p [n_col+1] ;	Both input and output argument.
 284:lp_solve_5.5/colamd/colamd.c **** 
 285:lp_solve_5.5/colamd/colamd.c **** 		p is an integer array of size n_col+1.  On input, it holds the
 286:lp_solve_5.5/colamd/colamd.c **** 		"pointers" for the column form of the matrix A.  Column c of
 287:lp_solve_5.5/colamd/colamd.c **** 		the matrix A is held in A [(p [c]) ... (p [c+1]-1)].  The first
 288:lp_solve_5.5/colamd/colamd.c **** 		entry, p [0], must be zero, and p [c] <= p [c+1] must hold
 289:lp_solve_5.5/colamd/colamd.c **** 		for all c in the range 0 to n_col-1.  The value p [n_col] is
 290:lp_solve_5.5/colamd/colamd.c **** 		thus the total number of entries in the pattern of the matrix A.
 291:lp_solve_5.5/colamd/colamd.c **** 		Colamd returns FALSE if these conditions are not met.
 292:lp_solve_5.5/colamd/colamd.c **** 
 293:lp_solve_5.5/colamd/colamd.c **** 		On output, if colamd returns TRUE, the array p holds the column
 294:lp_solve_5.5/colamd/colamd.c **** 		permutation (Q, for P(AQ)=LU or (AQ)'(AQ)=LL'), where p [0] is
 295:lp_solve_5.5/colamd/colamd.c **** 		the first column index in the new ordering, and p [n_col-1] is
 296:lp_solve_5.5/colamd/colamd.c **** 		the last.  That is, p [k] = j means that column j of A is the
 297:lp_solve_5.5/colamd/colamd.c **** 		kth pivot column, in AQ, where k is in the range 0 to n_col-1
 298:lp_solve_5.5/colamd/colamd.c **** 		(p [0] = j means that column j of A is the first column in AQ).
 299:lp_solve_5.5/colamd/colamd.c **** 
 300:lp_solve_5.5/colamd/colamd.c **** 		If colamd returns FALSE, then no permutation is returned, and
 301:lp_solve_5.5/colamd/colamd.c **** 		p is undefined on output.
 302:lp_solve_5.5/colamd/colamd.c **** 
 303:lp_solve_5.5/colamd/colamd.c **** 	    double knobs [COLAMD_KNOBS] ;	Input argument.
 304:lp_solve_5.5/colamd/colamd.c **** 
 305:lp_solve_5.5/colamd/colamd.c **** 		See colamd_set_defaults for a description.
 306:lp_solve_5.5/colamd/colamd.c **** 
 307:lp_solve_5.5/colamd/colamd.c **** 	    int stats [COLAMD_STATS] ;		Output argument.
 308:lp_solve_5.5/colamd/colamd.c **** 
 309:lp_solve_5.5/colamd/colamd.c **** 		Statistics on the ordering, and error status.
 310:lp_solve_5.5/colamd/colamd.c **** 		See colamd.h for related definitions.
 311:lp_solve_5.5/colamd/colamd.c **** 		Colamd returns FALSE if stats is not present.
 312:lp_solve_5.5/colamd/colamd.c **** 
 313:lp_solve_5.5/colamd/colamd.c **** 		stats [0]:  number of dense or empty rows ignored.
 314:lp_solve_5.5/colamd/colamd.c **** 
 315:lp_solve_5.5/colamd/colamd.c **** 		stats [1]:  number of dense or empty columns ignored (and
 316:lp_solve_5.5/colamd/colamd.c **** 				ordered last in the output permutation p)
 317:lp_solve_5.5/colamd/colamd.c **** 				Note that a row can become "empty" if it
 318:lp_solve_5.5/colamd/colamd.c **** 				contains only "dense" and/or "empty" columns,
 319:lp_solve_5.5/colamd/colamd.c **** 				and similarly a column can become "empty" if it
 320:lp_solve_5.5/colamd/colamd.c **** 				only contains "dense" and/or "empty" rows.
 321:lp_solve_5.5/colamd/colamd.c **** 
 322:lp_solve_5.5/colamd/colamd.c **** 		stats [2]:  number of garbage collections performed.
 323:lp_solve_5.5/colamd/colamd.c **** 				This can be excessively high if Alen is close
 324:lp_solve_5.5/colamd/colamd.c **** 				to the minimum required value.
 325:lp_solve_5.5/colamd/colamd.c **** 
 326:lp_solve_5.5/colamd/colamd.c **** 		stats [3]:  status code.  < 0 is an error code.
 327:lp_solve_5.5/colamd/colamd.c **** 			    > 1 is a warning or notice.
 328:lp_solve_5.5/colamd/colamd.c **** 
 329:lp_solve_5.5/colamd/colamd.c **** 			0	OK.  Each column of the input matrix contained
 330:lp_solve_5.5/colamd/colamd.c **** 				row indices in increasing order, with no
 331:lp_solve_5.5/colamd/colamd.c **** 				duplicates.
 332:lp_solve_5.5/colamd/colamd.c **** 
 333:lp_solve_5.5/colamd/colamd.c **** 			1	OK, but columns of input matrix were jumbled
 334:lp_solve_5.5/colamd/colamd.c **** 				(unsorted columns or duplicate entries).  Colamd
 335:lp_solve_5.5/colamd/colamd.c **** 				had to do some extra work to sort the matrix
 336:lp_solve_5.5/colamd/colamd.c **** 				first and remove duplicate entries, but it
 337:lp_solve_5.5/colamd/colamd.c **** 				still was able to return a valid permutation
 338:lp_solve_5.5/colamd/colamd.c **** 				(return value of colamd was TRUE).
 339:lp_solve_5.5/colamd/colamd.c **** 
 340:lp_solve_5.5/colamd/colamd.c **** 					stats [4]: highest numbered column that
 341:lp_solve_5.5/colamd/colamd.c **** 						is unsorted or has duplicate
 342:lp_solve_5.5/colamd/colamd.c **** 						entries.
 343:lp_solve_5.5/colamd/colamd.c **** 					stats [5]: last seen duplicate or
 344:lp_solve_5.5/colamd/colamd.c **** 						unsorted row index.
 345:lp_solve_5.5/colamd/colamd.c **** 					stats [6]: number of duplicate or
 346:lp_solve_5.5/colamd/colamd.c **** 						unsorted row indices.
 347:lp_solve_5.5/colamd/colamd.c **** 
 348:lp_solve_5.5/colamd/colamd.c **** 			-1	A is a null pointer
 349:lp_solve_5.5/colamd/colamd.c **** 
 350:lp_solve_5.5/colamd/colamd.c **** 			-2	p is a null pointer
 351:lp_solve_5.5/colamd/colamd.c **** 
 352:lp_solve_5.5/colamd/colamd.c **** 			-3 	n_row is negative
 353:lp_solve_5.5/colamd/colamd.c **** 
 354:lp_solve_5.5/colamd/colamd.c **** 					stats [4]: n_row
 355:lp_solve_5.5/colamd/colamd.c **** 
 356:lp_solve_5.5/colamd/colamd.c **** 			-4	n_col is negative
 357:lp_solve_5.5/colamd/colamd.c **** 
 358:lp_solve_5.5/colamd/colamd.c **** 					stats [4]: n_col
 359:lp_solve_5.5/colamd/colamd.c **** 
 360:lp_solve_5.5/colamd/colamd.c **** 			-5	number of nonzeros in matrix is negative
 361:lp_solve_5.5/colamd/colamd.c **** 
 362:lp_solve_5.5/colamd/colamd.c **** 					stats [4]: number of nonzeros, p [n_col]
 363:lp_solve_5.5/colamd/colamd.c **** 
 364:lp_solve_5.5/colamd/colamd.c **** 			-6	p [0] is nonzero
 365:lp_solve_5.5/colamd/colamd.c **** 
 366:lp_solve_5.5/colamd/colamd.c **** 					stats [4]: p [0]
 367:lp_solve_5.5/colamd/colamd.c **** 
 368:lp_solve_5.5/colamd/colamd.c **** 			-7	A is too small
 369:lp_solve_5.5/colamd/colamd.c **** 
 370:lp_solve_5.5/colamd/colamd.c **** 					stats [4]: required size
 371:lp_solve_5.5/colamd/colamd.c **** 					stats [5]: actual size (Alen)
 372:lp_solve_5.5/colamd/colamd.c **** 
 373:lp_solve_5.5/colamd/colamd.c **** 			-8	a column has a negative number of entries
 374:lp_solve_5.5/colamd/colamd.c **** 
 375:lp_solve_5.5/colamd/colamd.c **** 					stats [4]: column with < 0 entries
 376:lp_solve_5.5/colamd/colamd.c **** 					stats [5]: number of entries in col
 377:lp_solve_5.5/colamd/colamd.c **** 
 378:lp_solve_5.5/colamd/colamd.c **** 			-9	a row index is out of bounds
 379:lp_solve_5.5/colamd/colamd.c **** 
 380:lp_solve_5.5/colamd/colamd.c **** 					stats [4]: column with bad row index
 381:lp_solve_5.5/colamd/colamd.c **** 					stats [5]: bad row index
 382:lp_solve_5.5/colamd/colamd.c **** 					stats [6]: n_row, # of rows of matrx
 383:lp_solve_5.5/colamd/colamd.c **** 
 384:lp_solve_5.5/colamd/colamd.c **** 			-10	(unused; see symamd.c)
 385:lp_solve_5.5/colamd/colamd.c **** 
 386:lp_solve_5.5/colamd/colamd.c **** 			-999	(unused; see symamd.c)
 387:lp_solve_5.5/colamd/colamd.c **** 
 388:lp_solve_5.5/colamd/colamd.c **** 		Future versions may return more statistics in the stats array.
 389:lp_solve_5.5/colamd/colamd.c **** 
 390:lp_solve_5.5/colamd/colamd.c **** 	Example:
 391:lp_solve_5.5/colamd/colamd.c **** 	
 392:lp_solve_5.5/colamd/colamd.c **** 	    See http://www.cise.ufl.edu/research/sparse/colamd/example.c
 393:lp_solve_5.5/colamd/colamd.c **** 	    for a complete example.
 394:lp_solve_5.5/colamd/colamd.c **** 
 395:lp_solve_5.5/colamd/colamd.c **** 	    To order the columns of a 5-by-4 matrix with 11 nonzero entries in
 396:lp_solve_5.5/colamd/colamd.c **** 	    the following nonzero pattern
 397:lp_solve_5.5/colamd/colamd.c **** 
 398:lp_solve_5.5/colamd/colamd.c **** 	    	x 0 x 0
 399:lp_solve_5.5/colamd/colamd.c **** 		x 0 x x
 400:lp_solve_5.5/colamd/colamd.c **** 		0 x x 0
 401:lp_solve_5.5/colamd/colamd.c **** 		0 0 x x
 402:lp_solve_5.5/colamd/colamd.c **** 		x x 0 0
 403:lp_solve_5.5/colamd/colamd.c **** 
 404:lp_solve_5.5/colamd/colamd.c **** 	    with default knobs and no output statistics, do the following:
 405:lp_solve_5.5/colamd/colamd.c **** 
 406:lp_solve_5.5/colamd/colamd.c **** 		#include "colamd.h"
 407:lp_solve_5.5/colamd/colamd.c **** 		#define ALEN COLAMD_RECOMMENDED (11, 5, 4)
 408:lp_solve_5.5/colamd/colamd.c **** 		int A [ALEN] = {1, 2, 5, 3, 5, 1, 2, 3, 4, 2, 4} ;
 409:lp_solve_5.5/colamd/colamd.c **** 		int p [ ] = {0, 3, 5, 9, 11} ;
 410:lp_solve_5.5/colamd/colamd.c **** 		int stats [COLAMD_STATS] ;
 411:lp_solve_5.5/colamd/colamd.c **** 		colamd (5, 4, ALEN, A, p, (double *) NULL, stats) ;
 412:lp_solve_5.5/colamd/colamd.c **** 
 413:lp_solve_5.5/colamd/colamd.c **** 	    The permutation is returned in the array p, and A is destroyed.
 414:lp_solve_5.5/colamd/colamd.c **** 
 415:lp_solve_5.5/colamd/colamd.c ****     ----------------------------------------------------------------------------
 416:lp_solve_5.5/colamd/colamd.c ****     symamd:
 417:lp_solve_5.5/colamd/colamd.c ****     ----------------------------------------------------------------------------
 418:lp_solve_5.5/colamd/colamd.c **** 
 419:lp_solve_5.5/colamd/colamd.c **** 	C syntax:
 420:lp_solve_5.5/colamd/colamd.c **** 
 421:lp_solve_5.5/colamd/colamd.c **** 	    #include "colamd.h"
 422:lp_solve_5.5/colamd/colamd.c **** 	    int symamd (int n, int *A, int *p, int *perm,
 423:lp_solve_5.5/colamd/colamd.c **** 	    	int knobs [COLAMD_KNOBS], int stats [COLAMD_STATS],
 424:lp_solve_5.5/colamd/colamd.c **** 		void (*allocate) (size_t, size_t), void (*release) (void *)) ;
 425:lp_solve_5.5/colamd/colamd.c **** 
 426:lp_solve_5.5/colamd/colamd.c **** 	Purpose:
 427:lp_solve_5.5/colamd/colamd.c **** 
 428:lp_solve_5.5/colamd/colamd.c ****     	    The symamd routine computes an ordering P of a symmetric sparse
 429:lp_solve_5.5/colamd/colamd.c **** 	    matrix A such that the Cholesky factorization PAP' = LL' remains
 430:lp_solve_5.5/colamd/colamd.c **** 	    sparse.  It is based on a column ordering of a matrix M constructed
 431:lp_solve_5.5/colamd/colamd.c **** 	    so that the nonzero pattern of M'M is the same as A.  The matrix A
 432:lp_solve_5.5/colamd/colamd.c **** 	    is assumed to be symmetric; only the strictly lower triangular part
 433:lp_solve_5.5/colamd/colamd.c **** 	    is accessed.  You must pass your selected memory allocator (usually
 434:lp_solve_5.5/colamd/colamd.c **** 	    calloc/free or mxCalloc/mxFree) to symamd, for it to allocate
 435:lp_solve_5.5/colamd/colamd.c **** 	    memory for the temporary matrix M.
 436:lp_solve_5.5/colamd/colamd.c **** 
 437:lp_solve_5.5/colamd/colamd.c **** 	Returns:
 438:lp_solve_5.5/colamd/colamd.c **** 
 439:lp_solve_5.5/colamd/colamd.c **** 	    TRUE (1) if successful, FALSE (0) otherwise.
 440:lp_solve_5.5/colamd/colamd.c **** 
 441:lp_solve_5.5/colamd/colamd.c **** 	Arguments:
 442:lp_solve_5.5/colamd/colamd.c **** 
 443:lp_solve_5.5/colamd/colamd.c **** 	    int n ;		Input argument.
 444:lp_solve_5.5/colamd/colamd.c **** 
 445:lp_solve_5.5/colamd/colamd.c **** 	    	Number of rows and columns in the symmetrix matrix A.
 446:lp_solve_5.5/colamd/colamd.c **** 		Restriction:  n >= 0.
 447:lp_solve_5.5/colamd/colamd.c **** 		Symamd returns FALSE if n is negative.
 448:lp_solve_5.5/colamd/colamd.c **** 
 449:lp_solve_5.5/colamd/colamd.c **** 	    int A [nnz] ;	Input argument.
 450:lp_solve_5.5/colamd/colamd.c **** 
 451:lp_solve_5.5/colamd/colamd.c **** 	    	A is an integer array of size nnz, where nnz = p [n].
 452:lp_solve_5.5/colamd/colamd.c **** 		
 453:lp_solve_5.5/colamd/colamd.c **** 		The row indices of the entries in column c of the matrix are
 454:lp_solve_5.5/colamd/colamd.c **** 		held in A [(p [c]) ... (p [c+1]-1)].  The row indices in a
 455:lp_solve_5.5/colamd/colamd.c **** 		given column c need not be in ascending order, and duplicate
 456:lp_solve_5.5/colamd/colamd.c **** 		row indices may be present.  However, symamd will run faster
 457:lp_solve_5.5/colamd/colamd.c **** 		if the columns are in sorted order with no duplicate entries. 
 458:lp_solve_5.5/colamd/colamd.c **** 
 459:lp_solve_5.5/colamd/colamd.c **** 		The matrix is 0-based.  That is, rows are in the range 0 to
 460:lp_solve_5.5/colamd/colamd.c **** 		n-1, and columns are in the range 0 to n-1.  Symamd
 461:lp_solve_5.5/colamd/colamd.c **** 		returns FALSE if any row index is out of range.
 462:lp_solve_5.5/colamd/colamd.c **** 
 463:lp_solve_5.5/colamd/colamd.c **** 		The contents of A are not modified.
 464:lp_solve_5.5/colamd/colamd.c **** 
 465:lp_solve_5.5/colamd/colamd.c **** 	    int p [n+1] ;   	Input argument.
 466:lp_solve_5.5/colamd/colamd.c **** 
 467:lp_solve_5.5/colamd/colamd.c **** 		p is an integer array of size n+1.  On input, it holds the
 468:lp_solve_5.5/colamd/colamd.c **** 		"pointers" for the column form of the matrix A.  Column c of
 469:lp_solve_5.5/colamd/colamd.c **** 		the matrix A is held in A [(p [c]) ... (p [c+1]-1)].  The first
 470:lp_solve_5.5/colamd/colamd.c **** 		entry, p [0], must be zero, and p [c] <= p [c+1] must hold
 471:lp_solve_5.5/colamd/colamd.c **** 		for all c in the range 0 to n-1.  The value p [n] is
 472:lp_solve_5.5/colamd/colamd.c **** 		thus the total number of entries in the pattern of the matrix A.
 473:lp_solve_5.5/colamd/colamd.c **** 		Symamd returns FALSE if these conditions are not met.
 474:lp_solve_5.5/colamd/colamd.c **** 
 475:lp_solve_5.5/colamd/colamd.c **** 		The contents of p are not modified.
 476:lp_solve_5.5/colamd/colamd.c **** 
 477:lp_solve_5.5/colamd/colamd.c **** 	    int perm [n+1] ;   	Output argument.
 478:lp_solve_5.5/colamd/colamd.c **** 
 479:lp_solve_5.5/colamd/colamd.c **** 		On output, if symamd returns TRUE, the array perm holds the
 480:lp_solve_5.5/colamd/colamd.c **** 		permutation P, where perm [0] is the first index in the new
 481:lp_solve_5.5/colamd/colamd.c **** 		ordering, and perm [n-1] is the last.  That is, perm [k] = j
 482:lp_solve_5.5/colamd/colamd.c **** 		means that row and column j of A is the kth column in PAP',
 483:lp_solve_5.5/colamd/colamd.c **** 		where k is in the range 0 to n-1 (perm [0] = j means
 484:lp_solve_5.5/colamd/colamd.c **** 		that row and column j of A are the first row and column in
 485:lp_solve_5.5/colamd/colamd.c **** 		PAP').  The array is used as a workspace during the ordering,
 486:lp_solve_5.5/colamd/colamd.c **** 		which is why it must be of length n+1, not just n.
 487:lp_solve_5.5/colamd/colamd.c **** 
 488:lp_solve_5.5/colamd/colamd.c **** 	    double knobs [COLAMD_KNOBS] ;	Input argument.
 489:lp_solve_5.5/colamd/colamd.c **** 
 490:lp_solve_5.5/colamd/colamd.c **** 		See colamd_set_defaults for a description.
 491:lp_solve_5.5/colamd/colamd.c **** 
 492:lp_solve_5.5/colamd/colamd.c **** 	    int stats [COLAMD_STATS] ;		Output argument.
 493:lp_solve_5.5/colamd/colamd.c **** 
 494:lp_solve_5.5/colamd/colamd.c **** 		Statistics on the ordering, and error status.
 495:lp_solve_5.5/colamd/colamd.c **** 		See colamd.h for related definitions.
 496:lp_solve_5.5/colamd/colamd.c **** 		Symamd returns FALSE if stats is not present.
 497:lp_solve_5.5/colamd/colamd.c **** 
 498:lp_solve_5.5/colamd/colamd.c **** 		stats [0]:  number of dense or empty row and columns ignored
 499:lp_solve_5.5/colamd/colamd.c **** 				(and ordered last in the output permutation 
 500:lp_solve_5.5/colamd/colamd.c **** 				perm).  Note that a row/column can become
 501:lp_solve_5.5/colamd/colamd.c **** 				"empty" if it contains only "dense" and/or
 502:lp_solve_5.5/colamd/colamd.c **** 				"empty" columns/rows.
 503:lp_solve_5.5/colamd/colamd.c **** 
 504:lp_solve_5.5/colamd/colamd.c **** 		stats [1]:  (same as stats [0])
 505:lp_solve_5.5/colamd/colamd.c **** 
 506:lp_solve_5.5/colamd/colamd.c **** 		stats [2]:  number of garbage collections performed.
 507:lp_solve_5.5/colamd/colamd.c **** 
 508:lp_solve_5.5/colamd/colamd.c **** 		stats [3]:  status code.  < 0 is an error code.
 509:lp_solve_5.5/colamd/colamd.c **** 			    > 1 is a warning or notice.
 510:lp_solve_5.5/colamd/colamd.c **** 
 511:lp_solve_5.5/colamd/colamd.c **** 			0	OK.  Each column of the input matrix contained
 512:lp_solve_5.5/colamd/colamd.c **** 				row indices in increasing order, with no
 513:lp_solve_5.5/colamd/colamd.c **** 				duplicates.
 514:lp_solve_5.5/colamd/colamd.c **** 
 515:lp_solve_5.5/colamd/colamd.c **** 			1	OK, but columns of input matrix were jumbled
 516:lp_solve_5.5/colamd/colamd.c **** 				(unsorted columns or duplicate entries).  Symamd
 517:lp_solve_5.5/colamd/colamd.c **** 				had to do some extra work to sort the matrix
 518:lp_solve_5.5/colamd/colamd.c **** 				first and remove duplicate entries, but it
 519:lp_solve_5.5/colamd/colamd.c **** 				still was able to return a valid permutation
 520:lp_solve_5.5/colamd/colamd.c **** 				(return value of symamd was TRUE).
 521:lp_solve_5.5/colamd/colamd.c **** 
 522:lp_solve_5.5/colamd/colamd.c **** 					stats [4]: highest numbered column that
 523:lp_solve_5.5/colamd/colamd.c **** 						is unsorted or has duplicate
 524:lp_solve_5.5/colamd/colamd.c **** 						entries.
 525:lp_solve_5.5/colamd/colamd.c **** 					stats [5]: last seen duplicate or
 526:lp_solve_5.5/colamd/colamd.c **** 						unsorted row index.
 527:lp_solve_5.5/colamd/colamd.c **** 					stats [6]: number of duplicate or
 528:lp_solve_5.5/colamd/colamd.c **** 						unsorted row indices.
 529:lp_solve_5.5/colamd/colamd.c **** 
 530:lp_solve_5.5/colamd/colamd.c **** 			-1	A is a null pointer
 531:lp_solve_5.5/colamd/colamd.c **** 
 532:lp_solve_5.5/colamd/colamd.c **** 			-2	p is a null pointer
 533:lp_solve_5.5/colamd/colamd.c **** 
 534:lp_solve_5.5/colamd/colamd.c **** 			-3	(unused, see colamd.c)
 535:lp_solve_5.5/colamd/colamd.c **** 
 536:lp_solve_5.5/colamd/colamd.c **** 			-4 	n is negative
 537:lp_solve_5.5/colamd/colamd.c **** 
 538:lp_solve_5.5/colamd/colamd.c **** 					stats [4]: n
 539:lp_solve_5.5/colamd/colamd.c **** 
 540:lp_solve_5.5/colamd/colamd.c **** 			-5	number of nonzeros in matrix is negative
 541:lp_solve_5.5/colamd/colamd.c **** 
 542:lp_solve_5.5/colamd/colamd.c **** 					stats [4]: # of nonzeros (p [n]).
 543:lp_solve_5.5/colamd/colamd.c **** 
 544:lp_solve_5.5/colamd/colamd.c **** 			-6	p [0] is nonzero
 545:lp_solve_5.5/colamd/colamd.c **** 
 546:lp_solve_5.5/colamd/colamd.c **** 					stats [4]: p [0]
 547:lp_solve_5.5/colamd/colamd.c **** 
 548:lp_solve_5.5/colamd/colamd.c **** 			-7	(unused)
 549:lp_solve_5.5/colamd/colamd.c **** 
 550:lp_solve_5.5/colamd/colamd.c **** 			-8	a column has a negative number of entries
 551:lp_solve_5.5/colamd/colamd.c **** 
 552:lp_solve_5.5/colamd/colamd.c **** 					stats [4]: column with < 0 entries
 553:lp_solve_5.5/colamd/colamd.c **** 					stats [5]: number of entries in col
 554:lp_solve_5.5/colamd/colamd.c **** 
 555:lp_solve_5.5/colamd/colamd.c **** 			-9	a row index is out of bounds
 556:lp_solve_5.5/colamd/colamd.c **** 
 557:lp_solve_5.5/colamd/colamd.c **** 					stats [4]: column with bad row index
 558:lp_solve_5.5/colamd/colamd.c **** 					stats [5]: bad row index
 559:lp_solve_5.5/colamd/colamd.c **** 					stats [6]: n_row, # of rows of matrx
 560:lp_solve_5.5/colamd/colamd.c **** 
 561:lp_solve_5.5/colamd/colamd.c **** 			-10	out of memory (unable to allocate temporary
 562:lp_solve_5.5/colamd/colamd.c **** 				workspace for M or count arrays using the
 563:lp_solve_5.5/colamd/colamd.c **** 				"allocate" routine passed into symamd).
 564:lp_solve_5.5/colamd/colamd.c **** 
 565:lp_solve_5.5/colamd/colamd.c **** 			-999	internal error.  colamd failed to order the
 566:lp_solve_5.5/colamd/colamd.c **** 				matrix M, when it should have succeeded.  This
 567:lp_solve_5.5/colamd/colamd.c **** 				indicates a bug.  If this (and *only* this)
 568:lp_solve_5.5/colamd/colamd.c **** 				error code occurs, please contact the authors.
 569:lp_solve_5.5/colamd/colamd.c **** 				Don't contact the authors if you get any other
 570:lp_solve_5.5/colamd/colamd.c **** 				error code.
 571:lp_solve_5.5/colamd/colamd.c **** 
 572:lp_solve_5.5/colamd/colamd.c **** 		Future versions may return more statistics in the stats array.
 573:lp_solve_5.5/colamd/colamd.c **** 
 574:lp_solve_5.5/colamd/colamd.c **** 	    void * (*allocate) (size_t, size_t)
 575:lp_solve_5.5/colamd/colamd.c **** 
 576:lp_solve_5.5/colamd/colamd.c **** 	    	A pointer to a function providing memory allocation.  The
 577:lp_solve_5.5/colamd/colamd.c **** 		allocated memory must be returned initialized to zero.  For a
 578:lp_solve_5.5/colamd/colamd.c **** 		C application, this argument should normally be a pointer to
 579:lp_solve_5.5/colamd/colamd.c **** 		calloc.  For a Matlab mexFunction, the routine mxCalloc is
 580:lp_solve_5.5/colamd/colamd.c **** 		passed instead.
 581:lp_solve_5.5/colamd/colamd.c **** 
 582:lp_solve_5.5/colamd/colamd.c **** 	    void (*release) (size_t, size_t)
 583:lp_solve_5.5/colamd/colamd.c **** 
 584:lp_solve_5.5/colamd/colamd.c **** 	    	A pointer to a function that frees memory allocated by the
 585:lp_solve_5.5/colamd/colamd.c **** 		memory allocation routine above.  For a C application, this
 586:lp_solve_5.5/colamd/colamd.c **** 		argument should normally be a pointer to free.  For a Matlab
 587:lp_solve_5.5/colamd/colamd.c **** 		mexFunction, the routine mxFree is passed instead.
 588:lp_solve_5.5/colamd/colamd.c **** 
 589:lp_solve_5.5/colamd/colamd.c **** 
 590:lp_solve_5.5/colamd/colamd.c ****     ----------------------------------------------------------------------------
 591:lp_solve_5.5/colamd/colamd.c ****     colamd_report:
 592:lp_solve_5.5/colamd/colamd.c ****     ----------------------------------------------------------------------------
 593:lp_solve_5.5/colamd/colamd.c **** 
 594:lp_solve_5.5/colamd/colamd.c **** 	C syntax:
 595:lp_solve_5.5/colamd/colamd.c **** 
 596:lp_solve_5.5/colamd/colamd.c **** 	    #include "colamd.h"
 597:lp_solve_5.5/colamd/colamd.c **** 	    colamd_report (int stats [COLAMD_STATS]) ;
 598:lp_solve_5.5/colamd/colamd.c **** 
 599:lp_solve_5.5/colamd/colamd.c **** 	Purpose:
 600:lp_solve_5.5/colamd/colamd.c **** 
 601:lp_solve_5.5/colamd/colamd.c **** 	    Prints the error status and statistics recorded in the stats
 602:lp_solve_5.5/colamd/colamd.c **** 	    array on the standard error output (for a standard C routine)
 603:lp_solve_5.5/colamd/colamd.c **** 	    or on the Matlab output (for a mexFunction).
 604:lp_solve_5.5/colamd/colamd.c **** 
 605:lp_solve_5.5/colamd/colamd.c **** 	Arguments:
 606:lp_solve_5.5/colamd/colamd.c **** 
 607:lp_solve_5.5/colamd/colamd.c **** 	    int stats [COLAMD_STATS] ;	Input only.  Statistics from colamd.
 608:lp_solve_5.5/colamd/colamd.c **** 
 609:lp_solve_5.5/colamd/colamd.c **** 
 610:lp_solve_5.5/colamd/colamd.c ****     ----------------------------------------------------------------------------
 611:lp_solve_5.5/colamd/colamd.c ****     symamd_report:
 612:lp_solve_5.5/colamd/colamd.c ****     ----------------------------------------------------------------------------
 613:lp_solve_5.5/colamd/colamd.c **** 
 614:lp_solve_5.5/colamd/colamd.c **** 	C syntax:
 615:lp_solve_5.5/colamd/colamd.c **** 
 616:lp_solve_5.5/colamd/colamd.c **** 	    #include "colamd.h"
 617:lp_solve_5.5/colamd/colamd.c **** 	    symamd_report (int stats [COLAMD_STATS]) ;
 618:lp_solve_5.5/colamd/colamd.c **** 
 619:lp_solve_5.5/colamd/colamd.c **** 	Purpose:
 620:lp_solve_5.5/colamd/colamd.c **** 
 621:lp_solve_5.5/colamd/colamd.c **** 	    Prints the error status and statistics recorded in the stats
 622:lp_solve_5.5/colamd/colamd.c **** 	    array on the standard error output (for a standard C routine)
 623:lp_solve_5.5/colamd/colamd.c **** 	    or on the Matlab output (for a mexFunction).
 624:lp_solve_5.5/colamd/colamd.c **** 
 625:lp_solve_5.5/colamd/colamd.c **** 	Arguments:
 626:lp_solve_5.5/colamd/colamd.c **** 
 627:lp_solve_5.5/colamd/colamd.c **** 	    int stats [COLAMD_STATS] ;	Input only.  Statistics from symamd.
 628:lp_solve_5.5/colamd/colamd.c **** 
 629:lp_solve_5.5/colamd/colamd.c **** 
 630:lp_solve_5.5/colamd/colamd.c **** */
 631:lp_solve_5.5/colamd/colamd.c **** 
 632:lp_solve_5.5/colamd/colamd.c **** /* ========================================================================== */
 633:lp_solve_5.5/colamd/colamd.c **** /* === Scaffolding code definitions  ======================================== */
 634:lp_solve_5.5/colamd/colamd.c **** /* ========================================================================== */
 635:lp_solve_5.5/colamd/colamd.c **** 
 636:lp_solve_5.5/colamd/colamd.c **** /* Ensure that debugging is turned off: */
 637:lp_solve_5.5/colamd/colamd.c **** #ifndef NDEBUG
 638:lp_solve_5.5/colamd/colamd.c **** #define NDEBUG
 639:lp_solve_5.5/colamd/colamd.c **** #endif /* NDEBUG */
 640:lp_solve_5.5/colamd/colamd.c **** 
 641:lp_solve_5.5/colamd/colamd.c **** /*
 642:lp_solve_5.5/colamd/colamd.c ****    Our "scaffolding code" philosophy:  In our opinion, well-written library
 643:lp_solve_5.5/colamd/colamd.c ****    code should keep its "debugging" code, and just normally have it turned off
 644:lp_solve_5.5/colamd/colamd.c ****    by the compiler so as not to interfere with performance.  This serves
 645:lp_solve_5.5/colamd/colamd.c ****    several purposes:
 646:lp_solve_5.5/colamd/colamd.c **** 
 647:lp_solve_5.5/colamd/colamd.c ****    (1) assertions act as comments to the reader, telling you what the code
 648:lp_solve_5.5/colamd/colamd.c **** 	expects at that point.  All assertions will always be true (unless
 649:lp_solve_5.5/colamd/colamd.c **** 	there really is a bug, of course).
 650:lp_solve_5.5/colamd/colamd.c **** 
 651:lp_solve_5.5/colamd/colamd.c ****    (2) leaving in the scaffolding code assists anyone who would like to modify
 652:lp_solve_5.5/colamd/colamd.c **** 	the code, or understand the algorithm (by reading the debugging output,
 653:lp_solve_5.5/colamd/colamd.c **** 	one can get a glimpse into what the code is doing).
 654:lp_solve_5.5/colamd/colamd.c **** 
 655:lp_solve_5.5/colamd/colamd.c ****    (3) (gasp!) for actually finding bugs.  This code has been heavily tested
 656:lp_solve_5.5/colamd/colamd.c **** 	and "should" be fully functional and bug-free ... but you never know...
 657:lp_solve_5.5/colamd/colamd.c **** 
 658:lp_solve_5.5/colamd/colamd.c ****     To enable debugging, comment out the "#define NDEBUG" above.  For a Matlab
 659:lp_solve_5.5/colamd/colamd.c ****     mexFunction, you will also need to modify mexopts.sh to remove the -DNDEBUG
 660:lp_solve_5.5/colamd/colamd.c ****     definition.  The code will become outrageously slow when debugging is
 661:lp_solve_5.5/colamd/colamd.c ****     enabled.  To control the level of debugging output, set an environment
 662:lp_solve_5.5/colamd/colamd.c ****     variable D to 0 (little), 1 (some), 2, 3, or 4 (lots).  When debugging,
 663:lp_solve_5.5/colamd/colamd.c ****     you should see the following message on the standard output:
 664:lp_solve_5.5/colamd/colamd.c **** 
 665:lp_solve_5.5/colamd/colamd.c ****     	colamd: debug version, D = 1 (THIS WILL BE SLOW!)
 666:lp_solve_5.5/colamd/colamd.c **** 
 667:lp_solve_5.5/colamd/colamd.c ****     or a similar message for symamd.  If you don't, then debugging has not
 668:lp_solve_5.5/colamd/colamd.c ****     been enabled.
 669:lp_solve_5.5/colamd/colamd.c **** 
 670:lp_solve_5.5/colamd/colamd.c **** */
 671:lp_solve_5.5/colamd/colamd.c **** 
 672:lp_solve_5.5/colamd/colamd.c **** /* ========================================================================== */
 673:lp_solve_5.5/colamd/colamd.c **** /* === Include files ======================================================== */
 674:lp_solve_5.5/colamd/colamd.c **** /* ========================================================================== */
 675:lp_solve_5.5/colamd/colamd.c **** 
 676:lp_solve_5.5/colamd/colamd.c **** #include "colamd.h"
 677:lp_solve_5.5/colamd/colamd.c **** #include <limits.h>
 678:lp_solve_5.5/colamd/colamd.c **** 
 679:lp_solve_5.5/colamd/colamd.c **** #ifdef MATLAB_MEX_FILE
 680:lp_solve_5.5/colamd/colamd.c **** #include "mex.h"
 681:lp_solve_5.5/colamd/colamd.c **** #include "matrix.h"
 682:lp_solve_5.5/colamd/colamd.c **** #else
 683:lp_solve_5.5/colamd/colamd.c **** #include <stdio.h>
 684:lp_solve_5.5/colamd/colamd.c **** #include <assert.h>
 685:lp_solve_5.5/colamd/colamd.c **** #endif /* MATLAB_MEX_FILE */
 686:lp_solve_5.5/colamd/colamd.c **** 
 687:lp_solve_5.5/colamd/colamd.c **** #ifdef FORTIFY
 688:lp_solve_5.5/colamd/colamd.c **** # include "lp_fortify.h"
 689:lp_solve_5.5/colamd/colamd.c **** #endif
 690:lp_solve_5.5/colamd/colamd.c **** 
 691:lp_solve_5.5/colamd/colamd.c **** 
 692:lp_solve_5.5/colamd/colamd.c **** /* ========================================================================== */
 693:lp_solve_5.5/colamd/colamd.c **** /* === Definitions ========================================================== */
 694:lp_solve_5.5/colamd/colamd.c **** /* ========================================================================== */
 695:lp_solve_5.5/colamd/colamd.c **** 
 696:lp_solve_5.5/colamd/colamd.c **** /* Routines are either PUBLIC (user-callable) or PRIVATE (not user-callable) */
 697:lp_solve_5.5/colamd/colamd.c **** #define PUBLIC
 698:lp_solve_5.5/colamd/colamd.c **** #define PRIVATE static
 699:lp_solve_5.5/colamd/colamd.c **** 
 700:lp_solve_5.5/colamd/colamd.c **** #define MAX(a,b) (((a) > (b)) ? (a) : (b))
 701:lp_solve_5.5/colamd/colamd.c **** #define MIN(a,b) (((a) < (b)) ? (a) : (b))
 702:lp_solve_5.5/colamd/colamd.c **** 
 703:lp_solve_5.5/colamd/colamd.c **** #define ONES_COMPLEMENT(r) (-(r)-1)
 704:lp_solve_5.5/colamd/colamd.c **** 
 705:lp_solve_5.5/colamd/colamd.c **** /* -------------------------------------------------------------------------- */
 706:lp_solve_5.5/colamd/colamd.c **** /* Change for version 2.1:  define TRUE and FALSE only if not yet defined */  
 707:lp_solve_5.5/colamd/colamd.c **** /* -------------------------------------------------------------------------- */
 708:lp_solve_5.5/colamd/colamd.c **** 
 709:lp_solve_5.5/colamd/colamd.c **** #ifndef TRUE
 710:lp_solve_5.5/colamd/colamd.c **** #define TRUE (1)
 711:lp_solve_5.5/colamd/colamd.c **** #endif
 712:lp_solve_5.5/colamd/colamd.c **** 
 713:lp_solve_5.5/colamd/colamd.c **** #ifndef FALSE
 714:lp_solve_5.5/colamd/colamd.c **** #define FALSE (0)
 715:lp_solve_5.5/colamd/colamd.c **** #endif
 716:lp_solve_5.5/colamd/colamd.c **** 
 717:lp_solve_5.5/colamd/colamd.c **** /* -------------------------------------------------------------------------- */
 718:lp_solve_5.5/colamd/colamd.c **** 
 719:lp_solve_5.5/colamd/colamd.c **** #define EMPTY	(-1)
 720:lp_solve_5.5/colamd/colamd.c **** 
 721:lp_solve_5.5/colamd/colamd.c **** /* Row and column status */
 722:lp_solve_5.5/colamd/colamd.c **** #define ALIVE	(0)
 723:lp_solve_5.5/colamd/colamd.c **** #define DEAD	(-1)
 724:lp_solve_5.5/colamd/colamd.c **** 
 725:lp_solve_5.5/colamd/colamd.c **** /* Column status */
 726:lp_solve_5.5/colamd/colamd.c **** #define DEAD_PRINCIPAL		(-1)
 727:lp_solve_5.5/colamd/colamd.c **** #define DEAD_NON_PRINCIPAL	(-2)
 728:lp_solve_5.5/colamd/colamd.c **** 
 729:lp_solve_5.5/colamd/colamd.c **** /* Macros for row and column status update and checking. */
 730:lp_solve_5.5/colamd/colamd.c **** #define ROW_IS_DEAD(r)			ROW_IS_MARKED_DEAD (Row[r].shared2.mark)
 731:lp_solve_5.5/colamd/colamd.c **** #define ROW_IS_MARKED_DEAD(row_mark)	(row_mark < ALIVE)
 732:lp_solve_5.5/colamd/colamd.c **** #define ROW_IS_ALIVE(r)			(Row [r].shared2.mark >= ALIVE)
 733:lp_solve_5.5/colamd/colamd.c **** #define COL_IS_DEAD(c)			(Col [c].start < ALIVE)
 734:lp_solve_5.5/colamd/colamd.c **** #define COL_IS_ALIVE(c)			(Col [c].start >= ALIVE)
 735:lp_solve_5.5/colamd/colamd.c **** #define COL_IS_DEAD_PRINCIPAL(c)	(Col [c].start == DEAD_PRINCIPAL)
 736:lp_solve_5.5/colamd/colamd.c **** #define KILL_ROW(r)			{ Row [r].shared2.mark = DEAD ; }
 737:lp_solve_5.5/colamd/colamd.c **** #define KILL_PRINCIPAL_COL(c)		{ Col [c].start = DEAD_PRINCIPAL ; }
 738:lp_solve_5.5/colamd/colamd.c **** #define KILL_NON_PRINCIPAL_COL(c)	{ Col [c].start = DEAD_NON_PRINCIPAL ; }
 739:lp_solve_5.5/colamd/colamd.c **** 
 740:lp_solve_5.5/colamd/colamd.c **** /* ========================================================================== */
 741:lp_solve_5.5/colamd/colamd.c **** /* === Colamd reporting mechanism =========================================== */
 742:lp_solve_5.5/colamd/colamd.c **** /* ========================================================================== */
 743:lp_solve_5.5/colamd/colamd.c **** 
 744:lp_solve_5.5/colamd/colamd.c **** #ifdef MATLAB_MEX_FILE
 745:lp_solve_5.5/colamd/colamd.c **** 
 746:lp_solve_5.5/colamd/colamd.c **** /* use mexPrintf in a Matlab mexFunction, for debugging and statistics output */
 747:lp_solve_5.5/colamd/colamd.c **** #define PRINTF mexPrintf
 748:lp_solve_5.5/colamd/colamd.c **** 
 749:lp_solve_5.5/colamd/colamd.c **** /* In Matlab, matrices are 1-based to the user, but 0-based internally */
 750:lp_solve_5.5/colamd/colamd.c **** #define INDEX(i) ((i)+1)
 751:lp_solve_5.5/colamd/colamd.c **** 
 752:lp_solve_5.5/colamd/colamd.c **** #else
 753:lp_solve_5.5/colamd/colamd.c **** 
 754:lp_solve_5.5/colamd/colamd.c **** /* Use printf in standard C environment, for debugging and statistics output. */
 755:lp_solve_5.5/colamd/colamd.c **** /* Output is generated only if debugging is enabled at compile time, or if */
 756:lp_solve_5.5/colamd/colamd.c **** /* the caller explicitly calls colamd_report or symamd_report. */
 757:lp_solve_5.5/colamd/colamd.c **** #define PRINTF printf
 758:lp_solve_5.5/colamd/colamd.c **** 
 759:lp_solve_5.5/colamd/colamd.c **** /* In C, matrices are 0-based and indices are reported as such in *_report */
 760:lp_solve_5.5/colamd/colamd.c **** #define INDEX(i) (i)
 761:lp_solve_5.5/colamd/colamd.c **** 
 762:lp_solve_5.5/colamd/colamd.c **** #endif /* MATLAB_MEX_FILE */
 763:lp_solve_5.5/colamd/colamd.c **** 
 764:lp_solve_5.5/colamd/colamd.c **** /* ========================================================================== */
 765:lp_solve_5.5/colamd/colamd.c **** /* === Prototypes of PRIVATE routines ======================================= */
 766:lp_solve_5.5/colamd/colamd.c **** /* ========================================================================== */
 767:lp_solve_5.5/colamd/colamd.c **** 
 768:lp_solve_5.5/colamd/colamd.c **** PRIVATE int init_rows_cols
 769:lp_solve_5.5/colamd/colamd.c **** (
 770:lp_solve_5.5/colamd/colamd.c ****     int n_row,
 771:lp_solve_5.5/colamd/colamd.c ****     int n_col,
 772:lp_solve_5.5/colamd/colamd.c ****     Colamd_Row Row [],
 773:lp_solve_5.5/colamd/colamd.c ****     Colamd_Col Col [],
 774:lp_solve_5.5/colamd/colamd.c ****     int A [],
 775:lp_solve_5.5/colamd/colamd.c ****     int p [],
 776:lp_solve_5.5/colamd/colamd.c ****     int stats [COLAMD_STATS]
 777:lp_solve_5.5/colamd/colamd.c **** ) ;
 778:lp_solve_5.5/colamd/colamd.c **** 
 779:lp_solve_5.5/colamd/colamd.c **** PRIVATE void init_scoring
 780:lp_solve_5.5/colamd/colamd.c **** (
 781:lp_solve_5.5/colamd/colamd.c ****     int n_row,
 782:lp_solve_5.5/colamd/colamd.c ****     int n_col,
 783:lp_solve_5.5/colamd/colamd.c ****     Colamd_Row Row [],
 784:lp_solve_5.5/colamd/colamd.c ****     Colamd_Col Col [],
 785:lp_solve_5.5/colamd/colamd.c ****     int A [],
 786:lp_solve_5.5/colamd/colamd.c ****     int head [],
 787:lp_solve_5.5/colamd/colamd.c ****     double knobs [COLAMD_KNOBS],
 788:lp_solve_5.5/colamd/colamd.c ****     int *p_n_row2,
 789:lp_solve_5.5/colamd/colamd.c ****     int *p_n_col2,
 790:lp_solve_5.5/colamd/colamd.c ****     int *p_max_deg
 791:lp_solve_5.5/colamd/colamd.c **** ) ;
 792:lp_solve_5.5/colamd/colamd.c **** 
 793:lp_solve_5.5/colamd/colamd.c **** PRIVATE int find_ordering
 794:lp_solve_5.5/colamd/colamd.c **** (
 795:lp_solve_5.5/colamd/colamd.c ****     int n_row,
 796:lp_solve_5.5/colamd/colamd.c ****     int n_col,
 797:lp_solve_5.5/colamd/colamd.c ****     int Alen,
 798:lp_solve_5.5/colamd/colamd.c ****     Colamd_Row Row [],
 799:lp_solve_5.5/colamd/colamd.c ****     Colamd_Col Col [],
 800:lp_solve_5.5/colamd/colamd.c ****     int A [],
 801:lp_solve_5.5/colamd/colamd.c ****     int head [],
 802:lp_solve_5.5/colamd/colamd.c ****     int n_col2,
 803:lp_solve_5.5/colamd/colamd.c ****     int max_deg,
 804:lp_solve_5.5/colamd/colamd.c ****     int pfree
 805:lp_solve_5.5/colamd/colamd.c **** ) ;
 806:lp_solve_5.5/colamd/colamd.c **** 
 807:lp_solve_5.5/colamd/colamd.c **** PRIVATE void order_children
 808:lp_solve_5.5/colamd/colamd.c **** (
 809:lp_solve_5.5/colamd/colamd.c ****     int n_col,
 810:lp_solve_5.5/colamd/colamd.c ****     Colamd_Col Col [],
 811:lp_solve_5.5/colamd/colamd.c ****     int p []
 812:lp_solve_5.5/colamd/colamd.c **** ) ;
 813:lp_solve_5.5/colamd/colamd.c **** 
 814:lp_solve_5.5/colamd/colamd.c **** PRIVATE void detect_super_cols
 815:lp_solve_5.5/colamd/colamd.c **** (
 816:lp_solve_5.5/colamd/colamd.c **** 
 817:lp_solve_5.5/colamd/colamd.c **** #ifndef NDEBUG
 818:lp_solve_5.5/colamd/colamd.c ****     int n_col,
 819:lp_solve_5.5/colamd/colamd.c ****     Colamd_Row Row [],
 820:lp_solve_5.5/colamd/colamd.c **** #endif /* NDEBUG */
 821:lp_solve_5.5/colamd/colamd.c **** 
 822:lp_solve_5.5/colamd/colamd.c ****     Colamd_Col Col [],
 823:lp_solve_5.5/colamd/colamd.c ****     int A [],
 824:lp_solve_5.5/colamd/colamd.c ****     int head [],
 825:lp_solve_5.5/colamd/colamd.c ****     int row_start,
 826:lp_solve_5.5/colamd/colamd.c ****     int row_length
 827:lp_solve_5.5/colamd/colamd.c **** ) ;
 828:lp_solve_5.5/colamd/colamd.c **** 
 829:lp_solve_5.5/colamd/colamd.c **** PRIVATE int garbage_collection
 830:lp_solve_5.5/colamd/colamd.c **** (
 831:lp_solve_5.5/colamd/colamd.c ****     int n_row,
 832:lp_solve_5.5/colamd/colamd.c ****     int n_col,
 833:lp_solve_5.5/colamd/colamd.c ****     Colamd_Row Row [],
 834:lp_solve_5.5/colamd/colamd.c ****     Colamd_Col Col [],
 835:lp_solve_5.5/colamd/colamd.c ****     int A [],
 836:lp_solve_5.5/colamd/colamd.c ****     int *pfree
 837:lp_solve_5.5/colamd/colamd.c **** ) ;
 838:lp_solve_5.5/colamd/colamd.c **** 
 839:lp_solve_5.5/colamd/colamd.c **** PRIVATE int clear_mark
 840:lp_solve_5.5/colamd/colamd.c **** (
 841:lp_solve_5.5/colamd/colamd.c ****     int n_row,
 842:lp_solve_5.5/colamd/colamd.c ****     Colamd_Row Row []
 843:lp_solve_5.5/colamd/colamd.c **** ) ;
 844:lp_solve_5.5/colamd/colamd.c **** 
 845:lp_solve_5.5/colamd/colamd.c **** PRIVATE void print_report
 846:lp_solve_5.5/colamd/colamd.c **** (
 847:lp_solve_5.5/colamd/colamd.c ****     char *method,
 848:lp_solve_5.5/colamd/colamd.c ****     int stats [COLAMD_STATS]
 849:lp_solve_5.5/colamd/colamd.c **** ) ;
 850:lp_solve_5.5/colamd/colamd.c **** 
 851:lp_solve_5.5/colamd/colamd.c **** /* ========================================================================== */
 852:lp_solve_5.5/colamd/colamd.c **** /* === Debugging prototypes and definitions ================================= */
 853:lp_solve_5.5/colamd/colamd.c **** /* ========================================================================== */
 854:lp_solve_5.5/colamd/colamd.c **** 
 855:lp_solve_5.5/colamd/colamd.c **** #ifndef NDEBUG
 856:lp_solve_5.5/colamd/colamd.c **** 
 857:lp_solve_5.5/colamd/colamd.c **** /* colamd_debug is the *ONLY* global variable, and is only */
 858:lp_solve_5.5/colamd/colamd.c **** /* present when debugging */
 859:lp_solve_5.5/colamd/colamd.c **** 
 860:lp_solve_5.5/colamd/colamd.c **** PRIVATE int colamd_debug ;	/* debug print level */
 861:lp_solve_5.5/colamd/colamd.c **** 
 862:lp_solve_5.5/colamd/colamd.c **** #define DEBUG0(params) { (void) PRINTF params ; }
 863:lp_solve_5.5/colamd/colamd.c **** #define DEBUG1(params) { if (colamd_debug >= 1) (void) PRINTF params ; }
 864:lp_solve_5.5/colamd/colamd.c **** #define DEBUG2(params) { if (colamd_debug >= 2) (void) PRINTF params ; }
 865:lp_solve_5.5/colamd/colamd.c **** #define DEBUG3(params) { if (colamd_debug >= 3) (void) PRINTF params ; }
 866:lp_solve_5.5/colamd/colamd.c **** #define DEBUG4(params) { if (colamd_debug >= 4) (void) PRINTF params ; }
 867:lp_solve_5.5/colamd/colamd.c **** 
 868:lp_solve_5.5/colamd/colamd.c **** #ifdef MATLAB_MEX_FILE
 869:lp_solve_5.5/colamd/colamd.c **** #define ASSERT(expression) (mxAssert ((expression), ""))
 870:lp_solve_5.5/colamd/colamd.c **** #else
 871:lp_solve_5.5/colamd/colamd.c **** #define ASSERT(expression) (assert (expression))
 872:lp_solve_5.5/colamd/colamd.c **** #endif /* MATLAB_MEX_FILE */
 873:lp_solve_5.5/colamd/colamd.c **** 
 874:lp_solve_5.5/colamd/colamd.c **** PRIVATE void colamd_get_debug	/* gets the debug print level from getenv */
 875:lp_solve_5.5/colamd/colamd.c **** (
 876:lp_solve_5.5/colamd/colamd.c ****     char *method
 877:lp_solve_5.5/colamd/colamd.c **** ) ;
 878:lp_solve_5.5/colamd/colamd.c **** 
 879:lp_solve_5.5/colamd/colamd.c **** PRIVATE void debug_deg_lists
 880:lp_solve_5.5/colamd/colamd.c **** (
 881:lp_solve_5.5/colamd/colamd.c ****     int n_row,
 882:lp_solve_5.5/colamd/colamd.c ****     int n_col,
 883:lp_solve_5.5/colamd/colamd.c ****     Colamd_Row Row [],
 884:lp_solve_5.5/colamd/colamd.c ****     Colamd_Col Col [],
 885:lp_solve_5.5/colamd/colamd.c ****     int head [],
 886:lp_solve_5.5/colamd/colamd.c ****     int min_score,
 887:lp_solve_5.5/colamd/colamd.c ****     int should,
 888:lp_solve_5.5/colamd/colamd.c ****     int max_deg
 889:lp_solve_5.5/colamd/colamd.c **** ) ;
 890:lp_solve_5.5/colamd/colamd.c **** 
 891:lp_solve_5.5/colamd/colamd.c **** PRIVATE void debug_mark
 892:lp_solve_5.5/colamd/colamd.c **** (
 893:lp_solve_5.5/colamd/colamd.c ****     int n_row,
 894:lp_solve_5.5/colamd/colamd.c ****     Colamd_Row Row [],
 895:lp_solve_5.5/colamd/colamd.c ****     int tag_mark,
 896:lp_solve_5.5/colamd/colamd.c ****     int max_mark
 897:lp_solve_5.5/colamd/colamd.c **** ) ;
 898:lp_solve_5.5/colamd/colamd.c **** 
 899:lp_solve_5.5/colamd/colamd.c **** PRIVATE void debug_matrix
 900:lp_solve_5.5/colamd/colamd.c **** (
 901:lp_solve_5.5/colamd/colamd.c ****     int n_row,
 902:lp_solve_5.5/colamd/colamd.c ****     int n_col,
 903:lp_solve_5.5/colamd/colamd.c ****     Colamd_Row Row [],
 904:lp_solve_5.5/colamd/colamd.c ****     Colamd_Col Col [],
 905:lp_solve_5.5/colamd/colamd.c ****     int A []
 906:lp_solve_5.5/colamd/colamd.c **** ) ;
 907:lp_solve_5.5/colamd/colamd.c **** 
 908:lp_solve_5.5/colamd/colamd.c **** PRIVATE void debug_structures
 909:lp_solve_5.5/colamd/colamd.c **** (
 910:lp_solve_5.5/colamd/colamd.c ****     int n_row,
 911:lp_solve_5.5/colamd/colamd.c ****     int n_col,
 912:lp_solve_5.5/colamd/colamd.c ****     Colamd_Row Row [],
 913:lp_solve_5.5/colamd/colamd.c ****     Colamd_Col Col [],
 914:lp_solve_5.5/colamd/colamd.c ****     int A [],
 915:lp_solve_5.5/colamd/colamd.c ****     int n_col2
 916:lp_solve_5.5/colamd/colamd.c **** ) ;
 917:lp_solve_5.5/colamd/colamd.c **** 
 918:lp_solve_5.5/colamd/colamd.c **** #else /* NDEBUG */
 919:lp_solve_5.5/colamd/colamd.c **** 
 920:lp_solve_5.5/colamd/colamd.c **** /* === No debugging ========================================================= */
 921:lp_solve_5.5/colamd/colamd.c **** 
 922:lp_solve_5.5/colamd/colamd.c **** #define DEBUG0(params) ;
 923:lp_solve_5.5/colamd/colamd.c **** #define DEBUG1(params) ;
 924:lp_solve_5.5/colamd/colamd.c **** #define DEBUG2(params) ;
 925:lp_solve_5.5/colamd/colamd.c **** #define DEBUG3(params) ;
 926:lp_solve_5.5/colamd/colamd.c **** #define DEBUG4(params) ;
 927:lp_solve_5.5/colamd/colamd.c **** 
 928:lp_solve_5.5/colamd/colamd.c **** #define ASSERT(expression) ((void) 0)
 929:lp_solve_5.5/colamd/colamd.c **** 
 930:lp_solve_5.5/colamd/colamd.c **** #endif /* NDEBUG */
 931:lp_solve_5.5/colamd/colamd.c **** 
 932:lp_solve_5.5/colamd/colamd.c **** /* ========================================================================== */
 933:lp_solve_5.5/colamd/colamd.c **** 
 934:lp_solve_5.5/colamd/colamd.c **** 
 935:lp_solve_5.5/colamd/colamd.c **** 
 936:lp_solve_5.5/colamd/colamd.c **** /* ========================================================================== */
 937:lp_solve_5.5/colamd/colamd.c **** /* === USER-CALLABLE ROUTINES: ============================================== */
 938:lp_solve_5.5/colamd/colamd.c **** /* ========================================================================== */
 939:lp_solve_5.5/colamd/colamd.c **** 
 940:lp_solve_5.5/colamd/colamd.c **** 
 941:lp_solve_5.5/colamd/colamd.c **** /* ========================================================================== */
 942:lp_solve_5.5/colamd/colamd.c **** /* === colamd_recommended =================================================== */
 943:lp_solve_5.5/colamd/colamd.c **** /* ========================================================================== */
 944:lp_solve_5.5/colamd/colamd.c **** 
 945:lp_solve_5.5/colamd/colamd.c **** /*
 946:lp_solve_5.5/colamd/colamd.c ****     The colamd_recommended routine returns the suggested size for Alen.  This
 947:lp_solve_5.5/colamd/colamd.c ****     value has been determined to provide good balance between the number of
 948:lp_solve_5.5/colamd/colamd.c ****     garbage collections and the memory requirements for colamd.  If any
 949:lp_solve_5.5/colamd/colamd.c ****     argument is negative, a -1 is returned as an error condition.  This
 950:lp_solve_5.5/colamd/colamd.c ****     function is also available as a macro defined in colamd.h, so that you
 951:lp_solve_5.5/colamd/colamd.c ****     can use it for a statically-allocated array size.
 952:lp_solve_5.5/colamd/colamd.c **** */
 953:lp_solve_5.5/colamd/colamd.c **** 
 954:lp_solve_5.5/colamd/colamd.c **** PUBLIC int colamd_recommended	/* returns recommended value of Alen. */
 955:lp_solve_5.5/colamd/colamd.c **** (
 956:lp_solve_5.5/colamd/colamd.c ****     /* === Parameters ======================================================= */
 957:lp_solve_5.5/colamd/colamd.c **** 
 958:lp_solve_5.5/colamd/colamd.c ****     int nnz,			/* number of nonzeros in A */
 959:lp_solve_5.5/colamd/colamd.c ****     int n_row,			/* number of rows in A */
 960:lp_solve_5.5/colamd/colamd.c ****     int n_col			/* number of columns in A */
 961:lp_solve_5.5/colamd/colamd.c **** )
 962:lp_solve_5.5/colamd/colamd.c **** {
  16               		.loc 1 962 0
  17               		.cfi_startproc
  18 0000 CF93      		push r28
  19               	.LCFI0:
  20               		.cfi_def_cfa_offset 3
  21               		.cfi_offset 28, -2
  22 0002 DF93      		push r29
  23               	.LCFI1:
  24               		.cfi_def_cfa_offset 4
  25               		.cfi_offset 29, -3
  26 0004 00D0      		rcall .
  27 0006 00D0      		rcall .
  28 0008 00D0      		rcall .
  29               	.LCFI2:
  30               		.cfi_def_cfa_offset 10
  31 000a CDB7      		in r28,__SP_L__
  32 000c DEB7      		in r29,__SP_H__
  33               	.LCFI3:
  34               		.cfi_def_cfa_register 28
  35               	/* prologue: function */
  36               	/* frame size = 6 */
  37               	/* stack size = 8 */
  38               	.L__stack_usage = 8
  39 000e 9A83      		std Y+2,r25
  40 0010 8983      		std Y+1,r24
  41 0012 7C83      		std Y+4,r23
  42 0014 6B83      		std Y+3,r22
  43 0016 5E83      		std Y+6,r21
  44 0018 4D83      		std Y+5,r20
 963:lp_solve_5.5/colamd/colamd.c ****     return (COLAMD_RECOMMENDED (nnz, n_row, n_col)) ; 
  45               		.loc 1 963 0
  46 001a 8981      		ldd r24,Y+1
  47 001c 9A81      		ldd r25,Y+2
  48 001e 9923      		tst r25
  49 0020 04F0      		brlt .L2
  50               		.loc 1 963 0 is_stmt 0 discriminator 1
  51 0022 8B81      		ldd r24,Y+3
  52 0024 9C81      		ldd r25,Y+4
  53 0026 9923      		tst r25
  54 0028 04F0      		brlt .L2
  55               		.loc 1 963 0 discriminator 3
  56 002a 8D81      		ldd r24,Y+5
  57 002c 9E81      		ldd r25,Y+6
  58 002e 9923      		tst r25
  59 0030 04F0      		brlt .L2
  60               		.loc 1 963 0 discriminator 5
  61 0032 8981      		ldd r24,Y+1
  62 0034 9A81      		ldd r25,Y+2
  63 0036 880F      		lsl r24
  64 0038 991F      		rol r25
  65 003a AC01      		movw r20,r24
  66 003c 8D81      		ldd r24,Y+5
  67 003e 9E81      		ldd r25,Y+6
  68 0040 0196      		adiw r24,1
  69 0042 9C01      		movw r18,r24
  70 0044 C901      		movw r24,r18
  71 0046 880F      		lsl r24
  72 0048 991F      		rol r25
  73 004a 820F      		add r24,r18
  74 004c 931F      		adc r25,r19
  75 004e 880F      		lsl r24
  76 0050 991F      		rol r25
  77 0052 880F      		lsl r24
  78 0054 991F      		rol r25
  79 0056 9695      		lsr r25
  80 0058 8795      		ror r24
  81 005a 9A01      		movw r18,r20
  82 005c 280F      		add r18,r24
  83 005e 391F      		adc r19,r25
  84 0060 8B81      		ldd r24,Y+3
  85 0062 9C81      		ldd r25,Y+4
  86 0064 0196      		adiw r24,1
  87 0066 880F      		lsl r24
  88 0068 991F      		rol r25
  89 006a 880F      		lsl r24
  90 006c 991F      		rol r25
  91 006e 880F      		lsl r24
  92 0070 991F      		rol r25
  93 0072 9695      		lsr r25
  94 0074 8795      		ror r24
  95 0076 280F      		add r18,r24
  96 0078 391F      		adc r19,r25
  97 007a 8D81      		ldd r24,Y+5
  98 007c 9E81      		ldd r25,Y+6
  99 007e 280F      		add r18,r24
 100 0080 391F      		adc r19,r25
 101 0082 8981      		ldd r24,Y+1
 102 0084 9A81      		ldd r25,Y+2
 103 0086 45E0      		ldi r20,lo8(5)
 104 0088 50E0      		ldi r21,0
 105 008a BA01      		movw r22,r20
 106 008c 0E94 0000 		call __divmodhi4
 107 0090 CB01      		movw r24,r22
 108 0092 820F      		add r24,r18
 109 0094 931F      		adc r25,r19
 110 0096 00C0      		rjmp .L3
 111               	.L2:
 112               		.loc 1 963 0 discriminator 6
 113 0098 8FEF      		ldi r24,lo8(-1)
 114 009a 9FEF      		ldi r25,lo8(-1)
 115               	.L3:
 116               	/* epilogue start */
 964:lp_solve_5.5/colamd/colamd.c **** }
 117               		.loc 1 964 0 is_stmt 1 discriminator 8
 118 009c 2696      		adiw r28,6
 119 009e 0FB6      		in __tmp_reg__,__SREG__
 120 00a0 F894      		cli
 121 00a2 DEBF      		out __SP_H__,r29
 122 00a4 0FBE      		out __SREG__,__tmp_reg__
 123 00a6 CDBF      		out __SP_L__,r28
 124 00a8 DF91      		pop r29
 125 00aa CF91      		pop r28
 126 00ac 0895      		ret
 127               		.cfi_endproc
 128               	.LFE5:
 130               	.global	colamd_set_defaults
 132               	colamd_set_defaults:
 133               	.LFB6:
 965:lp_solve_5.5/colamd/colamd.c **** 
 966:lp_solve_5.5/colamd/colamd.c **** 
 967:lp_solve_5.5/colamd/colamd.c **** /* ========================================================================== */
 968:lp_solve_5.5/colamd/colamd.c **** /* === colamd_set_defaults ================================================== */
 969:lp_solve_5.5/colamd/colamd.c **** /* ========================================================================== */
 970:lp_solve_5.5/colamd/colamd.c **** 
 971:lp_solve_5.5/colamd/colamd.c **** /*
 972:lp_solve_5.5/colamd/colamd.c ****     The colamd_set_defaults routine sets the default values of the user-
 973:lp_solve_5.5/colamd/colamd.c ****     controllable parameters for colamd:
 974:lp_solve_5.5/colamd/colamd.c **** 
 975:lp_solve_5.5/colamd/colamd.c **** 	knobs [0]	rows with knobs[0]*n_col entries or more are removed
 976:lp_solve_5.5/colamd/colamd.c **** 			prior to ordering in colamd.  Rows and columns with
 977:lp_solve_5.5/colamd/colamd.c **** 			knobs[0]*n_col entries or more are removed prior to
 978:lp_solve_5.5/colamd/colamd.c **** 			ordering in symamd and placed last in the output
 979:lp_solve_5.5/colamd/colamd.c **** 			ordering.
 980:lp_solve_5.5/colamd/colamd.c **** 
 981:lp_solve_5.5/colamd/colamd.c **** 	knobs [1]	columns with knobs[1]*n_row entries or more are removed
 982:lp_solve_5.5/colamd/colamd.c **** 			prior to ordering in colamd, and placed last in the
 983:lp_solve_5.5/colamd/colamd.c **** 			column permutation.  Symamd ignores this knob.
 984:lp_solve_5.5/colamd/colamd.c **** 
 985:lp_solve_5.5/colamd/colamd.c **** 	knobs [2..19]	unused, but future versions might use this
 986:lp_solve_5.5/colamd/colamd.c **** */
 987:lp_solve_5.5/colamd/colamd.c **** 
 988:lp_solve_5.5/colamd/colamd.c **** PUBLIC void colamd_set_defaults
 989:lp_solve_5.5/colamd/colamd.c **** (
 990:lp_solve_5.5/colamd/colamd.c ****     /* === Parameters ======================================================= */
 991:lp_solve_5.5/colamd/colamd.c **** 
 992:lp_solve_5.5/colamd/colamd.c ****     double knobs [COLAMD_KNOBS]		/* knob array */
 993:lp_solve_5.5/colamd/colamd.c **** )
 994:lp_solve_5.5/colamd/colamd.c **** {
 134               		.loc 1 994 0
 135               		.cfi_startproc
 136 00ae CF93      		push r28
 137               	.LCFI4:
 138               		.cfi_def_cfa_offset 3
 139               		.cfi_offset 28, -2
 140 00b0 DF93      		push r29
 141               	.LCFI5:
 142               		.cfi_def_cfa_offset 4
 143               		.cfi_offset 29, -3
 144 00b2 00D0      		rcall .
 145 00b4 00D0      		rcall .
 146               	.LCFI6:
 147               		.cfi_def_cfa_offset 8
 148 00b6 CDB7      		in r28,__SP_L__
 149 00b8 DEB7      		in r29,__SP_H__
 150               	.LCFI7:
 151               		.cfi_def_cfa_register 28
 152               	/* prologue: function */
 153               	/* frame size = 4 */
 154               	/* stack size = 6 */
 155               	.L__stack_usage = 6
 156 00ba 9C83      		std Y+4,r25
 157 00bc 8B83      		std Y+3,r24
 995:lp_solve_5.5/colamd/colamd.c ****     /* === Local variables ================================================== */
 996:lp_solve_5.5/colamd/colamd.c **** 
 997:lp_solve_5.5/colamd/colamd.c ****     int i ;
 998:lp_solve_5.5/colamd/colamd.c **** 
 999:lp_solve_5.5/colamd/colamd.c ****     if (!knobs)
 158               		.loc 1 999 0
 159 00be 8B81      		ldd r24,Y+3
 160 00c0 9C81      		ldd r25,Y+4
 161 00c2 892B      		or r24,r25
 162 00c4 01F0      		breq .L10
1000:lp_solve_5.5/colamd/colamd.c ****     {
1001:lp_solve_5.5/colamd/colamd.c **** 	return ;			/* no knobs to initialize */
1002:lp_solve_5.5/colamd/colamd.c ****     }
1003:lp_solve_5.5/colamd/colamd.c ****     for (i = 0 ; i < COLAMD_KNOBS ; i++)
 163               		.loc 1 1003 0
 164 00c6 1A82      		std Y+2,__zero_reg__
 165 00c8 1982      		std Y+1,__zero_reg__
 166 00ca 00C0      		rjmp .L8
 167               	.L9:
1004:lp_solve_5.5/colamd/colamd.c ****     {
1005:lp_solve_5.5/colamd/colamd.c **** 	knobs [i] = 0 ;
 168               		.loc 1 1005 0 discriminator 3
 169 00cc 8981      		ldd r24,Y+1
 170 00ce 9A81      		ldd r25,Y+2
 171 00d0 880F      		lsl r24
 172 00d2 991F      		rol r25
 173 00d4 880F      		lsl r24
 174 00d6 991F      		rol r25
 175 00d8 2B81      		ldd r18,Y+3
 176 00da 3C81      		ldd r19,Y+4
 177 00dc 820F      		add r24,r18
 178 00de 931F      		adc r25,r19
 179 00e0 FC01      		movw r30,r24
 180 00e2 1082      		st Z,__zero_reg__
 181 00e4 1182      		std Z+1,__zero_reg__
 182 00e6 1282      		std Z+2,__zero_reg__
 183 00e8 1382      		std Z+3,__zero_reg__
1003:lp_solve_5.5/colamd/colamd.c ****     {
 184               		.loc 1 1003 0 discriminator 3
 185 00ea 8981      		ldd r24,Y+1
 186 00ec 9A81      		ldd r25,Y+2
 187 00ee 0196      		adiw r24,1
 188 00f0 9A83      		std Y+2,r25
 189 00f2 8983      		std Y+1,r24
 190               	.L8:
1003:lp_solve_5.5/colamd/colamd.c ****     {
 191               		.loc 1 1003 0 is_stmt 0 discriminator 1
 192 00f4 8981      		ldd r24,Y+1
 193 00f6 9A81      		ldd r25,Y+2
 194 00f8 4497      		sbiw r24,20
 195 00fa 04F0      		brlt .L9
1006:lp_solve_5.5/colamd/colamd.c ****     }
1007:lp_solve_5.5/colamd/colamd.c ****     knobs [COLAMD_DENSE_ROW] = 0.5 ;	/* ignore rows over 50% dense */
 196               		.loc 1 1007 0 is_stmt 1
 197 00fc 2B81      		ldd r18,Y+3
 198 00fe 3C81      		ldd r19,Y+4
 199 0100 80E0      		ldi r24,0
 200 0102 90E0      		ldi r25,0
 201 0104 A0E0      		ldi r26,0
 202 0106 BFE3      		ldi r27,lo8(63)
 203 0108 F901      		movw r30,r18
 204 010a 8083      		st Z,r24
 205 010c 9183      		std Z+1,r25
 206 010e A283      		std Z+2,r26
 207 0110 B383      		std Z+3,r27
1008:lp_solve_5.5/colamd/colamd.c ****     knobs [COLAMD_DENSE_COL] = 0.5 ;	/* ignore columns over 50% dense */
 208               		.loc 1 1008 0
 209 0112 8B81      		ldd r24,Y+3
 210 0114 9C81      		ldd r25,Y+4
 211 0116 9C01      		movw r18,r24
 212 0118 2C5F      		subi r18,-4
 213 011a 3F4F      		sbci r19,-1
 214 011c 80E0      		ldi r24,0
 215 011e 90E0      		ldi r25,0
 216 0120 A0E0      		ldi r26,0
 217 0122 BFE3      		ldi r27,lo8(63)
 218 0124 F901      		movw r30,r18
 219 0126 8083      		st Z,r24
 220 0128 9183      		std Z+1,r25
 221 012a A283      		std Z+2,r26
 222 012c B383      		std Z+3,r27
 223 012e 00C0      		rjmp .L5
 224               	.L10:
1001:lp_solve_5.5/colamd/colamd.c ****     }
 225               		.loc 1 1001 0
 226 0130 0000      		nop
 227               	.L5:
 228               	/* epilogue start */
1009:lp_solve_5.5/colamd/colamd.c **** }
 229               		.loc 1 1009 0
 230 0132 0F90      		pop __tmp_reg__
 231 0134 0F90      		pop __tmp_reg__
 232 0136 0F90      		pop __tmp_reg__
 233 0138 0F90      		pop __tmp_reg__
 234 013a DF91      		pop r29
 235 013c CF91      		pop r28
 236 013e 0895      		ret
 237               		.cfi_endproc
 238               	.LFE6:
 240               	.global	__floatsisf
 241               	.global	__mulsf3
 242               	.global	__divsf3
 243               	.global	symamd
 245               	symamd:
 246               	.LFB7:
1010:lp_solve_5.5/colamd/colamd.c **** 
1011:lp_solve_5.5/colamd/colamd.c **** 
1012:lp_solve_5.5/colamd/colamd.c **** /* ========================================================================== */
1013:lp_solve_5.5/colamd/colamd.c **** /* === symamd =============================================================== */
1014:lp_solve_5.5/colamd/colamd.c **** /* ========================================================================== */
1015:lp_solve_5.5/colamd/colamd.c **** 
1016:lp_solve_5.5/colamd/colamd.c **** PUBLIC int symamd			/* return TRUE if OK, FALSE otherwise */
1017:lp_solve_5.5/colamd/colamd.c **** (
1018:lp_solve_5.5/colamd/colamd.c ****     /* === Parameters ======================================================= */
1019:lp_solve_5.5/colamd/colamd.c **** 
1020:lp_solve_5.5/colamd/colamd.c ****     int n,				/* number of rows and columns of A */
1021:lp_solve_5.5/colamd/colamd.c ****     int A [],				/* row indices of A */
1022:lp_solve_5.5/colamd/colamd.c ****     int p [],				/* column pointers of A */
1023:lp_solve_5.5/colamd/colamd.c ****     int perm [],			/* output permutation, size n+1 */
1024:lp_solve_5.5/colamd/colamd.c ****     double knobs [COLAMD_KNOBS],	/* parameters (uses defaults if NULL) */
1025:lp_solve_5.5/colamd/colamd.c ****     int stats [COLAMD_STATS],		/* output statistics and error codes */
1026:lp_solve_5.5/colamd/colamd.c ****     void * (*allocate) (size_t, size_t),
1027:lp_solve_5.5/colamd/colamd.c ****     					/* pointer to calloc (ANSI C) or */
1028:lp_solve_5.5/colamd/colamd.c **** 					/* mxCalloc (for Matlab mexFunction) */
1029:lp_solve_5.5/colamd/colamd.c ****     void (*release) (void *)
1030:lp_solve_5.5/colamd/colamd.c ****     					/* pointer to free (ANSI C) or */
1031:lp_solve_5.5/colamd/colamd.c ****     					/* mxFree (for Matlab mexFunction) */
1032:lp_solve_5.5/colamd/colamd.c **** )
1033:lp_solve_5.5/colamd/colamd.c **** {
 247               		.loc 1 1033 0
 248               		.cfi_startproc
 249 0140 AF92      		push r10
 250               	.LCFI8:
 251               		.cfi_def_cfa_offset 3
 252               		.cfi_offset 10, -2
 253 0142 BF92      		push r11
 254               	.LCFI9:
 255               		.cfi_def_cfa_offset 4
 256               		.cfi_offset 11, -3
 257 0144 CF92      		push r12
 258               	.LCFI10:
 259               		.cfi_def_cfa_offset 5
 260               		.cfi_offset 12, -4
 261 0146 DF92      		push r13
 262               	.LCFI11:
 263               		.cfi_def_cfa_offset 6
 264               		.cfi_offset 13, -5
 265 0148 EF92      		push r14
 266               	.LCFI12:
 267               		.cfi_def_cfa_offset 7
 268               		.cfi_offset 14, -6
 269 014a FF92      		push r15
 270               	.LCFI13:
 271               		.cfi_def_cfa_offset 8
 272               		.cfi_offset 15, -7
 273 014c 0F93      		push r16
 274               	.LCFI14:
 275               		.cfi_def_cfa_offset 9
 276               		.cfi_offset 16, -8
 277 014e 1F93      		push r17
 278               	.LCFI15:
 279               		.cfi_def_cfa_offset 10
 280               		.cfi_offset 17, -9
 281 0150 CF93      		push r28
 282               	.LCFI16:
 283               		.cfi_def_cfa_offset 11
 284               		.cfi_offset 28, -10
 285 0152 DF93      		push r29
 286               	.LCFI17:
 287               		.cfi_def_cfa_offset 12
 288               		.cfi_offset 29, -11
 289 0154 CDB7      		in r28,__SP_L__
 290 0156 DEB7      		in r29,__SP_H__
 291               	.LCFI18:
 292               		.cfi_def_cfa_register 28
 293 0158 C45F      		subi r28,-12
 294 015a D109      		sbc r29,__zero_reg__
 295               	.LCFI19:
 296               		.cfi_def_cfa_offset 256
 297 015c 0FB6      		in __tmp_reg__,__SREG__
 298 015e F894      		cli
 299 0160 DEBF      		out __SP_H__,r29
 300 0162 0FBE      		out __SREG__,__tmp_reg__
 301 0164 CDBF      		out __SP_L__,r28
 302               	/* prologue: function */
 303               	/* frame size = 244 */
 304               	/* stack size = 254 */
 305               	.L__stack_usage = 254
 306 0166 FE01      		movw r30,r28
 307 0168 ED51      		subi r30,29
 308 016a FF4F      		sbci r31,-1
 309 016c 9183      		std Z+1,r25
 310 016e 8083      		st Z,r24
 311 0170 CE01      		movw r24,r28
 312 0172 8B51      		subi r24,27
 313 0174 9F4F      		sbci r25,-1
 314 0176 FC01      		movw r30,r24
 315 0178 7183      		std Z+1,r23
 316 017a 6083      		st Z,r22
 317 017c CE01      		movw r24,r28
 318 017e 8951      		subi r24,25
 319 0180 9F4F      		sbci r25,-1
 320 0182 FC01      		movw r30,r24
 321 0184 5183      		std Z+1,r21
 322 0186 4083      		st Z,r20
 323 0188 CE01      		movw r24,r28
 324 018a 8751      		subi r24,23
 325 018c 9F4F      		sbci r25,-1
 326 018e FC01      		movw r30,r24
 327 0190 3183      		std Z+1,r19
 328 0192 2083      		st Z,r18
 329 0194 CE01      		movw r24,r28
 330 0196 8551      		subi r24,21
 331 0198 9F4F      		sbci r25,-1
 332 019a FC01      		movw r30,r24
 333 019c 1183      		std Z+1,r17
 334 019e 0083      		st Z,r16
 335 01a0 CE01      		movw r24,r28
 336 01a2 8351      		subi r24,19
 337 01a4 9F4F      		sbci r25,-1
 338 01a6 FC01      		movw r30,r24
 339 01a8 F182      		std Z+1,r15
 340 01aa E082      		st Z,r14
 341 01ac CE01      		movw r24,r28
 342 01ae 8151      		subi r24,17
 343 01b0 9F4F      		sbci r25,-1
 344 01b2 FC01      		movw r30,r24
 345 01b4 D182      		std Z+1,r13
 346 01b6 C082      		st Z,r12
 347 01b8 CE01      		movw r24,r28
 348 01ba 8F50      		subi r24,15
 349 01bc 9F4F      		sbci r25,-1
 350 01be FC01      		movw r30,r24
 351 01c0 B182      		std Z+1,r11
 352 01c2 A082      		st Z,r10
1034:lp_solve_5.5/colamd/colamd.c ****     /* === Local variables ================================================== */
1035:lp_solve_5.5/colamd/colamd.c **** 
1036:lp_solve_5.5/colamd/colamd.c ****     int *count ;		/* length of each column of M, and col pointer*/
1037:lp_solve_5.5/colamd/colamd.c ****     int *mark ;			/* mark array for finding duplicate entries */
1038:lp_solve_5.5/colamd/colamd.c ****     int *M ;	      /* row indices of matrix M */
1039:lp_solve_5.5/colamd/colamd.c ****     int Mlen ;			/* length of M */
1040:lp_solve_5.5/colamd/colamd.c ****     int n_row ;			/* number of rows in M */
1041:lp_solve_5.5/colamd/colamd.c ****     int nnz ;			/* number of entries in A */
1042:lp_solve_5.5/colamd/colamd.c ****     int i ;			/* row index of A */
1043:lp_solve_5.5/colamd/colamd.c ****     int j ;			/* column index of A */
1044:lp_solve_5.5/colamd/colamd.c ****     int k ;			/* row index of M */ 
1045:lp_solve_5.5/colamd/colamd.c ****     int mnz ;			/* number of nonzeros in M */
1046:lp_solve_5.5/colamd/colamd.c ****     int pp ;			/* index into a column of A */
1047:lp_solve_5.5/colamd/colamd.c ****     int last_row ;		/* last row seen in the current column */
1048:lp_solve_5.5/colamd/colamd.c ****     int length ;		/* number of nonzeros in a column */
1049:lp_solve_5.5/colamd/colamd.c **** 
1050:lp_solve_5.5/colamd/colamd.c ****     double cknobs [COLAMD_KNOBS] ;		/* knobs for colamd */
1051:lp_solve_5.5/colamd/colamd.c ****     double default_knobs [COLAMD_KNOBS] ;	/* default knobs for colamd */
1052:lp_solve_5.5/colamd/colamd.c ****     int cstats [COLAMD_STATS] ;			/* colamd stats */
1053:lp_solve_5.5/colamd/colamd.c **** 
1054:lp_solve_5.5/colamd/colamd.c **** #ifndef NDEBUG
1055:lp_solve_5.5/colamd/colamd.c ****     colamd_get_debug ("symamd") ;
1056:lp_solve_5.5/colamd/colamd.c **** #endif /* NDEBUG */
1057:lp_solve_5.5/colamd/colamd.c **** 
1058:lp_solve_5.5/colamd/colamd.c ****     /* === Check the input arguments ======================================== */
1059:lp_solve_5.5/colamd/colamd.c **** 
1060:lp_solve_5.5/colamd/colamd.c ****     if (!stats)
 353               		.loc 1 1060 0
 354 01c4 CE01      		movw r24,r28
 355 01c6 8351      		subi r24,19
 356 01c8 9F4F      		sbci r25,-1
 357 01ca FC01      		movw r30,r24
 358 01cc 8081      		ld r24,Z
 359 01ce 9181      		ldd r25,Z+1
 360 01d0 892B      		or r24,r25
 361 01d2 01F4      		brne .L12
1061:lp_solve_5.5/colamd/colamd.c ****     {
1062:lp_solve_5.5/colamd/colamd.c **** 	DEBUG0 (("symamd: stats not present\n")) ;
1063:lp_solve_5.5/colamd/colamd.c **** 	return (FALSE) ;
 362               		.loc 1 1063 0
 363 01d4 80E0      		ldi r24,0
 364 01d6 90E0      		ldi r25,0
 365 01d8 00C0      		rjmp .L62
 366               	.L12:
1064:lp_solve_5.5/colamd/colamd.c ****     }
1065:lp_solve_5.5/colamd/colamd.c ****     for (i = 0 ; i < COLAMD_STATS ; i++)
 367               		.loc 1 1065 0
 368 01da 1A82      		std Y+2,__zero_reg__
 369 01dc 1982      		std Y+1,__zero_reg__
 370 01de 00C0      		rjmp .L14
 371               	.L15:
1066:lp_solve_5.5/colamd/colamd.c ****     {
1067:lp_solve_5.5/colamd/colamd.c **** 	stats [i] = 0 ;
 372               		.loc 1 1067 0 discriminator 3
 373 01e0 8981      		ldd r24,Y+1
 374 01e2 9A81      		ldd r25,Y+2
 375 01e4 880F      		lsl r24
 376 01e6 991F      		rol r25
 377 01e8 9E01      		movw r18,r28
 378 01ea 2351      		subi r18,19
 379 01ec 3F4F      		sbci r19,-1
 380 01ee F901      		movw r30,r18
 381 01f0 2081      		ld r18,Z
 382 01f2 3181      		ldd r19,Z+1
 383 01f4 820F      		add r24,r18
 384 01f6 931F      		adc r25,r19
 385 01f8 FC01      		movw r30,r24
 386 01fa 1182      		std Z+1,__zero_reg__
 387 01fc 1082      		st Z,__zero_reg__
1065:lp_solve_5.5/colamd/colamd.c ****     {
 388               		.loc 1 1065 0 discriminator 3
 389 01fe 8981      		ldd r24,Y+1
 390 0200 9A81      		ldd r25,Y+2
 391 0202 0196      		adiw r24,1
 392 0204 9A83      		std Y+2,r25
 393 0206 8983      		std Y+1,r24
 394               	.L14:
1065:lp_solve_5.5/colamd/colamd.c ****     {
 395               		.loc 1 1065 0 is_stmt 0 discriminator 1
 396 0208 8981      		ldd r24,Y+1
 397 020a 9A81      		ldd r25,Y+2
 398 020c 4497      		sbiw r24,20
 399 020e 04F0      		brlt .L15
1068:lp_solve_5.5/colamd/colamd.c ****     }
1069:lp_solve_5.5/colamd/colamd.c ****     stats [COLAMD_STATUS] = COLAMD_OK ;
 400               		.loc 1 1069 0 is_stmt 1
 401 0210 CE01      		movw r24,r28
 402 0212 8351      		subi r24,19
 403 0214 9F4F      		sbci r25,-1
 404 0216 FC01      		movw r30,r24
 405 0218 8081      		ld r24,Z
 406 021a 9181      		ldd r25,Z+1
 407 021c 0696      		adiw r24,6
 408 021e FC01      		movw r30,r24
 409 0220 1182      		std Z+1,__zero_reg__
 410 0222 1082      		st Z,__zero_reg__
1070:lp_solve_5.5/colamd/colamd.c ****     stats [COLAMD_INFO1] = -1 ;
 411               		.loc 1 1070 0
 412 0224 CE01      		movw r24,r28
 413 0226 8351      		subi r24,19
 414 0228 9F4F      		sbci r25,-1
 415 022a FC01      		movw r30,r24
 416 022c 8081      		ld r24,Z
 417 022e 9181      		ldd r25,Z+1
 418 0230 0896      		adiw r24,8
 419 0232 2FEF      		ldi r18,lo8(-1)
 420 0234 3FEF      		ldi r19,lo8(-1)
 421 0236 FC01      		movw r30,r24
 422 0238 3183      		std Z+1,r19
 423 023a 2083      		st Z,r18
1071:lp_solve_5.5/colamd/colamd.c ****     stats [COLAMD_INFO2] = -1 ;
 424               		.loc 1 1071 0
 425 023c CE01      		movw r24,r28
 426 023e 8351      		subi r24,19
 427 0240 9F4F      		sbci r25,-1
 428 0242 FC01      		movw r30,r24
 429 0244 8081      		ld r24,Z
 430 0246 9181      		ldd r25,Z+1
 431 0248 0A96      		adiw r24,10
 432 024a 2FEF      		ldi r18,lo8(-1)
 433 024c 3FEF      		ldi r19,lo8(-1)
 434 024e FC01      		movw r30,r24
 435 0250 3183      		std Z+1,r19
 436 0252 2083      		st Z,r18
1072:lp_solve_5.5/colamd/colamd.c **** 
1073:lp_solve_5.5/colamd/colamd.c ****     if (!A)
 437               		.loc 1 1073 0
 438 0254 CE01      		movw r24,r28
 439 0256 8B51      		subi r24,27
 440 0258 9F4F      		sbci r25,-1
 441 025a FC01      		movw r30,r24
 442 025c 8081      		ld r24,Z
 443 025e 9181      		ldd r25,Z+1
 444 0260 892B      		or r24,r25
 445 0262 01F4      		brne .L16
1074:lp_solve_5.5/colamd/colamd.c ****     {
1075:lp_solve_5.5/colamd/colamd.c ****     	stats [COLAMD_STATUS] = COLAMD_ERROR_A_not_present ;
 446               		.loc 1 1075 0
 447 0264 CE01      		movw r24,r28
 448 0266 8351      		subi r24,19
 449 0268 9F4F      		sbci r25,-1
 450 026a FC01      		movw r30,r24
 451 026c 8081      		ld r24,Z
 452 026e 9181      		ldd r25,Z+1
 453 0270 0696      		adiw r24,6
 454 0272 2FEF      		ldi r18,lo8(-1)
 455 0274 3FEF      		ldi r19,lo8(-1)
 456 0276 FC01      		movw r30,r24
 457 0278 3183      		std Z+1,r19
 458 027a 2083      		st Z,r18
1076:lp_solve_5.5/colamd/colamd.c **** 	DEBUG0 (("symamd: A not present\n")) ;
1077:lp_solve_5.5/colamd/colamd.c **** 	return (FALSE) ;
 459               		.loc 1 1077 0
 460 027c 80E0      		ldi r24,0
 461 027e 90E0      		ldi r25,0
 462 0280 00C0      		rjmp .L62
 463               	.L16:
1078:lp_solve_5.5/colamd/colamd.c ****     }
1079:lp_solve_5.5/colamd/colamd.c **** 
1080:lp_solve_5.5/colamd/colamd.c ****     if (!p)		/* p is not present */
 464               		.loc 1 1080 0
 465 0282 CE01      		movw r24,r28
 466 0284 8951      		subi r24,25
 467 0286 9F4F      		sbci r25,-1
 468 0288 FC01      		movw r30,r24
 469 028a 8081      		ld r24,Z
 470 028c 9181      		ldd r25,Z+1
 471 028e 892B      		or r24,r25
 472 0290 01F4      		brne .L17
1081:lp_solve_5.5/colamd/colamd.c ****     {
1082:lp_solve_5.5/colamd/colamd.c **** 	stats [COLAMD_STATUS] = COLAMD_ERROR_p_not_present ;
 473               		.loc 1 1082 0
 474 0292 CE01      		movw r24,r28
 475 0294 8351      		subi r24,19
 476 0296 9F4F      		sbci r25,-1
 477 0298 FC01      		movw r30,r24
 478 029a 8081      		ld r24,Z
 479 029c 9181      		ldd r25,Z+1
 480 029e 0696      		adiw r24,6
 481 02a0 2EEF      		ldi r18,lo8(-2)
 482 02a2 3FEF      		ldi r19,lo8(-1)
 483 02a4 FC01      		movw r30,r24
 484 02a6 3183      		std Z+1,r19
 485 02a8 2083      		st Z,r18
1083:lp_solve_5.5/colamd/colamd.c **** 	DEBUG0 (("symamd: p not present\n")) ;
1084:lp_solve_5.5/colamd/colamd.c ****     	return (FALSE) ;
 486               		.loc 1 1084 0
 487 02aa 80E0      		ldi r24,0
 488 02ac 90E0      		ldi r25,0
 489 02ae 00C0      		rjmp .L62
 490               	.L17:
1085:lp_solve_5.5/colamd/colamd.c ****     }
1086:lp_solve_5.5/colamd/colamd.c **** 
1087:lp_solve_5.5/colamd/colamd.c ****     if (n < 0)		/* n must be >= 0 */
 491               		.loc 1 1087 0
 492 02b0 CE01      		movw r24,r28
 493 02b2 8D51      		subi r24,29
 494 02b4 9F4F      		sbci r25,-1
 495 02b6 FC01      		movw r30,r24
 496 02b8 8081      		ld r24,Z
 497 02ba 9181      		ldd r25,Z+1
 498 02bc 9923      		tst r25
 499 02be 04F4      		brge .L18
1088:lp_solve_5.5/colamd/colamd.c ****     {
1089:lp_solve_5.5/colamd/colamd.c **** 	stats [COLAMD_STATUS] = COLAMD_ERROR_ncol_negative ;
 500               		.loc 1 1089 0
 501 02c0 CE01      		movw r24,r28
 502 02c2 8351      		subi r24,19
 503 02c4 9F4F      		sbci r25,-1
 504 02c6 FC01      		movw r30,r24
 505 02c8 8081      		ld r24,Z
 506 02ca 9181      		ldd r25,Z+1
 507 02cc 0696      		adiw r24,6
 508 02ce 2CEF      		ldi r18,lo8(-4)
 509 02d0 3FEF      		ldi r19,lo8(-1)
 510 02d2 FC01      		movw r30,r24
 511 02d4 3183      		std Z+1,r19
 512 02d6 2083      		st Z,r18
1090:lp_solve_5.5/colamd/colamd.c **** 	stats [COLAMD_INFO1] = n ;
 513               		.loc 1 1090 0
 514 02d8 CE01      		movw r24,r28
 515 02da 8351      		subi r24,19
 516 02dc 9F4F      		sbci r25,-1
 517 02de FC01      		movw r30,r24
 518 02e0 8081      		ld r24,Z
 519 02e2 9181      		ldd r25,Z+1
 520 02e4 0896      		adiw r24,8
 521 02e6 9E01      		movw r18,r28
 522 02e8 2D51      		subi r18,29
 523 02ea 3F4F      		sbci r19,-1
 524 02ec F901      		movw r30,r18
 525 02ee 2081      		ld r18,Z
 526 02f0 3181      		ldd r19,Z+1
 527 02f2 FC01      		movw r30,r24
 528 02f4 3183      		std Z+1,r19
 529 02f6 2083      		st Z,r18
1091:lp_solve_5.5/colamd/colamd.c **** 	DEBUG0 (("symamd: n negative %d\n", n)) ;
1092:lp_solve_5.5/colamd/colamd.c ****     	return (FALSE) ;
 530               		.loc 1 1092 0
 531 02f8 80E0      		ldi r24,0
 532 02fa 90E0      		ldi r25,0
 533 02fc 00C0      		rjmp .L62
 534               	.L18:
1093:lp_solve_5.5/colamd/colamd.c ****     }
1094:lp_solve_5.5/colamd/colamd.c **** 
1095:lp_solve_5.5/colamd/colamd.c ****     nnz = p [n] ;
 535               		.loc 1 1095 0
 536 02fe CE01      		movw r24,r28
 537 0300 8D51      		subi r24,29
 538 0302 9F4F      		sbci r25,-1
 539 0304 FC01      		movw r30,r24
 540 0306 8081      		ld r24,Z
 541 0308 9181      		ldd r25,Z+1
 542 030a 880F      		lsl r24
 543 030c 991F      		rol r25
 544 030e 9E01      		movw r18,r28
 545 0310 2951      		subi r18,25
 546 0312 3F4F      		sbci r19,-1
 547 0314 F901      		movw r30,r18
 548 0316 2081      		ld r18,Z
 549 0318 3181      		ldd r19,Z+1
 550 031a 820F      		add r24,r18
 551 031c 931F      		adc r25,r19
 552 031e FC01      		movw r30,r24
 553 0320 8081      		ld r24,Z
 554 0322 9181      		ldd r25,Z+1
 555 0324 9C87      		std Y+12,r25
 556 0326 8B87      		std Y+11,r24
1096:lp_solve_5.5/colamd/colamd.c ****     if (nnz < 0)	/* nnz must be >= 0 */
 557               		.loc 1 1096 0
 558 0328 8B85      		ldd r24,Y+11
 559 032a 9C85      		ldd r25,Y+12
 560 032c 9923      		tst r25
 561 032e 04F4      		brge .L19
1097:lp_solve_5.5/colamd/colamd.c ****     {
1098:lp_solve_5.5/colamd/colamd.c **** 	stats [COLAMD_STATUS] = COLAMD_ERROR_nnz_negative ;
 562               		.loc 1 1098 0
 563 0330 CE01      		movw r24,r28
 564 0332 8351      		subi r24,19
 565 0334 9F4F      		sbci r25,-1
 566 0336 FC01      		movw r30,r24
 567 0338 8081      		ld r24,Z
 568 033a 9181      		ldd r25,Z+1
 569 033c 0696      		adiw r24,6
 570 033e 2BEF      		ldi r18,lo8(-5)
 571 0340 3FEF      		ldi r19,lo8(-1)
 572 0342 FC01      		movw r30,r24
 573 0344 3183      		std Z+1,r19
 574 0346 2083      		st Z,r18
1099:lp_solve_5.5/colamd/colamd.c **** 	stats [COLAMD_INFO1] = nnz ;
 575               		.loc 1 1099 0
 576 0348 CE01      		movw r24,r28
 577 034a 8351      		subi r24,19
 578 034c 9F4F      		sbci r25,-1
 579 034e FC01      		movw r30,r24
 580 0350 8081      		ld r24,Z
 581 0352 9181      		ldd r25,Z+1
 582 0354 0896      		adiw r24,8
 583 0356 2B85      		ldd r18,Y+11
 584 0358 3C85      		ldd r19,Y+12
 585 035a FC01      		movw r30,r24
 586 035c 3183      		std Z+1,r19
 587 035e 2083      		st Z,r18
1100:lp_solve_5.5/colamd/colamd.c **** 	DEBUG0 (("symamd: number of entries negative %d\n", nnz)) ;
1101:lp_solve_5.5/colamd/colamd.c **** 	return (FALSE) ;
 588               		.loc 1 1101 0
 589 0360 80E0      		ldi r24,0
 590 0362 90E0      		ldi r25,0
 591 0364 00C0      		rjmp .L62
 592               	.L19:
1102:lp_solve_5.5/colamd/colamd.c ****     }
1103:lp_solve_5.5/colamd/colamd.c **** 
1104:lp_solve_5.5/colamd/colamd.c ****     if (p [0] != 0)
 593               		.loc 1 1104 0
 594 0366 CE01      		movw r24,r28
 595 0368 8951      		subi r24,25
 596 036a 9F4F      		sbci r25,-1
 597 036c FC01      		movw r30,r24
 598 036e 8081      		ld r24,Z
 599 0370 9181      		ldd r25,Z+1
 600 0372 FC01      		movw r30,r24
 601 0374 8081      		ld r24,Z
 602 0376 9181      		ldd r25,Z+1
 603 0378 892B      		or r24,r25
 604 037a 01F0      		breq .L20
1105:lp_solve_5.5/colamd/colamd.c ****     {
1106:lp_solve_5.5/colamd/colamd.c **** 	stats [COLAMD_STATUS] = COLAMD_ERROR_p0_nonzero ;
 605               		.loc 1 1106 0
 606 037c CE01      		movw r24,r28
 607 037e 8351      		subi r24,19
 608 0380 9F4F      		sbci r25,-1
 609 0382 FC01      		movw r30,r24
 610 0384 8081      		ld r24,Z
 611 0386 9181      		ldd r25,Z+1
 612 0388 0696      		adiw r24,6
 613 038a 2AEF      		ldi r18,lo8(-6)
 614 038c 3FEF      		ldi r19,lo8(-1)
 615 038e FC01      		movw r30,r24
 616 0390 3183      		std Z+1,r19
 617 0392 2083      		st Z,r18
1107:lp_solve_5.5/colamd/colamd.c **** 	stats [COLAMD_INFO1] = p [0] ;
 618               		.loc 1 1107 0
 619 0394 CE01      		movw r24,r28
 620 0396 8351      		subi r24,19
 621 0398 9F4F      		sbci r25,-1
 622 039a FC01      		movw r30,r24
 623 039c 8081      		ld r24,Z
 624 039e 9181      		ldd r25,Z+1
 625 03a0 0896      		adiw r24,8
 626 03a2 9E01      		movw r18,r28
 627 03a4 2951      		subi r18,25
 628 03a6 3F4F      		sbci r19,-1
 629 03a8 F901      		movw r30,r18
 630 03aa 2081      		ld r18,Z
 631 03ac 3181      		ldd r19,Z+1
 632 03ae F901      		movw r30,r18
 633 03b0 2081      		ld r18,Z
 634 03b2 3181      		ldd r19,Z+1
 635 03b4 FC01      		movw r30,r24
 636 03b6 3183      		std Z+1,r19
 637 03b8 2083      		st Z,r18
1108:lp_solve_5.5/colamd/colamd.c **** 	DEBUG0 (("symamd: p[0] not zero %d\n", p [0])) ;
1109:lp_solve_5.5/colamd/colamd.c **** 	return (FALSE) ;
 638               		.loc 1 1109 0
 639 03ba 80E0      		ldi r24,0
 640 03bc 90E0      		ldi r25,0
 641 03be 00C0      		rjmp .L62
 642               	.L20:
1110:lp_solve_5.5/colamd/colamd.c ****     }
1111:lp_solve_5.5/colamd/colamd.c **** 
1112:lp_solve_5.5/colamd/colamd.c ****     /* === If no knobs, set default knobs =================================== */
1113:lp_solve_5.5/colamd/colamd.c **** 
1114:lp_solve_5.5/colamd/colamd.c ****     if (!knobs)
 643               		.loc 1 1114 0
 644 03c0 CE01      		movw r24,r28
 645 03c2 8551      		subi r24,21
 646 03c4 9F4F      		sbci r25,-1
 647 03c6 FC01      		movw r30,r24
 648 03c8 8081      		ld r24,Z
 649 03ca 9181      		ldd r25,Z+1
 650 03cc 892B      		or r24,r25
 651 03ce 01F4      		brne .L21
1115:lp_solve_5.5/colamd/colamd.c ****     {
1116:lp_solve_5.5/colamd/colamd.c **** 	colamd_set_defaults (default_knobs) ;
 652               		.loc 1 1116 0
 653 03d0 CE01      		movw r24,r28
 654 03d2 8559      		subi r24,-107
 655 03d4 9F4F      		sbci r25,-1
 656 03d6 0E94 0000 		call colamd_set_defaults
1117:lp_solve_5.5/colamd/colamd.c **** 	knobs = default_knobs ;
 657               		.loc 1 1117 0
 658 03da CE01      		movw r24,r28
 659 03dc 8551      		subi r24,21
 660 03de 9F4F      		sbci r25,-1
 661 03e0 9E01      		movw r18,r28
 662 03e2 2559      		subi r18,-107
 663 03e4 3F4F      		sbci r19,-1
 664 03e6 FC01      		movw r30,r24
 665 03e8 3183      		std Z+1,r19
 666 03ea 2083      		st Z,r18
 667               	.L21:
1118:lp_solve_5.5/colamd/colamd.c ****     }
1119:lp_solve_5.5/colamd/colamd.c **** 
1120:lp_solve_5.5/colamd/colamd.c ****     /* === Allocate count and mark ========================================== */
1121:lp_solve_5.5/colamd/colamd.c **** 
1122:lp_solve_5.5/colamd/colamd.c ****     count = (int *) ((*allocate) (n+1, sizeof (int))) ;
 668               		.loc 1 1122 0
 669 03ec CE01      		movw r24,r28
 670 03ee 8D51      		subi r24,29
 671 03f0 9F4F      		sbci r25,-1
 672 03f2 FC01      		movw r30,r24
 673 03f4 8081      		ld r24,Z
 674 03f6 9181      		ldd r25,Z+1
 675 03f8 0196      		adiw r24,1
 676 03fa AC01      		movw r20,r24
 677 03fc CE01      		movw r24,r28
 678 03fe 8151      		subi r24,17
 679 0400 9F4F      		sbci r25,-1
 680 0402 FC01      		movw r30,r24
 681 0404 2081      		ld r18,Z
 682 0406 3181      		ldd r19,Z+1
 683 0408 62E0      		ldi r22,lo8(2)
 684 040a 70E0      		ldi r23,0
 685 040c CA01      		movw r24,r20
 686 040e F901      		movw r30,r18
 687 0410 0995      		icall
 688 0412 9E87      		std Y+14,r25
 689 0414 8D87      		std Y+13,r24
1123:lp_solve_5.5/colamd/colamd.c ****     if (!count)
 690               		.loc 1 1123 0
 691 0416 8D85      		ldd r24,Y+13
 692 0418 9E85      		ldd r25,Y+14
 693 041a 892B      		or r24,r25
 694 041c 01F4      		brne .L22
1124:lp_solve_5.5/colamd/colamd.c ****     {
1125:lp_solve_5.5/colamd/colamd.c **** 	stats [COLAMD_STATUS] = COLAMD_ERROR_out_of_memory ;
 695               		.loc 1 1125 0
 696 041e CE01      		movw r24,r28
 697 0420 8351      		subi r24,19
 698 0422 9F4F      		sbci r25,-1
 699 0424 FC01      		movw r30,r24
 700 0426 8081      		ld r24,Z
 701 0428 9181      		ldd r25,Z+1
 702 042a 0696      		adiw r24,6
 703 042c 26EF      		ldi r18,lo8(-10)
 704 042e 3FEF      		ldi r19,lo8(-1)
 705 0430 FC01      		movw r30,r24
 706 0432 3183      		std Z+1,r19
 707 0434 2083      		st Z,r18
1126:lp_solve_5.5/colamd/colamd.c **** 	DEBUG0 (("symamd: allocate count (size %d) failed\n", n+1)) ;
1127:lp_solve_5.5/colamd/colamd.c **** 	return (FALSE) ;
 708               		.loc 1 1127 0
 709 0436 80E0      		ldi r24,0
 710 0438 90E0      		ldi r25,0
 711 043a 00C0      		rjmp .L62
 712               	.L22:
1128:lp_solve_5.5/colamd/colamd.c ****     }
1129:lp_solve_5.5/colamd/colamd.c **** 
1130:lp_solve_5.5/colamd/colamd.c ****     mark = (int *) ((*allocate) (n+1, sizeof (int))) ;
 713               		.loc 1 1130 0
 714 043c CE01      		movw r24,r28
 715 043e 8D51      		subi r24,29
 716 0440 9F4F      		sbci r25,-1
 717 0442 FC01      		movw r30,r24
 718 0444 8081      		ld r24,Z
 719 0446 9181      		ldd r25,Z+1
 720 0448 0196      		adiw r24,1
 721 044a AC01      		movw r20,r24
 722 044c CE01      		movw r24,r28
 723 044e 8151      		subi r24,17
 724 0450 9F4F      		sbci r25,-1
 725 0452 FC01      		movw r30,r24
 726 0454 2081      		ld r18,Z
 727 0456 3181      		ldd r19,Z+1
 728 0458 62E0      		ldi r22,lo8(2)
 729 045a 70E0      		ldi r23,0
 730 045c CA01      		movw r24,r20
 731 045e F901      		movw r30,r18
 732 0460 0995      		icall
 733 0462 988B      		std Y+16,r25
 734 0464 8F87      		std Y+15,r24
1131:lp_solve_5.5/colamd/colamd.c ****     if (!mark)
 735               		.loc 1 1131 0
 736 0466 8F85      		ldd r24,Y+15
 737 0468 9889      		ldd r25,Y+16
 738 046a 892B      		or r24,r25
 739 046c 01F4      		brne .L23
1132:lp_solve_5.5/colamd/colamd.c ****     {
1133:lp_solve_5.5/colamd/colamd.c **** 	stats [COLAMD_STATUS] = COLAMD_ERROR_out_of_memory ;
 740               		.loc 1 1133 0
 741 046e CE01      		movw r24,r28
 742 0470 8351      		subi r24,19
 743 0472 9F4F      		sbci r25,-1
 744 0474 FC01      		movw r30,r24
 745 0476 8081      		ld r24,Z
 746 0478 9181      		ldd r25,Z+1
 747 047a 0696      		adiw r24,6
 748 047c 26EF      		ldi r18,lo8(-10)
 749 047e 3FEF      		ldi r19,lo8(-1)
 750 0480 FC01      		movw r30,r24
 751 0482 3183      		std Z+1,r19
 752 0484 2083      		st Z,r18
1134:lp_solve_5.5/colamd/colamd.c **** 	(*release) ((void *) count) ;
 753               		.loc 1 1134 0
 754 0486 4D85      		ldd r20,Y+13
 755 0488 5E85      		ldd r21,Y+14
 756 048a CE01      		movw r24,r28
 757 048c 8F50      		subi r24,15
 758 048e 9F4F      		sbci r25,-1
 759 0490 FC01      		movw r30,r24
 760 0492 2081      		ld r18,Z
 761 0494 3181      		ldd r19,Z+1
 762 0496 CA01      		movw r24,r20
 763 0498 F901      		movw r30,r18
 764 049a 0995      		icall
1135:lp_solve_5.5/colamd/colamd.c **** 	DEBUG0 (("symamd: allocate mark (size %d) failed\n", n+1)) ;
1136:lp_solve_5.5/colamd/colamd.c **** 	return (FALSE) ;
 765               		.loc 1 1136 0
 766 049c 80E0      		ldi r24,0
 767 049e 90E0      		ldi r25,0
 768 04a0 00C0      		rjmp .L62
 769               	.L23:
1137:lp_solve_5.5/colamd/colamd.c ****     }
1138:lp_solve_5.5/colamd/colamd.c **** 
1139:lp_solve_5.5/colamd/colamd.c ****     /* === Compute column counts of M, check if A is valid ================== */
1140:lp_solve_5.5/colamd/colamd.c **** 
1141:lp_solve_5.5/colamd/colamd.c ****     stats [COLAMD_INFO3] = 0 ;  /* number of duplicate or unsorted row indices*/
 770               		.loc 1 1141 0
 771 04a2 CE01      		movw r24,r28
 772 04a4 8351      		subi r24,19
 773 04a6 9F4F      		sbci r25,-1
 774 04a8 FC01      		movw r30,r24
 775 04aa 8081      		ld r24,Z
 776 04ac 9181      		ldd r25,Z+1
 777 04ae 0C96      		adiw r24,12
 778 04b0 FC01      		movw r30,r24
 779 04b2 1182      		std Z+1,__zero_reg__
 780 04b4 1082      		st Z,__zero_reg__
1142:lp_solve_5.5/colamd/colamd.c **** 
1143:lp_solve_5.5/colamd/colamd.c ****     for (i = 0 ; i < n ; i++)
 781               		.loc 1 1143 0
 782 04b6 1A82      		std Y+2,__zero_reg__
 783 04b8 1982      		std Y+1,__zero_reg__
 784 04ba 00C0      		rjmp .L24
 785               	.L25:
1144:lp_solve_5.5/colamd/colamd.c ****     {
1145:lp_solve_5.5/colamd/colamd.c ****     	mark [i] = -1 ;
 786               		.loc 1 1145 0 discriminator 3
 787 04bc 8981      		ldd r24,Y+1
 788 04be 9A81      		ldd r25,Y+2
 789 04c0 880F      		lsl r24
 790 04c2 991F      		rol r25
 791 04c4 2F85      		ldd r18,Y+15
 792 04c6 3889      		ldd r19,Y+16
 793 04c8 820F      		add r24,r18
 794 04ca 931F      		adc r25,r19
 795 04cc 2FEF      		ldi r18,lo8(-1)
 796 04ce 3FEF      		ldi r19,lo8(-1)
 797 04d0 FC01      		movw r30,r24
 798 04d2 3183      		std Z+1,r19
 799 04d4 2083      		st Z,r18
1143:lp_solve_5.5/colamd/colamd.c ****     {
 800               		.loc 1 1143 0 discriminator 3
 801 04d6 8981      		ldd r24,Y+1
 802 04d8 9A81      		ldd r25,Y+2
 803 04da 0196      		adiw r24,1
 804 04dc 9A83      		std Y+2,r25
 805 04de 8983      		std Y+1,r24
 806               	.L24:
1143:lp_solve_5.5/colamd/colamd.c ****     {
 807               		.loc 1 1143 0 is_stmt 0 discriminator 1
 808 04e0 CE01      		movw r24,r28
 809 04e2 8D51      		subi r24,29
 810 04e4 9F4F      		sbci r25,-1
 811 04e6 2981      		ldd r18,Y+1
 812 04e8 3A81      		ldd r19,Y+2
 813 04ea FC01      		movw r30,r24
 814 04ec 8081      		ld r24,Z
 815 04ee 9181      		ldd r25,Z+1
 816 04f0 2817      		cp r18,r24
 817 04f2 3907      		cpc r19,r25
 818 04f4 04F0      		brlt .L25
1146:lp_solve_5.5/colamd/colamd.c ****     }
1147:lp_solve_5.5/colamd/colamd.c **** 
1148:lp_solve_5.5/colamd/colamd.c ****     for (j = 0 ; j < n ; j++)
 819               		.loc 1 1148 0 is_stmt 1
 820 04f6 1C82      		std Y+4,__zero_reg__
 821 04f8 1B82      		std Y+3,__zero_reg__
 822 04fa 00C0      		rjmp .L26
 823               	.L35:
1149:lp_solve_5.5/colamd/colamd.c ****     {
1150:lp_solve_5.5/colamd/colamd.c **** 	last_row = -1 ;
 824               		.loc 1 1150 0
 825 04fc 8FEF      		ldi r24,lo8(-1)
 826 04fe 9FEF      		ldi r25,lo8(-1)
 827 0500 9A87      		std Y+10,r25
 828 0502 8987      		std Y+9,r24
1151:lp_solve_5.5/colamd/colamd.c **** 
1152:lp_solve_5.5/colamd/colamd.c **** 	length = p [j+1] - p [j] ;
 829               		.loc 1 1152 0
 830 0504 8B81      		ldd r24,Y+3
 831 0506 9C81      		ldd r25,Y+4
 832 0508 0196      		adiw r24,1
 833 050a 880F      		lsl r24
 834 050c 991F      		rol r25
 835 050e 9E01      		movw r18,r28
 836 0510 2951      		subi r18,25
 837 0512 3F4F      		sbci r19,-1
 838 0514 F901      		movw r30,r18
 839 0516 2081      		ld r18,Z
 840 0518 3181      		ldd r19,Z+1
 841 051a 820F      		add r24,r18
 842 051c 931F      		adc r25,r19
 843 051e FC01      		movw r30,r24
 844 0520 2081      		ld r18,Z
 845 0522 3181      		ldd r19,Z+1
 846 0524 8B81      		ldd r24,Y+3
 847 0526 9C81      		ldd r25,Y+4
 848 0528 880F      		lsl r24
 849 052a 991F      		rol r25
 850 052c AE01      		movw r20,r28
 851 052e 4951      		subi r20,25
 852 0530 5F4F      		sbci r21,-1
 853 0532 FA01      		movw r30,r20
 854 0534 4081      		ld r20,Z
 855 0536 5181      		ldd r21,Z+1
 856 0538 840F      		add r24,r20
 857 053a 951F      		adc r25,r21
 858 053c FC01      		movw r30,r24
 859 053e 8081      		ld r24,Z
 860 0540 9181      		ldd r25,Z+1
 861 0542 A901      		movw r20,r18
 862 0544 481B      		sub r20,r24
 863 0546 590B      		sbc r21,r25
 864 0548 CA01      		movw r24,r20
 865 054a 9A8B      		std Y+18,r25
 866 054c 898B      		std Y+17,r24
1153:lp_solve_5.5/colamd/colamd.c **** 	if (length < 0)
 867               		.loc 1 1153 0
 868 054e 8989      		ldd r24,Y+17
 869 0550 9A89      		ldd r25,Y+18
 870 0552 9923      		tst r25
 871 0554 04F4      		brge .L27
1154:lp_solve_5.5/colamd/colamd.c **** 	{
1155:lp_solve_5.5/colamd/colamd.c **** 	    /* column pointers must be non-decreasing */
1156:lp_solve_5.5/colamd/colamd.c **** 	    stats [COLAMD_STATUS] = COLAMD_ERROR_col_length_negative ;
 872               		.loc 1 1156 0
 873 0556 CE01      		movw r24,r28
 874 0558 8351      		subi r24,19
 875 055a 9F4F      		sbci r25,-1
 876 055c FC01      		movw r30,r24
 877 055e 8081      		ld r24,Z
 878 0560 9181      		ldd r25,Z+1
 879 0562 0696      		adiw r24,6
 880 0564 28EF      		ldi r18,lo8(-8)
 881 0566 3FEF      		ldi r19,lo8(-1)
 882 0568 FC01      		movw r30,r24
 883 056a 3183      		std Z+1,r19
 884 056c 2083      		st Z,r18
1157:lp_solve_5.5/colamd/colamd.c **** 	    stats [COLAMD_INFO1] = j ;
 885               		.loc 1 1157 0
 886 056e CE01      		movw r24,r28
 887 0570 8351      		subi r24,19
 888 0572 9F4F      		sbci r25,-1
 889 0574 FC01      		movw r30,r24
 890 0576 8081      		ld r24,Z
 891 0578 9181      		ldd r25,Z+1
 892 057a 0896      		adiw r24,8
 893 057c 2B81      		ldd r18,Y+3
 894 057e 3C81      		ldd r19,Y+4
 895 0580 FC01      		movw r30,r24
 896 0582 3183      		std Z+1,r19
 897 0584 2083      		st Z,r18
1158:lp_solve_5.5/colamd/colamd.c **** 	    stats [COLAMD_INFO2] = length ;
 898               		.loc 1 1158 0
 899 0586 CE01      		movw r24,r28
 900 0588 8351      		subi r24,19
 901 058a 9F4F      		sbci r25,-1
 902 058c FC01      		movw r30,r24
 903 058e 8081      		ld r24,Z
 904 0590 9181      		ldd r25,Z+1
 905 0592 0A96      		adiw r24,10
 906 0594 2989      		ldd r18,Y+17
 907 0596 3A89      		ldd r19,Y+18
 908 0598 FC01      		movw r30,r24
 909 059a 3183      		std Z+1,r19
 910 059c 2083      		st Z,r18
1159:lp_solve_5.5/colamd/colamd.c **** 	    (*release) ((void *) count) ;
 911               		.loc 1 1159 0
 912 059e 4D85      		ldd r20,Y+13
 913 05a0 5E85      		ldd r21,Y+14
 914 05a2 CE01      		movw r24,r28
 915 05a4 8F50      		subi r24,15
 916 05a6 9F4F      		sbci r25,-1
 917 05a8 FC01      		movw r30,r24
 918 05aa 2081      		ld r18,Z
 919 05ac 3181      		ldd r19,Z+1
 920 05ae CA01      		movw r24,r20
 921 05b0 F901      		movw r30,r18
 922 05b2 0995      		icall
1160:lp_solve_5.5/colamd/colamd.c **** 	    (*release) ((void *) mark) ;
 923               		.loc 1 1160 0
 924 05b4 4F85      		ldd r20,Y+15
 925 05b6 5889      		ldd r21,Y+16
 926 05b8 CE01      		movw r24,r28
 927 05ba 8F50      		subi r24,15
 928 05bc 9F4F      		sbci r25,-1
 929 05be FC01      		movw r30,r24
 930 05c0 2081      		ld r18,Z
 931 05c2 3181      		ldd r19,Z+1
 932 05c4 CA01      		movw r24,r20
 933 05c6 F901      		movw r30,r18
 934 05c8 0995      		icall
1161:lp_solve_5.5/colamd/colamd.c **** 	    DEBUG0 (("symamd: col %d negative length %d\n", j, length)) ;
1162:lp_solve_5.5/colamd/colamd.c **** 	    return (FALSE) ;
 935               		.loc 1 1162 0
 936 05ca 80E0      		ldi r24,0
 937 05cc 90E0      		ldi r25,0
 938 05ce 00C0      		rjmp .L62
 939               	.L27:
1163:lp_solve_5.5/colamd/colamd.c **** 	}
1164:lp_solve_5.5/colamd/colamd.c **** 
1165:lp_solve_5.5/colamd/colamd.c **** 	for (pp = p [j] ; pp < p [j+1] ; pp++)
 940               		.loc 1 1165 0
 941 05d0 8B81      		ldd r24,Y+3
 942 05d2 9C81      		ldd r25,Y+4
 943 05d4 880F      		lsl r24
 944 05d6 991F      		rol r25
 945 05d8 9E01      		movw r18,r28
 946 05da 2951      		subi r18,25
 947 05dc 3F4F      		sbci r19,-1
 948 05de F901      		movw r30,r18
 949 05e0 2081      		ld r18,Z
 950 05e2 3181      		ldd r19,Z+1
 951 05e4 820F      		add r24,r18
 952 05e6 931F      		adc r25,r19
 953 05e8 FC01      		movw r30,r24
 954 05ea 8081      		ld r24,Z
 955 05ec 9181      		ldd r25,Z+1
 956 05ee 9887      		std Y+8,r25
 957 05f0 8F83      		std Y+7,r24
 958 05f2 00C0      		rjmp .L28
 959               	.L34:
1166:lp_solve_5.5/colamd/colamd.c **** 	{
1167:lp_solve_5.5/colamd/colamd.c **** 	    i = A [pp] ;
 960               		.loc 1 1167 0
 961 05f4 8F81      		ldd r24,Y+7
 962 05f6 9885      		ldd r25,Y+8
 963 05f8 880F      		lsl r24
 964 05fa 991F      		rol r25
 965 05fc 9E01      		movw r18,r28
 966 05fe 2B51      		subi r18,27
 967 0600 3F4F      		sbci r19,-1
 968 0602 F901      		movw r30,r18
 969 0604 2081      		ld r18,Z
 970 0606 3181      		ldd r19,Z+1
 971 0608 820F      		add r24,r18
 972 060a 931F      		adc r25,r19
 973 060c FC01      		movw r30,r24
 974 060e 8081      		ld r24,Z
 975 0610 9181      		ldd r25,Z+1
 976 0612 9A83      		std Y+2,r25
 977 0614 8983      		std Y+1,r24
1168:lp_solve_5.5/colamd/colamd.c **** 	    if (i < 0 || i >= n)
 978               		.loc 1 1168 0
 979 0616 8981      		ldd r24,Y+1
 980 0618 9A81      		ldd r25,Y+2
 981 061a 9923      		tst r25
 982 061c 04F0      		brlt .L29
 983               		.loc 1 1168 0 is_stmt 0 discriminator 1
 984 061e CE01      		movw r24,r28
 985 0620 8D51      		subi r24,29
 986 0622 9F4F      		sbci r25,-1
 987 0624 2981      		ldd r18,Y+1
 988 0626 3A81      		ldd r19,Y+2
 989 0628 FC01      		movw r30,r24
 990 062a 8081      		ld r24,Z
 991 062c 9181      		ldd r25,Z+1
 992 062e 2817      		cp r18,r24
 993 0630 3907      		cpc r19,r25
 994 0632 04F4      		brge .+2
 995 0634 00C0      		rjmp .L30
 996               	.L29:
1169:lp_solve_5.5/colamd/colamd.c **** 	    {
1170:lp_solve_5.5/colamd/colamd.c **** 		/* row index i, in column j, is out of bounds */
1171:lp_solve_5.5/colamd/colamd.c **** 		stats [COLAMD_STATUS] = COLAMD_ERROR_row_index_out_of_bounds ;
 997               		.loc 1 1171 0 is_stmt 1
 998 0636 CE01      		movw r24,r28
 999 0638 8351      		subi r24,19
 1000 063a 9F4F      		sbci r25,-1
 1001 063c FC01      		movw r30,r24
 1002 063e 8081      		ld r24,Z
 1003 0640 9181      		ldd r25,Z+1
 1004 0642 0696      		adiw r24,6
 1005 0644 27EF      		ldi r18,lo8(-9)
 1006 0646 3FEF      		ldi r19,lo8(-1)
 1007 0648 FC01      		movw r30,r24
 1008 064a 3183      		std Z+1,r19
 1009 064c 2083      		st Z,r18
1172:lp_solve_5.5/colamd/colamd.c **** 		stats [COLAMD_INFO1] = j ;
 1010               		.loc 1 1172 0
 1011 064e CE01      		movw r24,r28
 1012 0650 8351      		subi r24,19
 1013 0652 9F4F      		sbci r25,-1
 1014 0654 FC01      		movw r30,r24
 1015 0656 8081      		ld r24,Z
 1016 0658 9181      		ldd r25,Z+1
 1017 065a 0896      		adiw r24,8
 1018 065c 2B81      		ldd r18,Y+3
 1019 065e 3C81      		ldd r19,Y+4
 1020 0660 FC01      		movw r30,r24
 1021 0662 3183      		std Z+1,r19
 1022 0664 2083      		st Z,r18
1173:lp_solve_5.5/colamd/colamd.c **** 		stats [COLAMD_INFO2] = i ;
 1023               		.loc 1 1173 0
 1024 0666 CE01      		movw r24,r28
 1025 0668 8351      		subi r24,19
 1026 066a 9F4F      		sbci r25,-1
 1027 066c FC01      		movw r30,r24
 1028 066e 8081      		ld r24,Z
 1029 0670 9181      		ldd r25,Z+1
 1030 0672 0A96      		adiw r24,10
 1031 0674 2981      		ldd r18,Y+1
 1032 0676 3A81      		ldd r19,Y+2
 1033 0678 FC01      		movw r30,r24
 1034 067a 3183      		std Z+1,r19
 1035 067c 2083      		st Z,r18
1174:lp_solve_5.5/colamd/colamd.c **** 		stats [COLAMD_INFO3] = n ;
 1036               		.loc 1 1174 0
 1037 067e CE01      		movw r24,r28
 1038 0680 8351      		subi r24,19
 1039 0682 9F4F      		sbci r25,-1
 1040 0684 FC01      		movw r30,r24
 1041 0686 8081      		ld r24,Z
 1042 0688 9181      		ldd r25,Z+1
 1043 068a 0C96      		adiw r24,12
 1044 068c 9E01      		movw r18,r28
 1045 068e 2D51      		subi r18,29
 1046 0690 3F4F      		sbci r19,-1
 1047 0692 F901      		movw r30,r18
 1048 0694 2081      		ld r18,Z
 1049 0696 3181      		ldd r19,Z+1
 1050 0698 FC01      		movw r30,r24
 1051 069a 3183      		std Z+1,r19
 1052 069c 2083      		st Z,r18
1175:lp_solve_5.5/colamd/colamd.c **** 		(*release) ((void *) count) ;
 1053               		.loc 1 1175 0
 1054 069e 4D85      		ldd r20,Y+13
 1055 06a0 5E85      		ldd r21,Y+14
 1056 06a2 CE01      		movw r24,r28
 1057 06a4 8F50      		subi r24,15
 1058 06a6 9F4F      		sbci r25,-1
 1059 06a8 FC01      		movw r30,r24
 1060 06aa 2081      		ld r18,Z
 1061 06ac 3181      		ldd r19,Z+1
 1062 06ae CA01      		movw r24,r20
 1063 06b0 F901      		movw r30,r18
 1064 06b2 0995      		icall
1176:lp_solve_5.5/colamd/colamd.c **** 		(*release) ((void *) mark) ;
 1065               		.loc 1 1176 0
 1066 06b4 4F85      		ldd r20,Y+15
 1067 06b6 5889      		ldd r21,Y+16
 1068 06b8 CE01      		movw r24,r28
 1069 06ba 8F50      		subi r24,15
 1070 06bc 9F4F      		sbci r25,-1
 1071 06be FC01      		movw r30,r24
 1072 06c0 2081      		ld r18,Z
 1073 06c2 3181      		ldd r19,Z+1
 1074 06c4 CA01      		movw r24,r20
 1075 06c6 F901      		movw r30,r18
 1076 06c8 0995      		icall
1177:lp_solve_5.5/colamd/colamd.c **** 		DEBUG0 (("symamd: row %d col %d out of bounds\n", i, j)) ;
1178:lp_solve_5.5/colamd/colamd.c **** 		return (FALSE) ;
 1077               		.loc 1 1178 0
 1078 06ca 80E0      		ldi r24,0
 1079 06cc 90E0      		ldi r25,0
 1080 06ce 00C0      		rjmp .L62
 1081               	.L30:
1179:lp_solve_5.5/colamd/colamd.c **** 	    }
1180:lp_solve_5.5/colamd/colamd.c **** 
1181:lp_solve_5.5/colamd/colamd.c **** 	    if (i <= last_row || mark [i] == j)
 1082               		.loc 1 1181 0
 1083 06d0 2981      		ldd r18,Y+1
 1084 06d2 3A81      		ldd r19,Y+2
 1085 06d4 8985      		ldd r24,Y+9
 1086 06d6 9A85      		ldd r25,Y+10
 1087 06d8 8217      		cp r24,r18
 1088 06da 9307      		cpc r25,r19
 1089 06dc 04F4      		brge .L31
 1090               		.loc 1 1181 0 is_stmt 0 discriminator 1
 1091 06de 8981      		ldd r24,Y+1
 1092 06e0 9A81      		ldd r25,Y+2
 1093 06e2 880F      		lsl r24
 1094 06e4 991F      		rol r25
 1095 06e6 2F85      		ldd r18,Y+15
 1096 06e8 3889      		ldd r19,Y+16
 1097 06ea 820F      		add r24,r18
 1098 06ec 931F      		adc r25,r19
 1099 06ee FC01      		movw r30,r24
 1100 06f0 2081      		ld r18,Z
 1101 06f2 3181      		ldd r19,Z+1
 1102 06f4 8B81      		ldd r24,Y+3
 1103 06f6 9C81      		ldd r25,Y+4
 1104 06f8 2817      		cp r18,r24
 1105 06fa 3907      		cpc r19,r25
 1106 06fc 01F4      		brne .L32
 1107               	.L31:
1182:lp_solve_5.5/colamd/colamd.c **** 	    {
1183:lp_solve_5.5/colamd/colamd.c **** 		/* row index is unsorted or repeated (or both), thus col */
1184:lp_solve_5.5/colamd/colamd.c **** 		/* is jumbled.  This is a notice, not an error condition. */
1185:lp_solve_5.5/colamd/colamd.c **** 		stats [COLAMD_STATUS] = COLAMD_OK_BUT_JUMBLED ;
 1108               		.loc 1 1185 0 is_stmt 1
 1109 06fe CE01      		movw r24,r28
 1110 0700 8351      		subi r24,19
 1111 0702 9F4F      		sbci r25,-1
 1112 0704 FC01      		movw r30,r24
 1113 0706 8081      		ld r24,Z
 1114 0708 9181      		ldd r25,Z+1
 1115 070a 0696      		adiw r24,6
 1116 070c 21E0      		ldi r18,lo8(1)
 1117 070e 30E0      		ldi r19,0
 1118 0710 FC01      		movw r30,r24
 1119 0712 3183      		std Z+1,r19
 1120 0714 2083      		st Z,r18
1186:lp_solve_5.5/colamd/colamd.c **** 		stats [COLAMD_INFO1] = j ;
 1121               		.loc 1 1186 0
 1122 0716 CE01      		movw r24,r28
 1123 0718 8351      		subi r24,19
 1124 071a 9F4F      		sbci r25,-1
 1125 071c FC01      		movw r30,r24
 1126 071e 8081      		ld r24,Z
 1127 0720 9181      		ldd r25,Z+1
 1128 0722 0896      		adiw r24,8
 1129 0724 2B81      		ldd r18,Y+3
 1130 0726 3C81      		ldd r19,Y+4
 1131 0728 FC01      		movw r30,r24
 1132 072a 3183      		std Z+1,r19
 1133 072c 2083      		st Z,r18
1187:lp_solve_5.5/colamd/colamd.c **** 		stats [COLAMD_INFO2] = i ;
 1134               		.loc 1 1187 0
 1135 072e CE01      		movw r24,r28
 1136 0730 8351      		subi r24,19
 1137 0732 9F4F      		sbci r25,-1
 1138 0734 FC01      		movw r30,r24
 1139 0736 8081      		ld r24,Z
 1140 0738 9181      		ldd r25,Z+1
 1141 073a 0A96      		adiw r24,10
 1142 073c 2981      		ldd r18,Y+1
 1143 073e 3A81      		ldd r19,Y+2
 1144 0740 FC01      		movw r30,r24
 1145 0742 3183      		std Z+1,r19
 1146 0744 2083      		st Z,r18
1188:lp_solve_5.5/colamd/colamd.c **** 		(stats [COLAMD_INFO3]) ++ ;
 1147               		.loc 1 1188 0
 1148 0746 CE01      		movw r24,r28
 1149 0748 8351      		subi r24,19
 1150 074a 9F4F      		sbci r25,-1
 1151 074c FC01      		movw r30,r24
 1152 074e 8081      		ld r24,Z
 1153 0750 9181      		ldd r25,Z+1
 1154 0752 0C96      		adiw r24,12
 1155 0754 FC01      		movw r30,r24
 1156 0756 2081      		ld r18,Z
 1157 0758 3181      		ldd r19,Z+1
 1158 075a 2F5F      		subi r18,-1
 1159 075c 3F4F      		sbci r19,-1
 1160 075e FC01      		movw r30,r24
 1161 0760 3183      		std Z+1,r19
 1162 0762 2083      		st Z,r18
 1163               	.L32:
1189:lp_solve_5.5/colamd/colamd.c **** 		DEBUG1 (("symamd: row %d col %d unsorted/duplicate\n", i, j)) ;
1190:lp_solve_5.5/colamd/colamd.c **** 	    }
1191:lp_solve_5.5/colamd/colamd.c **** 
1192:lp_solve_5.5/colamd/colamd.c **** 	    if (i > j && mark [i] != j)
 1164               		.loc 1 1192 0
 1165 0764 2981      		ldd r18,Y+1
 1166 0766 3A81      		ldd r19,Y+2
 1167 0768 8B81      		ldd r24,Y+3
 1168 076a 9C81      		ldd r25,Y+4
 1169 076c 8217      		cp r24,r18
 1170 076e 9307      		cpc r25,r19
 1171 0770 04F4      		brge .L33
 1172               		.loc 1 1192 0 is_stmt 0 discriminator 1
 1173 0772 8981      		ldd r24,Y+1
 1174 0774 9A81      		ldd r25,Y+2
 1175 0776 880F      		lsl r24
 1176 0778 991F      		rol r25
 1177 077a 2F85      		ldd r18,Y+15
 1178 077c 3889      		ldd r19,Y+16
 1179 077e 820F      		add r24,r18
 1180 0780 931F      		adc r25,r19
 1181 0782 FC01      		movw r30,r24
 1182 0784 2081      		ld r18,Z
 1183 0786 3181      		ldd r19,Z+1
 1184 0788 8B81      		ldd r24,Y+3
 1185 078a 9C81      		ldd r25,Y+4
 1186 078c 2817      		cp r18,r24
 1187 078e 3907      		cpc r19,r25
 1188 0790 01F0      		breq .L33
1193:lp_solve_5.5/colamd/colamd.c **** 	    {
1194:lp_solve_5.5/colamd/colamd.c **** 		/* row k of M will contain column indices i and j */
1195:lp_solve_5.5/colamd/colamd.c **** 		count [i]++ ;
 1189               		.loc 1 1195 0 is_stmt 1
 1190 0792 8981      		ldd r24,Y+1
 1191 0794 9A81      		ldd r25,Y+2
 1192 0796 880F      		lsl r24
 1193 0798 991F      		rol r25
 1194 079a 2D85      		ldd r18,Y+13
 1195 079c 3E85      		ldd r19,Y+14
 1196 079e 820F      		add r24,r18
 1197 07a0 931F      		adc r25,r19
 1198 07a2 FC01      		movw r30,r24
 1199 07a4 2081      		ld r18,Z
 1200 07a6 3181      		ldd r19,Z+1
 1201 07a8 2F5F      		subi r18,-1
 1202 07aa 3F4F      		sbci r19,-1
 1203 07ac FC01      		movw r30,r24
 1204 07ae 3183      		std Z+1,r19
 1205 07b0 2083      		st Z,r18
1196:lp_solve_5.5/colamd/colamd.c **** 		count [j]++ ;
 1206               		.loc 1 1196 0
 1207 07b2 8B81      		ldd r24,Y+3
 1208 07b4 9C81      		ldd r25,Y+4
 1209 07b6 880F      		lsl r24
 1210 07b8 991F      		rol r25
 1211 07ba 2D85      		ldd r18,Y+13
 1212 07bc 3E85      		ldd r19,Y+14
 1213 07be 820F      		add r24,r18
 1214 07c0 931F      		adc r25,r19
 1215 07c2 FC01      		movw r30,r24
 1216 07c4 2081      		ld r18,Z
 1217 07c6 3181      		ldd r19,Z+1
 1218 07c8 2F5F      		subi r18,-1
 1219 07ca 3F4F      		sbci r19,-1
 1220 07cc FC01      		movw r30,r24
 1221 07ce 3183      		std Z+1,r19
 1222 07d0 2083      		st Z,r18
 1223               	.L33:
1197:lp_solve_5.5/colamd/colamd.c **** 	    }
1198:lp_solve_5.5/colamd/colamd.c **** 
1199:lp_solve_5.5/colamd/colamd.c **** 	    /* mark the row as having been seen in this column */
1200:lp_solve_5.5/colamd/colamd.c **** 	    mark [i] = j ;
 1224               		.loc 1 1200 0 discriminator 2
 1225 07d2 8981      		ldd r24,Y+1
 1226 07d4 9A81      		ldd r25,Y+2
 1227 07d6 880F      		lsl r24
 1228 07d8 991F      		rol r25
 1229 07da 2F85      		ldd r18,Y+15
 1230 07dc 3889      		ldd r19,Y+16
 1231 07de 820F      		add r24,r18
 1232 07e0 931F      		adc r25,r19
 1233 07e2 2B81      		ldd r18,Y+3
 1234 07e4 3C81      		ldd r19,Y+4
 1235 07e6 FC01      		movw r30,r24
 1236 07e8 3183      		std Z+1,r19
 1237 07ea 2083      		st Z,r18
1201:lp_solve_5.5/colamd/colamd.c **** 
1202:lp_solve_5.5/colamd/colamd.c **** 	    last_row = i ;
 1238               		.loc 1 1202 0 discriminator 2
 1239 07ec 8981      		ldd r24,Y+1
 1240 07ee 9A81      		ldd r25,Y+2
 1241 07f0 9A87      		std Y+10,r25
 1242 07f2 8987      		std Y+9,r24
1165:lp_solve_5.5/colamd/colamd.c **** 	{
 1243               		.loc 1 1165 0 discriminator 2
 1244 07f4 8F81      		ldd r24,Y+7
 1245 07f6 9885      		ldd r25,Y+8
 1246 07f8 0196      		adiw r24,1
 1247 07fa 9887      		std Y+8,r25
 1248 07fc 8F83      		std Y+7,r24
 1249               	.L28:
1165:lp_solve_5.5/colamd/colamd.c **** 	{
 1250               		.loc 1 1165 0 is_stmt 0 discriminator 1
 1251 07fe 8B81      		ldd r24,Y+3
 1252 0800 9C81      		ldd r25,Y+4
 1253 0802 0196      		adiw r24,1
 1254 0804 880F      		lsl r24
 1255 0806 991F      		rol r25
 1256 0808 9E01      		movw r18,r28
 1257 080a 2951      		subi r18,25
 1258 080c 3F4F      		sbci r19,-1
 1259 080e F901      		movw r30,r18
 1260 0810 2081      		ld r18,Z
 1261 0812 3181      		ldd r19,Z+1
 1262 0814 820F      		add r24,r18
 1263 0816 931F      		adc r25,r19
 1264 0818 FC01      		movw r30,r24
 1265 081a 2081      		ld r18,Z
 1266 081c 3181      		ldd r19,Z+1
 1267 081e 8F81      		ldd r24,Y+7
 1268 0820 9885      		ldd r25,Y+8
 1269 0822 8217      		cp r24,r18
 1270 0824 9307      		cpc r25,r19
 1271 0826 04F4      		brge .+2
 1272 0828 00C0      		rjmp .L34
1148:lp_solve_5.5/colamd/colamd.c ****     {
 1273               		.loc 1 1148 0 is_stmt 1 discriminator 2
 1274 082a 8B81      		ldd r24,Y+3
 1275 082c 9C81      		ldd r25,Y+4
 1276 082e 0196      		adiw r24,1
 1277 0830 9C83      		std Y+4,r25
 1278 0832 8B83      		std Y+3,r24
 1279               	.L26:
1148:lp_solve_5.5/colamd/colamd.c ****     {
 1280               		.loc 1 1148 0 is_stmt 0 discriminator 1
 1281 0834 CE01      		movw r24,r28
 1282 0836 8D51      		subi r24,29
 1283 0838 9F4F      		sbci r25,-1
 1284 083a 2B81      		ldd r18,Y+3
 1285 083c 3C81      		ldd r19,Y+4
 1286 083e FC01      		movw r30,r24
 1287 0840 8081      		ld r24,Z
 1288 0842 9181      		ldd r25,Z+1
 1289 0844 2817      		cp r18,r24
 1290 0846 3907      		cpc r19,r25
 1291 0848 04F4      		brge .+2
 1292 084a 00C0      		rjmp .L35
1203:lp_solve_5.5/colamd/colamd.c **** 	}
1204:lp_solve_5.5/colamd/colamd.c ****     }
1205:lp_solve_5.5/colamd/colamd.c **** 
1206:lp_solve_5.5/colamd/colamd.c ****     if (stats [COLAMD_STATUS] == COLAMD_OK)
 1293               		.loc 1 1206 0 is_stmt 1
 1294 084c CE01      		movw r24,r28
 1295 084e 8351      		subi r24,19
 1296 0850 9F4F      		sbci r25,-1
 1297 0852 FC01      		movw r30,r24
 1298 0854 8081      		ld r24,Z
 1299 0856 9181      		ldd r25,Z+1
 1300 0858 0696      		adiw r24,6
 1301 085a FC01      		movw r30,r24
 1302 085c 8081      		ld r24,Z
 1303 085e 9181      		ldd r25,Z+1
 1304 0860 892B      		or r24,r25
 1305 0862 01F4      		brne .L36
1207:lp_solve_5.5/colamd/colamd.c ****     {
1208:lp_solve_5.5/colamd/colamd.c **** 	/* if there are no duplicate entries, then mark is no longer needed */
1209:lp_solve_5.5/colamd/colamd.c **** 	(*release) ((void *) mark) ;
 1306               		.loc 1 1209 0
 1307 0864 4F85      		ldd r20,Y+15
 1308 0866 5889      		ldd r21,Y+16
 1309 0868 CE01      		movw r24,r28
 1310 086a 8F50      		subi r24,15
 1311 086c 9F4F      		sbci r25,-1
 1312 086e FC01      		movw r30,r24
 1313 0870 2081      		ld r18,Z
 1314 0872 3181      		ldd r19,Z+1
 1315 0874 CA01      		movw r24,r20
 1316 0876 F901      		movw r30,r18
 1317 0878 0995      		icall
 1318               	.L36:
1210:lp_solve_5.5/colamd/colamd.c ****     }
1211:lp_solve_5.5/colamd/colamd.c **** 
1212:lp_solve_5.5/colamd/colamd.c ****     /* === Compute column pointers of M ===================================== */
1213:lp_solve_5.5/colamd/colamd.c **** 
1214:lp_solve_5.5/colamd/colamd.c ****     /* use output permutation, perm, for column pointers of M */
1215:lp_solve_5.5/colamd/colamd.c ****     perm [0] = 0 ;
 1319               		.loc 1 1215 0
 1320 087a CE01      		movw r24,r28
 1321 087c 8751      		subi r24,23
 1322 087e 9F4F      		sbci r25,-1
 1323 0880 FC01      		movw r30,r24
 1324 0882 8081      		ld r24,Z
 1325 0884 9181      		ldd r25,Z+1
 1326 0886 FC01      		movw r30,r24
 1327 0888 1182      		std Z+1,__zero_reg__
 1328 088a 1082      		st Z,__zero_reg__
1216:lp_solve_5.5/colamd/colamd.c ****     for (j = 1 ; j <= n ; j++)
 1329               		.loc 1 1216 0
 1330 088c 81E0      		ldi r24,lo8(1)
 1331 088e 90E0      		ldi r25,0
 1332 0890 9C83      		std Y+4,r25
 1333 0892 8B83      		std Y+3,r24
 1334 0894 00C0      		rjmp .L37
 1335               	.L38:
1217:lp_solve_5.5/colamd/colamd.c ****     {
1218:lp_solve_5.5/colamd/colamd.c **** 	perm [j] = perm [j-1] + count [j-1] ;
 1336               		.loc 1 1218 0 discriminator 3
 1337 0896 8B81      		ldd r24,Y+3
 1338 0898 9C81      		ldd r25,Y+4
 1339 089a 880F      		lsl r24
 1340 089c 991F      		rol r25
 1341 089e 9E01      		movw r18,r28
 1342 08a0 2751      		subi r18,23
 1343 08a2 3F4F      		sbci r19,-1
 1344 08a4 F901      		movw r30,r18
 1345 08a6 2081      		ld r18,Z
 1346 08a8 3181      		ldd r19,Z+1
 1347 08aa 820F      		add r24,r18
 1348 08ac 931F      		adc r25,r19
 1349 08ae 2B81      		ldd r18,Y+3
 1350 08b0 3C81      		ldd r19,Y+4
 1351 08b2 2150      		subi r18,1
 1352 08b4 3048      		sbci r19,-128
 1353 08b6 220F      		lsl r18
 1354 08b8 331F      		rol r19
 1355 08ba AE01      		movw r20,r28
 1356 08bc 4751      		subi r20,23
 1357 08be 5F4F      		sbci r21,-1
 1358 08c0 FA01      		movw r30,r20
 1359 08c2 4081      		ld r20,Z
 1360 08c4 5181      		ldd r21,Z+1
 1361 08c6 240F      		add r18,r20
 1362 08c8 351F      		adc r19,r21
 1363 08ca F901      		movw r30,r18
 1364 08cc 4081      		ld r20,Z
 1365 08ce 5181      		ldd r21,Z+1
 1366 08d0 2B81      		ldd r18,Y+3
 1367 08d2 3C81      		ldd r19,Y+4
 1368 08d4 2150      		subi r18,1
 1369 08d6 3048      		sbci r19,-128
 1370 08d8 220F      		lsl r18
 1371 08da 331F      		rol r19
 1372 08dc 6D85      		ldd r22,Y+13
 1373 08de 7E85      		ldd r23,Y+14
 1374 08e0 260F      		add r18,r22
 1375 08e2 371F      		adc r19,r23
 1376 08e4 F901      		movw r30,r18
 1377 08e6 2081      		ld r18,Z
 1378 08e8 3181      		ldd r19,Z+1
 1379 08ea 240F      		add r18,r20
 1380 08ec 351F      		adc r19,r21
 1381 08ee FC01      		movw r30,r24
 1382 08f0 3183      		std Z+1,r19
 1383 08f2 2083      		st Z,r18
1216:lp_solve_5.5/colamd/colamd.c ****     for (j = 1 ; j <= n ; j++)
 1384               		.loc 1 1216 0 discriminator 3
 1385 08f4 8B81      		ldd r24,Y+3
 1386 08f6 9C81      		ldd r25,Y+4
 1387 08f8 0196      		adiw r24,1
 1388 08fa 9C83      		std Y+4,r25
 1389 08fc 8B83      		std Y+3,r24
 1390               	.L37:
1216:lp_solve_5.5/colamd/colamd.c ****     for (j = 1 ; j <= n ; j++)
 1391               		.loc 1 1216 0 is_stmt 0 discriminator 1
 1392 08fe CE01      		movw r24,r28
 1393 0900 8D51      		subi r24,29
 1394 0902 9F4F      		sbci r25,-1
 1395 0904 2B81      		ldd r18,Y+3
 1396 0906 3C81      		ldd r19,Y+4
 1397 0908 FC01      		movw r30,r24
 1398 090a 8081      		ld r24,Z
 1399 090c 9181      		ldd r25,Z+1
 1400 090e 8217      		cp r24,r18
 1401 0910 9307      		cpc r25,r19
 1402 0912 04F4      		brge .L38
1219:lp_solve_5.5/colamd/colamd.c ****     }
1220:lp_solve_5.5/colamd/colamd.c ****     for (j = 0 ; j < n ; j++)
 1403               		.loc 1 1220 0 is_stmt 1
 1404 0914 1C82      		std Y+4,__zero_reg__
 1405 0916 1B82      		std Y+3,__zero_reg__
 1406 0918 00C0      		rjmp .L39
 1407               	.L40:
1221:lp_solve_5.5/colamd/colamd.c ****     {
1222:lp_solve_5.5/colamd/colamd.c **** 	count [j] = perm [j] ;
 1408               		.loc 1 1222 0 discriminator 3
 1409 091a 8B81      		ldd r24,Y+3
 1410 091c 9C81      		ldd r25,Y+4
 1411 091e 880F      		lsl r24
 1412 0920 991F      		rol r25
 1413 0922 2D85      		ldd r18,Y+13
 1414 0924 3E85      		ldd r19,Y+14
 1415 0926 820F      		add r24,r18
 1416 0928 931F      		adc r25,r19
 1417 092a 2B81      		ldd r18,Y+3
 1418 092c 3C81      		ldd r19,Y+4
 1419 092e 220F      		lsl r18
 1420 0930 331F      		rol r19
 1421 0932 AE01      		movw r20,r28
 1422 0934 4751      		subi r20,23
 1423 0936 5F4F      		sbci r21,-1
 1424 0938 FA01      		movw r30,r20
 1425 093a 4081      		ld r20,Z
 1426 093c 5181      		ldd r21,Z+1
 1427 093e 240F      		add r18,r20
 1428 0940 351F      		adc r19,r21
 1429 0942 F901      		movw r30,r18
 1430 0944 2081      		ld r18,Z
 1431 0946 3181      		ldd r19,Z+1
 1432 0948 FC01      		movw r30,r24
 1433 094a 3183      		std Z+1,r19
 1434 094c 2083      		st Z,r18
1220:lp_solve_5.5/colamd/colamd.c ****     {
 1435               		.loc 1 1220 0 discriminator 3
 1436 094e 8B81      		ldd r24,Y+3
 1437 0950 9C81      		ldd r25,Y+4
 1438 0952 0196      		adiw r24,1
 1439 0954 9C83      		std Y+4,r25
 1440 0956 8B83      		std Y+3,r24
 1441               	.L39:
1220:lp_solve_5.5/colamd/colamd.c ****     {
 1442               		.loc 1 1220 0 is_stmt 0 discriminator 1
 1443 0958 CE01      		movw r24,r28
 1444 095a 8D51      		subi r24,29
 1445 095c 9F4F      		sbci r25,-1
 1446 095e 2B81      		ldd r18,Y+3
 1447 0960 3C81      		ldd r19,Y+4
 1448 0962 FC01      		movw r30,r24
 1449 0964 8081      		ld r24,Z
 1450 0966 9181      		ldd r25,Z+1
 1451 0968 2817      		cp r18,r24
 1452 096a 3907      		cpc r19,r25
 1453 096c 04F0      		brlt .L40
1223:lp_solve_5.5/colamd/colamd.c ****     }
1224:lp_solve_5.5/colamd/colamd.c **** 
1225:lp_solve_5.5/colamd/colamd.c ****     /* === Construct M ====================================================== */
1226:lp_solve_5.5/colamd/colamd.c **** 
1227:lp_solve_5.5/colamd/colamd.c ****     mnz = perm [n] ;
 1454               		.loc 1 1227 0 is_stmt 1
 1455 096e CE01      		movw r24,r28
 1456 0970 8D51      		subi r24,29
 1457 0972 9F4F      		sbci r25,-1
 1458 0974 FC01      		movw r30,r24
 1459 0976 8081      		ld r24,Z
 1460 0978 9181      		ldd r25,Z+1
 1461 097a 880F      		lsl r24
 1462 097c 991F      		rol r25
 1463 097e 9E01      		movw r18,r28
 1464 0980 2751      		subi r18,23
 1465 0982 3F4F      		sbci r19,-1
 1466 0984 F901      		movw r30,r18
 1467 0986 2081      		ld r18,Z
 1468 0988 3181      		ldd r19,Z+1
 1469 098a 820F      		add r24,r18
 1470 098c 931F      		adc r25,r19
 1471 098e FC01      		movw r30,r24
 1472 0990 8081      		ld r24,Z
 1473 0992 9181      		ldd r25,Z+1
 1474 0994 9C8B      		std Y+20,r25
 1475 0996 8B8B      		std Y+19,r24
1228:lp_solve_5.5/colamd/colamd.c ****     n_row = mnz / 2 ;
 1476               		.loc 1 1228 0
 1477 0998 8B89      		ldd r24,Y+19
 1478 099a 9C89      		ldd r25,Y+20
 1479 099c 9923      		tst r25
 1480 099e 04F4      		brge .L41
 1481 09a0 0196      		adiw r24,1
 1482               	.L41:
 1483 09a2 9595      		asr r25
 1484 09a4 8795      		ror r24
 1485 09a6 9E8B      		std Y+22,r25
 1486 09a8 8D8B      		std Y+21,r24
1229:lp_solve_5.5/colamd/colamd.c ****     Mlen = colamd_recommended (mnz, n_row, n) ;
 1487               		.loc 1 1229 0
 1488 09aa CE01      		movw r24,r28
 1489 09ac 8D51      		subi r24,29
 1490 09ae 9F4F      		sbci r25,-1
 1491 09b0 FC01      		movw r30,r24
 1492 09b2 4081      		ld r20,Z
 1493 09b4 5181      		ldd r21,Z+1
 1494 09b6 2D89      		ldd r18,Y+21
 1495 09b8 3E89      		ldd r19,Y+22
 1496 09ba 8B89      		ldd r24,Y+19
 1497 09bc 9C89      		ldd r25,Y+20
 1498 09be B901      		movw r22,r18
 1499 09c0 0E94 0000 		call colamd_recommended
 1500 09c4 988F      		std Y+24,r25
 1501 09c6 8F8B      		std Y+23,r24
1230:lp_solve_5.5/colamd/colamd.c ****     M = (int *) ((*allocate) (Mlen, sizeof (int))) ;
 1502               		.loc 1 1230 0
 1503 09c8 4F89      		ldd r20,Y+23
 1504 09ca 588D      		ldd r21,Y+24
 1505 09cc CE01      		movw r24,r28
 1506 09ce 8151      		subi r24,17
 1507 09d0 9F4F      		sbci r25,-1
 1508 09d2 FC01      		movw r30,r24
 1509 09d4 2081      		ld r18,Z
 1510 09d6 3181      		ldd r19,Z+1
 1511 09d8 62E0      		ldi r22,lo8(2)
 1512 09da 70E0      		ldi r23,0
 1513 09dc CA01      		movw r24,r20
 1514 09de F901      		movw r30,r18
 1515 09e0 0995      		icall
 1516 09e2 9A8F      		std Y+26,r25
 1517 09e4 898F      		std Y+25,r24
1231:lp_solve_5.5/colamd/colamd.c ****     DEBUG0 (("symamd: M is %d-by-%d with %d entries, Mlen = %d\n",
1232:lp_solve_5.5/colamd/colamd.c ****     	n_row, n, mnz, Mlen)) ;
1233:lp_solve_5.5/colamd/colamd.c **** 
1234:lp_solve_5.5/colamd/colamd.c ****     if (!M)
 1518               		.loc 1 1234 0
 1519 09e6 898D      		ldd r24,Y+25
 1520 09e8 9A8D      		ldd r25,Y+26
 1521 09ea 892B      		or r24,r25
 1522 09ec 01F4      		brne .L42
1235:lp_solve_5.5/colamd/colamd.c ****     {
1236:lp_solve_5.5/colamd/colamd.c **** 	stats [COLAMD_STATUS] = COLAMD_ERROR_out_of_memory ;
 1523               		.loc 1 1236 0
 1524 09ee CE01      		movw r24,r28
 1525 09f0 8351      		subi r24,19
 1526 09f2 9F4F      		sbci r25,-1
 1527 09f4 FC01      		movw r30,r24
 1528 09f6 8081      		ld r24,Z
 1529 09f8 9181      		ldd r25,Z+1
 1530 09fa 0696      		adiw r24,6
 1531 09fc 26EF      		ldi r18,lo8(-10)
 1532 09fe 3FEF      		ldi r19,lo8(-1)
 1533 0a00 FC01      		movw r30,r24
 1534 0a02 3183      		std Z+1,r19
 1535 0a04 2083      		st Z,r18
1237:lp_solve_5.5/colamd/colamd.c **** 	(*release) ((void *) count) ;
 1536               		.loc 1 1237 0
 1537 0a06 4D85      		ldd r20,Y+13
 1538 0a08 5E85      		ldd r21,Y+14
 1539 0a0a CE01      		movw r24,r28
 1540 0a0c 8F50      		subi r24,15
 1541 0a0e 9F4F      		sbci r25,-1
 1542 0a10 FC01      		movw r30,r24
 1543 0a12 2081      		ld r18,Z
 1544 0a14 3181      		ldd r19,Z+1
 1545 0a16 CA01      		movw r24,r20
 1546 0a18 F901      		movw r30,r18
 1547 0a1a 0995      		icall
1238:lp_solve_5.5/colamd/colamd.c **** 	(*release) ((void *) mark) ;
 1548               		.loc 1 1238 0
 1549 0a1c 4F85      		ldd r20,Y+15
 1550 0a1e 5889      		ldd r21,Y+16
 1551 0a20 CE01      		movw r24,r28
 1552 0a22 8F50      		subi r24,15
 1553 0a24 9F4F      		sbci r25,-1
 1554 0a26 FC01      		movw r30,r24
 1555 0a28 2081      		ld r18,Z
 1556 0a2a 3181      		ldd r19,Z+1
 1557 0a2c CA01      		movw r24,r20
 1558 0a2e F901      		movw r30,r18
 1559 0a30 0995      		icall
1239:lp_solve_5.5/colamd/colamd.c **** 	DEBUG0 (("symamd: allocate M (size %d) failed\n", Mlen)) ;
1240:lp_solve_5.5/colamd/colamd.c **** 	return (FALSE) ;
 1560               		.loc 1 1240 0
 1561 0a32 80E0      		ldi r24,0
 1562 0a34 90E0      		ldi r25,0
 1563 0a36 00C0      		rjmp .L62
 1564               	.L42:
1241:lp_solve_5.5/colamd/colamd.c ****     }
1242:lp_solve_5.5/colamd/colamd.c **** 
1243:lp_solve_5.5/colamd/colamd.c ****     k = 0 ;
 1565               		.loc 1 1243 0
 1566 0a38 1E82      		std Y+6,__zero_reg__
 1567 0a3a 1D82      		std Y+5,__zero_reg__
1244:lp_solve_5.5/colamd/colamd.c **** 
1245:lp_solve_5.5/colamd/colamd.c ****     if (stats [COLAMD_STATUS] == COLAMD_OK)
 1568               		.loc 1 1245 0
 1569 0a3c CE01      		movw r24,r28
 1570 0a3e 8351      		subi r24,19
 1571 0a40 9F4F      		sbci r25,-1
 1572 0a42 FC01      		movw r30,r24
 1573 0a44 8081      		ld r24,Z
 1574 0a46 9181      		ldd r25,Z+1
 1575 0a48 0696      		adiw r24,6
 1576 0a4a FC01      		movw r30,r24
 1577 0a4c 8081      		ld r24,Z
 1578 0a4e 9181      		ldd r25,Z+1
 1579 0a50 892B      		or r24,r25
 1580 0a52 01F0      		breq .+2
 1581 0a54 00C0      		rjmp .L43
1246:lp_solve_5.5/colamd/colamd.c ****     {
1247:lp_solve_5.5/colamd/colamd.c **** 	/* Matrix is OK */
1248:lp_solve_5.5/colamd/colamd.c **** 	for (j = 0 ; j < n ; j++)
 1582               		.loc 1 1248 0
 1583 0a56 1C82      		std Y+4,__zero_reg__
 1584 0a58 1B82      		std Y+3,__zero_reg__
 1585 0a5a 00C0      		rjmp .L44
 1586               	.L48:
1249:lp_solve_5.5/colamd/colamd.c **** 	{
1250:lp_solve_5.5/colamd/colamd.c **** 	    ASSERT (p [j+1] - p [j] >= 0) ;
1251:lp_solve_5.5/colamd/colamd.c **** 	    for (pp = p [j] ; pp < p [j+1] ; pp++)
 1587               		.loc 1 1251 0
 1588 0a5c 8B81      		ldd r24,Y+3
 1589 0a5e 9C81      		ldd r25,Y+4
 1590 0a60 880F      		lsl r24
 1591 0a62 991F      		rol r25
 1592 0a64 9E01      		movw r18,r28
 1593 0a66 2951      		subi r18,25
 1594 0a68 3F4F      		sbci r19,-1
 1595 0a6a F901      		movw r30,r18
 1596 0a6c 2081      		ld r18,Z
 1597 0a6e 3181      		ldd r19,Z+1
 1598 0a70 820F      		add r24,r18
 1599 0a72 931F      		adc r25,r19
 1600 0a74 FC01      		movw r30,r24
 1601 0a76 8081      		ld r24,Z
 1602 0a78 9181      		ldd r25,Z+1
 1603 0a7a 9887      		std Y+8,r25
 1604 0a7c 8F83      		std Y+7,r24
 1605 0a7e 00C0      		rjmp .L45
 1606               	.L47:
1252:lp_solve_5.5/colamd/colamd.c **** 	    {
1253:lp_solve_5.5/colamd/colamd.c **** 		i = A [pp] ;
 1607               		.loc 1 1253 0
 1608 0a80 8F81      		ldd r24,Y+7
 1609 0a82 9885      		ldd r25,Y+8
 1610 0a84 880F      		lsl r24
 1611 0a86 991F      		rol r25
 1612 0a88 9E01      		movw r18,r28
 1613 0a8a 2B51      		subi r18,27
 1614 0a8c 3F4F      		sbci r19,-1
 1615 0a8e F901      		movw r30,r18
 1616 0a90 2081      		ld r18,Z
 1617 0a92 3181      		ldd r19,Z+1
 1618 0a94 820F      		add r24,r18
 1619 0a96 931F      		adc r25,r19
 1620 0a98 FC01      		movw r30,r24
 1621 0a9a 8081      		ld r24,Z
 1622 0a9c 9181      		ldd r25,Z+1
 1623 0a9e 9A83      		std Y+2,r25
 1624 0aa0 8983      		std Y+1,r24
1254:lp_solve_5.5/colamd/colamd.c **** 		ASSERT (i >= 0 && i < n) ;
1255:lp_solve_5.5/colamd/colamd.c **** 		if (i > j)
 1625               		.loc 1 1255 0
 1626 0aa2 2981      		ldd r18,Y+1
 1627 0aa4 3A81      		ldd r19,Y+2
 1628 0aa6 8B81      		ldd r24,Y+3
 1629 0aa8 9C81      		ldd r25,Y+4
 1630 0aaa 8217      		cp r24,r18
 1631 0aac 9307      		cpc r25,r19
 1632 0aae 04F0      		brlt .+2
 1633 0ab0 00C0      		rjmp .L46
1256:lp_solve_5.5/colamd/colamd.c **** 		{
1257:lp_solve_5.5/colamd/colamd.c **** 		    /* row k of M contains column indices i and j */
1258:lp_solve_5.5/colamd/colamd.c **** 		    M [count [i]++] = k ;
 1634               		.loc 1 1258 0
 1635 0ab2 8981      		ldd r24,Y+1
 1636 0ab4 9A81      		ldd r25,Y+2
 1637 0ab6 880F      		lsl r24
 1638 0ab8 991F      		rol r25
 1639 0aba 2D85      		ldd r18,Y+13
 1640 0abc 3E85      		ldd r19,Y+14
 1641 0abe 820F      		add r24,r18
 1642 0ac0 931F      		adc r25,r19
 1643 0ac2 FC01      		movw r30,r24
 1644 0ac4 2081      		ld r18,Z
 1645 0ac6 3181      		ldd r19,Z+1
 1646 0ac8 A901      		movw r20,r18
 1647 0aca 4F5F      		subi r20,-1
 1648 0acc 5F4F      		sbci r21,-1
 1649 0ace FC01      		movw r30,r24
 1650 0ad0 5183      		std Z+1,r21
 1651 0ad2 4083      		st Z,r20
 1652 0ad4 C901      		movw r24,r18
 1653 0ad6 880F      		lsl r24
 1654 0ad8 991F      		rol r25
 1655 0ada 298D      		ldd r18,Y+25
 1656 0adc 3A8D      		ldd r19,Y+26
 1657 0ade 820F      		add r24,r18
 1658 0ae0 931F      		adc r25,r19
 1659 0ae2 2D81      		ldd r18,Y+5
 1660 0ae4 3E81      		ldd r19,Y+6
 1661 0ae6 FC01      		movw r30,r24
 1662 0ae8 3183      		std Z+1,r19
 1663 0aea 2083      		st Z,r18
1259:lp_solve_5.5/colamd/colamd.c **** 		    M [count [j]++] = k ;
 1664               		.loc 1 1259 0
 1665 0aec 8B81      		ldd r24,Y+3
 1666 0aee 9C81      		ldd r25,Y+4
 1667 0af0 880F      		lsl r24
 1668 0af2 991F      		rol r25
 1669 0af4 2D85      		ldd r18,Y+13
 1670 0af6 3E85      		ldd r19,Y+14
 1671 0af8 820F      		add r24,r18
 1672 0afa 931F      		adc r25,r19
 1673 0afc FC01      		movw r30,r24
 1674 0afe 2081      		ld r18,Z
 1675 0b00 3181      		ldd r19,Z+1
 1676 0b02 A901      		movw r20,r18
 1677 0b04 4F5F      		subi r20,-1
 1678 0b06 5F4F      		sbci r21,-1
 1679 0b08 FC01      		movw r30,r24
 1680 0b0a 5183      		std Z+1,r21
 1681 0b0c 4083      		st Z,r20
 1682 0b0e C901      		movw r24,r18
 1683 0b10 880F      		lsl r24
 1684 0b12 991F      		rol r25
 1685 0b14 298D      		ldd r18,Y+25
 1686 0b16 3A8D      		ldd r19,Y+26
 1687 0b18 820F      		add r24,r18
 1688 0b1a 931F      		adc r25,r19
 1689 0b1c 2D81      		ldd r18,Y+5
 1690 0b1e 3E81      		ldd r19,Y+6
 1691 0b20 FC01      		movw r30,r24
 1692 0b22 3183      		std Z+1,r19
 1693 0b24 2083      		st Z,r18
1260:lp_solve_5.5/colamd/colamd.c **** 		    k++ ;
 1694               		.loc 1 1260 0
 1695 0b26 8D81      		ldd r24,Y+5
 1696 0b28 9E81      		ldd r25,Y+6
 1697 0b2a 0196      		adiw r24,1
 1698 0b2c 9E83      		std Y+6,r25
 1699 0b2e 8D83      		std Y+5,r24
 1700               	.L46:
1251:lp_solve_5.5/colamd/colamd.c **** 	    {
 1701               		.loc 1 1251 0 discriminator 2
 1702 0b30 8F81      		ldd r24,Y+7
 1703 0b32 9885      		ldd r25,Y+8
 1704 0b34 0196      		adiw r24,1
 1705 0b36 9887      		std Y+8,r25
 1706 0b38 8F83      		std Y+7,r24
 1707               	.L45:
1251:lp_solve_5.5/colamd/colamd.c **** 	    {
 1708               		.loc 1 1251 0 is_stmt 0 discriminator 1
 1709 0b3a 8B81      		ldd r24,Y+3
 1710 0b3c 9C81      		ldd r25,Y+4
 1711 0b3e 0196      		adiw r24,1
 1712 0b40 880F      		lsl r24
 1713 0b42 991F      		rol r25
 1714 0b44 9E01      		movw r18,r28
 1715 0b46 2951      		subi r18,25
 1716 0b48 3F4F      		sbci r19,-1
 1717 0b4a F901      		movw r30,r18
 1718 0b4c 2081      		ld r18,Z
 1719 0b4e 3181      		ldd r19,Z+1
 1720 0b50 820F      		add r24,r18
 1721 0b52 931F      		adc r25,r19
 1722 0b54 FC01      		movw r30,r24
 1723 0b56 2081      		ld r18,Z
 1724 0b58 3181      		ldd r19,Z+1
 1725 0b5a 8F81      		ldd r24,Y+7
 1726 0b5c 9885      		ldd r25,Y+8
 1727 0b5e 8217      		cp r24,r18
 1728 0b60 9307      		cpc r25,r19
 1729 0b62 04F4      		brge .+2
 1730 0b64 00C0      		rjmp .L47
1248:lp_solve_5.5/colamd/colamd.c **** 	{
 1731               		.loc 1 1248 0 is_stmt 1 discriminator 2
 1732 0b66 8B81      		ldd r24,Y+3
 1733 0b68 9C81      		ldd r25,Y+4
 1734 0b6a 0196      		adiw r24,1
 1735 0b6c 9C83      		std Y+4,r25
 1736 0b6e 8B83      		std Y+3,r24
 1737               	.L44:
1248:lp_solve_5.5/colamd/colamd.c **** 	{
 1738               		.loc 1 1248 0 is_stmt 0 discriminator 1
 1739 0b70 CE01      		movw r24,r28
 1740 0b72 8D51      		subi r24,29
 1741 0b74 9F4F      		sbci r25,-1
 1742 0b76 2B81      		ldd r18,Y+3
 1743 0b78 3C81      		ldd r19,Y+4
 1744 0b7a FC01      		movw r30,r24
 1745 0b7c 8081      		ld r24,Z
 1746 0b7e 9181      		ldd r25,Z+1
 1747 0b80 2817      		cp r18,r24
 1748 0b82 3907      		cpc r19,r25
 1749 0b84 04F4      		brge .+2
 1750 0b86 00C0      		rjmp .L48
 1751 0b88 00C0      		rjmp .L49
 1752               	.L43:
1261:lp_solve_5.5/colamd/colamd.c **** 		}
1262:lp_solve_5.5/colamd/colamd.c **** 	    }
1263:lp_solve_5.5/colamd/colamd.c **** 	}
1264:lp_solve_5.5/colamd/colamd.c ****     }
1265:lp_solve_5.5/colamd/colamd.c ****     else
1266:lp_solve_5.5/colamd/colamd.c ****     {
1267:lp_solve_5.5/colamd/colamd.c **** 	/* Matrix is jumbled.  Do not add duplicates to M.  Unsorted cols OK. */
1268:lp_solve_5.5/colamd/colamd.c **** 	DEBUG0 (("symamd: Duplicates in A.\n")) ;
1269:lp_solve_5.5/colamd/colamd.c **** 	for (i = 0 ; i < n ; i++)
 1753               		.loc 1 1269 0 is_stmt 1
 1754 0b8a 1A82      		std Y+2,__zero_reg__
 1755 0b8c 1982      		std Y+1,__zero_reg__
 1756 0b8e 00C0      		rjmp .L50
 1757               	.L51:
1270:lp_solve_5.5/colamd/colamd.c **** 	{
1271:lp_solve_5.5/colamd/colamd.c **** 	    mark [i] = -1 ;
 1758               		.loc 1 1271 0 discriminator 3
 1759 0b90 8981      		ldd r24,Y+1
 1760 0b92 9A81      		ldd r25,Y+2
 1761 0b94 880F      		lsl r24
 1762 0b96 991F      		rol r25
 1763 0b98 2F85      		ldd r18,Y+15
 1764 0b9a 3889      		ldd r19,Y+16
 1765 0b9c 820F      		add r24,r18
 1766 0b9e 931F      		adc r25,r19
 1767 0ba0 2FEF      		ldi r18,lo8(-1)
 1768 0ba2 3FEF      		ldi r19,lo8(-1)
 1769 0ba4 FC01      		movw r30,r24
 1770 0ba6 3183      		std Z+1,r19
 1771 0ba8 2083      		st Z,r18
1269:lp_solve_5.5/colamd/colamd.c **** 	{
 1772               		.loc 1 1269 0 discriminator 3
 1773 0baa 8981      		ldd r24,Y+1
 1774 0bac 9A81      		ldd r25,Y+2
 1775 0bae 0196      		adiw r24,1
 1776 0bb0 9A83      		std Y+2,r25
 1777 0bb2 8983      		std Y+1,r24
 1778               	.L50:
1269:lp_solve_5.5/colamd/colamd.c **** 	{
 1779               		.loc 1 1269 0 is_stmt 0 discriminator 1
 1780 0bb4 CE01      		movw r24,r28
 1781 0bb6 8D51      		subi r24,29
 1782 0bb8 9F4F      		sbci r25,-1
 1783 0bba 2981      		ldd r18,Y+1
 1784 0bbc 3A81      		ldd r19,Y+2
 1785 0bbe FC01      		movw r30,r24
 1786 0bc0 8081      		ld r24,Z
 1787 0bc2 9181      		ldd r25,Z+1
 1788 0bc4 2817      		cp r18,r24
 1789 0bc6 3907      		cpc r19,r25
 1790 0bc8 04F0      		brlt .L51
1272:lp_solve_5.5/colamd/colamd.c **** 	}
1273:lp_solve_5.5/colamd/colamd.c **** 	for (j = 0 ; j < n ; j++)
 1791               		.loc 1 1273 0 is_stmt 1
 1792 0bca 1C82      		std Y+4,__zero_reg__
 1793 0bcc 1B82      		std Y+3,__zero_reg__
 1794 0bce 00C0      		rjmp .L52
 1795               	.L56:
1274:lp_solve_5.5/colamd/colamd.c **** 	{
1275:lp_solve_5.5/colamd/colamd.c **** 	    ASSERT (p [j+1] - p [j] >= 0) ;
1276:lp_solve_5.5/colamd/colamd.c **** 	    for (pp = p [j] ; pp < p [j+1] ; pp++)
 1796               		.loc 1 1276 0
 1797 0bd0 8B81      		ldd r24,Y+3
 1798 0bd2 9C81      		ldd r25,Y+4
 1799 0bd4 880F      		lsl r24
 1800 0bd6 991F      		rol r25
 1801 0bd8 9E01      		movw r18,r28
 1802 0bda 2951      		subi r18,25
 1803 0bdc 3F4F      		sbci r19,-1
 1804 0bde F901      		movw r30,r18
 1805 0be0 2081      		ld r18,Z
 1806 0be2 3181      		ldd r19,Z+1
 1807 0be4 820F      		add r24,r18
 1808 0be6 931F      		adc r25,r19
 1809 0be8 FC01      		movw r30,r24
 1810 0bea 8081      		ld r24,Z
 1811 0bec 9181      		ldd r25,Z+1
 1812 0bee 9887      		std Y+8,r25
 1813 0bf0 8F83      		std Y+7,r24
 1814 0bf2 00C0      		rjmp .L53
 1815               	.L55:
1277:lp_solve_5.5/colamd/colamd.c **** 	    {
1278:lp_solve_5.5/colamd/colamd.c **** 		i = A [pp] ;
 1816               		.loc 1 1278 0
 1817 0bf4 8F81      		ldd r24,Y+7
 1818 0bf6 9885      		ldd r25,Y+8
 1819 0bf8 880F      		lsl r24
 1820 0bfa 991F      		rol r25
 1821 0bfc 9E01      		movw r18,r28
 1822 0bfe 2B51      		subi r18,27
 1823 0c00 3F4F      		sbci r19,-1
 1824 0c02 F901      		movw r30,r18
 1825 0c04 2081      		ld r18,Z
 1826 0c06 3181      		ldd r19,Z+1
 1827 0c08 820F      		add r24,r18
 1828 0c0a 931F      		adc r25,r19
 1829 0c0c FC01      		movw r30,r24
 1830 0c0e 8081      		ld r24,Z
 1831 0c10 9181      		ldd r25,Z+1
 1832 0c12 9A83      		std Y+2,r25
 1833 0c14 8983      		std Y+1,r24
1279:lp_solve_5.5/colamd/colamd.c **** 		ASSERT (i >= 0 && i < n) ;
1280:lp_solve_5.5/colamd/colamd.c **** 		if (i > j && mark [i] != j)
 1834               		.loc 1 1280 0
 1835 0c16 2981      		ldd r18,Y+1
 1836 0c18 3A81      		ldd r19,Y+2
 1837 0c1a 8B81      		ldd r24,Y+3
 1838 0c1c 9C81      		ldd r25,Y+4
 1839 0c1e 8217      		cp r24,r18
 1840 0c20 9307      		cpc r25,r19
 1841 0c22 04F0      		brlt .+2
 1842 0c24 00C0      		rjmp .L54
 1843               		.loc 1 1280 0 is_stmt 0 discriminator 1
 1844 0c26 8981      		ldd r24,Y+1
 1845 0c28 9A81      		ldd r25,Y+2
 1846 0c2a 880F      		lsl r24
 1847 0c2c 991F      		rol r25
 1848 0c2e 2F85      		ldd r18,Y+15
 1849 0c30 3889      		ldd r19,Y+16
 1850 0c32 820F      		add r24,r18
 1851 0c34 931F      		adc r25,r19
 1852 0c36 FC01      		movw r30,r24
 1853 0c38 2081      		ld r18,Z
 1854 0c3a 3181      		ldd r19,Z+1
 1855 0c3c 8B81      		ldd r24,Y+3
 1856 0c3e 9C81      		ldd r25,Y+4
 1857 0c40 2817      		cp r18,r24
 1858 0c42 3907      		cpc r19,r25
 1859 0c44 01F4      		brne .+2
 1860 0c46 00C0      		rjmp .L54
1281:lp_solve_5.5/colamd/colamd.c **** 		{
1282:lp_solve_5.5/colamd/colamd.c **** 		    /* row k of M contains column indices i and j */
1283:lp_solve_5.5/colamd/colamd.c **** 		    M [count [i]++] = k ;
 1861               		.loc 1 1283 0 is_stmt 1
 1862 0c48 8981      		ldd r24,Y+1
 1863 0c4a 9A81      		ldd r25,Y+2
 1864 0c4c 880F      		lsl r24
 1865 0c4e 991F      		rol r25
 1866 0c50 2D85      		ldd r18,Y+13
 1867 0c52 3E85      		ldd r19,Y+14
 1868 0c54 820F      		add r24,r18
 1869 0c56 931F      		adc r25,r19
 1870 0c58 FC01      		movw r30,r24
 1871 0c5a 2081      		ld r18,Z
 1872 0c5c 3181      		ldd r19,Z+1
 1873 0c5e A901      		movw r20,r18
 1874 0c60 4F5F      		subi r20,-1
 1875 0c62 5F4F      		sbci r21,-1
 1876 0c64 FC01      		movw r30,r24
 1877 0c66 5183      		std Z+1,r21
 1878 0c68 4083      		st Z,r20
 1879 0c6a C901      		movw r24,r18
 1880 0c6c 880F      		lsl r24
 1881 0c6e 991F      		rol r25
 1882 0c70 298D      		ldd r18,Y+25
 1883 0c72 3A8D      		ldd r19,Y+26
 1884 0c74 820F      		add r24,r18
 1885 0c76 931F      		adc r25,r19
 1886 0c78 2D81      		ldd r18,Y+5
 1887 0c7a 3E81      		ldd r19,Y+6
 1888 0c7c FC01      		movw r30,r24
 1889 0c7e 3183      		std Z+1,r19
 1890 0c80 2083      		st Z,r18
1284:lp_solve_5.5/colamd/colamd.c **** 		    M [count [j]++] = k ;
 1891               		.loc 1 1284 0
 1892 0c82 8B81      		ldd r24,Y+3
 1893 0c84 9C81      		ldd r25,Y+4
 1894 0c86 880F      		lsl r24
 1895 0c88 991F      		rol r25
 1896 0c8a 2D85      		ldd r18,Y+13
 1897 0c8c 3E85      		ldd r19,Y+14
 1898 0c8e 820F      		add r24,r18
 1899 0c90 931F      		adc r25,r19
 1900 0c92 FC01      		movw r30,r24
 1901 0c94 2081      		ld r18,Z
 1902 0c96 3181      		ldd r19,Z+1
 1903 0c98 A901      		movw r20,r18
 1904 0c9a 4F5F      		subi r20,-1
 1905 0c9c 5F4F      		sbci r21,-1
 1906 0c9e FC01      		movw r30,r24
 1907 0ca0 5183      		std Z+1,r21
 1908 0ca2 4083      		st Z,r20
 1909 0ca4 C901      		movw r24,r18
 1910 0ca6 880F      		lsl r24
 1911 0ca8 991F      		rol r25
 1912 0caa 298D      		ldd r18,Y+25
 1913 0cac 3A8D      		ldd r19,Y+26
 1914 0cae 820F      		add r24,r18
 1915 0cb0 931F      		adc r25,r19
 1916 0cb2 2D81      		ldd r18,Y+5
 1917 0cb4 3E81      		ldd r19,Y+6
 1918 0cb6 FC01      		movw r30,r24
 1919 0cb8 3183      		std Z+1,r19
 1920 0cba 2083      		st Z,r18
1285:lp_solve_5.5/colamd/colamd.c **** 		    k++ ;
 1921               		.loc 1 1285 0
 1922 0cbc 8D81      		ldd r24,Y+5
 1923 0cbe 9E81      		ldd r25,Y+6
 1924 0cc0 0196      		adiw r24,1
 1925 0cc2 9E83      		std Y+6,r25
 1926 0cc4 8D83      		std Y+5,r24
1286:lp_solve_5.5/colamd/colamd.c **** 		    mark [i] = j ;
 1927               		.loc 1 1286 0
 1928 0cc6 8981      		ldd r24,Y+1
 1929 0cc8 9A81      		ldd r25,Y+2
 1930 0cca 880F      		lsl r24
 1931 0ccc 991F      		rol r25
 1932 0cce 2F85      		ldd r18,Y+15
 1933 0cd0 3889      		ldd r19,Y+16
 1934 0cd2 820F      		add r24,r18
 1935 0cd4 931F      		adc r25,r19
 1936 0cd6 2B81      		ldd r18,Y+3
 1937 0cd8 3C81      		ldd r19,Y+4
 1938 0cda FC01      		movw r30,r24
 1939 0cdc 3183      		std Z+1,r19
 1940 0cde 2083      		st Z,r18
 1941               	.L54:
1276:lp_solve_5.5/colamd/colamd.c **** 	    {
 1942               		.loc 1 1276 0 discriminator 2
 1943 0ce0 8F81      		ldd r24,Y+7
 1944 0ce2 9885      		ldd r25,Y+8
 1945 0ce4 0196      		adiw r24,1
 1946 0ce6 9887      		std Y+8,r25
 1947 0ce8 8F83      		std Y+7,r24
 1948               	.L53:
1276:lp_solve_5.5/colamd/colamd.c **** 	    {
 1949               		.loc 1 1276 0 is_stmt 0 discriminator 1
 1950 0cea 8B81      		ldd r24,Y+3
 1951 0cec 9C81      		ldd r25,Y+4
 1952 0cee 0196      		adiw r24,1
 1953 0cf0 880F      		lsl r24
 1954 0cf2 991F      		rol r25
 1955 0cf4 9E01      		movw r18,r28
 1956 0cf6 2951      		subi r18,25
 1957 0cf8 3F4F      		sbci r19,-1
 1958 0cfa F901      		movw r30,r18
 1959 0cfc 2081      		ld r18,Z
 1960 0cfe 3181      		ldd r19,Z+1
 1961 0d00 820F      		add r24,r18
 1962 0d02 931F      		adc r25,r19
 1963 0d04 FC01      		movw r30,r24
 1964 0d06 2081      		ld r18,Z
 1965 0d08 3181      		ldd r19,Z+1
 1966 0d0a 8F81      		ldd r24,Y+7
 1967 0d0c 9885      		ldd r25,Y+8
 1968 0d0e 8217      		cp r24,r18
 1969 0d10 9307      		cpc r25,r19
 1970 0d12 04F4      		brge .+2
 1971 0d14 00C0      		rjmp .L55
1273:lp_solve_5.5/colamd/colamd.c **** 	{
 1972               		.loc 1 1273 0 is_stmt 1 discriminator 2
 1973 0d16 8B81      		ldd r24,Y+3
 1974 0d18 9C81      		ldd r25,Y+4
 1975 0d1a 0196      		adiw r24,1
 1976 0d1c 9C83      		std Y+4,r25
 1977 0d1e 8B83      		std Y+3,r24
 1978               	.L52:
1273:lp_solve_5.5/colamd/colamd.c **** 	{
 1979               		.loc 1 1273 0 is_stmt 0 discriminator 1
 1980 0d20 CE01      		movw r24,r28
 1981 0d22 8D51      		subi r24,29
 1982 0d24 9F4F      		sbci r25,-1
 1983 0d26 2B81      		ldd r18,Y+3
 1984 0d28 3C81      		ldd r19,Y+4
 1985 0d2a FC01      		movw r30,r24
 1986 0d2c 8081      		ld r24,Z
 1987 0d2e 9181      		ldd r25,Z+1
 1988 0d30 2817      		cp r18,r24
 1989 0d32 3907      		cpc r19,r25
 1990 0d34 04F4      		brge .+2
 1991 0d36 00C0      		rjmp .L56
1287:lp_solve_5.5/colamd/colamd.c **** 		}
1288:lp_solve_5.5/colamd/colamd.c **** 	    }
1289:lp_solve_5.5/colamd/colamd.c **** 	}
1290:lp_solve_5.5/colamd/colamd.c **** 	(*release) ((void *) mark) ;
 1992               		.loc 1 1290 0 is_stmt 1
 1993 0d38 4F85      		ldd r20,Y+15
 1994 0d3a 5889      		ldd r21,Y+16
 1995 0d3c CE01      		movw r24,r28
 1996 0d3e 8F50      		subi r24,15
 1997 0d40 9F4F      		sbci r25,-1
 1998 0d42 FC01      		movw r30,r24
 1999 0d44 2081      		ld r18,Z
 2000 0d46 3181      		ldd r19,Z+1
 2001 0d48 CA01      		movw r24,r20
 2002 0d4a F901      		movw r30,r18
 2003 0d4c 0995      		icall
 2004               	.L49:
1291:lp_solve_5.5/colamd/colamd.c ****     }
1292:lp_solve_5.5/colamd/colamd.c **** 
1293:lp_solve_5.5/colamd/colamd.c ****     /* count and mark no longer needed */
1294:lp_solve_5.5/colamd/colamd.c ****     (*release) ((void *) count) ;
 2005               		.loc 1 1294 0
 2006 0d4e 4D85      		ldd r20,Y+13
 2007 0d50 5E85      		ldd r21,Y+14
 2008 0d52 CE01      		movw r24,r28
 2009 0d54 8F50      		subi r24,15
 2010 0d56 9F4F      		sbci r25,-1
 2011 0d58 FC01      		movw r30,r24
 2012 0d5a 2081      		ld r18,Z
 2013 0d5c 3181      		ldd r19,Z+1
 2014 0d5e CA01      		movw r24,r20
 2015 0d60 F901      		movw r30,r18
 2016 0d62 0995      		icall
1295:lp_solve_5.5/colamd/colamd.c ****     ASSERT (k == n_row) ;
1296:lp_solve_5.5/colamd/colamd.c **** 
1297:lp_solve_5.5/colamd/colamd.c ****     /* === Adjust the knobs for M =========================================== */
1298:lp_solve_5.5/colamd/colamd.c **** 
1299:lp_solve_5.5/colamd/colamd.c ****     for (i = 0 ; i < COLAMD_KNOBS ; i++)
 2017               		.loc 1 1299 0
 2018 0d64 1A82      		std Y+2,__zero_reg__
 2019 0d66 1982      		std Y+1,__zero_reg__
 2020 0d68 00C0      		rjmp .L57
 2021               	.L58:
1300:lp_solve_5.5/colamd/colamd.c ****     {
1301:lp_solve_5.5/colamd/colamd.c **** 	cknobs [i] = knobs [i] ;
 2022               		.loc 1 1301 0 discriminator 3
 2023 0d6a 8981      		ldd r24,Y+1
 2024 0d6c 9A81      		ldd r25,Y+2
 2025 0d6e 880F      		lsl r24
 2026 0d70 991F      		rol r25
 2027 0d72 880F      		lsl r24
 2028 0d74 991F      		rol r25
 2029 0d76 9E01      		movw r18,r28
 2030 0d78 2551      		subi r18,21
 2031 0d7a 3F4F      		sbci r19,-1
 2032 0d7c F901      		movw r30,r18
 2033 0d7e 2081      		ld r18,Z
 2034 0d80 3181      		ldd r19,Z+1
 2035 0d82 820F      		add r24,r18
 2036 0d84 931F      		adc r25,r19
 2037 0d86 FC01      		movw r30,r24
 2038 0d88 8081      		ld r24,Z
 2039 0d8a 9181      		ldd r25,Z+1
 2040 0d8c A281      		ldd r26,Z+2
 2041 0d8e B381      		ldd r27,Z+3
 2042 0d90 2981      		ldd r18,Y+1
 2043 0d92 3A81      		ldd r19,Y+2
 2044 0d94 220F      		lsl r18
 2045 0d96 331F      		rol r19
 2046 0d98 220F      		lsl r18
 2047 0d9a 331F      		rol r19
 2048 0d9c AE01      		movw r20,r28
 2049 0d9e 4F5F      		subi r20,-1
 2050 0da0 5F4F      		sbci r21,-1
 2051 0da2 240F      		add r18,r20
 2052 0da4 351F      		adc r19,r21
 2053 0da6 265E      		subi r18,-26
 2054 0da8 3F4F      		sbci r19,-1
 2055 0daa F901      		movw r30,r18
 2056 0dac 8083      		st Z,r24
 2057 0dae 9183      		std Z+1,r25
 2058 0db0 A283      		std Z+2,r26
 2059 0db2 B383      		std Z+3,r27
1299:lp_solve_5.5/colamd/colamd.c ****     {
 2060               		.loc 1 1299 0 discriminator 3
 2061 0db4 8981      		ldd r24,Y+1
 2062 0db6 9A81      		ldd r25,Y+2
 2063 0db8 0196      		adiw r24,1
 2064 0dba 9A83      		std Y+2,r25
 2065 0dbc 8983      		std Y+1,r24
 2066               	.L57:
1299:lp_solve_5.5/colamd/colamd.c ****     {
 2067               		.loc 1 1299 0 is_stmt 0 discriminator 1
 2068 0dbe 8981      		ldd r24,Y+1
 2069 0dc0 9A81      		ldd r25,Y+2
 2070 0dc2 4497      		sbiw r24,20
 2071 0dc4 04F0      		brlt .L58
1302:lp_solve_5.5/colamd/colamd.c ****     }
1303:lp_solve_5.5/colamd/colamd.c **** 
1304:lp_solve_5.5/colamd/colamd.c ****     /* there are no dense rows in M */
1305:lp_solve_5.5/colamd/colamd.c ****     cknobs [COLAMD_DENSE_ROW] = 1.0 ;
 2072               		.loc 1 1305 0 is_stmt 1
 2073 0dc6 80E0      		ldi r24,0
 2074 0dc8 90E0      		ldi r25,0
 2075 0dca A0E8      		ldi r26,lo8(-128)
 2076 0dcc BFE3      		ldi r27,lo8(63)
 2077 0dce 8B8F      		std Y+27,r24
 2078 0dd0 9C8F      		std Y+28,r25
 2079 0dd2 AD8F      		std Y+29,r26
 2080 0dd4 BE8F      		std Y+30,r27
1306:lp_solve_5.5/colamd/colamd.c **** 
1307:lp_solve_5.5/colamd/colamd.c ****     if (n_row != 0 && n < n_row)
 2081               		.loc 1 1307 0
 2082 0dd6 8D89      		ldd r24,Y+21
 2083 0dd8 9E89      		ldd r25,Y+22
 2084 0dda 892B      		or r24,r25
 2085 0ddc 01F4      		brne .+2
 2086 0dde 00C0      		rjmp .L59
 2087               		.loc 1 1307 0 is_stmt 0 discriminator 1
 2088 0de0 CE01      		movw r24,r28
 2089 0de2 8D51      		subi r24,29
 2090 0de4 9F4F      		sbci r25,-1
 2091 0de6 FC01      		movw r30,r24
 2092 0de8 2081      		ld r18,Z
 2093 0dea 3181      		ldd r19,Z+1
 2094 0dec 8D89      		ldd r24,Y+21
 2095 0dee 9E89      		ldd r25,Y+22
 2096 0df0 2817      		cp r18,r24
 2097 0df2 3907      		cpc r19,r25
 2098 0df4 04F4      		brge .L59
1308:lp_solve_5.5/colamd/colamd.c ****     {
1309:lp_solve_5.5/colamd/colamd.c **** 	/* On input, the knob is a fraction of 1..n, the number of rows of A. */
1310:lp_solve_5.5/colamd/colamd.c **** 	/* Convert it to a fraction of 1..n_row, of the number of rows of M. */
1311:lp_solve_5.5/colamd/colamd.c ****     	cknobs [COLAMD_DENSE_COL] = (knobs [COLAMD_DENSE_ROW] * n) / n_row ;
 2099               		.loc 1 1311 0 is_stmt 1
 2100 0df6 CE01      		movw r24,r28
 2101 0df8 8551      		subi r24,21
 2102 0dfa 9F4F      		sbci r25,-1
 2103 0dfc FC01      		movw r30,r24
 2104 0dfe 8081      		ld r24,Z
 2105 0e00 9181      		ldd r25,Z+1
 2106 0e02 FC01      		movw r30,r24
 2107 0e04 C080      		ld r12,Z
 2108 0e06 D180      		ldd r13,Z+1
 2109 0e08 E280      		ldd r14,Z+2
 2110 0e0a F380      		ldd r15,Z+3
 2111 0e0c CE01      		movw r24,r28
 2112 0e0e 8D51      		subi r24,29
 2113 0e10 9F4F      		sbci r25,-1
 2114 0e12 FC01      		movw r30,r24
 2115 0e14 8081      		ld r24,Z
 2116 0e16 9181      		ldd r25,Z+1
 2117 0e18 092E      		mov __tmp_reg__,r25
 2118 0e1a 000C      		lsl r0
 2119 0e1c AA0B      		sbc r26,r26
 2120 0e1e BB0B      		sbc r27,r27
 2121 0e20 BC01      		movw r22,r24
 2122 0e22 CD01      		movw r24,r26
 2123 0e24 0E94 0000 		call __floatsisf
 2124 0e28 DC01      		movw r26,r24
 2125 0e2a CB01      		movw r24,r22
 2126 0e2c 9C01      		movw r18,r24
 2127 0e2e AD01      		movw r20,r26
 2128 0e30 C701      		movw r24,r14
 2129 0e32 B601      		movw r22,r12
 2130 0e34 0E94 0000 		call __mulsf3
 2131 0e38 DC01      		movw r26,r24
 2132 0e3a CB01      		movw r24,r22
 2133 0e3c 6C01      		movw r12,r24
 2134 0e3e 7D01      		movw r14,r26
 2135 0e40 8D89      		ldd r24,Y+21
 2136 0e42 9E89      		ldd r25,Y+22
 2137 0e44 092E      		mov __tmp_reg__,r25
 2138 0e46 000C      		lsl r0
 2139 0e48 AA0B      		sbc r26,r26
 2140 0e4a BB0B      		sbc r27,r27
 2141 0e4c BC01      		movw r22,r24
 2142 0e4e CD01      		movw r24,r26
 2143 0e50 0E94 0000 		call __floatsisf
 2144 0e54 DC01      		movw r26,r24
 2145 0e56 CB01      		movw r24,r22
 2146 0e58 9C01      		movw r18,r24
 2147 0e5a AD01      		movw r20,r26
 2148 0e5c C701      		movw r24,r14
 2149 0e5e B601      		movw r22,r12
 2150 0e60 0E94 0000 		call __divsf3
 2151 0e64 DC01      		movw r26,r24
 2152 0e66 CB01      		movw r24,r22
 2153 0e68 8F8F      		std Y+31,r24
 2154 0e6a 98A3      		std Y+32,r25
 2155 0e6c A9A3      		std Y+33,r26
 2156 0e6e BAA3      		std Y+34,r27
 2157 0e70 00C0      		rjmp .L60
 2158               	.L59:
1312:lp_solve_5.5/colamd/colamd.c ****     }
1313:lp_solve_5.5/colamd/colamd.c ****     else
1314:lp_solve_5.5/colamd/colamd.c ****     {
1315:lp_solve_5.5/colamd/colamd.c **** 	/* no dense columns in M */
1316:lp_solve_5.5/colamd/colamd.c ****     	cknobs [COLAMD_DENSE_COL] = 1.0 ;
 2159               		.loc 1 1316 0
 2160 0e72 80E0      		ldi r24,0
 2161 0e74 90E0      		ldi r25,0
 2162 0e76 A0E8      		ldi r26,lo8(-128)
 2163 0e78 BFE3      		ldi r27,lo8(63)
 2164 0e7a 8F8F      		std Y+31,r24
 2165 0e7c 98A3      		std Y+32,r25
 2166 0e7e A9A3      		std Y+33,r26
 2167 0e80 BAA3      		std Y+34,r27
 2168               	.L60:
1317:lp_solve_5.5/colamd/colamd.c ****     }
1318:lp_solve_5.5/colamd/colamd.c **** 
1319:lp_solve_5.5/colamd/colamd.c ****     DEBUG0 (("symamd: dense col knob for M: %g\n", cknobs [COLAMD_DENSE_COL])) ;
1320:lp_solve_5.5/colamd/colamd.c **** 
1321:lp_solve_5.5/colamd/colamd.c ****     /* === Order the columns of M =========================================== */
1322:lp_solve_5.5/colamd/colamd.c **** 
1323:lp_solve_5.5/colamd/colamd.c ****     if (!colamd (n_row, n, Mlen, M, perm, cknobs, cstats))
 2169               		.loc 1 1323 0
 2170 0e82 8E01      		movw r16,r28
 2171 0e84 0554      		subi r16,69
 2172 0e86 1F4F      		sbci r17,-1
 2173 0e88 DE01      		movw r26,r28
 2174 0e8a 5B96      		adiw r26,27
 2175 0e8c CE01      		movw r24,r28
 2176 0e8e 8751      		subi r24,23
 2177 0e90 9F4F      		sbci r25,-1
 2178 0e92 FC01      		movw r30,r24
 2179 0e94 0190      		ld __tmp_reg__,Z+
 2180 0e96 F081      		ld r31,Z
 2181 0e98 E02D      		mov r30,__tmp_reg__
 2182 0e9a CD50      		subi r28,lo8(-243)
 2183 0e9c DF4F      		sbci r29,hi8(-243)
 2184 0e9e F983      		std Y+1,r31
 2185 0ea0 E883      		st Y,r30
 2186 0ea2 C35F      		subi r28,lo8(243)
 2187 0ea4 D040      		sbci r29,hi8(243)
 2188 0ea6 298D      		ldd r18,Y+25
 2189 0ea8 3A8D      		ldd r19,Y+26
 2190 0eaa 4F89      		ldd r20,Y+23
 2191 0eac 588D      		ldd r21,Y+24
 2192 0eae CE01      		movw r24,r28
 2193 0eb0 8D51      		subi r24,29
 2194 0eb2 9F4F      		sbci r25,-1
 2195 0eb4 FC01      		movw r30,r24
 2196 0eb6 6081      		ld r22,Z
 2197 0eb8 7181      		ldd r23,Z+1
 2198 0eba 8D89      		ldd r24,Y+21
 2199 0ebc 9E89      		ldd r25,Y+22
 2200 0ebe 6801      		movw r12,r16
 2201 0ec0 7D01      		movw r14,r26
 2202 0ec2 CD50      		subi r28,lo8(-243)
 2203 0ec4 DF4F      		sbci r29,hi8(-243)
 2204 0ec6 0881      		ld r16,Y
 2205 0ec8 1981      		ldd r17,Y+1
 2206 0eca C35F      		subi r28,lo8(243)
 2207 0ecc D040      		sbci r29,hi8(243)
 2208 0ece 0E94 0000 		call colamd
 2209 0ed2 892B      		or r24,r25
 2210 0ed4 01F4      		brne .L61
1324:lp_solve_5.5/colamd/colamd.c ****     {
1325:lp_solve_5.5/colamd/colamd.c **** 	/* This "cannot" happen, unless there is a bug in the code. */
1326:lp_solve_5.5/colamd/colamd.c **** 	stats [COLAMD_STATUS] = COLAMD_ERROR_internal_error ;
 2211               		.loc 1 1326 0
 2212 0ed6 CE01      		movw r24,r28
 2213 0ed8 8351      		subi r24,19
 2214 0eda 9F4F      		sbci r25,-1
 2215 0edc FC01      		movw r30,r24
 2216 0ede 8081      		ld r24,Z
 2217 0ee0 9181      		ldd r25,Z+1
 2218 0ee2 0696      		adiw r24,6
 2219 0ee4 29E1      		ldi r18,lo8(25)
 2220 0ee6 3CEF      		ldi r19,lo8(-4)
 2221 0ee8 FC01      		movw r30,r24
 2222 0eea 3183      		std Z+1,r19
 2223 0eec 2083      		st Z,r18
1327:lp_solve_5.5/colamd/colamd.c **** 	(*release) ((void *) M) ;
 2224               		.loc 1 1327 0
 2225 0eee 498D      		ldd r20,Y+25
 2226 0ef0 5A8D      		ldd r21,Y+26
 2227 0ef2 CE01      		movw r24,r28
 2228 0ef4 8F50      		subi r24,15
 2229 0ef6 9F4F      		sbci r25,-1
 2230 0ef8 FC01      		movw r30,r24
 2231 0efa 2081      		ld r18,Z
 2232 0efc 3181      		ldd r19,Z+1
 2233 0efe CA01      		movw r24,r20
 2234 0f00 F901      		movw r30,r18
 2235 0f02 0995      		icall
1328:lp_solve_5.5/colamd/colamd.c **** 	DEBUG0 (("symamd: internal error!\n")) ;
1329:lp_solve_5.5/colamd/colamd.c **** 	return (FALSE) ;
 2236               		.loc 1 1329 0
 2237 0f04 80E0      		ldi r24,0
 2238 0f06 90E0      		ldi r25,0
 2239 0f08 00C0      		rjmp .L62
 2240               	.L61:
1330:lp_solve_5.5/colamd/colamd.c ****     }
1331:lp_solve_5.5/colamd/colamd.c **** 
1332:lp_solve_5.5/colamd/colamd.c ****     /* Note that the output permutation is now in perm */
1333:lp_solve_5.5/colamd/colamd.c **** 
1334:lp_solve_5.5/colamd/colamd.c ****     /* === get the statistics for symamd from colamd ======================== */
1335:lp_solve_5.5/colamd/colamd.c **** 
1336:lp_solve_5.5/colamd/colamd.c ****     /* note that a dense column in colamd means a dense row and col in symamd */
1337:lp_solve_5.5/colamd/colamd.c ****     stats [COLAMD_DENSE_ROW]    = cstats [COLAMD_DENSE_COL] ;
 2241               		.loc 1 1337 0
 2242 0f0a CE01      		movw r24,r28
 2243 0f0c 8554      		subi r24,69
 2244 0f0e 9F4F      		sbci r25,-1
 2245 0f10 FC01      		movw r30,r24
 2246 0f12 2281      		ldd r18,Z+2
 2247 0f14 3381      		ldd r19,Z+3
 2248 0f16 CE01      		movw r24,r28
 2249 0f18 8351      		subi r24,19
 2250 0f1a 9F4F      		sbci r25,-1
 2251 0f1c FC01      		movw r30,r24
 2252 0f1e 8081      		ld r24,Z
 2253 0f20 9181      		ldd r25,Z+1
 2254 0f22 FC01      		movw r30,r24
 2255 0f24 3183      		std Z+1,r19
 2256 0f26 2083      		st Z,r18
1338:lp_solve_5.5/colamd/colamd.c ****     stats [COLAMD_DENSE_COL]    = cstats [COLAMD_DENSE_COL] ;
 2257               		.loc 1 1338 0
 2258 0f28 CE01      		movw r24,r28
 2259 0f2a 8351      		subi r24,19
 2260 0f2c 9F4F      		sbci r25,-1
 2261 0f2e FC01      		movw r30,r24
 2262 0f30 8081      		ld r24,Z
 2263 0f32 9181      		ldd r25,Z+1
 2264 0f34 0296      		adiw r24,2
 2265 0f36 9E01      		movw r18,r28
 2266 0f38 2554      		subi r18,69
 2267 0f3a 3F4F      		sbci r19,-1
 2268 0f3c F901      		movw r30,r18
 2269 0f3e 2281      		ldd r18,Z+2
 2270 0f40 3381      		ldd r19,Z+3
 2271 0f42 FC01      		movw r30,r24
 2272 0f44 3183      		std Z+1,r19
 2273 0f46 2083      		st Z,r18
1339:lp_solve_5.5/colamd/colamd.c ****     stats [COLAMD_DEFRAG_COUNT] = cstats [COLAMD_DEFRAG_COUNT] ;
 2274               		.loc 1 1339 0
 2275 0f48 CE01      		movw r24,r28
 2276 0f4a 8351      		subi r24,19
 2277 0f4c 9F4F      		sbci r25,-1
 2278 0f4e FC01      		movw r30,r24
 2279 0f50 8081      		ld r24,Z
 2280 0f52 9181      		ldd r25,Z+1
 2281 0f54 0496      		adiw r24,4
 2282 0f56 9E01      		movw r18,r28
 2283 0f58 2554      		subi r18,69
 2284 0f5a 3F4F      		sbci r19,-1
 2285 0f5c F901      		movw r30,r18
 2286 0f5e 2481      		ldd r18,Z+4
 2287 0f60 3581      		ldd r19,Z+5
 2288 0f62 FC01      		movw r30,r24
 2289 0f64 3183      		std Z+1,r19
 2290 0f66 2083      		st Z,r18
1340:lp_solve_5.5/colamd/colamd.c **** 
1341:lp_solve_5.5/colamd/colamd.c ****     /* === Free M =========================================================== */
1342:lp_solve_5.5/colamd/colamd.c **** 
1343:lp_solve_5.5/colamd/colamd.c ****     (*release) ((void *) M) ;
 2291               		.loc 1 1343 0
 2292 0f68 498D      		ldd r20,Y+25
 2293 0f6a 5A8D      		ldd r21,Y+26
 2294 0f6c CE01      		movw r24,r28
 2295 0f6e 8F50      		subi r24,15
 2296 0f70 9F4F      		sbci r25,-1
 2297 0f72 FC01      		movw r30,r24
 2298 0f74 2081      		ld r18,Z
 2299 0f76 3181      		ldd r19,Z+1
 2300 0f78 CA01      		movw r24,r20
 2301 0f7a F901      		movw r30,r18
 2302 0f7c 0995      		icall
1344:lp_solve_5.5/colamd/colamd.c ****     DEBUG0 (("symamd: done.\n")) ;
1345:lp_solve_5.5/colamd/colamd.c ****     return (TRUE) ;
 2303               		.loc 1 1345 0
 2304 0f7e 81E0      		ldi r24,lo8(1)
 2305 0f80 90E0      		ldi r25,0
 2306               	.L62:
 2307               	/* epilogue start */
1346:lp_solve_5.5/colamd/colamd.c **** 
1347:lp_solve_5.5/colamd/colamd.c **** }
 2308               		.loc 1 1347 0 discriminator 1
 2309 0f82 CC50      		subi r28,12
 2310 0f84 DF4F      		sbci r29,-1
 2311 0f86 0FB6      		in __tmp_reg__,__SREG__
 2312 0f88 F894      		cli
 2313 0f8a DEBF      		out __SP_H__,r29
 2314 0f8c 0FBE      		out __SREG__,__tmp_reg__
 2315 0f8e CDBF      		out __SP_L__,r28
 2316 0f90 DF91      		pop r29
 2317 0f92 CF91      		pop r28
 2318 0f94 1F91      		pop r17
 2319 0f96 0F91      		pop r16
 2320 0f98 FF90      		pop r15
 2321 0f9a EF90      		pop r14
 2322 0f9c DF90      		pop r13
 2323 0f9e CF90      		pop r12
 2324 0fa0 BF90      		pop r11
 2325 0fa2 AF90      		pop r10
 2326 0fa4 0895      		ret
 2327               		.cfi_endproc
 2328               	.LFE7:
 2330               	.global	colamd
 2332               	colamd:
 2333               	.LFB8:
1348:lp_solve_5.5/colamd/colamd.c **** 
1349:lp_solve_5.5/colamd/colamd.c **** /* ========================================================================== */
1350:lp_solve_5.5/colamd/colamd.c **** /* === colamd =============================================================== */
1351:lp_solve_5.5/colamd/colamd.c **** /* ========================================================================== */
1352:lp_solve_5.5/colamd/colamd.c **** 
1353:lp_solve_5.5/colamd/colamd.c **** /*
1354:lp_solve_5.5/colamd/colamd.c ****     The colamd routine computes a column ordering Q of a sparse matrix
1355:lp_solve_5.5/colamd/colamd.c ****     A such that the LU factorization P(AQ) = LU remains sparse, where P is
1356:lp_solve_5.5/colamd/colamd.c ****     selected via partial pivoting.   The routine can also be viewed as
1357:lp_solve_5.5/colamd/colamd.c ****     providing a permutation Q such that the Cholesky factorization
1358:lp_solve_5.5/colamd/colamd.c ****     (AQ)'(AQ) = LL' remains sparse.
1359:lp_solve_5.5/colamd/colamd.c **** */
1360:lp_solve_5.5/colamd/colamd.c **** 
1361:lp_solve_5.5/colamd/colamd.c **** PUBLIC int colamd		/* returns TRUE if successful, FALSE otherwise*/
1362:lp_solve_5.5/colamd/colamd.c **** (
1363:lp_solve_5.5/colamd/colamd.c ****     /* === Parameters ======================================================= */
1364:lp_solve_5.5/colamd/colamd.c **** 
1365:lp_solve_5.5/colamd/colamd.c ****     int n_row,			/* number of rows in A */
1366:lp_solve_5.5/colamd/colamd.c ****     int n_col,			/* number of columns in A */
1367:lp_solve_5.5/colamd/colamd.c ****     int Alen,			/* length of A */
1368:lp_solve_5.5/colamd/colamd.c ****     int A [],			/* row indices of A */
1369:lp_solve_5.5/colamd/colamd.c ****     int p [],			/* pointers to columns in A */
1370:lp_solve_5.5/colamd/colamd.c ****     double knobs [COLAMD_KNOBS],/* parameters (uses defaults if NULL) */
1371:lp_solve_5.5/colamd/colamd.c ****     int stats [COLAMD_STATS]	/* output statistics and error codes */
1372:lp_solve_5.5/colamd/colamd.c **** )
1373:lp_solve_5.5/colamd/colamd.c **** {
 2334               		.loc 1 1373 0
 2335               		.cfi_startproc
 2336 0fa6 8F92      		push r8
 2337               	.LCFI20:
 2338               		.cfi_def_cfa_offset 3
 2339               		.cfi_offset 8, -2
 2340 0fa8 9F92      		push r9
 2341               	.LCFI21:
 2342               		.cfi_def_cfa_offset 4
 2343               		.cfi_offset 9, -3
 2344 0faa AF92      		push r10
 2345               	.LCFI22:
 2346               		.cfi_def_cfa_offset 5
 2347               		.cfi_offset 10, -4
 2348 0fac BF92      		push r11
 2349               	.LCFI23:
 2350               		.cfi_def_cfa_offset 6
 2351               		.cfi_offset 11, -5
 2352 0fae CF92      		push r12
 2353               	.LCFI24:
 2354               		.cfi_def_cfa_offset 7
 2355               		.cfi_offset 12, -6
 2356 0fb0 DF92      		push r13
 2357               	.LCFI25:
 2358               		.cfi_def_cfa_offset 8
 2359               		.cfi_offset 13, -7
 2360 0fb2 EF92      		push r14
 2361               	.LCFI26:
 2362               		.cfi_def_cfa_offset 9
 2363               		.cfi_offset 14, -8
 2364 0fb4 FF92      		push r15
 2365               	.LCFI27:
 2366               		.cfi_def_cfa_offset 10
 2367               		.cfi_offset 15, -9
 2368 0fb6 0F93      		push r16
 2369               	.LCFI28:
 2370               		.cfi_def_cfa_offset 11
 2371               		.cfi_offset 16, -10
 2372 0fb8 1F93      		push r17
 2373               	.LCFI29:
 2374               		.cfi_def_cfa_offset 12
 2375               		.cfi_offset 17, -11
 2376 0fba CF93      		push r28
 2377               	.LCFI30:
 2378               		.cfi_def_cfa_offset 13
 2379               		.cfi_offset 28, -12
 2380 0fbc DF93      		push r29
 2381               	.LCFI31:
 2382               		.cfi_def_cfa_offset 14
 2383               		.cfi_offset 29, -13
 2384 0fbe CDB7      		in r28,__SP_L__
 2385 0fc0 DEB7      		in r29,__SP_H__
 2386               	.LCFI32:
 2387               		.cfi_def_cfa_register 28
 2388 0fc2 C657      		subi r28,118
 2389 0fc4 D109      		sbc r29,__zero_reg__
 2390               	.LCFI33:
 2391               		.cfi_def_cfa_offset 132
 2392 0fc6 0FB6      		in __tmp_reg__,__SREG__
 2393 0fc8 F894      		cli
 2394 0fca DEBF      		out __SP_H__,r29
 2395 0fcc 0FBE      		out __SREG__,__tmp_reg__
 2396 0fce CDBF      		out __SP_L__,r28
 2397               	/* prologue: function */
 2398               	/* frame size = 118 */
 2399               	/* stack size = 130 */
 2400               	.L__stack_usage = 130
 2401 0fd0 FE01      		movw r30,r28
 2402 0fd2 E959      		subi r30,-103
 2403 0fd4 FF4F      		sbci r31,-1
 2404 0fd6 9183      		std Z+1,r25
 2405 0fd8 8083      		st Z,r24
 2406 0fda CE01      		movw r24,r28
 2407 0fdc 8759      		subi r24,-105
 2408 0fde 9F4F      		sbci r25,-1
 2409 0fe0 FC01      		movw r30,r24
 2410 0fe2 7183      		std Z+1,r23
 2411 0fe4 6083      		st Z,r22
 2412 0fe6 CE01      		movw r24,r28
 2413 0fe8 8559      		subi r24,-107
 2414 0fea 9F4F      		sbci r25,-1
 2415 0fec FC01      		movw r30,r24
 2416 0fee 5183      		std Z+1,r21
 2417 0ff0 4083      		st Z,r20
 2418 0ff2 CE01      		movw r24,r28
 2419 0ff4 8359      		subi r24,-109
 2420 0ff6 9F4F      		sbci r25,-1
 2421 0ff8 FC01      		movw r30,r24
 2422 0ffa 3183      		std Z+1,r19
 2423 0ffc 2083      		st Z,r18
 2424 0ffe CE01      		movw r24,r28
 2425 1000 8159      		subi r24,-111
 2426 1002 9F4F      		sbci r25,-1
 2427 1004 FC01      		movw r30,r24
 2428 1006 1183      		std Z+1,r17
 2429 1008 0083      		st Z,r16
 2430 100a CE01      		movw r24,r28
 2431 100c 8F58      		subi r24,-113
 2432 100e 9F4F      		sbci r25,-1
 2433 1010 FC01      		movw r30,r24
 2434 1012 F182      		std Z+1,r15
 2435 1014 E082      		st Z,r14
 2436 1016 CE01      		movw r24,r28
 2437 1018 8D58      		subi r24,-115
 2438 101a 9F4F      		sbci r25,-1
 2439 101c FC01      		movw r30,r24
 2440 101e D182      		std Z+1,r13
 2441 1020 C082      		st Z,r12
1374:lp_solve_5.5/colamd/colamd.c ****     /* === Local variables ================================================== */
1375:lp_solve_5.5/colamd/colamd.c **** 
1376:lp_solve_5.5/colamd/colamd.c ****     int i ;			/* loop index */
1377:lp_solve_5.5/colamd/colamd.c ****     int nnz ;			/* nonzeros in A */
1378:lp_solve_5.5/colamd/colamd.c ****     int Row_size ;		/* size of Row [], in integers */
1379:lp_solve_5.5/colamd/colamd.c ****     int Col_size ;		/* size of Col [], in integers */
1380:lp_solve_5.5/colamd/colamd.c ****     int need ;			/* minimum required length of A */
1381:lp_solve_5.5/colamd/colamd.c ****     Colamd_Row *Row ;		/* pointer into A of Row [0..n_row] array */
1382:lp_solve_5.5/colamd/colamd.c ****     Colamd_Col *Col ;		/* pointer into A of Col [0..n_col] array */
1383:lp_solve_5.5/colamd/colamd.c ****     int n_col2 ;		/* number of non-dense, non-empty columns */
1384:lp_solve_5.5/colamd/colamd.c ****     int n_row2 ;		/* number of non-dense, non-empty rows */
1385:lp_solve_5.5/colamd/colamd.c ****     int ngarbage ;		/* number of garbage collections performed */
1386:lp_solve_5.5/colamd/colamd.c ****     int max_deg ;		/* maximum row degree */
1387:lp_solve_5.5/colamd/colamd.c ****     double default_knobs [COLAMD_KNOBS] ;	/* default knobs array */
1388:lp_solve_5.5/colamd/colamd.c **** 
1389:lp_solve_5.5/colamd/colamd.c **** #ifndef NDEBUG
1390:lp_solve_5.5/colamd/colamd.c ****     colamd_get_debug ("colamd") ;
1391:lp_solve_5.5/colamd/colamd.c **** #endif /* NDEBUG */
1392:lp_solve_5.5/colamd/colamd.c **** 
1393:lp_solve_5.5/colamd/colamd.c ****     /* === Check the input arguments ======================================== */
1394:lp_solve_5.5/colamd/colamd.c **** 
1395:lp_solve_5.5/colamd/colamd.c ****     if (!stats)
 2442               		.loc 1 1395 0
 2443 1022 CE01      		movw r24,r28
 2444 1024 8D58      		subi r24,-115
 2445 1026 9F4F      		sbci r25,-1
 2446 1028 FC01      		movw r30,r24
 2447 102a 8081      		ld r24,Z
 2448 102c 9181      		ldd r25,Z+1
 2449 102e 892B      		or r24,r25
 2450 1030 01F4      		brne .L64
1396:lp_solve_5.5/colamd/colamd.c ****     {
1397:lp_solve_5.5/colamd/colamd.c **** 	DEBUG0 (("colamd: stats not present\n")) ;
1398:lp_solve_5.5/colamd/colamd.c **** 	return (FALSE) ;
 2451               		.loc 1 1398 0
 2452 1032 80E0      		ldi r24,0
 2453 1034 90E0      		ldi r25,0
 2454 1036 00C0      		rjmp .L77
 2455               	.L64:
1399:lp_solve_5.5/colamd/colamd.c ****     }
1400:lp_solve_5.5/colamd/colamd.c ****     for (i = 0 ; i < COLAMD_STATS ; i++)
 2456               		.loc 1 1400 0
 2457 1038 1A82      		std Y+2,__zero_reg__
 2458 103a 1982      		std Y+1,__zero_reg__
 2459 103c 00C0      		rjmp .L66
 2460               	.L67:
1401:lp_solve_5.5/colamd/colamd.c ****     {
1402:lp_solve_5.5/colamd/colamd.c **** 	stats [i] = 0 ;
 2461               		.loc 1 1402 0 discriminator 3
 2462 103e 8981      		ldd r24,Y+1
 2463 1040 9A81      		ldd r25,Y+2
 2464 1042 880F      		lsl r24
 2465 1044 991F      		rol r25
 2466 1046 9E01      		movw r18,r28
 2467 1048 2D58      		subi r18,-115
 2468 104a 3F4F      		sbci r19,-1
 2469 104c F901      		movw r30,r18
 2470 104e 2081      		ld r18,Z
 2471 1050 3181      		ldd r19,Z+1
 2472 1052 820F      		add r24,r18
 2473 1054 931F      		adc r25,r19
 2474 1056 FC01      		movw r30,r24
 2475 1058 1182      		std Z+1,__zero_reg__
 2476 105a 1082      		st Z,__zero_reg__
1400:lp_solve_5.5/colamd/colamd.c ****     {
 2477               		.loc 1 1400 0 discriminator 3
 2478 105c 8981      		ldd r24,Y+1
 2479 105e 9A81      		ldd r25,Y+2
 2480 1060 0196      		adiw r24,1
 2481 1062 9A83      		std Y+2,r25
 2482 1064 8983      		std Y+1,r24
 2483               	.L66:
1400:lp_solve_5.5/colamd/colamd.c ****     {
 2484               		.loc 1 1400 0 is_stmt 0 discriminator 1
 2485 1066 8981      		ldd r24,Y+1
 2486 1068 9A81      		ldd r25,Y+2
 2487 106a 4497      		sbiw r24,20
 2488 106c 04F0      		brlt .L67
1403:lp_solve_5.5/colamd/colamd.c ****     }
1404:lp_solve_5.5/colamd/colamd.c ****     stats [COLAMD_STATUS] = COLAMD_OK ;
 2489               		.loc 1 1404 0 is_stmt 1
 2490 106e CE01      		movw r24,r28
 2491 1070 8D58      		subi r24,-115
 2492 1072 9F4F      		sbci r25,-1
 2493 1074 FC01      		movw r30,r24
 2494 1076 8081      		ld r24,Z
 2495 1078 9181      		ldd r25,Z+1
 2496 107a 0696      		adiw r24,6
 2497 107c FC01      		movw r30,r24
 2498 107e 1182      		std Z+1,__zero_reg__
 2499 1080 1082      		st Z,__zero_reg__
1405:lp_solve_5.5/colamd/colamd.c ****     stats [COLAMD_INFO1] = -1 ;
 2500               		.loc 1 1405 0
 2501 1082 CE01      		movw r24,r28
 2502 1084 8D58      		subi r24,-115
 2503 1086 9F4F      		sbci r25,-1
 2504 1088 FC01      		movw r30,r24
 2505 108a 8081      		ld r24,Z
 2506 108c 9181      		ldd r25,Z+1
 2507 108e 0896      		adiw r24,8
 2508 1090 2FEF      		ldi r18,lo8(-1)
 2509 1092 3FEF      		ldi r19,lo8(-1)
 2510 1094 FC01      		movw r30,r24
 2511 1096 3183      		std Z+1,r19
 2512 1098 2083      		st Z,r18
1406:lp_solve_5.5/colamd/colamd.c ****     stats [COLAMD_INFO2] = -1 ;
 2513               		.loc 1 1406 0
 2514 109a CE01      		movw r24,r28
 2515 109c 8D58      		subi r24,-115
 2516 109e 9F4F      		sbci r25,-1
 2517 10a0 FC01      		movw r30,r24
 2518 10a2 8081      		ld r24,Z
 2519 10a4 9181      		ldd r25,Z+1
 2520 10a6 0A96      		adiw r24,10
 2521 10a8 2FEF      		ldi r18,lo8(-1)
 2522 10aa 3FEF      		ldi r19,lo8(-1)
 2523 10ac FC01      		movw r30,r24
 2524 10ae 3183      		std Z+1,r19
 2525 10b0 2083      		st Z,r18
1407:lp_solve_5.5/colamd/colamd.c **** 
1408:lp_solve_5.5/colamd/colamd.c ****     if (!A)		/* A is not present */
 2526               		.loc 1 1408 0
 2527 10b2 CE01      		movw r24,r28
 2528 10b4 8359      		subi r24,-109
 2529 10b6 9F4F      		sbci r25,-1
 2530 10b8 FC01      		movw r30,r24
 2531 10ba 8081      		ld r24,Z
 2532 10bc 9181      		ldd r25,Z+1
 2533 10be 892B      		or r24,r25
 2534 10c0 01F4      		brne .L68
1409:lp_solve_5.5/colamd/colamd.c ****     {
1410:lp_solve_5.5/colamd/colamd.c **** 	stats [COLAMD_STATUS] = COLAMD_ERROR_A_not_present ;
 2535               		.loc 1 1410 0
 2536 10c2 CE01      		movw r24,r28
 2537 10c4 8D58      		subi r24,-115
 2538 10c6 9F4F      		sbci r25,-1
 2539 10c8 FC01      		movw r30,r24
 2540 10ca 8081      		ld r24,Z
 2541 10cc 9181      		ldd r25,Z+1
 2542 10ce 0696      		adiw r24,6
 2543 10d0 2FEF      		ldi r18,lo8(-1)
 2544 10d2 3FEF      		ldi r19,lo8(-1)
 2545 10d4 FC01      		movw r30,r24
 2546 10d6 3183      		std Z+1,r19
 2547 10d8 2083      		st Z,r18
1411:lp_solve_5.5/colamd/colamd.c **** 	DEBUG0 (("colamd: A not present\n")) ;
1412:lp_solve_5.5/colamd/colamd.c **** 	return (FALSE) ;
 2548               		.loc 1 1412 0
 2549 10da 80E0      		ldi r24,0
 2550 10dc 90E0      		ldi r25,0
 2551 10de 00C0      		rjmp .L77
 2552               	.L68:
1413:lp_solve_5.5/colamd/colamd.c ****     }
1414:lp_solve_5.5/colamd/colamd.c **** 
1415:lp_solve_5.5/colamd/colamd.c ****     if (!p)		/* p is not present */
 2553               		.loc 1 1415 0
 2554 10e0 CE01      		movw r24,r28
 2555 10e2 8159      		subi r24,-111
 2556 10e4 9F4F      		sbci r25,-1
 2557 10e6 FC01      		movw r30,r24
 2558 10e8 8081      		ld r24,Z
 2559 10ea 9181      		ldd r25,Z+1
 2560 10ec 892B      		or r24,r25
 2561 10ee 01F4      		brne .L69
1416:lp_solve_5.5/colamd/colamd.c ****     {
1417:lp_solve_5.5/colamd/colamd.c **** 	stats [COLAMD_STATUS] = COLAMD_ERROR_p_not_present ;
 2562               		.loc 1 1417 0
 2563 10f0 CE01      		movw r24,r28
 2564 10f2 8D58      		subi r24,-115
 2565 10f4 9F4F      		sbci r25,-1
 2566 10f6 FC01      		movw r30,r24
 2567 10f8 8081      		ld r24,Z
 2568 10fa 9181      		ldd r25,Z+1
 2569 10fc 0696      		adiw r24,6
 2570 10fe 2EEF      		ldi r18,lo8(-2)
 2571 1100 3FEF      		ldi r19,lo8(-1)
 2572 1102 FC01      		movw r30,r24
 2573 1104 3183      		std Z+1,r19
 2574 1106 2083      		st Z,r18
1418:lp_solve_5.5/colamd/colamd.c **** 	DEBUG0 (("colamd: p not present\n")) ;
1419:lp_solve_5.5/colamd/colamd.c ****     	return (FALSE) ;
 2575               		.loc 1 1419 0
 2576 1108 80E0      		ldi r24,0
 2577 110a 90E0      		ldi r25,0
 2578 110c 00C0      		rjmp .L77
 2579               	.L69:
1420:lp_solve_5.5/colamd/colamd.c ****     }
1421:lp_solve_5.5/colamd/colamd.c **** 
1422:lp_solve_5.5/colamd/colamd.c ****     if (n_row < 0)	/* n_row must be >= 0 */
 2580               		.loc 1 1422 0
 2581 110e CE01      		movw r24,r28
 2582 1110 8959      		subi r24,-103
 2583 1112 9F4F      		sbci r25,-1
 2584 1114 FC01      		movw r30,r24
 2585 1116 8081      		ld r24,Z
 2586 1118 9181      		ldd r25,Z+1
 2587 111a 9923      		tst r25
 2588 111c 04F4      		brge .L70
1423:lp_solve_5.5/colamd/colamd.c ****     {
1424:lp_solve_5.5/colamd/colamd.c **** 	stats [COLAMD_STATUS] = COLAMD_ERROR_nrow_negative ;
 2589               		.loc 1 1424 0
 2590 111e CE01      		movw r24,r28
 2591 1120 8D58      		subi r24,-115
 2592 1122 9F4F      		sbci r25,-1
 2593 1124 FC01      		movw r30,r24
 2594 1126 8081      		ld r24,Z
 2595 1128 9181      		ldd r25,Z+1
 2596 112a 0696      		adiw r24,6
 2597 112c 2DEF      		ldi r18,lo8(-3)
 2598 112e 3FEF      		ldi r19,lo8(-1)
 2599 1130 FC01      		movw r30,r24
 2600 1132 3183      		std Z+1,r19
 2601 1134 2083      		st Z,r18
1425:lp_solve_5.5/colamd/colamd.c **** 	stats [COLAMD_INFO1] = n_row ;
 2602               		.loc 1 1425 0
 2603 1136 CE01      		movw r24,r28
 2604 1138 8D58      		subi r24,-115
 2605 113a 9F4F      		sbci r25,-1
 2606 113c FC01      		movw r30,r24
 2607 113e 8081      		ld r24,Z
 2608 1140 9181      		ldd r25,Z+1
 2609 1142 0896      		adiw r24,8
 2610 1144 9E01      		movw r18,r28
 2611 1146 2959      		subi r18,-103
 2612 1148 3F4F      		sbci r19,-1
 2613 114a F901      		movw r30,r18
 2614 114c 2081      		ld r18,Z
 2615 114e 3181      		ldd r19,Z+1
 2616 1150 FC01      		movw r30,r24
 2617 1152 3183      		std Z+1,r19
 2618 1154 2083      		st Z,r18
1426:lp_solve_5.5/colamd/colamd.c **** 	DEBUG0 (("colamd: nrow negative %d\n", n_row)) ;
1427:lp_solve_5.5/colamd/colamd.c ****     	return (FALSE) ;
 2619               		.loc 1 1427 0
 2620 1156 80E0      		ldi r24,0
 2621 1158 90E0      		ldi r25,0
 2622 115a 00C0      		rjmp .L77
 2623               	.L70:
1428:lp_solve_5.5/colamd/colamd.c ****     }
1429:lp_solve_5.5/colamd/colamd.c **** 
1430:lp_solve_5.5/colamd/colamd.c ****     if (n_col < 0)	/* n_col must be >= 0 */
 2624               		.loc 1 1430 0
 2625 115c CE01      		movw r24,r28
 2626 115e 8759      		subi r24,-105
 2627 1160 9F4F      		sbci r25,-1
 2628 1162 FC01      		movw r30,r24
 2629 1164 8081      		ld r24,Z
 2630 1166 9181      		ldd r25,Z+1
 2631 1168 9923      		tst r25
 2632 116a 04F4      		brge .L71
1431:lp_solve_5.5/colamd/colamd.c ****     {
1432:lp_solve_5.5/colamd/colamd.c **** 	stats [COLAMD_STATUS] = COLAMD_ERROR_ncol_negative ;
 2633               		.loc 1 1432 0
 2634 116c CE01      		movw r24,r28
 2635 116e 8D58      		subi r24,-115
 2636 1170 9F4F      		sbci r25,-1
 2637 1172 FC01      		movw r30,r24
 2638 1174 8081      		ld r24,Z
 2639 1176 9181      		ldd r25,Z+1
 2640 1178 0696      		adiw r24,6
 2641 117a 2CEF      		ldi r18,lo8(-4)
 2642 117c 3FEF      		ldi r19,lo8(-1)
 2643 117e FC01      		movw r30,r24
 2644 1180 3183      		std Z+1,r19
 2645 1182 2083      		st Z,r18
1433:lp_solve_5.5/colamd/colamd.c **** 	stats [COLAMD_INFO1] = n_col ;
 2646               		.loc 1 1433 0
 2647 1184 CE01      		movw r24,r28
 2648 1186 8D58      		subi r24,-115
 2649 1188 9F4F      		sbci r25,-1
 2650 118a FC01      		movw r30,r24
 2651 118c 8081      		ld r24,Z
 2652 118e 9181      		ldd r25,Z+1
 2653 1190 0896      		adiw r24,8
 2654 1192 9E01      		movw r18,r28
 2655 1194 2759      		subi r18,-105
 2656 1196 3F4F      		sbci r19,-1
 2657 1198 F901      		movw r30,r18
 2658 119a 2081      		ld r18,Z
 2659 119c 3181      		ldd r19,Z+1
 2660 119e FC01      		movw r30,r24
 2661 11a0 3183      		std Z+1,r19
 2662 11a2 2083      		st Z,r18
1434:lp_solve_5.5/colamd/colamd.c **** 	DEBUG0 (("colamd: ncol negative %d\n", n_col)) ;
1435:lp_solve_5.5/colamd/colamd.c ****     	return (FALSE) ;
 2663               		.loc 1 1435 0
 2664 11a4 80E0      		ldi r24,0
 2665 11a6 90E0      		ldi r25,0
 2666 11a8 00C0      		rjmp .L77
 2667               	.L71:
1436:lp_solve_5.5/colamd/colamd.c ****     }
1437:lp_solve_5.5/colamd/colamd.c **** 
1438:lp_solve_5.5/colamd/colamd.c ****     nnz = p [n_col] ;
 2668               		.loc 1 1438 0
 2669 11aa CE01      		movw r24,r28
 2670 11ac 8759      		subi r24,-105
 2671 11ae 9F4F      		sbci r25,-1
 2672 11b0 FC01      		movw r30,r24
 2673 11b2 8081      		ld r24,Z
 2674 11b4 9181      		ldd r25,Z+1
 2675 11b6 880F      		lsl r24
 2676 11b8 991F      		rol r25
 2677 11ba 9E01      		movw r18,r28
 2678 11bc 2159      		subi r18,-111
 2679 11be 3F4F      		sbci r19,-1
 2680 11c0 F901      		movw r30,r18
 2681 11c2 2081      		ld r18,Z
 2682 11c4 3181      		ldd r19,Z+1
 2683 11c6 820F      		add r24,r18
 2684 11c8 931F      		adc r25,r19
 2685 11ca FC01      		movw r30,r24
 2686 11cc 8081      		ld r24,Z
 2687 11ce 9181      		ldd r25,Z+1
 2688 11d0 9C83      		std Y+4,r25
 2689 11d2 8B83      		std Y+3,r24
1439:lp_solve_5.5/colamd/colamd.c ****     if (nnz < 0)	/* nnz must be >= 0 */
 2690               		.loc 1 1439 0
 2691 11d4 8B81      		ldd r24,Y+3
 2692 11d6 9C81      		ldd r25,Y+4
 2693 11d8 9923      		tst r25
 2694 11da 04F4      		brge .L72
1440:lp_solve_5.5/colamd/colamd.c ****     {
1441:lp_solve_5.5/colamd/colamd.c **** 	stats [COLAMD_STATUS] = COLAMD_ERROR_nnz_negative ;
 2695               		.loc 1 1441 0
 2696 11dc CE01      		movw r24,r28
 2697 11de 8D58      		subi r24,-115
 2698 11e0 9F4F      		sbci r25,-1
 2699 11e2 FC01      		movw r30,r24
 2700 11e4 8081      		ld r24,Z
 2701 11e6 9181      		ldd r25,Z+1
 2702 11e8 0696      		adiw r24,6
 2703 11ea 2BEF      		ldi r18,lo8(-5)
 2704 11ec 3FEF      		ldi r19,lo8(-1)
 2705 11ee FC01      		movw r30,r24
 2706 11f0 3183      		std Z+1,r19
 2707 11f2 2083      		st Z,r18
1442:lp_solve_5.5/colamd/colamd.c **** 	stats [COLAMD_INFO1] = nnz ;
 2708               		.loc 1 1442 0
 2709 11f4 CE01      		movw r24,r28
 2710 11f6 8D58      		subi r24,-115
 2711 11f8 9F4F      		sbci r25,-1
 2712 11fa FC01      		movw r30,r24
 2713 11fc 8081      		ld r24,Z
 2714 11fe 9181      		ldd r25,Z+1
 2715 1200 0896      		adiw r24,8
 2716 1202 2B81      		ldd r18,Y+3
 2717 1204 3C81      		ldd r19,Y+4
 2718 1206 FC01      		movw r30,r24
 2719 1208 3183      		std Z+1,r19
 2720 120a 2083      		st Z,r18
1443:lp_solve_5.5/colamd/colamd.c **** 	DEBUG0 (("colamd: number of entries negative %d\n", nnz)) ;
1444:lp_solve_5.5/colamd/colamd.c **** 	return (FALSE) ;
 2721               		.loc 1 1444 0
 2722 120c 80E0      		ldi r24,0
 2723 120e 90E0      		ldi r25,0
 2724 1210 00C0      		rjmp .L77
 2725               	.L72:
1445:lp_solve_5.5/colamd/colamd.c ****     }
1446:lp_solve_5.5/colamd/colamd.c **** 
1447:lp_solve_5.5/colamd/colamd.c ****     if (p [0] != 0)
 2726               		.loc 1 1447 0
 2727 1212 CE01      		movw r24,r28
 2728 1214 8159      		subi r24,-111
 2729 1216 9F4F      		sbci r25,-1
 2730 1218 FC01      		movw r30,r24
 2731 121a 8081      		ld r24,Z
 2732 121c 9181      		ldd r25,Z+1
 2733 121e FC01      		movw r30,r24
 2734 1220 8081      		ld r24,Z
 2735 1222 9181      		ldd r25,Z+1
 2736 1224 892B      		or r24,r25
 2737 1226 01F0      		breq .L73
1448:lp_solve_5.5/colamd/colamd.c ****     {
1449:lp_solve_5.5/colamd/colamd.c **** 	stats [COLAMD_STATUS] = COLAMD_ERROR_p0_nonzero	;
 2738               		.loc 1 1449 0
 2739 1228 CE01      		movw r24,r28
 2740 122a 8D58      		subi r24,-115
 2741 122c 9F4F      		sbci r25,-1
 2742 122e FC01      		movw r30,r24
 2743 1230 8081      		ld r24,Z
 2744 1232 9181      		ldd r25,Z+1
 2745 1234 0696      		adiw r24,6
 2746 1236 2AEF      		ldi r18,lo8(-6)
 2747 1238 3FEF      		ldi r19,lo8(-1)
 2748 123a FC01      		movw r30,r24
 2749 123c 3183      		std Z+1,r19
 2750 123e 2083      		st Z,r18
1450:lp_solve_5.5/colamd/colamd.c **** 	stats [COLAMD_INFO1] = p [0] ;
 2751               		.loc 1 1450 0
 2752 1240 CE01      		movw r24,r28
 2753 1242 8D58      		subi r24,-115
 2754 1244 9F4F      		sbci r25,-1
 2755 1246 FC01      		movw r30,r24
 2756 1248 8081      		ld r24,Z
 2757 124a 9181      		ldd r25,Z+1
 2758 124c 0896      		adiw r24,8
 2759 124e 9E01      		movw r18,r28
 2760 1250 2159      		subi r18,-111
 2761 1252 3F4F      		sbci r19,-1
 2762 1254 F901      		movw r30,r18
 2763 1256 2081      		ld r18,Z
 2764 1258 3181      		ldd r19,Z+1
 2765 125a F901      		movw r30,r18
 2766 125c 2081      		ld r18,Z
 2767 125e 3181      		ldd r19,Z+1
 2768 1260 FC01      		movw r30,r24
 2769 1262 3183      		std Z+1,r19
 2770 1264 2083      		st Z,r18
1451:lp_solve_5.5/colamd/colamd.c **** 	DEBUG0 (("colamd: p[0] not zero %d\n", p [0])) ;
1452:lp_solve_5.5/colamd/colamd.c **** 	return (FALSE) ;
 2771               		.loc 1 1452 0
 2772 1266 80E0      		ldi r24,0
 2773 1268 90E0      		ldi r25,0
 2774 126a 00C0      		rjmp .L77
 2775               	.L73:
1453:lp_solve_5.5/colamd/colamd.c ****     }
1454:lp_solve_5.5/colamd/colamd.c **** 
1455:lp_solve_5.5/colamd/colamd.c ****     /* === If no knobs, set default knobs =================================== */
1456:lp_solve_5.5/colamd/colamd.c **** 
1457:lp_solve_5.5/colamd/colamd.c ****     if (!knobs)
 2776               		.loc 1 1457 0
 2777 126c CE01      		movw r24,r28
 2778 126e 8F58      		subi r24,-113
 2779 1270 9F4F      		sbci r25,-1
 2780 1272 FC01      		movw r30,r24
 2781 1274 8081      		ld r24,Z
 2782 1276 9181      		ldd r25,Z+1
 2783 1278 892B      		or r24,r25
 2784 127a 01F4      		brne .L74
1458:lp_solve_5.5/colamd/colamd.c ****     {
1459:lp_solve_5.5/colamd/colamd.c **** 	colamd_set_defaults (default_knobs) ;
 2785               		.loc 1 1459 0
 2786 127c CE01      		movw r24,r28
 2787 127e 4796      		adiw r24,23
 2788 1280 0E94 0000 		call colamd_set_defaults
1460:lp_solve_5.5/colamd/colamd.c **** 	knobs = default_knobs ;
 2789               		.loc 1 1460 0
 2790 1284 CE01      		movw r24,r28
 2791 1286 8F58      		subi r24,-113
 2792 1288 9F4F      		sbci r25,-1
 2793 128a 9E01      		movw r18,r28
 2794 128c 295E      		subi r18,-23
 2795 128e 3F4F      		sbci r19,-1
 2796 1290 FC01      		movw r30,r24
 2797 1292 3183      		std Z+1,r19
 2798 1294 2083      		st Z,r18
 2799               	.L74:
1461:lp_solve_5.5/colamd/colamd.c ****     }
1462:lp_solve_5.5/colamd/colamd.c **** 
1463:lp_solve_5.5/colamd/colamd.c ****     /* === Allocate the Row and Col arrays from array A ===================== */
1464:lp_solve_5.5/colamd/colamd.c **** 
1465:lp_solve_5.5/colamd/colamd.c ****     Col_size = COLAMD_C (n_col) ;
 2800               		.loc 1 1465 0
 2801 1296 CE01      		movw r24,r28
 2802 1298 8759      		subi r24,-105
 2803 129a 9F4F      		sbci r25,-1
 2804 129c FC01      		movw r30,r24
 2805 129e 8081      		ld r24,Z
 2806 12a0 9181      		ldd r25,Z+1
 2807 12a2 0196      		adiw r24,1
 2808 12a4 9C01      		movw r18,r24
 2809 12a6 C901      		movw r24,r18
 2810 12a8 880F      		lsl r24
 2811 12aa 991F      		rol r25
 2812 12ac 820F      		add r24,r18
 2813 12ae 931F      		adc r25,r19
 2814 12b0 880F      		lsl r24
 2815 12b2 991F      		rol r25
 2816 12b4 880F      		lsl r24
 2817 12b6 991F      		rol r25
 2818 12b8 9695      		lsr r25
 2819 12ba 8795      		ror r24
 2820 12bc 9E83      		std Y+6,r25
 2821 12be 8D83      		std Y+5,r24
1466:lp_solve_5.5/colamd/colamd.c ****     Row_size = COLAMD_R (n_row) ;
 2822               		.loc 1 1466 0
 2823 12c0 CE01      		movw r24,r28
 2824 12c2 8959      		subi r24,-103
 2825 12c4 9F4F      		sbci r25,-1
 2826 12c6 FC01      		movw r30,r24
 2827 12c8 8081      		ld r24,Z
 2828 12ca 9181      		ldd r25,Z+1
 2829 12cc 0196      		adiw r24,1
 2830 12ce 880F      		lsl r24
 2831 12d0 991F      		rol r25
 2832 12d2 880F      		lsl r24
 2833 12d4 991F      		rol r25
 2834 12d6 880F      		lsl r24
 2835 12d8 991F      		rol r25
 2836 12da 9695      		lsr r25
 2837 12dc 8795      		ror r24
 2838 12de 9887      		std Y+8,r25
 2839 12e0 8F83      		std Y+7,r24
1467:lp_solve_5.5/colamd/colamd.c ****     need = 2*nnz + n_col + Col_size + Row_size ;
 2840               		.loc 1 1467 0
 2841 12e2 8B81      		ldd r24,Y+3
 2842 12e4 9C81      		ldd r25,Y+4
 2843 12e6 9C01      		movw r18,r24
 2844 12e8 220F      		lsl r18
 2845 12ea 331F      		rol r19
 2846 12ec CE01      		movw r24,r28
 2847 12ee 8759      		subi r24,-105
 2848 12f0 9F4F      		sbci r25,-1
 2849 12f2 FC01      		movw r30,r24
 2850 12f4 8081      		ld r24,Z
 2851 12f6 9181      		ldd r25,Z+1
 2852 12f8 280F      		add r18,r24
 2853 12fa 391F      		adc r19,r25
 2854 12fc 8D81      		ldd r24,Y+5
 2855 12fe 9E81      		ldd r25,Y+6
 2856 1300 280F      		add r18,r24
 2857 1302 391F      		adc r19,r25
 2858 1304 8F81      		ldd r24,Y+7
 2859 1306 9885      		ldd r25,Y+8
 2860 1308 820F      		add r24,r18
 2861 130a 931F      		adc r25,r19
 2862 130c 9A87      		std Y+10,r25
 2863 130e 8987      		std Y+9,r24
1468:lp_solve_5.5/colamd/colamd.c **** 
1469:lp_solve_5.5/colamd/colamd.c ****     if (need > Alen)
 2864               		.loc 1 1469 0
 2865 1310 CE01      		movw r24,r28
 2866 1312 8559      		subi r24,-107
 2867 1314 9F4F      		sbci r25,-1
 2868 1316 2985      		ldd r18,Y+9
 2869 1318 3A85      		ldd r19,Y+10
 2870 131a FC01      		movw r30,r24
 2871 131c 8081      		ld r24,Z
 2872 131e 9181      		ldd r25,Z+1
 2873 1320 8217      		cp r24,r18
 2874 1322 9307      		cpc r25,r19
 2875 1324 04F4      		brge .L75
1470:lp_solve_5.5/colamd/colamd.c ****     {
1471:lp_solve_5.5/colamd/colamd.c **** 	/* not enough space in array A to perform the ordering */
1472:lp_solve_5.5/colamd/colamd.c **** 	stats [COLAMD_STATUS] = COLAMD_ERROR_A_too_small ;
 2876               		.loc 1 1472 0
 2877 1326 CE01      		movw r24,r28
 2878 1328 8D58      		subi r24,-115
 2879 132a 9F4F      		sbci r25,-1
 2880 132c FC01      		movw r30,r24
 2881 132e 8081      		ld r24,Z
 2882 1330 9181      		ldd r25,Z+1
 2883 1332 0696      		adiw r24,6
 2884 1334 29EF      		ldi r18,lo8(-7)
 2885 1336 3FEF      		ldi r19,lo8(-1)
 2886 1338 FC01      		movw r30,r24
 2887 133a 3183      		std Z+1,r19
 2888 133c 2083      		st Z,r18
1473:lp_solve_5.5/colamd/colamd.c **** 	stats [COLAMD_INFO1] = need ;
 2889               		.loc 1 1473 0
 2890 133e CE01      		movw r24,r28
 2891 1340 8D58      		subi r24,-115
 2892 1342 9F4F      		sbci r25,-1
 2893 1344 FC01      		movw r30,r24
 2894 1346 8081      		ld r24,Z
 2895 1348 9181      		ldd r25,Z+1
 2896 134a 0896      		adiw r24,8
 2897 134c 2985      		ldd r18,Y+9
 2898 134e 3A85      		ldd r19,Y+10
 2899 1350 FC01      		movw r30,r24
 2900 1352 3183      		std Z+1,r19
 2901 1354 2083      		st Z,r18
1474:lp_solve_5.5/colamd/colamd.c **** 	stats [COLAMD_INFO2] = Alen ;
 2902               		.loc 1 1474 0
 2903 1356 CE01      		movw r24,r28
 2904 1358 8D58      		subi r24,-115
 2905 135a 9F4F      		sbci r25,-1
 2906 135c FC01      		movw r30,r24
 2907 135e 8081      		ld r24,Z
 2908 1360 9181      		ldd r25,Z+1
 2909 1362 0A96      		adiw r24,10
 2910 1364 9E01      		movw r18,r28
 2911 1366 2559      		subi r18,-107
 2912 1368 3F4F      		sbci r19,-1
 2913 136a F901      		movw r30,r18
 2914 136c 2081      		ld r18,Z
 2915 136e 3181      		ldd r19,Z+1
 2916 1370 FC01      		movw r30,r24
 2917 1372 3183      		std Z+1,r19
 2918 1374 2083      		st Z,r18
1475:lp_solve_5.5/colamd/colamd.c **** 	DEBUG0 (("colamd: Need Alen >= %d, given only Alen = %d\n", need,Alen));
1476:lp_solve_5.5/colamd/colamd.c **** 	return (FALSE) ;
 2919               		.loc 1 1476 0
 2920 1376 80E0      		ldi r24,0
 2921 1378 90E0      		ldi r25,0
 2922 137a 00C0      		rjmp .L77
 2923               	.L75:
1477:lp_solve_5.5/colamd/colamd.c ****     }
1478:lp_solve_5.5/colamd/colamd.c **** 
1479:lp_solve_5.5/colamd/colamd.c ****     Alen -= Col_size + Row_size ;
 2924               		.loc 1 1479 0
 2925 137c 2D81      		ldd r18,Y+5
 2926 137e 3E81      		ldd r19,Y+6
 2927 1380 8F81      		ldd r24,Y+7
 2928 1382 9885      		ldd r25,Y+8
 2929 1384 280F      		add r18,r24
 2930 1386 391F      		adc r19,r25
 2931 1388 CE01      		movw r24,r28
 2932 138a 8559      		subi r24,-107
 2933 138c 9F4F      		sbci r25,-1
 2934 138e AE01      		movw r20,r28
 2935 1390 4559      		subi r20,-107
 2936 1392 5F4F      		sbci r21,-1
 2937 1394 FA01      		movw r30,r20
 2938 1396 4081      		ld r20,Z
 2939 1398 5181      		ldd r21,Z+1
 2940 139a BA01      		movw r22,r20
 2941 139c 621B      		sub r22,r18
 2942 139e 730B      		sbc r23,r19
 2943 13a0 9B01      		movw r18,r22
 2944 13a2 FC01      		movw r30,r24
 2945 13a4 3183      		std Z+1,r19
 2946 13a6 2083      		st Z,r18
1480:lp_solve_5.5/colamd/colamd.c ****     Col = (Colamd_Col *) &A [Alen] ;
 2947               		.loc 1 1480 0
 2948 13a8 CE01      		movw r24,r28
 2949 13aa 8559      		subi r24,-107
 2950 13ac 9F4F      		sbci r25,-1
 2951 13ae FC01      		movw r30,r24
 2952 13b0 8081      		ld r24,Z
 2953 13b2 9181      		ldd r25,Z+1
 2954 13b4 880F      		lsl r24
 2955 13b6 991F      		rol r25
 2956 13b8 9E01      		movw r18,r28
 2957 13ba 2359      		subi r18,-109
 2958 13bc 3F4F      		sbci r19,-1
 2959 13be F901      		movw r30,r18
 2960 13c0 2081      		ld r18,Z
 2961 13c2 3181      		ldd r19,Z+1
 2962 13c4 820F      		add r24,r18
 2963 13c6 931F      		adc r25,r19
 2964 13c8 9C87      		std Y+12,r25
 2965 13ca 8B87      		std Y+11,r24
1481:lp_solve_5.5/colamd/colamd.c ****     Row = (Colamd_Row *) &A [Alen + Col_size] ;
 2966               		.loc 1 1481 0
 2967 13cc CE01      		movw r24,r28
 2968 13ce 8559      		subi r24,-107
 2969 13d0 9F4F      		sbci r25,-1
 2970 13d2 FC01      		movw r30,r24
 2971 13d4 2081      		ld r18,Z
 2972 13d6 3181      		ldd r19,Z+1
 2973 13d8 8D81      		ldd r24,Y+5
 2974 13da 9E81      		ldd r25,Y+6
 2975 13dc 820F      		add r24,r18
 2976 13de 931F      		adc r25,r19
 2977 13e0 880F      		lsl r24
 2978 13e2 991F      		rol r25
 2979 13e4 9E01      		movw r18,r28
 2980 13e6 2359      		subi r18,-109
 2981 13e8 3F4F      		sbci r19,-1
 2982 13ea F901      		movw r30,r18
 2983 13ec 2081      		ld r18,Z
 2984 13ee 3181      		ldd r19,Z+1
 2985 13f0 820F      		add r24,r18
 2986 13f2 931F      		adc r25,r19
 2987 13f4 9E87      		std Y+14,r25
 2988 13f6 8D87      		std Y+13,r24
1482:lp_solve_5.5/colamd/colamd.c **** 
1483:lp_solve_5.5/colamd/colamd.c ****     /* === Construct the row and column data structures ===================== */
1484:lp_solve_5.5/colamd/colamd.c **** 
1485:lp_solve_5.5/colamd/colamd.c ****     if (!init_rows_cols (n_row, n_col, Row, Col, A, p, stats))
 2989               		.loc 1 1485 0
 2990 13f8 CE01      		movw r24,r28
 2991 13fa 8D58      		subi r24,-115
 2992 13fc 9F4F      		sbci r25,-1
 2993 13fe FC01      		movw r30,r24
 2994 1400 0081      		ld r16,Z
 2995 1402 1181      		ldd r17,Z+1
 2996 1404 CE01      		movw r24,r28
 2997 1406 8159      		subi r24,-111
 2998 1408 9F4F      		sbci r25,-1
 2999 140a FC01      		movw r30,r24
 3000 140c A081      		ld r26,Z
 3001 140e B181      		ldd r27,Z+1
 3002 1410 CE01      		movw r24,r28
 3003 1412 8359      		subi r24,-109
 3004 1414 9F4F      		sbci r25,-1
 3005 1416 FC01      		movw r30,r24
 3006 1418 0190      		ld __tmp_reg__,Z+
 3007 141a F081      		ld r31,Z
 3008 141c E02D      		mov r30,__tmp_reg__
 3009 141e E796      		adiw r28,117-62
 3010 1420 FFAF      		std Y+63,r31
 3011 1422 EEAF      		std Y+62,r30
 3012 1424 E797      		sbiw r28,117-62
 3013 1426 2B85      		ldd r18,Y+11
 3014 1428 3C85      		ldd r19,Y+12
 3015 142a 4D85      		ldd r20,Y+13
 3016 142c 5E85      		ldd r21,Y+14
 3017 142e CE01      		movw r24,r28
 3018 1430 8759      		subi r24,-105
 3019 1432 9F4F      		sbci r25,-1
 3020 1434 FC01      		movw r30,r24
 3021 1436 6081      		ld r22,Z
 3022 1438 7181      		ldd r23,Z+1
 3023 143a CE01      		movw r24,r28
 3024 143c 8959      		subi r24,-103
 3025 143e 9F4F      		sbci r25,-1
 3026 1440 FC01      		movw r30,r24
 3027 1442 8081      		ld r24,Z
 3028 1444 9181      		ldd r25,Z+1
 3029 1446 6801      		movw r12,r16
 3030 1448 7D01      		movw r14,r26
 3031 144a E796      		adiw r28,117-62
 3032 144c 0EAD      		ldd r16,Y+62
 3033 144e 1FAD      		ldd r17,Y+63
 3034 1450 E797      		sbiw r28,117-62
 3035 1452 0E94 0000 		call init_rows_cols
 3036 1456 892B      		or r24,r25
 3037 1458 01F4      		brne .L76
1486:lp_solve_5.5/colamd/colamd.c ****     {
1487:lp_solve_5.5/colamd/colamd.c **** 	/* input matrix is invalid */
1488:lp_solve_5.5/colamd/colamd.c **** 	DEBUG0 (("colamd: Matrix invalid\n")) ;
1489:lp_solve_5.5/colamd/colamd.c **** 	return (FALSE) ;
 3038               		.loc 1 1489 0
 3039 145a 80E0      		ldi r24,0
 3040 145c 90E0      		ldi r25,0
 3041 145e 00C0      		rjmp .L77
 3042               	.L76:
1490:lp_solve_5.5/colamd/colamd.c ****     }
1491:lp_solve_5.5/colamd/colamd.c **** 
1492:lp_solve_5.5/colamd/colamd.c ****     /* === Initialize scores, kill dense rows/columns ======================= */
1493:lp_solve_5.5/colamd/colamd.c **** 
1494:lp_solve_5.5/colamd/colamd.c ****     init_scoring (n_row, n_col, Row, Col, A, p, knobs,
 3043               		.loc 1 1494 0
 3044 1460 5E01      		movw r10,r28
 3045 1462 F1E1      		ldi r31,17
 3046 1464 AF0E      		add r10,r31
 3047 1466 B11C      		adc r11,__zero_reg__
 3048 1468 6E01      		movw r12,r28
 3049 146a 23E1      		ldi r18,19
 3050 146c C20E      		add r12,r18
 3051 146e D11C      		adc r13,__zero_reg__
 3052 1470 CE01      		movw r24,r28
 3053 1472 8F58      		subi r24,-113
 3054 1474 9F4F      		sbci r25,-1
 3055 1476 FC01      		movw r30,r24
 3056 1478 E080      		ld r14,Z
 3057 147a F180      		ldd r15,Z+1
 3058 147c CE01      		movw r24,r28
 3059 147e 8159      		subi r24,-111
 3060 1480 9F4F      		sbci r25,-1
 3061 1482 FC01      		movw r30,r24
 3062 1484 0081      		ld r16,Z
 3063 1486 1181      		ldd r17,Z+1
 3064 1488 CE01      		movw r24,r28
 3065 148a 8359      		subi r24,-109
 3066 148c 9F4F      		sbci r25,-1
 3067 148e FC01      		movw r30,r24
 3068 1490 A081      		ld r26,Z
 3069 1492 B181      		ldd r27,Z+1
 3070 1494 2B85      		ldd r18,Y+11
 3071 1496 3C85      		ldd r19,Y+12
 3072 1498 4D85      		ldd r20,Y+13
 3073 149a 5E85      		ldd r21,Y+14
 3074 149c CE01      		movw r24,r28
 3075 149e 8759      		subi r24,-105
 3076 14a0 9F4F      		sbci r25,-1
 3077 14a2 FC01      		movw r30,r24
 3078 14a4 6081      		ld r22,Z
 3079 14a6 7181      		ldd r23,Z+1
 3080 14a8 CE01      		movw r24,r28
 3081 14aa 8959      		subi r24,-103
 3082 14ac 9F4F      		sbci r25,-1
 3083 14ae FC01      		movw r30,r24
 3084 14b0 0190      		ld __tmp_reg__,Z+
 3085 14b2 F081      		ld r31,Z
 3086 14b4 E02D      		mov r30,__tmp_reg__
 3087 14b6 E796      		adiw r28,117-62
 3088 14b8 FFAF      		std Y+63,r31
 3089 14ba EEAF      		std Y+62,r30
 3090 14bc E797      		sbiw r28,117-62
 3091 14be CE01      		movw r24,r28
 3092 14c0 4596      		adiw r24,21
 3093 14c2 992E      		mov r9,r25
 3094 14c4 9F92      		push r9
 3095 14c6 8F93      		push r24
 3096 14c8 4501      		movw r8,r10
 3097 14ca 5601      		movw r10,r12
 3098 14cc 6701      		movw r12,r14
 3099 14ce 7801      		movw r14,r16
 3100 14d0 8D01      		movw r16,r26
 3101 14d2 E796      		adiw r28,117-62
 3102 14d4 8EAD      		ldd r24,Y+62
 3103 14d6 9FAD      		ldd r25,Y+63
 3104 14d8 E797      		sbiw r28,117-62
 3105 14da 0E94 0000 		call init_scoring
 3106 14de 0F90      		pop __tmp_reg__
 3107 14e0 0F90      		pop __tmp_reg__
1495:lp_solve_5.5/colamd/colamd.c **** 	&n_row2, &n_col2, &max_deg) ;
1496:lp_solve_5.5/colamd/colamd.c **** 
1497:lp_solve_5.5/colamd/colamd.c ****     /* === Order the supercolumns =========================================== */
1498:lp_solve_5.5/colamd/colamd.c **** 
1499:lp_solve_5.5/colamd/colamd.c ****     ngarbage = find_ordering (n_row, n_col, Alen, Row, Col, A, p,
 3108               		.loc 1 1499 0
 3109 14e2 8B81      		ldd r24,Y+3
 3110 14e4 9C81      		ldd r25,Y+4
 3111 14e6 9C01      		movw r18,r24
 3112 14e8 220F      		lsl r18
 3113 14ea 331F      		rol r19
 3114 14ec AD88      		ldd r10,Y+21
 3115 14ee BE88      		ldd r11,Y+22
 3116 14f0 C988      		ldd r12,Y+17
 3117 14f2 DA88      		ldd r13,Y+18
 3118 14f4 CE01      		movw r24,r28
 3119 14f6 8159      		subi r24,-111
 3120 14f8 9F4F      		sbci r25,-1
 3121 14fa FC01      		movw r30,r24
 3122 14fc E080      		ld r14,Z
 3123 14fe F180      		ldd r15,Z+1
 3124 1500 CE01      		movw r24,r28
 3125 1502 8359      		subi r24,-109
 3126 1504 9F4F      		sbci r25,-1
 3127 1506 FC01      		movw r30,r24
 3128 1508 0081      		ld r16,Z
 3129 150a 1181      		ldd r17,Z+1
 3130 150c AB85      		ldd r26,Y+11
 3131 150e BC85      		ldd r27,Y+12
 3132 1510 6D85      		ldd r22,Y+13
 3133 1512 7E85      		ldd r23,Y+14
 3134 1514 E796      		adiw r28,117-62
 3135 1516 7FAF      		std Y+63,r23
 3136 1518 6EAF      		std Y+62,r22
 3137 151a E797      		sbiw r28,117-62
 3138 151c CE01      		movw r24,r28
 3139 151e 8559      		subi r24,-107
 3140 1520 9F4F      		sbci r25,-1
 3141 1522 FC01      		movw r30,r24
 3142 1524 4081      		ld r20,Z
 3143 1526 5181      		ldd r21,Z+1
 3144 1528 CE01      		movw r24,r28
 3145 152a 8759      		subi r24,-105
 3146 152c 9F4F      		sbci r25,-1
 3147 152e FC01      		movw r30,r24
 3148 1530 6081      		ld r22,Z
 3149 1532 7181      		ldd r23,Z+1
 3150 1534 CE01      		movw r24,r28
 3151 1536 8959      		subi r24,-103
 3152 1538 9F4F      		sbci r25,-1
 3153 153a FC01      		movw r30,r24
 3154 153c 8081      		ld r24,Z
 3155 153e 9181      		ldd r25,Z+1
 3156 1540 932E      		mov r9,r19
 3157 1542 9F92      		push r9
 3158 1544 2F93      		push r18
 3159 1546 4501      		movw r8,r10
 3160 1548 5601      		movw r10,r12
 3161 154a 6701      		movw r12,r14
 3162 154c 7801      		movw r14,r16
 3163 154e 8D01      		movw r16,r26
 3164 1550 E796      		adiw r28,117-62
 3165 1552 2EAD      		ldd r18,Y+62
 3166 1554 3FAD      		ldd r19,Y+63
 3167 1556 E797      		sbiw r28,117-62
 3168 1558 0E94 0000 		call find_ordering
 3169 155c 0F90      		pop __tmp_reg__
 3170 155e 0F90      		pop __tmp_reg__
 3171 1560 988B      		std Y+16,r25
 3172 1562 8F87      		std Y+15,r24
1500:lp_solve_5.5/colamd/colamd.c **** 	n_col2, max_deg, 2*nnz) ;
1501:lp_solve_5.5/colamd/colamd.c **** 
1502:lp_solve_5.5/colamd/colamd.c ****     /* === Order the non-principal columns ================================== */
1503:lp_solve_5.5/colamd/colamd.c **** 
1504:lp_solve_5.5/colamd/colamd.c ****     order_children (n_col, Col, p) ;
 3173               		.loc 1 1504 0
 3174 1564 CE01      		movw r24,r28
 3175 1566 8159      		subi r24,-111
 3176 1568 9F4F      		sbci r25,-1
 3177 156a FC01      		movw r30,r24
 3178 156c 4081      		ld r20,Z
 3179 156e 5181      		ldd r21,Z+1
 3180 1570 2B85      		ldd r18,Y+11
 3181 1572 3C85      		ldd r19,Y+12
 3182 1574 CE01      		movw r24,r28
 3183 1576 8759      		subi r24,-105
 3184 1578 9F4F      		sbci r25,-1
 3185 157a FC01      		movw r30,r24
 3186 157c 8081      		ld r24,Z
 3187 157e 9181      		ldd r25,Z+1
 3188 1580 B901      		movw r22,r18
 3189 1582 0E94 0000 		call order_children
1505:lp_solve_5.5/colamd/colamd.c **** 
1506:lp_solve_5.5/colamd/colamd.c ****     /* === Return statistics in stats ======================================= */
1507:lp_solve_5.5/colamd/colamd.c **** 
1508:lp_solve_5.5/colamd/colamd.c ****     stats [COLAMD_DENSE_ROW] = n_row - n_row2 ;
 3190               		.loc 1 1508 0
 3191 1586 8B89      		ldd r24,Y+19
 3192 1588 9C89      		ldd r25,Y+20
 3193 158a 9E01      		movw r18,r28
 3194 158c 2959      		subi r18,-103
 3195 158e 3F4F      		sbci r19,-1
 3196 1590 F901      		movw r30,r18
 3197 1592 2081      		ld r18,Z
 3198 1594 3181      		ldd r19,Z+1
 3199 1596 281B      		sub r18,r24
 3200 1598 390B      		sbc r19,r25
 3201 159a CE01      		movw r24,r28
 3202 159c 8D58      		subi r24,-115
 3203 159e 9F4F      		sbci r25,-1
 3204 15a0 FC01      		movw r30,r24
 3205 15a2 8081      		ld r24,Z
 3206 15a4 9181      		ldd r25,Z+1
 3207 15a6 FC01      		movw r30,r24
 3208 15a8 3183      		std Z+1,r19
 3209 15aa 2083      		st Z,r18
1509:lp_solve_5.5/colamd/colamd.c ****     stats [COLAMD_DENSE_COL] = n_col - n_col2 ;
 3210               		.loc 1 1509 0
 3211 15ac CE01      		movw r24,r28
 3212 15ae 8D58      		subi r24,-115
 3213 15b0 9F4F      		sbci r25,-1
 3214 15b2 FC01      		movw r30,r24
 3215 15b4 8081      		ld r24,Z
 3216 15b6 9181      		ldd r25,Z+1
 3217 15b8 0296      		adiw r24,2
 3218 15ba 2989      		ldd r18,Y+17
 3219 15bc 3A89      		ldd r19,Y+18
 3220 15be AE01      		movw r20,r28
 3221 15c0 4759      		subi r20,-105
 3222 15c2 5F4F      		sbci r21,-1
 3223 15c4 FA01      		movw r30,r20
 3224 15c6 4081      		ld r20,Z
 3225 15c8 5181      		ldd r21,Z+1
 3226 15ca BA01      		movw r22,r20
 3227 15cc 621B      		sub r22,r18
 3228 15ce 730B      		sbc r23,r19
 3229 15d0 9B01      		movw r18,r22
 3230 15d2 FC01      		movw r30,r24
 3231 15d4 3183      		std Z+1,r19
 3232 15d6 2083      		st Z,r18
1510:lp_solve_5.5/colamd/colamd.c ****     stats [COLAMD_DEFRAG_COUNT] = ngarbage ;
 3233               		.loc 1 1510 0
 3234 15d8 CE01      		movw r24,r28
 3235 15da 8D58      		subi r24,-115
 3236 15dc 9F4F      		sbci r25,-1
 3237 15de FC01      		movw r30,r24
 3238 15e0 8081      		ld r24,Z
 3239 15e2 9181      		ldd r25,Z+1
 3240 15e4 0496      		adiw r24,4
 3241 15e6 2F85      		ldd r18,Y+15
 3242 15e8 3889      		ldd r19,Y+16
 3243 15ea FC01      		movw r30,r24
 3244 15ec 3183      		std Z+1,r19
 3245 15ee 2083      		st Z,r18
1511:lp_solve_5.5/colamd/colamd.c ****     DEBUG0 (("colamd: done.\n")) ; 
1512:lp_solve_5.5/colamd/colamd.c ****     return (TRUE) ;
 3246               		.loc 1 1512 0
 3247 15f0 81E0      		ldi r24,lo8(1)
 3248 15f2 90E0      		ldi r25,0
 3249               	.L77:
 3250               	/* epilogue start */
1513:lp_solve_5.5/colamd/colamd.c **** }
 3251               		.loc 1 1513 0 discriminator 1
 3252 15f4 CA58      		subi r28,-118
 3253 15f6 DF4F      		sbci r29,-1
 3254 15f8 0FB6      		in __tmp_reg__,__SREG__
 3255 15fa F894      		cli
 3256 15fc DEBF      		out __SP_H__,r29
 3257 15fe 0FBE      		out __SREG__,__tmp_reg__
 3258 1600 CDBF      		out __SP_L__,r28
 3259 1602 DF91      		pop r29
 3260 1604 CF91      		pop r28
 3261 1606 1F91      		pop r17
 3262 1608 0F91      		pop r16
 3263 160a FF90      		pop r15
 3264 160c EF90      		pop r14
 3265 160e DF90      		pop r13
 3266 1610 CF90      		pop r12
 3267 1612 BF90      		pop r11
 3268 1614 AF90      		pop r10
 3269 1616 9F90      		pop r9
 3270 1618 8F90      		pop r8
 3271 161a 0895      		ret
 3272               		.cfi_endproc
 3273               	.LFE8:
 3275               		.section	.rodata
 3276               	.LC0:
 3277 0000 636F 6C61 		.string	"colamd"
 3277      6D64 00
 3278               		.text
 3279               	.global	colamd_report
 3281               	colamd_report:
 3282               	.LFB9:
1514:lp_solve_5.5/colamd/colamd.c **** 
1515:lp_solve_5.5/colamd/colamd.c **** 
1516:lp_solve_5.5/colamd/colamd.c **** /* ========================================================================== */
1517:lp_solve_5.5/colamd/colamd.c **** /* === colamd_report ======================================================== */
1518:lp_solve_5.5/colamd/colamd.c **** /* ========================================================================== */
1519:lp_solve_5.5/colamd/colamd.c **** 
1520:lp_solve_5.5/colamd/colamd.c **** PUBLIC void colamd_report
1521:lp_solve_5.5/colamd/colamd.c **** (
1522:lp_solve_5.5/colamd/colamd.c ****     int stats [COLAMD_STATS]
1523:lp_solve_5.5/colamd/colamd.c **** )
1524:lp_solve_5.5/colamd/colamd.c **** {
 3283               		.loc 1 1524 0
 3284               		.cfi_startproc
 3285 161c CF93      		push r28
 3286               	.LCFI34:
 3287               		.cfi_def_cfa_offset 3
 3288               		.cfi_offset 28, -2
 3289 161e DF93      		push r29
 3290               	.LCFI35:
 3291               		.cfi_def_cfa_offset 4
 3292               		.cfi_offset 29, -3
 3293 1620 00D0      		rcall .
 3294               	.LCFI36:
 3295               		.cfi_def_cfa_offset 6
 3296 1622 CDB7      		in r28,__SP_L__
 3297 1624 DEB7      		in r29,__SP_H__
 3298               	.LCFI37:
 3299               		.cfi_def_cfa_register 28
 3300               	/* prologue: function */
 3301               	/* frame size = 2 */
 3302               	/* stack size = 4 */
 3303               	.L__stack_usage = 4
 3304 1626 9A83      		std Y+2,r25
 3305 1628 8983      		std Y+1,r24
1525:lp_solve_5.5/colamd/colamd.c ****     print_report ("colamd", stats) ;
 3306               		.loc 1 1525 0
 3307 162a 8981      		ldd r24,Y+1
 3308 162c 9A81      		ldd r25,Y+2
 3309 162e BC01      		movw r22,r24
 3310 1630 80E0      		ldi r24,lo8(.LC0)
 3311 1632 90E0      		ldi r25,hi8(.LC0)
 3312 1634 0E94 0000 		call print_report
1526:lp_solve_5.5/colamd/colamd.c **** }
 3313               		.loc 1 1526 0
 3314 1638 0000      		nop
 3315               	/* epilogue start */
 3316 163a 0F90      		pop __tmp_reg__
 3317 163c 0F90      		pop __tmp_reg__
 3318 163e DF91      		pop r29
 3319 1640 CF91      		pop r28
 3320 1642 0895      		ret
 3321               		.cfi_endproc
 3322               	.LFE9:
 3324               		.section	.rodata
 3325               	.LC1:
 3326 0007 7379 6D61 		.string	"symamd"
 3326      6D64 00
 3327               		.text
 3328               	.global	symamd_report
 3330               	symamd_report:
 3331               	.LFB10:
1527:lp_solve_5.5/colamd/colamd.c **** 
1528:lp_solve_5.5/colamd/colamd.c **** 
1529:lp_solve_5.5/colamd/colamd.c **** /* ========================================================================== */
1530:lp_solve_5.5/colamd/colamd.c **** /* === symamd_report ======================================================== */
1531:lp_solve_5.5/colamd/colamd.c **** /* ========================================================================== */
1532:lp_solve_5.5/colamd/colamd.c **** 
1533:lp_solve_5.5/colamd/colamd.c **** PUBLIC void symamd_report
1534:lp_solve_5.5/colamd/colamd.c **** (
1535:lp_solve_5.5/colamd/colamd.c ****     int stats [COLAMD_STATS]
1536:lp_solve_5.5/colamd/colamd.c **** )
1537:lp_solve_5.5/colamd/colamd.c **** {
 3332               		.loc 1 1537 0
 3333               		.cfi_startproc
 3334 1644 CF93      		push r28
 3335               	.LCFI38:
 3336               		.cfi_def_cfa_offset 3
 3337               		.cfi_offset 28, -2
 3338 1646 DF93      		push r29
 3339               	.LCFI39:
 3340               		.cfi_def_cfa_offset 4
 3341               		.cfi_offset 29, -3
 3342 1648 00D0      		rcall .
 3343               	.LCFI40:
 3344               		.cfi_def_cfa_offset 6
 3345 164a CDB7      		in r28,__SP_L__
 3346 164c DEB7      		in r29,__SP_H__
 3347               	.LCFI41:
 3348               		.cfi_def_cfa_register 28
 3349               	/* prologue: function */
 3350               	/* frame size = 2 */
 3351               	/* stack size = 4 */
 3352               	.L__stack_usage = 4
 3353 164e 9A83      		std Y+2,r25
 3354 1650 8983      		std Y+1,r24
1538:lp_solve_5.5/colamd/colamd.c ****     print_report ("symamd", stats) ;
 3355               		.loc 1 1538 0
 3356 1652 8981      		ldd r24,Y+1
 3357 1654 9A81      		ldd r25,Y+2
 3358 1656 BC01      		movw r22,r24
 3359 1658 80E0      		ldi r24,lo8(.LC1)
 3360 165a 90E0      		ldi r25,hi8(.LC1)
 3361 165c 0E94 0000 		call print_report
1539:lp_solve_5.5/colamd/colamd.c **** }
 3362               		.loc 1 1539 0
 3363 1660 0000      		nop
 3364               	/* epilogue start */
 3365 1662 0F90      		pop __tmp_reg__
 3366 1664 0F90      		pop __tmp_reg__
 3367 1666 DF91      		pop r29
 3368 1668 CF91      		pop r28
 3369 166a 0895      		ret
 3370               		.cfi_endproc
 3371               	.LFE10:
 3374               	init_rows_cols:
 3375               	.LFB11:
1540:lp_solve_5.5/colamd/colamd.c **** 
1541:lp_solve_5.5/colamd/colamd.c **** 
1542:lp_solve_5.5/colamd/colamd.c **** 
1543:lp_solve_5.5/colamd/colamd.c **** /* ========================================================================== */
1544:lp_solve_5.5/colamd/colamd.c **** /* === NON-USER-CALLABLE ROUTINES: ========================================== */
1545:lp_solve_5.5/colamd/colamd.c **** /* ========================================================================== */
1546:lp_solve_5.5/colamd/colamd.c **** 
1547:lp_solve_5.5/colamd/colamd.c **** /* There are no user-callable routines beyond this point in the file */
1548:lp_solve_5.5/colamd/colamd.c **** 
1549:lp_solve_5.5/colamd/colamd.c **** 
1550:lp_solve_5.5/colamd/colamd.c **** /* ========================================================================== */
1551:lp_solve_5.5/colamd/colamd.c **** /* === init_rows_cols ======================================================= */
1552:lp_solve_5.5/colamd/colamd.c **** /* ========================================================================== */
1553:lp_solve_5.5/colamd/colamd.c **** 
1554:lp_solve_5.5/colamd/colamd.c **** /*
1555:lp_solve_5.5/colamd/colamd.c ****     Takes the column form of the matrix in A and creates the row form of the
1556:lp_solve_5.5/colamd/colamd.c ****     matrix.  Also, row and column attributes are stored in the Col and Row
1557:lp_solve_5.5/colamd/colamd.c ****     structs.  If the columns are un-sorted or contain duplicate row indices,
1558:lp_solve_5.5/colamd/colamd.c ****     this routine will also sort and remove duplicate row indices from the
1559:lp_solve_5.5/colamd/colamd.c ****     column form of the matrix.  Returns FALSE if the matrix is invalid,
1560:lp_solve_5.5/colamd/colamd.c ****     TRUE otherwise.  Not user-callable.
1561:lp_solve_5.5/colamd/colamd.c **** */
1562:lp_solve_5.5/colamd/colamd.c **** 
1563:lp_solve_5.5/colamd/colamd.c **** PRIVATE int init_rows_cols	/* returns TRUE if OK, or FALSE otherwise */
1564:lp_solve_5.5/colamd/colamd.c **** (
1565:lp_solve_5.5/colamd/colamd.c ****     /* === Parameters ======================================================= */
1566:lp_solve_5.5/colamd/colamd.c **** 
1567:lp_solve_5.5/colamd/colamd.c ****     int n_row,			/* number of rows of A */
1568:lp_solve_5.5/colamd/colamd.c ****     int n_col,			/* number of columns of A */
1569:lp_solve_5.5/colamd/colamd.c ****     Colamd_Row Row [],		/* of size n_row+1 */
1570:lp_solve_5.5/colamd/colamd.c ****     Colamd_Col Col [],		/* of size n_col+1 */
1571:lp_solve_5.5/colamd/colamd.c ****     int A [],			/* row indices of A, of size Alen */
1572:lp_solve_5.5/colamd/colamd.c ****     int p [],			/* pointers to columns in A, of size n_col+1 */
1573:lp_solve_5.5/colamd/colamd.c ****     int stats [COLAMD_STATS]	/* colamd statistics */ 
1574:lp_solve_5.5/colamd/colamd.c **** )
1575:lp_solve_5.5/colamd/colamd.c **** {
 3376               		.loc 1 1575 0
 3377               		.cfi_startproc
 3378 166c CF92      		push r12
 3379               	.LCFI42:
 3380               		.cfi_def_cfa_offset 3
 3381               		.cfi_offset 12, -2
 3382 166e DF92      		push r13
 3383               	.LCFI43:
 3384               		.cfi_def_cfa_offset 4
 3385               		.cfi_offset 13, -3
 3386 1670 EF92      		push r14
 3387               	.LCFI44:
 3388               		.cfi_def_cfa_offset 5
 3389               		.cfi_offset 14, -4
 3390 1672 FF92      		push r15
 3391               	.LCFI45:
 3392               		.cfi_def_cfa_offset 6
 3393               		.cfi_offset 15, -5
 3394 1674 0F93      		push r16
 3395               	.LCFI46:
 3396               		.cfi_def_cfa_offset 7
 3397               		.cfi_offset 16, -6
 3398 1676 1F93      		push r17
 3399               	.LCFI47:
 3400               		.cfi_def_cfa_offset 8
 3401               		.cfi_offset 17, -7
 3402 1678 CF93      		push r28
 3403               	.LCFI48:
 3404               		.cfi_def_cfa_offset 9
 3405               		.cfi_offset 28, -8
 3406 167a DF93      		push r29
 3407               	.LCFI49:
 3408               		.cfi_def_cfa_offset 10
 3409               		.cfi_offset 29, -9
 3410 167c CDB7      		in r28,__SP_L__
 3411 167e DEB7      		in r29,__SP_H__
 3412               	.LCFI50:
 3413               		.cfi_def_cfa_register 28
 3414 1680 6C97      		sbiw r28,28
 3415               	.LCFI51:
 3416               		.cfi_def_cfa_offset 38
 3417 1682 0FB6      		in __tmp_reg__,__SREG__
 3418 1684 F894      		cli
 3419 1686 DEBF      		out __SP_H__,r29
 3420 1688 0FBE      		out __SREG__,__tmp_reg__
 3421 168a CDBF      		out __SP_L__,r28
 3422               	/* prologue: function */
 3423               	/* frame size = 28 */
 3424               	/* stack size = 36 */
 3425               	.L__stack_usage = 36
 3426 168c 988B      		std Y+16,r25
 3427 168e 8F87      		std Y+15,r24
 3428 1690 7A8B      		std Y+18,r23
 3429 1692 698B      		std Y+17,r22
 3430 1694 5C8B      		std Y+20,r21
 3431 1696 4B8B      		std Y+19,r20
 3432 1698 3E8B      		std Y+22,r19
 3433 169a 2D8B      		std Y+21,r18
 3434 169c 188F      		std Y+24,r17
 3435 169e 0F8B      		std Y+23,r16
 3436 16a0 FA8E      		std Y+26,r15
 3437 16a2 E98E      		std Y+25,r14
 3438 16a4 DC8E      		std Y+28,r13
 3439 16a6 CB8E      		std Y+27,r12
1576:lp_solve_5.5/colamd/colamd.c ****     /* === Local variables ================================================== */
1577:lp_solve_5.5/colamd/colamd.c **** 
1578:lp_solve_5.5/colamd/colamd.c ****     int col ;			/* a column index */
1579:lp_solve_5.5/colamd/colamd.c ****     int row ;			/* a row index */
1580:lp_solve_5.5/colamd/colamd.c ****     int *cp ;			/* a column pointer */
1581:lp_solve_5.5/colamd/colamd.c ****     int *cp_end ;		/* a pointer to the end of a column */
1582:lp_solve_5.5/colamd/colamd.c ****     int *rp ;			/* a row pointer */
1583:lp_solve_5.5/colamd/colamd.c ****     int *rp_end ;		/* a pointer to the end of a row */
1584:lp_solve_5.5/colamd/colamd.c ****     int last_row ;		/* previous row */
1585:lp_solve_5.5/colamd/colamd.c **** 
1586:lp_solve_5.5/colamd/colamd.c ****     /* === Initialize columns, and check column pointers ==================== */
1587:lp_solve_5.5/colamd/colamd.c **** 
1588:lp_solve_5.5/colamd/colamd.c ****     for (col = 0 ; col < n_col ; col++)
 3440               		.loc 1 1588 0
 3441 16a8 1A82      		std Y+2,__zero_reg__
 3442 16aa 1982      		std Y+1,__zero_reg__
 3443 16ac 00C0      		rjmp .L81
 3444               	.L84:
1589:lp_solve_5.5/colamd/colamd.c ****     {
1590:lp_solve_5.5/colamd/colamd.c **** 	Col [col].start = p [col] ;
 3445               		.loc 1 1590 0
 3446 16ae 2981      		ldd r18,Y+1
 3447 16b0 3A81      		ldd r19,Y+2
 3448 16b2 C901      		movw r24,r18
 3449 16b4 880F      		lsl r24
 3450 16b6 991F      		rol r25
 3451 16b8 820F      		add r24,r18
 3452 16ba 931F      		adc r25,r19
 3453 16bc 880F      		lsl r24
 3454 16be 991F      		rol r25
 3455 16c0 880F      		lsl r24
 3456 16c2 991F      		rol r25
 3457 16c4 9C01      		movw r18,r24
 3458 16c6 8D89      		ldd r24,Y+21
 3459 16c8 9E89      		ldd r25,Y+22
 3460 16ca 820F      		add r24,r18
 3461 16cc 931F      		adc r25,r19
 3462 16ce 2981      		ldd r18,Y+1
 3463 16d0 3A81      		ldd r19,Y+2
 3464 16d2 220F      		lsl r18
 3465 16d4 331F      		rol r19
 3466 16d6 498D      		ldd r20,Y+25
 3467 16d8 5A8D      		ldd r21,Y+26
 3468 16da 240F      		add r18,r20
 3469 16dc 351F      		adc r19,r21
 3470 16de F901      		movw r30,r18
 3471 16e0 2081      		ld r18,Z
 3472 16e2 3181      		ldd r19,Z+1
 3473 16e4 FC01      		movw r30,r24
 3474 16e6 3183      		std Z+1,r19
 3475 16e8 2083      		st Z,r18
1591:lp_solve_5.5/colamd/colamd.c **** 	Col [col].length = p [col+1] - p [col] ;
 3476               		.loc 1 1591 0
 3477 16ea 2981      		ldd r18,Y+1
 3478 16ec 3A81      		ldd r19,Y+2
 3479 16ee C901      		movw r24,r18
 3480 16f0 880F      		lsl r24
 3481 16f2 991F      		rol r25
 3482 16f4 820F      		add r24,r18
 3483 16f6 931F      		adc r25,r19
 3484 16f8 880F      		lsl r24
 3485 16fa 991F      		rol r25
 3486 16fc 880F      		lsl r24
 3487 16fe 991F      		rol r25
 3488 1700 9C01      		movw r18,r24
 3489 1702 8D89      		ldd r24,Y+21
 3490 1704 9E89      		ldd r25,Y+22
 3491 1706 820F      		add r24,r18
 3492 1708 931F      		adc r25,r19
 3493 170a 2981      		ldd r18,Y+1
 3494 170c 3A81      		ldd r19,Y+2
 3495 170e 2F5F      		subi r18,-1
 3496 1710 3F4F      		sbci r19,-1
 3497 1712 220F      		lsl r18
 3498 1714 331F      		rol r19
 3499 1716 498D      		ldd r20,Y+25
 3500 1718 5A8D      		ldd r21,Y+26
 3501 171a 240F      		add r18,r20
 3502 171c 351F      		adc r19,r21
 3503 171e F901      		movw r30,r18
 3504 1720 4081      		ld r20,Z
 3505 1722 5181      		ldd r21,Z+1
 3506 1724 2981      		ldd r18,Y+1
 3507 1726 3A81      		ldd r19,Y+2
 3508 1728 220F      		lsl r18
 3509 172a 331F      		rol r19
 3510 172c 698D      		ldd r22,Y+25
 3511 172e 7A8D      		ldd r23,Y+26
 3512 1730 260F      		add r18,r22
 3513 1732 371F      		adc r19,r23
 3514 1734 F901      		movw r30,r18
 3515 1736 2081      		ld r18,Z
 3516 1738 3181      		ldd r19,Z+1
 3517 173a BA01      		movw r22,r20
 3518 173c 621B      		sub r22,r18
 3519 173e 730B      		sbc r23,r19
 3520 1740 9B01      		movw r18,r22
 3521 1742 FC01      		movw r30,r24
 3522 1744 3383      		std Z+3,r19
 3523 1746 2283      		std Z+2,r18
1592:lp_solve_5.5/colamd/colamd.c **** 
1593:lp_solve_5.5/colamd/colamd.c **** 	if (Col [col].length < 0)
 3524               		.loc 1 1593 0
 3525 1748 2981      		ldd r18,Y+1
 3526 174a 3A81      		ldd r19,Y+2
 3527 174c C901      		movw r24,r18
 3528 174e 880F      		lsl r24
 3529 1750 991F      		rol r25
 3530 1752 820F      		add r24,r18
 3531 1754 931F      		adc r25,r19
 3532 1756 880F      		lsl r24
 3533 1758 991F      		rol r25
 3534 175a 880F      		lsl r24
 3535 175c 991F      		rol r25
 3536 175e 9C01      		movw r18,r24
 3537 1760 8D89      		ldd r24,Y+21
 3538 1762 9E89      		ldd r25,Y+22
 3539 1764 820F      		add r24,r18
 3540 1766 931F      		adc r25,r19
 3541 1768 FC01      		movw r30,r24
 3542 176a 8281      		ldd r24,Z+2
 3543 176c 9381      		ldd r25,Z+3
 3544 176e 9923      		tst r25
 3545 1770 04F4      		brge .L82
1594:lp_solve_5.5/colamd/colamd.c **** 	{
1595:lp_solve_5.5/colamd/colamd.c **** 	    /* column pointers must be non-decreasing */
1596:lp_solve_5.5/colamd/colamd.c **** 	    stats [COLAMD_STATUS] = COLAMD_ERROR_col_length_negative ;
 3546               		.loc 1 1596 0
 3547 1772 8B8D      		ldd r24,Y+27
 3548 1774 9C8D      		ldd r25,Y+28
 3549 1776 0696      		adiw r24,6
 3550 1778 28EF      		ldi r18,lo8(-8)
 3551 177a 3FEF      		ldi r19,lo8(-1)
 3552 177c FC01      		movw r30,r24
 3553 177e 3183      		std Z+1,r19
 3554 1780 2083      		st Z,r18
1597:lp_solve_5.5/colamd/colamd.c **** 	    stats [COLAMD_INFO1] = col ;
 3555               		.loc 1 1597 0
 3556 1782 8B8D      		ldd r24,Y+27
 3557 1784 9C8D      		ldd r25,Y+28
 3558 1786 0896      		adiw r24,8
 3559 1788 2981      		ldd r18,Y+1
 3560 178a 3A81      		ldd r19,Y+2
 3561 178c FC01      		movw r30,r24
 3562 178e 3183      		std Z+1,r19
 3563 1790 2083      		st Z,r18
1598:lp_solve_5.5/colamd/colamd.c **** 	    stats [COLAMD_INFO2] = Col [col].length ;
 3564               		.loc 1 1598 0
 3565 1792 8B8D      		ldd r24,Y+27
 3566 1794 9C8D      		ldd r25,Y+28
 3567 1796 AC01      		movw r20,r24
 3568 1798 465F      		subi r20,-10
 3569 179a 5F4F      		sbci r21,-1
 3570 179c 2981      		ldd r18,Y+1
 3571 179e 3A81      		ldd r19,Y+2
 3572 17a0 C901      		movw r24,r18
 3573 17a2 880F      		lsl r24
 3574 17a4 991F      		rol r25
 3575 17a6 820F      		add r24,r18
 3576 17a8 931F      		adc r25,r19
 3577 17aa 880F      		lsl r24
 3578 17ac 991F      		rol r25
 3579 17ae 880F      		lsl r24
 3580 17b0 991F      		rol r25
 3581 17b2 9C01      		movw r18,r24
 3582 17b4 8D89      		ldd r24,Y+21
 3583 17b6 9E89      		ldd r25,Y+22
 3584 17b8 820F      		add r24,r18
 3585 17ba 931F      		adc r25,r19
 3586 17bc FC01      		movw r30,r24
 3587 17be 8281      		ldd r24,Z+2
 3588 17c0 9381      		ldd r25,Z+3
 3589 17c2 FA01      		movw r30,r20
 3590 17c4 9183      		std Z+1,r25
 3591 17c6 8083      		st Z,r24
1599:lp_solve_5.5/colamd/colamd.c **** 	    DEBUG0 (("colamd: col %d length %d < 0\n", col, Col [col].length)) ;
1600:lp_solve_5.5/colamd/colamd.c **** 	    return (FALSE) ;
 3592               		.loc 1 1600 0
 3593 17c8 80E0      		ldi r24,0
 3594 17ca 90E0      		ldi r25,0
 3595 17cc 00C0      		rjmp .L83
 3596               	.L82:
1601:lp_solve_5.5/colamd/colamd.c **** 	}
1602:lp_solve_5.5/colamd/colamd.c **** 
1603:lp_solve_5.5/colamd/colamd.c **** 	Col [col].shared1.thickness = 1 ;
 3597               		.loc 1 1603 0 discriminator 2
 3598 17ce 2981      		ldd r18,Y+1
 3599 17d0 3A81      		ldd r19,Y+2
 3600 17d2 C901      		movw r24,r18
 3601 17d4 880F      		lsl r24
 3602 17d6 991F      		rol r25
 3603 17d8 820F      		add r24,r18
 3604 17da 931F      		adc r25,r19
 3605 17dc 880F      		lsl r24
 3606 17de 991F      		rol r25
 3607 17e0 880F      		lsl r24
 3608 17e2 991F      		rol r25
 3609 17e4 9C01      		movw r18,r24
 3610 17e6 8D89      		ldd r24,Y+21
 3611 17e8 9E89      		ldd r25,Y+22
 3612 17ea 820F      		add r24,r18
 3613 17ec 931F      		adc r25,r19
 3614 17ee 21E0      		ldi r18,lo8(1)
 3615 17f0 30E0      		ldi r19,0
 3616 17f2 FC01      		movw r30,r24
 3617 17f4 3583      		std Z+5,r19
 3618 17f6 2483      		std Z+4,r18
1604:lp_solve_5.5/colamd/colamd.c **** 	Col [col].shared2.score = 0 ;
 3619               		.loc 1 1604 0 discriminator 2
 3620 17f8 2981      		ldd r18,Y+1
 3621 17fa 3A81      		ldd r19,Y+2
 3622 17fc C901      		movw r24,r18
 3623 17fe 880F      		lsl r24
 3624 1800 991F      		rol r25
 3625 1802 820F      		add r24,r18
 3626 1804 931F      		adc r25,r19
 3627 1806 880F      		lsl r24
 3628 1808 991F      		rol r25
 3629 180a 880F      		lsl r24
 3630 180c 991F      		rol r25
 3631 180e 9C01      		movw r18,r24
 3632 1810 8D89      		ldd r24,Y+21
 3633 1812 9E89      		ldd r25,Y+22
 3634 1814 820F      		add r24,r18
 3635 1816 931F      		adc r25,r19
 3636 1818 FC01      		movw r30,r24
 3637 181a 1782      		std Z+7,__zero_reg__
 3638 181c 1682      		std Z+6,__zero_reg__
1605:lp_solve_5.5/colamd/colamd.c **** 	Col [col].shared3.prev = EMPTY ;
 3639               		.loc 1 1605 0 discriminator 2
 3640 181e 2981      		ldd r18,Y+1
 3641 1820 3A81      		ldd r19,Y+2
 3642 1822 C901      		movw r24,r18
 3643 1824 880F      		lsl r24
 3644 1826 991F      		rol r25
 3645 1828 820F      		add r24,r18
 3646 182a 931F      		adc r25,r19
 3647 182c 880F      		lsl r24
 3648 182e 991F      		rol r25
 3649 1830 880F      		lsl r24
 3650 1832 991F      		rol r25
 3651 1834 9C01      		movw r18,r24
 3652 1836 8D89      		ldd r24,Y+21
 3653 1838 9E89      		ldd r25,Y+22
 3654 183a 820F      		add r24,r18
 3655 183c 931F      		adc r25,r19
 3656 183e 2FEF      		ldi r18,lo8(-1)
 3657 1840 3FEF      		ldi r19,lo8(-1)
 3658 1842 FC01      		movw r30,r24
 3659 1844 3187      		std Z+9,r19
 3660 1846 2087      		std Z+8,r18
1606:lp_solve_5.5/colamd/colamd.c **** 	Col [col].shared4.degree_next = EMPTY ;
 3661               		.loc 1 1606 0 discriminator 2
 3662 1848 2981      		ldd r18,Y+1
 3663 184a 3A81      		ldd r19,Y+2
 3664 184c C901      		movw r24,r18
 3665 184e 880F      		lsl r24
 3666 1850 991F      		rol r25
 3667 1852 820F      		add r24,r18
 3668 1854 931F      		adc r25,r19
 3669 1856 880F      		lsl r24
 3670 1858 991F      		rol r25
 3671 185a 880F      		lsl r24
 3672 185c 991F      		rol r25
 3673 185e 9C01      		movw r18,r24
 3674 1860 8D89      		ldd r24,Y+21
 3675 1862 9E89      		ldd r25,Y+22
 3676 1864 820F      		add r24,r18
 3677 1866 931F      		adc r25,r19
 3678 1868 2FEF      		ldi r18,lo8(-1)
 3679 186a 3FEF      		ldi r19,lo8(-1)
 3680 186c FC01      		movw r30,r24
 3681 186e 3387      		std Z+11,r19
 3682 1870 2287      		std Z+10,r18
1588:lp_solve_5.5/colamd/colamd.c ****     {
 3683               		.loc 1 1588 0 discriminator 2
 3684 1872 8981      		ldd r24,Y+1
 3685 1874 9A81      		ldd r25,Y+2
 3686 1876 0196      		adiw r24,1
 3687 1878 9A83      		std Y+2,r25
 3688 187a 8983      		std Y+1,r24
 3689               	.L81:
1588:lp_solve_5.5/colamd/colamd.c ****     {
 3690               		.loc 1 1588 0 is_stmt 0 discriminator 1
 3691 187c 2981      		ldd r18,Y+1
 3692 187e 3A81      		ldd r19,Y+2
 3693 1880 8989      		ldd r24,Y+17
 3694 1882 9A89      		ldd r25,Y+18
 3695 1884 2817      		cp r18,r24
 3696 1886 3907      		cpc r19,r25
 3697 1888 04F4      		brge .+2
 3698 188a 00C0      		rjmp .L84
1607:lp_solve_5.5/colamd/colamd.c ****     }
1608:lp_solve_5.5/colamd/colamd.c **** 
1609:lp_solve_5.5/colamd/colamd.c ****     /* p [0..n_col] no longer needed, used as "head" in subsequent routines */
1610:lp_solve_5.5/colamd/colamd.c **** 
1611:lp_solve_5.5/colamd/colamd.c ****     /* === Scan columns, compute row degrees, and check row indices ========= */
1612:lp_solve_5.5/colamd/colamd.c **** 
1613:lp_solve_5.5/colamd/colamd.c ****     stats [COLAMD_INFO3] = 0 ;	/* number of duplicate or unsorted row indices*/
 3699               		.loc 1 1613 0 is_stmt 1
 3700 188c 8B8D      		ldd r24,Y+27
 3701 188e 9C8D      		ldd r25,Y+28
 3702 1890 0C96      		adiw r24,12
 3703 1892 FC01      		movw r30,r24
 3704 1894 1182      		std Z+1,__zero_reg__
 3705 1896 1082      		st Z,__zero_reg__
1614:lp_solve_5.5/colamd/colamd.c **** 
1615:lp_solve_5.5/colamd/colamd.c ****     for (row = 0 ; row < n_row ; row++)
 3706               		.loc 1 1615 0
 3707 1898 1C82      		std Y+4,__zero_reg__
 3708 189a 1B82      		std Y+3,__zero_reg__
 3709 189c 00C0      		rjmp .L85
 3710               	.L86:
1616:lp_solve_5.5/colamd/colamd.c ****     {
1617:lp_solve_5.5/colamd/colamd.c **** 	Row [row].length = 0 ;
 3711               		.loc 1 1617 0 discriminator 3
 3712 189e 8B81      		ldd r24,Y+3
 3713 18a0 9C81      		ldd r25,Y+4
 3714 18a2 880F      		lsl r24
 3715 18a4 991F      		rol r25
 3716 18a6 880F      		lsl r24
 3717 18a8 991F      		rol r25
 3718 18aa 880F      		lsl r24
 3719 18ac 991F      		rol r25
 3720 18ae 2B89      		ldd r18,Y+19
 3721 18b0 3C89      		ldd r19,Y+20
 3722 18b2 820F      		add r24,r18
 3723 18b4 931F      		adc r25,r19
 3724 18b6 FC01      		movw r30,r24
 3725 18b8 1382      		std Z+3,__zero_reg__
 3726 18ba 1282      		std Z+2,__zero_reg__
1618:lp_solve_5.5/colamd/colamd.c **** 	Row [row].shared2.mark = -1 ;
 3727               		.loc 1 1618 0 discriminator 3
 3728 18bc 8B81      		ldd r24,Y+3
 3729 18be 9C81      		ldd r25,Y+4
 3730 18c0 880F      		lsl r24
 3731 18c2 991F      		rol r25
 3732 18c4 880F      		lsl r24
 3733 18c6 991F      		rol r25
 3734 18c8 880F      		lsl r24
 3735 18ca 991F      		rol r25
 3736 18cc 2B89      		ldd r18,Y+19
 3737 18ce 3C89      		ldd r19,Y+20
 3738 18d0 820F      		add r24,r18
 3739 18d2 931F      		adc r25,r19
 3740 18d4 2FEF      		ldi r18,lo8(-1)
 3741 18d6 3FEF      		ldi r19,lo8(-1)
 3742 18d8 FC01      		movw r30,r24
 3743 18da 3783      		std Z+7,r19
 3744 18dc 2683      		std Z+6,r18
1615:lp_solve_5.5/colamd/colamd.c ****     {
 3745               		.loc 1 1615 0 discriminator 3
 3746 18de 8B81      		ldd r24,Y+3
 3747 18e0 9C81      		ldd r25,Y+4
 3748 18e2 0196      		adiw r24,1
 3749 18e4 9C83      		std Y+4,r25
 3750 18e6 8B83      		std Y+3,r24
 3751               	.L85:
1615:lp_solve_5.5/colamd/colamd.c ****     {
 3752               		.loc 1 1615 0 is_stmt 0 discriminator 1
 3753 18e8 2B81      		ldd r18,Y+3
 3754 18ea 3C81      		ldd r19,Y+4
 3755 18ec 8F85      		ldd r24,Y+15
 3756 18ee 9889      		ldd r25,Y+16
 3757 18f0 2817      		cp r18,r24
 3758 18f2 3907      		cpc r19,r25
 3759 18f4 04F0      		brlt .L86
1619:lp_solve_5.5/colamd/colamd.c ****     }
1620:lp_solve_5.5/colamd/colamd.c **** 
1621:lp_solve_5.5/colamd/colamd.c ****     for (col = 0 ; col < n_col ; col++)
 3760               		.loc 1 1621 0 is_stmt 1
 3761 18f6 1A82      		std Y+2,__zero_reg__
 3762 18f8 1982      		std Y+1,__zero_reg__
 3763 18fa 00C0      		rjmp .L87
 3764               	.L96:
1622:lp_solve_5.5/colamd/colamd.c ****     {
1623:lp_solve_5.5/colamd/colamd.c **** 	last_row = -1 ;
 3765               		.loc 1 1623 0
 3766 18fc 8FEF      		ldi r24,lo8(-1)
 3767 18fe 9FEF      		ldi r25,lo8(-1)
 3768 1900 9A87      		std Y+10,r25
 3769 1902 8987      		std Y+9,r24
1624:lp_solve_5.5/colamd/colamd.c **** 
1625:lp_solve_5.5/colamd/colamd.c **** 	cp = &A [p [col]] ;
 3770               		.loc 1 1625 0
 3771 1904 8981      		ldd r24,Y+1
 3772 1906 9A81      		ldd r25,Y+2
 3773 1908 880F      		lsl r24
 3774 190a 991F      		rol r25
 3775 190c 298D      		ldd r18,Y+25
 3776 190e 3A8D      		ldd r19,Y+26
 3777 1910 820F      		add r24,r18
 3778 1912 931F      		adc r25,r19
 3779 1914 FC01      		movw r30,r24
 3780 1916 8081      		ld r24,Z
 3781 1918 9181      		ldd r25,Z+1
 3782 191a 880F      		lsl r24
 3783 191c 991F      		rol r25
 3784 191e 2F89      		ldd r18,Y+23
 3785 1920 388D      		ldd r19,Y+24
 3786 1922 820F      		add r24,r18
 3787 1924 931F      		adc r25,r19
 3788 1926 9E83      		std Y+6,r25
 3789 1928 8D83      		std Y+5,r24
1626:lp_solve_5.5/colamd/colamd.c **** 	cp_end = &A [p [col+1]] ;
 3790               		.loc 1 1626 0
 3791 192a 8981      		ldd r24,Y+1
 3792 192c 9A81      		ldd r25,Y+2
 3793 192e 0196      		adiw r24,1
 3794 1930 880F      		lsl r24
 3795 1932 991F      		rol r25
 3796 1934 298D      		ldd r18,Y+25
 3797 1936 3A8D      		ldd r19,Y+26
 3798 1938 820F      		add r24,r18
 3799 193a 931F      		adc r25,r19
 3800 193c FC01      		movw r30,r24
 3801 193e 8081      		ld r24,Z
 3802 1940 9181      		ldd r25,Z+1
 3803 1942 880F      		lsl r24
 3804 1944 991F      		rol r25
 3805 1946 2F89      		ldd r18,Y+23
 3806 1948 388D      		ldd r19,Y+24
 3807 194a 820F      		add r24,r18
 3808 194c 931F      		adc r25,r19
 3809 194e 9C87      		std Y+12,r25
 3810 1950 8B87      		std Y+11,r24
1627:lp_solve_5.5/colamd/colamd.c **** 
1628:lp_solve_5.5/colamd/colamd.c **** 	while (cp < cp_end)
 3811               		.loc 1 1628 0
 3812 1952 00C0      		rjmp .L88
 3813               	.L95:
1629:lp_solve_5.5/colamd/colamd.c **** 	{
1630:lp_solve_5.5/colamd/colamd.c **** 	    row = *cp++ ;
 3814               		.loc 1 1630 0
 3815 1954 8D81      		ldd r24,Y+5
 3816 1956 9E81      		ldd r25,Y+6
 3817 1958 9C01      		movw r18,r24
 3818 195a 2E5F      		subi r18,-2
 3819 195c 3F4F      		sbci r19,-1
 3820 195e 3E83      		std Y+6,r19
 3821 1960 2D83      		std Y+5,r18
 3822 1962 FC01      		movw r30,r24
 3823 1964 8081      		ld r24,Z
 3824 1966 9181      		ldd r25,Z+1
 3825 1968 9C83      		std Y+4,r25
 3826 196a 8B83      		std Y+3,r24
1631:lp_solve_5.5/colamd/colamd.c **** 
1632:lp_solve_5.5/colamd/colamd.c **** 	    /* make sure row indices within range */
1633:lp_solve_5.5/colamd/colamd.c **** 	    if (row < 0 || row >= n_row)
 3827               		.loc 1 1633 0
 3828 196c 8B81      		ldd r24,Y+3
 3829 196e 9C81      		ldd r25,Y+4
 3830 1970 9923      		tst r25
 3831 1972 04F0      		brlt .L89
 3832               		.loc 1 1633 0 is_stmt 0 discriminator 1
 3833 1974 2B81      		ldd r18,Y+3
 3834 1976 3C81      		ldd r19,Y+4
 3835 1978 8F85      		ldd r24,Y+15
 3836 197a 9889      		ldd r25,Y+16
