   1              	 .cpu cortex-m4
   2              	 .eabi_attribute 20,1
   3              	 .eabi_attribute 21,1
   4              	 .eabi_attribute 23,3
   5              	 .eabi_attribute 24,1
   6              	 .eabi_attribute 25,1
   7              	 .eabi_attribute 26,1
   8              	 .eabi_attribute 30,6
   9              	 .eabi_attribute 34,1
  10              	 .eabi_attribute 18,4
  11              	 .file "sys.c"
  12              	 .text
  13              	.Ltext0:
  14              	 .cfi_sections .debug_frame
  15              	 .section .bss.cpu_irq_critical_section_counter,"aw",%nobits
  16              	 .align 2
  19              	cpu_irq_critical_section_counter:
  20 0000 00000000 	 .space 4
  21              	 .section .bss.cpu_irq_prev_interrupt_state,"aw",%nobits
  24              	cpu_irq_prev_interrupt_state:
  25 0000 00       	 .space 1
  26              	 .comm n,1,1
  27              	 .section .bss.tTS,"aw",%nobits
  28              	 .align 2
  31              	tTS:
  32 0000 00000000 	 .space 4
  33              	 .text
  34              	 .align 1
  35              	 .global SYS_Init
  36              	 .syntax unified
  37              	 .thumb
  38              	 .thumb_func
  39              	 .fpu softvfp
  41              	SYS_Init:
  42              	.LFB224:
  43              	 .file 1 "../../../stack/LwMesh/TDMA/sys/src/sys.c"
   1:../../../stack/LwMesh/TDMA/sys/src/sys.c **** /**
   2:../../../stack/LwMesh/TDMA/sys/src/sys.c ****  * \file sys.c
   3:../../../stack/LwMesh/TDMA/sys/src/sys.c ****  *
   4:../../../stack/LwMesh/TDMA/sys/src/sys.c ****  * \brief Main system routines implementation
   5:../../../stack/LwMesh/TDMA/sys/src/sys.c ****  *
   6:../../../stack/LwMesh/TDMA/sys/src/sys.c ****  * Copyright (C) 2014 Atmel Corporation. All rights reserved.
   7:../../../stack/LwMesh/TDMA/sys/src/sys.c ****  *
   8:../../../stack/LwMesh/TDMA/sys/src/sys.c ****  * \asf_license_start
   9:../../../stack/LwMesh/TDMA/sys/src/sys.c ****  *
  10:../../../stack/LwMesh/TDMA/sys/src/sys.c ****  * Redistribution and use in source and binary forms, with or without
  11:../../../stack/LwMesh/TDMA/sys/src/sys.c ****  * modification, are permitted provided that the following conditions are met:
  12:../../../stack/LwMesh/TDMA/sys/src/sys.c ****  *
  13:../../../stack/LwMesh/TDMA/sys/src/sys.c ****  * 1. Redistributions of source code must retain the above copyright notice,
  14:../../../stack/LwMesh/TDMA/sys/src/sys.c ****  *    this list of conditions and the following disclaimer.
  15:../../../stack/LwMesh/TDMA/sys/src/sys.c ****  *
  16:../../../stack/LwMesh/TDMA/sys/src/sys.c ****  * 2. Redistributions in binary form must reproduce the above copyright notice,
  17:../../../stack/LwMesh/TDMA/sys/src/sys.c ****  *    this list of conditions and the following disclaimer in the documentation
  18:../../../stack/LwMesh/TDMA/sys/src/sys.c ****  *    and/or other materials provided with the distribution.
  19:../../../stack/LwMesh/TDMA/sys/src/sys.c ****  *
  20:../../../stack/LwMesh/TDMA/sys/src/sys.c ****  * 3. The name of Atmel may not be used to endorse or promote products derived
  21:../../../stack/LwMesh/TDMA/sys/src/sys.c ****  *    from this software without specific prior written permission.
  22:../../../stack/LwMesh/TDMA/sys/src/sys.c ****  *
  23:../../../stack/LwMesh/TDMA/sys/src/sys.c ****  * 4. This software may only be redistributed and used in connection with an
  24:../../../stack/LwMesh/TDMA/sys/src/sys.c ****  *    Atmel microcontroller product.
  25:../../../stack/LwMesh/TDMA/sys/src/sys.c ****  *
  26:../../../stack/LwMesh/TDMA/sys/src/sys.c ****  * THIS SOFTWARE IS PROVIDED BY ATMEL "AS IS" AND ANY EXPRESS OR IMPLIED
  27:../../../stack/LwMesh/TDMA/sys/src/sys.c ****  * WARRANTIES, INCLUDING, BUT NOT LIMITED TO, THE IMPLIED WARRANTIES OF
  28:../../../stack/LwMesh/TDMA/sys/src/sys.c ****  * MERCHANTABILITY, FITNESS FOR A PARTICULAR PURPOSE AND NON-INFRINGEMENT ARE
  29:../../../stack/LwMesh/TDMA/sys/src/sys.c ****  * EXPRESSLY AND SPECIFICALLY DISCLAIMED. IN NO EVENT SHALL ATMEL BE LIABLE FOR
  30:../../../stack/LwMesh/TDMA/sys/src/sys.c ****  * ANY DIRECT, INDIRECT, INCIDENTAL, SPECIAL, EXEMPLARY, OR CONSEQUENTIAL
  31:../../../stack/LwMesh/TDMA/sys/src/sys.c ****  * DAMAGES (INCLUDING, BUT NOT LIMITED TO, PROCUREMENT OF SUBSTITUTE GOODS
  32:../../../stack/LwMesh/TDMA/sys/src/sys.c ****  * OR SERVICES; LOSS OF USE, DATA, OR PROFITS; OR BUSINESS INTERRUPTION)
  33:../../../stack/LwMesh/TDMA/sys/src/sys.c ****  * HOWEVER CAUSED AND ON ANY THEORY OF LIABILITY, WHETHER IN CONTRACT,
  34:../../../stack/LwMesh/TDMA/sys/src/sys.c ****  * STRICT LIABILITY, OR TORT (INCLUDING NEGLIGENCE OR OTHERWISE) ARISING IN
  35:../../../stack/LwMesh/TDMA/sys/src/sys.c ****  * ANY WAY OUT OF THE USE OF THIS SOFTWARE, EVEN IF ADVISED OF THE
  36:../../../stack/LwMesh/TDMA/sys/src/sys.c ****  * POSSIBILITY OF SUCH DAMAGE.
  37:../../../stack/LwMesh/TDMA/sys/src/sys.c ****  *
  38:../../../stack/LwMesh/TDMA/sys/src/sys.c ****  * \asf_license_stop
  39:../../../stack/LwMesh/TDMA/sys/src/sys.c ****  *
  40:../../../stack/LwMesh/TDMA/sys/src/sys.c ****  *
  41:../../../stack/LwMesh/TDMA/sys/src/sys.c ****  */
  42:../../../stack/LwMesh/TDMA/sys/src/sys.c **** 
  43:../../../stack/LwMesh/TDMA/sys/src/sys.c **** /*
  44:../../../stack/LwMesh/TDMA/sys/src/sys.c ****  * Copyright (c) 2014, Atmel Corporation All rights reserved.
  45:../../../stack/LwMesh/TDMA/sys/src/sys.c ****  *
  46:../../../stack/LwMesh/TDMA/sys/src/sys.c ****  * Licensed under Atmel's Limited License Agreement --> EULA.txt
  47:../../../stack/LwMesh/TDMA/sys/src/sys.c ****  */
  48:../../../stack/LwMesh/TDMA/sys/src/sys.c **** 
  49:../../../stack/LwMesh/TDMA/sys/src/sys.c **** /*- Includes ---------------------------------------------------------------*/
  50:../../../stack/LwMesh/TDMA/sys/src/sys.c **** #include "sysConfig.h"
  51:../../../stack/LwMesh/TDMA/sys/src/sys.c **** #include "phy.h"
  52:../../../stack/LwMesh/TDMA/sys/src/sys.c **** #include "nwk.h"
  53:../../../stack/LwMesh/TDMA/sys/src/sys.c **** #if SYS_SECURITY_MODE == 0
  54:../../../stack/LwMesh/TDMA/sys/src/sys.c **** #include "sal.h"
  55:../../../stack/LwMesh/TDMA/sys/src/sys.c **** #endif
  56:../../../stack/LwMesh/TDMA/sys/src/sys.c **** #include "sys.h"
  57:../../../stack/LwMesh/TDMA/sys/src/sys.c **** #include "sysTimer.h"
  58:../../../stack/LwMesh/TDMA/sys/src/sys.c **** #include "asf.h"
  59:../../../stack/LwMesh/TDMA/sys/src/sys.c **** 
  60:../../../stack/LwMesh/TDMA/sys/src/sys.c **** /*- Implementations --------------------------------------------------------*/
  61:../../../stack/LwMesh/TDMA/sys/src/sys.c **** 
  62:../../../stack/LwMesh/TDMA/sys/src/sys.c **** /*************************************************************************//**
  63:../../../stack/LwMesh/TDMA/sys/src/sys.c **** *****************************************************************************/
  64:../../../stack/LwMesh/TDMA/sys/src/sys.c **** void SYS_Init(void)
  65:../../../stack/LwMesh/TDMA/sys/src/sys.c **** {
  44              	 .loc 1 65 0
  45              	 .cfi_startproc
  46              	 
  47              	 
  48 0000 80B5     	 push {r7,lr}
  49              	.LCFI0:
  50              	 .cfi_def_cfa_offset 8
  51              	 .cfi_offset 7,-8
  52              	 .cfi_offset 14,-4
  53 0002 00AF     	 add r7,sp,#0
  54              	.LCFI1:
  55              	 .cfi_def_cfa_register 7
  66:../../../stack/LwMesh/TDMA/sys/src/sys.c **** 	SYS_TimerInit();
  56              	 .loc 1 66 0
  57 0004 044B     	 ldr r3,.L2
  58 0006 9847     	 blx r3
  59              	.LVL0:
  67:../../../stack/LwMesh/TDMA/sys/src/sys.c **** #if SYS_SECURITY_MODE == 0
  68:../../../stack/LwMesh/TDMA/sys/src/sys.c **** 	sal_init();
  60              	 .loc 1 68 0
  61 0008 044B     	 ldr r3,.L2+4
  62 000a 9847     	 blx r3
  63              	.LVL1:
  69:../../../stack/LwMesh/TDMA/sys/src/sys.c **** #endif
  70:../../../stack/LwMesh/TDMA/sys/src/sys.c **** 	PHY_Init();
  64              	 .loc 1 70 0
  65 000c 044B     	 ldr r3,.L2+8
  66 000e 9847     	 blx r3
  67              	.LVL2:
  71:../../../stack/LwMesh/TDMA/sys/src/sys.c **** 	NWK_Init();
  68              	 .loc 1 71 0
  69 0010 044B     	 ldr r3,.L2+12
  70 0012 9847     	 blx r3
  71              	.LVL3:
  72:../../../stack/LwMesh/TDMA/sys/src/sys.c **** }
  72              	 .loc 1 72 0
  73 0014 00BF     	 nop
  74 0016 80BD     	 pop {r7,pc}
  75              	.L3:
  76              	 .align 2
  77              	.L2:
  78 0018 00000000 	 .word SYS_TimerInit
  79 001c 00000000 	 .word sal_init
  80 0020 00000000 	 .word PHY_Init
  81 0024 00000000 	 .word NWK_Init
  82              	 .cfi_endproc
  83              	.LFE224:
  85              	 .align 1
  86              	 .global SYS_TaskHandler
  87              	 .syntax unified
  88              	 .thumb
  89              	 .thumb_func
  90              	 .fpu softvfp
  92              	SYS_TaskHandler:
  93              	.LFB225:
  73:../../../stack/LwMesh/TDMA/sys/src/sys.c **** 
  74:../../../stack/LwMesh/TDMA/sys/src/sys.c **** /*************************************************************************//**
  75:../../../stack/LwMesh/TDMA/sys/src/sys.c **** *****************************************************************************/
  76:../../../stack/LwMesh/TDMA/sys/src/sys.c **** void SYS_TaskHandler(void)
  77:../../../stack/LwMesh/TDMA/sys/src/sys.c **** {
  94              	 .loc 1 77 0
  95              	 .cfi_startproc
  96              	 
  97              	 
  98 0028 80B5     	 push {r7,lr}
  99              	.LCFI2:
 100              	 .cfi_def_cfa_offset 8
 101              	 .cfi_offset 7,-8
 102              	 .cfi_offset 14,-4
 103 002a 00AF     	 add r7,sp,#0
 104              	.LCFI3:
 105              	 .cfi_def_cfa_register 7
  78:../../../stack/LwMesh/TDMA/sys/src/sys.c **** 	PHY_TaskHandler();
 106              	 .loc 1 78 0
 107 002c 034B     	 ldr r3,.L5
 108 002e 9847     	 blx r3
 109              	.LVL4:
  79:../../../stack/LwMesh/TDMA/sys/src/sys.c **** 	NWK_TaskHandler();
 110              	 .loc 1 79 0
 111 0030 034B     	 ldr r3,.L5+4
 112 0032 9847     	 blx r3
 113              	.LVL5:
  80:../../../stack/LwMesh/TDMA/sys/src/sys.c **** 	SYS_TimerTaskHandler();
 114              	 .loc 1 80 0
 115 0034 034B     	 ldr r3,.L5+8
 116 0036 9847     	 blx r3
 117              	.LVL6:
  81:../../../stack/LwMesh/TDMA/sys/src/sys.c **** }
 118              	 .loc 1 81 0
 119 0038 00BF     	 nop
 120 003a 80BD     	 pop {r7,pc}
 121              	.L6:
 122              	 .align 2
 123              	.L5:
 124 003c 00000000 	 .word PHY_TaskHandler
 125 0040 00000000 	 .word NWK_TaskHandler
 126 0044 00000000 	 .word SYS_TimerTaskHandler
 127              	 .cfi_endproc
 128              	.LFE225:
 130              	.Letext0:
 131              	 .file 2 "c:\\program files (x86)\\atmel\\studio\\7.0\\toolchain\\arm\\arm-gnu-toolchain\\arm-none-eabi\\include\\machine\\_default_types.h"
 132              	 .file 3 "c:\\program files (x86)\\atmel\\studio\\7.0\\toolchain\\arm\\arm-gnu-toolchain\\arm-none-eabi\\include\\sys\\_stdint.h"
 133              	 .file 4 "../../../platform/thirdparty/CMSIS/include/core_cm4.h"
 134              	 .file 5 "../../../platform/sam/utils/cmsis/sam4l/source/templates/system_sam4l.h"
 135              	 .file 6 "c:\\program files (x86)\\atmel\\studio\\7.0\\toolchain\\arm\\arm-gnu-toolchain\\arm-none-eabi\\include\\sys\\lock.h"
 136              	 .file 7 "c:\\program files (x86)\\atmel\\studio\\7.0\\toolchain\\arm\\arm-gnu-toolchain\\arm-none-eabi\\include\\sys\\_types.h"
 137              	 .file 8 "c:\\program files (x86)\\atmel\\studio\\7.0\\toolchain\\arm\\arm-gnu-toolchain\\lib\\gcc\\arm-none-eabi\\6.3.1\\include\\stddef.h"
 138              	 .file 9 "c:\\program files (x86)\\atmel\\studio\\7.0\\toolchain\\arm\\arm-gnu-toolchain\\arm-none-eabi\\include\\sys\\reent.h"
 139              	 .file 10 "c:\\program files (x86)\\atmel\\studio\\7.0\\toolchain\\arm\\arm-gnu-toolchain\\arm-none-eabi\\include\\stdlib.h"
 140              	 .file 11 "../../../platform/common/utils/interrupt/interrupt_sam_nvic.h"
 141              	 .file 12 "../../../platform/sam/utils/compiler.h"
 142              	 .file 13 "../../../platform/common/services/usb/usb_protocol.h"
 143              	 .file 14 "../../../platform/common/services/usb/udc/udi.h"
 144              	 .file 15 "../../../platform/common/services/usb/udc/udc_desc.h"
 145              	 .file 16 "../../../platform/common/services/usb/udc/udd.h"
 146              	 .file 17 "../../../platform/common/services/usb/class/cdc/device/udi_cdc.h"
 147              	 .file 18 "../../../platform/common/utils/stdio/stdio_usb/stdio_usb.h"
 148              	 .file 19 "../../../stack/LwMesh/TDMA/nwk/inc/nwkRx.h"
 149              	 .file 20 "../../../stack/LwMesh/TDMA/nwk/inc/nwk.h"
 150              	 .file 21 "../../../stack/LwMesh/TDMA/phy/AT86RF233/inc/phy.h"
 151              	 .file 22 "../../../stack/LwMesh/TDMA/sys/inc/sysTimer.h"
 152              	 .file 23 "../../../stack/LwMesh/TDMA/services/sal/inc/sal.h"
 153              	 .file 24 "config/config.h"