   1              	 .cpu cortex-m4
   2              	 .eabi_attribute 20,1
   3              	 .eabi_attribute 21,1
   4              	 .eabi_attribute 23,3
   5              	 .eabi_attribute 24,1
   6              	 .eabi_attribute 25,1
   7              	 .eabi_attribute 26,1
   8              	 .eabi_attribute 30,6
   9              	 .eabi_attribute 34,1
  10              	 .eabi_attribute 18,4
  11              	 .file "sysclk.c"
  12              	 .text
  13              	.Ltext0:
  14              	 .cfi_sections .debug_frame
  15              	 .section .bss.cpu_irq_critical_section_counter,"aw",%nobits
  16              	 .align 2
  19              	cpu_irq_critical_section_counter:
  20 0000 00000000 	 .space 4
  21              	 .section .bss.cpu_irq_prev_interrupt_state,"aw",%nobits
  24              	cpu_irq_prev_interrupt_state:
  25 0000 00       	 .space 1
  26              	 .text
  27              	 .align 1
  28              	 .syntax unified
  29              	 .thumb
  30              	 .thumb_func
  31              	 .fpu softvfp
  33              	cpu_irq_save:
  34              	.LFB112:
  35              	 .file 1 "../../../platform/common/utils/interrupt/interrupt_sam_nvic.h"
   1:../../../platform/common/utils/interrupt/interrupt_sam_nvic.h **** /**
   2:../../../platform/common/utils/interrupt/interrupt_sam_nvic.h ****  * \file
   3:../../../platform/common/utils/interrupt/interrupt_sam_nvic.h ****  *
   4:../../../platform/common/utils/interrupt/interrupt_sam_nvic.h ****  * \brief Global interrupt management for SAM D20, SAM3 and SAM4 (NVIC based)
   5:../../../platform/common/utils/interrupt/interrupt_sam_nvic.h ****  *
   6:../../../platform/common/utils/interrupt/interrupt_sam_nvic.h ****  * Copyright (c) 2012-2013 Atmel Corporation. All rights reserved.
   7:../../../platform/common/utils/interrupt/interrupt_sam_nvic.h ****  *
   8:../../../platform/common/utils/interrupt/interrupt_sam_nvic.h ****  * \asf_license_start
   9:../../../platform/common/utils/interrupt/interrupt_sam_nvic.h ****  *
  10:../../../platform/common/utils/interrupt/interrupt_sam_nvic.h ****  * \page License
  11:../../../platform/common/utils/interrupt/interrupt_sam_nvic.h ****  *
  12:../../../platform/common/utils/interrupt/interrupt_sam_nvic.h ****  * Redistribution and use in source and binary forms, with or without
  13:../../../platform/common/utils/interrupt/interrupt_sam_nvic.h ****  * modification, are permitted provided that the following conditions are met:
  14:../../../platform/common/utils/interrupt/interrupt_sam_nvic.h ****  *
  15:../../../platform/common/utils/interrupt/interrupt_sam_nvic.h ****  * 1. Redistributions of source code must retain the above copyright notice,
  16:../../../platform/common/utils/interrupt/interrupt_sam_nvic.h ****  *    this list of conditions and the following disclaimer.
  17:../../../platform/common/utils/interrupt/interrupt_sam_nvic.h ****  *
  18:../../../platform/common/utils/interrupt/interrupt_sam_nvic.h ****  * 2. Redistributions in binary form must reproduce the above copyright notice,
  19:../../../platform/common/utils/interrupt/interrupt_sam_nvic.h ****  *    this list of conditions and the following disclaimer in the documentation
  20:../../../platform/common/utils/interrupt/interrupt_sam_nvic.h ****  *    and/or other materials provided with the distribution.
  21:../../../platform/common/utils/interrupt/interrupt_sam_nvic.h ****  *
  22:../../../platform/common/utils/interrupt/interrupt_sam_nvic.h ****  * 3. The name of Atmel may not be used to endorse or promote products derived
  23:../../../platform/common/utils/interrupt/interrupt_sam_nvic.h ****  *    from this software without specific prior written permission.
  24:../../../platform/common/utils/interrupt/interrupt_sam_nvic.h ****  *
  25:../../../platform/common/utils/interrupt/interrupt_sam_nvic.h ****  * 4. This software may only be redistributed and used in connection with an
  26:../../../platform/common/utils/interrupt/interrupt_sam_nvic.h ****  *    Atmel microcontroller product.
  27:../../../platform/common/utils/interrupt/interrupt_sam_nvic.h ****  *
  28:../../../platform/common/utils/interrupt/interrupt_sam_nvic.h ****  * THIS SOFTWARE IS PROVIDED BY ATMEL "AS IS" AND ANY EXPRESS OR IMPLIED
  29:../../../platform/common/utils/interrupt/interrupt_sam_nvic.h ****  * WARRANTIES, INCLUDING, BUT NOT LIMITED TO, THE IMPLIED WARRANTIES OF
  30:../../../platform/common/utils/interrupt/interrupt_sam_nvic.h ****  * MERCHANTABILITY, FITNESS FOR A PARTICULAR PURPOSE AND NON-INFRINGEMENT ARE
  31:../../../platform/common/utils/interrupt/interrupt_sam_nvic.h ****  * EXPRESSLY AND SPECIFICALLY DISCLAIMED. IN NO EVENT SHALL ATMEL BE LIABLE FOR
  32:../../../platform/common/utils/interrupt/interrupt_sam_nvic.h ****  * ANY DIRECT, INDIRECT, INCIDENTAL, SPECIAL, EXEMPLARY, OR CONSEQUENTIAL
  33:../../../platform/common/utils/interrupt/interrupt_sam_nvic.h ****  * DAMAGES (INCLUDING, BUT NOT LIMITED TO, PROCUREMENT OF SUBSTITUTE GOODS
  34:../../../platform/common/utils/interrupt/interrupt_sam_nvic.h ****  * OR SERVICES; LOSS OF USE, DATA, OR PROFITS; OR BUSINESS INTERRUPTION)
  35:../../../platform/common/utils/interrupt/interrupt_sam_nvic.h ****  * HOWEVER CAUSED AND ON ANY THEORY OF LIABILITY, WHETHER IN CONTRACT,
  36:../../../platform/common/utils/interrupt/interrupt_sam_nvic.h ****  * STRICT LIABILITY, OR TORT (INCLUDING NEGLIGENCE OR OTHERWISE) ARISING IN
  37:../../../platform/common/utils/interrupt/interrupt_sam_nvic.h ****  * ANY WAY OUT OF THE USE OF THIS SOFTWARE, EVEN IF ADVISED OF THE
  38:../../../platform/common/utils/interrupt/interrupt_sam_nvic.h ****  * POSSIBILITY OF SUCH DAMAGE.
  39:../../../platform/common/utils/interrupt/interrupt_sam_nvic.h ****  *
  40:../../../platform/common/utils/interrupt/interrupt_sam_nvic.h ****  * \asf_license_stop
  41:../../../platform/common/utils/interrupt/interrupt_sam_nvic.h ****  *
  42:../../../platform/common/utils/interrupt/interrupt_sam_nvic.h ****  */
  43:../../../platform/common/utils/interrupt/interrupt_sam_nvic.h **** 
  44:../../../platform/common/utils/interrupt/interrupt_sam_nvic.h **** #ifndef UTILS_INTERRUPT_INTERRUPT_H
  45:../../../platform/common/utils/interrupt/interrupt_sam_nvic.h **** #define UTILS_INTERRUPT_INTERRUPT_H
  46:../../../platform/common/utils/interrupt/interrupt_sam_nvic.h **** 
  47:../../../platform/common/utils/interrupt/interrupt_sam_nvic.h **** #include <compiler.h>
  48:../../../platform/common/utils/interrupt/interrupt_sam_nvic.h **** #include <parts.h>
  49:../../../platform/common/utils/interrupt/interrupt_sam_nvic.h **** 
  50:../../../platform/common/utils/interrupt/interrupt_sam_nvic.h **** /**
  51:../../../platform/common/utils/interrupt/interrupt_sam_nvic.h ****  * \weakgroup interrupt_group
  52:../../../platform/common/utils/interrupt/interrupt_sam_nvic.h ****  *
  53:../../../platform/common/utils/interrupt/interrupt_sam_nvic.h ****  * @{
  54:../../../platform/common/utils/interrupt/interrupt_sam_nvic.h ****  */
  55:../../../platform/common/utils/interrupt/interrupt_sam_nvic.h **** 
  56:../../../platform/common/utils/interrupt/interrupt_sam_nvic.h **** /**
  57:../../../platform/common/utils/interrupt/interrupt_sam_nvic.h ****  * \name Interrupt Service Routine definition
  58:../../../platform/common/utils/interrupt/interrupt_sam_nvic.h ****  *
  59:../../../platform/common/utils/interrupt/interrupt_sam_nvic.h ****  * @{
  60:../../../platform/common/utils/interrupt/interrupt_sam_nvic.h ****  */
  61:../../../platform/common/utils/interrupt/interrupt_sam_nvic.h **** 
  62:../../../platform/common/utils/interrupt/interrupt_sam_nvic.h **** /**
  63:../../../platform/common/utils/interrupt/interrupt_sam_nvic.h ****  * \brief Define service routine
  64:../../../platform/common/utils/interrupt/interrupt_sam_nvic.h ****  *
  65:../../../platform/common/utils/interrupt/interrupt_sam_nvic.h ****  * \note For NVIC devices the interrupt service routines are predefined to
  66:../../../platform/common/utils/interrupt/interrupt_sam_nvic.h ****  *       add to vector table in binary generation, so there is no service
  67:../../../platform/common/utils/interrupt/interrupt_sam_nvic.h ****  *       register at run time. The routine collections are in exceptions.h.
  68:../../../platform/common/utils/interrupt/interrupt_sam_nvic.h ****  *
  69:../../../platform/common/utils/interrupt/interrupt_sam_nvic.h ****  * Usage:
  70:../../../platform/common/utils/interrupt/interrupt_sam_nvic.h ****  * \code
  71:../../../platform/common/utils/interrupt/interrupt_sam_nvic.h ****  * ISR(foo_irq_handler)
  72:../../../platform/common/utils/interrupt/interrupt_sam_nvic.h ****  * {
  73:../../../platform/common/utils/interrupt/interrupt_sam_nvic.h ****  *      // Function definition
  74:../../../platform/common/utils/interrupt/interrupt_sam_nvic.h ****  *      ...
  75:../../../platform/common/utils/interrupt/interrupt_sam_nvic.h ****  * }
  76:../../../platform/common/utils/interrupt/interrupt_sam_nvic.h ****  * \endcode
  77:../../../platform/common/utils/interrupt/interrupt_sam_nvic.h ****  *
  78:../../../platform/common/utils/interrupt/interrupt_sam_nvic.h ****  * \param func Name for the function.
  79:../../../platform/common/utils/interrupt/interrupt_sam_nvic.h ****  */
  80:../../../platform/common/utils/interrupt/interrupt_sam_nvic.h **** #  define ISR(func)   \
  81:../../../platform/common/utils/interrupt/interrupt_sam_nvic.h **** 	void func (void)
  82:../../../platform/common/utils/interrupt/interrupt_sam_nvic.h **** 
  83:../../../platform/common/utils/interrupt/interrupt_sam_nvic.h **** /**
  84:../../../platform/common/utils/interrupt/interrupt_sam_nvic.h ****  * \brief Initialize interrupt vectors
  85:../../../platform/common/utils/interrupt/interrupt_sam_nvic.h ****  *
  86:../../../platform/common/utils/interrupt/interrupt_sam_nvic.h ****  * For NVIC the interrupt vectors are put in vector table. So nothing
  87:../../../platform/common/utils/interrupt/interrupt_sam_nvic.h ****  * to do to initialize them, except defined the vector function with
  88:../../../platform/common/utils/interrupt/interrupt_sam_nvic.h ****  * right name.
  89:../../../platform/common/utils/interrupt/interrupt_sam_nvic.h ****  *
  90:../../../platform/common/utils/interrupt/interrupt_sam_nvic.h ****  * This must be called prior to \ref irq_register_handler.
  91:../../../platform/common/utils/interrupt/interrupt_sam_nvic.h ****  */
  92:../../../platform/common/utils/interrupt/interrupt_sam_nvic.h **** #  define irq_initialize_vectors()   \
  93:../../../platform/common/utils/interrupt/interrupt_sam_nvic.h **** 	do {                             \
  94:../../../platform/common/utils/interrupt/interrupt_sam_nvic.h **** 	} while(0)
  95:../../../platform/common/utils/interrupt/interrupt_sam_nvic.h **** 
  96:../../../platform/common/utils/interrupt/interrupt_sam_nvic.h **** /**
  97:../../../platform/common/utils/interrupt/interrupt_sam_nvic.h ****  * \brief Register handler for interrupt
  98:../../../platform/common/utils/interrupt/interrupt_sam_nvic.h ****  *
  99:../../../platform/common/utils/interrupt/interrupt_sam_nvic.h ****  * For NVIC the interrupt vectors are put in vector table. So nothing
 100:../../../platform/common/utils/interrupt/interrupt_sam_nvic.h ****  * to do to register them, except defined the vector function with
 101:../../../platform/common/utils/interrupt/interrupt_sam_nvic.h ****  * right name.
 102:../../../platform/common/utils/interrupt/interrupt_sam_nvic.h ****  *
 103:../../../platform/common/utils/interrupt/interrupt_sam_nvic.h ****  * Usage:
 104:../../../platform/common/utils/interrupt/interrupt_sam_nvic.h ****  * \code
 105:../../../platform/common/utils/interrupt/interrupt_sam_nvic.h ****  * irq_initialize_vectors();
 106:../../../platform/common/utils/interrupt/interrupt_sam_nvic.h ****  * irq_register_handler(foo_irq_handler);
 107:../../../platform/common/utils/interrupt/interrupt_sam_nvic.h ****  * \endcode
 108:../../../platform/common/utils/interrupt/interrupt_sam_nvic.h ****  *
 109:../../../platform/common/utils/interrupt/interrupt_sam_nvic.h ****  * \note The function \a func must be defined with the \ref ISR macro.
 110:../../../platform/common/utils/interrupt/interrupt_sam_nvic.h ****  * \note The functions prototypes can be found in the device exception header
 111:../../../platform/common/utils/interrupt/interrupt_sam_nvic.h ****  *       files (exceptions.h).
 112:../../../platform/common/utils/interrupt/interrupt_sam_nvic.h ****  */
 113:../../../platform/common/utils/interrupt/interrupt_sam_nvic.h **** #  define irq_register_handler(int_num, int_prio)                      \
 114:../../../platform/common/utils/interrupt/interrupt_sam_nvic.h **** 	NVIC_ClearPendingIRQ(    (IRQn_Type)int_num);                      \
 115:../../../platform/common/utils/interrupt/interrupt_sam_nvic.h **** 	NVIC_SetPriority(    (IRQn_Type)int_num, int_prio);                \
 116:../../../platform/common/utils/interrupt/interrupt_sam_nvic.h **** 	NVIC_EnableIRQ(      (IRQn_Type)int_num);                          \
 117:../../../platform/common/utils/interrupt/interrupt_sam_nvic.h **** 
 118:../../../platform/common/utils/interrupt/interrupt_sam_nvic.h **** //@}
 119:../../../platform/common/utils/interrupt/interrupt_sam_nvic.h **** 
 120:../../../platform/common/utils/interrupt/interrupt_sam_nvic.h **** #  define cpu_irq_enable()                     \
 121:../../../platform/common/utils/interrupt/interrupt_sam_nvic.h **** 	do {                                       \
 122:../../../platform/common/utils/interrupt/interrupt_sam_nvic.h **** 		g_interrupt_enabled = true;            \
 123:../../../platform/common/utils/interrupt/interrupt_sam_nvic.h **** 		__DMB();                               \
 124:../../../platform/common/utils/interrupt/interrupt_sam_nvic.h **** 		__enable_irq();                        \
 125:../../../platform/common/utils/interrupt/interrupt_sam_nvic.h **** 	} while (0)
 126:../../../platform/common/utils/interrupt/interrupt_sam_nvic.h **** #  define cpu_irq_disable()                    \
 127:../../../platform/common/utils/interrupt/interrupt_sam_nvic.h **** 	do {                                       \
 128:../../../platform/common/utils/interrupt/interrupt_sam_nvic.h **** 		__disable_irq();                       \
 129:../../../platform/common/utils/interrupt/interrupt_sam_nvic.h **** 		__DMB();                               \
 130:../../../platform/common/utils/interrupt/interrupt_sam_nvic.h **** 		g_interrupt_enabled = false;           \
 131:../../../platform/common/utils/interrupt/interrupt_sam_nvic.h **** 	} while (0)
 132:../../../platform/common/utils/interrupt/interrupt_sam_nvic.h **** 
 133:../../../platform/common/utils/interrupt/interrupt_sam_nvic.h **** typedef uint32_t irqflags_t;
 134:../../../platform/common/utils/interrupt/interrupt_sam_nvic.h **** 
 135:../../../platform/common/utils/interrupt/interrupt_sam_nvic.h **** #if !defined(__DOXYGEN__)
 136:../../../platform/common/utils/interrupt/interrupt_sam_nvic.h **** extern volatile bool g_interrupt_enabled;
 137:../../../platform/common/utils/interrupt/interrupt_sam_nvic.h **** #endif
 138:../../../platform/common/utils/interrupt/interrupt_sam_nvic.h **** 
 139:../../../platform/common/utils/interrupt/interrupt_sam_nvic.h **** #define cpu_irq_is_enabled()    (__get_PRIMASK() == 0)
 140:../../../platform/common/utils/interrupt/interrupt_sam_nvic.h **** 
 141:../../../platform/common/utils/interrupt/interrupt_sam_nvic.h **** static volatile uint32_t cpu_irq_critical_section_counter;
 142:../../../platform/common/utils/interrupt/interrupt_sam_nvic.h **** static volatile bool     cpu_irq_prev_interrupt_state;
 143:../../../platform/common/utils/interrupt/interrupt_sam_nvic.h **** 
 144:../../../platform/common/utils/interrupt/interrupt_sam_nvic.h **** static inline irqflags_t cpu_irq_save(void)
 145:../../../platform/common/utils/interrupt/interrupt_sam_nvic.h **** {
  36              	 .loc 1 145 0
  37              	 .cfi_startproc
  38              	 
  39              	 
  40              	 
  41 0000 80B4     	 push {r7}
  42              	.LCFI0:
  43              	 .cfi_def_cfa_offset 4
  44              	 .cfi_offset 7,-4
  45 0002 83B0     	 sub sp,sp,#12
  46              	.LCFI1:
  47              	 .cfi_def_cfa_offset 16
  48 0004 00AF     	 add r7,sp,#0
  49              	.LCFI2:
  50              	 .cfi_def_cfa_register 7
  51              	.LBB14:
  52              	.LBB15:
  53              	 .file 2 "../../../platform/thirdparty/CMSIS/include/core_cmFunc.h"
   1:../../../platform/thirdparty/CMSIS/include/core_cmFunc.h **** /**************************************************************************//**
   2:../../../platform/thirdparty/CMSIS/include/core_cmFunc.h ****  * @file     core_cmFunc.h
   3:../../../platform/thirdparty/CMSIS/include/core_cmFunc.h ****  * @brief    CMSIS Cortex-M Core Function Access Header File
   4:../../../platform/thirdparty/CMSIS/include/core_cmFunc.h ****  * @version  V3.00
   5:../../../platform/thirdparty/CMSIS/include/core_cmFunc.h ****  * @date     19. January 2012
   6:../../../platform/thirdparty/CMSIS/include/core_cmFunc.h ****  *
   7:../../../platform/thirdparty/CMSIS/include/core_cmFunc.h ****  * @note
   8:../../../platform/thirdparty/CMSIS/include/core_cmFunc.h ****  * Copyright (C) 2009-2012 ARM Limited. All rights reserved.
   9:../../../platform/thirdparty/CMSIS/include/core_cmFunc.h ****  *
  10:../../../platform/thirdparty/CMSIS/include/core_cmFunc.h ****  * @par
  11:../../../platform/thirdparty/CMSIS/include/core_cmFunc.h ****  * ARM Limited (ARM) is supplying this software for use with Cortex-M 
  12:../../../platform/thirdparty/CMSIS/include/core_cmFunc.h ****  * processor based microcontrollers.  This file can be freely distributed 
  13:../../../platform/thirdparty/CMSIS/include/core_cmFunc.h ****  * within development tools that are supporting such ARM based processors. 
  14:../../../platform/thirdparty/CMSIS/include/core_cmFunc.h ****  *
  15:../../../platform/thirdparty/CMSIS/include/core_cmFunc.h ****  * @par
  16:../../../platform/thirdparty/CMSIS/include/core_cmFunc.h ****  * THIS SOFTWARE IS PROVIDED "AS IS".  NO WARRANTIES, WHETHER EXPRESS, IMPLIED
  17:../../../platform/thirdparty/CMSIS/include/core_cmFunc.h ****  * OR STATUTORY, INCLUDING, BUT NOT LIMITED TO, IMPLIED WARRANTIES OF
  18:../../../platform/thirdparty/CMSIS/include/core_cmFunc.h ****  * MERCHANTABILITY AND FITNESS FOR A PARTICULAR PURPOSE APPLY TO THIS SOFTWARE.
  19:../../../platform/thirdparty/CMSIS/include/core_cmFunc.h ****  * ARM SHALL NOT, IN ANY CIRCUMSTANCES, BE LIABLE FOR SPECIAL, INCIDENTAL, OR
  20:../../../platform/thirdparty/CMSIS/include/core_cmFunc.h ****  * CONSEQUENTIAL DAMAGES, FOR ANY REASON WHATSOEVER.
  21:../../../platform/thirdparty/CMSIS/include/core_cmFunc.h ****  *
  22:../../../platform/thirdparty/CMSIS/include/core_cmFunc.h ****  ******************************************************************************/
  23:../../../platform/thirdparty/CMSIS/include/core_cmFunc.h **** 
  24:../../../platform/thirdparty/CMSIS/include/core_cmFunc.h **** #ifndef __CORE_CMFUNC_H
  25:../../../platform/thirdparty/CMSIS/include/core_cmFunc.h **** #define __CORE_CMFUNC_H
  26:../../../platform/thirdparty/CMSIS/include/core_cmFunc.h **** 
  27:../../../platform/thirdparty/CMSIS/include/core_cmFunc.h **** /* ###########################  Core Function Access  ########################### */
  28:../../../platform/thirdparty/CMSIS/include/core_cmFunc.h **** /** \ingroup  CMSIS_Core_FunctionInterface   
  29:../../../platform/thirdparty/CMSIS/include/core_cmFunc.h ****     \defgroup CMSIS_Core_RegAccFunctions CMSIS Core Register Access Functions
  30:../../../platform/thirdparty/CMSIS/include/core_cmFunc.h ****   @{
  31:../../../platform/thirdparty/CMSIS/include/core_cmFunc.h ****  */
  32:../../../platform/thirdparty/CMSIS/include/core_cmFunc.h **** 
  33:../../../platform/thirdparty/CMSIS/include/core_cmFunc.h **** #if   defined ( __CC_ARM ) /*------------------RealView Compiler -----------------*/
  34:../../../platform/thirdparty/CMSIS/include/core_cmFunc.h **** /* ARM armcc specific functions */
  35:../../../platform/thirdparty/CMSIS/include/core_cmFunc.h **** 
  36:../../../platform/thirdparty/CMSIS/include/core_cmFunc.h **** #if (__ARMCC_VERSION < 400677)
  37:../../../platform/thirdparty/CMSIS/include/core_cmFunc.h ****   #error "Please use ARM Compiler Toolchain V4.0.677 or later!"
  38:../../../platform/thirdparty/CMSIS/include/core_cmFunc.h **** #endif
  39:../../../platform/thirdparty/CMSIS/include/core_cmFunc.h **** 
  40:../../../platform/thirdparty/CMSIS/include/core_cmFunc.h **** /* intrinsic void __enable_irq();     */
  41:../../../platform/thirdparty/CMSIS/include/core_cmFunc.h **** /* intrinsic void __disable_irq();    */
  42:../../../platform/thirdparty/CMSIS/include/core_cmFunc.h **** 
  43:../../../platform/thirdparty/CMSIS/include/core_cmFunc.h **** /** \brief  Get Control Register
  44:../../../platform/thirdparty/CMSIS/include/core_cmFunc.h **** 
  45:../../../platform/thirdparty/CMSIS/include/core_cmFunc.h ****     This function returns the content of the Control Register.
  46:../../../platform/thirdparty/CMSIS/include/core_cmFunc.h **** 
  47:../../../platform/thirdparty/CMSIS/include/core_cmFunc.h ****     \return               Control Register value
  48:../../../platform/thirdparty/CMSIS/include/core_cmFunc.h ****  */
  49:../../../platform/thirdparty/CMSIS/include/core_cmFunc.h **** __STATIC_INLINE uint32_t __get_CONTROL(void)
  50:../../../platform/thirdparty/CMSIS/include/core_cmFunc.h **** {
  51:../../../platform/thirdparty/CMSIS/include/core_cmFunc.h ****   register uint32_t __regControl         __ASM("control");
  52:../../../platform/thirdparty/CMSIS/include/core_cmFunc.h ****   return(__regControl);
  53:../../../platform/thirdparty/CMSIS/include/core_cmFunc.h **** }
  54:../../../platform/thirdparty/CMSIS/include/core_cmFunc.h **** 
  55:../../../platform/thirdparty/CMSIS/include/core_cmFunc.h **** 
  56:../../../platform/thirdparty/CMSIS/include/core_cmFunc.h **** /** \brief  Set Control Register
  57:../../../platform/thirdparty/CMSIS/include/core_cmFunc.h **** 
  58:../../../platform/thirdparty/CMSIS/include/core_cmFunc.h ****     This function writes the given value to the Control Register.
  59:../../../platform/thirdparty/CMSIS/include/core_cmFunc.h **** 
  60:../../../platform/thirdparty/CMSIS/include/core_cmFunc.h ****     \param [in]    control  Control Register value to set
  61:../../../platform/thirdparty/CMSIS/include/core_cmFunc.h ****  */
  62:../../../platform/thirdparty/CMSIS/include/core_cmFunc.h **** __STATIC_INLINE void __set_CONTROL(uint32_t control)
  63:../../../platform/thirdparty/CMSIS/include/core_cmFunc.h **** {
  64:../../../platform/thirdparty/CMSIS/include/core_cmFunc.h ****   register uint32_t __regControl         __ASM("control");
  65:../../../platform/thirdparty/CMSIS/include/core_cmFunc.h ****   __regControl = control;
  66:../../../platform/thirdparty/CMSIS/include/core_cmFunc.h **** }
  67:../../../platform/thirdparty/CMSIS/include/core_cmFunc.h **** 
  68:../../../platform/thirdparty/CMSIS/include/core_cmFunc.h **** 
  69:../../../platform/thirdparty/CMSIS/include/core_cmFunc.h **** /** \brief  Get IPSR Register
  70:../../../platform/thirdparty/CMSIS/include/core_cmFunc.h **** 
  71:../../../platform/thirdparty/CMSIS/include/core_cmFunc.h ****     This function returns the content of the IPSR Register.
  72:../../../platform/thirdparty/CMSIS/include/core_cmFunc.h **** 
  73:../../../platform/thirdparty/CMSIS/include/core_cmFunc.h ****     \return               IPSR Register value
  74:../../../platform/thirdparty/CMSIS/include/core_cmFunc.h ****  */
  75:../../../platform/thirdparty/CMSIS/include/core_cmFunc.h **** __STATIC_INLINE uint32_t __get_IPSR(void)
  76:../../../platform/thirdparty/CMSIS/include/core_cmFunc.h **** {
  77:../../../platform/thirdparty/CMSIS/include/core_cmFunc.h ****   register uint32_t __regIPSR          __ASM("ipsr");
  78:../../../platform/thirdparty/CMSIS/include/core_cmFunc.h ****   return(__regIPSR);
  79:../../../platform/thirdparty/CMSIS/include/core_cmFunc.h **** }
  80:../../../platform/thirdparty/CMSIS/include/core_cmFunc.h **** 
  81:../../../platform/thirdparty/CMSIS/include/core_cmFunc.h **** 
  82:../../../platform/thirdparty/CMSIS/include/core_cmFunc.h **** /** \brief  Get APSR Register
  83:../../../platform/thirdparty/CMSIS/include/core_cmFunc.h **** 
  84:../../../platform/thirdparty/CMSIS/include/core_cmFunc.h ****     This function returns the content of the APSR Register.
  85:../../../platform/thirdparty/CMSIS/include/core_cmFunc.h **** 
  86:../../../platform/thirdparty/CMSIS/include/core_cmFunc.h ****     \return               APSR Register value
  87:../../../platform/thirdparty/CMSIS/include/core_cmFunc.h ****  */
  88:../../../platform/thirdparty/CMSIS/include/core_cmFunc.h **** __STATIC_INLINE uint32_t __get_APSR(void)
  89:../../../platform/thirdparty/CMSIS/include/core_cmFunc.h **** {
  90:../../../platform/thirdparty/CMSIS/include/core_cmFunc.h ****   register uint32_t __regAPSR          __ASM("apsr");
  91:../../../platform/thirdparty/CMSIS/include/core_cmFunc.h ****   return(__regAPSR);
  92:../../../platform/thirdparty/CMSIS/include/core_cmFunc.h **** }
  93:../../../platform/thirdparty/CMSIS/include/core_cmFunc.h **** 
  94:../../../platform/thirdparty/CMSIS/include/core_cmFunc.h **** 
  95:../../../platform/thirdparty/CMSIS/include/core_cmFunc.h **** /** \brief  Get xPSR Register
  96:../../../platform/thirdparty/CMSIS/include/core_cmFunc.h **** 
  97:../../../platform/thirdparty/CMSIS/include/core_cmFunc.h ****     This function returns the content of the xPSR Register.
  98:../../../platform/thirdparty/CMSIS/include/core_cmFunc.h **** 
  99:../../../platform/thirdparty/CMSIS/include/core_cmFunc.h ****     \return               xPSR Register value
 100:../../../platform/thirdparty/CMSIS/include/core_cmFunc.h ****  */
 101:../../../platform/thirdparty/CMSIS/include/core_cmFunc.h **** __STATIC_INLINE uint32_t __get_xPSR(void)
 102:../../../platform/thirdparty/CMSIS/include/core_cmFunc.h **** {
 103:../../../platform/thirdparty/CMSIS/include/core_cmFunc.h ****   register uint32_t __regXPSR          __ASM("xpsr");
 104:../../../platform/thirdparty/CMSIS/include/core_cmFunc.h ****   return(__regXPSR);
 105:../../../platform/thirdparty/CMSIS/include/core_cmFunc.h **** }
 106:../../../platform/thirdparty/CMSIS/include/core_cmFunc.h **** 
 107:../../../platform/thirdparty/CMSIS/include/core_cmFunc.h **** 
 108:../../../platform/thirdparty/CMSIS/include/core_cmFunc.h **** /** \brief  Get Process Stack Pointer
 109:../../../platform/thirdparty/CMSIS/include/core_cmFunc.h **** 
 110:../../../platform/thirdparty/CMSIS/include/core_cmFunc.h ****     This function returns the current value of the Process Stack Pointer (PSP).
 111:../../../platform/thirdparty/CMSIS/include/core_cmFunc.h **** 
 112:../../../platform/thirdparty/CMSIS/include/core_cmFunc.h ****     \return               PSP Register value
 113:../../../platform/thirdparty/CMSIS/include/core_cmFunc.h ****  */
 114:../../../platform/thirdparty/CMSIS/include/core_cmFunc.h **** __STATIC_INLINE uint32_t __get_PSP(void)
 115:../../../platform/thirdparty/CMSIS/include/core_cmFunc.h **** {
 116:../../../platform/thirdparty/CMSIS/include/core_cmFunc.h ****   register uint32_t __regProcessStackPointer  __ASM("psp");
 117:../../../platform/thirdparty/CMSIS/include/core_cmFunc.h ****   return(__regProcessStackPointer);
 118:../../../platform/thirdparty/CMSIS/include/core_cmFunc.h **** }
 119:../../../platform/thirdparty/CMSIS/include/core_cmFunc.h **** 
 120:../../../platform/thirdparty/CMSIS/include/core_cmFunc.h **** 
 121:../../../platform/thirdparty/CMSIS/include/core_cmFunc.h **** /** \brief  Set Process Stack Pointer
 122:../../../platform/thirdparty/CMSIS/include/core_cmFunc.h **** 
 123:../../../platform/thirdparty/CMSIS/include/core_cmFunc.h ****     This function assigns the given value to the Process Stack Pointer (PSP).
 124:../../../platform/thirdparty/CMSIS/include/core_cmFunc.h **** 
 125:../../../platform/thirdparty/CMSIS/include/core_cmFunc.h ****     \param [in]    topOfProcStack  Process Stack Pointer value to set
 126:../../../platform/thirdparty/CMSIS/include/core_cmFunc.h ****  */
 127:../../../platform/thirdparty/CMSIS/include/core_cmFunc.h **** __STATIC_INLINE void __set_PSP(uint32_t topOfProcStack)
 128:../../../platform/thirdparty/CMSIS/include/core_cmFunc.h **** {
 129:../../../platform/thirdparty/CMSIS/include/core_cmFunc.h ****   register uint32_t __regProcessStackPointer  __ASM("psp");
 130:../../../platform/thirdparty/CMSIS/include/core_cmFunc.h ****   __regProcessStackPointer = topOfProcStack;
 131:../../../platform/thirdparty/CMSIS/include/core_cmFunc.h **** }
 132:../../../platform/thirdparty/CMSIS/include/core_cmFunc.h **** 
 133:../../../platform/thirdparty/CMSIS/include/core_cmFunc.h **** 
 134:../../../platform/thirdparty/CMSIS/include/core_cmFunc.h **** /** \brief  Get Main Stack Pointer
 135:../../../platform/thirdparty/CMSIS/include/core_cmFunc.h **** 
 136:../../../platform/thirdparty/CMSIS/include/core_cmFunc.h ****     This function returns the current value of the Main Stack Pointer (MSP).
 137:../../../platform/thirdparty/CMSIS/include/core_cmFunc.h **** 
 138:../../../platform/thirdparty/CMSIS/include/core_cmFunc.h ****     \return               MSP Register value
 139:../../../platform/thirdparty/CMSIS/include/core_cmFunc.h ****  */
 140:../../../platform/thirdparty/CMSIS/include/core_cmFunc.h **** __STATIC_INLINE uint32_t __get_MSP(void)
 141:../../../platform/thirdparty/CMSIS/include/core_cmFunc.h **** {
 142:../../../platform/thirdparty/CMSIS/include/core_cmFunc.h ****   register uint32_t __regMainStackPointer     __ASM("msp");
 143:../../../platform/thirdparty/CMSIS/include/core_cmFunc.h ****   return(__regMainStackPointer);
 144:../../../platform/thirdparty/CMSIS/include/core_cmFunc.h **** }
 145:../../../platform/thirdparty/CMSIS/include/core_cmFunc.h **** 
 146:../../../platform/thirdparty/CMSIS/include/core_cmFunc.h **** 
 147:../../../platform/thirdparty/CMSIS/include/core_cmFunc.h **** /** \brief  Set Main Stack Pointer
 148:../../../platform/thirdparty/CMSIS/include/core_cmFunc.h **** 
 149:../../../platform/thirdparty/CMSIS/include/core_cmFunc.h ****     This function assigns the given value to the Main Stack Pointer (MSP).
 150:../../../platform/thirdparty/CMSIS/include/core_cmFunc.h **** 
 151:../../../platform/thirdparty/CMSIS/include/core_cmFunc.h ****     \param [in]    topOfMainStack  Main Stack Pointer value to set
 152:../../../platform/thirdparty/CMSIS/include/core_cmFunc.h ****  */
 153:../../../platform/thirdparty/CMSIS/include/core_cmFunc.h **** __STATIC_INLINE void __set_MSP(uint32_t topOfMainStack)
 154:../../../platform/thirdparty/CMSIS/include/core_cmFunc.h **** {
 155:../../../platform/thirdparty/CMSIS/include/core_cmFunc.h ****   register uint32_t __regMainStackPointer     __ASM("msp");
 156:../../../platform/thirdparty/CMSIS/include/core_cmFunc.h ****   __regMainStackPointer = topOfMainStack;
 157:../../../platform/thirdparty/CMSIS/include/core_cmFunc.h **** }
 158:../../../platform/thirdparty/CMSIS/include/core_cmFunc.h **** 
 159:../../../platform/thirdparty/CMSIS/include/core_cmFunc.h **** 
 160:../../../platform/thirdparty/CMSIS/include/core_cmFunc.h **** /** \brief  Get Priority Mask
 161:../../../platform/thirdparty/CMSIS/include/core_cmFunc.h **** 
 162:../../../platform/thirdparty/CMSIS/include/core_cmFunc.h ****     This function returns the current state of the priority mask bit from the Priority Mask Registe
 163:../../../platform/thirdparty/CMSIS/include/core_cmFunc.h **** 
 164:../../../platform/thirdparty/CMSIS/include/core_cmFunc.h ****     \return               Priority Mask value
 165:../../../platform/thirdparty/CMSIS/include/core_cmFunc.h ****  */
 166:../../../platform/thirdparty/CMSIS/include/core_cmFunc.h **** __STATIC_INLINE uint32_t __get_PRIMASK(void)
 167:../../../platform/thirdparty/CMSIS/include/core_cmFunc.h **** {
 168:../../../platform/thirdparty/CMSIS/include/core_cmFunc.h ****   register uint32_t __regPriMask         __ASM("primask");
 169:../../../platform/thirdparty/CMSIS/include/core_cmFunc.h ****   return(__regPriMask);
 170:../../../platform/thirdparty/CMSIS/include/core_cmFunc.h **** }
 171:../../../platform/thirdparty/CMSIS/include/core_cmFunc.h **** 
 172:../../../platform/thirdparty/CMSIS/include/core_cmFunc.h **** 
 173:../../../platform/thirdparty/CMSIS/include/core_cmFunc.h **** /** \brief  Set Priority Mask
 174:../../../platform/thirdparty/CMSIS/include/core_cmFunc.h **** 
 175:../../../platform/thirdparty/CMSIS/include/core_cmFunc.h ****     This function assigns the given value to the Priority Mask Register.
 176:../../../platform/thirdparty/CMSIS/include/core_cmFunc.h **** 
 177:../../../platform/thirdparty/CMSIS/include/core_cmFunc.h ****     \param [in]    priMask  Priority Mask
 178:../../../platform/thirdparty/CMSIS/include/core_cmFunc.h ****  */
 179:../../../platform/thirdparty/CMSIS/include/core_cmFunc.h **** __STATIC_INLINE void __set_PRIMASK(uint32_t priMask)
 180:../../../platform/thirdparty/CMSIS/include/core_cmFunc.h **** {
 181:../../../platform/thirdparty/CMSIS/include/core_cmFunc.h ****   register uint32_t __regPriMask         __ASM("primask");
 182:../../../platform/thirdparty/CMSIS/include/core_cmFunc.h ****   __regPriMask = (priMask);
 183:../../../platform/thirdparty/CMSIS/include/core_cmFunc.h **** }
 184:../../../platform/thirdparty/CMSIS/include/core_cmFunc.h ****  
 185:../../../platform/thirdparty/CMSIS/include/core_cmFunc.h **** 
 186:../../../platform/thirdparty/CMSIS/include/core_cmFunc.h **** #if       (__CORTEX_M >= 0x03)
 187:../../../platform/thirdparty/CMSIS/include/core_cmFunc.h **** 
 188:../../../platform/thirdparty/CMSIS/include/core_cmFunc.h **** /** \brief  Enable FIQ
 189:../../../platform/thirdparty/CMSIS/include/core_cmFunc.h **** 
 190:../../../platform/thirdparty/CMSIS/include/core_cmFunc.h ****     This function enables FIQ interrupts by clearing the F-bit in the CPSR.
 191:../../../platform/thirdparty/CMSIS/include/core_cmFunc.h ****     Can only be executed in Privileged modes.
 192:../../../platform/thirdparty/CMSIS/include/core_cmFunc.h ****  */
 193:../../../platform/thirdparty/CMSIS/include/core_cmFunc.h **** #define __enable_fault_irq                __enable_fiq
 194:../../../platform/thirdparty/CMSIS/include/core_cmFunc.h **** 
 195:../../../platform/thirdparty/CMSIS/include/core_cmFunc.h **** 
 196:../../../platform/thirdparty/CMSIS/include/core_cmFunc.h **** /** \brief  Disable FIQ
 197:../../../platform/thirdparty/CMSIS/include/core_cmFunc.h **** 
 198:../../../platform/thirdparty/CMSIS/include/core_cmFunc.h ****     This function disables FIQ interrupts by setting the F-bit in the CPSR.
 199:../../../platform/thirdparty/CMSIS/include/core_cmFunc.h ****     Can only be executed in Privileged modes.
 200:../../../platform/thirdparty/CMSIS/include/core_cmFunc.h ****  */
 201:../../../platform/thirdparty/CMSIS/include/core_cmFunc.h **** #define __disable_fault_irq               __disable_fiq
 202:../../../platform/thirdparty/CMSIS/include/core_cmFunc.h **** 
 203:../../../platform/thirdparty/CMSIS/include/core_cmFunc.h **** 
 204:../../../platform/thirdparty/CMSIS/include/core_cmFunc.h **** /** \brief  Get Base Priority
 205:../../../platform/thirdparty/CMSIS/include/core_cmFunc.h **** 
 206:../../../platform/thirdparty/CMSIS/include/core_cmFunc.h ****     This function returns the current value of the Base Priority register.
 207:../../../platform/thirdparty/CMSIS/include/core_cmFunc.h **** 
 208:../../../platform/thirdparty/CMSIS/include/core_cmFunc.h ****     \return               Base Priority register value
 209:../../../platform/thirdparty/CMSIS/include/core_cmFunc.h ****  */
 210:../../../platform/thirdparty/CMSIS/include/core_cmFunc.h **** __STATIC_INLINE uint32_t  __get_BASEPRI(void)
 211:../../../platform/thirdparty/CMSIS/include/core_cmFunc.h **** {
 212:../../../platform/thirdparty/CMSIS/include/core_cmFunc.h ****   register uint32_t __regBasePri         __ASM("basepri");
 213:../../../platform/thirdparty/CMSIS/include/core_cmFunc.h ****   return(__regBasePri);
 214:../../../platform/thirdparty/CMSIS/include/core_cmFunc.h **** }
 215:../../../platform/thirdparty/CMSIS/include/core_cmFunc.h **** 
 216:../../../platform/thirdparty/CMSIS/include/core_cmFunc.h **** 
 217:../../../platform/thirdparty/CMSIS/include/core_cmFunc.h **** /** \brief  Set Base Priority
 218:../../../platform/thirdparty/CMSIS/include/core_cmFunc.h **** 
 219:../../../platform/thirdparty/CMSIS/include/core_cmFunc.h ****     This function assigns the given value to the Base Priority register.
 220:../../../platform/thirdparty/CMSIS/include/core_cmFunc.h **** 
 221:../../../platform/thirdparty/CMSIS/include/core_cmFunc.h ****     \param [in]    basePri  Base Priority value to set
 222:../../../platform/thirdparty/CMSIS/include/core_cmFunc.h ****  */
 223:../../../platform/thirdparty/CMSIS/include/core_cmFunc.h **** __STATIC_INLINE void __set_BASEPRI(uint32_t basePri)
 224:../../../platform/thirdparty/CMSIS/include/core_cmFunc.h **** {
 225:../../../platform/thirdparty/CMSIS/include/core_cmFunc.h ****   register uint32_t __regBasePri         __ASM("basepri");
 226:../../../platform/thirdparty/CMSIS/include/core_cmFunc.h ****   __regBasePri = (basePri & 0xff);
 227:../../../platform/thirdparty/CMSIS/include/core_cmFunc.h **** }
 228:../../../platform/thirdparty/CMSIS/include/core_cmFunc.h ****  
 229:../../../platform/thirdparty/CMSIS/include/core_cmFunc.h **** 
 230:../../../platform/thirdparty/CMSIS/include/core_cmFunc.h **** /** \brief  Get Fault Mask
 231:../../../platform/thirdparty/CMSIS/include/core_cmFunc.h **** 
 232:../../../platform/thirdparty/CMSIS/include/core_cmFunc.h ****     This function returns the current value of the Fault Mask register.
 233:../../../platform/thirdparty/CMSIS/include/core_cmFunc.h **** 
 234:../../../platform/thirdparty/CMSIS/include/core_cmFunc.h ****     \return               Fault Mask register value
 235:../../../platform/thirdparty/CMSIS/include/core_cmFunc.h ****  */
 236:../../../platform/thirdparty/CMSIS/include/core_cmFunc.h **** __STATIC_INLINE uint32_t __get_FAULTMASK(void)
 237:../../../platform/thirdparty/CMSIS/include/core_cmFunc.h **** {
 238:../../../platform/thirdparty/CMSIS/include/core_cmFunc.h ****   register uint32_t __regFaultMask       __ASM("faultmask");
 239:../../../platform/thirdparty/CMSIS/include/core_cmFunc.h ****   return(__regFaultMask);
 240:../../../platform/thirdparty/CMSIS/include/core_cmFunc.h **** }
 241:../../../platform/thirdparty/CMSIS/include/core_cmFunc.h **** 
 242:../../../platform/thirdparty/CMSIS/include/core_cmFunc.h **** 
 243:../../../platform/thirdparty/CMSIS/include/core_cmFunc.h **** /** \brief  Set Fault Mask
 244:../../../platform/thirdparty/CMSIS/include/core_cmFunc.h **** 
 245:../../../platform/thirdparty/CMSIS/include/core_cmFunc.h ****     This function assigns the given value to the Fault Mask register.
 246:../../../platform/thirdparty/CMSIS/include/core_cmFunc.h **** 
 247:../../../platform/thirdparty/CMSIS/include/core_cmFunc.h ****     \param [in]    faultMask  Fault Mask value to set
 248:../../../platform/thirdparty/CMSIS/include/core_cmFunc.h ****  */
 249:../../../platform/thirdparty/CMSIS/include/core_cmFunc.h **** __STATIC_INLINE void __set_FAULTMASK(uint32_t faultMask)
 250:../../../platform/thirdparty/CMSIS/include/core_cmFunc.h **** {
 251:../../../platform/thirdparty/CMSIS/include/core_cmFunc.h ****   register uint32_t __regFaultMask       __ASM("faultmask");
 252:../../../platform/thirdparty/CMSIS/include/core_cmFunc.h ****   __regFaultMask = (faultMask & (uint32_t)1);
 253:../../../platform/thirdparty/CMSIS/include/core_cmFunc.h **** }
 254:../../../platform/thirdparty/CMSIS/include/core_cmFunc.h **** 
 255:../../../platform/thirdparty/CMSIS/include/core_cmFunc.h **** #endif /* (__CORTEX_M >= 0x03) */
 256:../../../platform/thirdparty/CMSIS/include/core_cmFunc.h **** 
 257:../../../platform/thirdparty/CMSIS/include/core_cmFunc.h **** 
 258:../../../platform/thirdparty/CMSIS/include/core_cmFunc.h **** #if       (__CORTEX_M == 0x04)
 259:../../../platform/thirdparty/CMSIS/include/core_cmFunc.h **** 
 260:../../../platform/thirdparty/CMSIS/include/core_cmFunc.h **** /** \brief  Get FPSCR
 261:../../../platform/thirdparty/CMSIS/include/core_cmFunc.h **** 
 262:../../../platform/thirdparty/CMSIS/include/core_cmFunc.h ****     This function returns the current value of the Floating Point Status/Control register.
 263:../../../platform/thirdparty/CMSIS/include/core_cmFunc.h **** 
 264:../../../platform/thirdparty/CMSIS/include/core_cmFunc.h ****     \return               Floating Point Status/Control register value
 265:../../../platform/thirdparty/CMSIS/include/core_cmFunc.h ****  */
 266:../../../platform/thirdparty/CMSIS/include/core_cmFunc.h **** __STATIC_INLINE uint32_t __get_FPSCR(void)
 267:../../../platform/thirdparty/CMSIS/include/core_cmFunc.h **** {
 268:../../../platform/thirdparty/CMSIS/include/core_cmFunc.h **** #if (__FPU_PRESENT == 1) && (__FPU_USED == 1)
 269:../../../platform/thirdparty/CMSIS/include/core_cmFunc.h ****   register uint32_t __regfpscr         __ASM("fpscr");
 270:../../../platform/thirdparty/CMSIS/include/core_cmFunc.h ****   return(__regfpscr);
 271:../../../platform/thirdparty/CMSIS/include/core_cmFunc.h **** #else
 272:../../../platform/thirdparty/CMSIS/include/core_cmFunc.h ****    return(0);
 273:../../../platform/thirdparty/CMSIS/include/core_cmFunc.h **** #endif
 274:../../../platform/thirdparty/CMSIS/include/core_cmFunc.h **** }
 275:../../../platform/thirdparty/CMSIS/include/core_cmFunc.h **** 
 276:../../../platform/thirdparty/CMSIS/include/core_cmFunc.h **** 
 277:../../../platform/thirdparty/CMSIS/include/core_cmFunc.h **** /** \brief  Set FPSCR
 278:../../../platform/thirdparty/CMSIS/include/core_cmFunc.h **** 
 279:../../../platform/thirdparty/CMSIS/include/core_cmFunc.h ****     This function assigns the given value to the Floating Point Status/Control register.
 280:../../../platform/thirdparty/CMSIS/include/core_cmFunc.h **** 
 281:../../../platform/thirdparty/CMSIS/include/core_cmFunc.h ****     \param [in]    fpscr  Floating Point Status/Control value to set
 282:../../../platform/thirdparty/CMSIS/include/core_cmFunc.h ****  */
 283:../../../platform/thirdparty/CMSIS/include/core_cmFunc.h **** __STATIC_INLINE void __set_FPSCR(uint32_t fpscr)
 284:../../../platform/thirdparty/CMSIS/include/core_cmFunc.h **** {
 285:../../../platform/thirdparty/CMSIS/include/core_cmFunc.h **** #if (__FPU_PRESENT == 1) && (__FPU_USED == 1)
 286:../../../platform/thirdparty/CMSIS/include/core_cmFunc.h ****   register uint32_t __regfpscr         __ASM("fpscr");
 287:../../../platform/thirdparty/CMSIS/include/core_cmFunc.h ****   __regfpscr = (fpscr);
 288:../../../platform/thirdparty/CMSIS/include/core_cmFunc.h **** #endif
 289:../../../platform/thirdparty/CMSIS/include/core_cmFunc.h **** }
 290:../../../platform/thirdparty/CMSIS/include/core_cmFunc.h **** 
 291:../../../platform/thirdparty/CMSIS/include/core_cmFunc.h **** #endif /* (__CORTEX_M == 0x04) */
 292:../../../platform/thirdparty/CMSIS/include/core_cmFunc.h **** 
 293:../../../platform/thirdparty/CMSIS/include/core_cmFunc.h **** 
 294:../../../platform/thirdparty/CMSIS/include/core_cmFunc.h **** #elif defined ( __ICCARM__ ) /*------------------ ICC Compiler -------------------*/
 295:../../../platform/thirdparty/CMSIS/include/core_cmFunc.h **** /* IAR iccarm specific functions */
 296:../../../platform/thirdparty/CMSIS/include/core_cmFunc.h **** 
 297:../../../platform/thirdparty/CMSIS/include/core_cmFunc.h **** #include <cmsis_iar.h>
 298:../../../platform/thirdparty/CMSIS/include/core_cmFunc.h **** 
 299:../../../platform/thirdparty/CMSIS/include/core_cmFunc.h **** 
 300:../../../platform/thirdparty/CMSIS/include/core_cmFunc.h **** #elif defined ( __TMS470__ ) /*---------------- TI CCS Compiler ------------------*/
 301:../../../platform/thirdparty/CMSIS/include/core_cmFunc.h **** /* TI CCS specific functions */
 302:../../../platform/thirdparty/CMSIS/include/core_cmFunc.h **** 
 303:../../../platform/thirdparty/CMSIS/include/core_cmFunc.h **** #include <cmsis_ccs.h>
 304:../../../platform/thirdparty/CMSIS/include/core_cmFunc.h **** 
 305:../../../platform/thirdparty/CMSIS/include/core_cmFunc.h **** 
 306:../../../platform/thirdparty/CMSIS/include/core_cmFunc.h **** #elif defined ( __GNUC__ ) /*------------------ GNU Compiler ---------------------*/
 307:../../../platform/thirdparty/CMSIS/include/core_cmFunc.h **** /* GNU gcc specific functions */
 308:../../../platform/thirdparty/CMSIS/include/core_cmFunc.h **** 
 309:../../../platform/thirdparty/CMSIS/include/core_cmFunc.h **** /** \brief  Enable IRQ Interrupts
 310:../../../platform/thirdparty/CMSIS/include/core_cmFunc.h **** 
 311:../../../platform/thirdparty/CMSIS/include/core_cmFunc.h ****   This function enables IRQ interrupts by clearing the I-bit in the CPSR.
 312:../../../platform/thirdparty/CMSIS/include/core_cmFunc.h ****   Can only be executed in Privileged modes.
 313:../../../platform/thirdparty/CMSIS/include/core_cmFunc.h ****  */
 314:../../../platform/thirdparty/CMSIS/include/core_cmFunc.h **** __attribute__( ( always_inline ) ) __STATIC_INLINE void __enable_irq(void)
 315:../../../platform/thirdparty/CMSIS/include/core_cmFunc.h **** {
 316:../../../platform/thirdparty/CMSIS/include/core_cmFunc.h ****   __ASM volatile ("cpsie i");
 317:../../../platform/thirdparty/CMSIS/include/core_cmFunc.h **** }
 318:../../../platform/thirdparty/CMSIS/include/core_cmFunc.h **** 
 319:../../../platform/thirdparty/CMSIS/include/core_cmFunc.h **** 
 320:../../../platform/thirdparty/CMSIS/include/core_cmFunc.h **** /** \brief  Disable IRQ Interrupts
 321:../../../platform/thirdparty/CMSIS/include/core_cmFunc.h **** 
 322:../../../platform/thirdparty/CMSIS/include/core_cmFunc.h ****   This function disables IRQ interrupts by setting the I-bit in the CPSR.
 323:../../../platform/thirdparty/CMSIS/include/core_cmFunc.h ****   Can only be executed in Privileged modes.
 324:../../../platform/thirdparty/CMSIS/include/core_cmFunc.h ****  */
 325:../../../platform/thirdparty/CMSIS/include/core_cmFunc.h **** __attribute__( ( always_inline ) ) __STATIC_INLINE void __disable_irq(void)
 326:../../../platform/thirdparty/CMSIS/include/core_cmFunc.h **** {
 327:../../../platform/thirdparty/CMSIS/include/core_cmFunc.h ****   __ASM volatile ("cpsid i");
 328:../../../platform/thirdparty/CMSIS/include/core_cmFunc.h **** }
 329:../../../platform/thirdparty/CMSIS/include/core_cmFunc.h **** 
 330:../../../platform/thirdparty/CMSIS/include/core_cmFunc.h **** 
 331:../../../platform/thirdparty/CMSIS/include/core_cmFunc.h **** /** \brief  Get Control Register
 332:../../../platform/thirdparty/CMSIS/include/core_cmFunc.h **** 
 333:../../../platform/thirdparty/CMSIS/include/core_cmFunc.h ****     This function returns the content of the Control Register.
 334:../../../platform/thirdparty/CMSIS/include/core_cmFunc.h **** 
 335:../../../platform/thirdparty/CMSIS/include/core_cmFunc.h ****     \return               Control Register value
 336:../../../platform/thirdparty/CMSIS/include/core_cmFunc.h ****  */
 337:../../../platform/thirdparty/CMSIS/include/core_cmFunc.h **** __attribute__( ( always_inline ) ) __STATIC_INLINE uint32_t __get_CONTROL(void)
 338:../../../platform/thirdparty/CMSIS/include/core_cmFunc.h **** {
 339:../../../platform/thirdparty/CMSIS/include/core_cmFunc.h ****   uint32_t result;
 340:../../../platform/thirdparty/CMSIS/include/core_cmFunc.h **** 
 341:../../../platform/thirdparty/CMSIS/include/core_cmFunc.h ****   __ASM volatile ("MRS %0, control" : "=r" (result) );
 342:../../../platform/thirdparty/CMSIS/include/core_cmFunc.h ****   return(result);
 343:../../../platform/thirdparty/CMSIS/include/core_cmFunc.h **** }
 344:../../../platform/thirdparty/CMSIS/include/core_cmFunc.h **** 
 345:../../../platform/thirdparty/CMSIS/include/core_cmFunc.h **** 
 346:../../../platform/thirdparty/CMSIS/include/core_cmFunc.h **** /** \brief  Set Control Register
 347:../../../platform/thirdparty/CMSIS/include/core_cmFunc.h **** 
 348:../../../platform/thirdparty/CMSIS/include/core_cmFunc.h ****     This function writes the given value to the Control Register.
 349:../../../platform/thirdparty/CMSIS/include/core_cmFunc.h **** 
 350:../../../platform/thirdparty/CMSIS/include/core_cmFunc.h ****     \param [in]    control  Control Register value to set
 351:../../../platform/thirdparty/CMSIS/include/core_cmFunc.h ****  */
 352:../../../platform/thirdparty/CMSIS/include/core_cmFunc.h **** __attribute__( ( always_inline ) ) __STATIC_INLINE void __set_CONTROL(uint32_t control)
 353:../../../platform/thirdparty/CMSIS/include/core_cmFunc.h **** {
 354:../../../platform/thirdparty/CMSIS/include/core_cmFunc.h ****   __ASM volatile ("MSR control, %0" : : "r" (control) );
 355:../../../platform/thirdparty/CMSIS/include/core_cmFunc.h **** }
 356:../../../platform/thirdparty/CMSIS/include/core_cmFunc.h **** 
 357:../../../platform/thirdparty/CMSIS/include/core_cmFunc.h **** 
 358:../../../platform/thirdparty/CMSIS/include/core_cmFunc.h **** /** \brief  Get IPSR Register
 359:../../../platform/thirdparty/CMSIS/include/core_cmFunc.h **** 
 360:../../../platform/thirdparty/CMSIS/include/core_cmFunc.h ****     This function returns the content of the IPSR Register.
 361:../../../platform/thirdparty/CMSIS/include/core_cmFunc.h **** 
 362:../../../platform/thirdparty/CMSIS/include/core_cmFunc.h ****     \return               IPSR Register value
 363:../../../platform/thirdparty/CMSIS/include/core_cmFunc.h ****  */
 364:../../../platform/thirdparty/CMSIS/include/core_cmFunc.h **** __attribute__( ( always_inline ) ) __STATIC_INLINE uint32_t __get_IPSR(void)
 365:../../../platform/thirdparty/CMSIS/include/core_cmFunc.h **** {
 366:../../../platform/thirdparty/CMSIS/include/core_cmFunc.h ****   uint32_t result;
 367:../../../platform/thirdparty/CMSIS/include/core_cmFunc.h **** 
 368:../../../platform/thirdparty/CMSIS/include/core_cmFunc.h ****   __ASM volatile ("MRS %0, ipsr" : "=r" (result) );
 369:../../../platform/thirdparty/CMSIS/include/core_cmFunc.h ****   return(result);
 370:../../../platform/thirdparty/CMSIS/include/core_cmFunc.h **** }
 371:../../../platform/thirdparty/CMSIS/include/core_cmFunc.h **** 
 372:../../../platform/thirdparty/CMSIS/include/core_cmFunc.h **** 
 373:../../../platform/thirdparty/CMSIS/include/core_cmFunc.h **** /** \brief  Get APSR Register
 374:../../../platform/thirdparty/CMSIS/include/core_cmFunc.h **** 
 375:../../../platform/thirdparty/CMSIS/include/core_cmFunc.h ****     This function returns the content of the APSR Register.
 376:../../../platform/thirdparty/CMSIS/include/core_cmFunc.h **** 
 377:../../../platform/thirdparty/CMSIS/include/core_cmFunc.h ****     \return               APSR Register value
 378:../../../platform/thirdparty/CMSIS/include/core_cmFunc.h ****  */
 379:../../../platform/thirdparty/CMSIS/include/core_cmFunc.h **** __attribute__( ( always_inline ) ) __STATIC_INLINE uint32_t __get_APSR(void)
 380:../../../platform/thirdparty/CMSIS/include/core_cmFunc.h **** {
 381:../../../platform/thirdparty/CMSIS/include/core_cmFunc.h ****   uint32_t result;
 382:../../../platform/thirdparty/CMSIS/include/core_cmFunc.h **** 
 383:../../../platform/thirdparty/CMSIS/include/core_cmFunc.h ****   __ASM volatile ("MRS %0, apsr" : "=r" (result) );
 384:../../../platform/thirdparty/CMSIS/include/core_cmFunc.h ****   return(result);
 385:../../../platform/thirdparty/CMSIS/include/core_cmFunc.h **** }
 386:../../../platform/thirdparty/CMSIS/include/core_cmFunc.h **** 
 387:../../../platform/thirdparty/CMSIS/include/core_cmFunc.h **** 
 388:../../../platform/thirdparty/CMSIS/include/core_cmFunc.h **** /** \brief  Get xPSR Register
 389:../../../platform/thirdparty/CMSIS/include/core_cmFunc.h **** 
 390:../../../platform/thirdparty/CMSIS/include/core_cmFunc.h ****     This function returns the content of the xPSR Register.
 391:../../../platform/thirdparty/CMSIS/include/core_cmFunc.h **** 
 392:../../../platform/thirdparty/CMSIS/include/core_cmFunc.h ****     \return               xPSR Register value
 393:../../../platform/thirdparty/CMSIS/include/core_cmFunc.h ****  */
 394:../../../platform/thirdparty/CMSIS/include/core_cmFunc.h **** __attribute__( ( always_inline ) ) __STATIC_INLINE uint32_t __get_xPSR(void)
 395:../../../platform/thirdparty/CMSIS/include/core_cmFunc.h **** {
 396:../../../platform/thirdparty/CMSIS/include/core_cmFunc.h ****   uint32_t result;
 397:../../../platform/thirdparty/CMSIS/include/core_cmFunc.h **** 
 398:../../../platform/thirdparty/CMSIS/include/core_cmFunc.h ****   __ASM volatile ("MRS %0, xpsr" : "=r" (result) );
 399:../../../platform/thirdparty/CMSIS/include/core_cmFunc.h ****   return(result);
 400:../../../platform/thirdparty/CMSIS/include/core_cmFunc.h **** }
 401:../../../platform/thirdparty/CMSIS/include/core_cmFunc.h **** 
 402:../../../platform/thirdparty/CMSIS/include/core_cmFunc.h **** 
 403:../../../platform/thirdparty/CMSIS/include/core_cmFunc.h **** /** \brief  Get Process Stack Pointer
 404:../../../platform/thirdparty/CMSIS/include/core_cmFunc.h **** 
 405:../../../platform/thirdparty/CMSIS/include/core_cmFunc.h ****     This function returns the current value of the Process Stack Pointer (PSP).
 406:../../../platform/thirdparty/CMSIS/include/core_cmFunc.h **** 
 407:../../../platform/thirdparty/CMSIS/include/core_cmFunc.h ****     \return               PSP Register value
 408:../../../platform/thirdparty/CMSIS/include/core_cmFunc.h ****  */
 409:../../../platform/thirdparty/CMSIS/include/core_cmFunc.h **** __attribute__( ( always_inline ) ) __STATIC_INLINE uint32_t __get_PSP(void)
 410:../../../platform/thirdparty/CMSIS/include/core_cmFunc.h **** {
 411:../../../platform/thirdparty/CMSIS/include/core_cmFunc.h ****   register uint32_t result;
 412:../../../platform/thirdparty/CMSIS/include/core_cmFunc.h **** 
 413:../../../platform/thirdparty/CMSIS/include/core_cmFunc.h ****   __ASM volatile ("MRS %0, psp\n"  : "=r" (result) );
 414:../../../platform/thirdparty/CMSIS/include/core_cmFunc.h ****   return(result);
 415:../../../platform/thirdparty/CMSIS/include/core_cmFunc.h **** }
 416:../../../platform/thirdparty/CMSIS/include/core_cmFunc.h ****  
 417:../../../platform/thirdparty/CMSIS/include/core_cmFunc.h **** 
 418:../../../platform/thirdparty/CMSIS/include/core_cmFunc.h **** /** \brief  Set Process Stack Pointer
 419:../../../platform/thirdparty/CMSIS/include/core_cmFunc.h **** 
 420:../../../platform/thirdparty/CMSIS/include/core_cmFunc.h ****     This function assigns the given value to the Process Stack Pointer (PSP).
 421:../../../platform/thirdparty/CMSIS/include/core_cmFunc.h **** 
 422:../../../platform/thirdparty/CMSIS/include/core_cmFunc.h ****     \param [in]    topOfProcStack  Process Stack Pointer value to set
 423:../../../platform/thirdparty/CMSIS/include/core_cmFunc.h ****  */
 424:../../../platform/thirdparty/CMSIS/include/core_cmFunc.h **** __attribute__( ( always_inline ) ) __STATIC_INLINE void __set_PSP(uint32_t topOfProcStack)
 425:../../../platform/thirdparty/CMSIS/include/core_cmFunc.h **** {
 426:../../../platform/thirdparty/CMSIS/include/core_cmFunc.h ****   __ASM volatile ("MSR psp, %0\n" : : "r" (topOfProcStack) );
 427:../../../platform/thirdparty/CMSIS/include/core_cmFunc.h **** }
 428:../../../platform/thirdparty/CMSIS/include/core_cmFunc.h **** 
 429:../../../platform/thirdparty/CMSIS/include/core_cmFunc.h **** 
 430:../../../platform/thirdparty/CMSIS/include/core_cmFunc.h **** /** \brief  Get Main Stack Pointer
 431:../../../platform/thirdparty/CMSIS/include/core_cmFunc.h **** 
 432:../../../platform/thirdparty/CMSIS/include/core_cmFunc.h ****     This function returns the current value of the Main Stack Pointer (MSP).
 433:../../../platform/thirdparty/CMSIS/include/core_cmFunc.h **** 
 434:../../../platform/thirdparty/CMSIS/include/core_cmFunc.h ****     \return               MSP Register value
 435:../../../platform/thirdparty/CMSIS/include/core_cmFunc.h ****  */
 436:../../../platform/thirdparty/CMSIS/include/core_cmFunc.h **** __attribute__( ( always_inline ) ) __STATIC_INLINE uint32_t __get_MSP(void)
 437:../../../platform/thirdparty/CMSIS/include/core_cmFunc.h **** {
 438:../../../platform/thirdparty/CMSIS/include/core_cmFunc.h ****   register uint32_t result;
 439:../../../platform/thirdparty/CMSIS/include/core_cmFunc.h **** 
 440:../../../platform/thirdparty/CMSIS/include/core_cmFunc.h ****   __ASM volatile ("MRS %0, msp\n" : "=r" (result) );
 441:../../../platform/thirdparty/CMSIS/include/core_cmFunc.h ****   return(result);
 442:../../../platform/thirdparty/CMSIS/include/core_cmFunc.h **** }
 443:../../../platform/thirdparty/CMSIS/include/core_cmFunc.h ****  
 444:../../../platform/thirdparty/CMSIS/include/core_cmFunc.h **** 
 445:../../../platform/thirdparty/CMSIS/include/core_cmFunc.h **** /** \brief  Set Main Stack Pointer
 446:../../../platform/thirdparty/CMSIS/include/core_cmFunc.h **** 
 447:../../../platform/thirdparty/CMSIS/include/core_cmFunc.h ****     This function assigns the given value to the Main Stack Pointer (MSP).
 448:../../../platform/thirdparty/CMSIS/include/core_cmFunc.h **** 
 449:../../../platform/thirdparty/CMSIS/include/core_cmFunc.h ****     \param [in]    topOfMainStack  Main Stack Pointer value to set
 450:../../../platform/thirdparty/CMSIS/include/core_cmFunc.h ****  */
 451:../../../platform/thirdparty/CMSIS/include/core_cmFunc.h **** __attribute__( ( always_inline ) ) __STATIC_INLINE void __set_MSP(uint32_t topOfMainStack)
 452:../../../platform/thirdparty/CMSIS/include/core_cmFunc.h **** {
 453:../../../platform/thirdparty/CMSIS/include/core_cmFunc.h ****   __ASM volatile ("MSR msp, %0\n" : : "r" (topOfMainStack) );
 454:../../../platform/thirdparty/CMSIS/include/core_cmFunc.h **** }
 455:../../../platform/thirdparty/CMSIS/include/core_cmFunc.h **** 
 456:../../../platform/thirdparty/CMSIS/include/core_cmFunc.h **** 
 457:../../../platform/thirdparty/CMSIS/include/core_cmFunc.h **** /** \brief  Get Priority Mask
 458:../../../platform/thirdparty/CMSIS/include/core_cmFunc.h **** 
 459:../../../platform/thirdparty/CMSIS/include/core_cmFunc.h ****     This function returns the current state of the priority mask bit from the Priority Mask Registe
 460:../../../platform/thirdparty/CMSIS/include/core_cmFunc.h **** 
 461:../../../platform/thirdparty/CMSIS/include/core_cmFunc.h ****     \return               Priority Mask value
 462:../../../platform/thirdparty/CMSIS/include/core_cmFunc.h ****  */
 463:../../../platform/thirdparty/CMSIS/include/core_cmFunc.h **** __attribute__( ( always_inline ) ) __STATIC_INLINE uint32_t __get_PRIMASK(void)
 464:../../../platform/thirdparty/CMSIS/include/core_cmFunc.h **** {
 465:../../../platform/thirdparty/CMSIS/include/core_cmFunc.h ****   uint32_t result;
 466:../../../platform/thirdparty/CMSIS/include/core_cmFunc.h **** 
 467:../../../platform/thirdparty/CMSIS/include/core_cmFunc.h ****   __ASM volatile ("MRS %0, primask" : "=r" (result) );
  54              	 .loc 2 467 0
  55              	 .syntax unified
  56              	
  57 0006 EFF31083 	 MRS r3,primask
  58              	
  59              	 .thumb
  60              	 .syntax unified
  61 000a 3B60     	 str r3,[r7]
 468:../../../platform/thirdparty/CMSIS/include/core_cmFunc.h ****   return(result);
  62              	 .loc 2 468 0
  63 000c 3B68     	 ldr r3,[r7]
  64              	.LBE15:
  65              	.LBE14:
 146:../../../platform/common/utils/interrupt/interrupt_sam_nvic.h **** 	irqflags_t flags = cpu_irq_is_enabled();
  66              	 .loc 1 146 0
  67 000e 002B     	 cmp r3,#0
  68 0010 0CBF     	 ite eq
  69 0012 0123     	 moveq r3,#1
  70 0014 0023     	 movne r3,#0
  71 0016 DBB2     	 uxtb r3,r3
  72 0018 7B60     	 str r3,[r7,#4]
  73              	.LBB16:
  74              	.LBB17:
 327:../../../platform/thirdparty/CMSIS/include/core_cmFunc.h **** }
  75              	 .loc 2 327 0
  76              	 .syntax unified
  77              	
  78 001a 72B6     	 cpsid i
  79              	
  80              	 .thumb
  81              	 .syntax unified
  82              	.LBE17:
  83              	.LBE16:
  84              	.LBB18:
  85              	.LBB19:
  86              	 .file 3 "../../../platform/thirdparty/CMSIS/include/core_cmInstr.h"
   1:../../../platform/thirdparty/CMSIS/include/core_cmInstr.h **** /**************************************************************************//**
   2:../../../platform/thirdparty/CMSIS/include/core_cmInstr.h ****  * @file     core_cmInstr.h
   3:../../../platform/thirdparty/CMSIS/include/core_cmInstr.h ****  * @brief    CMSIS Cortex-M Core Instruction Access Header File
   4:../../../platform/thirdparty/CMSIS/include/core_cmInstr.h ****  * @version  V3.00
   5:../../../platform/thirdparty/CMSIS/include/core_cmInstr.h ****  * @date     07. February 2012
   6:../../../platform/thirdparty/CMSIS/include/core_cmInstr.h ****  *
   7:../../../platform/thirdparty/CMSIS/include/core_cmInstr.h ****  * @note
   8:../../../platform/thirdparty/CMSIS/include/core_cmInstr.h ****  * Copyright (C) 2009-2012 ARM Limited. All rights reserved.
   9:../../../platform/thirdparty/CMSIS/include/core_cmInstr.h ****  *
  10:../../../platform/thirdparty/CMSIS/include/core_cmInstr.h ****  * @par
  11:../../../platform/thirdparty/CMSIS/include/core_cmInstr.h ****  * ARM Limited (ARM) is supplying this software for use with Cortex-M
  12:../../../platform/thirdparty/CMSIS/include/core_cmInstr.h ****  * processor based microcontrollers.  This file can be freely distributed
  13:../../../platform/thirdparty/CMSIS/include/core_cmInstr.h ****  * within development tools that are supporting such ARM based processors.
  14:../../../platform/thirdparty/CMSIS/include/core_cmInstr.h ****  *
  15:../../../platform/thirdparty/CMSIS/include/core_cmInstr.h ****  * @par
  16:../../../platform/thirdparty/CMSIS/include/core_cmInstr.h ****  * THIS SOFTWARE IS PROVIDED "AS IS".  NO WARRANTIES, WHETHER EXPRESS, IMPLIED
  17:../../../platform/thirdparty/CMSIS/include/core_cmInstr.h ****  * OR STATUTORY, INCLUDING, BUT NOT LIMITED TO, IMPLIED WARRANTIES OF
  18:../../../platform/thirdparty/CMSIS/include/core_cmInstr.h ****  * MERCHANTABILITY AND FITNESS FOR A PARTICULAR PURPOSE APPLY TO THIS SOFTWARE.
  19:../../../platform/thirdparty/CMSIS/include/core_cmInstr.h ****  * ARM SHALL NOT, IN ANY CIRCUMSTANCES, BE LIABLE FOR SPECIAL, INCIDENTAL, OR
  20:../../../platform/thirdparty/CMSIS/include/core_cmInstr.h ****  * CONSEQUENTIAL DAMAGES, FOR ANY REASON WHATSOEVER.
  21:../../../platform/thirdparty/CMSIS/include/core_cmInstr.h ****  *
  22:../../../platform/thirdparty/CMSIS/include/core_cmInstr.h ****  ******************************************************************************/
  23:../../../platform/thirdparty/CMSIS/include/core_cmInstr.h **** 
  24:../../../platform/thirdparty/CMSIS/include/core_cmInstr.h **** #ifndef __CORE_CMINSTR_H
  25:../../../platform/thirdparty/CMSIS/include/core_cmInstr.h **** #define __CORE_CMINSTR_H
  26:../../../platform/thirdparty/CMSIS/include/core_cmInstr.h **** 
  27:../../../platform/thirdparty/CMSIS/include/core_cmInstr.h **** 
  28:../../../platform/thirdparty/CMSIS/include/core_cmInstr.h **** /* ##########################  Core Instruction Access  ######################### */
  29:../../../platform/thirdparty/CMSIS/include/core_cmInstr.h **** /** \defgroup CMSIS_Core_InstructionInterface CMSIS Core Instruction Interface
  30:../../../platform/thirdparty/CMSIS/include/core_cmInstr.h ****   Access to dedicated instructions
  31:../../../platform/thirdparty/CMSIS/include/core_cmInstr.h ****   @{
  32:../../../platform/thirdparty/CMSIS/include/core_cmInstr.h **** */
  33:../../../platform/thirdparty/CMSIS/include/core_cmInstr.h **** 
  34:../../../platform/thirdparty/CMSIS/include/core_cmInstr.h **** #if   defined ( __CC_ARM ) /*------------------RealView Compiler -----------------*/
  35:../../../platform/thirdparty/CMSIS/include/core_cmInstr.h **** /* ARM armcc specific functions */
  36:../../../platform/thirdparty/CMSIS/include/core_cmInstr.h **** 
  37:../../../platform/thirdparty/CMSIS/include/core_cmInstr.h **** #if (__ARMCC_VERSION < 400677)
  38:../../../platform/thirdparty/CMSIS/include/core_cmInstr.h ****   #error "Please use ARM Compiler Toolchain V4.0.677 or later!"
  39:../../../platform/thirdparty/CMSIS/include/core_cmInstr.h **** #endif
  40:../../../platform/thirdparty/CMSIS/include/core_cmInstr.h **** 
  41:../../../platform/thirdparty/CMSIS/include/core_cmInstr.h **** 
  42:../../../platform/thirdparty/CMSIS/include/core_cmInstr.h **** /** \brief  No Operation
  43:../../../platform/thirdparty/CMSIS/include/core_cmInstr.h **** 
  44:../../../platform/thirdparty/CMSIS/include/core_cmInstr.h ****     No Operation does nothing. This instruction can be used for code alignment purposes.
  45:../../../platform/thirdparty/CMSIS/include/core_cmInstr.h ****  */
  46:../../../platform/thirdparty/CMSIS/include/core_cmInstr.h **** #define __NOP                             __nop
  47:../../../platform/thirdparty/CMSIS/include/core_cmInstr.h **** 
  48:../../../platform/thirdparty/CMSIS/include/core_cmInstr.h **** 
  49:../../../platform/thirdparty/CMSIS/include/core_cmInstr.h **** /** \brief  Wait For Interrupt
  50:../../../platform/thirdparty/CMSIS/include/core_cmInstr.h **** 
  51:../../../platform/thirdparty/CMSIS/include/core_cmInstr.h ****     Wait For Interrupt is a hint instruction that suspends execution
  52:../../../platform/thirdparty/CMSIS/include/core_cmInstr.h ****     until one of a number of events occurs.
  53:../../../platform/thirdparty/CMSIS/include/core_cmInstr.h ****  */
  54:../../../platform/thirdparty/CMSIS/include/core_cmInstr.h **** #define __WFI                             __wfi
  55:../../../platform/thirdparty/CMSIS/include/core_cmInstr.h **** 
  56:../../../platform/thirdparty/CMSIS/include/core_cmInstr.h **** 
  57:../../../platform/thirdparty/CMSIS/include/core_cmInstr.h **** /** \brief  Wait For Event
  58:../../../platform/thirdparty/CMSIS/include/core_cmInstr.h **** 
  59:../../../platform/thirdparty/CMSIS/include/core_cmInstr.h ****     Wait For Event is a hint instruction that permits the processor to enter
  60:../../../platform/thirdparty/CMSIS/include/core_cmInstr.h ****     a low-power state until one of a number of events occurs.
  61:../../../platform/thirdparty/CMSIS/include/core_cmInstr.h ****  */
  62:../../../platform/thirdparty/CMSIS/include/core_cmInstr.h **** #define __WFE                             __wfe
  63:../../../platform/thirdparty/CMSIS/include/core_cmInstr.h **** 
  64:../../../platform/thirdparty/CMSIS/include/core_cmInstr.h **** 
  65:../../../platform/thirdparty/CMSIS/include/core_cmInstr.h **** /** \brief  Send Event
  66:../../../platform/thirdparty/CMSIS/include/core_cmInstr.h **** 
  67:../../../platform/thirdparty/CMSIS/include/core_cmInstr.h ****     Send Event is a hint instruction. It causes an event to be signaled to the CPU.
  68:../../../platform/thirdparty/CMSIS/include/core_cmInstr.h ****  */
  69:../../../platform/thirdparty/CMSIS/include/core_cmInstr.h **** #define __SEV                             __sev
  70:../../../platform/thirdparty/CMSIS/include/core_cmInstr.h **** 
  71:../../../platform/thirdparty/CMSIS/include/core_cmInstr.h **** 
  72:../../../platform/thirdparty/CMSIS/include/core_cmInstr.h **** /** \brief  Instruction Synchronization Barrier
  73:../../../platform/thirdparty/CMSIS/include/core_cmInstr.h **** 
  74:../../../platform/thirdparty/CMSIS/include/core_cmInstr.h ****     Instruction Synchronization Barrier flushes the pipeline in the processor,
  75:../../../platform/thirdparty/CMSIS/include/core_cmInstr.h ****     so that all instructions following the ISB are fetched from cache or
  76:../../../platform/thirdparty/CMSIS/include/core_cmInstr.h ****     memory, after the instruction has been completed.
  77:../../../platform/thirdparty/CMSIS/include/core_cmInstr.h ****  */
  78:../../../platform/thirdparty/CMSIS/include/core_cmInstr.h **** #define __ISB()                           __isb(0xF)
  79:../../../platform/thirdparty/CMSIS/include/core_cmInstr.h **** 
  80:../../../platform/thirdparty/CMSIS/include/core_cmInstr.h **** 
  81:../../../platform/thirdparty/CMSIS/include/core_cmInstr.h **** /** \brief  Data Synchronization Barrier
  82:../../../platform/thirdparty/CMSIS/include/core_cmInstr.h **** 
  83:../../../platform/thirdparty/CMSIS/include/core_cmInstr.h ****     This function acts as a special kind of Data Memory Barrier.
  84:../../../platform/thirdparty/CMSIS/include/core_cmInstr.h ****     It completes when all explicit memory accesses before this instruction complete.
  85:../../../platform/thirdparty/CMSIS/include/core_cmInstr.h ****  */
  86:../../../platform/thirdparty/CMSIS/include/core_cmInstr.h **** #define __DSB()                           __dsb(0xF)
  87:../../../platform/thirdparty/CMSIS/include/core_cmInstr.h **** 
  88:../../../platform/thirdparty/CMSIS/include/core_cmInstr.h **** 
  89:../../../platform/thirdparty/CMSIS/include/core_cmInstr.h **** /** \brief  Data Memory Barrier
  90:../../../platform/thirdparty/CMSIS/include/core_cmInstr.h **** 
  91:../../../platform/thirdparty/CMSIS/include/core_cmInstr.h ****     This function ensures the apparent order of the explicit memory operations before
  92:../../../platform/thirdparty/CMSIS/include/core_cmInstr.h ****     and after the instruction, without ensuring their completion.
  93:../../../platform/thirdparty/CMSIS/include/core_cmInstr.h ****  */
  94:../../../platform/thirdparty/CMSIS/include/core_cmInstr.h **** #define __DMB()                           __dmb(0xF)
  95:../../../platform/thirdparty/CMSIS/include/core_cmInstr.h **** 
  96:../../../platform/thirdparty/CMSIS/include/core_cmInstr.h **** 
  97:../../../platform/thirdparty/CMSIS/include/core_cmInstr.h **** /** \brief  Reverse byte order (32 bit)
  98:../../../platform/thirdparty/CMSIS/include/core_cmInstr.h **** 
  99:../../../platform/thirdparty/CMSIS/include/core_cmInstr.h ****     This function reverses the byte order in integer value.
 100:../../../platform/thirdparty/CMSIS/include/core_cmInstr.h **** 
 101:../../../platform/thirdparty/CMSIS/include/core_cmInstr.h ****     \param [in]    value  Value to reverse
 102:../../../platform/thirdparty/CMSIS/include/core_cmInstr.h ****     \return               Reversed value
 103:../../../platform/thirdparty/CMSIS/include/core_cmInstr.h ****  */
 104:../../../platform/thirdparty/CMSIS/include/core_cmInstr.h **** #define __REV                             __rev
 105:../../../platform/thirdparty/CMSIS/include/core_cmInstr.h **** 
 106:../../../platform/thirdparty/CMSIS/include/core_cmInstr.h **** 
 107:../../../platform/thirdparty/CMSIS/include/core_cmInstr.h **** /** \brief  Reverse byte order (16 bit)
 108:../../../platform/thirdparty/CMSIS/include/core_cmInstr.h **** 
 109:../../../platform/thirdparty/CMSIS/include/core_cmInstr.h ****     This function reverses the byte order in two unsigned short values.
 110:../../../platform/thirdparty/CMSIS/include/core_cmInstr.h **** 
 111:../../../platform/thirdparty/CMSIS/include/core_cmInstr.h ****     \param [in]    value  Value to reverse
 112:../../../platform/thirdparty/CMSIS/include/core_cmInstr.h ****     \return               Reversed value
 113:../../../platform/thirdparty/CMSIS/include/core_cmInstr.h ****  */
 114:../../../platform/thirdparty/CMSIS/include/core_cmInstr.h **** __attribute__((section(".rev16_text"))) __STATIC_INLINE __ASM uint32_t __REV16(uint32_t value)
 115:../../../platform/thirdparty/CMSIS/include/core_cmInstr.h **** {
 116:../../../platform/thirdparty/CMSIS/include/core_cmInstr.h ****   rev16 r0, r0
 117:../../../platform/thirdparty/CMSIS/include/core_cmInstr.h ****   bx lr
 118:../../../platform/thirdparty/CMSIS/include/core_cmInstr.h **** }
 119:../../../platform/thirdparty/CMSIS/include/core_cmInstr.h **** 
 120:../../../platform/thirdparty/CMSIS/include/core_cmInstr.h **** 
 121:../../../platform/thirdparty/CMSIS/include/core_cmInstr.h **** /** \brief  Reverse byte order in signed short value
 122:../../../platform/thirdparty/CMSIS/include/core_cmInstr.h **** 
 123:../../../platform/thirdparty/CMSIS/include/core_cmInstr.h ****     This function reverses the byte order in a signed short value with sign extension to integer.
 124:../../../platform/thirdparty/CMSIS/include/core_cmInstr.h **** 
 125:../../../platform/thirdparty/CMSIS/include/core_cmInstr.h ****     \param [in]    value  Value to reverse
 126:../../../platform/thirdparty/CMSIS/include/core_cmInstr.h ****     \return               Reversed value
 127:../../../platform/thirdparty/CMSIS/include/core_cmInstr.h ****  */
 128:../../../platform/thirdparty/CMSIS/include/core_cmInstr.h **** __attribute__((section(".revsh_text"))) __STATIC_INLINE __ASM int32_t __REVSH(int32_t value)
 129:../../../platform/thirdparty/CMSIS/include/core_cmInstr.h **** {
 130:../../../platform/thirdparty/CMSIS/include/core_cmInstr.h ****   revsh r0, r0
 131:../../../platform/thirdparty/CMSIS/include/core_cmInstr.h ****   bx lr
 132:../../../platform/thirdparty/CMSIS/include/core_cmInstr.h **** }
 133:../../../platform/thirdparty/CMSIS/include/core_cmInstr.h **** 
 134:../../../platform/thirdparty/CMSIS/include/core_cmInstr.h **** 
 135:../../../platform/thirdparty/CMSIS/include/core_cmInstr.h **** /** \brief  Rotate Right in unsigned value (32 bit)
 136:../../../platform/thirdparty/CMSIS/include/core_cmInstr.h **** 
 137:../../../platform/thirdparty/CMSIS/include/core_cmInstr.h ****     This function Rotate Right (immediate) provides the value of the contents of a register rotated
 138:../../../platform/thirdparty/CMSIS/include/core_cmInstr.h **** 
 139:../../../platform/thirdparty/CMSIS/include/core_cmInstr.h ****     \param [in]    value  Value to rotate
 140:../../../platform/thirdparty/CMSIS/include/core_cmInstr.h ****     \param [in]    value  Number of Bits to rotate
 141:../../../platform/thirdparty/CMSIS/include/core_cmInstr.h ****     \return               Rotated value
 142:../../../platform/thirdparty/CMSIS/include/core_cmInstr.h ****  */
 143:../../../platform/thirdparty/CMSIS/include/core_cmInstr.h **** #define __ROR                             __ror
 144:../../../platform/thirdparty/CMSIS/include/core_cmInstr.h **** 
 145:../../../platform/thirdparty/CMSIS/include/core_cmInstr.h **** 
 146:../../../platform/thirdparty/CMSIS/include/core_cmInstr.h **** #if       (__CORTEX_M >= 0x03)
 147:../../../platform/thirdparty/CMSIS/include/core_cmInstr.h **** 
 148:../../../platform/thirdparty/CMSIS/include/core_cmInstr.h **** /** \brief  Reverse bit order of value
 149:../../../platform/thirdparty/CMSIS/include/core_cmInstr.h **** 
 150:../../../platform/thirdparty/CMSIS/include/core_cmInstr.h ****     This function reverses the bit order of the given value.
 151:../../../platform/thirdparty/CMSIS/include/core_cmInstr.h **** 
 152:../../../platform/thirdparty/CMSIS/include/core_cmInstr.h ****     \param [in]    value  Value to reverse
 153:../../../platform/thirdparty/CMSIS/include/core_cmInstr.h ****     \return               Reversed value
 154:../../../platform/thirdparty/CMSIS/include/core_cmInstr.h ****  */
 155:../../../platform/thirdparty/CMSIS/include/core_cmInstr.h **** #define __RBIT                            __rbit
 156:../../../platform/thirdparty/CMSIS/include/core_cmInstr.h **** 
 157:../../../platform/thirdparty/CMSIS/include/core_cmInstr.h **** 
 158:../../../platform/thirdparty/CMSIS/include/core_cmInstr.h **** /** \brief  LDR Exclusive (8 bit)
 159:../../../platform/thirdparty/CMSIS/include/core_cmInstr.h **** 
 160:../../../platform/thirdparty/CMSIS/include/core_cmInstr.h ****     This function performs a exclusive LDR command for 8 bit value.
 161:../../../platform/thirdparty/CMSIS/include/core_cmInstr.h **** 
 162:../../../platform/thirdparty/CMSIS/include/core_cmInstr.h ****     \param [in]    ptr  Pointer to data
 163:../../../platform/thirdparty/CMSIS/include/core_cmInstr.h ****     \return             value of type uint8_t at (*ptr)
 164:../../../platform/thirdparty/CMSIS/include/core_cmInstr.h ****  */
 165:../../../platform/thirdparty/CMSIS/include/core_cmInstr.h **** #define __LDREXB(ptr)                     ((uint8_t ) __ldrex(ptr))
 166:../../../platform/thirdparty/CMSIS/include/core_cmInstr.h **** 
 167:../../../platform/thirdparty/CMSIS/include/core_cmInstr.h **** 
 168:../../../platform/thirdparty/CMSIS/include/core_cmInstr.h **** /** \brief  LDR Exclusive (16 bit)
 169:../../../platform/thirdparty/CMSIS/include/core_cmInstr.h **** 
 170:../../../platform/thirdparty/CMSIS/include/core_cmInstr.h ****     This function performs a exclusive LDR command for 16 bit values.
 171:../../../platform/thirdparty/CMSIS/include/core_cmInstr.h **** 
 172:../../../platform/thirdparty/CMSIS/include/core_cmInstr.h ****     \param [in]    ptr  Pointer to data
 173:../../../platform/thirdparty/CMSIS/include/core_cmInstr.h ****     \return        value of type uint16_t at (*ptr)
 174:../../../platform/thirdparty/CMSIS/include/core_cmInstr.h ****  */
 175:../../../platform/thirdparty/CMSIS/include/core_cmInstr.h **** #define __LDREXH(ptr)                     ((uint16_t) __ldrex(ptr))
 176:../../../platform/thirdparty/CMSIS/include/core_cmInstr.h **** 
 177:../../../platform/thirdparty/CMSIS/include/core_cmInstr.h **** 
 178:../../../platform/thirdparty/CMSIS/include/core_cmInstr.h **** /** \brief  LDR Exclusive (32 bit)
 179:../../../platform/thirdparty/CMSIS/include/core_cmInstr.h **** 
 180:../../../platform/thirdparty/CMSIS/include/core_cmInstr.h ****     This function performs a exclusive LDR command for 32 bit values.
 181:../../../platform/thirdparty/CMSIS/include/core_cmInstr.h **** 
 182:../../../platform/thirdparty/CMSIS/include/core_cmInstr.h ****     \param [in]    ptr  Pointer to data
 183:../../../platform/thirdparty/CMSIS/include/core_cmInstr.h ****     \return        value of type uint32_t at (*ptr)
 184:../../../platform/thirdparty/CMSIS/include/core_cmInstr.h ****  */
 185:../../../platform/thirdparty/CMSIS/include/core_cmInstr.h **** #define __LDREXW(ptr)                     ((uint32_t ) __ldrex(ptr))
 186:../../../platform/thirdparty/CMSIS/include/core_cmInstr.h **** 
 187:../../../platform/thirdparty/CMSIS/include/core_cmInstr.h **** 
 188:../../../platform/thirdparty/CMSIS/include/core_cmInstr.h **** /** \brief  STR Exclusive (8 bit)
 189:../../../platform/thirdparty/CMSIS/include/core_cmInstr.h **** 
 190:../../../platform/thirdparty/CMSIS/include/core_cmInstr.h ****     This function performs a exclusive STR command for 8 bit values.
 191:../../../platform/thirdparty/CMSIS/include/core_cmInstr.h **** 
 192:../../../platform/thirdparty/CMSIS/include/core_cmInstr.h ****     \param [in]  value  Value to store
 193:../../../platform/thirdparty/CMSIS/include/core_cmInstr.h ****     \param [in]    ptr  Pointer to location
 194:../../../platform/thirdparty/CMSIS/include/core_cmInstr.h ****     \return          0  Function succeeded
 195:../../../platform/thirdparty/CMSIS/include/core_cmInstr.h ****     \return          1  Function failed
 196:../../../platform/thirdparty/CMSIS/include/core_cmInstr.h ****  */
 197:../../../platform/thirdparty/CMSIS/include/core_cmInstr.h **** #define __STREXB(value, ptr)              __strex(value, ptr)
 198:../../../platform/thirdparty/CMSIS/include/core_cmInstr.h **** 
 199:../../../platform/thirdparty/CMSIS/include/core_cmInstr.h **** 
 200:../../../platform/thirdparty/CMSIS/include/core_cmInstr.h **** /** \brief  STR Exclusive (16 bit)
 201:../../../platform/thirdparty/CMSIS/include/core_cmInstr.h **** 
 202:../../../platform/thirdparty/CMSIS/include/core_cmInstr.h ****     This function performs a exclusive STR command for 16 bit values.
 203:../../../platform/thirdparty/CMSIS/include/core_cmInstr.h **** 
 204:../../../platform/thirdparty/CMSIS/include/core_cmInstr.h ****     \param [in]  value  Value to store
 205:../../../platform/thirdparty/CMSIS/include/core_cmInstr.h ****     \param [in]    ptr  Pointer to location
 206:../../../platform/thirdparty/CMSIS/include/core_cmInstr.h ****     \return          0  Function succeeded
 207:../../../platform/thirdparty/CMSIS/include/core_cmInstr.h ****     \return          1  Function failed
 208:../../../platform/thirdparty/CMSIS/include/core_cmInstr.h ****  */
 209:../../../platform/thirdparty/CMSIS/include/core_cmInstr.h **** #define __STREXH(value, ptr)              __strex(value, ptr)
 210:../../../platform/thirdparty/CMSIS/include/core_cmInstr.h **** 
 211:../../../platform/thirdparty/CMSIS/include/core_cmInstr.h **** 
 212:../../../platform/thirdparty/CMSIS/include/core_cmInstr.h **** /** \brief  STR Exclusive (32 bit)
 213:../../../platform/thirdparty/CMSIS/include/core_cmInstr.h **** 
 214:../../../platform/thirdparty/CMSIS/include/core_cmInstr.h ****     This function performs a exclusive STR command for 32 bit values.
 215:../../../platform/thirdparty/CMSIS/include/core_cmInstr.h **** 
 216:../../../platform/thirdparty/CMSIS/include/core_cmInstr.h ****     \param [in]  value  Value to store
 217:../../../platform/thirdparty/CMSIS/include/core_cmInstr.h ****     \param [in]    ptr  Pointer to location
 218:../../../platform/thirdparty/CMSIS/include/core_cmInstr.h ****     \return          0  Function succeeded
 219:../../../platform/thirdparty/CMSIS/include/core_cmInstr.h ****     \return          1  Function failed
 220:../../../platform/thirdparty/CMSIS/include/core_cmInstr.h ****  */
 221:../../../platform/thirdparty/CMSIS/include/core_cmInstr.h **** #define __STREXW(value, ptr)              __strex(value, ptr)
 222:../../../platform/thirdparty/CMSIS/include/core_cmInstr.h **** 
 223:../../../platform/thirdparty/CMSIS/include/core_cmInstr.h **** 
 224:../../../platform/thirdparty/CMSIS/include/core_cmInstr.h **** /** \brief  Remove the exclusive lock
 225:../../../platform/thirdparty/CMSIS/include/core_cmInstr.h **** 
 226:../../../platform/thirdparty/CMSIS/include/core_cmInstr.h ****     This function removes the exclusive lock which is created by LDREX.
 227:../../../platform/thirdparty/CMSIS/include/core_cmInstr.h **** 
 228:../../../platform/thirdparty/CMSIS/include/core_cmInstr.h ****  */
 229:../../../platform/thirdparty/CMSIS/include/core_cmInstr.h **** #define __CLREX                           __clrex
 230:../../../platform/thirdparty/CMSIS/include/core_cmInstr.h **** 
 231:../../../platform/thirdparty/CMSIS/include/core_cmInstr.h **** 
 232:../../../platform/thirdparty/CMSIS/include/core_cmInstr.h **** /** \brief  Signed Saturate
 233:../../../platform/thirdparty/CMSIS/include/core_cmInstr.h **** 
 234:../../../platform/thirdparty/CMSIS/include/core_cmInstr.h ****     This function saturates a signed value.
 235:../../../platform/thirdparty/CMSIS/include/core_cmInstr.h **** 
 236:../../../platform/thirdparty/CMSIS/include/core_cmInstr.h ****     \param [in]  value  Value to be saturated
 237:../../../platform/thirdparty/CMSIS/include/core_cmInstr.h ****     \param [in]    sat  Bit position to saturate to (1..32)
 238:../../../platform/thirdparty/CMSIS/include/core_cmInstr.h ****     \return             Saturated value
 239:../../../platform/thirdparty/CMSIS/include/core_cmInstr.h ****  */
 240:../../../platform/thirdparty/CMSIS/include/core_cmInstr.h **** #define __SSAT                            __ssat
 241:../../../platform/thirdparty/CMSIS/include/core_cmInstr.h **** 
 242:../../../platform/thirdparty/CMSIS/include/core_cmInstr.h **** 
 243:../../../platform/thirdparty/CMSIS/include/core_cmInstr.h **** /** \brief  Unsigned Saturate
 244:../../../platform/thirdparty/CMSIS/include/core_cmInstr.h **** 
 245:../../../platform/thirdparty/CMSIS/include/core_cmInstr.h ****     This function saturates an unsigned value.
 246:../../../platform/thirdparty/CMSIS/include/core_cmInstr.h **** 
 247:../../../platform/thirdparty/CMSIS/include/core_cmInstr.h ****     \param [in]  value  Value to be saturated
 248:../../../platform/thirdparty/CMSIS/include/core_cmInstr.h ****     \param [in]    sat  Bit position to saturate to (0..31)
 249:../../../platform/thirdparty/CMSIS/include/core_cmInstr.h ****     \return             Saturated value
 250:../../../platform/thirdparty/CMSIS/include/core_cmInstr.h ****  */
 251:../../../platform/thirdparty/CMSIS/include/core_cmInstr.h **** #define __USAT                            __usat
 252:../../../platform/thirdparty/CMSIS/include/core_cmInstr.h **** 
 253:../../../platform/thirdparty/CMSIS/include/core_cmInstr.h **** 
 254:../../../platform/thirdparty/CMSIS/include/core_cmInstr.h **** /** \brief  Count leading zeros
 255:../../../platform/thirdparty/CMSIS/include/core_cmInstr.h **** 
 256:../../../platform/thirdparty/CMSIS/include/core_cmInstr.h ****     This function counts the number of leading zeros of a data value.
 257:../../../platform/thirdparty/CMSIS/include/core_cmInstr.h **** 
 258:../../../platform/thirdparty/CMSIS/include/core_cmInstr.h ****     \param [in]  value  Value to count the leading zeros
 259:../../../platform/thirdparty/CMSIS/include/core_cmInstr.h ****     \return             number of leading zeros in value
 260:../../../platform/thirdparty/CMSIS/include/core_cmInstr.h ****  */
 261:../../../platform/thirdparty/CMSIS/include/core_cmInstr.h **** #define __CLZ                             __clz
 262:../../../platform/thirdparty/CMSIS/include/core_cmInstr.h **** 
 263:../../../platform/thirdparty/CMSIS/include/core_cmInstr.h **** #endif /* (__CORTEX_M >= 0x03) */
 264:../../../platform/thirdparty/CMSIS/include/core_cmInstr.h **** 
 265:../../../platform/thirdparty/CMSIS/include/core_cmInstr.h **** 
 266:../../../platform/thirdparty/CMSIS/include/core_cmInstr.h **** 
 267:../../../platform/thirdparty/CMSIS/include/core_cmInstr.h **** #elif defined ( __ICCARM__ ) /*------------------ ICC Compiler -------------------*/
 268:../../../platform/thirdparty/CMSIS/include/core_cmInstr.h **** /* IAR iccarm specific functions */
 269:../../../platform/thirdparty/CMSIS/include/core_cmInstr.h **** 
 270:../../../platform/thirdparty/CMSIS/include/core_cmInstr.h **** #include <cmsis_iar.h>
 271:../../../platform/thirdparty/CMSIS/include/core_cmInstr.h **** 
 272:../../../platform/thirdparty/CMSIS/include/core_cmInstr.h **** 
 273:../../../platform/thirdparty/CMSIS/include/core_cmInstr.h **** #elif defined ( __TMS470__ ) /*---------------- TI CCS Compiler ------------------*/
 274:../../../platform/thirdparty/CMSIS/include/core_cmInstr.h **** /* TI CCS specific functions */
 275:../../../platform/thirdparty/CMSIS/include/core_cmInstr.h **** 
 276:../../../platform/thirdparty/CMSIS/include/core_cmInstr.h **** #include <cmsis_ccs.h>
 277:../../../platform/thirdparty/CMSIS/include/core_cmInstr.h **** 
 278:../../../platform/thirdparty/CMSIS/include/core_cmInstr.h **** 
 279:../../../platform/thirdparty/CMSIS/include/core_cmInstr.h **** #elif defined ( __GNUC__ ) /*------------------ GNU Compiler ---------------------*/
 280:../../../platform/thirdparty/CMSIS/include/core_cmInstr.h **** /* GNU gcc specific functions */
 281:../../../platform/thirdparty/CMSIS/include/core_cmInstr.h **** 
 282:../../../platform/thirdparty/CMSIS/include/core_cmInstr.h **** /** \brief  No Operation
 283:../../../platform/thirdparty/CMSIS/include/core_cmInstr.h **** 
 284:../../../platform/thirdparty/CMSIS/include/core_cmInstr.h ****     No Operation does nothing. This instruction can be used for code alignment purposes.
 285:../../../platform/thirdparty/CMSIS/include/core_cmInstr.h ****  */
 286:../../../platform/thirdparty/CMSIS/include/core_cmInstr.h **** __attribute__( ( always_inline ) ) __STATIC_INLINE void __NOP(void)
 287:../../../platform/thirdparty/CMSIS/include/core_cmInstr.h **** {
 288:../../../platform/thirdparty/CMSIS/include/core_cmInstr.h ****   __ASM volatile ("nop");
 289:../../../platform/thirdparty/CMSIS/include/core_cmInstr.h **** }
 290:../../../platform/thirdparty/CMSIS/include/core_cmInstr.h **** 
 291:../../../platform/thirdparty/CMSIS/include/core_cmInstr.h **** 
 292:../../../platform/thirdparty/CMSIS/include/core_cmInstr.h **** /** \brief  Wait For Interrupt
 293:../../../platform/thirdparty/CMSIS/include/core_cmInstr.h **** 
 294:../../../platform/thirdparty/CMSIS/include/core_cmInstr.h ****     Wait For Interrupt is a hint instruction that suspends execution
 295:../../../platform/thirdparty/CMSIS/include/core_cmInstr.h ****     until one of a number of events occurs.
 296:../../../platform/thirdparty/CMSIS/include/core_cmInstr.h ****  */
 297:../../../platform/thirdparty/CMSIS/include/core_cmInstr.h **** __attribute__( ( always_inline ) ) __STATIC_INLINE void __WFI(void)
 298:../../../platform/thirdparty/CMSIS/include/core_cmInstr.h **** {
 299:../../../platform/thirdparty/CMSIS/include/core_cmInstr.h ****   __ASM volatile ("wfi");
 300:../../../platform/thirdparty/CMSIS/include/core_cmInstr.h **** }
 301:../../../platform/thirdparty/CMSIS/include/core_cmInstr.h **** 
 302:../../../platform/thirdparty/CMSIS/include/core_cmInstr.h **** 
 303:../../../platform/thirdparty/CMSIS/include/core_cmInstr.h **** /** \brief  Wait For Event
 304:../../../platform/thirdparty/CMSIS/include/core_cmInstr.h **** 
 305:../../../platform/thirdparty/CMSIS/include/core_cmInstr.h ****     Wait For Event is a hint instruction that permits the processor to enter
 306:../../../platform/thirdparty/CMSIS/include/core_cmInstr.h ****     a low-power state until one of a number of events occurs.
 307:../../../platform/thirdparty/CMSIS/include/core_cmInstr.h ****  */
 308:../../../platform/thirdparty/CMSIS/include/core_cmInstr.h **** __attribute__( ( always_inline ) ) __STATIC_INLINE void __WFE(void)
 309:../../../platform/thirdparty/CMSIS/include/core_cmInstr.h **** {
 310:../../../platform/thirdparty/CMSIS/include/core_cmInstr.h ****   __ASM volatile ("wfe");
 311:../../../platform/thirdparty/CMSIS/include/core_cmInstr.h **** }
 312:../../../platform/thirdparty/CMSIS/include/core_cmInstr.h **** 
 313:../../../platform/thirdparty/CMSIS/include/core_cmInstr.h **** 
 314:../../../platform/thirdparty/CMSIS/include/core_cmInstr.h **** /** \brief  Send Event
 315:../../../platform/thirdparty/CMSIS/include/core_cmInstr.h **** 
 316:../../../platform/thirdparty/CMSIS/include/core_cmInstr.h ****     Send Event is a hint instruction. It causes an event to be signaled to the CPU.
 317:../../../platform/thirdparty/CMSIS/include/core_cmInstr.h ****  */
 318:../../../platform/thirdparty/CMSIS/include/core_cmInstr.h **** __attribute__( ( always_inline ) ) __STATIC_INLINE void __SEV(void)
 319:../../../platform/thirdparty/CMSIS/include/core_cmInstr.h **** {
 320:../../../platform/thirdparty/CMSIS/include/core_cmInstr.h ****   __ASM volatile ("sev");
 321:../../../platform/thirdparty/CMSIS/include/core_cmInstr.h **** }
 322:../../../platform/thirdparty/CMSIS/include/core_cmInstr.h **** 
 323:../../../platform/thirdparty/CMSIS/include/core_cmInstr.h **** 
 324:../../../platform/thirdparty/CMSIS/include/core_cmInstr.h **** /** \brief  Instruction Synchronization Barrier
 325:../../../platform/thirdparty/CMSIS/include/core_cmInstr.h **** 
 326:../../../platform/thirdparty/CMSIS/include/core_cmInstr.h ****     Instruction Synchronization Barrier flushes the pipeline in the processor,
 327:../../../platform/thirdparty/CMSIS/include/core_cmInstr.h ****     so that all instructions following the ISB are fetched from cache or
 328:../../../platform/thirdparty/CMSIS/include/core_cmInstr.h ****     memory, after the instruction has been completed.
 329:../../../platform/thirdparty/CMSIS/include/core_cmInstr.h ****  */
 330:../../../platform/thirdparty/CMSIS/include/core_cmInstr.h **** __attribute__( ( always_inline ) ) __STATIC_INLINE void __ISB(void)
 331:../../../platform/thirdparty/CMSIS/include/core_cmInstr.h **** {
 332:../../../platform/thirdparty/CMSIS/include/core_cmInstr.h ****   __ASM volatile ("isb");
 333:../../../platform/thirdparty/CMSIS/include/core_cmInstr.h **** }
 334:../../../platform/thirdparty/CMSIS/include/core_cmInstr.h **** 
 335:../../../platform/thirdparty/CMSIS/include/core_cmInstr.h **** 
 336:../../../platform/thirdparty/CMSIS/include/core_cmInstr.h **** /** \brief  Data Synchronization Barrier
 337:../../../platform/thirdparty/CMSIS/include/core_cmInstr.h **** 
 338:../../../platform/thirdparty/CMSIS/include/core_cmInstr.h ****     This function acts as a special kind of Data Memory Barrier.
 339:../../../platform/thirdparty/CMSIS/include/core_cmInstr.h ****     It completes when all explicit memory accesses before this instruction complete.
 340:../../../platform/thirdparty/CMSIS/include/core_cmInstr.h ****  */
 341:../../../platform/thirdparty/CMSIS/include/core_cmInstr.h **** __attribute__( ( always_inline ) ) __STATIC_INLINE void __DSB(void)
 342:../../../platform/thirdparty/CMSIS/include/core_cmInstr.h **** {
 343:../../../platform/thirdparty/CMSIS/include/core_cmInstr.h ****   __ASM volatile ("dsb");
 344:../../../platform/thirdparty/CMSIS/include/core_cmInstr.h **** }
 345:../../../platform/thirdparty/CMSIS/include/core_cmInstr.h **** 
 346:../../../platform/thirdparty/CMSIS/include/core_cmInstr.h **** 
 347:../../../platform/thirdparty/CMSIS/include/core_cmInstr.h **** /** \brief  Data Memory Barrier
 348:../../../platform/thirdparty/CMSIS/include/core_cmInstr.h **** 
 349:../../../platform/thirdparty/CMSIS/include/core_cmInstr.h ****     This function ensures the apparent order of the explicit memory operations before
 350:../../../platform/thirdparty/CMSIS/include/core_cmInstr.h ****     and after the instruction, without ensuring their completion.
 351:../../../platform/thirdparty/CMSIS/include/core_cmInstr.h ****  */
 352:../../../platform/thirdparty/CMSIS/include/core_cmInstr.h **** __attribute__( ( always_inline ) ) __STATIC_INLINE void __DMB(void)
 353:../../../platform/thirdparty/CMSIS/include/core_cmInstr.h **** {
 354:../../../platform/thirdparty/CMSIS/include/core_cmInstr.h ****   __ASM volatile ("dmb");
  87              	 .loc 3 354 0
  88              	 .syntax unified
  89              	
  90 001c BFF35F8F 	 dmb
  91              	
  92              	 .thumb
  93              	 .syntax unified
  94              	.LBE19:
  95              	.LBE18:
 147:../../../platform/common/utils/interrupt/interrupt_sam_nvic.h **** 	cpu_irq_disable();
  96              	 .loc 1 147 0
  97 0020 044B     	 ldr r3,.L4
  98 0022 0022     	 movs r2,#0
  99 0024 1A70     	 strb r2,[r3]
 148:../../../platform/common/utils/interrupt/interrupt_sam_nvic.h **** 	return flags;
 100              	 .loc 1 148 0
 101 0026 7B68     	 ldr r3,[r7,#4]
 149:../../../platform/common/utils/interrupt/interrupt_sam_nvic.h **** }
 102              	 .loc 1 149 0
 103 0028 1846     	 mov r0,r3
 104 002a 0C37     	 adds r7,r7,#12
 105              	.LCFI3:
 106              	 .cfi_def_cfa_offset 4
 107 002c BD46     	 mov sp,r7
 108              	.LCFI4:
 109              	 .cfi_def_cfa_register 13
 110              	 
 111 002e 80BC     	 pop {r7}
 112              	.LCFI5:
 113              	 .cfi_restore 7
 114              	 .cfi_def_cfa_offset 0
 115 0030 7047     	 bx lr
 116              	.L5:
 117 0032 00BF     	 .align 2
 118              	.L4:
 119 0034 00000000 	 .word g_interrupt_enabled
 120              	 .cfi_endproc
 121              	.LFE112:
 123              	 .align 1
 124              	 .syntax unified
 125              	 .thumb
 126              	 .thumb_func
 127              	 .fpu softvfp
 129              	cpu_irq_is_enabled_flags:
 130              	.LFB113:
 150:../../../platform/common/utils/interrupt/interrupt_sam_nvic.h **** 
 151:../../../platform/common/utils/interrupt/interrupt_sam_nvic.h **** static inline bool cpu_irq_is_enabled_flags(irqflags_t flags)
 152:../../../platform/common/utils/interrupt/interrupt_sam_nvic.h **** {
 131              	 .loc 1 152 0
 132              	 .cfi_startproc
 133              	 
 134              	 
 135              	 
 136 0038 80B4     	 push {r7}
 137              	.LCFI6:
 138              	 .cfi_def_cfa_offset 4
 139              	 .cfi_offset 7,-4
 140 003a 83B0     	 sub sp,sp,#12
 141              	.LCFI7:
 142              	 .cfi_def_cfa_offset 16
 143 003c 00AF     	 add r7,sp,#0
 144              	.LCFI8:
 145              	 .cfi_def_cfa_register 7
 146 003e 7860     	 str r0,[r7,#4]
 153:../../../platform/common/utils/interrupt/interrupt_sam_nvic.h **** 	return (flags);
 147              	 .loc 1 153 0
 148 0040 7B68     	 ldr r3,[r7,#4]
 149 0042 002B     	 cmp r3,#0
 150 0044 14BF     	 ite ne
 151 0046 0123     	 movne r3,#1
 152 0048 0023     	 moveq r3,#0
 153 004a DBB2     	 uxtb r3,r3
 154:../../../platform/common/utils/interrupt/interrupt_sam_nvic.h **** }
 154              	 .loc 1 154 0
 155 004c 1846     	 mov r0,r3
 156 004e 0C37     	 adds r7,r7,#12
 157              	.LCFI9:
 158              	 .cfi_def_cfa_offset 4
 159 0050 BD46     	 mov sp,r7
 160              	.LCFI10:
 161              	 .cfi_def_cfa_register 13
 162              	 
 163 0052 80BC     	 pop {r7}
 164              	.LCFI11:
 165              	 .cfi_restore 7
 166              	 .cfi_def_cfa_offset 0
 167 0054 7047     	 bx lr
 168              	 .cfi_endproc
 169              	.LFE113:
 171              	 .align 1
 172              	 .syntax unified
 173              	 .thumb
 174              	 .thumb_func
 175              	 .fpu softvfp
 177              	cpu_irq_restore:
 178              	.LFB114:
 155:../../../platform/common/utils/interrupt/interrupt_sam_nvic.h **** 
 156:../../../platform/common/utils/interrupt/interrupt_sam_nvic.h **** static inline void cpu_irq_restore(irqflags_t flags)
 157:../../../platform/common/utils/interrupt/interrupt_sam_nvic.h **** {
 179              	 .loc 1 157 0
 180              	 .cfi_startproc
 181              	 
 182              	 
 183 0056 80B5     	 push {r7,lr}
 184              	.LCFI12:
 185              	 .cfi_def_cfa_offset 8
 186              	 .cfi_offset 7,-8
 187              	 .cfi_offset 14,-4
 188 0058 82B0     	 sub sp,sp,#8
 189              	.LCFI13:
 190              	 .cfi_def_cfa_offset 16
 191 005a 00AF     	 add r7,sp,#0
 192              	.LCFI14:
 193              	 .cfi_def_cfa_register 7
 194 005c 7860     	 str r0,[r7,#4]
 158:../../../platform/common/utils/interrupt/interrupt_sam_nvic.h **** 	if (cpu_irq_is_enabled_flags(flags))
 195              	 .loc 1 158 0
 196 005e 7868     	 ldr r0,[r7,#4]
 197 0060 FFF7EAFF 	 bl cpu_irq_is_enabled_flags
 198 0064 0346     	 mov r3,r0
 199 0066 002B     	 cmp r3,#0
 200 0068 05D0     	 beq .L10
 159:../../../platform/common/utils/interrupt/interrupt_sam_nvic.h **** 		cpu_irq_enable();
 201              	 .loc 1 159 0
 202 006a 054B     	 ldr r3,.L11
 203 006c 0122     	 movs r2,#1
 204 006e 1A70     	 strb r2,[r3]
 205              	.LBB20:
 206              	.LBB21:
 207              	 .loc 3 354 0
 208              	 .syntax unified
 209              	
 210 0070 BFF35F8F 	 dmb
 211              	
 212              	 .thumb
 213              	 .syntax unified
 214              	.LBE21:
 215              	.LBE20:
 216              	.LBB22:
 217              	.LBB23:
 316:../../../platform/thirdparty/CMSIS/include/core_cmFunc.h **** }
 218              	 .loc 2 316 0
 219              	 .syntax unified
 220              	
 221 0074 62B6     	 cpsie i
 222              	
 223              	 .thumb
 224              	 .syntax unified
 225              	.L10:
 226              	.LBE23:
 227              	.LBE22:
 160:../../../platform/common/utils/interrupt/interrupt_sam_nvic.h **** }
 228              	 .loc 1 160 0
 229 0076 00BF     	 nop
 230 0078 0837     	 adds r7,r7,#8
 231              	.LCFI15:
 232              	 .cfi_def_cfa_offset 8
 233 007a BD46     	 mov sp,r7
 234              	.LCFI16:
 235              	 .cfi_def_cfa_register 13
 236              	 
 237 007c 80BD     	 pop {r7,pc}
 238              	.L12:
 239 007e 00BF     	 .align 2
 240              	.L11:
 241 0080 00000000 	 .word g_interrupt_enabled
 242              	 .cfi_endproc
 243              	.LFE114:
 245              	 .align 1
 246              	 .syntax unified
 247              	 .thumb
 248              	 .thumb_func
 249              	 .fpu softvfp
 251              	osc_enable:
 252              	.LFB126:
 253              	 .file 4 "../../../platform/common/services/clock/sam4l/osc.h"
   1:../../../platform/common/services/clock/sam4l/osc.h **** /**
   2:../../../platform/common/services/clock/sam4l/osc.h ****  * \file
   3:../../../platform/common/services/clock/sam4l/osc.h ****  *
   4:../../../platform/common/services/clock/sam4l/osc.h ****  * \brief Chip-specific oscillator management functions
   5:../../../platform/common/services/clock/sam4l/osc.h ****  *
   6:../../../platform/common/services/clock/sam4l/osc.h ****  * Copyright (c) 2012 Atmel Corporation. All rights reserved.
   7:../../../platform/common/services/clock/sam4l/osc.h ****  *
   8:../../../platform/common/services/clock/sam4l/osc.h ****  * \asf_license_start
   9:../../../platform/common/services/clock/sam4l/osc.h ****  *
  10:../../../platform/common/services/clock/sam4l/osc.h ****  * \page License
  11:../../../platform/common/services/clock/sam4l/osc.h ****  *
  12:../../../platform/common/services/clock/sam4l/osc.h ****  * Redistribution and use in source and binary forms, with or without
  13:../../../platform/common/services/clock/sam4l/osc.h ****  * modification, are permitted provided that the following conditions are met:
  14:../../../platform/common/services/clock/sam4l/osc.h ****  *
  15:../../../platform/common/services/clock/sam4l/osc.h ****  * 1. Redistributions of source code must retain the above copyright notice,
  16:../../../platform/common/services/clock/sam4l/osc.h ****  *    this list of conditions and the following disclaimer.
  17:../../../platform/common/services/clock/sam4l/osc.h ****  *
  18:../../../platform/common/services/clock/sam4l/osc.h ****  * 2. Redistributions in binary form must reproduce the above copyright notice,
  19:../../../platform/common/services/clock/sam4l/osc.h ****  *    this list of conditions and the following disclaimer in the documentation
  20:../../../platform/common/services/clock/sam4l/osc.h ****  *    and/or other materials provided with the distribution.
  21:../../../platform/common/services/clock/sam4l/osc.h ****  *
  22:../../../platform/common/services/clock/sam4l/osc.h ****  * 3. The name of Atmel may not be used to endorse or promote products derived
  23:../../../platform/common/services/clock/sam4l/osc.h ****  *    from this software without specific prior written permission.
  24:../../../platform/common/services/clock/sam4l/osc.h ****  *
  25:../../../platform/common/services/clock/sam4l/osc.h ****  * 4. This software may only be redistributed and used in connection with an
  26:../../../platform/common/services/clock/sam4l/osc.h ****  *    Atmel microcontroller product.
  27:../../../platform/common/services/clock/sam4l/osc.h ****  *
  28:../../../platform/common/services/clock/sam4l/osc.h ****  * THIS SOFTWARE IS PROVIDED BY ATMEL "AS IS" AND ANY EXPRESS OR IMPLIED
  29:../../../platform/common/services/clock/sam4l/osc.h ****  * WARRANTIES, INCLUDING, BUT NOT LIMITED TO, THE IMPLIED WARRANTIES OF
  30:../../../platform/common/services/clock/sam4l/osc.h ****  * MERCHANTABILITY, FITNESS FOR A PARTICULAR PURPOSE AND NON-INFRINGEMENT ARE
  31:../../../platform/common/services/clock/sam4l/osc.h ****  * EXPRESSLY AND SPECIFICALLY DISCLAIMED. IN NO EVENT SHALL ATMEL BE LIABLE FOR
  32:../../../platform/common/services/clock/sam4l/osc.h ****  * ANY DIRECT, INDIRECT, INCIDENTAL, SPECIAL, EXEMPLARY, OR CONSEQUENTIAL
  33:../../../platform/common/services/clock/sam4l/osc.h ****  * DAMAGES (INCLUDING, BUT NOT LIMITED TO, PROCUREMENT OF SUBSTITUTE GOODS
  34:../../../platform/common/services/clock/sam4l/osc.h ****  * OR SERVICES; LOSS OF USE, DATA, OR PROFITS; OR BUSINESS INTERRUPTION)
  35:../../../platform/common/services/clock/sam4l/osc.h ****  * HOWEVER CAUSED AND ON ANY THEORY OF LIABILITY, WHETHER IN CONTRACT,
  36:../../../platform/common/services/clock/sam4l/osc.h ****  * STRICT LIABILITY, OR TORT (INCLUDING NEGLIGENCE OR OTHERWISE) ARISING IN
  37:../../../platform/common/services/clock/sam4l/osc.h ****  * ANY WAY OUT OF THE USE OF THIS SOFTWARE, EVEN IF ADVISED OF THE
  38:../../../platform/common/services/clock/sam4l/osc.h ****  * POSSIBILITY OF SUCH DAMAGE.
  39:../../../platform/common/services/clock/sam4l/osc.h ****  *
  40:../../../platform/common/services/clock/sam4l/osc.h ****  * \asf_license_stop
  41:../../../platform/common/services/clock/sam4l/osc.h ****  *
  42:../../../platform/common/services/clock/sam4l/osc.h ****  */
  43:../../../platform/common/services/clock/sam4l/osc.h **** #ifndef CHIP_OSC_H_INCLUDED
  44:../../../platform/common/services/clock/sam4l/osc.h **** #define CHIP_OSC_H_INCLUDED
  45:../../../platform/common/services/clock/sam4l/osc.h **** 
  46:../../../platform/common/services/clock/sam4l/osc.h **** #include <board.h>
  47:../../../platform/common/services/clock/sam4l/osc.h **** 
  48:../../../platform/common/services/clock/sam4l/osc.h **** #ifdef __cplusplus
  49:../../../platform/common/services/clock/sam4l/osc.h **** extern "C" {
  50:../../../platform/common/services/clock/sam4l/osc.h **** #endif
  51:../../../platform/common/services/clock/sam4l/osc.h **** 
  52:../../../platform/common/services/clock/sam4l/osc.h **** 
  53:../../../platform/common/services/clock/sam4l/osc.h **** /**
  54:../../../platform/common/services/clock/sam4l/osc.h ****  * \weakgroup osc_group
  55:../../../platform/common/services/clock/sam4l/osc.h ****  * @{
  56:../../../platform/common/services/clock/sam4l/osc.h ****  */
  57:../../../platform/common/services/clock/sam4l/osc.h **** 
  58:../../../platform/common/services/clock/sam4l/osc.h **** //! \name Oscillator identifiers
  59:../../../platform/common/services/clock/sam4l/osc.h **** //@{
  60:../../../platform/common/services/clock/sam4l/osc.h **** #define OSC_ID_OSC0             0       //!< External Oscillator 0
  61:../../../platform/common/services/clock/sam4l/osc.h **** #define OSC_ID_OSC32            1       //!< External 32 kHz oscillator
  62:../../../platform/common/services/clock/sam4l/osc.h **** #define OSC_ID_RC32K            2       //!< Internal 32 kHz RC oscillator
  63:../../../platform/common/services/clock/sam4l/osc.h **** #define OSC_ID_RC80M            3       //!< Internal 80 MHz RC oscillator
  64:../../../platform/common/services/clock/sam4l/osc.h **** #define OSC_ID_RCFAST           4       //!< Internal 4-8-12 MHz RCFAST oscillator
  65:../../../platform/common/services/clock/sam4l/osc.h **** #define OSC_ID_RC1M             5       //!< Internal 1 MHz RC oscillator
  66:../../../platform/common/services/clock/sam4l/osc.h **** #define OSC_ID_RCSYS            6       //!< Internal System RC oscillator
  67:../../../platform/common/services/clock/sam4l/osc.h **** //@}
  68:../../../platform/common/services/clock/sam4l/osc.h **** 
  69:../../../platform/common/services/clock/sam4l/osc.h **** //! \name OSC0 mode values
  70:../../../platform/common/services/clock/sam4l/osc.h **** //@{
  71:../../../platform/common/services/clock/sam4l/osc.h **** //! External clock connected to XIN
  72:../../../platform/common/services/clock/sam4l/osc.h **** #define OSC_MODE_EXTERNAL       0
  73:../../../platform/common/services/clock/sam4l/osc.h **** //! Crystal connected to XIN/XOUT
  74:../../../platform/common/services/clock/sam4l/osc.h **** #define OSC_MODE_XTAL           SCIF_OSCCTRL0_MODE
  75:../../../platform/common/services/clock/sam4l/osc.h **** //@}
  76:../../../platform/common/services/clock/sam4l/osc.h **** 
  77:../../../platform/common/services/clock/sam4l/osc.h **** //! \name OSC32 mode values
  78:../../../platform/common/services/clock/sam4l/osc.h **** //@{
  79:../../../platform/common/services/clock/sam4l/osc.h **** //! External clock connected to XIN32
  80:../../../platform/common/services/clock/sam4l/osc.h **** #define OSC32_MODE_EXTERNAL     BSCIF_OSCCTRL32_MODE(0)
  81:../../../platform/common/services/clock/sam4l/osc.h **** //! Crystal connected to XIN32/XOUT32
  82:../../../platform/common/services/clock/sam4l/osc.h **** #define OSC32_MODE_XTAL         BSCIF_OSCCTRL32_MODE(1)
  83:../../../platform/common/services/clock/sam4l/osc.h **** //! Crystal connected to XIN32/XOUT32 in high current mode
  84:../../../platform/common/services/clock/sam4l/osc.h **** #define OSC32_MODE_XTAL_HC      BSCIF_OSCCTRL32_MODE(4)
  85:../../../platform/common/services/clock/sam4l/osc.h **** //@}
  86:../../../platform/common/services/clock/sam4l/osc.h **** 
  87:../../../platform/common/services/clock/sam4l/osc.h **** //! \name OSC0 startup values
  88:../../../platform/common/services/clock/sam4l/osc.h **** //@{
  89:../../../platform/common/services/clock/sam4l/osc.h **** //! 0 cycles
  90:../../../platform/common/services/clock/sam4l/osc.h **** #define OSC_STARTUP_0           SCIF_OSCCTRL0_STARTUP(0)
  91:../../../platform/common/services/clock/sam4l/osc.h **** //! 64 cycles (560 us)
  92:../../../platform/common/services/clock/sam4l/osc.h **** #define OSC_STARTUP_64          SCIF_OSCCTRL0_STARTUP(1)
  93:../../../platform/common/services/clock/sam4l/osc.h **** //! 128 cycles (1.1 ms)
  94:../../../platform/common/services/clock/sam4l/osc.h **** #define OSC_STARTUP_128         SCIF_OSCCTRL0_STARTUP(2)
  95:../../../platform/common/services/clock/sam4l/osc.h **** //! 2048 cycles (18 ms)
  96:../../../platform/common/services/clock/sam4l/osc.h **** #define OSC_STARTUP_2048        SCIF_OSCCTRL0_STARTUP(3)
  97:../../../platform/common/services/clock/sam4l/osc.h **** //! 4096 cycles (36 ms)
  98:../../../platform/common/services/clock/sam4l/osc.h **** #define OSC_STARTUP_4096        SCIF_OSCCTRL0_STARTUP(4)
  99:../../../platform/common/services/clock/sam4l/osc.h **** //! 8192 cycles (71 ms)
 100:../../../platform/common/services/clock/sam4l/osc.h **** #define OSC_STARTUP_8192        SCIF_OSCCTRL0_STARTUP(5)
 101:../../../platform/common/services/clock/sam4l/osc.h **** //! 16384 cycles (143 ms)
 102:../../../platform/common/services/clock/sam4l/osc.h **** #define OSC_STARTUP_16384       SCIF_OSCCTRL0_STARTUP(6)
 103:../../../platform/common/services/clock/sam4l/osc.h **** //! 32768 cycles (285 ms)
 104:../../../platform/common/services/clock/sam4l/osc.h **** #define OSC_STARTUP_32768       SCIF_OSCCTRL0_STARTUP(7)
 105:../../../platform/common/services/clock/sam4l/osc.h **** //@}
 106:../../../platform/common/services/clock/sam4l/osc.h **** 
 107:../../../platform/common/services/clock/sam4l/osc.h **** //! \name OSC32 startup values
 108:../../../platform/common/services/clock/sam4l/osc.h **** //@{
 109:../../../platform/common/services/clock/sam4l/osc.h **** //! 0 cycles
 110:../../../platform/common/services/clock/sam4l/osc.h **** #define OSC32_STARTUP_0         BSCIF_OSCCTRL32_STARTUP(0)
 111:../../../platform/common/services/clock/sam4l/osc.h **** //! 128 cycles (1.1 ms)
 112:../../../platform/common/services/clock/sam4l/osc.h **** #define OSC32_STARTUP_128       BSCIF_OSCCTRL32_STARTUP(1)
 113:../../../platform/common/services/clock/sam4l/osc.h **** //! 8192 cycles (72.3 ms)
 114:../../../platform/common/services/clock/sam4l/osc.h **** #define OSC32_STARTUP_8192      BSCIF_OSCCTRL32_STARTUP(2)
 115:../../../platform/common/services/clock/sam4l/osc.h **** //! 16384 cycles (143 ms)
 116:../../../platform/common/services/clock/sam4l/osc.h **** #define OSC32_STARTUP_16384     BSCIF_OSCCTRL32_STARTUP(3)
 117:../../../platform/common/services/clock/sam4l/osc.h **** //! 65536 cycles (570 ms)
 118:../../../platform/common/services/clock/sam4l/osc.h **** #define OSC32_STARTUP_65536     BSCIF_OSCCTRL32_STARTUP(4)
 119:../../../platform/common/services/clock/sam4l/osc.h **** //! 131072 cycles (1.1 s)
 120:../../../platform/common/services/clock/sam4l/osc.h **** #define OSC32_STARTUP_131072    BSCIF_OSCCTRL32_STARTUP(5)
 121:../../../platform/common/services/clock/sam4l/osc.h **** //! 262144 cycles (2.3 s)
 122:../../../platform/common/services/clock/sam4l/osc.h **** #define OSC32_STARTUP_262144    BSCIF_OSCCTRL32_STARTUP(6)
 123:../../../platform/common/services/clock/sam4l/osc.h **** //! 524288 cycles (4.6 s)
 124:../../../platform/common/services/clock/sam4l/osc.h **** #define OSC32_STARTUP_524288    BSCIF_OSCCTRL32_STARTUP(7)
 125:../../../platform/common/services/clock/sam4l/osc.h **** //@}
 126:../../../platform/common/services/clock/sam4l/osc.h **** 
 127:../../../platform/common/services/clock/sam4l/osc.h **** /**
 128:../../../platform/common/services/clock/sam4l/osc.h ****  * \def OSC0_STARTUP_TIMEOUT
 129:../../../platform/common/services/clock/sam4l/osc.h ****  * \brief Number of slow clock cycles to wait for OSC0 to start
 130:../../../platform/common/services/clock/sam4l/osc.h ****  *
 131:../../../platform/common/services/clock/sam4l/osc.h ****  * This is the number of slow clock cycles corresponding to
 132:../../../platform/common/services/clock/sam4l/osc.h ****  * OSC0_STARTUP_VALUE with an additional 25% safety margin. If the
 133:../../../platform/common/services/clock/sam4l/osc.h ****  * oscillator isn't running when this timeout has expired, it is assumed
 134:../../../platform/common/services/clock/sam4l/osc.h ****  * to have failed to start.
 135:../../../platform/common/services/clock/sam4l/osc.h ****  */
 136:../../../platform/common/services/clock/sam4l/osc.h **** /**
 137:../../../platform/common/services/clock/sam4l/osc.h ****  * \def OSC0_MODE_VALUE
 138:../../../platform/common/services/clock/sam4l/osc.h ****  * \brief Board-dependent value written to the MODE bitfield of
 139:../../../platform/common/services/clock/sam4l/osc.h ****  * PM_OSCCTRL(0)
 140:../../../platform/common/services/clock/sam4l/osc.h ****  */
 141:../../../platform/common/services/clock/sam4l/osc.h **** /**
 142:../../../platform/common/services/clock/sam4l/osc.h ****  * \def OSC0_STARTUP_VALUE
 143:../../../platform/common/services/clock/sam4l/osc.h ****  * \brief Board-dependent value written to the STARTUP bitfield of
 144:../../../platform/common/services/clock/sam4l/osc.h ****  * PM_OSCCTRL(0)
 145:../../../platform/common/services/clock/sam4l/osc.h ****  */
 146:../../../platform/common/services/clock/sam4l/osc.h **** #if defined(BOARD_OSC0_STARTUP_US)
 147:../../../platform/common/services/clock/sam4l/osc.h **** #   if BOARD_OSC0_STARTUP_US == 0
 148:../../../platform/common/services/clock/sam4l/osc.h **** #      define OSC0_STARTUP_VALUE    OSC_STARTUP_0
 149:../../../platform/common/services/clock/sam4l/osc.h **** #      define OSC0_STARTUP_TIMEOUT  8
 150:../../../platform/common/services/clock/sam4l/osc.h **** #   elif BOARD_OSC0_STARTUP_US <= 557
 151:../../../platform/common/services/clock/sam4l/osc.h **** #      define OSC0_STARTUP_VALUE    OSC_STARTUP_64
 152:../../../platform/common/services/clock/sam4l/osc.h **** #      define OSC0_STARTUP_TIMEOUT  80
 153:../../../platform/common/services/clock/sam4l/osc.h **** #   elif BOARD_OSC0_STARTUP_US <= 1100
 154:../../../platform/common/services/clock/sam4l/osc.h **** #      define OSC0_STARTUP_VALUE    OSC_STARTUP_128
 155:../../../platform/common/services/clock/sam4l/osc.h **** #      define OSC0_STARTUP_TIMEOUT  160
 156:../../../platform/common/services/clock/sam4l/osc.h **** #   elif BOARD_OSC0_STARTUP_US <= 18000
 157:../../../platform/common/services/clock/sam4l/osc.h **** #      define OSC0_STARTUP_VALUE    OSC_STARTUP_2048
 158:../../../platform/common/services/clock/sam4l/osc.h **** #      define OSC0_STARTUP_TIMEOUT  2560
 159:../../../platform/common/services/clock/sam4l/osc.h **** #   elif BOARD_OSC0_STARTUP_US <= 36000
 160:../../../platform/common/services/clock/sam4l/osc.h **** #      define OSC0_STARTUP_VALUE    OSC_STARTUP_4096
 161:../../../platform/common/services/clock/sam4l/osc.h **** #      define OSC0_STARTUP_TIMEOUT  5120
 162:../../../platform/common/services/clock/sam4l/osc.h **** #   elif BOARD_OSC0_STARTUP_US <= 71000
 163:../../../platform/common/services/clock/sam4l/osc.h **** #      define OSC0_STARTUP_VALUE    OSC_STARTUP_8192
 164:../../../platform/common/services/clock/sam4l/osc.h **** #      define OSC0_STARTUP_TIMEOUT  10240
 165:../../../platform/common/services/clock/sam4l/osc.h **** #   elif BOARD_OSC0_STARTUP_US <= 143000
 166:../../../platform/common/services/clock/sam4l/osc.h **** #      define OSC0_STARTUP_VALUE    OSC_STARTUP_16384
 167:../../../platform/common/services/clock/sam4l/osc.h **** #      define OSC0_STARTUP_TIMEOUT  20480
 168:../../../platform/common/services/clock/sam4l/osc.h **** #   elif BOARD_OSC0_STARTUP_US <= 285000
 169:../../../platform/common/services/clock/sam4l/osc.h **** #      define OSC0_STARTUP_VALUE    OSC_STARTUP_32768
 170:../../../platform/common/services/clock/sam4l/osc.h **** #      define OSC0_STARTUP_TIMEOUT  40960
 171:../../../platform/common/services/clock/sam4l/osc.h **** #   else
 172:../../../platform/common/services/clock/sam4l/osc.h **** #      error BOARD_OSC0_STARTUP_US is too high
 173:../../../platform/common/services/clock/sam4l/osc.h **** #   endif
 174:../../../platform/common/services/clock/sam4l/osc.h **** #   if BOARD_OSC0_IS_XTAL == true
 175:../../../platform/common/services/clock/sam4l/osc.h **** #      define OSC0_MODE_VALUE       OSC_MODE_XTAL
 176:../../../platform/common/services/clock/sam4l/osc.h **** #      if BOARD_OSC0_HZ < 2000000
 177:../../../platform/common/services/clock/sam4l/osc.h **** #         define OSC0_GAIN_VALUE      SCIF_OSCCTRL0_GAIN(0)
 178:../../../platform/common/services/clock/sam4l/osc.h **** #      elif BOARD_OSC0_HZ < 4000000
 179:../../../platform/common/services/clock/sam4l/osc.h **** #         define OSC0_GAIN_VALUE      SCIF_OSCCTRL0_GAIN(1)
 180:../../../platform/common/services/clock/sam4l/osc.h **** #      elif BOARD_OSC0_HZ < 8000000
 181:../../../platform/common/services/clock/sam4l/osc.h **** #         define OSC0_GAIN_VALUE      SCIF_OSCCTRL0_GAIN(2)
 182:../../../platform/common/services/clock/sam4l/osc.h **** #      elif BOARD_OSC0_HZ < 16000000
 183:../../../platform/common/services/clock/sam4l/osc.h **** #         define OSC0_GAIN_VALUE      SCIF_OSCCTRL0_GAIN(3)
 184:../../../platform/common/services/clock/sam4l/osc.h **** #      else
 185:../../../platform/common/services/clock/sam4l/osc.h **** #         define OSC0_GAIN_VALUE      ((0x1u << 4) | SCIF_OSCCTRL0_GAIN(0))
 186:../../../platform/common/services/clock/sam4l/osc.h **** #      endif
 187:../../../platform/common/services/clock/sam4l/osc.h **** #   else
 188:../../../platform/common/services/clock/sam4l/osc.h **** #      define OSC0_MODE_VALUE       OSC_MODE_EXTERNAL
 189:../../../platform/common/services/clock/sam4l/osc.h **** #   endif
 190:../../../platform/common/services/clock/sam4l/osc.h **** #else
 191:../../../platform/common/services/clock/sam4l/osc.h **** #   if defined(BOARD_OSC0_HZ)
 192:../../../platform/common/services/clock/sam4l/osc.h **** #      error BOARD_OSC0_STARTUP_US must be defined by the board code
 193:../../../platform/common/services/clock/sam4l/osc.h **** #   endif
 194:../../../platform/common/services/clock/sam4l/osc.h **** #   ifdef __DOXYGEN__
 195:../../../platform/common/services/clock/sam4l/osc.h **** #      define OSC0_STARTUP_VALUE     UNDEFINED
 196:../../../platform/common/services/clock/sam4l/osc.h **** #      define OSC0_STARTUP_TIMEOUT   UNDEFINED
 197:../../../platform/common/services/clock/sam4l/osc.h **** #      define OSC0_MODE_VALUE        UNDEFINED
 198:../../../platform/common/services/clock/sam4l/osc.h **** #   endif
 199:../../../platform/common/services/clock/sam4l/osc.h **** #endif
 200:../../../platform/common/services/clock/sam4l/osc.h **** 
 201:../../../platform/common/services/clock/sam4l/osc.h **** #if defined(BOARD_OSC32_STARTUP_US)
 202:../../../platform/common/services/clock/sam4l/osc.h **** #   if BOARD_OSC32_STARTUP_US == 0
 203:../../../platform/common/services/clock/sam4l/osc.h **** #      define OSC32_STARTUP_VALUE    OSC32_STARTUP_0
 204:../../../platform/common/services/clock/sam4l/osc.h **** #   elif BOARD_OSC32_STARTUP_US   <= 1100
 205:../../../platform/common/services/clock/sam4l/osc.h **** #      define OSC32_STARTUP_VALUE    OSC32_STARTUP_128
 206:../../../platform/common/services/clock/sam4l/osc.h **** #   elif BOARD_OSC32_STARTUP_US   <= 72300
 207:../../../platform/common/services/clock/sam4l/osc.h **** #      define OSC32_STARTUP_VALUE    OSC32_STARTUP_8192
 208:../../../platform/common/services/clock/sam4l/osc.h **** #   elif BOARD_OSC32_STARTUP_US   <= 143000
 209:../../../platform/common/services/clock/sam4l/osc.h **** #      define OSC32_STARTUP_VALUE    OSC32_STARTUP_16384
 210:../../../platform/common/services/clock/sam4l/osc.h **** #   elif BOARD_OSC32_STARTUP_US   <= 570000
 211:../../../platform/common/services/clock/sam4l/osc.h **** #      define OSC32_STARTUP_VALUE    OSC32_STARTUP_65536
 212:../../../platform/common/services/clock/sam4l/osc.h **** #   elif BOARD_OSC32_STARTUP_US   <= 1100000
 213:../../../platform/common/services/clock/sam4l/osc.h **** #      define OSC32_STARTUP_VALUE    OSC32_STARTUP_131072
 214:../../../platform/common/services/clock/sam4l/osc.h **** #   elif BOARD_OSC32_STARTUP_US   <= 2300000
 215:../../../platform/common/services/clock/sam4l/osc.h **** #      define OSC32_STARTUP_VALUE    OSC32_STARTUP_262144
 216:../../../platform/common/services/clock/sam4l/osc.h **** #   elif BOARD_OSC32_STARTUP_US   <= 4600000
 217:../../../platform/common/services/clock/sam4l/osc.h **** #      define OSC32_STARTUP_VALUE    OSC32_STARTUP_524288
 218:../../../platform/common/services/clock/sam4l/osc.h **** #   else
 219:../../../platform/common/services/clock/sam4l/osc.h **** #      error BOARD_OSC32_STARTUP_US is too high
 220:../../../platform/common/services/clock/sam4l/osc.h **** #   endif
 221:../../../platform/common/services/clock/sam4l/osc.h **** #   if BOARD_OSC32_IS_XTAL == true
 222:../../../platform/common/services/clock/sam4l/osc.h **** #      define OSC32_MODE_VALUE       OSC32_MODE_XTAL
 223:../../../platform/common/services/clock/sam4l/osc.h **** #   else
 224:../../../platform/common/services/clock/sam4l/osc.h **** #      define OSC32_MODE_VALUE       OSC32_MODE_EXTERNAL
 225:../../../platform/common/services/clock/sam4l/osc.h **** #   endif
 226:../../../platform/common/services/clock/sam4l/osc.h **** #else
 227:../../../platform/common/services/clock/sam4l/osc.h **** #   if defined(BOARD_OSC32_HZ)
 228:../../../platform/common/services/clock/sam4l/osc.h **** #      error BOARD_OSC32_STARTUP_US must be defined by the board code
 229:../../../platform/common/services/clock/sam4l/osc.h **** #   endif
 230:../../../platform/common/services/clock/sam4l/osc.h **** #   ifdef __DOXYGEN__
 231:../../../platform/common/services/clock/sam4l/osc.h **** #      define OSC32_STARTUP_VALUE     UNDEFINED
 232:../../../platform/common/services/clock/sam4l/osc.h **** #      define OSC32_STARTUP_TIMEOUT   UNDEFINED
 233:../../../platform/common/services/clock/sam4l/osc.h **** #      define OSC32_MODE_VALUE        UNDEFINED
 234:../../../platform/common/services/clock/sam4l/osc.h **** #   endif
 235:../../../platform/common/services/clock/sam4l/osc.h **** #endif
 236:../../../platform/common/services/clock/sam4l/osc.h **** 
 237:../../../platform/common/services/clock/sam4l/osc.h **** // Use 4 MHz frequency range for RCFAST oscillator if config was empty.
 238:../../../platform/common/services/clock/sam4l/osc.h **** #ifndef CONFIG_RCFAST_FRANGE
 239:../../../platform/common/services/clock/sam4l/osc.h **** #define CONFIG_RCFAST_FRANGE    0
 240:../../../platform/common/services/clock/sam4l/osc.h **** #endif
 241:../../../platform/common/services/clock/sam4l/osc.h **** 
 242:../../../platform/common/services/clock/sam4l/osc.h **** /**
 243:../../../platform/common/services/clock/sam4l/osc.h ****  * \name Board-specific configuration parameters
 244:../../../platform/common/services/clock/sam4l/osc.h ****  * The following definitions must be provided by the board code for all
 245:../../../platform/common/services/clock/sam4l/osc.h ****  * working oscillators on the board.
 246:../../../platform/common/services/clock/sam4l/osc.h ****  */
 247:../../../platform/common/services/clock/sam4l/osc.h **** //@{
 248:../../../platform/common/services/clock/sam4l/osc.h **** /**
 249:../../../platform/common/services/clock/sam4l/osc.h ****  * \def BOARD_OSC0_HZ
 250:../../../platform/common/services/clock/sam4l/osc.h ****  * \brief Clock frequency of OSC0 in Hz
 251:../../../platform/common/services/clock/sam4l/osc.h ****  */
 252:../../../platform/common/services/clock/sam4l/osc.h **** /**
 253:../../../platform/common/services/clock/sam4l/osc.h ****  * \def BOARD_OSC0_STARTUP_US
 254:../../../platform/common/services/clock/sam4l/osc.h ****  * \brief Startup time of OSC0 in microseconds
 255:../../../platform/common/services/clock/sam4l/osc.h ****  */
 256:../../../platform/common/services/clock/sam4l/osc.h **** /**
 257:../../../platform/common/services/clock/sam4l/osc.h ****  * \def BOARD_OSC0_IS_XTAL
 258:../../../platform/common/services/clock/sam4l/osc.h ****  * \brief OSC0 uses a crystal, not an external clock
 259:../../../platform/common/services/clock/sam4l/osc.h ****  */
 260:../../../platform/common/services/clock/sam4l/osc.h **** /**
 261:../../../platform/common/services/clock/sam4l/osc.h ****  * \def BOARD_OSC32_HZ
 262:../../../platform/common/services/clock/sam4l/osc.h ****  * \brief Clock frequency of OSC32 in Hz
 263:../../../platform/common/services/clock/sam4l/osc.h ****  */
 264:../../../platform/common/services/clock/sam4l/osc.h **** /**
 265:../../../platform/common/services/clock/sam4l/osc.h ****  * \def BOARD_OSC32_STARTUP_US
 266:../../../platform/common/services/clock/sam4l/osc.h ****  * \brief Startup time of OSC32 in microseconds
 267:../../../platform/common/services/clock/sam4l/osc.h ****  */
 268:../../../platform/common/services/clock/sam4l/osc.h **** /**
 269:../../../platform/common/services/clock/sam4l/osc.h ****  * \def BOARD_OSC32_IS_XTAL
 270:../../../platform/common/services/clock/sam4l/osc.h ****  * \brief OSC32 uses a crystal, not an external clock
 271:../../../platform/common/services/clock/sam4l/osc.h ****  */
 272:../../../platform/common/services/clock/sam4l/osc.h **** /**
 273:../../../platform/common/services/clock/sam4l/osc.h ****  * \def BOARD_OSC32_SELCURR
 274:../../../platform/common/services/clock/sam4l/osc.h ****  * \brief Crystal current selection for OSC32
 275:../../../platform/common/services/clock/sam4l/osc.h ****  *
 276:../../../platform/common/services/clock/sam4l/osc.h ****  * If not defined, the recommended value (300nA) are used.
 277:../../../platform/common/services/clock/sam4l/osc.h ****  */
 278:../../../platform/common/services/clock/sam4l/osc.h **** #ifndef BOARD_OSC32_SELCURR
 279:../../../platform/common/services/clock/sam4l/osc.h **** #   define BOARD_OSC32_SELCURR     BSCIF_OSCCTRL32_SELCURR(10)
 280:../../../platform/common/services/clock/sam4l/osc.h **** #endif
 281:../../../platform/common/services/clock/sam4l/osc.h **** 
 282:../../../platform/common/services/clock/sam4l/osc.h **** /**
 283:../../../platform/common/services/clock/sam4l/osc.h ****  * \name RC oscillator frequency limits
 284:../../../platform/common/services/clock/sam4l/osc.h ****  * The frequency of the internal RC oscillators may drift a bit as a
 285:../../../platform/common/services/clock/sam4l/osc.h ****  * result of temperature changes. These definitions provide upper and
 286:../../../platform/common/services/clock/sam4l/osc.h ****  * lower limits which may be used to calculate upper and lower limits of
 287:../../../platform/common/services/clock/sam4l/osc.h ****  * timeouts, derived clock frequencies, etc.
 288:../../../platform/common/services/clock/sam4l/osc.h ****  */
 289:../../../platform/common/services/clock/sam4l/osc.h **** //@{
 290:../../../platform/common/services/clock/sam4l/osc.h **** //! Nominal frequency of RCSYS in Hz
 291:../../../platform/common/services/clock/sam4l/osc.h **** #define OSC_RCSYS_NOMINAL_HZ    115000
 292:../../../platform/common/services/clock/sam4l/osc.h **** //! Minimum frequency of RCSYS in Hz
 293:../../../platform/common/services/clock/sam4l/osc.h **** #define OSC_RCSYS_MIN_HZ        100000
 294:../../../platform/common/services/clock/sam4l/osc.h **** //! Maximum frequency of RCSYS in Hz
 295:../../../platform/common/services/clock/sam4l/osc.h **** #define OSC_RCSYS_MAX_HZ        120000
 296:../../../platform/common/services/clock/sam4l/osc.h **** 
 297:../../../platform/common/services/clock/sam4l/osc.h **** //! Nominal frequency of RC32K in Hz
 298:../../../platform/common/services/clock/sam4l/osc.h **** #define OSC_RC32K_NOMINAL_HZ    32768
 299:../../../platform/common/services/clock/sam4l/osc.h **** //! Minimum frequency of RC32K in Hz
 300:../../../platform/common/services/clock/sam4l/osc.h **** #define OSC_RC32K_MIN_HZ        20000
 301:../../../platform/common/services/clock/sam4l/osc.h **** //! Maximum frequency of RC32K in Hz
 302:../../../platform/common/services/clock/sam4l/osc.h **** #define OSC_RC32K_MAX_HZ        44000
 303:../../../platform/common/services/clock/sam4l/osc.h **** 
 304:../../../platform/common/services/clock/sam4l/osc.h **** //! Nominal frequency of RC80M in Hz
 305:../../../platform/common/services/clock/sam4l/osc.h **** #define OSC_RC80M_NOMINAL_HZ    80000000
 306:../../../platform/common/services/clock/sam4l/osc.h **** 
 307:../../../platform/common/services/clock/sam4l/osc.h **** //! Nominal frequency of RCFAST4M in Hz
 308:../../../platform/common/services/clock/sam4l/osc.h **** #define OSC_RCFAST4M_NOMINAL_HZ 4000000
 309:../../../platform/common/services/clock/sam4l/osc.h **** 
 310:../../../platform/common/services/clock/sam4l/osc.h **** //! Nominal frequency of RCFAST8M in Hz
 311:../../../platform/common/services/clock/sam4l/osc.h **** #define OSC_RCFAST8M_NOMINAL_HZ 8000000
 312:../../../platform/common/services/clock/sam4l/osc.h **** 
 313:../../../platform/common/services/clock/sam4l/osc.h **** //! Nominal frequency of RCFAST12M in Hz
 314:../../../platform/common/services/clock/sam4l/osc.h **** #define OSC_RCFAST12M_NOMINAL_HZ 12000000
 315:../../../platform/common/services/clock/sam4l/osc.h **** 
 316:../../../platform/common/services/clock/sam4l/osc.h **** //! Nominal frequency of RC1M in Hz
 317:../../../platform/common/services/clock/sam4l/osc.h **** #define OSC_RC1M_NOMINAL_HZ     1000000
 318:../../../platform/common/services/clock/sam4l/osc.h **** //@}
 319:../../../platform/common/services/clock/sam4l/osc.h **** 
 320:../../../platform/common/services/clock/sam4l/osc.h **** #ifndef __ASSEMBLY__
 321:../../../platform/common/services/clock/sam4l/osc.h **** 
 322:../../../platform/common/services/clock/sam4l/osc.h **** #include <compiler.h>
 323:../../../platform/common/services/clock/sam4l/osc.h **** 
 324:../../../platform/common/services/clock/sam4l/osc.h **** extern void osc_priv_enable_osc0(void);
 325:../../../platform/common/services/clock/sam4l/osc.h **** extern void osc_priv_disable_osc0(void);
 326:../../../platform/common/services/clock/sam4l/osc.h **** extern void osc_priv_enable_osc32(void);
 327:../../../platform/common/services/clock/sam4l/osc.h **** extern void osc_priv_disable_osc32(void);
 328:../../../platform/common/services/clock/sam4l/osc.h **** extern void osc_priv_enable_rc32k(void);
 329:../../../platform/common/services/clock/sam4l/osc.h **** extern void osc_priv_disable_rc32k(void);
 330:../../../platform/common/services/clock/sam4l/osc.h **** extern void osc_priv_enable_rc80m(void);
 331:../../../platform/common/services/clock/sam4l/osc.h **** extern void osc_priv_disable_rc80m(void);
 332:../../../platform/common/services/clock/sam4l/osc.h **** extern void osc_priv_enable_rcfast(void);
 333:../../../platform/common/services/clock/sam4l/osc.h **** extern void osc_priv_disable_rcfast(void);
 334:../../../platform/common/services/clock/sam4l/osc.h **** extern void osc_priv_enable_rc1m(void);
 335:../../../platform/common/services/clock/sam4l/osc.h **** extern void osc_priv_disable_rc1m(void);
 336:../../../platform/common/services/clock/sam4l/osc.h **** 
 337:../../../platform/common/services/clock/sam4l/osc.h **** static inline void osc_enable(uint8_t id)
 338:../../../platform/common/services/clock/sam4l/osc.h **** {
 254              	 .loc 4 338 0
 255              	 .cfi_startproc
 256              	 
 257              	 
 258 0084 80B5     	 push {r7,lr}
 259              	.LCFI17:
 260              	 .cfi_def_cfa_offset 8
 261              	 .cfi_offset 7,-8
 262              	 .cfi_offset 14,-4
 263 0086 82B0     	 sub sp,sp,#8
 264              	.LCFI18:
 265              	 .cfi_def_cfa_offset 16
 266 0088 00AF     	 add r7,sp,#0
 267              	.LCFI19:
 268              	 .cfi_def_cfa_register 7
 269 008a 0346     	 mov r3,r0
 270 008c FB71     	 strb r3,[r7,#7]
 339:../../../platform/common/services/clock/sam4l/osc.h **** 	switch (id) {
 271              	 .loc 4 339 0
 272 008e FB79     	 ldrb r3,[r7,#7]
 273 0090 062B     	 cmp r3,#6
 274 0092 23D8     	 bhi .L24
 275 0094 01A2     	 adr r2,.L16
 276 0096 52F823F0 	 ldr pc,[r2,r3,lsl#2]
 277 009a 00BF     	 .p2align 2
 278              	.L16:
 279 009c B9000000 	 .word .L15+1
 280 00a0 BF000000 	 .word .L17+1
 281 00a4 C5000000 	 .word .L18+1
 282 00a8 CB000000 	 .word .L19+1
 283 00ac D1000000 	 .word .L20+1
 284 00b0 D7000000 	 .word .L21+1
 285 00b4 DD000000 	 .word .L24+1
 286              	 .p2align 1
 287              	.L15:
 340:../../../platform/common/services/clock/sam4l/osc.h **** #ifdef BOARD_OSC0_HZ
 341:../../../platform/common/services/clock/sam4l/osc.h **** 	case OSC_ID_OSC0:
 342:../../../platform/common/services/clock/sam4l/osc.h **** 		osc_priv_enable_osc0();
 288              	 .loc 4 342 0
 289 00b8 0B4B     	 ldr r3,.L25
 290 00ba 9847     	 blx r3
 291              	.LVL0:
 343:../../../platform/common/services/clock/sam4l/osc.h **** 		break;
 292              	 .loc 4 343 0
 293 00bc 0FE0     	 b .L23
 294              	.L17:
 344:../../../platform/common/services/clock/sam4l/osc.h **** #endif
 345:../../../platform/common/services/clock/sam4l/osc.h **** 
 346:../../../platform/common/services/clock/sam4l/osc.h **** #ifdef BOARD_OSC32_HZ
 347:../../../platform/common/services/clock/sam4l/osc.h **** 	case OSC_ID_OSC32:
 348:../../../platform/common/services/clock/sam4l/osc.h **** 		osc_priv_enable_osc32();
 295              	 .loc 4 348 0
 296 00be 0B4B     	 ldr r3,.L25+4
 297 00c0 9847     	 blx r3
 298              	.LVL1:
 349:../../../platform/common/services/clock/sam4l/osc.h **** 		break;
 299              	 .loc 4 349 0
 300 00c2 0CE0     	 b .L23
 301              	.L18:
 350:../../../platform/common/services/clock/sam4l/osc.h **** #endif
 351:../../../platform/common/services/clock/sam4l/osc.h **** 
 352:../../../platform/common/services/clock/sam4l/osc.h **** 	case OSC_ID_RC32K:
 353:../../../platform/common/services/clock/sam4l/osc.h **** 		osc_priv_enable_rc32k();
 302              	 .loc 4 353 0
 303 00c4 0A4B     	 ldr r3,.L25+8
 304 00c6 9847     	 blx r3
 305              	.LVL2:
 354:../../../platform/common/services/clock/sam4l/osc.h **** 		break;
 306              	 .loc 4 354 0
 307 00c8 09E0     	 b .L23
 308              	.L19:
 355:../../../platform/common/services/clock/sam4l/osc.h **** 
 356:../../../platform/common/services/clock/sam4l/osc.h **** 	case OSC_ID_RC80M:
 357:../../../platform/common/services/clock/sam4l/osc.h **** 		osc_priv_enable_rc80m();
 309              	 .loc 4 357 0
 310 00ca 0A4B     	 ldr r3,.L25+12
 311 00cc 9847     	 blx r3
 312              	.LVL3:
 358:../../../platform/common/services/clock/sam4l/osc.h **** 		break;
 313              	 .loc 4 358 0
 314 00ce 06E0     	 b .L23
 315              	.L20:
 359:../../../platform/common/services/clock/sam4l/osc.h **** 
 360:../../../platform/common/services/clock/sam4l/osc.h **** 	case OSC_ID_RCFAST:
 361:../../../platform/common/services/clock/sam4l/osc.h **** 		osc_priv_enable_rcfast();
 316              	 .loc 4 361 0
 317 00d0 094B     	 ldr r3,.L25+16
 318 00d2 9847     	 blx r3
 319              	.LVL4:
 362:../../../platform/common/services/clock/sam4l/osc.h **** 		break;
 320              	 .loc 4 362 0
 321 00d4 03E0     	 b .L23
 322              	.L21:
 363:../../../platform/common/services/clock/sam4l/osc.h **** 
 364:../../../platform/common/services/clock/sam4l/osc.h **** 	case OSC_ID_RC1M:
 365:../../../platform/common/services/clock/sam4l/osc.h **** 		osc_priv_enable_rc1m();
 323              	 .loc 4 365 0
 324 00d6 094B     	 ldr r3,.L25+20
 325 00d8 9847     	 blx r3
 326              	.LVL5:
 366:../../../platform/common/services/clock/sam4l/osc.h **** 		break;
 327              	 .loc 4 366 0
 328 00da 00E0     	 b .L23
 329              	.L24:
 367:../../../platform/common/services/clock/sam4l/osc.h **** 
 368:../../../platform/common/services/clock/sam4l/osc.h **** 	case OSC_ID_RCSYS:
 369:../../../platform/common/services/clock/sam4l/osc.h **** 		/* RCSYS is always running */
 370:../../../platform/common/services/clock/sam4l/osc.h **** 		break;
 371:../../../platform/common/services/clock/sam4l/osc.h **** 
 372:../../../platform/common/services/clock/sam4l/osc.h **** 	default:
 373:../../../platform/common/services/clock/sam4l/osc.h **** 		/* unhandled_case(id); */
 374:../../../platform/common/services/clock/sam4l/osc.h **** 		break;
 330              	 .loc 4 374 0
 331 00dc 00BF     	 nop
 332              	.L23:
 375:../../../platform/common/services/clock/sam4l/osc.h **** 	}
 376:../../../platform/common/services/clock/sam4l/osc.h **** }
 333              	 .loc 4 376 0
 334 00de 00BF     	 nop
 335 00e0 0837     	 adds r7,r7,#8
 336              	.LCFI20:
 337              	 .cfi_def_cfa_offset 8
 338 00e2 BD46     	 mov sp,r7
 339              	.LCFI21:
 340              	 .cfi_def_cfa_register 13
 341              	 
 342 00e4 80BD     	 pop {r7,pc}
 343              	.L26:
 344 00e6 00BF     	 .align 2
 345              	.L25:
 346 00e8 00000000 	 .word osc_priv_enable_osc0
 347 00ec 00000000 	 .word osc_priv_enable_osc32
 348 00f0 00000000 	 .word osc_priv_enable_rc32k
 349 00f4 00000000 	 .word osc_priv_enable_rc80m
 350 00f8 00000000 	 .word osc_priv_enable_rcfast
 351 00fc 00000000 	 .word osc_priv_enable_rc1m
 352              	 .cfi_endproc
 353              	.LFE126:
 355              	 .align 1
 356              	 .syntax unified
 357              	 .thumb
 358              	 .thumb_func
 359              	 .fpu softvfp
 361              	osc_is_ready:
 362              	.LFB128:
 377:../../../platform/common/services/clock/sam4l/osc.h **** 
 378:../../../platform/common/services/clock/sam4l/osc.h **** static inline void osc_disable(uint8_t id)
 379:../../../platform/common/services/clock/sam4l/osc.h **** {
 380:../../../platform/common/services/clock/sam4l/osc.h **** 	switch (id) {
 381:../../../platform/common/services/clock/sam4l/osc.h **** #ifdef BOARD_OSC0_HZ
 382:../../../platform/common/services/clock/sam4l/osc.h **** 	case OSC_ID_OSC0:
 383:../../../platform/common/services/clock/sam4l/osc.h **** 		osc_priv_disable_osc0();
 384:../../../platform/common/services/clock/sam4l/osc.h **** 		break;
 385:../../../platform/common/services/clock/sam4l/osc.h **** #endif
 386:../../../platform/common/services/clock/sam4l/osc.h **** 
 387:../../../platform/common/services/clock/sam4l/osc.h **** #ifdef BOARD_OSC32_HZ
 388:../../../platform/common/services/clock/sam4l/osc.h **** 	case OSC_ID_OSC32:
 389:../../../platform/common/services/clock/sam4l/osc.h **** 		osc_priv_disable_osc32();
 390:../../../platform/common/services/clock/sam4l/osc.h **** 		break;
 391:../../../platform/common/services/clock/sam4l/osc.h **** #endif
 392:../../../platform/common/services/clock/sam4l/osc.h **** 
 393:../../../platform/common/services/clock/sam4l/osc.h **** 	case OSC_ID_RC32K:
 394:../../../platform/common/services/clock/sam4l/osc.h **** 		osc_priv_disable_rc32k();
 395:../../../platform/common/services/clock/sam4l/osc.h **** 		break;
 396:../../../platform/common/services/clock/sam4l/osc.h **** 
 397:../../../platform/common/services/clock/sam4l/osc.h **** 	case OSC_ID_RC80M:
 398:../../../platform/common/services/clock/sam4l/osc.h **** 		osc_priv_disable_rc80m();
 399:../../../platform/common/services/clock/sam4l/osc.h **** 		break;
 400:../../../platform/common/services/clock/sam4l/osc.h **** 
 401:../../../platform/common/services/clock/sam4l/osc.h **** 	case OSC_ID_RCFAST:
 402:../../../platform/common/services/clock/sam4l/osc.h **** 		osc_priv_disable_rcfast();
 403:../../../platform/common/services/clock/sam4l/osc.h **** 		break;
 404:../../../platform/common/services/clock/sam4l/osc.h **** 
 405:../../../platform/common/services/clock/sam4l/osc.h **** 	case OSC_ID_RC1M:
 406:../../../platform/common/services/clock/sam4l/osc.h **** 		osc_priv_disable_rc1m();
 407:../../../platform/common/services/clock/sam4l/osc.h **** 		break;
 408:../../../platform/common/services/clock/sam4l/osc.h **** 
 409:../../../platform/common/services/clock/sam4l/osc.h **** 	case OSC_ID_RCSYS:
 410:../../../platform/common/services/clock/sam4l/osc.h **** 		/* RCSYS is always running */
 411:../../../platform/common/services/clock/sam4l/osc.h **** 		break;
 412:../../../platform/common/services/clock/sam4l/osc.h **** 
 413:../../../platform/common/services/clock/sam4l/osc.h **** 	default:
 414:../../../platform/common/services/clock/sam4l/osc.h **** 		/* unhandled_case(id); */
 415:../../../platform/common/services/clock/sam4l/osc.h **** 		break;
 416:../../../platform/common/services/clock/sam4l/osc.h **** 	}
 417:../../../platform/common/services/clock/sam4l/osc.h **** }
 418:../../../platform/common/services/clock/sam4l/osc.h **** 
 419:../../../platform/common/services/clock/sam4l/osc.h **** static inline bool osc_is_ready(uint8_t id)
 420:../../../platform/common/services/clock/sam4l/osc.h **** {
 363              	 .loc 4 420 0
 364              	 .cfi_startproc
 365              	 
 366              	 
 367              	 
 368 0100 80B4     	 push {r7}
 369              	.LCFI22:
 370              	 .cfi_def_cfa_offset 4
 371              	 .cfi_offset 7,-4
 372 0102 83B0     	 sub sp,sp,#12
 373              	.LCFI23:
 374              	 .cfi_def_cfa_offset 16
 375 0104 00AF     	 add r7,sp,#0
 376              	.LCFI24:
 377              	 .cfi_def_cfa_register 7
 378 0106 0346     	 mov r3,r0
 379 0108 FB71     	 strb r3,[r7,#7]
 421:../../../platform/common/services/clock/sam4l/osc.h **** 	switch (id) {
 380              	 .loc 4 421 0
 381 010a FB79     	 ldrb r3,[r7,#7]
 382 010c 062B     	 cmp r3,#6
 383 010e 4FD8     	 bhi .L28
 384 0110 01A2     	 adr r2,.L30
 385 0112 52F823F0 	 ldr pc,[r2,r3,lsl#2]
 386 0116 00BF     	 .p2align 2
 387              	.L30:
 388 0118 35010000 	 .word .L29+1
 389 011c 49010000 	 .word .L31+1
 390 0120 5D010000 	 .word .L32+1
 391 0124 71010000 	 .word .L33+1
 392 0128 85010000 	 .word .L34+1
 393 012c 99010000 	 .word .L35+1
 394 0130 AD010000 	 .word .L36+1
 395              	 .p2align 1
 396              	.L29:
 422:../../../platform/common/services/clock/sam4l/osc.h **** #ifdef BOARD_OSC0_HZ
 423:../../../platform/common/services/clock/sam4l/osc.h **** 	case OSC_ID_OSC0:
 424:../../../platform/common/services/clock/sam4l/osc.h **** 		return !!(SCIF->SCIF_PCLKSR & SCIF_PCLKSR_OSC0RDY);
 397              	 .loc 4 424 0
 398 0134 214B     	 ldr r3,.L38
 399 0136 5B69     	 ldr r3,[r3,#20]
 400 0138 03F00103 	 and r3,r3,#1
 401 013c 002B     	 cmp r3,#0
 402 013e 14BF     	 ite ne
 403 0140 0123     	 movne r3,#1
 404 0142 0023     	 moveq r3,#0
 405 0144 DBB2     	 uxtb r3,r3
 406 0146 34E0     	 b .L37
 407              	.L31:
 425:../../../platform/common/services/clock/sam4l/osc.h **** #endif
 426:../../../platform/common/services/clock/sam4l/osc.h **** 
 427:../../../platform/common/services/clock/sam4l/osc.h **** #ifdef BOARD_OSC32_HZ
 428:../../../platform/common/services/clock/sam4l/osc.h **** 	case OSC_ID_OSC32:
 429:../../../platform/common/services/clock/sam4l/osc.h **** 		return !!(BSCIF->BSCIF_PCLKSR & BSCIF_PCLKSR_OSC32RDY);
 408              	 .loc 4 429 0
 409 0148 1D4B     	 ldr r3,.L38+4
 410 014a 5B69     	 ldr r3,[r3,#20]
 411 014c 03F00103 	 and r3,r3,#1
 412 0150 002B     	 cmp r3,#0
 413 0152 14BF     	 ite ne
 414 0154 0123     	 movne r3,#1
 415 0156 0023     	 moveq r3,#0
 416 0158 DBB2     	 uxtb r3,r3
 417 015a 2AE0     	 b .L37
 418              	.L32:
 430:../../../platform/common/services/clock/sam4l/osc.h **** #endif
 431:../../../platform/common/services/clock/sam4l/osc.h **** 
 432:../../../platform/common/services/clock/sam4l/osc.h **** 	case OSC_ID_RC32K:
 433:../../../platform/common/services/clock/sam4l/osc.h **** 		return !!(BSCIF->BSCIF_RC32KCR & (BSCIF_RC32KCR_EN));
 419              	 .loc 4 433 0
 420 015c 184B     	 ldr r3,.L38+4
 421 015e 5B6A     	 ldr r3,[r3,#36]
 422 0160 03F00103 	 and r3,r3,#1
 423 0164 002B     	 cmp r3,#0
 424 0166 14BF     	 ite ne
 425 0168 0123     	 movne r3,#1
 426 016a 0023     	 moveq r3,#0
 427 016c DBB2     	 uxtb r3,r3
 428 016e 20E0     	 b .L37
 429              	.L33:
 434:../../../platform/common/services/clock/sam4l/osc.h **** 
 435:../../../platform/common/services/clock/sam4l/osc.h **** 	case OSC_ID_RC80M:
 436:../../../platform/common/services/clock/sam4l/osc.h **** 		return !!(SCIF->SCIF_RC80MCR & (SCIF_RC80MCR_EN));
 430              	 .loc 4 436 0
 431 0170 124B     	 ldr r3,.L38
 432 0172 1B6D     	 ldr r3,[r3,#80]
 433 0174 03F00103 	 and r3,r3,#1
 434 0178 002B     	 cmp r3,#0
 435 017a 14BF     	 ite ne
 436 017c 0123     	 movne r3,#1
 437 017e 0023     	 moveq r3,#0
 438 0180 DBB2     	 uxtb r3,r3
 439 0182 16E0     	 b .L37
 440              	.L34:
 437:../../../platform/common/services/clock/sam4l/osc.h **** 
 438:../../../platform/common/services/clock/sam4l/osc.h **** 	case OSC_ID_RCFAST:
 439:../../../platform/common/services/clock/sam4l/osc.h **** 		return !!(SCIF->SCIF_RCFASTCFG & (SCIF_RCFASTCFG_EN));
 441              	 .loc 4 439 0
 442 0184 0D4B     	 ldr r3,.L38
 443 0186 9B6C     	 ldr r3,[r3,#72]
 444 0188 03F00103 	 and r3,r3,#1
 445 018c 002B     	 cmp r3,#0
 446 018e 14BF     	 ite ne
 447 0190 0123     	 movne r3,#1
 448 0192 0023     	 moveq r3,#0
 449 0194 DBB2     	 uxtb r3,r3
 450 0196 0CE0     	 b .L37
 451              	.L35:
 440:../../../platform/common/services/clock/sam4l/osc.h **** 
 441:../../../platform/common/services/clock/sam4l/osc.h **** 	case OSC_ID_RC1M:
 442:../../../platform/common/services/clock/sam4l/osc.h **** 		return !!(BSCIF->BSCIF_RC1MCR & (BSCIF_RC1MCR_CLKOE));
 452              	 .loc 4 442 0
 453 0198 094B     	 ldr r3,.L38+4
 454 019a 9B6D     	 ldr r3,[r3,#88]
 455 019c 03F00103 	 and r3,r3,#1
 456 01a0 002B     	 cmp r3,#0
 457 01a2 14BF     	 ite ne
 458 01a4 0123     	 movne r3,#1
 459 01a6 0023     	 moveq r3,#0
 460 01a8 DBB2     	 uxtb r3,r3
 461 01aa 02E0     	 b .L37
 462              	.L36:
 443:../../../platform/common/services/clock/sam4l/osc.h **** 
 444:../../../platform/common/services/clock/sam4l/osc.h **** 	case OSC_ID_RCSYS:
 445:../../../platform/common/services/clock/sam4l/osc.h **** 		/* RCSYS is always ready */
 446:../../../platform/common/services/clock/sam4l/osc.h **** 		return true;
 463              	 .loc 4 446 0
 464 01ac 0123     	 movs r3,#1
 465 01ae 00E0     	 b .L37
 466              	.L28:
 447:../../../platform/common/services/clock/sam4l/osc.h **** 
 448:../../../platform/common/services/clock/sam4l/osc.h **** 	default:
 449:../../../platform/common/services/clock/sam4l/osc.h **** 		/* unhandled_case(id); */
 450:../../../platform/common/services/clock/sam4l/osc.h **** 		return false;
 467              	 .loc 4 450 0
 468 01b0 0023     	 movs r3,#0
 469              	.L37:
 451:../../../platform/common/services/clock/sam4l/osc.h **** 	}
 452:../../../platform/common/services/clock/sam4l/osc.h **** }
 470              	 .loc 4 452 0
 471 01b2 1846     	 mov r0,r3
 472 01b4 0C37     	 adds r7,r7,#12
 473              	.LCFI25:
 474              	 .cfi_def_cfa_offset 4
 475 01b6 BD46     	 mov sp,r7
 476              	.LCFI26:
 477              	 .cfi_def_cfa_register 13
 478              	 
 479 01b8 80BC     	 pop {r7}
 480              	.LCFI27:
 481              	 .cfi_restore 7
 482              	 .cfi_def_cfa_offset 0
 483 01ba 7047     	 bx lr
 484              	.L39:
 485              	 .align 2
 486              	.L38:
 487 01bc 00080E40 	 .word 1074661376
 488 01c0 00040F40 	 .word 1074725888
 489              	 .cfi_endproc
 490              	.LFE128:
 492              	 .align 1
 493              	 .syntax unified
 494              	 .thumb
 495              	 .thumb_func
 496              	 .fpu softvfp
 498              	osc_get_rate:
 499              	.LFB129:
 453:../../../platform/common/services/clock/sam4l/osc.h **** 
 454:../../../platform/common/services/clock/sam4l/osc.h **** static inline uint32_t osc_get_rate(uint8_t id)
 455:../../../platform/common/services/clock/sam4l/osc.h **** {
 500              	 .loc 4 455 0
 501              	 .cfi_startproc
 502              	 
 503              	 
 504              	 
 505 01c4 80B4     	 push {r7}
 506              	.LCFI28:
 507              	 .cfi_def_cfa_offset 4
 508              	 .cfi_offset 7,-4
 509 01c6 83B0     	 sub sp,sp,#12
 510              	.LCFI29:
 511              	 .cfi_def_cfa_offset 16
 512 01c8 00AF     	 add r7,sp,#0
 513              	.LCFI30:
 514              	 .cfi_def_cfa_register 7
 515 01ca 0346     	 mov r3,r0
 516 01cc FB71     	 strb r3,[r7,#7]
 456:../../../platform/common/services/clock/sam4l/osc.h **** 	switch (id) {
 517              	 .loc 4 456 0
 518 01ce FB79     	 ldrb r3,[r7,#7]
 519 01d0 062B     	 cmp r3,#6
 520 01d2 21D8     	 bhi .L41
 521 01d4 01A2     	 adr r2,.L43
 522 01d6 52F823F0 	 ldr pc,[r2,r3,lsl#2]
 523 01da 00BF     	 .p2align 2
 524              	.L43:
 525 01dc F9010000 	 .word .L42+1
 526 01e0 FD010000 	 .word .L44+1
 527 01e4 03020000 	 .word .L45+1
 528 01e8 09020000 	 .word .L46+1
 529 01ec 0D020000 	 .word .L47+1
 530 01f0 11020000 	 .word .L48+1
 531 01f4 15020000 	 .word .L49+1
 532              	 .p2align 1
 533              	.L42:
 457:../../../platform/common/services/clock/sam4l/osc.h **** #ifdef BOARD_OSC0_HZ
 458:../../../platform/common/services/clock/sam4l/osc.h **** 	case OSC_ID_OSC0:
 459:../../../platform/common/services/clock/sam4l/osc.h **** 		return BOARD_OSC0_HZ;
 534              	 .loc 4 459 0
 535 01f8 0A4B     	 ldr r3,.L51
 536 01fa 0EE0     	 b .L50
 537              	.L44:
 460:../../../platform/common/services/clock/sam4l/osc.h **** #endif
 461:../../../platform/common/services/clock/sam4l/osc.h **** 
 462:../../../platform/common/services/clock/sam4l/osc.h **** #ifdef BOARD_OSC32_HZ
 463:../../../platform/common/services/clock/sam4l/osc.h **** 	case OSC_ID_OSC32:
 464:../../../platform/common/services/clock/sam4l/osc.h **** 		return BOARD_OSC32_HZ;
 538              	 .loc 4 464 0
 539 01fc 4FF40043 	 mov r3,#32768
 540 0200 0BE0     	 b .L50
 541              	.L45:
 465:../../../platform/common/services/clock/sam4l/osc.h **** #endif
 466:../../../platform/common/services/clock/sam4l/osc.h **** 
 467:../../../platform/common/services/clock/sam4l/osc.h **** 	case OSC_ID_RC32K:
 468:../../../platform/common/services/clock/sam4l/osc.h **** 		return OSC_RC32K_NOMINAL_HZ;
 542              	 .loc 4 468 0
 543 0202 4FF40043 	 mov r3,#32768
 544 0206 08E0     	 b .L50
 545              	.L46:
 469:../../../platform/common/services/clock/sam4l/osc.h **** 
 470:../../../platform/common/services/clock/sam4l/osc.h **** 	case OSC_ID_RC80M:
 471:../../../platform/common/services/clock/sam4l/osc.h **** 		return OSC_RC80M_NOMINAL_HZ;
 546              	 .loc 4 471 0
 547 0208 074B     	 ldr r3,.L51+4
 548 020a 06E0     	 b .L50
 549              	.L47:
 472:../../../platform/common/services/clock/sam4l/osc.h **** 
 473:../../../platform/common/services/clock/sam4l/osc.h **** 	case OSC_ID_RCFAST:
 474:../../../platform/common/services/clock/sam4l/osc.h **** 		if (CONFIG_RCFAST_FRANGE == 2) {
 475:../../../platform/common/services/clock/sam4l/osc.h **** 			return OSC_RCFAST12M_NOMINAL_HZ;
 476:../../../platform/common/services/clock/sam4l/osc.h **** 
 477:../../../platform/common/services/clock/sam4l/osc.h **** 		} else if (CONFIG_RCFAST_FRANGE == 1) {
 478:../../../platform/common/services/clock/sam4l/osc.h **** 			return OSC_RCFAST8M_NOMINAL_HZ;
 479:../../../platform/common/services/clock/sam4l/osc.h **** 
 480:../../../platform/common/services/clock/sam4l/osc.h **** 		} else {
 481:../../../platform/common/services/clock/sam4l/osc.h **** 			return OSC_RCFAST4M_NOMINAL_HZ;
 550              	 .loc 4 481 0
 551 020c 074B     	 ldr r3,.L51+8
 552 020e 04E0     	 b .L50
 553              	.L48:
 482:../../../platform/common/services/clock/sam4l/osc.h **** 		}
 483:../../../platform/common/services/clock/sam4l/osc.h **** 
 484:../../../platform/common/services/clock/sam4l/osc.h **** 	case OSC_ID_RC1M:
 485:../../../platform/common/services/clock/sam4l/osc.h **** 		return OSC_RC1M_NOMINAL_HZ;
 554              	 .loc 4 485 0
 555 0210 074B     	 ldr r3,.L51+12
 556 0212 02E0     	 b .L50
 557              	.L49:
 486:../../../platform/common/services/clock/sam4l/osc.h **** 
 487:../../../platform/common/services/clock/sam4l/osc.h **** 	case OSC_ID_RCSYS:
 488:../../../platform/common/services/clock/sam4l/osc.h **** 		return OSC_RCSYS_NOMINAL_HZ;
 558              	 .loc 4 488 0
 559 0214 074B     	 ldr r3,.L51+16
 560 0216 00E0     	 b .L50
 561              	.L41:
 489:../../../platform/common/services/clock/sam4l/osc.h **** 
 490:../../../platform/common/services/clock/sam4l/osc.h **** 	default:
 491:../../../platform/common/services/clock/sam4l/osc.h **** 		/* unhandled_case(id); */
 492:../../../platform/common/services/clock/sam4l/osc.h **** 		return 0;
 562              	 .loc 4 492 0
 563 0218 0023     	 movs r3,#0
 564              	.L50:
 493:../../../platform/common/services/clock/sam4l/osc.h **** 	}
 494:../../../platform/common/services/clock/sam4l/osc.h **** }
 565              	 .loc 4 494 0
 566 021a 1846     	 mov r0,r3
 567 021c 0C37     	 adds r7,r7,#12
 568              	.LCFI31:
 569              	 .cfi_def_cfa_offset 4
 570 021e BD46     	 mov sp,r7
 571              	.LCFI32:
 572              	 .cfi_def_cfa_register 13
 573              	 
 574 0220 80BC     	 pop {r7}
 575              	.LCFI33:
 576              	 .cfi_restore 7
 577              	 .cfi_def_cfa_offset 0
 578 0222 7047     	 bx lr
 579              	.L52:
 580              	 .align 2
 581              	.L51:
 582 0224 001BB700 	 .word 12000000
 583 0228 00B4C404 	 .word 80000000
 584 022c 00093D00 	 .word 4000000
 585 0230 40420F00 	 .word 1000000
 586 0234 38C10100 	 .word 115000
 587              	 .cfi_endproc
 588              	.LFE129:
 590              	 .align 1
 591              	 .syntax unified
 592              	 .thumb
 593              	 .thumb_func
 594              	 .fpu softvfp
 596              	osc_wait_ready:
 597              	.LFB130:
 598              	 .file 5 "../../../platform/common/services/clock/osc.h"
   1:../../../platform/common/services/clock/osc.h **** /**
   2:../../../platform/common/services/clock/osc.h ****  * \file
   3:../../../platform/common/services/clock/osc.h ****  *
   4:../../../platform/common/services/clock/osc.h ****  * \brief Oscillator management
   5:../../../platform/common/services/clock/osc.h ****  *
   6:../../../platform/common/services/clock/osc.h ****  * Copyright (c) 2010-2014 Atmel Corporation. All rights reserved.
   7:../../../platform/common/services/clock/osc.h ****  *
   8:../../../platform/common/services/clock/osc.h ****  * \asf_license_start
   9:../../../platform/common/services/clock/osc.h ****  *
  10:../../../platform/common/services/clock/osc.h ****  * \page License
  11:../../../platform/common/services/clock/osc.h ****  *
  12:../../../platform/common/services/clock/osc.h ****  * Redistribution and use in source and binary forms, with or without
  13:../../../platform/common/services/clock/osc.h ****  * modification, are permitted provided that the following conditions are met:
  14:../../../platform/common/services/clock/osc.h ****  *
  15:../../../platform/common/services/clock/osc.h ****  * 1. Redistributions of source code must retain the above copyright notice,
  16:../../../platform/common/services/clock/osc.h ****  *    this list of conditions and the following disclaimer.
  17:../../../platform/common/services/clock/osc.h ****  *
  18:../../../platform/common/services/clock/osc.h ****  * 2. Redistributions in binary form must reproduce the above copyright notice,
  19:../../../platform/common/services/clock/osc.h ****  *    this list of conditions and the following disclaimer in the documentation
  20:../../../platform/common/services/clock/osc.h ****  *    and/or other materials provided with the distribution.
  21:../../../platform/common/services/clock/osc.h ****  *
  22:../../../platform/common/services/clock/osc.h ****  * 3. The name of Atmel may not be used to endorse or promote products derived
  23:../../../platform/common/services/clock/osc.h ****  *    from this software without specific prior written permission.
  24:../../../platform/common/services/clock/osc.h ****  *
  25:../../../platform/common/services/clock/osc.h ****  * 4. This software may only be redistributed and used in connection with an
  26:../../../platform/common/services/clock/osc.h ****  *    Atmel microcontroller product.
  27:../../../platform/common/services/clock/osc.h ****  *
  28:../../../platform/common/services/clock/osc.h ****  * THIS SOFTWARE IS PROVIDED BY ATMEL "AS IS" AND ANY EXPRESS OR IMPLIED
  29:../../../platform/common/services/clock/osc.h ****  * WARRANTIES, INCLUDING, BUT NOT LIMITED TO, THE IMPLIED WARRANTIES OF
  30:../../../platform/common/services/clock/osc.h ****  * MERCHANTABILITY, FITNESS FOR A PARTICULAR PURPOSE AND NON-INFRINGEMENT ARE
  31:../../../platform/common/services/clock/osc.h ****  * EXPRESSLY AND SPECIFICALLY DISCLAIMED. IN NO EVENT SHALL ATMEL BE LIABLE FOR
  32:../../../platform/common/services/clock/osc.h ****  * ANY DIRECT, INDIRECT, INCIDENTAL, SPECIAL, EXEMPLARY, OR CONSEQUENTIAL
  33:../../../platform/common/services/clock/osc.h ****  * DAMAGES (INCLUDING, BUT NOT LIMITED TO, PROCUREMENT OF SUBSTITUTE GOODS
  34:../../../platform/common/services/clock/osc.h ****  * OR SERVICES; LOSS OF USE, DATA, OR PROFITS; OR BUSINESS INTERRUPTION)
  35:../../../platform/common/services/clock/osc.h ****  * HOWEVER CAUSED AND ON ANY THEORY OF LIABILITY, WHETHER IN CONTRACT,
  36:../../../platform/common/services/clock/osc.h ****  * STRICT LIABILITY, OR TORT (INCLUDING NEGLIGENCE OR OTHERWISE) ARISING IN
  37:../../../platform/common/services/clock/osc.h ****  * ANY WAY OUT OF THE USE OF THIS SOFTWARE, EVEN IF ADVISED OF THE
  38:../../../platform/common/services/clock/osc.h ****  * POSSIBILITY OF SUCH DAMAGE.
  39:../../../platform/common/services/clock/osc.h ****  *
  40:../../../platform/common/services/clock/osc.h ****  * \asf_license_stop
  41:../../../platform/common/services/clock/osc.h ****  *
  42:../../../platform/common/services/clock/osc.h ****  */
  43:../../../platform/common/services/clock/osc.h **** #ifndef OSC_H_INCLUDED
  44:../../../platform/common/services/clock/osc.h **** #define OSC_H_INCLUDED
  45:../../../platform/common/services/clock/osc.h **** 
  46:../../../platform/common/services/clock/osc.h **** #include "parts.h"
  47:../../../platform/common/services/clock/osc.h **** #include "conf_clock.h"
  48:../../../platform/common/services/clock/osc.h **** 
  49:../../../platform/common/services/clock/osc.h **** #if SAM3S
  50:../../../platform/common/services/clock/osc.h **** # include "sam3s/osc.h"
  51:../../../platform/common/services/clock/osc.h **** #elif SAM3XA
  52:../../../platform/common/services/clock/osc.h **** # include "sam3x/osc.h"
  53:../../../platform/common/services/clock/osc.h **** #elif SAM3U
  54:../../../platform/common/services/clock/osc.h **** # include "sam3u/osc.h"
  55:../../../platform/common/services/clock/osc.h **** #elif SAM3N
  56:../../../platform/common/services/clock/osc.h **** # include "sam3n/osc.h"
  57:../../../platform/common/services/clock/osc.h **** #elif SAM4S
  58:../../../platform/common/services/clock/osc.h **** # include "sam4s/osc.h"
  59:../../../platform/common/services/clock/osc.h **** #elif SAM4E
  60:../../../platform/common/services/clock/osc.h **** # include "sam4e/osc.h"
  61:../../../platform/common/services/clock/osc.h **** #elif SAM4C
  62:../../../platform/common/services/clock/osc.h **** # include "sam4c/osc.h"
  63:../../../platform/common/services/clock/osc.h **** #elif SAM4CM
  64:../../../platform/common/services/clock/osc.h **** # include "sam4cm/osc.h"
  65:../../../platform/common/services/clock/osc.h **** #elif SAM4CP
  66:../../../platform/common/services/clock/osc.h **** # include "sam4cp/osc.h"
  67:../../../platform/common/services/clock/osc.h **** #elif SAM4L
  68:../../../platform/common/services/clock/osc.h **** # include "sam4l/osc.h"
  69:../../../platform/common/services/clock/osc.h **** #elif SAM4N
  70:../../../platform/common/services/clock/osc.h **** # include "sam4n/osc.h"
  71:../../../platform/common/services/clock/osc.h **** #elif SAMG
  72:../../../platform/common/services/clock/osc.h **** # include "samg/osc.h"
  73:../../../platform/common/services/clock/osc.h **** #elif (UC3A0 || UC3A1)
  74:../../../platform/common/services/clock/osc.h **** # include "uc3a0_a1/osc.h"
  75:../../../platform/common/services/clock/osc.h **** #elif UC3A3
  76:../../../platform/common/services/clock/osc.h **** # include "uc3a3_a4/osc.h"
  77:../../../platform/common/services/clock/osc.h **** #elif UC3B
  78:../../../platform/common/services/clock/osc.h **** # include "uc3b0_b1/osc.h"
  79:../../../platform/common/services/clock/osc.h **** #elif UC3C
  80:../../../platform/common/services/clock/osc.h **** # include "uc3c/osc.h"
  81:../../../platform/common/services/clock/osc.h **** #elif UC3D
  82:../../../platform/common/services/clock/osc.h **** # include "uc3d/osc.h"
  83:../../../platform/common/services/clock/osc.h **** #elif UC3L
  84:../../../platform/common/services/clock/osc.h **** # include "uc3l/osc.h"
  85:../../../platform/common/services/clock/osc.h **** #elif XMEGA
  86:../../../platform/common/services/clock/osc.h **** # include "xmega/osc.h"
  87:../../../platform/common/services/clock/osc.h **** #else
  88:../../../platform/common/services/clock/osc.h **** # error Unsupported chip type
  89:../../../platform/common/services/clock/osc.h **** #endif
  90:../../../platform/common/services/clock/osc.h **** 
  91:../../../platform/common/services/clock/osc.h **** /**
  92:../../../platform/common/services/clock/osc.h ****  * \ingroup clk_group
  93:../../../platform/common/services/clock/osc.h ****  * \defgroup osc_group Oscillator Management
  94:../../../platform/common/services/clock/osc.h ****  *
  95:../../../platform/common/services/clock/osc.h ****  * This group contains functions and definitions related to configuring
  96:../../../platform/common/services/clock/osc.h ****  * and enabling/disabling on-chip oscillators. Internal RC-oscillators,
  97:../../../platform/common/services/clock/osc.h ****  * external crystal oscillators and external clock generators are
  98:../../../platform/common/services/clock/osc.h ****  * supported by this module. What all of these have in common is that
  99:../../../platform/common/services/clock/osc.h ****  * they swing at a fixed, nominal frequency which is normally not
 100:../../../platform/common/services/clock/osc.h ****  * adjustable.
 101:../../../platform/common/services/clock/osc.h ****  *
 102:../../../platform/common/services/clock/osc.h ****  * \par Example: Enabling an oscillator
 103:../../../platform/common/services/clock/osc.h ****  *
 104:../../../platform/common/services/clock/osc.h ****  * The following example demonstrates how to enable the external
 105:../../../platform/common/services/clock/osc.h ****  * oscillator on XMEGA A and wait for it to be ready to use. The
 106:../../../platform/common/services/clock/osc.h ****  * oscillator identifiers are platform-specific, so while the same
 107:../../../platform/common/services/clock/osc.h ****  * procedure is used on all platforms, the parameter to osc_enable()
 108:../../../platform/common/services/clock/osc.h ****  * will be different from device to device.
 109:../../../platform/common/services/clock/osc.h ****  * \code
 110:../../../platform/common/services/clock/osc.h **** 	osc_enable(OSC_ID_XOSC);
 111:../../../platform/common/services/clock/osc.h **** 	osc_wait_ready(OSC_ID_XOSC); \endcode
 112:../../../platform/common/services/clock/osc.h ****  *
 113:../../../platform/common/services/clock/osc.h ****  * \section osc_group_board Board-specific Definitions
 114:../../../platform/common/services/clock/osc.h ****  * If external oscillators are used, the board code must provide the
 115:../../../platform/common/services/clock/osc.h ****  * following definitions for each of those:
 116:../../../platform/common/services/clock/osc.h ****  *   - \b BOARD_<osc name>_HZ: The nominal frequency of the oscillator.
 117:../../../platform/common/services/clock/osc.h ****  *   - \b BOARD_<osc name>_STARTUP_US: The startup time of the
 118:../../../platform/common/services/clock/osc.h ****  *     oscillator in microseconds.
 119:../../../platform/common/services/clock/osc.h ****  *   - \b BOARD_<osc name>_TYPE: The type of oscillator connected, i.e.
 120:../../../platform/common/services/clock/osc.h ****  *     whether it's a crystal or external clock, and sometimes what kind
 121:../../../platform/common/services/clock/osc.h ****  *     of crystal it is. The meaning of this value is platform-specific.
 122:../../../platform/common/services/clock/osc.h ****  *
 123:../../../platform/common/services/clock/osc.h ****  * @{
 124:../../../platform/common/services/clock/osc.h ****  */
 125:../../../platform/common/services/clock/osc.h **** 
 126:../../../platform/common/services/clock/osc.h **** //! \name Oscillator Management
 127:../../../platform/common/services/clock/osc.h **** //@{
 128:../../../platform/common/services/clock/osc.h **** /**
 129:../../../platform/common/services/clock/osc.h ****  * \fn void osc_enable(uint8_t id)
 130:../../../platform/common/services/clock/osc.h ****  * \brief Enable oscillator \a id
 131:../../../platform/common/services/clock/osc.h ****  *
 132:../../../platform/common/services/clock/osc.h ****  * The startup time and mode value is automatically determined based on
 133:../../../platform/common/services/clock/osc.h ****  * definitions in the board code.
 134:../../../platform/common/services/clock/osc.h ****  */
 135:../../../platform/common/services/clock/osc.h **** /**
 136:../../../platform/common/services/clock/osc.h ****  * \fn void osc_disable(uint8_t id)
 137:../../../platform/common/services/clock/osc.h ****  * \brief Disable oscillator \a id
 138:../../../platform/common/services/clock/osc.h ****  */
 139:../../../platform/common/services/clock/osc.h **** /**
 140:../../../platform/common/services/clock/osc.h ****  * \fn osc_is_ready(uint8_t id)
 141:../../../platform/common/services/clock/osc.h ****  * \brief Determine whether oscillator \a id is ready.
 142:../../../platform/common/services/clock/osc.h ****  * \retval true Oscillator \a id is running and ready to use as a clock
 143:../../../platform/common/services/clock/osc.h ****  * source.
 144:../../../platform/common/services/clock/osc.h ****  * \retval false Oscillator \a id is not running.
 145:../../../platform/common/services/clock/osc.h ****  */
 146:../../../platform/common/services/clock/osc.h **** /**
 147:../../../platform/common/services/clock/osc.h ****  * \fn uint32_t osc_get_rate(uint8_t id)
 148:../../../platform/common/services/clock/osc.h ****  * \brief Return the frequency of oscillator \a id in Hz
 149:../../../platform/common/services/clock/osc.h ****  */
 150:../../../platform/common/services/clock/osc.h **** 
 151:../../../platform/common/services/clock/osc.h **** #ifndef __ASSEMBLY__
 152:../../../platform/common/services/clock/osc.h **** 
 153:../../../platform/common/services/clock/osc.h **** /**
 154:../../../platform/common/services/clock/osc.h ****  * \brief Wait until the oscillator identified by \a id is ready
 155:../../../platform/common/services/clock/osc.h ****  *
 156:../../../platform/common/services/clock/osc.h ****  * This function will busy-wait for the oscillator identified by \a id
 157:../../../platform/common/services/clock/osc.h ****  * to become stable and ready to use as a clock source.
 158:../../../platform/common/services/clock/osc.h ****  *
 159:../../../platform/common/services/clock/osc.h ****  * \param id A number identifying the oscillator to wait for.
 160:../../../platform/common/services/clock/osc.h ****  */
 161:../../../platform/common/services/clock/osc.h **** static inline void osc_wait_ready(uint8_t id)
 162:../../../platform/common/services/clock/osc.h **** {
 599              	 .loc 5 162 0
 600              	 .cfi_startproc
 601              	 
 602              	 
 603 0238 80B5     	 push {r7,lr}
 604              	.LCFI34:
 605              	 .cfi_def_cfa_offset 8
 606              	 .cfi_offset 7,-8
 607              	 .cfi_offset 14,-4
 608 023a 82B0     	 sub sp,sp,#8
 609              	.LCFI35:
 610              	 .cfi_def_cfa_offset 16
 611 023c 00AF     	 add r7,sp,#0
 612              	.LCFI36:
 613              	 .cfi_def_cfa_register 7
 614 023e 0346     	 mov r3,r0
 615 0240 FB71     	 strb r3,[r7,#7]
 163:../../../platform/common/services/clock/osc.h **** 	while (!osc_is_ready(id)) {
 616              	 .loc 5 163 0
 617 0242 00BF     	 nop
 618              	.L54:
 619              	 .loc 5 163 0 is_stmt 0 discriminator 1
 620 0244 FB79     	 ldrb r3,[r7,#7]
 621 0246 1846     	 mov r0,r3
 622 0248 FFF75AFF 	 bl osc_is_ready
 623 024c 0346     	 mov r3,r0
 624 024e 83F00103 	 eor r3,r3,#1
 625 0252 DBB2     	 uxtb r3,r3
 626 0254 002B     	 cmp r3,#0
 627 0256 F5D1     	 bne .L54
 164:../../../platform/common/services/clock/osc.h **** 		/* Do nothing */
 165:../../../platform/common/services/clock/osc.h **** 	}
 166:../../../platform/common/services/clock/osc.h **** }
 628              	 .loc 5 166 0 is_stmt 1
 629 0258 00BF     	 nop
 630 025a 0837     	 adds r7,r7,#8
 631              	.LCFI37:
 632              	 .cfi_def_cfa_offset 8
 633 025c BD46     	 mov sp,r7
 634              	.LCFI38:
 635              	 .cfi_def_cfa_register 13
 636              	 
 637 025e 80BD     	 pop {r7,pc}
 638              	 .cfi_endproc
 639              	.LFE130:
 641              	 .align 1
 642              	 .syntax unified
 643              	 .thumb
 644              	 .thumb_func
 645              	 .fpu softvfp
 647              	pll_config_set_option:
 648              	.LFB131:
 649              	 .file 6 "../../../platform/common/services/clock/sam4l/pll.h"
   1:../../../platform/common/services/clock/sam4l/pll.h **** /**
   2:../../../platform/common/services/clock/sam4l/pll.h ****  * \file
   3:../../../platform/common/services/clock/sam4l/pll.h ****  *
   4:../../../platform/common/services/clock/sam4l/pll.h ****  * \brief Chip-specific PLL definitions
   5:../../../platform/common/services/clock/sam4l/pll.h ****  *
   6:../../../platform/common/services/clock/sam4l/pll.h ****  * Copyright (c) 2012 Atmel Corporation. All rights reserved.
   7:../../../platform/common/services/clock/sam4l/pll.h ****  *
   8:../../../platform/common/services/clock/sam4l/pll.h ****  * \asf_license_start
   9:../../../platform/common/services/clock/sam4l/pll.h ****  *
  10:../../../platform/common/services/clock/sam4l/pll.h ****  * \page License
  11:../../../platform/common/services/clock/sam4l/pll.h ****  *
  12:../../../platform/common/services/clock/sam4l/pll.h ****  * Redistribution and use in source and binary forms, with or without
  13:../../../platform/common/services/clock/sam4l/pll.h ****  * modification, are permitted provided that the following conditions are met:
  14:../../../platform/common/services/clock/sam4l/pll.h ****  *
  15:../../../platform/common/services/clock/sam4l/pll.h ****  * 1. Redistributions of source code must retain the above copyright notice,
  16:../../../platform/common/services/clock/sam4l/pll.h ****  *    this list of conditions and the following disclaimer.
  17:../../../platform/common/services/clock/sam4l/pll.h ****  *
  18:../../../platform/common/services/clock/sam4l/pll.h ****  * 2. Redistributions in binary form must reproduce the above copyright notice,
  19:../../../platform/common/services/clock/sam4l/pll.h ****  *    this list of conditions and the following disclaimer in the documentation
  20:../../../platform/common/services/clock/sam4l/pll.h ****  *    and/or other materials provided with the distribution.
  21:../../../platform/common/services/clock/sam4l/pll.h ****  *
  22:../../../platform/common/services/clock/sam4l/pll.h ****  * 3. The name of Atmel may not be used to endorse or promote products derived
  23:../../../platform/common/services/clock/sam4l/pll.h ****  *    from this software without specific prior written permission.
  24:../../../platform/common/services/clock/sam4l/pll.h ****  *
  25:../../../platform/common/services/clock/sam4l/pll.h ****  * 4. This software may only be redistributed and used in connection with an
  26:../../../platform/common/services/clock/sam4l/pll.h ****  *    Atmel microcontroller product.
  27:../../../platform/common/services/clock/sam4l/pll.h ****  *
  28:../../../platform/common/services/clock/sam4l/pll.h ****  * THIS SOFTWARE IS PROVIDED BY ATMEL "AS IS" AND ANY EXPRESS OR IMPLIED
  29:../../../platform/common/services/clock/sam4l/pll.h ****  * WARRANTIES, INCLUDING, BUT NOT LIMITED TO, THE IMPLIED WARRANTIES OF
  30:../../../platform/common/services/clock/sam4l/pll.h ****  * MERCHANTABILITY, FITNESS FOR A PARTICULAR PURPOSE AND NON-INFRINGEMENT ARE
  31:../../../platform/common/services/clock/sam4l/pll.h ****  * EXPRESSLY AND SPECIFICALLY DISCLAIMED. IN NO EVENT SHALL ATMEL BE LIABLE FOR
  32:../../../platform/common/services/clock/sam4l/pll.h ****  * ANY DIRECT, INDIRECT, INCIDENTAL, SPECIAL, EXEMPLARY, OR CONSEQUENTIAL
  33:../../../platform/common/services/clock/sam4l/pll.h ****  * DAMAGES (INCLUDING, BUT NOT LIMITED TO, PROCUREMENT OF SUBSTITUTE GOODS
  34:../../../platform/common/services/clock/sam4l/pll.h ****  * OR SERVICES; LOSS OF USE, DATA, OR PROFITS; OR BUSINESS INTERRUPTION)
  35:../../../platform/common/services/clock/sam4l/pll.h ****  * HOWEVER CAUSED AND ON ANY THEORY OF LIABILITY, WHETHER IN CONTRACT,
  36:../../../platform/common/services/clock/sam4l/pll.h ****  * STRICT LIABILITY, OR TORT (INCLUDING NEGLIGENCE OR OTHERWISE) ARISING IN
  37:../../../platform/common/services/clock/sam4l/pll.h ****  * ANY WAY OUT OF THE USE OF THIS SOFTWARE, EVEN IF ADVISED OF THE
  38:../../../platform/common/services/clock/sam4l/pll.h ****  * POSSIBILITY OF SUCH DAMAGE.
  39:../../../platform/common/services/clock/sam4l/pll.h ****  *
  40:../../../platform/common/services/clock/sam4l/pll.h ****  * \asf_license_stop
  41:../../../platform/common/services/clock/sam4l/pll.h ****  *
  42:../../../platform/common/services/clock/sam4l/pll.h ****  */
  43:../../../platform/common/services/clock/sam4l/pll.h **** #ifndef CHIP_PLL_H_INCLUDED
  44:../../../platform/common/services/clock/sam4l/pll.h **** #define CHIP_PLL_H_INCLUDED
  45:../../../platform/common/services/clock/sam4l/pll.h **** 
  46:../../../platform/common/services/clock/sam4l/pll.h **** #ifdef __cplusplus
  47:../../../platform/common/services/clock/sam4l/pll.h **** extern "C" {
  48:../../../platform/common/services/clock/sam4l/pll.h **** #endif
  49:../../../platform/common/services/clock/sam4l/pll.h **** 
  50:../../../platform/common/services/clock/sam4l/pll.h **** #define SCIF0_PLL_VCO_RANGE1_MAX_FREQ   240000000
  51:../../../platform/common/services/clock/sam4l/pll.h **** #define SCIF_PLL0_VCO_RANGE1_MIN_FREQ   160000000
  52:../../../platform/common/services/clock/sam4l/pll.h **** #define SCIF_PLL0_VCO_RANGE0_MAX_FREQ   180000000
  53:../../../platform/common/services/clock/sam4l/pll.h **** #define SCIF_PLL0_VCO_RANGE0_MIN_FREQ    80000000
  54:../../../platform/common/services/clock/sam4l/pll.h **** 
  55:../../../platform/common/services/clock/sam4l/pll.h **** /**
  56:../../../platform/common/services/clock/sam4l/pll.h ****  * \weakgroup pll_group
  57:../../../platform/common/services/clock/sam4l/pll.h ****  * @{
  58:../../../platform/common/services/clock/sam4l/pll.h ****  */
  59:../../../platform/common/services/clock/sam4l/pll.h **** 
  60:../../../platform/common/services/clock/sam4l/pll.h **** #define PLL_MAX_STARTUP_CYCLES    (SCIF_PLL_PLLCOUNT_Msk >> SCIF_PLL_PLLCOUNT_Pos)
  61:../../../platform/common/services/clock/sam4l/pll.h **** #define NR_PLLS                   1
  62:../../../platform/common/services/clock/sam4l/pll.h **** 
  63:../../../platform/common/services/clock/sam4l/pll.h **** /**
  64:../../../platform/common/services/clock/sam4l/pll.h ****  * \brief Number of milliseconds to wait for PLL lock
  65:../../../platform/common/services/clock/sam4l/pll.h ****  */
  66:../../../platform/common/services/clock/sam4l/pll.h **** #define PLL_TIMEOUT_MS \
  67:../../../platform/common/services/clock/sam4l/pll.h **** 	div_ceil(1000 * (PLL_MAX_STARTUP_CYCLES * 2), OSC_RCSYS_MIN_HZ)
  68:../../../platform/common/services/clock/sam4l/pll.h **** 
  69:../../../platform/common/services/clock/sam4l/pll.h **** /**
  70:../../../platform/common/services/clock/sam4l/pll.h ****  * \note The PLL must run at twice this frequency internally, but the
  71:../../../platform/common/services/clock/sam4l/pll.h ****  * output frequency may be divided by two by setting the PLLOPT[1] bit.
  72:../../../platform/common/services/clock/sam4l/pll.h ****  */
  73:../../../platform/common/services/clock/sam4l/pll.h **** #define PLL_MIN_HZ                40000000
  74:../../../platform/common/services/clock/sam4l/pll.h **** #define PLL_MAX_HZ                240000000
  75:../../../platform/common/services/clock/sam4l/pll.h **** 
  76:../../../platform/common/services/clock/sam4l/pll.h **** //! \name Chip-specific PLL options
  77:../../../platform/common/services/clock/sam4l/pll.h **** //@{
  78:../../../platform/common/services/clock/sam4l/pll.h **** //! VCO frequency range is 160-240 MHz (80-180 MHz if unset).
  79:../../../platform/common/services/clock/sam4l/pll.h **** #define PLL_OPT_VCO_RANGE_HIGH    0
  80:../../../platform/common/services/clock/sam4l/pll.h **** //! Divide output frequency by two
  81:../../../platform/common/services/clock/sam4l/pll.h **** #define PLL_OPT_OUTPUT_DIV        1
  82:../../../platform/common/services/clock/sam4l/pll.h **** //! Disable wide-bandwidth mode
  83:../../../platform/common/services/clock/sam4l/pll.h **** #define PLL_OPT_WBM_DISABLE       2
  84:../../../platform/common/services/clock/sam4l/pll.h **** //! Number of PLL options
  85:../../../platform/common/services/clock/sam4l/pll.h **** #define PLL_NR_OPTIONS            3
  86:../../../platform/common/services/clock/sam4l/pll.h **** //! The threshold above which to set the #PLL_OPT_VCO_RANGE_HIGH option
  87:../../../platform/common/services/clock/sam4l/pll.h **** #define PLL_VCO_LOW_THRESHOLD     ((SCIF_PLL0_VCO_RANGE1_MIN_FREQ \
  88:../../../platform/common/services/clock/sam4l/pll.h **** 	+ SCIF_PLL0_VCO_RANGE0_MAX_FREQ) / 2)
  89:../../../platform/common/services/clock/sam4l/pll.h **** //@}
  90:../../../platform/common/services/clock/sam4l/pll.h **** 
  91:../../../platform/common/services/clock/sam4l/pll.h **** #ifndef __ASSEMBLY__
  92:../../../platform/common/services/clock/sam4l/pll.h **** 
  93:../../../platform/common/services/clock/sam4l/pll.h **** #include <compiler.h>
  94:../../../platform/common/services/clock/sam4l/pll.h **** #include <osc.h>
  95:../../../platform/common/services/clock/sam4l/pll.h **** 
  96:../../../platform/common/services/clock/sam4l/pll.h **** enum pll_source {
  97:../../../platform/common/services/clock/sam4l/pll.h **** 	PLL_SRC_OSC0            = 0,    //!< Oscillator 0
  98:../../../platform/common/services/clock/sam4l/pll.h **** 	PLL_SRC_GCLK9           = 1,    //!< Generic Clock 9
  99:../../../platform/common/services/clock/sam4l/pll.h **** 	PLL_NR_SOURCES,                 //!< Number of PLL sources
 100:../../../platform/common/services/clock/sam4l/pll.h **** };
 101:../../../platform/common/services/clock/sam4l/pll.h **** 
 102:../../../platform/common/services/clock/sam4l/pll.h **** struct pll_config {
 103:../../../platform/common/services/clock/sam4l/pll.h **** 	uint32_t ctrl;
 104:../../../platform/common/services/clock/sam4l/pll.h **** };
 105:../../../platform/common/services/clock/sam4l/pll.h **** 
 106:../../../platform/common/services/clock/sam4l/pll.h **** #define pll_get_default_rate(pll_id)                \
 107:../../../platform/common/services/clock/sam4l/pll.h **** 	((osc_get_rate(CONFIG_PLL ## pll_id ## _SOURCE) \
 108:../../../platform/common/services/clock/sam4l/pll.h **** 	* CONFIG_PLL ## pll_id ## _MUL)                 \
 109:../../../platform/common/services/clock/sam4l/pll.h **** 	/ CONFIG_PLL ## pll_id ## _DIV)
 110:../../../platform/common/services/clock/sam4l/pll.h **** 
 111:../../../platform/common/services/clock/sam4l/pll.h **** static inline void pll_config_set_option(struct pll_config *cfg,
 112:../../../platform/common/services/clock/sam4l/pll.h **** 		uint32_t option)
 113:../../../platform/common/services/clock/sam4l/pll.h **** {
 650              	 .loc 6 113 0
 651              	 .cfi_startproc
 652              	 
 653              	 
 654              	 
 655 0260 80B4     	 push {r7}
 656              	.LCFI39:
 657              	 .cfi_def_cfa_offset 4
 658              	 .cfi_offset 7,-4
 659 0262 83B0     	 sub sp,sp,#12
 660              	.LCFI40:
 661              	 .cfi_def_cfa_offset 16
 662 0264 00AF     	 add r7,sp,#0
 663              	.LCFI41:
 664              	 .cfi_def_cfa_register 7
 665 0266 7860     	 str r0,[r7,#4]
 666 0268 3960     	 str r1,[r7]
 114:../../../platform/common/services/clock/sam4l/pll.h **** 	Assert(option < PLL_NR_OPTIONS);
 115:../../../platform/common/services/clock/sam4l/pll.h **** 
 116:../../../platform/common/services/clock/sam4l/pll.h **** 	cfg->ctrl |= 1U << (SCIF_PLL_PLLOPT_Pos + option);
 667              	 .loc 6 116 0
 668 026a 7B68     	 ldr r3,[r7,#4]
 669 026c 1A68     	 ldr r2,[r3]
 670 026e 3B68     	 ldr r3,[r7]
 671 0270 0333     	 adds r3,r3,#3
 672 0272 0121     	 movs r1,#1
 673 0274 01FA03F3 	 lsl r3,r1,r3
 674 0278 1A43     	 orrs r2,r2,r3
 675 027a 7B68     	 ldr r3,[r7,#4]
 676 027c 1A60     	 str r2,[r3]
 117:../../../platform/common/services/clock/sam4l/pll.h **** }
 677              	 .loc 6 117 0
 678 027e 00BF     	 nop
 679 0280 0C37     	 adds r7,r7,#12
 680              	.LCFI42:
 681              	 .cfi_def_cfa_offset 4
 682 0282 BD46     	 mov sp,r7
 683              	.LCFI43:
 684              	 .cfi_def_cfa_register 13
 685              	 
 686 0284 80BC     	 pop {r7}
 687              	.LCFI44:
 688              	 .cfi_restore 7
 689              	 .cfi_def_cfa_offset 0
 690 0286 7047     	 bx lr
 691              	 .cfi_endproc
 692              	.LFE131:
 694              	 .align 1
 695              	 .syntax unified
 696              	 .thumb
 697              	 .thumb_func
 698              	 .fpu softvfp
 700              	pll_config_init:
 701              	.LFB133:
 118:../../../platform/common/services/clock/sam4l/pll.h **** 
 119:../../../platform/common/services/clock/sam4l/pll.h **** static inline void pll_config_clear_option(struct pll_config *cfg,
 120:../../../platform/common/services/clock/sam4l/pll.h **** 		uint32_t option)
 121:../../../platform/common/services/clock/sam4l/pll.h **** {
 122:../../../platform/common/services/clock/sam4l/pll.h **** 	Assert(option < PLL_NR_OPTIONS);
 123:../../../platform/common/services/clock/sam4l/pll.h **** 
 124:../../../platform/common/services/clock/sam4l/pll.h **** 	cfg->ctrl &= ~(1U << (SCIF_PLL_PLLOPT_Pos + option));
 125:../../../platform/common/services/clock/sam4l/pll.h **** }
 126:../../../platform/common/services/clock/sam4l/pll.h **** 
 127:../../../platform/common/services/clock/sam4l/pll.h **** /**
 128:../../../platform/common/services/clock/sam4l/pll.h ****  * The PLL options #PLL_OPT_VCO_RANGE_HIGH and #PLL_OPT_OUTPUT_DIV will
 129:../../../platform/common/services/clock/sam4l/pll.h ****  * be set automatically based on the calculated target frequency.
 130:../../../platform/common/services/clock/sam4l/pll.h ****  */
 131:../../../platform/common/services/clock/sam4l/pll.h **** static inline void pll_config_init(struct pll_config *cfg,
 132:../../../platform/common/services/clock/sam4l/pll.h **** 		enum pll_source src, uint32_t divide, uint32_t mul)
 133:../../../platform/common/services/clock/sam4l/pll.h **** {
 702              	 .loc 6 133 0
 703              	 .cfi_startproc
 704              	 
 705              	 
 706 0288 80B5     	 push {r7,lr}
 707              	.LCFI45:
 708              	 .cfi_def_cfa_offset 8
 709              	 .cfi_offset 7,-8
 710              	 .cfi_offset 14,-4
 711 028a 86B0     	 sub sp,sp,#24
 712              	.LCFI46:
 713              	 .cfi_def_cfa_offset 32
 714 028c 00AF     	 add r7,sp,#0
 715              	.LCFI47:
 716              	 .cfi_def_cfa_register 7
 717 028e F860     	 str r0,[r7,#12]
 718 0290 7A60     	 str r2,[r7,#4]
 719 0292 3B60     	 str r3,[r7]
 720 0294 0B46     	 mov r3,r1
 721 0296 FB72     	 strb r3,[r7,#11]
 134:../../../platform/common/services/clock/sam4l/pll.h **** #define MUL_MIN    2
 135:../../../platform/common/services/clock/sam4l/pll.h **** #define MUL_MAX    16
 136:../../../platform/common/services/clock/sam4l/pll.h **** #define DIV_MIN    0
 137:../../../platform/common/services/clock/sam4l/pll.h **** #define DIV_MAX    15
 138:../../../platform/common/services/clock/sam4l/pll.h **** 
 139:../../../platform/common/services/clock/sam4l/pll.h **** 	uint32_t vco_hz;
 140:../../../platform/common/services/clock/sam4l/pll.h **** 
 141:../../../platform/common/services/clock/sam4l/pll.h **** 	Assert(src < PLL_NR_SOURCES);
 142:../../../platform/common/services/clock/sam4l/pll.h **** 	Assert(divide != 0);
 143:../../../platform/common/services/clock/sam4l/pll.h **** 
 144:../../../platform/common/services/clock/sam4l/pll.h **** 	/* Calculate internal VCO frequency */
 145:../../../platform/common/services/clock/sam4l/pll.h **** 	vco_hz = osc_get_rate(src) * mul;
 722              	 .loc 6 145 0
 723 0298 FB7A     	 ldrb r3,[r7,#11]
 724 029a 1846     	 mov r0,r3
 725 029c FFF792FF 	 bl osc_get_rate
 726 02a0 0246     	 mov r2,r0
 727 02a2 3B68     	 ldr r3,[r7]
 728 02a4 03FB02F3 	 mul r3,r3,r2
 729 02a8 7B61     	 str r3,[r7,#20]
 146:../../../platform/common/services/clock/sam4l/pll.h **** 	vco_hz /= divide;
 730              	 .loc 6 146 0
 731 02aa 7A69     	 ldr r2,[r7,#20]
 732 02ac 7B68     	 ldr r3,[r7,#4]
 733 02ae B2FBF3F3 	 udiv r3,r2,r3
 734 02b2 7B61     	 str r3,[r7,#20]
 147:../../../platform/common/services/clock/sam4l/pll.h **** 	Assert(vco_hz >= PLL_MIN_HZ);
 148:../../../platform/common/services/clock/sam4l/pll.h **** 	Assert(vco_hz <= PLL_MAX_HZ);
 149:../../../platform/common/services/clock/sam4l/pll.h **** 
 150:../../../platform/common/services/clock/sam4l/pll.h **** 	cfg->ctrl = 0;
 735              	 .loc 6 150 0
 736 02b4 FB68     	 ldr r3,[r7,#12]
 737 02b6 0022     	 movs r2,#0
 738 02b8 1A60     	 str r2,[r3]
 151:../../../platform/common/services/clock/sam4l/pll.h **** 
 152:../../../platform/common/services/clock/sam4l/pll.h **** 	/* Bring the internal VCO frequency up to the minimum value */
 153:../../../platform/common/services/clock/sam4l/pll.h **** 	if ((vco_hz < PLL_MIN_HZ * 2) && (mul <= 8)) {
 739              	 .loc 6 153 0
 740 02ba 7B69     	 ldr r3,[r7,#20]
 741 02bc 154A     	 ldr r2,.L59
 742 02be 9342     	 cmp r3,r2
 743 02c0 0CD8     	 bhi .L57
 744              	 .loc 6 153 0 is_stmt 0 discriminator 1
 745 02c2 3B68     	 ldr r3,[r7]
 746 02c4 082B     	 cmp r3,#8
 747 02c6 09D8     	 bhi .L57
 154:../../../platform/common/services/clock/sam4l/pll.h **** 		mul *= 2;
 748              	 .loc 6 154 0 is_stmt 1
 749 02c8 3B68     	 ldr r3,[r7]
 750 02ca 5B00     	 lsls r3,r3,#1
 751 02cc 3B60     	 str r3,[r7]
 155:../../../platform/common/services/clock/sam4l/pll.h **** 		vco_hz *= 2;
 752              	 .loc 6 155 0
 753 02ce 7B69     	 ldr r3,[r7,#20]
 754 02d0 5B00     	 lsls r3,r3,#1
 755 02d2 7B61     	 str r3,[r7,#20]
 156:../../../platform/common/services/clock/sam4l/pll.h **** 		pll_config_set_option(cfg, PLL_OPT_OUTPUT_DIV);
 756              	 .loc 6 156 0
 757 02d4 0121     	 movs r1,#1
 758 02d6 F868     	 ldr r0,[r7,#12]
 759 02d8 FFF7C2FF 	 bl pll_config_set_option
 760              	.L57:
 157:../../../platform/common/services/clock/sam4l/pll.h **** 	}
 158:../../../platform/common/services/clock/sam4l/pll.h **** 
 159:../../../platform/common/services/clock/sam4l/pll.h **** 	/* Set VCO frequency range according to calculated value */
 160:../../../platform/common/services/clock/sam4l/pll.h **** 	if (vco_hz >= PLL_VCO_LOW_THRESHOLD) {
 761              	 .loc 6 160 0
 762 02dc 7B69     	 ldr r3,[r7,#20]
 763 02de 0E4A     	 ldr r2,.L59+4
 764 02e0 9342     	 cmp r3,r2
 765 02e2 03D9     	 bls .L58
 161:../../../platform/common/services/clock/sam4l/pll.h **** 		pll_config_set_option(cfg, PLL_OPT_VCO_RANGE_HIGH);
 766              	 .loc 6 161 0
 767 02e4 0021     	 movs r1,#0
 768 02e6 F868     	 ldr r0,[r7,#12]
 769 02e8 FFF7BAFF 	 bl pll_config_set_option
 770              	.L58:
 162:../../../platform/common/services/clock/sam4l/pll.h **** 	}
 163:../../../platform/common/services/clock/sam4l/pll.h **** 
 164:../../../platform/common/services/clock/sam4l/pll.h **** 	Assert(mul > MUL_MIN && mul <= MUL_MAX);
 165:../../../platform/common/services/clock/sam4l/pll.h **** 	Assert(divide > DIV_MIN && divide <= DIV_MAX);
 166:../../../platform/common/services/clock/sam4l/pll.h **** 
 167:../../../platform/common/services/clock/sam4l/pll.h **** 	cfg->ctrl |= ((mul - 1) << SCIF_PLL_PLLMUL_Pos)
 771              	 .loc 6 167 0
 772 02ec FB68     	 ldr r3,[r7,#12]
 773 02ee 1A68     	 ldr r2,[r3]
 774 02f0 3B68     	 ldr r3,[r7]
 775 02f2 013B     	 subs r3,r3,#1
 776 02f4 1904     	 lsls r1,r3,#16
 168:../../../platform/common/services/clock/sam4l/pll.h **** 			| (divide << SCIF_PLL_PLLDIV_Pos)
 777              	 .loc 6 168 0
 778 02f6 7B68     	 ldr r3,[r7,#4]
 779 02f8 1B02     	 lsls r3,r3,#8
 780 02fa 0B43     	 orrs r3,r3,r1
 169:../../../platform/common/services/clock/sam4l/pll.h **** 			| (PLL_MAX_STARTUP_CYCLES << SCIF_PLL_PLLCOUNT_Pos)
 170:../../../platform/common/services/clock/sam4l/pll.h **** 			| (src << SCIF_PLL_PLLOSC_Pos);
 781              	 .loc 6 170 0
 782 02fc F97A     	 ldrb r1,[r7,#11]
 783 02fe 4900     	 lsls r1,r1,#1
 784 0300 0B43     	 orrs r3,r3,r1
 167:../../../platform/common/services/clock/sam4l/pll.h **** 			| (divide << SCIF_PLL_PLLDIV_Pos)
 785              	 .loc 6 167 0
 786 0302 1343     	 orrs r3,r3,r2
 787 0304 43F07C52 	 orr r2,r3,#1056964608
 788 0308 FB68     	 ldr r3,[r7,#12]
 789 030a 1A60     	 str r2,[r3]
 171:../../../platform/common/services/clock/sam4l/pll.h **** }
 790              	 .loc 6 171 0
 791 030c 00BF     	 nop
 792 030e 1837     	 adds r7,r7,#24
 793              	.LCFI48:
 794              	 .cfi_def_cfa_offset 8
 795 0310 BD46     	 mov sp,r7
 796              	.LCFI49:
 797              	 .cfi_def_cfa_register 13
 798              	 
 799 0312 80BD     	 pop {r7,pc}
 800              	.L60:
 801              	 .align 2
 802              	.L59:
 803 0314 FFB3C404 	 .word 79999999
 804 0318 7FFE210A 	 .word 169999999
 805              	 .cfi_endproc
 806              	.LFE133:
 808              	 .align 1
 809              	 .syntax unified
 810              	 .thumb
 811              	 .thumb_func
 812              	 .fpu softvfp
 814              	pll_is_locked:
 815              	.LFB135:
 172:../../../platform/common/services/clock/sam4l/pll.h **** 
 173:../../../platform/common/services/clock/sam4l/pll.h **** #define pll_config_defaults(cfg, pll_id) \
 174:../../../platform/common/services/clock/sam4l/pll.h **** 	pll_config_init(cfg,                 \
 175:../../../platform/common/services/clock/sam4l/pll.h **** 		CONFIG_PLL ## pll_id ## _SOURCE, \
 176:../../../platform/common/services/clock/sam4l/pll.h **** 		CONFIG_PLL ## pll_id ## _DIV,    \
 177:../../../platform/common/services/clock/sam4l/pll.h **** 		CONFIG_PLL ## pll_id ## _MUL)
 178:../../../platform/common/services/clock/sam4l/pll.h **** 
 179:../../../platform/common/services/clock/sam4l/pll.h **** static inline void pll_config_read(struct pll_config *cfg, uint32_t pll_id)
 180:../../../platform/common/services/clock/sam4l/pll.h **** {
 181:../../../platform/common/services/clock/sam4l/pll.h **** 	Assert(pll_id < NR_PLLS);
 182:../../../platform/common/services/clock/sam4l/pll.h **** 
 183:../../../platform/common/services/clock/sam4l/pll.h **** 	cfg->ctrl = SCIF->SCIF_PLL[pll_id].SCIF_PLL;
 184:../../../platform/common/services/clock/sam4l/pll.h **** }
 185:../../../platform/common/services/clock/sam4l/pll.h **** 
 186:../../../platform/common/services/clock/sam4l/pll.h **** extern void pll_config_write(const struct pll_config *cfg, uint32_t pll_id);
 187:../../../platform/common/services/clock/sam4l/pll.h **** extern void pll_enable(const struct pll_config *cfg, uint32_t pll_id);
 188:../../../platform/common/services/clock/sam4l/pll.h **** extern void pll_disable(uint32_t pll_id);
 189:../../../platform/common/services/clock/sam4l/pll.h **** 
 190:../../../platform/common/services/clock/sam4l/pll.h **** static inline bool pll_is_locked(uint32_t pll_id)
 191:../../../platform/common/services/clock/sam4l/pll.h **** {
 816              	 .loc 6 191 0
 817              	 .cfi_startproc
 818              	 
 819              	 
 820              	 
 821 031c 80B4     	 push {r7}
 822              	.LCFI50:
 823              	 .cfi_def_cfa_offset 4
 824              	 .cfi_offset 7,-4
 825 031e 83B0     	 sub sp,sp,#12
 826              	.LCFI51:
 827              	 .cfi_def_cfa_offset 16
 828 0320 00AF     	 add r7,sp,#0
 829              	.LCFI52:
 830              	 .cfi_def_cfa_register 7
 831 0322 7860     	 str r0,[r7,#4]
 192:../../../platform/common/services/clock/sam4l/pll.h **** 	Assert(pll_id < NR_PLLS);
 193:../../../platform/common/services/clock/sam4l/pll.h **** 	return !!(SCIF->SCIF_PCLKSR & (1U << (6 + pll_id)));
 832              	 .loc 6 193 0
 833 0324 084B     	 ldr r3,.L63
 834 0326 5A69     	 ldr r2,[r3,#20]
 835 0328 7B68     	 ldr r3,[r7,#4]
 836 032a 0633     	 adds r3,r3,#6
 837 032c 0121     	 movs r1,#1
 838 032e 01FA03F3 	 lsl r3,r1,r3
 839 0332 1340     	 ands r3,r3,r2
 840 0334 002B     	 cmp r3,#0
 841 0336 14BF     	 ite ne
 842 0338 0123     	 movne r3,#1
 843 033a 0023     	 moveq r3,#0
 844 033c DBB2     	 uxtb r3,r3
 194:../../../platform/common/services/clock/sam4l/pll.h **** }
 845              	 .loc 6 194 0
 846 033e 1846     	 mov r0,r3
 847 0340 0C37     	 adds r7,r7,#12
 848              	.LCFI53:
 849              	 .cfi_def_cfa_offset 4
 850 0342 BD46     	 mov sp,r7
 851              	.LCFI54:
 852              	 .cfi_def_cfa_register 13
 853              	 
 854 0344 80BC     	 pop {r7}
 855              	.LCFI55:
 856              	 .cfi_restore 7
 857              	 .cfi_def_cfa_offset 0
 858 0346 7047     	 bx lr
 859              	.L64:
 860              	 .align 2
 861              	.L63:
 862 0348 00080E40 	 .word 1074661376
 863              	 .cfi_endproc
 864              	.LFE135:
 866              	 .align 1
 867              	 .syntax unified
 868              	 .thumb
 869              	 .thumb_func
 870              	 .fpu softvfp
 872              	pll_enable_source:
 873              	.LFB136:
 195:../../../platform/common/services/clock/sam4l/pll.h **** 
 196:../../../platform/common/services/clock/sam4l/pll.h **** static inline void pll_enable_source(enum pll_source src)
 197:../../../platform/common/services/clock/sam4l/pll.h **** {
 874              	 .loc 6 197 0
 875              	 .cfi_startproc
 876              	 
 877              	 
 878 034c 80B5     	 push {r7,lr}
 879              	.LCFI56:
 880              	 .cfi_def_cfa_offset 8
 881              	 .cfi_offset 7,-8
 882              	 .cfi_offset 14,-4
 883 034e 82B0     	 sub sp,sp,#8
 884              	.LCFI57:
 885              	 .cfi_def_cfa_offset 16
 886 0350 00AF     	 add r7,sp,#0
 887              	.LCFI58:
 888              	 .cfi_def_cfa_register 7
 889 0352 0346     	 mov r3,r0
 890 0354 FB71     	 strb r3,[r7,#7]
 198:../../../platform/common/services/clock/sam4l/pll.h **** 	switch (src) {
 891              	 .loc 6 198 0
 892 0356 FB79     	 ldrb r3,[r7,#7]
 893 0358 002B     	 cmp r3,#0
 894 035a 00D0     	 beq .L67
 199:../../../platform/common/services/clock/sam4l/pll.h **** 	case PLL_SRC_OSC0:
 200:../../../platform/common/services/clock/sam4l/pll.h **** 		if (!osc_is_ready(OSC_ID_OSC0)) {
 201:../../../platform/common/services/clock/sam4l/pll.h **** 			osc_enable(OSC_ID_OSC0);
 202:../../../platform/common/services/clock/sam4l/pll.h **** 			osc_wait_ready(OSC_ID_OSC0);
 203:../../../platform/common/services/clock/sam4l/pll.h **** 		}
 204:../../../platform/common/services/clock/sam4l/pll.h **** 		break;
 205:../../../platform/common/services/clock/sam4l/pll.h **** #ifdef CONFIG_GCLK9_SOURCE
 206:../../../platform/common/services/clock/sam4l/pll.h **** 	case PLL_SRC_GCLK9:
 207:../../../platform/common/services/clock/sam4l/pll.h **** 		SCIF->SCIF_GCCTRL[9].SCIF_GCCTRL =
 208:../../../platform/common/services/clock/sam4l/pll.h **** 			SCIF_GCCTRL_OSCSEL(CONFIG_GCLK9_SOURCE) |
 209:../../../platform/common/services/clock/sam4l/pll.h **** 			SCIF_GCCTRL_CEN;
 210:../../../platform/common/services/clock/sam4l/pll.h **** 		break;
 211:../../../platform/common/services/clock/sam4l/pll.h **** #endif
 212:../../../platform/common/services/clock/sam4l/pll.h **** 	default:
 213:../../../platform/common/services/clock/sam4l/pll.h **** 		Assert(false);
 214:../../../platform/common/services/clock/sam4l/pll.h **** 		break;
 895              	 .loc 6 214 0
 896 035c 0FE0     	 b .L69
 897              	.L67:
 200:../../../platform/common/services/clock/sam4l/pll.h **** 			osc_enable(OSC_ID_OSC0);
 898              	 .loc 6 200 0
 899 035e 0020     	 movs r0,#0
 900 0360 FFF7CEFE 	 bl osc_is_ready
 901 0364 0346     	 mov r3,r0
 902 0366 83F00103 	 eor r3,r3,#1
 903 036a DBB2     	 uxtb r3,r3
 904 036c 002B     	 cmp r3,#0
 905 036e 05D0     	 beq .L70
 201:../../../platform/common/services/clock/sam4l/pll.h **** 			osc_wait_ready(OSC_ID_OSC0);
 906              	 .loc 6 201 0
 907 0370 0020     	 movs r0,#0
 908 0372 FFF787FE 	 bl osc_enable
 202:../../../platform/common/services/clock/sam4l/pll.h **** 		}
 909              	 .loc 6 202 0
 910 0376 0020     	 movs r0,#0
 911 0378 FFF75EFF 	 bl osc_wait_ready
 912              	.L70:
 204:../../../platform/common/services/clock/sam4l/pll.h **** #ifdef CONFIG_GCLK9_SOURCE
 913              	 .loc 6 204 0
 914 037c 00BF     	 nop
 915              	.L69:
 215:../../../platform/common/services/clock/sam4l/pll.h **** 	}
 216:../../../platform/common/services/clock/sam4l/pll.h **** }
 916              	 .loc 6 216 0
 917 037e 00BF     	 nop
 918 0380 0837     	 adds r7,r7,#8
 919              	.LCFI59:
 920              	 .cfi_def_cfa_offset 8
 921 0382 BD46     	 mov sp,r7
 922              	.LCFI60:
 923              	 .cfi_def_cfa_register 13
 924              	 
 925 0384 80BD     	 pop {r7,pc}
 926              	 .cfi_endproc
 927              	.LFE136:
 929              	 .align 1
 930              	 .syntax unified
 931              	 .thumb
 932              	 .thumb_func
 933              	 .fpu softvfp
 935              	pll_enable_config_defaults:
 936              	.LFB137:
 217:../../../platform/common/services/clock/sam4l/pll.h **** 
 218:../../../platform/common/services/clock/sam4l/pll.h **** static inline void pll_enable_config_defaults(uint32_t pll_id)
 219:../../../platform/common/services/clock/sam4l/pll.h **** {
 937              	 .loc 6 219 0
 938              	 .cfi_startproc
 939              	 
 940              	 
 941 0386 80B5     	 push {r7,lr}
 942              	.LCFI61:
 943              	 .cfi_def_cfa_offset 8
 944              	 .cfi_offset 7,-8
 945              	 .cfi_offset 14,-4
 946 0388 84B0     	 sub sp,sp,#16
 947              	.LCFI62:
 948              	 .cfi_def_cfa_offset 24
 949 038a 00AF     	 add r7,sp,#0
 950              	.LCFI63:
 951              	 .cfi_def_cfa_register 7
 952 038c 7860     	 str r0,[r7,#4]
 220:../../../platform/common/services/clock/sam4l/pll.h **** 	struct pll_config pllcfg;
 221:../../../platform/common/services/clock/sam4l/pll.h **** 
 222:../../../platform/common/services/clock/sam4l/pll.h **** 	if (pll_is_locked(pll_id)) {
 953              	 .loc 6 222 0
 954 038e 7868     	 ldr r0,[r7,#4]
 955 0390 FFF7C4FF 	 bl pll_is_locked
 956 0394 0346     	 mov r3,r0
 957 0396 002B     	 cmp r3,#0
 958 0398 1FD1     	 bne .L78
 223:../../../platform/common/services/clock/sam4l/pll.h **** 		return; // Pll already running
 224:../../../platform/common/services/clock/sam4l/pll.h **** 	}
 225:../../../platform/common/services/clock/sam4l/pll.h **** 
 226:../../../platform/common/services/clock/sam4l/pll.h **** 	switch (pll_id) {
 959              	 .loc 6 226 0
 960 039a 7B68     	 ldr r3,[r7,#4]
 961 039c 002B     	 cmp r3,#0
 962 039e 00D0     	 beq .L75
 227:../../../platform/common/services/clock/sam4l/pll.h **** #ifdef CONFIG_PLL0_SOURCE
 228:../../../platform/common/services/clock/sam4l/pll.h **** 	case 0:
 229:../../../platform/common/services/clock/sam4l/pll.h **** 		pll_enable_source(CONFIG_PLL0_SOURCE);
 230:../../../platform/common/services/clock/sam4l/pll.h **** 		pll_config_init(&pllcfg,
 231:../../../platform/common/services/clock/sam4l/pll.h **** 				CONFIG_PLL0_SOURCE,
 232:../../../platform/common/services/clock/sam4l/pll.h **** 				CONFIG_PLL0_DIV,
 233:../../../platform/common/services/clock/sam4l/pll.h **** 				CONFIG_PLL0_MUL);
 234:../../../platform/common/services/clock/sam4l/pll.h **** 		break;
 235:../../../platform/common/services/clock/sam4l/pll.h **** 
 236:../../../platform/common/services/clock/sam4l/pll.h **** #endif
 237:../../../platform/common/services/clock/sam4l/pll.h **** 	default:
 238:../../../platform/common/services/clock/sam4l/pll.h **** 		Assert(false);
 239:../../../platform/common/services/clock/sam4l/pll.h **** 		break;
 963              	 .loc 6 239 0
 964 03a0 0AE0     	 b .L76
 965              	.L75:
 229:../../../platform/common/services/clock/sam4l/pll.h **** 		pll_config_init(&pllcfg,
 966              	 .loc 6 229 0
 967 03a2 0020     	 movs r0,#0
 968 03a4 FFF7D2FF 	 bl pll_enable_source
 230:../../../platform/common/services/clock/sam4l/pll.h **** 				CONFIG_PLL0_SOURCE,
 969              	 .loc 6 230 0
 970 03a8 07F10C00 	 add r0,r7,#12
 971 03ac 1023     	 movs r3,#16
 972 03ae 0422     	 movs r2,#4
 973 03b0 0021     	 movs r1,#0
 974 03b2 FFF769FF 	 bl pll_config_init
 234:../../../platform/common/services/clock/sam4l/pll.h **** 
 975              	 .loc 6 234 0
 976 03b6 00BF     	 nop
 977              	.L76:
 240:../../../platform/common/services/clock/sam4l/pll.h **** 	}
 241:../../../platform/common/services/clock/sam4l/pll.h **** 	pll_enable(&pllcfg, pll_id);
 978              	 .loc 6 241 0
 979 03b8 07F10C03 	 add r3,r7,#12
 980 03bc 7968     	 ldr r1,[r7,#4]
 981 03be 1846     	 mov r0,r3
 982 03c0 084B     	 ldr r3,.L79
 983 03c2 9847     	 blx r3
 984              	.LVL6:
 242:../../../platform/common/services/clock/sam4l/pll.h **** 	while (!pll_is_locked(pll_id));
 985              	 .loc 6 242 0
 986 03c4 00BF     	 nop
 987              	.L77:
 988              	 .loc 6 242 0 is_stmt 0 discriminator 1
 989 03c6 7868     	 ldr r0,[r7,#4]
 990 03c8 FFF7A8FF 	 bl pll_is_locked
 991 03cc 0346     	 mov r3,r0
 992 03ce 83F00103 	 eor r3,r3,#1
 993 03d2 DBB2     	 uxtb r3,r3
 994 03d4 002B     	 cmp r3,#0
 995 03d6 F6D1     	 bne .L77
 996 03d8 00E0     	 b .L71
 997              	.L78:
 223:../../../platform/common/services/clock/sam4l/pll.h **** 	}
 998              	 .loc 6 223 0 is_stmt 1
 999 03da 00BF     	 nop
 1000              	.L71:
 243:../../../platform/common/services/clock/sam4l/pll.h **** }
 1001              	 .loc 6 243 0
 1002 03dc 1037     	 adds r7,r7,#16
 1003              	.LCFI64:
 1004              	 .cfi_def_cfa_offset 8
 1005 03de BD46     	 mov sp,r7
 1006              	.LCFI65:
 1007              	 .cfi_def_cfa_register 13
 1008              	 
 1009 03e0 80BD     	 pop {r7,pc}
 1010              	.L80:
 1011 03e2 00BF     	 .align 2
 1012              	.L79:
 1013 03e4 00000000 	 .word pll_enable
 1014              	 .cfi_endproc
 1015              	.LFE137:
 1017              	 .align 1
 1018              	 .syntax unified
 1019              	 .thumb
 1020              	 .thumb_func
 1021              	 .fpu softvfp
 1023              	genclk_config_defaults:
 1024              	.LFB139:
 1025              	 .file 7 "../../../platform/common/services/clock/sam4l/genclk.h"
   1:../../../platform/common/services/clock/sam4l/genclk.h **** /**
   2:../../../platform/common/services/clock/sam4l/genclk.h ****  * \file
   3:../../../platform/common/services/clock/sam4l/genclk.h ****  *
   4:../../../platform/common/services/clock/sam4l/genclk.h ****  * \brief Chip-specific generic clock management
   5:../../../platform/common/services/clock/sam4l/genclk.h ****  *
   6:../../../platform/common/services/clock/sam4l/genclk.h ****  * Copyright (c) 2012 Atmel Corporation. All rights reserved.
   7:../../../platform/common/services/clock/sam4l/genclk.h ****  *
   8:../../../platform/common/services/clock/sam4l/genclk.h ****  * \asf_license_start
   9:../../../platform/common/services/clock/sam4l/genclk.h ****  *
  10:../../../platform/common/services/clock/sam4l/genclk.h ****  * \page License
  11:../../../platform/common/services/clock/sam4l/genclk.h ****  *
  12:../../../platform/common/services/clock/sam4l/genclk.h ****  * Redistribution and use in source and binary forms, with or without
  13:../../../platform/common/services/clock/sam4l/genclk.h ****  * modification, are permitted provided that the following conditions are met:
  14:../../../platform/common/services/clock/sam4l/genclk.h ****  *
  15:../../../platform/common/services/clock/sam4l/genclk.h ****  * 1. Redistributions of source code must retain the above copyright notice,
  16:../../../platform/common/services/clock/sam4l/genclk.h ****  *    this list of conditions and the following disclaimer.
  17:../../../platform/common/services/clock/sam4l/genclk.h ****  *
  18:../../../platform/common/services/clock/sam4l/genclk.h ****  * 2. Redistributions in binary form must reproduce the above copyright notice,
  19:../../../platform/common/services/clock/sam4l/genclk.h ****  *    this list of conditions and the following disclaimer in the documentation
  20:../../../platform/common/services/clock/sam4l/genclk.h ****  *    and/or other materials provided with the distribution.
  21:../../../platform/common/services/clock/sam4l/genclk.h ****  *
  22:../../../platform/common/services/clock/sam4l/genclk.h ****  * 3. The name of Atmel may not be used to endorse or promote products derived
  23:../../../platform/common/services/clock/sam4l/genclk.h ****  *    from this software without specific prior written permission.
  24:../../../platform/common/services/clock/sam4l/genclk.h ****  *
  25:../../../platform/common/services/clock/sam4l/genclk.h ****  * 4. This software may only be redistributed and used in connection with an
  26:../../../platform/common/services/clock/sam4l/genclk.h ****  *    Atmel microcontroller product.
  27:../../../platform/common/services/clock/sam4l/genclk.h ****  *
  28:../../../platform/common/services/clock/sam4l/genclk.h ****  * THIS SOFTWARE IS PROVIDED BY ATMEL "AS IS" AND ANY EXPRESS OR IMPLIED
  29:../../../platform/common/services/clock/sam4l/genclk.h ****  * WARRANTIES, INCLUDING, BUT NOT LIMITED TO, THE IMPLIED WARRANTIES OF
  30:../../../platform/common/services/clock/sam4l/genclk.h ****  * MERCHANTABILITY, FITNESS FOR A PARTICULAR PURPOSE AND NON-INFRINGEMENT ARE
  31:../../../platform/common/services/clock/sam4l/genclk.h ****  * EXPRESSLY AND SPECIFICALLY DISCLAIMED. IN NO EVENT SHALL ATMEL BE LIABLE FOR
  32:../../../platform/common/services/clock/sam4l/genclk.h ****  * ANY DIRECT, INDIRECT, INCIDENTAL, SPECIAL, EXEMPLARY, OR CONSEQUENTIAL
  33:../../../platform/common/services/clock/sam4l/genclk.h ****  * DAMAGES (INCLUDING, BUT NOT LIMITED TO, PROCUREMENT OF SUBSTITUTE GOODS
  34:../../../platform/common/services/clock/sam4l/genclk.h ****  * OR SERVICES; LOSS OF USE, DATA, OR PROFITS; OR BUSINESS INTERRUPTION)
  35:../../../platform/common/services/clock/sam4l/genclk.h ****  * HOWEVER CAUSED AND ON ANY THEORY OF LIABILITY, WHETHER IN CONTRACT,
  36:../../../platform/common/services/clock/sam4l/genclk.h ****  * STRICT LIABILITY, OR TORT (INCLUDING NEGLIGENCE OR OTHERWISE) ARISING IN
  37:../../../platform/common/services/clock/sam4l/genclk.h ****  * ANY WAY OUT OF THE USE OF THIS SOFTWARE, EVEN IF ADVISED OF THE
  38:../../../platform/common/services/clock/sam4l/genclk.h ****  * POSSIBILITY OF SUCH DAMAGE.
  39:../../../platform/common/services/clock/sam4l/genclk.h ****  *
  40:../../../platform/common/services/clock/sam4l/genclk.h ****  * \asf_license_stop
  41:../../../platform/common/services/clock/sam4l/genclk.h ****  *
  42:../../../platform/common/services/clock/sam4l/genclk.h ****  */
  43:../../../platform/common/services/clock/sam4l/genclk.h **** #ifndef CHIP_GENCLK_H_INCLUDED
  44:../../../platform/common/services/clock/sam4l/genclk.h **** #define CHIP_GENCLK_H_INCLUDED
  45:../../../platform/common/services/clock/sam4l/genclk.h **** 
  46:../../../platform/common/services/clock/sam4l/genclk.h **** #ifdef __cplusplus
  47:../../../platform/common/services/clock/sam4l/genclk.h **** extern "C" {
  48:../../../platform/common/services/clock/sam4l/genclk.h **** #endif
  49:../../../platform/common/services/clock/sam4l/genclk.h **** 
  50:../../../platform/common/services/clock/sam4l/genclk.h **** // dfll.h is not included to avoid a circular dependency.
  51:../../../platform/common/services/clock/sam4l/genclk.h **** extern void dfll_enable_config_defaults(uint32_t dfll_id);
  52:../../../platform/common/services/clock/sam4l/genclk.h **** 
  53:../../../platform/common/services/clock/sam4l/genclk.h **** /**
  54:../../../platform/common/services/clock/sam4l/genclk.h ****  * \weakgroup genclk_group
  55:../../../platform/common/services/clock/sam4l/genclk.h ****  * @{
  56:../../../platform/common/services/clock/sam4l/genclk.h ****  */
  57:../../../platform/common/services/clock/sam4l/genclk.h **** 
  58:../../../platform/common/services/clock/sam4l/genclk.h **** //! \name Chip-specific generic clock definitions
  59:../../../platform/common/services/clock/sam4l/genclk.h **** //@{
  60:../../../platform/common/services/clock/sam4l/genclk.h **** 
  61:../../../platform/common/services/clock/sam4l/genclk.h **** #define GENCLK_DIV_MAX          256
  62:../../../platform/common/services/clock/sam4l/genclk.h **** 
  63:../../../platform/common/services/clock/sam4l/genclk.h **** #ifndef __ASSEMBLY__
  64:../../../platform/common/services/clock/sam4l/genclk.h **** 
  65:../../../platform/common/services/clock/sam4l/genclk.h **** #include <compiler.h>
  66:../../../platform/common/services/clock/sam4l/genclk.h **** #include <osc.h>
  67:../../../platform/common/services/clock/sam4l/genclk.h **** #include <pll.h>
  68:../../../platform/common/services/clock/sam4l/genclk.h **** 
  69:../../../platform/common/services/clock/sam4l/genclk.h **** enum genclk_source {
  70:../../../platform/common/services/clock/sam4l/genclk.h **** 	GENCLK_SRC_RCSYS        = 0,    //!< System RC oscillator
  71:../../../platform/common/services/clock/sam4l/genclk.h **** 	GENCLK_SRC_OSC32K       = 1,    //!< 32 kHz oscillator
  72:../../../platform/common/services/clock/sam4l/genclk.h **** 	GENCLK_SRC_DFLL         = 2,    //!< DFLL
  73:../../../platform/common/services/clock/sam4l/genclk.h **** 	GENCLK_SRC_OSC0         = 3,    //!< Oscillator 0
  74:../../../platform/common/services/clock/sam4l/genclk.h **** 	GENCLK_SRC_RC80M        = 4,    //!< 80 MHz RC oscillator
  75:../../../platform/common/services/clock/sam4l/genclk.h **** 	GENCLK_SRC_RCFAST       = 5,    //!< 4-8-12 MHz RC oscillator
  76:../../../platform/common/services/clock/sam4l/genclk.h **** 	GENCLK_SRC_RC1M         = 6,    //!< 1 MHz RC oscillator
  77:../../../platform/common/services/clock/sam4l/genclk.h **** 	GENCLK_SRC_CLK_CPU      = 7,    //!< CPU clock
  78:../../../platform/common/services/clock/sam4l/genclk.h **** 	GENCLK_SRC_CLK_HSB      = 8,    //!< High Speed Bus clock
  79:../../../platform/common/services/clock/sam4l/genclk.h **** 	GENCLK_SRC_CLK_PBA      = 9,    //!< Peripheral Bus A clock
  80:../../../platform/common/services/clock/sam4l/genclk.h **** 	GENCLK_SRC_CLK_PBB      = 10,   //!< Peripheral Bus B clock
  81:../../../platform/common/services/clock/sam4l/genclk.h **** 	GENCLK_SRC_CLK_PBC      = 11,   //!< Peripheral Bus C clock
  82:../../../platform/common/services/clock/sam4l/genclk.h **** 	GENCLK_SRC_CLK_PBD      = 12,   //!< Peripheral Bus D clock
  83:../../../platform/common/services/clock/sam4l/genclk.h **** 	GENCLK_SRC_RC32K        = 13,   //!< 32 kHz RC oscillator
  84:../../../platform/common/services/clock/sam4l/genclk.h **** 	GENCLK_SRC_CLK_1K       = 15,   //!< 1 kHz output from OSC32K
  85:../../../platform/common/services/clock/sam4l/genclk.h **** 	GENCLK_SRC_PLL0         = 16,   //!< PLL0
  86:../../../platform/common/services/clock/sam4l/genclk.h **** 	GENCLK_SRC_HRPCLK       = 17,   //!< High resolution prescaler
  87:../../../platform/common/services/clock/sam4l/genclk.h **** 	GENCLK_SRC_FPCLK        = 18,   //!< Fractional prescaler
  88:../../../platform/common/services/clock/sam4l/genclk.h **** 	GENCLK_SRC_GCLKIN0      = 19,   //!< GCLKIN0
  89:../../../platform/common/services/clock/sam4l/genclk.h **** 	GENCLK_SRC_GCLKIN1      = 20,   //!< GCLKIN1
  90:../../../platform/common/services/clock/sam4l/genclk.h **** 	GENCLK_SRC_GCLK11       = 21,   //!< GCLK11
  91:../../../platform/common/services/clock/sam4l/genclk.h **** };
  92:../../../platform/common/services/clock/sam4l/genclk.h **** 
  93:../../../platform/common/services/clock/sam4l/genclk.h **** //@}
  94:../../../platform/common/services/clock/sam4l/genclk.h **** 
  95:../../../platform/common/services/clock/sam4l/genclk.h **** struct genclk_config {
  96:../../../platform/common/services/clock/sam4l/genclk.h **** 	uint32_t ctrl;
  97:../../../platform/common/services/clock/sam4l/genclk.h **** };
  98:../../../platform/common/services/clock/sam4l/genclk.h **** 
  99:../../../platform/common/services/clock/sam4l/genclk.h **** static inline void genclk_config_defaults(struct genclk_config *cfg,
 100:../../../platform/common/services/clock/sam4l/genclk.h **** 		uint32_t id)
 101:../../../platform/common/services/clock/sam4l/genclk.h **** {
 1026              	 .loc 7 101 0
 1027              	 .cfi_startproc
 1028              	 
 1029              	 
 1030              	 
 1031 03e8 80B4     	 push {r7}
 1032              	.LCFI66:
 1033              	 .cfi_def_cfa_offset 4
 1034              	 .cfi_offset 7,-4
 1035 03ea 83B0     	 sub sp,sp,#12
 1036              	.LCFI67:
 1037              	 .cfi_def_cfa_offset 16
 1038 03ec 00AF     	 add r7,sp,#0
 1039              	.LCFI68:
 1040              	 .cfi_def_cfa_register 7
 1041 03ee 7860     	 str r0,[r7,#4]
 1042 03f0 3960     	 str r1,[r7]
 102:../../../platform/common/services/clock/sam4l/genclk.h **** 	UNUSED(id);
 103:../../../platform/common/services/clock/sam4l/genclk.h **** 	cfg->ctrl = 0;
 1043              	 .loc 7 103 0
 1044 03f2 7B68     	 ldr r3,[r7,#4]
 1045 03f4 0022     	 movs r2,#0
 1046 03f6 1A60     	 str r2,[r3]
 104:../../../platform/common/services/clock/sam4l/genclk.h **** }
 1047              	 .loc 7 104 0
 1048 03f8 00BF     	 nop
 1049 03fa 0C37     	 adds r7,r7,#12
 1050              	.LCFI69:
 1051              	 .cfi_def_cfa_offset 4
 1052 03fc BD46     	 mov sp,r7
 1053              	.LCFI70:
 1054              	 .cfi_def_cfa_register 13
 1055              	 
 1056 03fe 80BC     	 pop {r7}
 1057              	.LCFI71:
 1058              	 .cfi_restore 7
 1059              	 .cfi_def_cfa_offset 0
 1060 0400 7047     	 bx lr
 1061              	 .cfi_endproc
 1062              	.LFE139:
 1064              	 .align 1
 1065              	 .syntax unified
 1066              	 .thumb
 1067              	 .thumb_func
 1068              	 .fpu softvfp
 1070              	genclk_config_set_source:
 1071              	.LFB142:
 105:../../../platform/common/services/clock/sam4l/genclk.h **** 
 106:../../../platform/common/services/clock/sam4l/genclk.h **** static inline void genclk_config_read(struct genclk_config *cfg,
 107:../../../platform/common/services/clock/sam4l/genclk.h **** 		uint32_t id)
 108:../../../platform/common/services/clock/sam4l/genclk.h **** {
 109:../../../platform/common/services/clock/sam4l/genclk.h **** 	cfg->ctrl = SCIF->SCIF_GCCTRL[id].SCIF_GCCTRL;
 110:../../../platform/common/services/clock/sam4l/genclk.h **** }
 111:../../../platform/common/services/clock/sam4l/genclk.h **** 
 112:../../../platform/common/services/clock/sam4l/genclk.h **** static inline void genclk_config_write(const struct genclk_config *cfg,
 113:../../../platform/common/services/clock/sam4l/genclk.h **** 		uint32_t id)
 114:../../../platform/common/services/clock/sam4l/genclk.h **** {
 115:../../../platform/common/services/clock/sam4l/genclk.h **** 	SCIF->SCIF_GCCTRL[id].SCIF_GCCTRL = cfg->ctrl;
 116:../../../platform/common/services/clock/sam4l/genclk.h **** }
 117:../../../platform/common/services/clock/sam4l/genclk.h **** 
 118:../../../platform/common/services/clock/sam4l/genclk.h **** static inline void genclk_config_set_source(struct genclk_config *cfg,
 119:../../../platform/common/services/clock/sam4l/genclk.h **** 		enum genclk_source src)
 120:../../../platform/common/services/clock/sam4l/genclk.h **** {
 1072              	 .loc 7 120 0
 1073              	 .cfi_startproc
 1074              	 
 1075              	 
 1076              	 
 1077 0402 80B4     	 push {r7}
 1078              	.LCFI72:
 1079              	 .cfi_def_cfa_offset 4
 1080              	 .cfi_offset 7,-4
 1081 0404 83B0     	 sub sp,sp,#12
 1082              	.LCFI73:
 1083              	 .cfi_def_cfa_offset 16
 1084 0406 00AF     	 add r7,sp,#0
 1085              	.LCFI74:
 1086              	 .cfi_def_cfa_register 7
 1087 0408 7860     	 str r0,[r7,#4]
 1088 040a 0B46     	 mov r3,r1
 1089 040c FB70     	 strb r3,[r7,#3]
 121:../../../platform/common/services/clock/sam4l/genclk.h **** 	cfg->ctrl = (cfg->ctrl & ~SCIF_GCCTRL_OSCSEL_Msk)
 1090              	 .loc 7 121 0
 1091 040e 7B68     	 ldr r3,[r7,#4]
 1092 0410 1B68     	 ldr r3,[r3]
 1093 0412 23F4F852 	 bic r2,r3,#7936
 122:../../../platform/common/services/clock/sam4l/genclk.h **** 			| SCIF_GCCTRL_OSCSEL(src);
 1094              	 .loc 7 122 0
 1095 0416 FB78     	 ldrb r3,[r7,#3]
 1096 0418 1B02     	 lsls r3,r3,#8
 1097 041a 03F4F853 	 and r3,r3,#7936
 1098 041e 1A43     	 orrs r2,r2,r3
 121:../../../platform/common/services/clock/sam4l/genclk.h **** 	cfg->ctrl = (cfg->ctrl & ~SCIF_GCCTRL_OSCSEL_Msk)
 1099              	 .loc 7 121 0
 1100 0420 7B68     	 ldr r3,[r7,#4]
 1101 0422 1A60     	 str r2,[r3]
 123:../../../platform/common/services/clock/sam4l/genclk.h **** }
 1102              	 .loc 7 123 0
 1103 0424 00BF     	 nop
 1104 0426 0C37     	 adds r7,r7,#12
 1105              	.LCFI75:
 1106              	 .cfi_def_cfa_offset 4
 1107 0428 BD46     	 mov sp,r7
 1108              	.LCFI76:
 1109              	 .cfi_def_cfa_register 13
 1110              	 
 1111 042a 80BC     	 pop {r7}
 1112              	.LCFI77:
 1113              	 .cfi_restore 7
 1114              	 .cfi_def_cfa_offset 0
 1115 042c 7047     	 bx lr
 1116              	 .cfi_endproc
 1117              	.LFE142:
 1119              	 .align 1
 1120              	 .syntax unified
 1121              	 .thumb
 1122              	 .thumb_func
 1123              	 .fpu softvfp
 1125              	genclk_config_set_divider:
 1126              	.LFB143:
 124:../../../platform/common/services/clock/sam4l/genclk.h **** 
 125:../../../platform/common/services/clock/sam4l/genclk.h **** static inline void genclk_config_set_divider(struct genclk_config *cfg,
 126:../../../platform/common/services/clock/sam4l/genclk.h **** 		uint32_t divider)
 127:../../../platform/common/services/clock/sam4l/genclk.h **** {
 1127              	 .loc 7 127 0
 1128              	 .cfi_startproc
 1129              	 
 1130              	 
 1131              	 
 1132 042e 80B4     	 push {r7}
 1133              	.LCFI78:
 1134              	 .cfi_def_cfa_offset 4
 1135              	 .cfi_offset 7,-4
 1136 0430 83B0     	 sub sp,sp,#12
 1137              	.LCFI79:
 1138              	 .cfi_def_cfa_offset 16
 1139 0432 00AF     	 add r7,sp,#0
 1140              	.LCFI80:
 1141              	 .cfi_def_cfa_register 7
 1142 0434 7860     	 str r0,[r7,#4]
 1143 0436 3960     	 str r1,[r7]
 128:../../../platform/common/services/clock/sam4l/genclk.h **** 	Assert(divider > 0 && divider <= GENCLK_DIV_MAX);
 129:../../../platform/common/services/clock/sam4l/genclk.h **** 
 130:../../../platform/common/services/clock/sam4l/genclk.h **** 	/* Clear all the bits we're about to modify */
 131:../../../platform/common/services/clock/sam4l/genclk.h **** 	cfg->ctrl &= ~(SCIF_GCCTRL_DIVEN
 1144              	 .loc 7 131 0
 1145 0438 7B68     	 ldr r3,[r7,#4]
 1146 043a 1A68     	 ldr r2,[r3]
 1147 043c 4FF6FD73 	 movw r3,#65533
 1148 0440 1340     	 ands r3,r3,r2
 1149 0442 7A68     	 ldr r2,[r7,#4]
 1150 0444 1360     	 str r3,[r2]
 132:../../../platform/common/services/clock/sam4l/genclk.h **** 			| SCIF_GCCTRL_DIV_Msk);
 133:../../../platform/common/services/clock/sam4l/genclk.h **** 
 134:../../../platform/common/services/clock/sam4l/genclk.h **** 	if (divider > 1) {
 1151              	 .loc 7 134 0
 1152 0446 3B68     	 ldr r3,[r7]
 1153 0448 012B     	 cmp r3,#1
 1154 044a 0FD9     	 bls .L85
 135:../../../platform/common/services/clock/sam4l/genclk.h **** 		cfg->ctrl |= SCIF_GCCTRL_DIVEN;
 1155              	 .loc 7 135 0
 1156 044c 7B68     	 ldr r3,[r7,#4]
 1157 044e 1B68     	 ldr r3,[r3]
 1158 0450 43F00202 	 orr r2,r3,#2
 1159 0454 7B68     	 ldr r3,[r7,#4]
 1160 0456 1A60     	 str r2,[r3]
 136:../../../platform/common/services/clock/sam4l/genclk.h **** 		cfg->ctrl |= SCIF_GCCTRL_DIV(((divider + 1) / 2) - 1);
 1161              	 .loc 7 136 0
 1162 0458 7B68     	 ldr r3,[r7,#4]
 1163 045a 1A68     	 ldr r2,[r3]
 1164 045c 3B68     	 ldr r3,[r7]
 1165 045e 0133     	 adds r3,r3,#1
 1166 0460 5B08     	 lsrs r3,r3,#1
 1167 0462 013B     	 subs r3,r3,#1
 1168 0464 1B04     	 lsls r3,r3,#16
 1169 0466 1A43     	 orrs r2,r2,r3
 1170 0468 7B68     	 ldr r3,[r7,#4]
 1171 046a 1A60     	 str r2,[r3]
 1172              	.L85:
 137:../../../platform/common/services/clock/sam4l/genclk.h **** 	}
 138:../../../platform/common/services/clock/sam4l/genclk.h **** }
 1173              	 .loc 7 138 0
 1174 046c 00BF     	 nop
 1175 046e 0C37     	 adds r7,r7,#12
 1176              	.LCFI81:
 1177              	 .cfi_def_cfa_offset 4
 1178 0470 BD46     	 mov sp,r7
 1179              	.LCFI82:
 1180              	 .cfi_def_cfa_register 13
 1181              	 
 1182 0472 80BC     	 pop {r7}
 1183              	.LCFI83:
 1184              	 .cfi_restore 7
 1185              	 .cfi_def_cfa_offset 0
 1186 0474 7047     	 bx lr
 1187              	 .cfi_endproc
 1188              	.LFE143:
 1190              	 .align 1
 1191              	 .syntax unified
 1192              	 .thumb
 1193              	 .thumb_func
 1194              	 .fpu softvfp
 1196              	genclk_enable:
 1197              	.LFB144:
 139:../../../platform/common/services/clock/sam4l/genclk.h **** 
 140:../../../platform/common/services/clock/sam4l/genclk.h **** static inline void genclk_enable(const struct genclk_config *cfg,
 141:../../../platform/common/services/clock/sam4l/genclk.h **** 		uint32_t id)
 142:../../../platform/common/services/clock/sam4l/genclk.h **** {
 1198              	 .loc 7 142 0
 1199              	 .cfi_startproc
 1200              	 
 1201              	 
 1202              	 
 1203 0476 80B4     	 push {r7}
 1204              	.LCFI84:
 1205              	 .cfi_def_cfa_offset 4
 1206              	 .cfi_offset 7,-4
 1207 0478 83B0     	 sub sp,sp,#12
 1208              	.LCFI85:
 1209              	 .cfi_def_cfa_offset 16
 1210 047a 00AF     	 add r7,sp,#0
 1211              	.LCFI86:
 1212              	 .cfi_def_cfa_register 7
 1213 047c 7860     	 str r0,[r7,#4]
 1214 047e 3960     	 str r1,[r7]
 143:../../../platform/common/services/clock/sam4l/genclk.h **** 	 SCIF->SCIF_GCCTRL[id].SCIF_GCCTRL = cfg->ctrl | SCIF_GCCTRL_CEN;
 1215              	 .loc 7 143 0
 1216 0480 0749     	 ldr r1,.L87
 1217 0482 7B68     	 ldr r3,[r7,#4]
 1218 0484 1B68     	 ldr r3,[r3]
 1219 0486 43F00102 	 orr r2,r3,#1
 1220 048a 3B68     	 ldr r3,[r7]
 1221 048c 1C33     	 adds r3,r3,#28
 1222 048e 9B00     	 lsls r3,r3,#2
 1223 0490 0B44     	 add r3,r3,r1
 1224 0492 5A60     	 str r2,[r3,#4]
 144:../../../platform/common/services/clock/sam4l/genclk.h **** }
 1225              	 .loc 7 144 0
 1226 0494 00BF     	 nop
 1227 0496 0C37     	 adds r7,r7,#12
 1228              	.LCFI87:
 1229              	 .cfi_def_cfa_offset 4
 1230 0498 BD46     	 mov sp,r7
 1231              	.LCFI88:
 1232              	 .cfi_def_cfa_register 13
 1233              	 
 1234 049a 80BC     	 pop {r7}
 1235              	.LCFI89:
 1236              	 .cfi_restore 7
 1237              	 .cfi_def_cfa_offset 0
 1238 049c 7047     	 bx lr
 1239              	.L88:
 1240 049e 00BF     	 .align 2
 1241              	.L87:
 1242 04a0 00080E40 	 .word 1074661376
 1243              	 .cfi_endproc
 1244              	.LFE144:
 1246              	 .align 1
 1247              	 .syntax unified
 1248              	 .thumb
 1249              	 .thumb_func
 1250              	 .fpu softvfp
 1252              	genclk_disable:
 1253              	.LFB145:
 145:../../../platform/common/services/clock/sam4l/genclk.h **** 
 146:../../../platform/common/services/clock/sam4l/genclk.h **** static inline void genclk_disable(uint32_t id)
 147:../../../platform/common/services/clock/sam4l/genclk.h **** {
 1254              	 .loc 7 147 0
 1255              	 .cfi_startproc
 1256              	 
 1257              	 
 1258              	 
 1259 04a4 80B4     	 push {r7}
 1260              	.LCFI90:
 1261              	 .cfi_def_cfa_offset 4
 1262              	 .cfi_offset 7,-4
 1263 04a6 83B0     	 sub sp,sp,#12
 1264              	.LCFI91:
 1265              	 .cfi_def_cfa_offset 16
 1266 04a8 00AF     	 add r7,sp,#0
 1267              	.LCFI92:
 1268              	 .cfi_def_cfa_register 7
 1269 04aa 7860     	 str r0,[r7,#4]
 148:../../../platform/common/services/clock/sam4l/genclk.h **** 	SCIF->SCIF_GCCTRL[id].SCIF_GCCTRL = 0;
 1270              	 .loc 7 148 0
 1271 04ac 054A     	 ldr r2,.L90
 1272 04ae 7B68     	 ldr r3,[r7,#4]
 1273 04b0 1C33     	 adds r3,r3,#28
 1274 04b2 9B00     	 lsls r3,r3,#2
 1275 04b4 1344     	 add r3,r3,r2
 1276 04b6 0022     	 movs r2,#0
 1277 04b8 5A60     	 str r2,[r3,#4]
 149:../../../platform/common/services/clock/sam4l/genclk.h **** }
 1278              	 .loc 7 149 0
 1279 04ba 00BF     	 nop
 1280 04bc 0C37     	 adds r7,r7,#12
 1281              	.LCFI93:
 1282              	 .cfi_def_cfa_offset 4
 1283 04be BD46     	 mov sp,r7
 1284              	.LCFI94:
 1285              	 .cfi_def_cfa_register 13
 1286              	 
 1287 04c0 80BC     	 pop {r7}
 1288              	.LCFI95:
 1289              	 .cfi_restore 7
 1290              	 .cfi_def_cfa_offset 0
 1291 04c2 7047     	 bx lr
 1292              	.L91:
 1293              	 .align 2
 1294              	.L90:
 1295 04c4 00080E40 	 .word 1074661376
 1296              	 .cfi_endproc
 1297              	.LFE145:
 1299              	 .align 1
 1300              	 .syntax unified
 1301              	 .thumb
 1302              	 .thumb_func
 1303              	 .fpu softvfp
 1305              	genclk_enable_source:
 1306              	.LFB146:
 150:../../../platform/common/services/clock/sam4l/genclk.h **** 
 151:../../../platform/common/services/clock/sam4l/genclk.h **** static inline void genclk_enable_source(enum genclk_source src)
 152:../../../platform/common/services/clock/sam4l/genclk.h **** {
 1307              	 .loc 7 152 0
 1308              	 .cfi_startproc
 1309              	 
 1310              	 
 1311 04c8 80B5     	 push {r7,lr}
 1312              	.LCFI96:
 1313              	 .cfi_def_cfa_offset 8
 1314              	 .cfi_offset 7,-8
 1315              	 .cfi_offset 14,-4
 1316 04ca 82B0     	 sub sp,sp,#8
 1317              	.LCFI97:
 1318              	 .cfi_def_cfa_offset 16
 1319 04cc 00AF     	 add r7,sp,#0
 1320              	.LCFI98:
 1321              	 .cfi_def_cfa_register 7
 1322 04ce 0346     	 mov r3,r0
 1323 04d0 FB71     	 strb r3,[r7,#7]
 153:../../../platform/common/services/clock/sam4l/genclk.h **** 	switch (src) {
 1324              	 .loc 7 153 0
 1325 04d2 FB79     	 ldrb r3,[r7,#7]
 1326 04d4 102B     	 cmp r3,#16
 1327 04d6 00F28D80 	 bhi .L111
 1328 04da 01A2     	 adr r2,.L95
 1329 04dc 52F823F0 	 ldr pc,[r2,r3,lsl#2]
 1330              	 .p2align 2
 1331              	.L95:
 1332 04e0 F5050000 	 .word .L111+1
 1333 04e4 25050000 	 .word .L96+1
 1334 04e8 C5050000 	 .word .L97+1
 1335 04ec CD050000 	 .word .L98+1
 1336 04f0 45050000 	 .word .L99+1
 1337 04f4 65050000 	 .word .L100+1
 1338 04f8 85050000 	 .word .L101+1
 1339 04fc F5050000 	 .word .L111+1
 1340 0500 F5050000 	 .word .L111+1
 1341 0504 F5050000 	 .word .L111+1
 1342 0508 F5050000 	 .word .L111+1
 1343 050c F5050000 	 .word .L111+1
 1344 0510 F5050000 	 .word .L111+1
 1345 0514 A5050000 	 .word .L102+1
 1346 0518 F5050000 	 .word .L111+1
 1347 051c 25050000 	 .word .L96+1
 1348 0520 ED050000 	 .word .L103+1
 1349              	 .p2align 1
 1350              	.L96:
 154:../../../platform/common/services/clock/sam4l/genclk.h **** 	case GENCLK_SRC_RCSYS:
 155:../../../platform/common/services/clock/sam4l/genclk.h **** 	case GENCLK_SRC_CLK_CPU:
 156:../../../platform/common/services/clock/sam4l/genclk.h **** 	case GENCLK_SRC_CLK_HSB:
 157:../../../platform/common/services/clock/sam4l/genclk.h **** 	case GENCLK_SRC_CLK_PBA:
 158:../../../platform/common/services/clock/sam4l/genclk.h **** 	case GENCLK_SRC_CLK_PBB:
 159:../../../platform/common/services/clock/sam4l/genclk.h **** 	case GENCLK_SRC_CLK_PBC:
 160:../../../platform/common/services/clock/sam4l/genclk.h **** 	case GENCLK_SRC_CLK_PBD:
 161:../../../platform/common/services/clock/sam4l/genclk.h **** 		// Nothing to do
 162:../../../platform/common/services/clock/sam4l/genclk.h **** 		break;
 163:../../../platform/common/services/clock/sam4l/genclk.h **** 
 164:../../../platform/common/services/clock/sam4l/genclk.h **** #ifdef BOARD_OSC32_HZ
 165:../../../platform/common/services/clock/sam4l/genclk.h **** 	case GENCLK_SRC_OSC32K:
 166:../../../platform/common/services/clock/sam4l/genclk.h **** 	case GENCLK_SRC_CLK_1K: // The 1K linked on OSC32K
 167:../../../platform/common/services/clock/sam4l/genclk.h **** 		if (!osc_is_ready(OSC_ID_OSC32)) {
 1351              	 .loc 7 167 0
 1352 0524 0120     	 movs r0,#1
 1353 0526 FFF7EBFD 	 bl osc_is_ready
 1354 052a 0346     	 mov r3,r0
 1355 052c 83F00103 	 eor r3,r3,#1
 1356 0530 DBB2     	 uxtb r3,r3
 1357 0532 002B     	 cmp r3,#0
 1358 0534 60D0     	 beq .L112
 168:../../../platform/common/services/clock/sam4l/genclk.h **** 			osc_enable(OSC_ID_OSC32);
 1359              	 .loc 7 168 0
 1360 0536 0120     	 movs r0,#1
 1361 0538 FFF7A4FD 	 bl osc_enable
 169:../../../platform/common/services/clock/sam4l/genclk.h **** 			osc_wait_ready(OSC_ID_OSC32);
 1362              	 .loc 7 169 0
 1363 053c 0120     	 movs r0,#1
 1364 053e FFF77BFE 	 bl osc_wait_ready
 170:../../../platform/common/services/clock/sam4l/genclk.h **** 		}
 171:../../../platform/common/services/clock/sam4l/genclk.h **** 		break;
 1365              	 .loc 7 171 0
 1366 0542 59E0     	 b .L112
 1367              	.L99:
 172:../../../platform/common/services/clock/sam4l/genclk.h **** #endif
 173:../../../platform/common/services/clock/sam4l/genclk.h **** 
 174:../../../platform/common/services/clock/sam4l/genclk.h **** 	case GENCLK_SRC_RC80M:
 175:../../../platform/common/services/clock/sam4l/genclk.h **** 		if (!osc_is_ready(OSC_ID_RC80M)) {
 1368              	 .loc 7 175 0
 1369 0544 0320     	 movs r0,#3
 1370 0546 FFF7DBFD 	 bl osc_is_ready
 1371 054a 0346     	 mov r3,r0
 1372 054c 83F00103 	 eor r3,r3,#1
 1373 0550 DBB2     	 uxtb r3,r3
 1374 0552 002B     	 cmp r3,#0
 1375 0554 52D0     	 beq .L113
 176:../../../platform/common/services/clock/sam4l/genclk.h **** 			osc_enable(OSC_ID_RC80M);
 1376              	 .loc 7 176 0
 1377 0556 0320     	 movs r0,#3
 1378 0558 FFF794FD 	 bl osc_enable
 177:../../../platform/common/services/clock/sam4l/genclk.h **** 			osc_wait_ready(OSC_ID_RC80M);
 1379              	 .loc 7 177 0
 1380 055c 0320     	 movs r0,#3
 1381 055e FFF76BFE 	 bl osc_wait_ready
 178:../../../platform/common/services/clock/sam4l/genclk.h **** 		}
 179:../../../platform/common/services/clock/sam4l/genclk.h **** 		break;
 1382              	 .loc 7 179 0
 1383 0562 4BE0     	 b .L113
 1384              	.L100:
 180:../../../platform/common/services/clock/sam4l/genclk.h **** 
 181:../../../platform/common/services/clock/sam4l/genclk.h **** 	case GENCLK_SRC_RCFAST:
 182:../../../platform/common/services/clock/sam4l/genclk.h **** 		if (!osc_is_ready(OSC_ID_RCFAST)) {
 1385              	 .loc 7 182 0
 1386 0564 0420     	 movs r0,#4
 1387 0566 FFF7CBFD 	 bl osc_is_ready
 1388 056a 0346     	 mov r3,r0
 1389 056c 83F00103 	 eor r3,r3,#1
 1390 0570 DBB2     	 uxtb r3,r3
 1391 0572 002B     	 cmp r3,#0
 1392 0574 44D0     	 beq .L114
 183:../../../platform/common/services/clock/sam4l/genclk.h **** 			osc_enable(OSC_ID_RCFAST);
 1393              	 .loc 7 183 0
 1394 0576 0420     	 movs r0,#4
 1395 0578 FFF784FD 	 bl osc_enable
 184:../../../platform/common/services/clock/sam4l/genclk.h **** 			osc_wait_ready(OSC_ID_RCFAST);
 1396              	 .loc 7 184 0
 1397 057c 0420     	 movs r0,#4
 1398 057e FFF75BFE 	 bl osc_wait_ready
 185:../../../platform/common/services/clock/sam4l/genclk.h **** 		}
 186:../../../platform/common/services/clock/sam4l/genclk.h **** 		break;
 1399              	 .loc 7 186 0
 1400 0582 3DE0     	 b .L114
 1401              	.L101:
 187:../../../platform/common/services/clock/sam4l/genclk.h **** 
 188:../../../platform/common/services/clock/sam4l/genclk.h **** 	case GENCLK_SRC_RC1M:
 189:../../../platform/common/services/clock/sam4l/genclk.h **** 		if (!osc_is_ready(OSC_ID_RC1M)) {
 1402              	 .loc 7 189 0
 1403 0584 0520     	 movs r0,#5
 1404 0586 FFF7BBFD 	 bl osc_is_ready
 1405 058a 0346     	 mov r3,r0
 1406 058c 83F00103 	 eor r3,r3,#1
 1407 0590 DBB2     	 uxtb r3,r3
 1408 0592 002B     	 cmp r3,#0
 1409 0594 36D0     	 beq .L115
 190:../../../platform/common/services/clock/sam4l/genclk.h **** 			osc_enable(OSC_ID_RC1M);
 1410              	 .loc 7 190 0
 1411 0596 0520     	 movs r0,#5
 1412 0598 FFF774FD 	 bl osc_enable
 191:../../../platform/common/services/clock/sam4l/genclk.h **** 			osc_wait_ready(OSC_ID_RC1M);
 1413              	 .loc 7 191 0
 1414 059c 0520     	 movs r0,#5
 1415 059e FFF74BFE 	 bl osc_wait_ready
 192:../../../platform/common/services/clock/sam4l/genclk.h **** 		}
 193:../../../platform/common/services/clock/sam4l/genclk.h **** 		break;
 1416              	 .loc 7 193 0
 1417 05a2 2FE0     	 b .L115
 1418              	.L102:
 194:../../../platform/common/services/clock/sam4l/genclk.h **** 
 195:../../../platform/common/services/clock/sam4l/genclk.h **** 	case GENCLK_SRC_RC32K:
 196:../../../platform/common/services/clock/sam4l/genclk.h **** 		if (!osc_is_ready(OSC_ID_RC32K)) {
 1419              	 .loc 7 196 0
 1420 05a4 0220     	 movs r0,#2
 1421 05a6 FFF7ABFD 	 bl osc_is_ready
 1422 05aa 0346     	 mov r3,r0
 1423 05ac 83F00103 	 eor r3,r3,#1
 1424 05b0 DBB2     	 uxtb r3,r3
 1425 05b2 002B     	 cmp r3,#0
 1426 05b4 28D0     	 beq .L116
 197:../../../platform/common/services/clock/sam4l/genclk.h **** 			osc_enable(OSC_ID_RC32K);
 1427              	 .loc 7 197 0
 1428 05b6 0220     	 movs r0,#2
 1429 05b8 FFF764FD 	 bl osc_enable
 198:../../../platform/common/services/clock/sam4l/genclk.h **** 			osc_wait_ready(OSC_ID_RC32K);
 1430              	 .loc 7 198 0
 1431 05bc 0220     	 movs r0,#2
 1432 05be FFF73BFE 	 bl osc_wait_ready
 199:../../../platform/common/services/clock/sam4l/genclk.h **** 		}
 200:../../../platform/common/services/clock/sam4l/genclk.h **** 		break;
 1433              	 .loc 7 200 0
 1434 05c2 21E0     	 b .L116
 1435              	.L97:
 201:../../../platform/common/services/clock/sam4l/genclk.h **** 
 202:../../../platform/common/services/clock/sam4l/genclk.h **** #ifdef CONFIG_DFLL0_SOURCE
 203:../../../platform/common/services/clock/sam4l/genclk.h **** 	case GENCLK_SRC_DFLL:
 204:../../../platform/common/services/clock/sam4l/genclk.h **** 		dfll_enable_config_defaults(0);
 1436              	 .loc 7 204 0
 1437 05c4 0020     	 movs r0,#0
 1438 05c6 144B     	 ldr r3,.L118
 1439 05c8 9847     	 blx r3
 1440              	.LVL7:
 205:../../../platform/common/services/clock/sam4l/genclk.h **** 		break;
 1441              	 .loc 7 205 0
 1442 05ca 20E0     	 b .L104
 1443              	.L98:
 206:../../../platform/common/services/clock/sam4l/genclk.h **** #endif
 207:../../../platform/common/services/clock/sam4l/genclk.h **** 
 208:../../../platform/common/services/clock/sam4l/genclk.h **** #ifdef BOARD_OSC0_HZ
 209:../../../platform/common/services/clock/sam4l/genclk.h **** 	case GENCLK_SRC_OSC0:
 210:../../../platform/common/services/clock/sam4l/genclk.h **** 		if (!osc_is_ready(OSC_ID_OSC0)) {
 1444              	 .loc 7 210 0
 1445 05cc 0020     	 movs r0,#0
 1446 05ce FFF797FD 	 bl osc_is_ready
 1447 05d2 0346     	 mov r3,r0
 1448 05d4 83F00103 	 eor r3,r3,#1
 1449 05d8 DBB2     	 uxtb r3,r3
 1450 05da 002B     	 cmp r3,#0
 1451 05dc 16D0     	 beq .L117
 211:../../../platform/common/services/clock/sam4l/genclk.h **** 			osc_enable(OSC_ID_OSC0);
 1452              	 .loc 7 211 0
 1453 05de 0020     	 movs r0,#0
 1454 05e0 FFF750FD 	 bl osc_enable
 212:../../../platform/common/services/clock/sam4l/genclk.h **** 			osc_wait_ready(OSC_ID_OSC0);
 1455              	 .loc 7 212 0
 1456 05e4 0020     	 movs r0,#0
 1457 05e6 FFF727FE 	 bl osc_wait_ready
 213:../../../platform/common/services/clock/sam4l/genclk.h **** 		}
 214:../../../platform/common/services/clock/sam4l/genclk.h **** 		break;
 1458              	 .loc 7 214 0
 1459 05ea 0FE0     	 b .L117
 1460              	.L103:
 215:../../../platform/common/services/clock/sam4l/genclk.h **** #endif
 216:../../../platform/common/services/clock/sam4l/genclk.h **** 
 217:../../../platform/common/services/clock/sam4l/genclk.h **** # ifdef CONFIG_PLL0_SOURCE
 218:../../../platform/common/services/clock/sam4l/genclk.h **** 	case GENCLK_SRC_PLL0: {
 219:../../../platform/common/services/clock/sam4l/genclk.h **** 		pll_enable_config_defaults(0);
 1461              	 .loc 7 219 0
 1462 05ec 0020     	 movs r0,#0
 1463 05ee FFF7CAFE 	 bl pll_enable_config_defaults
 220:../../../platform/common/services/clock/sam4l/genclk.h **** 		break;
 1464              	 .loc 7 220 0
 1465 05f2 0CE0     	 b .L104
 1466              	.L111:
 221:../../../platform/common/services/clock/sam4l/genclk.h **** 	}
 222:../../../platform/common/services/clock/sam4l/genclk.h **** # endif
 223:../../../platform/common/services/clock/sam4l/genclk.h **** 
 224:../../../platform/common/services/clock/sam4l/genclk.h **** 	default:
 225:../../../platform/common/services/clock/sam4l/genclk.h **** 		Assert(false);
 226:../../../platform/common/services/clock/sam4l/genclk.h **** 		break;
 1467              	 .loc 7 226 0
 1468 05f4 00BF     	 nop
 1469 05f6 0AE0     	 b .L104
 1470              	.L112:
 171:../../../platform/common/services/clock/sam4l/genclk.h **** #endif
 1471              	 .loc 7 171 0
 1472 05f8 00BF     	 nop
 1473 05fa 08E0     	 b .L104
 1474              	.L113:
 179:../../../platform/common/services/clock/sam4l/genclk.h **** 
 1475              	 .loc 7 179 0
 1476 05fc 00BF     	 nop
 1477 05fe 06E0     	 b .L104
 1478              	.L114:
 186:../../../platform/common/services/clock/sam4l/genclk.h **** 
 1479              	 .loc 7 186 0
 1480 0600 00BF     	 nop
 1481 0602 04E0     	 b .L104
 1482              	.L115:
 193:../../../platform/common/services/clock/sam4l/genclk.h **** 
 1483              	 .loc 7 193 0
 1484 0604 00BF     	 nop
 1485 0606 02E0     	 b .L104
 1486              	.L116:
 200:../../../platform/common/services/clock/sam4l/genclk.h **** 
 1487              	 .loc 7 200 0
 1488 0608 00BF     	 nop
 1489 060a 00E0     	 b .L104
 1490              	.L117:
 214:../../../platform/common/services/clock/sam4l/genclk.h **** #endif
 1491              	 .loc 7 214 0
 1492 060c 00BF     	 nop
 1493              	.L104:
 227:../../../platform/common/services/clock/sam4l/genclk.h **** 	}
 228:../../../platform/common/services/clock/sam4l/genclk.h **** }
 1494              	 .loc 7 228 0
 1495 060e 00BF     	 nop
 1496 0610 0837     	 adds r7,r7,#8
 1497              	.LCFI99:
 1498              	 .cfi_def_cfa_offset 8
 1499 0612 BD46     	 mov sp,r7
 1500              	.LCFI100:
 1501              	 .cfi_def_cfa_register 13
 1502              	 
 1503 0614 80BD     	 pop {r7,pc}
 1504              	.L119:
 1505 0616 00BF     	 .align 2
 1506              	.L118:
 1507 0618 00000000 	 .word dfll_enable_config_defaults
 1508              	 .cfi_endproc
 1509              	.LFE146:
 1511              	 .align 1
 1512              	 .syntax unified
 1513              	 .thumb
 1514              	 .thumb_func
 1515              	 .fpu softvfp
 1517              	genclk_enable_config:
 1518              	.LFB147:
 1519              	 .file 8 "../../../platform/common/services/clock/genclk.h"
   1:../../../platform/common/services/clock/genclk.h **** /**
   2:../../../platform/common/services/clock/genclk.h ****  * \file
   3:../../../platform/common/services/clock/genclk.h ****  *
   4:../../../platform/common/services/clock/genclk.h ****  * \brief Generic clock management
   5:../../../platform/common/services/clock/genclk.h ****  *
   6:../../../platform/common/services/clock/genclk.h ****  * Copyright (c) 2010-2014 Atmel Corporation. All rights reserved.
   7:../../../platform/common/services/clock/genclk.h ****  *
   8:../../../platform/common/services/clock/genclk.h ****  * \asf_license_start
   9:../../../platform/common/services/clock/genclk.h ****  *
  10:../../../platform/common/services/clock/genclk.h ****  * \page License
  11:../../../platform/common/services/clock/genclk.h ****  *
  12:../../../platform/common/services/clock/genclk.h ****  * Redistribution and use in source and binary forms, with or without
  13:../../../platform/common/services/clock/genclk.h ****  * modification, are permitted provided that the following conditions are met:
  14:../../../platform/common/services/clock/genclk.h ****  *
  15:../../../platform/common/services/clock/genclk.h ****  * 1. Redistributions of source code must retain the above copyright notice,
  16:../../../platform/common/services/clock/genclk.h ****  *    this list of conditions and the following disclaimer.
  17:../../../platform/common/services/clock/genclk.h ****  *
  18:../../../platform/common/services/clock/genclk.h ****  * 2. Redistributions in binary form must reproduce the above copyright notice,
  19:../../../platform/common/services/clock/genclk.h ****  *    this list of conditions and the following disclaimer in the documentation
  20:../../../platform/common/services/clock/genclk.h ****  *    and/or other materials provided with the distribution.
  21:../../../platform/common/services/clock/genclk.h ****  *
  22:../../../platform/common/services/clock/genclk.h ****  * 3. The name of Atmel may not be used to endorse or promote products derived
  23:../../../platform/common/services/clock/genclk.h ****  *    from this software without specific prior written permission.
  24:../../../platform/common/services/clock/genclk.h ****  *
  25:../../../platform/common/services/clock/genclk.h ****  * 4. This software may only be redistributed and used in connection with an
  26:../../../platform/common/services/clock/genclk.h ****  *    Atmel microcontroller product.
  27:../../../platform/common/services/clock/genclk.h ****  *
  28:../../../platform/common/services/clock/genclk.h ****  * THIS SOFTWARE IS PROVIDED BY ATMEL "AS IS" AND ANY EXPRESS OR IMPLIED
  29:../../../platform/common/services/clock/genclk.h ****  * WARRANTIES, INCLUDING, BUT NOT LIMITED TO, THE IMPLIED WARRANTIES OF
  30:../../../platform/common/services/clock/genclk.h ****  * MERCHANTABILITY, FITNESS FOR A PARTICULAR PURPOSE AND NON-INFRINGEMENT ARE
  31:../../../platform/common/services/clock/genclk.h ****  * EXPRESSLY AND SPECIFICALLY DISCLAIMED. IN NO EVENT SHALL ATMEL BE LIABLE FOR
  32:../../../platform/common/services/clock/genclk.h ****  * ANY DIRECT, INDIRECT, INCIDENTAL, SPECIAL, EXEMPLARY, OR CONSEQUENTIAL
  33:../../../platform/common/services/clock/genclk.h ****  * DAMAGES (INCLUDING, BUT NOT LIMITED TO, PROCUREMENT OF SUBSTITUTE GOODS
  34:../../../platform/common/services/clock/genclk.h ****  * OR SERVICES; LOSS OF USE, DATA, OR PROFITS; OR BUSINESS INTERRUPTION)
  35:../../../platform/common/services/clock/genclk.h ****  * HOWEVER CAUSED AND ON ANY THEORY OF LIABILITY, WHETHER IN CONTRACT,
  36:../../../platform/common/services/clock/genclk.h ****  * STRICT LIABILITY, OR TORT (INCLUDING NEGLIGENCE OR OTHERWISE) ARISING IN
  37:../../../platform/common/services/clock/genclk.h ****  * ANY WAY OUT OF THE USE OF THIS SOFTWARE, EVEN IF ADVISED OF THE
  38:../../../platform/common/services/clock/genclk.h ****  * POSSIBILITY OF SUCH DAMAGE.
  39:../../../platform/common/services/clock/genclk.h ****  *
  40:../../../platform/common/services/clock/genclk.h ****  * \asf_license_stop
  41:../../../platform/common/services/clock/genclk.h ****  *
  42:../../../platform/common/services/clock/genclk.h ****  */
  43:../../../platform/common/services/clock/genclk.h **** #ifndef CLK_GENCLK_H_INCLUDED
  44:../../../platform/common/services/clock/genclk.h **** #define CLK_GENCLK_H_INCLUDED
  45:../../../platform/common/services/clock/genclk.h **** 
  46:../../../platform/common/services/clock/genclk.h **** #include "parts.h"
  47:../../../platform/common/services/clock/genclk.h **** 
  48:../../../platform/common/services/clock/genclk.h **** #if SAM3S
  49:../../../platform/common/services/clock/genclk.h **** # include "sam3s/genclk.h"
  50:../../../platform/common/services/clock/genclk.h **** #elif SAM3U
  51:../../../platform/common/services/clock/genclk.h **** # include "sam3u/genclk.h"
  52:../../../platform/common/services/clock/genclk.h **** #elif SAM3N
  53:../../../platform/common/services/clock/genclk.h **** # include "sam3n/genclk.h"
  54:../../../platform/common/services/clock/genclk.h **** #elif SAM3XA
  55:../../../platform/common/services/clock/genclk.h **** # include "sam3x/genclk.h"
  56:../../../platform/common/services/clock/genclk.h **** #elif SAM4S
