   1              	 .cpu cortex-m4
   2              	 .eabi_attribute 20,1
   3              	 .eabi_attribute 21,1
   4              	 .eabi_attribute 23,3
   5              	 .eabi_attribute 24,1
   6              	 .eabi_attribute 25,1
   7              	 .eabi_attribute 26,1
   8              	 .eabi_attribute 30,6
   9              	 .eabi_attribute 34,1
  10              	 .eabi_attribute 18,4
  11              	 .file "system_sam4l.c"
  12              	 .text
  13              	.Ltext0:
  14              	 .cfi_sections .debug_frame
  15              	 .global SystemCoreClock
  16              	 .section .data.SystemCoreClock,"aw",%progbits
  17              	 .align 2
  20              	SystemCoreClock:
  21 0000 38C10100 	 .word 115000
  22              	 .text
  23              	 .align 1
  24              	 .global SystemInit
  25              	 .syntax unified
  26              	 .thumb
  27              	 .thumb_func
  28              	 .fpu softvfp
  30              	SystemInit:
  31              	.LFB111:
  32              	 .file 1 "../../../platform/sam/utils/cmsis/sam4l/source/templates/system_sam4l.c"
   1:../../../platform/sam/utils/cmsis/sam4l/source/templates/system_sam4l.c **** /**
   2:../../../platform/sam/utils/cmsis/sam4l/source/templates/system_sam4l.c ****  * \file
   3:../../../platform/sam/utils/cmsis/sam4l/source/templates/system_sam4l.c ****  *
   4:../../../platform/sam/utils/cmsis/sam4l/source/templates/system_sam4l.c ****  * \brief Low-level initialization functions called upon chip startup.
   5:../../../platform/sam/utils/cmsis/sam4l/source/templates/system_sam4l.c ****  *
   6:../../../platform/sam/utils/cmsis/sam4l/source/templates/system_sam4l.c ****  * Copyright (c) 2012-2013 Atmel Corporation. All rights reserved.
   7:../../../platform/sam/utils/cmsis/sam4l/source/templates/system_sam4l.c ****  *
   8:../../../platform/sam/utils/cmsis/sam4l/source/templates/system_sam4l.c ****  * \asf_license_start
   9:../../../platform/sam/utils/cmsis/sam4l/source/templates/system_sam4l.c ****  *
  10:../../../platform/sam/utils/cmsis/sam4l/source/templates/system_sam4l.c ****  * \page License
  11:../../../platform/sam/utils/cmsis/sam4l/source/templates/system_sam4l.c ****  *
  12:../../../platform/sam/utils/cmsis/sam4l/source/templates/system_sam4l.c ****  * Redistribution and use in source and binary forms, with or without
  13:../../../platform/sam/utils/cmsis/sam4l/source/templates/system_sam4l.c ****  * modification, are permitted provided that the following conditions are met:
  14:../../../platform/sam/utils/cmsis/sam4l/source/templates/system_sam4l.c ****  *
  15:../../../platform/sam/utils/cmsis/sam4l/source/templates/system_sam4l.c ****  * 1. Redistributions of source code must retain the above copyright notice,
  16:../../../platform/sam/utils/cmsis/sam4l/source/templates/system_sam4l.c ****  *    this list of conditions and the following disclaimer.
  17:../../../platform/sam/utils/cmsis/sam4l/source/templates/system_sam4l.c ****  *
  18:../../../platform/sam/utils/cmsis/sam4l/source/templates/system_sam4l.c ****  * 2. Redistributions in binary form must reproduce the above copyright notice,
  19:../../../platform/sam/utils/cmsis/sam4l/source/templates/system_sam4l.c ****  *    this list of conditions and the following disclaimer in the documentation
  20:../../../platform/sam/utils/cmsis/sam4l/source/templates/system_sam4l.c ****  *    and/or other materials provided with the distribution.
  21:../../../platform/sam/utils/cmsis/sam4l/source/templates/system_sam4l.c ****  *
  22:../../../platform/sam/utils/cmsis/sam4l/source/templates/system_sam4l.c ****  * 3. The name of Atmel may not be used to endorse or promote products derived
  23:../../../platform/sam/utils/cmsis/sam4l/source/templates/system_sam4l.c ****  *    from this software without specific prior written permission.
  24:../../../platform/sam/utils/cmsis/sam4l/source/templates/system_sam4l.c ****  *
  25:../../../platform/sam/utils/cmsis/sam4l/source/templates/system_sam4l.c ****  * 4. This software may only be redistributed and used in connection with an
  26:../../../platform/sam/utils/cmsis/sam4l/source/templates/system_sam4l.c ****  *    Atmel microcontroller product.
  27:../../../platform/sam/utils/cmsis/sam4l/source/templates/system_sam4l.c ****  *
  28:../../../platform/sam/utils/cmsis/sam4l/source/templates/system_sam4l.c ****  * THIS SOFTWARE IS PROVIDED BY ATMEL "AS IS" AND ANY EXPRESS OR IMPLIED
  29:../../../platform/sam/utils/cmsis/sam4l/source/templates/system_sam4l.c ****  * WARRANTIES, INCLUDING, BUT NOT LIMITED TO, THE IMPLIED WARRANTIES OF
  30:../../../platform/sam/utils/cmsis/sam4l/source/templates/system_sam4l.c ****  * MERCHANTABILITY, FITNESS FOR A PARTICULAR PURPOSE AND NON-INFRINGEMENT ARE
  31:../../../platform/sam/utils/cmsis/sam4l/source/templates/system_sam4l.c ****  * EXPRESSLY AND SPECIFICALLY DISCLAIMED. IN NO EVENT SHALL ATMEL BE LIABLE FOR
  32:../../../platform/sam/utils/cmsis/sam4l/source/templates/system_sam4l.c ****  * ANY DIRECT, INDIRECT, INCIDENTAL, SPECIAL, EXEMPLARY, OR CONSEQUENTIAL
  33:../../../platform/sam/utils/cmsis/sam4l/source/templates/system_sam4l.c ****  * DAMAGES (INCLUDING, BUT NOT LIMITED TO, PROCUREMENT OF SUBSTITUTE GOODS
  34:../../../platform/sam/utils/cmsis/sam4l/source/templates/system_sam4l.c ****  * OR SERVICES; LOSS OF USE, DATA, OR PROFITS; OR BUSINESS INTERRUPTION)
  35:../../../platform/sam/utils/cmsis/sam4l/source/templates/system_sam4l.c ****  * HOWEVER CAUSED AND ON ANY THEORY OF LIABILITY, WHETHER IN CONTRACT,
  36:../../../platform/sam/utils/cmsis/sam4l/source/templates/system_sam4l.c ****  * STRICT LIABILITY, OR TORT (INCLUDING NEGLIGENCE OR OTHERWISE) ARISING IN
  37:../../../platform/sam/utils/cmsis/sam4l/source/templates/system_sam4l.c ****  * ANY WAY OUT OF THE USE OF THIS SOFTWARE, EVEN IF ADVISED OF THE
  38:../../../platform/sam/utils/cmsis/sam4l/source/templates/system_sam4l.c ****  * POSSIBILITY OF SUCH DAMAGE.
  39:../../../platform/sam/utils/cmsis/sam4l/source/templates/system_sam4l.c ****  *
  40:../../../platform/sam/utils/cmsis/sam4l/source/templates/system_sam4l.c ****  * \asf_license_stop
  41:../../../platform/sam/utils/cmsis/sam4l/source/templates/system_sam4l.c ****  *
  42:../../../platform/sam/utils/cmsis/sam4l/source/templates/system_sam4l.c ****  */
  43:../../../platform/sam/utils/cmsis/sam4l/source/templates/system_sam4l.c **** 
  44:../../../platform/sam/utils/cmsis/sam4l/source/templates/system_sam4l.c **** #include "system_sam4l.h"
  45:../../../platform/sam/utils/cmsis/sam4l/source/templates/system_sam4l.c **** #include "sam4l.h"
  46:../../../platform/sam/utils/cmsis/sam4l/source/templates/system_sam4l.c **** 
  47:../../../platform/sam/utils/cmsis/sam4l/source/templates/system_sam4l.c **** /**
  48:../../../platform/sam/utils/cmsis/sam4l/source/templates/system_sam4l.c ****  * Initial system clock frequency. The System RC Oscillator (RCSYS) provides
  49:../../../platform/sam/utils/cmsis/sam4l/source/templates/system_sam4l.c ****  *  the source for the main clock at chip startup.
  50:../../../platform/sam/utils/cmsis/sam4l/source/templates/system_sam4l.c ****  */
  51:../../../platform/sam/utils/cmsis/sam4l/source/templates/system_sam4l.c **** #define __SYSTEM_CLOCK    (115000)
  52:../../../platform/sam/utils/cmsis/sam4l/source/templates/system_sam4l.c **** 
  53:../../../platform/sam/utils/cmsis/sam4l/source/templates/system_sam4l.c **** uint32_t SystemCoreClock = __SYSTEM_CLOCK;/*!< System Clock Frequency (Core Clock)*/
  54:../../../platform/sam/utils/cmsis/sam4l/source/templates/system_sam4l.c **** 
  55:../../../platform/sam/utils/cmsis/sam4l/source/templates/system_sam4l.c **** /**
  56:../../../platform/sam/utils/cmsis/sam4l/source/templates/system_sam4l.c ****  * Initialize the system
  57:../../../platform/sam/utils/cmsis/sam4l/source/templates/system_sam4l.c ****  *
  58:../../../platform/sam/utils/cmsis/sam4l/source/templates/system_sam4l.c ****  * @brief  Setup the microcontroller system.
  59:../../../platform/sam/utils/cmsis/sam4l/source/templates/system_sam4l.c ****  *         Initialize the System and update the SystemCoreClock variable.
  60:../../../platform/sam/utils/cmsis/sam4l/source/templates/system_sam4l.c ****  */
  61:../../../platform/sam/utils/cmsis/sam4l/source/templates/system_sam4l.c **** void SystemInit(void)
  62:../../../platform/sam/utils/cmsis/sam4l/source/templates/system_sam4l.c **** {
  33              	 .loc 1 62 0
  34              	 .cfi_startproc
  35              	 
  36              	 
  37              	 
  38 0000 80B4     	 push {r7}
  39              	.LCFI0:
  40              	 .cfi_def_cfa_offset 4
  41              	 .cfi_offset 7,-4
  42 0002 00AF     	 add r7,sp,#0
  43              	.LCFI1:
  44              	 .cfi_def_cfa_register 7
  63:../../../platform/sam/utils/cmsis/sam4l/source/templates/system_sam4l.c **** 	// Keep the default device state after reset
  64:../../../platform/sam/utils/cmsis/sam4l/source/templates/system_sam4l.c **** 	SystemCoreClock = __SYSTEM_CLOCK;
  45              	 .loc 1 64 0
  46 0004 034B     	 ldr r3,.L3
  47 0006 044A     	 ldr r2,.L3+4
  48 0008 1A60     	 str r2,[r3]
  65:../../../platform/sam/utils/cmsis/sam4l/source/templates/system_sam4l.c **** 	return;
  49              	 .loc 1 65 0
  50 000a 00BF     	 nop
  66:../../../platform/sam/utils/cmsis/sam4l/source/templates/system_sam4l.c **** }
  51              	 .loc 1 66 0
  52 000c BD46     	 mov sp,r7
  53              	.LCFI2:
  54              	 .cfi_def_cfa_register 13
  55              	 
  56 000e 80BC     	 pop {r7}
  57              	.LCFI3:
  58              	 .cfi_restore 7
  59              	 .cfi_def_cfa_offset 0
  60 0010 7047     	 bx lr
  61              	.L4:
  62 0012 00BF     	 .align 2
  63              	.L3:
  64 0014 00000000 	 .word SystemCoreClock
  65 0018 38C10100 	 .word 115000
  66              	 .cfi_endproc
  67              	.LFE111:
  69              	 .align 1
  70              	 .global SystemCoreClockUpdate
  71              	 .syntax unified
  72              	 .thumb
  73              	 .thumb_func
  74              	 .fpu softvfp
  76              	SystemCoreClockUpdate:
  77              	.LFB112:
  67:../../../platform/sam/utils/cmsis/sam4l/source/templates/system_sam4l.c **** 
  68:../../../platform/sam/utils/cmsis/sam4l/source/templates/system_sam4l.c **** /**
  69:../../../platform/sam/utils/cmsis/sam4l/source/templates/system_sam4l.c ****  * Update SystemCoreClock variable
  70:../../../platform/sam/utils/cmsis/sam4l/source/templates/system_sam4l.c ****  *
  71:../../../platform/sam/utils/cmsis/sam4l/source/templates/system_sam4l.c ****  * @brief  Updates the SystemCoreClock with current core Clock
  72:../../../platform/sam/utils/cmsis/sam4l/source/templates/system_sam4l.c ****  *         retrieved from cpu registers.
  73:../../../platform/sam/utils/cmsis/sam4l/source/templates/system_sam4l.c ****  */
  74:../../../platform/sam/utils/cmsis/sam4l/source/templates/system_sam4l.c **** void SystemCoreClockUpdate(void)
  75:../../../platform/sam/utils/cmsis/sam4l/source/templates/system_sam4l.c **** {
  78              	 .loc 1 75 0
  79              	 .cfi_startproc
  80              	 
  81              	 
  82              	 
  83 001c 80B4     	 push {r7}
  84              	.LCFI4:
  85              	 .cfi_def_cfa_offset 4
  86              	 .cfi_offset 7,-4
  87 001e 00AF     	 add r7,sp,#0
  88              	.LCFI5:
  89              	 .cfi_def_cfa_register 7
  76:../../../platform/sam/utils/cmsis/sam4l/source/templates/system_sam4l.c **** 	// Not implemented
  77:../../../platform/sam/utils/cmsis/sam4l/source/templates/system_sam4l.c **** 	SystemCoreClock = __SYSTEM_CLOCK;
  90              	 .loc 1 77 0
  91 0020 034B     	 ldr r3,.L7
  92 0022 044A     	 ldr r2,.L7+4
  93 0024 1A60     	 str r2,[r3]
  78:../../../platform/sam/utils/cmsis/sam4l/source/templates/system_sam4l.c **** 	return;
  94              	 .loc 1 78 0
  95 0026 00BF     	 nop
  79:../../../platform/sam/utils/cmsis/sam4l/source/templates/system_sam4l.c **** }
  96              	 .loc 1 79 0
  97 0028 BD46     	 mov sp,r7
  98              	.LCFI6:
  99              	 .cfi_def_cfa_register 13
 100              	 
 101 002a 80BC     	 pop {r7}
 102              	.LCFI7:
 103              	 .cfi_restore 7
 104              	 .cfi_def_cfa_offset 0
 105 002c 7047     	 bx lr
 106              	.L8:
 107 002e 00BF     	 .align 2
 108              	.L7:
 109 0030 00000000 	 .word SystemCoreClock
 110 0034 38C10100 	 .word 115000
 111              	 .cfi_endproc
 112              	.LFE112:
 114              	.Letext0:
 115              	 .file 2 "c:\\program files (x86)\\atmel\\studio\\7.0\\toolchain\\arm\\arm-gnu-toolchain\\arm-none-eabi\\include\\machine\\_default_types.h"
 116              	 .file 3 "c:\\program files (x86)\\atmel\\studio\\7.0\\toolchain\\arm\\arm-gnu-toolchain\\arm-none-eabi\\include\\sys\\_stdint.h"
 117              	 .file 4 "../../../platform/sam/utils/cmsis/sam4l/source/templates/system_sam4l.h"
 118              	 .file 5 "../../../platform/thirdparty/CMSIS/include/core_cm4.h"