   1               		.file	"ini.c"
   2               	__SP_H__ = 0x3e
   3               	__SP_L__ = 0x3d
   4               	__SREG__ = 0x3f
   5               	__RAMPZ__ = 0x3b
   6               	__tmp_reg__ = 0
   7               	__zero_reg__ = 1
   8               		.text
   9               	.Ltext0:
  10               		.cfi_sections	.debug_frame
  11               		.section	.rodata
  12               	.LC0:
  13 0000 7700      		.string	"w"
  14               		.text
  15               	.global	ini_create
  17               	ini_create:
  18               	.LFB7:
  19               		.file 1 "lp_solve_5.5/ini.c"
   1:lp_solve_5.5/ini.c **** #include <stdio.h>
   2:lp_solve_5.5/ini.c **** #include <ctype.h>
   3:lp_solve_5.5/ini.c **** #include <string.h>
   4:lp_solve_5.5/ini.c **** 
   5:lp_solve_5.5/ini.c **** #include "lp_lib.h"
   6:lp_solve_5.5/ini.c **** 
   7:lp_solve_5.5/ini.c **** #include "ini.h"
   8:lp_solve_5.5/ini.c **** 
   9:lp_solve_5.5/ini.c **** FILE *ini_create(char *filename)
  10:lp_solve_5.5/ini.c **** {
  20               		.loc 1 10 0
  21               		.cfi_startproc
  22 0000 CF93      		push r28
  23               	.LCFI0:
  24               		.cfi_def_cfa_offset 3
  25               		.cfi_offset 28, -2
  26 0002 DF93      		push r29
  27               	.LCFI1:
  28               		.cfi_def_cfa_offset 4
  29               		.cfi_offset 29, -3
  30 0004 00D0      		rcall .
  31 0006 00D0      		rcall .
  32               	.LCFI2:
  33               		.cfi_def_cfa_offset 8
  34 0008 CDB7      		in r28,__SP_L__
  35 000a DEB7      		in r29,__SP_H__
  36               	.LCFI3:
  37               		.cfi_def_cfa_register 28
  38               	/* prologue: function */
  39               	/* frame size = 4 */
  40               	/* stack size = 6 */
  41               	.L__stack_usage = 6
  42 000c 9C83      		std Y+4,r25
  43 000e 8B83      		std Y+3,r24
  11:lp_solve_5.5/ini.c ****   FILE *fp;
  12:lp_solve_5.5/ini.c **** 
  13:lp_solve_5.5/ini.c ****   fp = fopen(filename, "w");
  44               		.loc 1 13 0
  45 0010 8B81      		ldd r24,Y+3
  46 0012 9C81      		ldd r25,Y+4
  47 0014 60E0      		ldi r22,lo8(.LC0)
  48 0016 70E0      		ldi r23,hi8(.LC0)
  49 0018 0E94 0000 		call fopen
  50 001c 9A83      		std Y+2,r25
  51 001e 8983      		std Y+1,r24
  14:lp_solve_5.5/ini.c **** 
  15:lp_solve_5.5/ini.c ****   return(fp);
  52               		.loc 1 15 0
  53 0020 8981      		ldd r24,Y+1
  54 0022 9A81      		ldd r25,Y+2
  55               	/* epilogue start */
  16:lp_solve_5.5/ini.c **** }
  56               		.loc 1 16 0
  57 0024 0F90      		pop __tmp_reg__
  58 0026 0F90      		pop __tmp_reg__
  59 0028 0F90      		pop __tmp_reg__
  60 002a 0F90      		pop __tmp_reg__
  61 002c DF91      		pop r29
  62 002e CF91      		pop r28
  63 0030 0895      		ret
  64               		.cfi_endproc
  65               	.LFE7:
  67               		.section	.rodata
  68               	.LC1:
  69 0002 7200      		.string	"r"
  70               		.text
  71               	.global	ini_open
  73               	ini_open:
  74               	.LFB8:
  17:lp_solve_5.5/ini.c **** 
  18:lp_solve_5.5/ini.c **** FILE *ini_open(char *filename)
  19:lp_solve_5.5/ini.c **** {
  75               		.loc 1 19 0
  76               		.cfi_startproc
  77 0032 CF93      		push r28
  78               	.LCFI4:
  79               		.cfi_def_cfa_offset 3
  80               		.cfi_offset 28, -2
  81 0034 DF93      		push r29
  82               	.LCFI5:
  83               		.cfi_def_cfa_offset 4
  84               		.cfi_offset 29, -3
  85 0036 00D0      		rcall .
  86 0038 00D0      		rcall .
  87               	.LCFI6:
  88               		.cfi_def_cfa_offset 8
  89 003a CDB7      		in r28,__SP_L__
  90 003c DEB7      		in r29,__SP_H__
  91               	.LCFI7:
  92               		.cfi_def_cfa_register 28
  93               	/* prologue: function */
  94               	/* frame size = 4 */
  95               	/* stack size = 6 */
  96               	.L__stack_usage = 6
  97 003e 9C83      		std Y+4,r25
  98 0040 8B83      		std Y+3,r24
  20:lp_solve_5.5/ini.c ****   FILE *fp;
  21:lp_solve_5.5/ini.c **** 
  22:lp_solve_5.5/ini.c ****   fp = fopen(filename, "r");
  99               		.loc 1 22 0
 100 0042 8B81      		ldd r24,Y+3
 101 0044 9C81      		ldd r25,Y+4
 102 0046 60E0      		ldi r22,lo8(.LC1)
 103 0048 70E0      		ldi r23,hi8(.LC1)
 104 004a 0E94 0000 		call fopen
 105 004e 9A83      		std Y+2,r25
 106 0050 8983      		std Y+1,r24
  23:lp_solve_5.5/ini.c **** 
  24:lp_solve_5.5/ini.c ****   return(fp);
 107               		.loc 1 24 0
 108 0052 8981      		ldd r24,Y+1
 109 0054 9A81      		ldd r25,Y+2
 110               	/* epilogue start */
  25:lp_solve_5.5/ini.c **** }
 111               		.loc 1 25 0
 112 0056 0F90      		pop __tmp_reg__
 113 0058 0F90      		pop __tmp_reg__
 114 005a 0F90      		pop __tmp_reg__
 115 005c 0F90      		pop __tmp_reg__
 116 005e DF91      		pop r29
 117 0060 CF91      		pop r28
 118 0062 0895      		ret
 119               		.cfi_endproc
 120               	.LFE8:
 122               		.section	.rodata
 123               	.LC2:
 124 0004 3B20 2573 		.string	"; %s\n"
 124      0A00 
 125               		.text
 126               	.global	ini_writecomment
 128               	ini_writecomment:
 129               	.LFB9:
  26:lp_solve_5.5/ini.c **** 
  27:lp_solve_5.5/ini.c **** void ini_writecomment(FILE *fp, char *comment)
  28:lp_solve_5.5/ini.c **** {
 130               		.loc 1 28 0
 131               		.cfi_startproc
 132 0064 CF93      		push r28
 133               	.LCFI8:
 134               		.cfi_def_cfa_offset 3
 135               		.cfi_offset 28, -2
 136 0066 DF93      		push r29
 137               	.LCFI9:
 138               		.cfi_def_cfa_offset 4
 139               		.cfi_offset 29, -3
 140 0068 00D0      		rcall .
 141 006a 00D0      		rcall .
 142               	.LCFI10:
 143               		.cfi_def_cfa_offset 8
 144 006c CDB7      		in r28,__SP_L__
 145 006e DEB7      		in r29,__SP_H__
 146               	.LCFI11:
 147               		.cfi_def_cfa_register 28
 148               	/* prologue: function */
 149               	/* frame size = 4 */
 150               	/* stack size = 6 */
 151               	.L__stack_usage = 6
 152 0070 9A83      		std Y+2,r25
 153 0072 8983      		std Y+1,r24
 154 0074 7C83      		std Y+4,r23
 155 0076 6B83      		std Y+3,r22
  29:lp_solve_5.5/ini.c ****   fprintf(fp, "; %s\n", comment);
 156               		.loc 1 29 0
 157 0078 8C81      		ldd r24,Y+4
 158 007a 8F93      		push r24
 159 007c 8B81      		ldd r24,Y+3
 160 007e 8F93      		push r24
 161 0080 80E0      		ldi r24,lo8(.LC2)
 162 0082 90E0      		ldi r25,hi8(.LC2)
 163 0084 892F      		mov r24,r25
 164 0086 8F93      		push r24
 165 0088 80E0      		ldi r24,lo8(.LC2)
 166 008a 90E0      		ldi r25,hi8(.LC2)
 167 008c 8F93      		push r24
 168 008e 8A81      		ldd r24,Y+2
 169 0090 8F93      		push r24
 170 0092 8981      		ldd r24,Y+1
 171 0094 8F93      		push r24
 172 0096 0E94 0000 		call fprintf
 173 009a 0F90      		pop __tmp_reg__
 174 009c 0F90      		pop __tmp_reg__
 175 009e 0F90      		pop __tmp_reg__
 176 00a0 0F90      		pop __tmp_reg__
 177 00a2 0F90      		pop __tmp_reg__
 178 00a4 0F90      		pop __tmp_reg__
  30:lp_solve_5.5/ini.c **** }
 179               		.loc 1 30 0
 180 00a6 0000      		nop
 181               	/* epilogue start */
 182 00a8 0F90      		pop __tmp_reg__
 183 00aa 0F90      		pop __tmp_reg__
 184 00ac 0F90      		pop __tmp_reg__
 185 00ae 0F90      		pop __tmp_reg__
 186 00b0 DF91      		pop r29
 187 00b2 CF91      		pop r28
 188 00b4 0895      		ret
 189               		.cfi_endproc
 190               	.LFE9:
 192               		.section	.rodata
 193               	.LC3:
 194 000a 5B25 735D 		.string	"[%s]\n"
 194      0A00 
 195               		.text
 196               	.global	ini_writeheader
 198               	ini_writeheader:
 199               	.LFB10:
  31:lp_solve_5.5/ini.c **** 
  32:lp_solve_5.5/ini.c **** void ini_writeheader(FILE *fp, char *header, int addnewline)
  33:lp_solve_5.5/ini.c **** {
 200               		.loc 1 33 0
 201               		.cfi_startproc
 202 00b6 CF93      		push r28
 203               	.LCFI12:
 204               		.cfi_def_cfa_offset 3
 205               		.cfi_offset 28, -2
 206 00b8 DF93      		push r29
 207               	.LCFI13:
 208               		.cfi_def_cfa_offset 4
 209               		.cfi_offset 29, -3
 210 00ba 00D0      		rcall .
 211 00bc 00D0      		rcall .
 212 00be 00D0      		rcall .
 213               	.LCFI14:
 214               		.cfi_def_cfa_offset 10
 215 00c0 CDB7      		in r28,__SP_L__
 216 00c2 DEB7      		in r29,__SP_H__
 217               	.LCFI15:
 218               		.cfi_def_cfa_register 28
 219               	/* prologue: function */
 220               	/* frame size = 6 */
 221               	/* stack size = 8 */
 222               	.L__stack_usage = 8
 223 00c4 9A83      		std Y+2,r25
 224 00c6 8983      		std Y+1,r24
 225 00c8 7C83      		std Y+4,r23
 226 00ca 6B83      		std Y+3,r22
 227 00cc 5E83      		std Y+6,r21
 228 00ce 4D83      		std Y+5,r20
  34:lp_solve_5.5/ini.c ****   if((addnewline) && (ftell(fp) > 0))
 229               		.loc 1 34 0
 230 00d0 8D81      		ldd r24,Y+5
 231 00d2 9E81      		ldd r25,Y+6
 232 00d4 892B      		or r24,r25
 233 00d6 01F0      		breq .L7
 234               		.loc 1 34 0 is_stmt 0 discriminator 1
 235 00d8 8981      		ldd r24,Y+1
 236 00da 9A81      		ldd r25,Y+2
 237 00dc 0E94 0000 		call ftell
 238 00e0 DC01      		movw r26,r24
 239 00e2 CB01      		movw r24,r22
 240 00e4 1816      		cp __zero_reg__,r24
 241 00e6 1906      		cpc __zero_reg__,r25
 242 00e8 1A06      		cpc __zero_reg__,r26
 243 00ea 1B06      		cpc __zero_reg__,r27
 244 00ec 04F4      		brge .L7
  35:lp_solve_5.5/ini.c ****     fputs("\n", fp);
 245               		.loc 1 35 0 is_stmt 1
 246 00ee 8981      		ldd r24,Y+1
 247 00f0 9A81      		ldd r25,Y+2
 248 00f2 BC01      		movw r22,r24
 249 00f4 8AE0      		ldi r24,lo8(10)
 250 00f6 90E0      		ldi r25,0
 251 00f8 0E94 0000 		call fputc
 252               	.L7:
  36:lp_solve_5.5/ini.c ****   fprintf(fp, "[%s]\n", header);
 253               		.loc 1 36 0
 254 00fc 8C81      		ldd r24,Y+4
 255 00fe 8F93      		push r24
 256 0100 8B81      		ldd r24,Y+3
 257 0102 8F93      		push r24
 258 0104 80E0      		ldi r24,lo8(.LC3)
 259 0106 90E0      		ldi r25,hi8(.LC3)
 260 0108 892F      		mov r24,r25
 261 010a 8F93      		push r24
 262 010c 80E0      		ldi r24,lo8(.LC3)
 263 010e 90E0      		ldi r25,hi8(.LC3)
 264 0110 8F93      		push r24
 265 0112 8A81      		ldd r24,Y+2
 266 0114 8F93      		push r24
 267 0116 8981      		ldd r24,Y+1
 268 0118 8F93      		push r24
 269 011a 0E94 0000 		call fprintf
 270 011e 0F90      		pop __tmp_reg__
 271 0120 0F90      		pop __tmp_reg__
 272 0122 0F90      		pop __tmp_reg__
 273 0124 0F90      		pop __tmp_reg__
 274 0126 0F90      		pop __tmp_reg__
 275 0128 0F90      		pop __tmp_reg__
  37:lp_solve_5.5/ini.c **** }
 276               		.loc 1 37 0
 277 012a 0000      		nop
 278               	/* epilogue start */
 279 012c 2696      		adiw r28,6
 280 012e 0FB6      		in __tmp_reg__,__SREG__
 281 0130 F894      		cli
 282 0132 DEBF      		out __SP_H__,r29
 283 0134 0FBE      		out __SREG__,__tmp_reg__
 284 0136 CDBF      		out __SP_L__,r28
 285 0138 DF91      		pop r29
 286 013a CF91      		pop r28
 287 013c 0895      		ret
 288               		.cfi_endproc
 289               	.LFE10:
 291               		.section	.rodata
 292               	.LC4:
 293 0010 2573 3D25 		.string	"%s=%s\n"
 293      730A 00
 294               	.LC5:
 295 0017 2573 0A00 		.string	"%s\n"
 296               		.text
 297               	.global	ini_writedata
 299               	ini_writedata:
 300               	.LFB11:
  38:lp_solve_5.5/ini.c **** 
  39:lp_solve_5.5/ini.c **** void ini_writedata(FILE *fp, char *name, char *data)
  40:lp_solve_5.5/ini.c **** {
 301               		.loc 1 40 0
 302               		.cfi_startproc
 303 013e CF93      		push r28
 304               	.LCFI16:
 305               		.cfi_def_cfa_offset 3
 306               		.cfi_offset 28, -2
 307 0140 DF93      		push r29
 308               	.LCFI17:
 309               		.cfi_def_cfa_offset 4
 310               		.cfi_offset 29, -3
 311 0142 00D0      		rcall .
 312 0144 00D0      		rcall .
 313 0146 00D0      		rcall .
 314               	.LCFI18:
 315               		.cfi_def_cfa_offset 10
 316 0148 CDB7      		in r28,__SP_L__
 317 014a DEB7      		in r29,__SP_H__
 318               	.LCFI19:
 319               		.cfi_def_cfa_register 28
 320               	/* prologue: function */
 321               	/* frame size = 6 */
 322               	/* stack size = 8 */
 323               	.L__stack_usage = 8
 324 014c 9A83      		std Y+2,r25
 325 014e 8983      		std Y+1,r24
 326 0150 7C83      		std Y+4,r23
 327 0152 6B83      		std Y+3,r22
 328 0154 5E83      		std Y+6,r21
 329 0156 4D83      		std Y+5,r20
  41:lp_solve_5.5/ini.c ****   if(name != NULL)
 330               		.loc 1 41 0
 331 0158 8B81      		ldd r24,Y+3
 332 015a 9C81      		ldd r25,Y+4
 333 015c 892B      		or r24,r25
 334 015e 01F0      		breq .L9
  42:lp_solve_5.5/ini.c ****     fprintf(fp, "%s=%s\n", name, data);
 335               		.loc 1 42 0
 336 0160 8E81      		ldd r24,Y+6
 337 0162 8F93      		push r24
 338 0164 8D81      		ldd r24,Y+5
 339 0166 8F93      		push r24
 340 0168 8C81      		ldd r24,Y+4
 341 016a 8F93      		push r24
 342 016c 8B81      		ldd r24,Y+3
 343 016e 8F93      		push r24
 344 0170 80E0      		ldi r24,lo8(.LC4)
 345 0172 90E0      		ldi r25,hi8(.LC4)
 346 0174 892F      		mov r24,r25
 347 0176 8F93      		push r24
 348 0178 80E0      		ldi r24,lo8(.LC4)
 349 017a 90E0      		ldi r25,hi8(.LC4)
 350 017c 8F93      		push r24
 351 017e 8A81      		ldd r24,Y+2
 352 0180 8F93      		push r24
 353 0182 8981      		ldd r24,Y+1
 354 0184 8F93      		push r24
 355 0186 0E94 0000 		call fprintf
 356 018a 8DB7      		in r24,__SP_L__
 357 018c 9EB7      		in r25,__SP_H__
 358 018e 0896      		adiw r24,8
 359 0190 0FB6      		in __tmp_reg__,__SREG__
 360 0192 F894      		cli
 361 0194 DEBF      		out __SP_H__,r29
 362 0196 0FBE      		out __SREG__,__tmp_reg__
 363 0198 CDBF      		out __SP_L__,r28
  43:lp_solve_5.5/ini.c ****   else
  44:lp_solve_5.5/ini.c ****     fprintf(fp, "%s\n", data);
  45:lp_solve_5.5/ini.c **** }
 364               		.loc 1 45 0
 365 019a 00C0      		rjmp .L11
 366               	.L9:
  44:lp_solve_5.5/ini.c **** }
 367               		.loc 1 44 0
 368 019c 8E81      		ldd r24,Y+6
 369 019e 8F93      		push r24
 370 01a0 8D81      		ldd r24,Y+5
 371 01a2 8F93      		push r24
 372 01a4 80E0      		ldi r24,lo8(.LC5)
 373 01a6 90E0      		ldi r25,hi8(.LC5)
 374 01a8 892F      		mov r24,r25
 375 01aa 8F93      		push r24
 376 01ac 80E0      		ldi r24,lo8(.LC5)
 377 01ae 90E0      		ldi r25,hi8(.LC5)
 378 01b0 8F93      		push r24
 379 01b2 8A81      		ldd r24,Y+2
 380 01b4 8F93      		push r24
 381 01b6 8981      		ldd r24,Y+1
 382 01b8 8F93      		push r24
 383 01ba 0E94 0000 		call fprintf
 384 01be 0F90      		pop __tmp_reg__
 385 01c0 0F90      		pop __tmp_reg__
 386 01c2 0F90      		pop __tmp_reg__
 387 01c4 0F90      		pop __tmp_reg__
 388 01c6 0F90      		pop __tmp_reg__
 389 01c8 0F90      		pop __tmp_reg__
 390               	.L11:
 391               		.loc 1 45 0
 392 01ca 0000      		nop
 393               	/* epilogue start */
 394 01cc 2696      		adiw r28,6
 395 01ce 0FB6      		in __tmp_reg__,__SREG__
 396 01d0 F894      		cli
 397 01d2 DEBF      		out __SP_H__,r29
 398 01d4 0FBE      		out __SREG__,__tmp_reg__
 399 01d6 CDBF      		out __SP_L__,r28
 400 01d8 DF91      		pop r29
 401 01da CF91      		pop r28
 402 01dc 0895      		ret
 403               		.cfi_endproc
 404               	.LFE11:
 406               	.global	ini_readdata
 408               	ini_readdata:
 409               	.LFB12:
  46:lp_solve_5.5/ini.c **** 
  47:lp_solve_5.5/ini.c **** int ini_readdata(FILE *fp, char *data, int szdata, int withcomment)
  48:lp_solve_5.5/ini.c **** {
 410               		.loc 1 48 0
 411               		.cfi_startproc
 412 01de CF93      		push r28
 413               	.LCFI20:
 414               		.cfi_def_cfa_offset 3
 415               		.cfi_offset 28, -2
 416 01e0 DF93      		push r29
 417               	.LCFI21:
 418               		.cfi_def_cfa_offset 4
 419               		.cfi_offset 29, -3
 420 01e2 CDB7      		in r28,__SP_L__
 421 01e4 DEB7      		in r29,__SP_H__
 422               	.LCFI22:
 423               		.cfi_def_cfa_register 28
 424 01e6 2C97      		sbiw r28,12
 425               	.LCFI23:
 426               		.cfi_def_cfa_offset 16
 427 01e8 0FB6      		in __tmp_reg__,__SREG__
 428 01ea F894      		cli
 429 01ec DEBF      		out __SP_H__,r29
 430 01ee 0FBE      		out __SREG__,__tmp_reg__
 431 01f0 CDBF      		out __SP_L__,r28
 432               	/* prologue: function */
 433               	/* frame size = 12 */
 434               	/* stack size = 14 */
 435               	.L__stack_usage = 14
 436 01f2 9E83      		std Y+6,r25
 437 01f4 8D83      		std Y+5,r24
 438 01f6 7887      		std Y+8,r23
 439 01f8 6F83      		std Y+7,r22
 440 01fa 5A87      		std Y+10,r21
 441 01fc 4987      		std Y+9,r20
 442 01fe 3C87      		std Y+12,r19
 443 0200 2B87      		std Y+11,r18
  49:lp_solve_5.5/ini.c ****   int l;
  50:lp_solve_5.5/ini.c ****   char *ptr;
  51:lp_solve_5.5/ini.c **** 
  52:lp_solve_5.5/ini.c ****   if(fgets(data, szdata, fp) == NULL)
 444               		.loc 1 52 0
 445 0202 4D81      		ldd r20,Y+5
 446 0204 5E81      		ldd r21,Y+6
 447 0206 2985      		ldd r18,Y+9
 448 0208 3A85      		ldd r19,Y+10
 449 020a 8F81      		ldd r24,Y+7
 450 020c 9885      		ldd r25,Y+8
 451 020e B901      		movw r22,r18
 452 0210 0E94 0000 		call fgets
 453 0214 892B      		or r24,r25
 454 0216 01F4      		brne .L13
  53:lp_solve_5.5/ini.c ****     return(0);
 455               		.loc 1 53 0
 456 0218 80E0      		ldi r24,0
 457 021a 90E0      		ldi r25,0
 458 021c 00C0      		rjmp .L14
 459               	.L13:
  54:lp_solve_5.5/ini.c **** 
  55:lp_solve_5.5/ini.c ****   if(!withcomment) {
 460               		.loc 1 55 0
 461 021e 8B85      		ldd r24,Y+11
 462 0220 9C85      		ldd r25,Y+12
 463 0222 892B      		or r24,r25
 464 0224 01F4      		brne .L15
  56:lp_solve_5.5/ini.c ****     ptr = strchr(data, ';');
 465               		.loc 1 56 0
 466 0226 8F81      		ldd r24,Y+7
 467 0228 9885      		ldd r25,Y+8
 468 022a 6BE3      		ldi r22,lo8(59)
 469 022c 70E0      		ldi r23,0
 470 022e 0E94 0000 		call strchr
 471 0232 9C83      		std Y+4,r25
 472 0234 8B83      		std Y+3,r24
  57:lp_solve_5.5/ini.c ****     if(ptr != NULL)
 473               		.loc 1 57 0
 474 0236 8B81      		ldd r24,Y+3
 475 0238 9C81      		ldd r25,Y+4
 476 023a 892B      		or r24,r25
 477 023c 01F0      		breq .L15
  58:lp_solve_5.5/ini.c ****       *ptr = 0;
 478               		.loc 1 58 0
 479 023e 8B81      		ldd r24,Y+3
 480 0240 9C81      		ldd r25,Y+4
 481 0242 FC01      		movw r30,r24
 482 0244 1082      		st Z,__zero_reg__
 483               	.L15:
  59:lp_solve_5.5/ini.c ****   }
  60:lp_solve_5.5/ini.c **** 
  61:lp_solve_5.5/ini.c ****   l = (int) strlen(data);
 484               		.loc 1 61 0
 485 0246 8F81      		ldd r24,Y+7
 486 0248 9885      		ldd r25,Y+8
 487 024a 0E94 0000 		call strlen
 488 024e 9A83      		std Y+2,r25
 489 0250 8983      		std Y+1,r24
  62:lp_solve_5.5/ini.c ****   while((l > 0) && (isspace(data[l - 1])))
 490               		.loc 1 62 0
 491 0252 00C0      		rjmp .L16
 492               	.L18:
  63:lp_solve_5.5/ini.c ****     l--;
 493               		.loc 1 63 0
 494 0254 8981      		ldd r24,Y+1
 495 0256 9A81      		ldd r25,Y+2
 496 0258 0197      		sbiw r24,1
 497 025a 9A83      		std Y+2,r25
 498 025c 8983      		std Y+1,r24
 499               	.L16:
  62:lp_solve_5.5/ini.c ****   while((l > 0) && (isspace(data[l - 1])))
 500               		.loc 1 62 0
 501 025e 8981      		ldd r24,Y+1
 502 0260 9A81      		ldd r25,Y+2
 503 0262 1816      		cp __zero_reg__,r24
 504 0264 1906      		cpc __zero_reg__,r25
 505 0266 04F4      		brge .L17
  62:lp_solve_5.5/ini.c ****   while((l > 0) && (isspace(data[l - 1])))
 506               		.loc 1 62 0 is_stmt 0 discriminator 1
 507 0268 8981      		ldd r24,Y+1
 508 026a 9A81      		ldd r25,Y+2
 509 026c 0197      		sbiw r24,1
 510 026e 2F81      		ldd r18,Y+7
 511 0270 3885      		ldd r19,Y+8
 512 0272 820F      		add r24,r18
 513 0274 931F      		adc r25,r19
 514 0276 FC01      		movw r30,r24
 515 0278 8081      		ld r24,Z
 516 027a 882F      		mov r24,r24
 517 027c 90E0      		ldi r25,0
 518 027e 0E94 0000 		call isspace
 519 0282 892B      		or r24,r25
 520 0284 01F4      		brne .L18
 521               	.L17:
  64:lp_solve_5.5/ini.c ****   data[l] = 0;
 522               		.loc 1 64 0 is_stmt 1
 523 0286 8981      		ldd r24,Y+1
 524 0288 9A81      		ldd r25,Y+2
 525 028a 2F81      		ldd r18,Y+7
 526 028c 3885      		ldd r19,Y+8
 527 028e 820F      		add r24,r18
 528 0290 931F      		adc r25,r19
 529 0292 FC01      		movw r30,r24
 530 0294 1082      		st Z,__zero_reg__
  65:lp_solve_5.5/ini.c ****   if((l >= 2) && (data[0] == '[') && (data[l - 1] == ']')) {
 531               		.loc 1 65 0
 532 0296 8981      		ldd r24,Y+1
 533 0298 9A81      		ldd r25,Y+2
 534 029a 0297      		sbiw r24,2
 535 029c 04F0      		brlt .L19
 536               		.loc 1 65 0 is_stmt 0 discriminator 1
 537 029e 8F81      		ldd r24,Y+7
 538 02a0 9885      		ldd r25,Y+8
 539 02a2 FC01      		movw r30,r24
 540 02a4 8081      		ld r24,Z
 541 02a6 8B35      		cpi r24,lo8(91)
 542 02a8 01F4      		brne .L19
 543               		.loc 1 65 0 discriminator 2
 544 02aa 8981      		ldd r24,Y+1
 545 02ac 9A81      		ldd r25,Y+2
 546 02ae 0197      		sbiw r24,1
 547 02b0 2F81      		ldd r18,Y+7
 548 02b2 3885      		ldd r19,Y+8
 549 02b4 820F      		add r24,r18
 550 02b6 931F      		adc r25,r19
 551 02b8 FC01      		movw r30,r24
 552 02ba 8081      		ld r24,Z
 553 02bc 8D35      		cpi r24,lo8(93)
 554 02be 01F4      		brne .L19
  66:lp_solve_5.5/ini.c ****     memcpy(data, data + 1, l - 2);
 555               		.loc 1 66 0 is_stmt 1
 556 02c0 8981      		ldd r24,Y+1
 557 02c2 9A81      		ldd r25,Y+2
 558 02c4 0297      		sbiw r24,2
 559 02c6 AC01      		movw r20,r24
 560 02c8 8F81      		ldd r24,Y+7
 561 02ca 9885      		ldd r25,Y+8
 562 02cc 9C01      		movw r18,r24
 563 02ce 2F5F      		subi r18,-1
 564 02d0 3F4F      		sbci r19,-1
 565 02d2 8F81      		ldd r24,Y+7
 566 02d4 9885      		ldd r25,Y+8
 567 02d6 B901      		movw r22,r18
 568 02d8 0E94 0000 		call memcpy
  67:lp_solve_5.5/ini.c ****     data[l - 2] = 0;
 569               		.loc 1 67 0
 570 02dc 8981      		ldd r24,Y+1
 571 02de 9A81      		ldd r25,Y+2
 572 02e0 0297      		sbiw r24,2
 573 02e2 2F81      		ldd r18,Y+7
 574 02e4 3885      		ldd r19,Y+8
 575 02e6 820F      		add r24,r18
 576 02e8 931F      		adc r25,r19
 577 02ea FC01      		movw r30,r24
 578 02ec 1082      		st Z,__zero_reg__
  68:lp_solve_5.5/ini.c ****     return(1);
 579               		.loc 1 68 0
 580 02ee 81E0      		ldi r24,lo8(1)
 581 02f0 90E0      		ldi r25,0
 582 02f2 00C0      		rjmp .L14
 583               	.L19:
  69:lp_solve_5.5/ini.c ****   }
  70:lp_solve_5.5/ini.c ****   return(2);
 584               		.loc 1 70 0
 585 02f4 82E0      		ldi r24,lo8(2)
 586 02f6 90E0      		ldi r25,0
 587               	.L14:
 588               	/* epilogue start */
  71:lp_solve_5.5/ini.c **** }
 589               		.loc 1 71 0
 590 02f8 2C96      		adiw r28,12
 591 02fa 0FB6      		in __tmp_reg__,__SREG__
 592 02fc F894      		cli
 593 02fe DEBF      		out __SP_H__,r29
 594 0300 0FBE      		out __SREG__,__tmp_reg__
 595 0302 CDBF      		out __SP_L__,r28
 596 0304 DF91      		pop r29
 597 0306 CF91      		pop r28
 598 0308 0895      		ret
 599               		.cfi_endproc
 600               	.LFE12:
 602               	.global	ini_close
 604               	ini_close:
 605               	.LFB13:
  72:lp_solve_5.5/ini.c **** 
  73:lp_solve_5.5/ini.c **** void ini_close(FILE *fp)
  74:lp_solve_5.5/ini.c **** {
 606               		.loc 1 74 0
 607               		.cfi_startproc
 608 030a CF93      		push r28
 609               	.LCFI24:
 610               		.cfi_def_cfa_offset 3
 611               		.cfi_offset 28, -2
 612 030c DF93      		push r29
 613               	.LCFI25:
 614               		.cfi_def_cfa_offset 4
 615               		.cfi_offset 29, -3
 616 030e 00D0      		rcall .
 617               	.LCFI26:
 618               		.cfi_def_cfa_offset 6
 619 0310 CDB7      		in r28,__SP_L__
 620 0312 DEB7      		in r29,__SP_H__
 621               	.LCFI27:
 622               		.cfi_def_cfa_register 28
 623               	/* prologue: function */
 624               	/* frame size = 2 */
 625               	/* stack size = 4 */
 626               	.L__stack_usage = 4
 627 0314 9A83      		std Y+2,r25
 628 0316 8983      		std Y+1,r24
  75:lp_solve_5.5/ini.c ****   fclose(fp);
 629               		.loc 1 75 0
 630 0318 8981      		ldd r24,Y+1
 631 031a 9A81      		ldd r25,Y+2
 632 031c 0E94 0000 		call fclose
  76:lp_solve_5.5/ini.c **** }
 633               		.loc 1 76 0
 634 0320 0000      		nop
 635               	/* epilogue start */
 636 0322 0F90      		pop __tmp_reg__
 637 0324 0F90      		pop __tmp_reg__
 638 0326 DF91      		pop r29
 639 0328 CF91      		pop r28
 640 032a 0895      		ret
 641               		.cfi_endproc
 642               	.LFE13:
 644               	.Letext0:
 645               		.file 2 "c:\\program files (x86)\\atmel\\studio\\7.0\\toolchain\\avr8\\avr8-gnu-toolchain\\avr\\in
 646               		.file 3 "c:\\program files (x86)\\atmel\\studio\\7.0\\toolchain\\avr8\\avr8-gnu-toolchain\\avr\\in