   1               		.file	"lp_MPS.c"
   2               	__SP_H__ = 0x3e
   3               	__SP_L__ = 0x3d
   4               	__SREG__ = 0x3f
   5               	__RAMPZ__ = 0x3b
   6               	__tmp_reg__ = 0
   7               	__zero_reg__ = 1
   8               		.text
   9               	.Ltext0:
  10               		.cfi_sections	.debug_frame
  11               	.global	namecpy
  13               	namecpy:
  14               	.LFB7:
  15               		.file 1 "lp_solve_5.5/lp_MPS.c"
   1:lp_solve_5.5/lp_MPS.c **** 
   2:lp_solve_5.5/lp_MPS.c **** #include <string.h>
   3:lp_solve_5.5/lp_MPS.c **** #include <stdarg.h>
   4:lp_solve_5.5/lp_MPS.c **** #include <ctype.h>
   5:lp_solve_5.5/lp_MPS.c **** #include "commonlib.h"
   6:lp_solve_5.5/lp_MPS.c **** #include "lp_lib.h"
   7:lp_solve_5.5/lp_MPS.c **** #include "lp_scale.h"
   8:lp_solve_5.5/lp_MPS.c **** #include "lp_report.h"
   9:lp_solve_5.5/lp_MPS.c **** #include "lp_MPS.h"
  10:lp_solve_5.5/lp_MPS.c **** 
  11:lp_solve_5.5/lp_MPS.c **** #ifdef FORTIFY
  12:lp_solve_5.5/lp_MPS.c **** # include "lp_fortify.h"
  13:lp_solve_5.5/lp_MPS.c **** #endif
  14:lp_solve_5.5/lp_MPS.c **** 
  15:lp_solve_5.5/lp_MPS.c **** /* Define buffer-size controled function mapping */
  16:lp_solve_5.5/lp_MPS.c **** # if defined _MSC_VER
  17:lp_solve_5.5/lp_MPS.c **** #  define vsnprintf _vsnprintf
  18:lp_solve_5.5/lp_MPS.c **** # endif
  19:lp_solve_5.5/lp_MPS.c **** 
  20:lp_solve_5.5/lp_MPS.c **** /* MPS file input and output routines for lp_solve                           */
  21:lp_solve_5.5/lp_MPS.c **** /* ------------------------------------------------------------------------- */
  22:lp_solve_5.5/lp_MPS.c **** 
  23:lp_solve_5.5/lp_MPS.c **** /*
  24:lp_solve_5.5/lp_MPS.c **** A:  MPS format was named after an early IBM LP product and has emerged
  25:lp_solve_5.5/lp_MPS.c **** as a de facto standard ASCII medium among most of the commercial LP
  26:lp_solve_5.5/lp_MPS.c **** codes.  Essentially all commercial LP codes accept this format, but if
  27:lp_solve_5.5/lp_MPS.c **** you are using public domain software and have MPS files, you may need
  28:lp_solve_5.5/lp_MPS.c **** to write your own reader routine for this.  It's not too hard.  The
  29:lp_solve_5.5/lp_MPS.c **** main things to know about MPS format are that it is column oriented (as
  30:lp_solve_5.5/lp_MPS.c **** opposed to entering the model as equations), and everything (variables,
  31:lp_solve_5.5/lp_MPS.c **** rows, etc.) gets a name.  MPS format is described in more detail in
  32:lp_solve_5.5/lp_MPS.c **** Murtagh's book, referenced in another section. Also,
  33:lp_solve_5.5/lp_MPS.c **** 
  34:lp_solve_5.5/lp_MPS.c **** ftp://softlib.cs.rice.edu/pub/miplib/mps_format
  35:lp_solve_5.5/lp_MPS.c **** 
  36:lp_solve_5.5/lp_MPS.c **** is a nice short introduction.  exports
  37:lp_solve_5.5/lp_MPS.c **** 
  38:lp_solve_5.5/lp_MPS.c **** MPS is an old format, so it is set up as though you were using punch
  39:lp_solve_5.5/lp_MPS.c **** cards, and is not free format. Fields start in column 1, 5, 15, 25, 40
  40:lp_solve_5.5/lp_MPS.c **** and 50.  Sections of an MPS file are marked by so-called header cards,
  41:lp_solve_5.5/lp_MPS.c **** which are distinguished by their starting in column 1.  Although it is
  42:lp_solve_5.5/lp_MPS.c **** typical to use upper-case throughout the file (like I said, MPS has
  43:lp_solve_5.5/lp_MPS.c **** long historical roots), many MPS-readers will accept mixed-case for
  44:lp_solve_5.5/lp_MPS.c **** anything except the header cards, and some allow mixed-case anywhere.
  45:lp_solve_5.5/lp_MPS.c **** The names that you choose for the individual entities (constraints or
  46:lp_solve_5.5/lp_MPS.c **** variables) are not important to the solver; you should pick names that
  47:lp_solve_5.5/lp_MPS.c **** are meaningful to you, or will be easy for a post-processing code to
  48:lp_solve_5.5/lp_MPS.c **** read.
  49:lp_solve_5.5/lp_MPS.c **** 
  50:lp_solve_5.5/lp_MPS.c **** Here is a little sample model written in MPS format (explained in more
  51:lp_solve_5.5/lp_MPS.c **** detail below):
  52:lp_solve_5.5/lp_MPS.c **** 
  53:lp_solve_5.5/lp_MPS.c **** NAME          TESTPROB
  54:lp_solve_5.5/lp_MPS.c **** ROWS
  55:lp_solve_5.5/lp_MPS.c ****  N  COST
  56:lp_solve_5.5/lp_MPS.c ****  L  LIM1
  57:lp_solve_5.5/lp_MPS.c ****  G  LIM2
  58:lp_solve_5.5/lp_MPS.c ****  E  MYEQN
  59:lp_solve_5.5/lp_MPS.c **** COLUMNS
  60:lp_solve_5.5/lp_MPS.c ****     XONE      COST                 1   LIM1                 1
  61:lp_solve_5.5/lp_MPS.c ****     XONE      LIM2                 1
  62:lp_solve_5.5/lp_MPS.c ****     YTWO      COST                 4   LIM1                 1
  63:lp_solve_5.5/lp_MPS.c ****     YTWO      MYEQN               -1
  64:lp_solve_5.5/lp_MPS.c ****     ZTHREE    COST                 9   LIM2                 1
  65:lp_solve_5.5/lp_MPS.c ****     ZTHREE    MYEQN                1
  66:lp_solve_5.5/lp_MPS.c **** RHS
  67:lp_solve_5.5/lp_MPS.c ****     RHS1      LIM1                 5   LIM2                10
  68:lp_solve_5.5/lp_MPS.c ****     RHS1      MYEQN                7
  69:lp_solve_5.5/lp_MPS.c **** BOUNDS
  70:lp_solve_5.5/lp_MPS.c ****  UP BND1      XONE                 4
  71:lp_solve_5.5/lp_MPS.c ****  LO BND1      YTWO                -1
  72:lp_solve_5.5/lp_MPS.c ****  UP BND1      YTWO                 1
  73:lp_solve_5.5/lp_MPS.c **** ENDATA
  74:lp_solve_5.5/lp_MPS.c **** 
  75:lp_solve_5.5/lp_MPS.c **** means:
  76:lp_solve_5.5/lp_MPS.c **** 
  77:lp_solve_5.5/lp_MPS.c **** Optimize
  78:lp_solve_5.5/lp_MPS.c ****  COST:    XONE + 4 YTWO + 9 ZTHREE
  79:lp_solve_5.5/lp_MPS.c **** Subject To
  80:lp_solve_5.5/lp_MPS.c ****  LIM1:    XONE + YTWO <= 5
  81:lp_solve_5.5/lp_MPS.c ****  LIM2:    XONE + ZTHREE >= 10
  82:lp_solve_5.5/lp_MPS.c ****  MYEQN:   - YTWO + ZTHREE  = 7
  83:lp_solve_5.5/lp_MPS.c **** Bounds
  84:lp_solve_5.5/lp_MPS.c ****  0 <= XONE <= 4
  85:lp_solve_5.5/lp_MPS.c **** -1 <= YTWO <= 1
  86:lp_solve_5.5/lp_MPS.c **** End
  87:lp_solve_5.5/lp_MPS.c **** 
  88:lp_solve_5.5/lp_MPS.c **** */
  89:lp_solve_5.5/lp_MPS.c **** 
  90:lp_solve_5.5/lp_MPS.c **** /* copy a MPS name, only trailing spaces are removed. In MPS, names can have
  91:lp_solve_5.5/lp_MPS.c ****    embedded spaces! */
  92:lp_solve_5.5/lp_MPS.c **** STATIC void namecpy(char *into, char *from)
  93:lp_solve_5.5/lp_MPS.c **** {
  16               		.loc 1 93 0
  17               		.cfi_startproc
  18 0000 CF93      		push r28
  19               	.LCFI0:
  20               		.cfi_def_cfa_offset 3
  21               		.cfi_offset 28, -2
  22 0002 DF93      		push r29
  23               	.LCFI1:
  24               		.cfi_def_cfa_offset 4
  25               		.cfi_offset 29, -3
  26 0004 00D0      		rcall .
  27 0006 00D0      		rcall .
  28 0008 00D0      		rcall .
  29               	.LCFI2:
  30               		.cfi_def_cfa_offset 10
  31 000a CDB7      		in r28,__SP_L__
  32 000c DEB7      		in r29,__SP_H__
  33               	.LCFI3:
  34               		.cfi_def_cfa_register 28
  35               	/* prologue: function */
  36               	/* frame size = 6 */
  37               	/* stack size = 8 */
  38               	.L__stack_usage = 8
  39 000e 9C83      		std Y+4,r25
  40 0010 8B83      		std Y+3,r24
  41 0012 7E83      		std Y+6,r23
  42 0014 6D83      		std Y+5,r22
  94:lp_solve_5.5/lp_MPS.c ****   int i;
  95:lp_solve_5.5/lp_MPS.c **** 
  96:lp_solve_5.5/lp_MPS.c ****   /* copy at most 8 characters of from, stop at end of string or newline */
  97:lp_solve_5.5/lp_MPS.c ****   for(i = 0; (from[i] != '\0') && (from[i] != '\n') && (from[i] != '\r') && (i < 8); i++)
  43               		.loc 1 97 0
  44 0016 1A82      		std Y+2,__zero_reg__
  45 0018 1982      		std Y+1,__zero_reg__
  46 001a 00C0      		rjmp .L2
  47               	.L4:
  98:lp_solve_5.5/lp_MPS.c ****     into[i] = from[i];
  48               		.loc 1 98 0 discriminator 6
  49 001c 8981      		ldd r24,Y+1
  50 001e 9A81      		ldd r25,Y+2
  51 0020 2B81      		ldd r18,Y+3
  52 0022 3C81      		ldd r19,Y+4
  53 0024 820F      		add r24,r18
  54 0026 931F      		adc r25,r19
  55 0028 2981      		ldd r18,Y+1
  56 002a 3A81      		ldd r19,Y+2
  57 002c 4D81      		ldd r20,Y+5
  58 002e 5E81      		ldd r21,Y+6
  59 0030 240F      		add r18,r20
  60 0032 351F      		adc r19,r21
  61 0034 F901      		movw r30,r18
  62 0036 2081      		ld r18,Z
  63 0038 FC01      		movw r30,r24
  64 003a 2083      		st Z,r18
  97:lp_solve_5.5/lp_MPS.c ****     into[i] = from[i];
  65               		.loc 1 97 0 discriminator 6
  66 003c 8981      		ldd r24,Y+1
  67 003e 9A81      		ldd r25,Y+2
  68 0040 0196      		adiw r24,1
  69 0042 9A83      		std Y+2,r25
  70 0044 8983      		std Y+1,r24
  71               	.L2:
  97:lp_solve_5.5/lp_MPS.c ****     into[i] = from[i];
  72               		.loc 1 97 0 is_stmt 0 discriminator 1
  73 0046 8981      		ldd r24,Y+1
  74 0048 9A81      		ldd r25,Y+2
  75 004a 2D81      		ldd r18,Y+5
  76 004c 3E81      		ldd r19,Y+6
  77 004e 820F      		add r24,r18
  78 0050 931F      		adc r25,r19
  79 0052 FC01      		movw r30,r24
  80 0054 8081      		ld r24,Z
  81 0056 8823      		tst r24
  82 0058 01F0      		breq .L3
  97:lp_solve_5.5/lp_MPS.c ****     into[i] = from[i];
  83               		.loc 1 97 0 discriminator 3
  84 005a 8981      		ldd r24,Y+1
  85 005c 9A81      		ldd r25,Y+2
  86 005e 2D81      		ldd r18,Y+5
  87 0060 3E81      		ldd r19,Y+6
  88 0062 820F      		add r24,r18
  89 0064 931F      		adc r25,r19
  90 0066 FC01      		movw r30,r24
  91 0068 8081      		ld r24,Z
  92 006a 8A30      		cpi r24,lo8(10)
  93 006c 01F0      		breq .L3
  97:lp_solve_5.5/lp_MPS.c ****     into[i] = from[i];
  94               		.loc 1 97 0 discriminator 4
  95 006e 8981      		ldd r24,Y+1
  96 0070 9A81      		ldd r25,Y+2
  97 0072 2D81      		ldd r18,Y+5
  98 0074 3E81      		ldd r19,Y+6
  99 0076 820F      		add r24,r18
 100 0078 931F      		adc r25,r19
 101 007a FC01      		movw r30,r24
 102 007c 8081      		ld r24,Z
 103 007e 8D30      		cpi r24,lo8(13)
 104 0080 01F0      		breq .L3
  97:lp_solve_5.5/lp_MPS.c ****     into[i] = from[i];
 105               		.loc 1 97 0 discriminator 5
 106 0082 8981      		ldd r24,Y+1
 107 0084 9A81      		ldd r25,Y+2
 108 0086 0897      		sbiw r24,8
 109 0088 04F0      		brlt .L4
 110               	.L3:
  99:lp_solve_5.5/lp_MPS.c **** 
 100:lp_solve_5.5/lp_MPS.c ****   /* end with end of string */
 101:lp_solve_5.5/lp_MPS.c ****   into[i] = '\0';
 111               		.loc 1 101 0 is_stmt 1
 112 008a 8981      		ldd r24,Y+1
 113 008c 9A81      		ldd r25,Y+2
 114 008e 2B81      		ldd r18,Y+3
 115 0090 3C81      		ldd r19,Y+4
 116 0092 820F      		add r24,r18
 117 0094 931F      		adc r25,r19
 118 0096 FC01      		movw r30,r24
 119 0098 1082      		st Z,__zero_reg__
 102:lp_solve_5.5/lp_MPS.c **** 
 103:lp_solve_5.5/lp_MPS.c ****   /* remove trailing spaces, if any */
 104:lp_solve_5.5/lp_MPS.c ****   for(i--; (i >= 0) && (into[i] == ' '); i--)
 120               		.loc 1 104 0
 121 009a 8981      		ldd r24,Y+1
 122 009c 9A81      		ldd r25,Y+2
 123 009e 0197      		sbiw r24,1
 124 00a0 9A83      		std Y+2,r25
 125 00a2 8983      		std Y+1,r24
 126 00a4 00C0      		rjmp .L5
 127               	.L7:
 105:lp_solve_5.5/lp_MPS.c ****     into[i] = '\0';
 128               		.loc 1 105 0 discriminator 4
 129 00a6 8981      		ldd r24,Y+1
 130 00a8 9A81      		ldd r25,Y+2
 131 00aa 2B81      		ldd r18,Y+3
 132 00ac 3C81      		ldd r19,Y+4
 133 00ae 820F      		add r24,r18
 134 00b0 931F      		adc r25,r19
 135 00b2 FC01      		movw r30,r24
 136 00b4 1082      		st Z,__zero_reg__
 104:lp_solve_5.5/lp_MPS.c ****     into[i] = '\0';
 137               		.loc 1 104 0 discriminator 4
 138 00b6 8981      		ldd r24,Y+1
 139 00b8 9A81      		ldd r25,Y+2
 140 00ba 0197      		sbiw r24,1
 141 00bc 9A83      		std Y+2,r25
 142 00be 8983      		std Y+1,r24
 143               	.L5:
 104:lp_solve_5.5/lp_MPS.c ****     into[i] = '\0';
 144               		.loc 1 104 0 is_stmt 0 discriminator 1
 145 00c0 8981      		ldd r24,Y+1
 146 00c2 9A81      		ldd r25,Y+2
 147 00c4 9923      		tst r25
 148 00c6 04F0      		brlt .L8
 104:lp_solve_5.5/lp_MPS.c ****     into[i] = '\0';
 149               		.loc 1 104 0 discriminator 3
 150 00c8 8981      		ldd r24,Y+1
 151 00ca 9A81      		ldd r25,Y+2
 152 00cc 2B81      		ldd r18,Y+3
 153 00ce 3C81      		ldd r19,Y+4
 154 00d0 820F      		add r24,r18
 155 00d2 931F      		adc r25,r19
 156 00d4 FC01      		movw r30,r24
 157 00d6 8081      		ld r24,Z
 158 00d8 8032      		cpi r24,lo8(32)
 159 00da 01F0      		breq .L7
 160               	.L8:
 106:lp_solve_5.5/lp_MPS.c **** }
 161               		.loc 1 106 0 is_stmt 1
 162 00dc 0000      		nop
 163               	/* epilogue start */
 164 00de 2696      		adiw r28,6
 165 00e0 0FB6      		in __tmp_reg__,__SREG__
 166 00e2 F894      		cli
 167 00e4 DEBF      		out __SP_H__,r29
 168 00e6 0FBE      		out __SREG__,__tmp_reg__
 169 00e8 CDBF      		out __SP_L__,r28
 170 00ea DF91      		pop r29
 171 00ec CF91      		pop r28
 172 00ee 0895      		ret
 173               		.cfi_endproc
 174               	.LFE7:
 176               		.section	.rodata
 177               	.LC0:
 178 0000 2573 00   		.string	"%s"
 179               	.LC1:
 180 0003 4D50 535F 		.string	"MPS_readfile: invalid data card; column 4 must be blank\n"
 180      7265 6164 
 180      6669 6C65 
 180      3A20 696E 
 180      7661 6C69 
 181               	.LC2:
 182 003c 4D50 535F 		.string	"MPS_readfile: invalid data card; columns 13-14 must be blank\n"
 182      7265 6164 
 182      6669 6C65 
 182      3A20 696E 
 182      7661 6C69 
 183               	.LC3:
 184 007a 4D50 535F 		.string	"MPS_readfile: invalid data card; columns 23-24 must be blank\n"
 184      7265 6164 
 184      6669 6C65 
 184      3A20 696E 
 184      7661 6C69 
 185               	.LC4:
 186 00b8 4D50 535F 		.string	"MPS_readfile: invalid number in columns 25-36 \n"
 186      7265 6164 
 186      6669 6C65 
 186      3A20 696E 
 186      7661 6C69 
 187               	.LC5:
 188 00e8 4D50 535F 		.string	"MPS_readfile: invalid data card; columns 37-39 must be blank\n"
 188      7265 6164 
 188      6669 6C65 
 188      3A20 696E 
 188      7661 6C69 
 189               	.LC6:
 190 0126 4D50 535F 		.string	"MPS_readfile: invalid data card; columns 48-49 must be blank\n"
 190      7265 6164 
 190      6669 6C65 
 190      3A20 696E 
 190      7661 6C69 
 191               	.LC7:
 192 0164 4D50 535F 		.string	"MPS_readfile: invalid number in columns 50-61 \n"
 192      7265 6164 
 192      6669 6C65 
 192      3A20 696E 
 192      7661 6C69 
 193               		.text
 194               	.global	scan_lineFIXED
 196               	scan_lineFIXED:
 197               	.LFB8:
 107:lp_solve_5.5/lp_MPS.c **** 
 108:lp_solve_5.5/lp_MPS.c **** /* scan an MPS line, and pick up the information in the fields that are
 109:lp_solve_5.5/lp_MPS.c ****    present */
 110:lp_solve_5.5/lp_MPS.c **** 
 111:lp_solve_5.5/lp_MPS.c **** /* scan_line for fixed MPS format */
 112:lp_solve_5.5/lp_MPS.c **** STATIC int scan_lineFIXED(lprec *lp, int section, char* line, char *field1, char *field2, char *fie
 113:lp_solve_5.5/lp_MPS.c ****                           double *field4, char *field5, double *field6)
 114:lp_solve_5.5/lp_MPS.c **** {
 198               		.loc 1 114 0
 199               		.cfi_startproc
 200 00f0 8F92      		push r8
 201               	.LCFI4:
 202               		.cfi_def_cfa_offset 3
 203               		.cfi_offset 8, -2
 204 00f2 9F92      		push r9
 205               	.LCFI5:
 206               		.cfi_def_cfa_offset 4
 207               		.cfi_offset 9, -3
 208 00f4 AF92      		push r10
 209               	.LCFI6:
 210               		.cfi_def_cfa_offset 5
 211               		.cfi_offset 10, -4
 212 00f6 BF92      		push r11
 213               	.LCFI7:
 214               		.cfi_def_cfa_offset 6
 215               		.cfi_offset 11, -5
 216 00f8 CF92      		push r12
 217               	.LCFI8:
 218               		.cfi_def_cfa_offset 7
 219               		.cfi_offset 12, -6
 220 00fa DF92      		push r13
 221               	.LCFI9:
 222               		.cfi_def_cfa_offset 8
 223               		.cfi_offset 13, -7
 224 00fc EF92      		push r14
 225               	.LCFI10:
 226               		.cfi_def_cfa_offset 9
 227               		.cfi_offset 14, -8
 228 00fe FF92      		push r15
 229               	.LCFI11:
 230               		.cfi_def_cfa_offset 10
 231               		.cfi_offset 15, -9
 232 0100 0F93      		push r16
 233               	.LCFI12:
 234               		.cfi_def_cfa_offset 11
 235               		.cfi_offset 16, -10
 236 0102 1F93      		push r17
 237               	.LCFI13:
 238               		.cfi_def_cfa_offset 12
 239               		.cfi_offset 17, -11
 240 0104 CF93      		push r28
 241               	.LCFI14:
 242               		.cfi_def_cfa_offset 13
 243               		.cfi_offset 28, -12
 244 0106 DF93      		push r29
 245               	.LCFI15:
 246               		.cfi_def_cfa_offset 14
 247               		.cfi_offset 29, -13
 248 0108 CDB7      		in r28,__SP_L__
 249 010a DEB7      		in r29,__SP_H__
 250               	.LCFI16:
 251               		.cfi_def_cfa_register 28
 252 010c AA97      		sbiw r28,42
 253               	.LCFI17:
 254               		.cfi_def_cfa_offset 56
 255 010e 0FB6      		in __tmp_reg__,__SREG__
 256 0110 F894      		cli
 257 0112 DEBF      		out __SP_H__,r29
 258 0114 0FBE      		out __SREG__,__tmp_reg__
 259 0116 CDBF      		out __SP_L__,r28
 260               	/* prologue: function */
 261               	/* frame size = 42 */
 262               	/* stack size = 54 */
 263               	.L__stack_usage = 54
 264 0118 9A8F      		std Y+26,r25
 265 011a 898F      		std Y+25,r24
 266 011c 7C8F      		std Y+28,r23
 267 011e 6B8F      		std Y+27,r22
 268 0120 5E8F      		std Y+30,r21
 269 0122 4D8F      		std Y+29,r20
 270 0124 38A3      		std Y+32,r19
 271 0126 2F8F      		std Y+31,r18
 272 0128 1AA3      		std Y+34,r17
 273 012a 09A3      		std Y+33,r16
 274 012c FCA2      		std Y+36,r15
 275 012e EBA2      		std Y+35,r14
 276 0130 DEA2      		std Y+38,r13
 277 0132 CDA2      		std Y+37,r12
 278 0134 B8A6      		std Y+40,r11
 279 0136 AFA2      		std Y+39,r10
 280 0138 9AA6      		std Y+42,r9
 281 013a 89A6      		std Y+41,r8
 115:lp_solve_5.5/lp_MPS.c ****   int  items = 0, line_len;
 282               		.loc 1 115 0
 283 013c 1A82      		std Y+2,__zero_reg__
 284 013e 1982      		std Y+1,__zero_reg__
 116:lp_solve_5.5/lp_MPS.c ****   char buf[16], *ptr1, *ptr2;
 117:lp_solve_5.5/lp_MPS.c **** 
 118:lp_solve_5.5/lp_MPS.c ****   line_len = (int) strlen(line);
 285               		.loc 1 118 0
 286 0140 8D8D      		ldd r24,Y+29
 287 0142 9E8D      		ldd r25,Y+30
 288 0144 0E94 0000 		call strlen
 289 0148 9C83      		std Y+4,r25
 290 014a 8B83      		std Y+3,r24
 119:lp_solve_5.5/lp_MPS.c ****   while ((line_len) && ((line[line_len-1] == '\n') || (line[line_len-1] == '\r') || (line[line_len-
 291               		.loc 1 119 0
 292 014c 00C0      		rjmp .L10
 293               	.L12:
 120:lp_solve_5.5/lp_MPS.c ****    line_len--;
 294               		.loc 1 120 0
 295 014e 8B81      		ldd r24,Y+3
 296 0150 9C81      		ldd r25,Y+4
 297 0152 0197      		sbiw r24,1
 298 0154 9C83      		std Y+4,r25
 299 0156 8B83      		std Y+3,r24
 300               	.L10:
 119:lp_solve_5.5/lp_MPS.c ****   while ((line_len) && ((line[line_len-1] == '\n') || (line[line_len-1] == '\r') || (line[line_len-
 301               		.loc 1 119 0
 302 0158 8B81      		ldd r24,Y+3
 303 015a 9C81      		ldd r25,Y+4
 304 015c 892B      		or r24,r25
 305 015e 01F0      		breq .L11
 119:lp_solve_5.5/lp_MPS.c ****   while ((line_len) && ((line[line_len-1] == '\n') || (line[line_len-1] == '\r') || (line[line_len-
 306               		.loc 1 119 0 is_stmt 0 discriminator 1
 307 0160 8B81      		ldd r24,Y+3
 308 0162 9C81      		ldd r25,Y+4
 309 0164 0197      		sbiw r24,1
 310 0166 2D8D      		ldd r18,Y+29
 311 0168 3E8D      		ldd r19,Y+30
 312 016a 820F      		add r24,r18
 313 016c 931F      		adc r25,r19
 314 016e FC01      		movw r30,r24
 315 0170 8081      		ld r24,Z
 316 0172 8A30      		cpi r24,lo8(10)
 317 0174 01F0      		breq .L12
 119:lp_solve_5.5/lp_MPS.c ****   while ((line_len) && ((line[line_len-1] == '\n') || (line[line_len-1] == '\r') || (line[line_len-
 318               		.loc 1 119 0 discriminator 2
 319 0176 8B81      		ldd r24,Y+3
 320 0178 9C81      		ldd r25,Y+4
 321 017a 0197      		sbiw r24,1
 322 017c 2D8D      		ldd r18,Y+29
 323 017e 3E8D      		ldd r19,Y+30
 324 0180 820F      		add r24,r18
 325 0182 931F      		adc r25,r19
 326 0184 FC01      		movw r30,r24
 327 0186 8081      		ld r24,Z
 328 0188 8D30      		cpi r24,lo8(13)
 329 018a 01F0      		breq .L12
 119:lp_solve_5.5/lp_MPS.c ****   while ((line_len) && ((line[line_len-1] == '\n') || (line[line_len-1] == '\r') || (line[line_len-
 330               		.loc 1 119 0 discriminator 3
 331 018c 8B81      		ldd r24,Y+3
 332 018e 9C81      		ldd r25,Y+4
 333 0190 0197      		sbiw r24,1
 334 0192 2D8D      		ldd r18,Y+29
 335 0194 3E8D      		ldd r19,Y+30
 336 0196 820F      		add r24,r18
 337 0198 931F      		adc r25,r19
 338 019a FC01      		movw r30,r24
 339 019c 8081      		ld r24,Z
 340 019e 8032      		cpi r24,lo8(32)
 341 01a0 01F0      		breq .L12
 342               	.L11:
 121:lp_solve_5.5/lp_MPS.c **** 
 122:lp_solve_5.5/lp_MPS.c ****   if(line_len >= 1) { /* spaces or N/L/G/E or UP/LO */
 343               		.loc 1 122 0 is_stmt 1
 344 01a2 8B81      		ldd r24,Y+3
 345 01a4 9C81      		ldd r25,Y+4
 346 01a6 1816      		cp __zero_reg__,r24
 347 01a8 1906      		cpc __zero_reg__,r25
 348 01aa 04F4      		brge .L13
 123:lp_solve_5.5/lp_MPS.c ****     strncpy(buf, line, 4);
 349               		.loc 1 123 0
 350 01ac 2D8D      		ldd r18,Y+29
 351 01ae 3E8D      		ldd r19,Y+30
 352 01b0 CE01      		movw r24,r28
 353 01b2 0796      		adiw r24,7
 354 01b4 44E0      		ldi r20,lo8(4)
 355 01b6 50E0      		ldi r21,0
 356 01b8 B901      		movw r22,r18
 357 01ba 0E94 0000 		call strncpy
 124:lp_solve_5.5/lp_MPS.c ****     buf[4] = '\0';
 358               		.loc 1 124 0
 359 01be 1B86      		std Y+11,__zero_reg__
 125:lp_solve_5.5/lp_MPS.c ****     sscanf(buf, "%s", field1);
 360               		.loc 1 125 0
 361 01c0 88A1      		ldd r24,Y+32
 362 01c2 8F93      		push r24
 363 01c4 8F8D      		ldd r24,Y+31
 364 01c6 8F93      		push r24
 365 01c8 80E0      		ldi r24,lo8(.LC0)
 366 01ca 90E0      		ldi r25,hi8(.LC0)
 367 01cc 892F      		mov r24,r25
 368 01ce 8F93      		push r24
 369 01d0 80E0      		ldi r24,lo8(.LC0)
 370 01d2 90E0      		ldi r25,hi8(.LC0)
 371 01d4 8F93      		push r24
 372 01d6 CE01      		movw r24,r28
 373 01d8 0796      		adiw r24,7
 374 01da 292F      		mov r18,r25
 375 01dc 2F93      		push r18
 376 01de 8F93      		push r24
 377 01e0 0E94 0000 		call sscanf
 378 01e4 0F90      		pop __tmp_reg__
 379 01e6 0F90      		pop __tmp_reg__
 380 01e8 0F90      		pop __tmp_reg__
 381 01ea 0F90      		pop __tmp_reg__
 382 01ec 0F90      		pop __tmp_reg__
 383 01ee 0F90      		pop __tmp_reg__
 126:lp_solve_5.5/lp_MPS.c ****     items++;
 384               		.loc 1 126 0
 385 01f0 8981      		ldd r24,Y+1
 386 01f2 9A81      		ldd r25,Y+2
 387 01f4 0196      		adiw r24,1
 388 01f6 9A83      		std Y+2,r25
 389 01f8 8983      		std Y+1,r24
 390 01fa 00C0      		rjmp .L14
 391               	.L13:
 127:lp_solve_5.5/lp_MPS.c ****   }
 128:lp_solve_5.5/lp_MPS.c ****   else
 129:lp_solve_5.5/lp_MPS.c ****     field1[0] = '\0';
 392               		.loc 1 129 0
 393 01fc 8F8D      		ldd r24,Y+31
 394 01fe 98A1      		ldd r25,Y+32
 395 0200 FC01      		movw r30,r24
 396 0202 1082      		st Z,__zero_reg__
 397               	.L14:
 130:lp_solve_5.5/lp_MPS.c **** 
 131:lp_solve_5.5/lp_MPS.c ****   line += 4;
 398               		.loc 1 131 0
 399 0204 8D8D      		ldd r24,Y+29
 400 0206 9E8D      		ldd r25,Y+30
 401 0208 0496      		adiw r24,4
 402 020a 9E8F      		std Y+30,r25
 403 020c 8D8F      		std Y+29,r24
 132:lp_solve_5.5/lp_MPS.c **** 
 133:lp_solve_5.5/lp_MPS.c ****   if(line_len >= 5) { /* name */
 404               		.loc 1 133 0
 405 020e 8B81      		ldd r24,Y+3
 406 0210 9C81      		ldd r25,Y+4
 407 0212 0597      		sbiw r24,5
 408 0214 04F0      		brlt .L15
 134:lp_solve_5.5/lp_MPS.c ****     if (line[-1] != ' ') {
 409               		.loc 1 134 0
 410 0216 8D8D      		ldd r24,Y+29
 411 0218 9E8D      		ldd r25,Y+30
 412 021a 0197      		sbiw r24,1
 413 021c FC01      		movw r30,r24
 414 021e 8081      		ld r24,Z
 415 0220 8032      		cpi r24,lo8(32)
 416 0222 01F0      		breq .L16
 135:lp_solve_5.5/lp_MPS.c ****       report(lp, IMPORTANT, "MPS_readfile: invalid data card; column 4 must be blank\n");
 417               		.loc 1 135 0
 418 0224 80E0      		ldi r24,lo8(.LC1)
 419 0226 90E0      		ldi r25,hi8(.LC1)
 420 0228 892F      		mov r24,r25
 421 022a 8F93      		push r24
 422 022c 80E0      		ldi r24,lo8(.LC1)
 423 022e 90E0      		ldi r25,hi8(.LC1)
 424 0230 8F93      		push r24
 425 0232 1F92      		push __zero_reg__
 426 0234 83E0      		ldi r24,lo8(3)
 427 0236 8F93      		push r24
 428 0238 8A8D      		ldd r24,Y+26
 429 023a 8F93      		push r24
 430 023c 898D      		ldd r24,Y+25
 431 023e 8F93      		push r24
 432 0240 0E94 0000 		call report
 433 0244 0F90      		pop __tmp_reg__
 434 0246 0F90      		pop __tmp_reg__
 435 0248 0F90      		pop __tmp_reg__
 436 024a 0F90      		pop __tmp_reg__
 437 024c 0F90      		pop __tmp_reg__
 438 024e 0F90      		pop __tmp_reg__
 136:lp_solve_5.5/lp_MPS.c ****       return(-1);
 439               		.loc 1 136 0
 440 0250 8FEF      		ldi r24,lo8(-1)
 441 0252 9FEF      		ldi r25,lo8(-1)
 442 0254 00C0      		rjmp .L43
 443               	.L16:
 137:lp_solve_5.5/lp_MPS.c ****     }
 138:lp_solve_5.5/lp_MPS.c ****     namecpy(field2, line);
 444               		.loc 1 138 0
 445 0256 2D8D      		ldd r18,Y+29
 446 0258 3E8D      		ldd r19,Y+30
 447 025a 89A1      		ldd r24,Y+33
 448 025c 9AA1      		ldd r25,Y+34
 449 025e B901      		movw r22,r18
 450 0260 0E94 0000 		call namecpy
 139:lp_solve_5.5/lp_MPS.c ****     items++;
 451               		.loc 1 139 0
 452 0264 8981      		ldd r24,Y+1
 453 0266 9A81      		ldd r25,Y+2
 454 0268 0196      		adiw r24,1
 455 026a 9A83      		std Y+2,r25
 456 026c 8983      		std Y+1,r24
 457 026e 00C0      		rjmp .L18
 458               	.L15:
 140:lp_solve_5.5/lp_MPS.c ****   }
 141:lp_solve_5.5/lp_MPS.c ****   else
 142:lp_solve_5.5/lp_MPS.c ****     field2[0] = '\0';
 459               		.loc 1 142 0
 460 0270 89A1      		ldd r24,Y+33
 461 0272 9AA1      		ldd r25,Y+34
 462 0274 FC01      		movw r30,r24
 463 0276 1082      		st Z,__zero_reg__
 464               	.L18:
 143:lp_solve_5.5/lp_MPS.c **** 
 144:lp_solve_5.5/lp_MPS.c ****   line += 10;
 465               		.loc 1 144 0
 466 0278 8D8D      		ldd r24,Y+29
 467 027a 9E8D      		ldd r25,Y+30
 468 027c 0A96      		adiw r24,10
 469 027e 9E8F      		std Y+30,r25
 470 0280 8D8F      		std Y+29,r24
 145:lp_solve_5.5/lp_MPS.c **** 
 146:lp_solve_5.5/lp_MPS.c ****   if(line_len >= 14) { /* name */
 471               		.loc 1 146 0
 472 0282 8B81      		ldd r24,Y+3
 473 0284 9C81      		ldd r25,Y+4
 474 0286 0E97      		sbiw r24,14
 475 0288 04F0      		brlt .L19
 147:lp_solve_5.5/lp_MPS.c ****     if (line[-1] != ' ' || line[-2] != ' ') {
 476               		.loc 1 147 0
 477 028a 8D8D      		ldd r24,Y+29
 478 028c 9E8D      		ldd r25,Y+30
 479 028e 0197      		sbiw r24,1
 480 0290 FC01      		movw r30,r24
 481 0292 8081      		ld r24,Z
 482 0294 8032      		cpi r24,lo8(32)
 483 0296 01F4      		brne .L20
 484               		.loc 1 147 0 is_stmt 0 discriminator 1
 485 0298 8D8D      		ldd r24,Y+29
 486 029a 9E8D      		ldd r25,Y+30
 487 029c 0297      		sbiw r24,2
 488 029e FC01      		movw r30,r24
 489 02a0 8081      		ld r24,Z
 490 02a2 8032      		cpi r24,lo8(32)
 491 02a4 01F0      		breq .L21
 492               	.L20:
 148:lp_solve_5.5/lp_MPS.c ****       report(lp, IMPORTANT, "MPS_readfile: invalid data card; columns 13-14 must be blank\n");
 493               		.loc 1 148 0 is_stmt 1
 494 02a6 80E0      		ldi r24,lo8(.LC2)
 495 02a8 90E0      		ldi r25,hi8(.LC2)
 496 02aa 892F      		mov r24,r25
 497 02ac 8F93      		push r24
 498 02ae 80E0      		ldi r24,lo8(.LC2)
 499 02b0 90E0      		ldi r25,hi8(.LC2)
 500 02b2 8F93      		push r24
 501 02b4 1F92      		push __zero_reg__
 502 02b6 83E0      		ldi r24,lo8(3)
 503 02b8 8F93      		push r24
 504 02ba 8A8D      		ldd r24,Y+26
 505 02bc 8F93      		push r24
 506 02be 898D      		ldd r24,Y+25
 507 02c0 8F93      		push r24
 508 02c2 0E94 0000 		call report
 509 02c6 0F90      		pop __tmp_reg__
 510 02c8 0F90      		pop __tmp_reg__
 511 02ca 0F90      		pop __tmp_reg__
 512 02cc 0F90      		pop __tmp_reg__
 513 02ce 0F90      		pop __tmp_reg__
 514 02d0 0F90      		pop __tmp_reg__
 149:lp_solve_5.5/lp_MPS.c ****       return(-1);
 515               		.loc 1 149 0
 516 02d2 8FEF      		ldi r24,lo8(-1)
 517 02d4 9FEF      		ldi r25,lo8(-1)
 518 02d6 00C0      		rjmp .L43
 519               	.L21:
 150:lp_solve_5.5/lp_MPS.c ****     }
 151:lp_solve_5.5/lp_MPS.c ****     namecpy(field3, line);
 520               		.loc 1 151 0
 521 02d8 2D8D      		ldd r18,Y+29
 522 02da 3E8D      		ldd r19,Y+30
 523 02dc 8BA1      		ldd r24,Y+35
 524 02de 9CA1      		ldd r25,Y+36
 525 02e0 B901      		movw r22,r18
 526 02e2 0E94 0000 		call namecpy
 152:lp_solve_5.5/lp_MPS.c ****     items++;
 527               		.loc 1 152 0
 528 02e6 8981      		ldd r24,Y+1
 529 02e8 9A81      		ldd r25,Y+2
 530 02ea 0196      		adiw r24,1
 531 02ec 9A83      		std Y+2,r25
 532 02ee 8983      		std Y+1,r24
 533 02f0 00C0      		rjmp .L22
 534               	.L19:
 153:lp_solve_5.5/lp_MPS.c ****   }
 154:lp_solve_5.5/lp_MPS.c ****   else
 155:lp_solve_5.5/lp_MPS.c ****     field3[0] = '\0';
 535               		.loc 1 155 0
 536 02f2 8BA1      		ldd r24,Y+35
 537 02f4 9CA1      		ldd r25,Y+36
 538 02f6 FC01      		movw r30,r24
 539 02f8 1082      		st Z,__zero_reg__
 540               	.L22:
 156:lp_solve_5.5/lp_MPS.c **** 
 157:lp_solve_5.5/lp_MPS.c ****   line += 10;
 541               		.loc 1 157 0
 542 02fa 8D8D      		ldd r24,Y+29
 543 02fc 9E8D      		ldd r25,Y+30
 544 02fe 0A96      		adiw r24,10
 545 0300 9E8F      		std Y+30,r25
 546 0302 8D8F      		std Y+29,r24
 158:lp_solve_5.5/lp_MPS.c **** 
 159:lp_solve_5.5/lp_MPS.c ****   if(line_len >= 25) { /* number */
 547               		.loc 1 159 0
 548 0304 8B81      		ldd r24,Y+3
 549 0306 9C81      		ldd r25,Y+4
 550 0308 4997      		sbiw r24,25
 551 030a 04F4      		brge .+2
 552 030c 00C0      		rjmp .L23
 160:lp_solve_5.5/lp_MPS.c ****     if (line[-1] != ' ' || line[-2] != ' ') {
 553               		.loc 1 160 0
 554 030e 8D8D      		ldd r24,Y+29
 555 0310 9E8D      		ldd r25,Y+30
 556 0312 0197      		sbiw r24,1
 557 0314 FC01      		movw r30,r24
 558 0316 8081      		ld r24,Z
 559 0318 8032      		cpi r24,lo8(32)
 560 031a 01F4      		brne .L24
 561               		.loc 1 160 0 is_stmt 0 discriminator 1
 562 031c 8D8D      		ldd r24,Y+29
 563 031e 9E8D      		ldd r25,Y+30
 564 0320 0297      		sbiw r24,2
 565 0322 FC01      		movw r30,r24
 566 0324 8081      		ld r24,Z
 567 0326 8032      		cpi r24,lo8(32)
 568 0328 01F0      		breq .L25
 569               	.L24:
 161:lp_solve_5.5/lp_MPS.c ****       report(lp, IMPORTANT, "MPS_readfile: invalid data card; columns 23-24 must be blank\n");
 570               		.loc 1 161 0 is_stmt 1
 571 032a 80E0      		ldi r24,lo8(.LC3)
 572 032c 90E0      		ldi r25,hi8(.LC3)
 573 032e 892F      		mov r24,r25
 574 0330 8F93      		push r24
 575 0332 80E0      		ldi r24,lo8(.LC3)
 576 0334 90E0      		ldi r25,hi8(.LC3)
 577 0336 8F93      		push r24
 578 0338 1F92      		push __zero_reg__
 579 033a 83E0      		ldi r24,lo8(3)
 580 033c 8F93      		push r24
 581 033e 8A8D      		ldd r24,Y+26
 582 0340 8F93      		push r24
 583 0342 898D      		ldd r24,Y+25
 584 0344 8F93      		push r24
 585 0346 0E94 0000 		call report
 586 034a 0F90      		pop __tmp_reg__
 587 034c 0F90      		pop __tmp_reg__
 588 034e 0F90      		pop __tmp_reg__
 589 0350 0F90      		pop __tmp_reg__
 590 0352 0F90      		pop __tmp_reg__
 591 0354 0F90      		pop __tmp_reg__
 162:lp_solve_5.5/lp_MPS.c ****       return(-1);
 592               		.loc 1 162 0
 593 0356 8FEF      		ldi r24,lo8(-1)
 594 0358 9FEF      		ldi r25,lo8(-1)
 595 035a 00C0      		rjmp .L43
 596               	.L25:
 163:lp_solve_5.5/lp_MPS.c ****     }
 164:lp_solve_5.5/lp_MPS.c ****     strncpy(buf, line, 15);
 597               		.loc 1 164 0
 598 035c 2D8D      		ldd r18,Y+29
 599 035e 3E8D      		ldd r19,Y+30
 600 0360 CE01      		movw r24,r28
 601 0362 0796      		adiw r24,7
 602 0364 4FE0      		ldi r20,lo8(15)
 603 0366 50E0      		ldi r21,0
 604 0368 B901      		movw r22,r18
 605 036a 0E94 0000 		call strncpy
 165:lp_solve_5.5/lp_MPS.c ****     buf[15] = '\0';
 606               		.loc 1 165 0
 607 036e 1E8A      		std Y+22,__zero_reg__
 166:lp_solve_5.5/lp_MPS.c ****     for(ptr1 = ptr2 = buf; ; ptr1++)
 608               		.loc 1 166 0
 609 0370 CE01      		movw r24,r28
 610 0372 0796      		adiw r24,7
 611 0374 9E83      		std Y+6,r25
 612 0376 8D83      		std Y+5,r24
 613 0378 8D81      		ldd r24,Y+5
 614 037a 9E81      		ldd r25,Y+6
 615 037c 988F      		std Y+24,r25
 616 037e 8F8B      		std Y+23,r24
 617               	.L28:
 167:lp_solve_5.5/lp_MPS.c ****       if(!isspace((unsigned char) *ptr1))
 618               		.loc 1 167 0
 619 0380 8F89      		ldd r24,Y+23
 620 0382 988D      		ldd r25,Y+24
 621 0384 FC01      		movw r30,r24
 622 0386 8081      		ld r24,Z
 623 0388 882F      		mov r24,r24
 624 038a 90E0      		ldi r25,0
 625 038c 0E94 0000 		call isspace
 626 0390 892B      		or r24,r25
 627 0392 01F4      		brne .L26
 168:lp_solve_5.5/lp_MPS.c ****         if((*(ptr2++) = *ptr1) == 0)
 628               		.loc 1 168 0
 629 0394 8D81      		ldd r24,Y+5
 630 0396 9E81      		ldd r25,Y+6
 631 0398 9C01      		movw r18,r24
 632 039a 2F5F      		subi r18,-1
 633 039c 3F4F      		sbci r19,-1
 634 039e 3E83      		std Y+6,r19
 635 03a0 2D83      		std Y+5,r18
 636 03a2 2F89      		ldd r18,Y+23
 637 03a4 388D      		ldd r19,Y+24
 638 03a6 F901      		movw r30,r18
 639 03a8 2081      		ld r18,Z
 640 03aa FC01      		movw r30,r24
 641 03ac 2083      		st Z,r18
 642 03ae FC01      		movw r30,r24
 643 03b0 8081      		ld r24,Z
 644 03b2 8823      		tst r24
 645 03b4 01F0      		breq .L46
 646               	.L26:
 166:lp_solve_5.5/lp_MPS.c ****     for(ptr1 = ptr2 = buf; ; ptr1++)
 647               		.loc 1 166 0
 648 03b6 8F89      		ldd r24,Y+23
 649 03b8 988D      		ldd r25,Y+24
 650 03ba 0196      		adiw r24,1
 651 03bc 988F      		std Y+24,r25
 652 03be 8F8B      		std Y+23,r24
 169:lp_solve_5.5/lp_MPS.c ****           break;
 170:lp_solve_5.5/lp_MPS.c ****     /* *field4 = atof(buf); */
 171:lp_solve_5.5/lp_MPS.c ****     *field4 = strtod(buf, &ptr1);
 653               		.loc 1 171 0
 654 03c0 00C0      		rjmp .L28
 655               	.L46:
 169:lp_solve_5.5/lp_MPS.c ****           break;
 656               		.loc 1 169 0
 657 03c2 0000      		nop
 658               		.loc 1 171 0
 659 03c4 9E01      		movw r18,r28
 660 03c6 295E      		subi r18,-23
 661 03c8 3F4F      		sbci r19,-1
 662 03ca CE01      		movw r24,r28
 663 03cc 0796      		adiw r24,7
 664 03ce B901      		movw r22,r18
 665 03d0 0E94 0000 		call strtod
 666 03d4 DC01      		movw r26,r24
 667 03d6 CB01      		movw r24,r22
 668 03d8 2DA1      		ldd r18,Y+37
 669 03da 3EA1      		ldd r19,Y+38
 670 03dc F901      		movw r30,r18
 671 03de 8083      		st Z,r24
 672 03e0 9183      		std Z+1,r25
 673 03e2 A283      		std Z+2,r26
 674 03e4 B383      		std Z+3,r27
 172:lp_solve_5.5/lp_MPS.c ****     if(*ptr1) {
 675               		.loc 1 172 0
 676 03e6 8F89      		ldd r24,Y+23
 677 03e8 988D      		ldd r25,Y+24
 678 03ea FC01      		movw r30,r24
 679 03ec 8081      		ld r24,Z
 680 03ee 8823      		tst r24
 681 03f0 01F0      		breq .L29
 173:lp_solve_5.5/lp_MPS.c ****       report(lp, IMPORTANT, "MPS_readfile: invalid number in columns 25-36 \n");
 682               		.loc 1 173 0
 683 03f2 80E0      		ldi r24,lo8(.LC4)
 684 03f4 90E0      		ldi r25,hi8(.LC4)
 685 03f6 892F      		mov r24,r25
 686 03f8 8F93      		push r24
 687 03fa 80E0      		ldi r24,lo8(.LC4)
 688 03fc 90E0      		ldi r25,hi8(.LC4)
 689 03fe 8F93      		push r24
 690 0400 1F92      		push __zero_reg__
 691 0402 83E0      		ldi r24,lo8(3)
 692 0404 8F93      		push r24
 693 0406 8A8D      		ldd r24,Y+26
 694 0408 8F93      		push r24
 695 040a 898D      		ldd r24,Y+25
 696 040c 8F93      		push r24
 697 040e 0E94 0000 		call report
 698 0412 0F90      		pop __tmp_reg__
 699 0414 0F90      		pop __tmp_reg__
 700 0416 0F90      		pop __tmp_reg__
 701 0418 0F90      		pop __tmp_reg__
 702 041a 0F90      		pop __tmp_reg__
 703 041c 0F90      		pop __tmp_reg__
 174:lp_solve_5.5/lp_MPS.c ****       return(-1);
 704               		.loc 1 174 0
 705 041e 8FEF      		ldi r24,lo8(-1)
 706 0420 9FEF      		ldi r25,lo8(-1)
 707 0422 00C0      		rjmp .L43
 708               	.L29:
 175:lp_solve_5.5/lp_MPS.c ****     }
 176:lp_solve_5.5/lp_MPS.c ****     items++;
 709               		.loc 1 176 0
 710 0424 8981      		ldd r24,Y+1
 711 0426 9A81      		ldd r25,Y+2
 712 0428 0196      		adiw r24,1
 713 042a 9A83      		std Y+2,r25
 714 042c 8983      		std Y+1,r24
 715 042e 00C0      		rjmp .L30
 716               	.L23:
 177:lp_solve_5.5/lp_MPS.c ****   }
 178:lp_solve_5.5/lp_MPS.c ****   else
 179:lp_solve_5.5/lp_MPS.c ****     *field4 = 0;
 717               		.loc 1 179 0
 718 0430 8DA1      		ldd r24,Y+37
 719 0432 9EA1      		ldd r25,Y+38
 720 0434 FC01      		movw r30,r24
 721 0436 1082      		st Z,__zero_reg__
 722 0438 1182      		std Z+1,__zero_reg__
 723 043a 1282      		std Z+2,__zero_reg__
 724 043c 1382      		std Z+3,__zero_reg__
 725               	.L30:
 180:lp_solve_5.5/lp_MPS.c **** 
 181:lp_solve_5.5/lp_MPS.c ****   line += 15;
 726               		.loc 1 181 0
 727 043e 8D8D      		ldd r24,Y+29
 728 0440 9E8D      		ldd r25,Y+30
 729 0442 0F96      		adiw r24,15
 730 0444 9E8F      		std Y+30,r25
 731 0446 8D8F      		std Y+29,r24
 182:lp_solve_5.5/lp_MPS.c **** 
 183:lp_solve_5.5/lp_MPS.c ****   if(line_len >= 40) { /* name */
 732               		.loc 1 183 0
 733 0448 8B81      		ldd r24,Y+3
 734 044a 9C81      		ldd r25,Y+4
 735 044c 8897      		sbiw r24,40
 736 044e 04F0      		brlt .L31
 184:lp_solve_5.5/lp_MPS.c ****     if (line[-1] != ' ' || line[-2] != ' ' || line[-3] != ' ') {
 737               		.loc 1 184 0
 738 0450 8D8D      		ldd r24,Y+29
 739 0452 9E8D      		ldd r25,Y+30
 740 0454 0197      		sbiw r24,1
 741 0456 FC01      		movw r30,r24
 742 0458 8081      		ld r24,Z
 743 045a 8032      		cpi r24,lo8(32)
 744 045c 01F4      		brne .L32
 745               		.loc 1 184 0 is_stmt 0 discriminator 1
 746 045e 8D8D      		ldd r24,Y+29
 747 0460 9E8D      		ldd r25,Y+30
 748 0462 0297      		sbiw r24,2
 749 0464 FC01      		movw r30,r24
 750 0466 8081      		ld r24,Z
 751 0468 8032      		cpi r24,lo8(32)
 752 046a 01F4      		brne .L32
 753               		.loc 1 184 0 discriminator 2
 754 046c 8D8D      		ldd r24,Y+29
 755 046e 9E8D      		ldd r25,Y+30
 756 0470 0397      		sbiw r24,3
 757 0472 FC01      		movw r30,r24
 758 0474 8081      		ld r24,Z
 759 0476 8032      		cpi r24,lo8(32)
 760 0478 01F0      		breq .L33
 761               	.L32:
 185:lp_solve_5.5/lp_MPS.c ****       report(lp, IMPORTANT, "MPS_readfile: invalid data card; columns 37-39 must be blank\n");
 762               		.loc 1 185 0 is_stmt 1
 763 047a 80E0      		ldi r24,lo8(.LC5)
 764 047c 90E0      		ldi r25,hi8(.LC5)
 765 047e 892F      		mov r24,r25
 766 0480 8F93      		push r24
 767 0482 80E0      		ldi r24,lo8(.LC5)
 768 0484 90E0      		ldi r25,hi8(.LC5)
 769 0486 8F93      		push r24
 770 0488 1F92      		push __zero_reg__
 771 048a 83E0      		ldi r24,lo8(3)
 772 048c 8F93      		push r24
 773 048e 8A8D      		ldd r24,Y+26
 774 0490 8F93      		push r24
 775 0492 898D      		ldd r24,Y+25
 776 0494 8F93      		push r24
 777 0496 0E94 0000 		call report
 778 049a 0F90      		pop __tmp_reg__
 779 049c 0F90      		pop __tmp_reg__
 780 049e 0F90      		pop __tmp_reg__
 781 04a0 0F90      		pop __tmp_reg__
 782 04a2 0F90      		pop __tmp_reg__
 783 04a4 0F90      		pop __tmp_reg__
 186:lp_solve_5.5/lp_MPS.c ****       return(-1);
 784               		.loc 1 186 0
 785 04a6 8FEF      		ldi r24,lo8(-1)
 786 04a8 9FEF      		ldi r25,lo8(-1)
 787 04aa 00C0      		rjmp .L43
 788               	.L33:
 187:lp_solve_5.5/lp_MPS.c ****     }
 188:lp_solve_5.5/lp_MPS.c ****     namecpy(field5, line);
 789               		.loc 1 188 0
 790 04ac 2D8D      		ldd r18,Y+29
 791 04ae 3E8D      		ldd r19,Y+30
 792 04b0 8FA1      		ldd r24,Y+39
 793 04b2 98A5      		ldd r25,Y+40
 794 04b4 B901      		movw r22,r18
 795 04b6 0E94 0000 		call namecpy
 189:lp_solve_5.5/lp_MPS.c ****     items++;
 796               		.loc 1 189 0
 797 04ba 8981      		ldd r24,Y+1
 798 04bc 9A81      		ldd r25,Y+2
 799 04be 0196      		adiw r24,1
 800 04c0 9A83      		std Y+2,r25
 801 04c2 8983      		std Y+1,r24
 802 04c4 00C0      		rjmp .L34
 803               	.L31:
 190:lp_solve_5.5/lp_MPS.c ****   }
 191:lp_solve_5.5/lp_MPS.c ****   else
 192:lp_solve_5.5/lp_MPS.c ****     field5[0] = '\0';
 804               		.loc 1 192 0
 805 04c6 8FA1      		ldd r24,Y+39
 806 04c8 98A5      		ldd r25,Y+40
 807 04ca FC01      		movw r30,r24
 808 04cc 1082      		st Z,__zero_reg__
 809               	.L34:
 193:lp_solve_5.5/lp_MPS.c ****   line += 10;
 810               		.loc 1 193 0
 811 04ce 8D8D      		ldd r24,Y+29
 812 04d0 9E8D      		ldd r25,Y+30
 813 04d2 0A96      		adiw r24,10
 814 04d4 9E8F      		std Y+30,r25
 815 04d6 8D8F      		std Y+29,r24
 194:lp_solve_5.5/lp_MPS.c **** 
 195:lp_solve_5.5/lp_MPS.c ****   if(line_len >= 50) { /* number */
 816               		.loc 1 195 0
 817 04d8 8B81      		ldd r24,Y+3
 818 04da 9C81      		ldd r25,Y+4
 819 04dc C297      		sbiw r24,50
 820 04de 04F4      		brge .+2
 821 04e0 00C0      		rjmp .L35
 196:lp_solve_5.5/lp_MPS.c ****     if (line[-1] != ' ' || line[-2] != ' ') {
 822               		.loc 1 196 0
 823 04e2 8D8D      		ldd r24,Y+29
 824 04e4 9E8D      		ldd r25,Y+30
 825 04e6 0197      		sbiw r24,1
 826 04e8 FC01      		movw r30,r24
 827 04ea 8081      		ld r24,Z
 828 04ec 8032      		cpi r24,lo8(32)
 829 04ee 01F4      		brne .L36
 830               		.loc 1 196 0 is_stmt 0 discriminator 1
 831 04f0 8D8D      		ldd r24,Y+29
 832 04f2 9E8D      		ldd r25,Y+30
 833 04f4 0297      		sbiw r24,2
 834 04f6 FC01      		movw r30,r24
 835 04f8 8081      		ld r24,Z
 836 04fa 8032      		cpi r24,lo8(32)
 837 04fc 01F0      		breq .L37
 838               	.L36:
 197:lp_solve_5.5/lp_MPS.c ****       report(lp, IMPORTANT, "MPS_readfile: invalid data card; columns 48-49 must be blank\n");
 839               		.loc 1 197 0 is_stmt 1
 840 04fe 80E0      		ldi r24,lo8(.LC6)
 841 0500 90E0      		ldi r25,hi8(.LC6)
 842 0502 892F      		mov r24,r25
 843 0504 8F93      		push r24
 844 0506 80E0      		ldi r24,lo8(.LC6)
 845 0508 90E0      		ldi r25,hi8(.LC6)
 846 050a 8F93      		push r24
 847 050c 1F92      		push __zero_reg__
 848 050e 83E0      		ldi r24,lo8(3)
 849 0510 8F93      		push r24
 850 0512 8A8D      		ldd r24,Y+26
 851 0514 8F93      		push r24
 852 0516 898D      		ldd r24,Y+25
 853 0518 8F93      		push r24
 854 051a 0E94 0000 		call report
 855 051e 0F90      		pop __tmp_reg__
 856 0520 0F90      		pop __tmp_reg__
 857 0522 0F90      		pop __tmp_reg__
 858 0524 0F90      		pop __tmp_reg__
 859 0526 0F90      		pop __tmp_reg__
 860 0528 0F90      		pop __tmp_reg__
 198:lp_solve_5.5/lp_MPS.c ****       return(-1);
 861               		.loc 1 198 0
 862 052a 8FEF      		ldi r24,lo8(-1)
 863 052c 9FEF      		ldi r25,lo8(-1)
 864 052e 00C0      		rjmp .L43
 865               	.L37:
 199:lp_solve_5.5/lp_MPS.c ****     }
 200:lp_solve_5.5/lp_MPS.c ****     strncpy(buf, line, 15);
 866               		.loc 1 200 0
 867 0530 2D8D      		ldd r18,Y+29
 868 0532 3E8D      		ldd r19,Y+30
 869 0534 CE01      		movw r24,r28
 870 0536 0796      		adiw r24,7
 871 0538 4FE0      		ldi r20,lo8(15)
 872 053a 50E0      		ldi r21,0
 873 053c B901      		movw r22,r18
 874 053e 0E94 0000 		call strncpy
 201:lp_solve_5.5/lp_MPS.c ****     buf[15] = '\0';
 875               		.loc 1 201 0
 876 0542 1E8A      		std Y+22,__zero_reg__
 202:lp_solve_5.5/lp_MPS.c ****     for(ptr1 = ptr2 = buf; ; ptr1++)
 877               		.loc 1 202 0
 878 0544 CE01      		movw r24,r28
 879 0546 0796      		adiw r24,7
 880 0548 9E83      		std Y+6,r25
 881 054a 8D83      		std Y+5,r24
 882 054c 8D81      		ldd r24,Y+5
 883 054e 9E81      		ldd r25,Y+6
 884 0550 988F      		std Y+24,r25
 885 0552 8F8B      		std Y+23,r24
 886               	.L40:
 203:lp_solve_5.5/lp_MPS.c ****       if(!isspace((unsigned char) *ptr1))
 887               		.loc 1 203 0
 888 0554 8F89      		ldd r24,Y+23
 889 0556 988D      		ldd r25,Y+24
 890 0558 FC01      		movw r30,r24
 891 055a 8081      		ld r24,Z
 892 055c 882F      		mov r24,r24
 893 055e 90E0      		ldi r25,0
 894 0560 0E94 0000 		call isspace
 895 0564 892B      		or r24,r25
 896 0566 01F4      		brne .L38
 204:lp_solve_5.5/lp_MPS.c ****         if((*(ptr2++) = *ptr1) == 0)
 897               		.loc 1 204 0
 898 0568 8D81      		ldd r24,Y+5
 899 056a 9E81      		ldd r25,Y+6
 900 056c 9C01      		movw r18,r24
 901 056e 2F5F      		subi r18,-1
 902 0570 3F4F      		sbci r19,-1
 903 0572 3E83      		std Y+6,r19
 904 0574 2D83      		std Y+5,r18
 905 0576 2F89      		ldd r18,Y+23
 906 0578 388D      		ldd r19,Y+24
 907 057a F901      		movw r30,r18
 908 057c 2081      		ld r18,Z
 909 057e FC01      		movw r30,r24
 910 0580 2083      		st Z,r18
 911 0582 FC01      		movw r30,r24
 912 0584 8081      		ld r24,Z
 913 0586 8823      		tst r24
 914 0588 01F0      		breq .L47
 915               	.L38:
 202:lp_solve_5.5/lp_MPS.c ****     for(ptr1 = ptr2 = buf; ; ptr1++)
 916               		.loc 1 202 0
 917 058a 8F89      		ldd r24,Y+23
 918 058c 988D      		ldd r25,Y+24
 919 058e 0196      		adiw r24,1
 920 0590 988F      		std Y+24,r25
 921 0592 8F8B      		std Y+23,r24
 205:lp_solve_5.5/lp_MPS.c ****           break;
 206:lp_solve_5.5/lp_MPS.c ****     /* *field6 = atof(buf); */
 207:lp_solve_5.5/lp_MPS.c ****     *field6 = strtod(buf, &ptr1);
 922               		.loc 1 207 0
 923 0594 00C0      		rjmp .L40
 924               	.L47:
 205:lp_solve_5.5/lp_MPS.c ****           break;
 925               		.loc 1 205 0
 926 0596 0000      		nop
 927               		.loc 1 207 0
 928 0598 9E01      		movw r18,r28
 929 059a 295E      		subi r18,-23
 930 059c 3F4F      		sbci r19,-1
 931 059e CE01      		movw r24,r28
 932 05a0 0796      		adiw r24,7
 933 05a2 B901      		movw r22,r18
 934 05a4 0E94 0000 		call strtod
 935 05a8 DC01      		movw r26,r24
 936 05aa CB01      		movw r24,r22
 937 05ac 29A5      		ldd r18,Y+41
 938 05ae 3AA5      		ldd r19,Y+42
 939 05b0 F901      		movw r30,r18
 940 05b2 8083      		st Z,r24
 941 05b4 9183      		std Z+1,r25
 942 05b6 A283      		std Z+2,r26
 943 05b8 B383      		std Z+3,r27
 208:lp_solve_5.5/lp_MPS.c ****     if(*ptr1) {
 944               		.loc 1 208 0
 945 05ba 8F89      		ldd r24,Y+23
 946 05bc 988D      		ldd r25,Y+24
 947 05be FC01      		movw r30,r24
 948 05c0 8081      		ld r24,Z
 949 05c2 8823      		tst r24
 950 05c4 01F0      		breq .L41
 209:lp_solve_5.5/lp_MPS.c ****       report(lp, IMPORTANT, "MPS_readfile: invalid number in columns 50-61 \n");
 951               		.loc 1 209 0
 952 05c6 80E0      		ldi r24,lo8(.LC7)
 953 05c8 90E0      		ldi r25,hi8(.LC7)
 954 05ca 892F      		mov r24,r25
 955 05cc 8F93      		push r24
 956 05ce 80E0      		ldi r24,lo8(.LC7)
 957 05d0 90E0      		ldi r25,hi8(.LC7)
 958 05d2 8F93      		push r24
 959 05d4 1F92      		push __zero_reg__
 960 05d6 83E0      		ldi r24,lo8(3)
 961 05d8 8F93      		push r24
 962 05da 8A8D      		ldd r24,Y+26
 963 05dc 8F93      		push r24
 964 05de 898D      		ldd r24,Y+25
 965 05e0 8F93      		push r24
 966 05e2 0E94 0000 		call report
 967 05e6 0F90      		pop __tmp_reg__
 968 05e8 0F90      		pop __tmp_reg__
 969 05ea 0F90      		pop __tmp_reg__
 970 05ec 0F90      		pop __tmp_reg__
 971 05ee 0F90      		pop __tmp_reg__
 972 05f0 0F90      		pop __tmp_reg__
 210:lp_solve_5.5/lp_MPS.c ****       return(-1);
 973               		.loc 1 210 0
 974 05f2 8FEF      		ldi r24,lo8(-1)
 975 05f4 9FEF      		ldi r25,lo8(-1)
 976 05f6 00C0      		rjmp .L43
 977               	.L41:
 211:lp_solve_5.5/lp_MPS.c ****     }
 212:lp_solve_5.5/lp_MPS.c ****     items++;
 978               		.loc 1 212 0
 979 05f8 8981      		ldd r24,Y+1
 980 05fa 9A81      		ldd r25,Y+2
 981 05fc 0196      		adiw r24,1
 982 05fe 9A83      		std Y+2,r25
 983 0600 8983      		std Y+1,r24
 984 0602 00C0      		rjmp .L42
 985               	.L35:
 213:lp_solve_5.5/lp_MPS.c ****   }
 214:lp_solve_5.5/lp_MPS.c ****   else
 215:lp_solve_5.5/lp_MPS.c ****     *field6 = 0;
 986               		.loc 1 215 0
 987 0604 89A5      		ldd r24,Y+41
 988 0606 9AA5      		ldd r25,Y+42
 989 0608 FC01      		movw r30,r24
 990 060a 1082      		st Z,__zero_reg__
 991 060c 1182      		std Z+1,__zero_reg__
 992 060e 1282      		std Z+2,__zero_reg__
 993 0610 1382      		std Z+3,__zero_reg__
 994               	.L42:
 216:lp_solve_5.5/lp_MPS.c **** 
 217:lp_solve_5.5/lp_MPS.c ****   return(items);
 995               		.loc 1 217 0
 996 0612 8981      		ldd r24,Y+1
 997 0614 9A81      		ldd r25,Y+2
 998               	.L43:
 999               	/* epilogue start */
 218:lp_solve_5.5/lp_MPS.c **** }
 1000               		.loc 1 218 0 discriminator 1
 1001 0616 AA96      		adiw r28,42
 1002 0618 0FB6      		in __tmp_reg__,__SREG__
 1003 061a F894      		cli
 1004 061c DEBF      		out __SP_H__,r29
 1005 061e 0FBE      		out __SREG__,__tmp_reg__
 1006 0620 CDBF      		out __SP_L__,r28
 1007 0622 DF91      		pop r29
 1008 0624 CF91      		pop r28
 1009 0626 1F91      		pop r17
 1010 0628 0F91      		pop r16
 1011 062a FF90      		pop r15
 1012 062c EF90      		pop r14
 1013 062e DF90      		pop r13
 1014 0630 CF90      		pop r12
 1015 0632 BF90      		pop r11
 1016 0634 AF90      		pop r10
 1017 0636 9F90      		pop r9
 1018 0638 8F90      		pop r8
 1019 063a 0895      		ret
 1020               		.cfi_endproc
 1021               	.LFE8:
 1023               	.global	spaces
 1025               	spaces:
 1026               	.LFB9:
 219:lp_solve_5.5/lp_MPS.c **** 
 220:lp_solve_5.5/lp_MPS.c **** STATIC int spaces(char *line, int line_len)
 221:lp_solve_5.5/lp_MPS.c **** {
 1027               		.loc 1 221 0
 1028               		.cfi_startproc
 1029 063c CF93      		push r28
 1030               	.LCFI18:
 1031               		.cfi_def_cfa_offset 3
 1032               		.cfi_offset 28, -2
 1033 063e DF93      		push r29
 1034               	.LCFI19:
 1035               		.cfi_def_cfa_offset 4
 1036               		.cfi_offset 29, -3
 1037 0640 CDB7      		in r28,__SP_L__
 1038 0642 DEB7      		in r29,__SP_H__
 1039               	.LCFI20:
 1040               		.cfi_def_cfa_register 28
 1041 0644 2897      		sbiw r28,8
 1042               	.LCFI21:
 1043               		.cfi_def_cfa_offset 12
 1044 0646 0FB6      		in __tmp_reg__,__SREG__
 1045 0648 F894      		cli
 1046 064a DEBF      		out __SP_H__,r29
 1047 064c 0FBE      		out __SREG__,__tmp_reg__
 1048 064e CDBF      		out __SP_L__,r28
 1049               	/* prologue: function */
 1050               	/* frame size = 8 */
 1051               	/* stack size = 10 */
 1052               	.L__stack_usage = 10
 1053 0650 9E83      		std Y+6,r25
 1054 0652 8D83      		std Y+5,r24
 1055 0654 7887      		std Y+8,r23
 1056 0656 6F83      		std Y+7,r22
 222:lp_solve_5.5/lp_MPS.c ****   int l;
 223:lp_solve_5.5/lp_MPS.c ****   char *line1 = line;
 1057               		.loc 1 223 0
 1058 0658 8D81      		ldd r24,Y+5
 1059 065a 9E81      		ldd r25,Y+6
 1060 065c 9C83      		std Y+4,r25
 1061 065e 8B83      		std Y+3,r24
 224:lp_solve_5.5/lp_MPS.c **** 
 225:lp_solve_5.5/lp_MPS.c ****   while (*line1 == ' ')
 1062               		.loc 1 225 0
 1063 0660 00C0      		rjmp .L49
 1064               	.L50:
 226:lp_solve_5.5/lp_MPS.c ****     line1++;
 1065               		.loc 1 226 0
 1066 0662 8B81      		ldd r24,Y+3
 1067 0664 9C81      		ldd r25,Y+4
 1068 0666 0196      		adiw r24,1
 1069 0668 9C83      		std Y+4,r25
 1070 066a 8B83      		std Y+3,r24
 1071               	.L49:
 225:lp_solve_5.5/lp_MPS.c ****     line1++;
 1072               		.loc 1 225 0
 1073 066c 8B81      		ldd r24,Y+3
 1074 066e 9C81      		ldd r25,Y+4
 1075 0670 FC01      		movw r30,r24
 1076 0672 8081      		ld r24,Z
 1077 0674 8032      		cpi r24,lo8(32)
 1078 0676 01F0      		breq .L50
 227:lp_solve_5.5/lp_MPS.c ****   l = (int) (line1 - line);
 1079               		.loc 1 227 0
 1080 0678 2B81      		ldd r18,Y+3
 1081 067a 3C81      		ldd r19,Y+4
 1082 067c 8D81      		ldd r24,Y+5
 1083 067e 9E81      		ldd r25,Y+6
 1084 0680 A901      		movw r20,r18
 1085 0682 481B      		sub r20,r24
 1086 0684 590B      		sbc r21,r25
 1087 0686 CA01      		movw r24,r20
 1088 0688 9A83      		std Y+2,r25
 1089 068a 8983      		std Y+1,r24
 228:lp_solve_5.5/lp_MPS.c ****   if (line_len < l)
 1090               		.loc 1 228 0
 1091 068c 2F81      		ldd r18,Y+7
 1092 068e 3885      		ldd r19,Y+8
 1093 0690 8981      		ldd r24,Y+1
 1094 0692 9A81      		ldd r25,Y+2
 1095 0694 2817      		cp r18,r24
 1096 0696 3907      		cpc r19,r25
 1097 0698 04F4      		brge .L51
 229:lp_solve_5.5/lp_MPS.c ****     l = line_len;
 1098               		.loc 1 229 0
 1099 069a 8F81      		ldd r24,Y+7
 1100 069c 9885      		ldd r25,Y+8
 1101 069e 9A83      		std Y+2,r25
 1102 06a0 8983      		std Y+1,r24
 1103               	.L51:
 230:lp_solve_5.5/lp_MPS.c ****   return(l);
 1104               		.loc 1 230 0
 1105 06a2 8981      		ldd r24,Y+1
 1106 06a4 9A81      		ldd r25,Y+2
 1107               	/* epilogue start */
 231:lp_solve_5.5/lp_MPS.c **** }
 1108               		.loc 1 231 0
 1109 06a6 2896      		adiw r28,8
 1110 06a8 0FB6      		in __tmp_reg__,__SREG__
 1111 06aa F894      		cli
 1112 06ac DEBF      		out __SP_H__,r29
 1113 06ae 0FBE      		out __SREG__,__tmp_reg__
 1114 06b0 CDBF      		out __SP_L__,r28
 1115 06b2 DF91      		pop r29
 1116 06b4 CF91      		pop r28
 1117 06b6 0895      		ret
 1118               		.cfi_endproc
 1119               	.LFE9:
 1121               	.global	lenfield
 1123               	lenfield:
 1124               	.LFB10:
 232:lp_solve_5.5/lp_MPS.c **** 
 233:lp_solve_5.5/lp_MPS.c **** STATIC int lenfield(char *line, int line_len)
 234:lp_solve_5.5/lp_MPS.c **** {
 1125               		.loc 1 234 0
 1126               		.cfi_startproc
 1127 06b8 CF93      		push r28
 1128               	.LCFI22:
 1129               		.cfi_def_cfa_offset 3
 1130               		.cfi_offset 28, -2
 1131 06ba DF93      		push r29
 1132               	.LCFI23:
 1133               		.cfi_def_cfa_offset 4
 1134               		.cfi_offset 29, -3
 1135 06bc CDB7      		in r28,__SP_L__
 1136 06be DEB7      		in r29,__SP_H__
 1137               	.LCFI24:
 1138               		.cfi_def_cfa_register 28
 1139 06c0 2897      		sbiw r28,8
 1140               	.LCFI25:
 1141               		.cfi_def_cfa_offset 12
 1142 06c2 0FB6      		in __tmp_reg__,__SREG__
 1143 06c4 F894      		cli
 1144 06c6 DEBF      		out __SP_H__,r29
 1145 06c8 0FBE      		out __SREG__,__tmp_reg__
 1146 06ca CDBF      		out __SP_L__,r28
 1147               	/* prologue: function */
 1148               	/* frame size = 8 */
 1149               	/* stack size = 10 */
 1150               	.L__stack_usage = 10
 1151 06cc 9E83      		std Y+6,r25
 1152 06ce 8D83      		std Y+5,r24
 1153 06d0 7887      		std Y+8,r23
 1154 06d2 6F83      		std Y+7,r22
 235:lp_solve_5.5/lp_MPS.c ****   int l;
 236:lp_solve_5.5/lp_MPS.c ****   char *line1 = line;
 1155               		.loc 1 236 0
 1156 06d4 8D81      		ldd r24,Y+5
 1157 06d6 9E81      		ldd r25,Y+6
 1158 06d8 9C83      		std Y+4,r25
 1159 06da 8B83      		std Y+3,r24
 237:lp_solve_5.5/lp_MPS.c **** 
 238:lp_solve_5.5/lp_MPS.c ****   while ((*line1) && (*line1 != ' '))
 1160               		.loc 1 238 0
 1161 06dc 00C0      		rjmp .L54
 1162               	.L56:
 239:lp_solve_5.5/lp_MPS.c ****     line1++;
 1163               		.loc 1 239 0
 1164 06de 8B81      		ldd r24,Y+3
 1165 06e0 9C81      		ldd r25,Y+4
 1166 06e2 0196      		adiw r24,1
 1167 06e4 9C83      		std Y+4,r25
 1168 06e6 8B83      		std Y+3,r24
 1169               	.L54:
 238:lp_solve_5.5/lp_MPS.c ****     line1++;
 1170               		.loc 1 238 0
 1171 06e8 8B81      		ldd r24,Y+3
 1172 06ea 9C81      		ldd r25,Y+4
 1173 06ec FC01      		movw r30,r24
 1174 06ee 8081      		ld r24,Z
 1175 06f0 8823      		tst r24
 1176 06f2 01F0      		breq .L55
 238:lp_solve_5.5/lp_MPS.c ****     line1++;
 1177               		.loc 1 238 0 is_stmt 0 discriminator 1
 1178 06f4 8B81      		ldd r24,Y+3
 1179 06f6 9C81      		ldd r25,Y+4
 1180 06f8 FC01      		movw r30,r24
 1181 06fa 8081      		ld r24,Z
 1182 06fc 8032      		cpi r24,lo8(32)
 1183 06fe 01F4      		brne .L56
 1184               	.L55:
 240:lp_solve_5.5/lp_MPS.c ****   l = (int) (line1 - line);
 1185               		.loc 1 240 0 is_stmt 1
 1186 0700 2B81      		ldd r18,Y+3
 1187 0702 3C81      		ldd r19,Y+4
 1188 0704 8D81      		ldd r24,Y+5
 1189 0706 9E81      		ldd r25,Y+6
 1190 0708 A901      		movw r20,r18
 1191 070a 481B      		sub r20,r24
 1192 070c 590B      		sbc r21,r25
 1193 070e CA01      		movw r24,r20
 1194 0710 9A83      		std Y+2,r25
 1195 0712 8983      		std Y+1,r24
 241:lp_solve_5.5/lp_MPS.c ****   if (line_len < l)
 1196               		.loc 1 241 0
 1197 0714 2F81      		ldd r18,Y+7
 1198 0716 3885      		ldd r19,Y+8
 1199 0718 8981      		ldd r24,Y+1
 1200 071a 9A81      		ldd r25,Y+2
 1201 071c 2817      		cp r18,r24
 1202 071e 3907      		cpc r19,r25
 1203 0720 04F4      		brge .L57
 242:lp_solve_5.5/lp_MPS.c ****     l = line_len;
 1204               		.loc 1 242 0
 1205 0722 8F81      		ldd r24,Y+7
 1206 0724 9885      		ldd r25,Y+8
 1207 0726 9A83      		std Y+2,r25
 1208 0728 8983      		std Y+1,r24
 1209               	.L57:
 243:lp_solve_5.5/lp_MPS.c ****   return(l);
 1210               		.loc 1 243 0
 1211 072a 8981      		ldd r24,Y+1
 1212 072c 9A81      		ldd r25,Y+2
 1213               	/* epilogue start */
 244:lp_solve_5.5/lp_MPS.c **** }
 1214               		.loc 1 244 0
 1215 072e 2896      		adiw r28,8
 1216 0730 0FB6      		in __tmp_reg__,__SREG__
 1217 0732 F894      		cli
 1218 0734 DEBF      		out __SP_H__,r29
 1219 0736 0FBE      		out __SREG__,__tmp_reg__
 1220 0738 CDBF      		out __SP_L__,r28
 1221 073a DF91      		pop r29
 1222 073c CF91      		pop r28
 1223 073e 0895      		ret
 1224               		.cfi_endproc
 1225               	.LFE10:
 1227               		.section	.rodata
 1228               	.LC8:
 1229 0194 274D 4152 		.string	"'MARKER'"
 1229      4B45 5227 
 1229      00
 1230               	.LC9:
 1231 019d 4652 00   		.string	"FR"
 1232               	.LC10:
 1233 01a0 4D49 00   		.string	"MI"
 1234               	.LC11:
 1235 01a3 504C 00   		.string	"PL"
 1236               	.LC12:
 1237 01a6 4256 00   		.string	"BV"
 1238               		.text
 1239               	.global	scan_lineFREE
 1241               	scan_lineFREE:
 1242               	.LFB11:
 245:lp_solve_5.5/lp_MPS.c **** 
 246:lp_solve_5.5/lp_MPS.c **** /* scan_line for fixed MPS format */
 247:lp_solve_5.5/lp_MPS.c **** STATIC int scan_lineFREE(lprec *lp, int section, char* line, char *field1, char *field2, char *fiel
 248:lp_solve_5.5/lp_MPS.c ****                          double *field4, char *field5, double *field6)
 249:lp_solve_5.5/lp_MPS.c **** {
 1243               		.loc 1 249 0
 1244               		.cfi_startproc
 1245 0740 8F92      		push r8
 1246               	.LCFI26:
 1247               		.cfi_def_cfa_offset 3
 1248               		.cfi_offset 8, -2
 1249 0742 9F92      		push r9
 1250               	.LCFI27:
 1251               		.cfi_def_cfa_offset 4
 1252               		.cfi_offset 9, -3
 1253 0744 AF92      		push r10
 1254               	.LCFI28:
 1255               		.cfi_def_cfa_offset 5
 1256               		.cfi_offset 10, -4
 1257 0746 BF92      		push r11
 1258               	.LCFI29:
 1259               		.cfi_def_cfa_offset 6
 1260               		.cfi_offset 11, -5
 1261 0748 CF92      		push r12
 1262               	.LCFI30:
 1263               		.cfi_def_cfa_offset 7
 1264               		.cfi_offset 12, -6
 1265 074a DF92      		push r13
 1266               	.LCFI31:
 1267               		.cfi_def_cfa_offset 8
 1268               		.cfi_offset 13, -7
 1269 074c EF92      		push r14
 1270               	.LCFI32:
 1271               		.cfi_def_cfa_offset 9
 1272               		.cfi_offset 14, -8
 1273 074e FF92      		push r15
 1274               	.LCFI33:
 1275               		.cfi_def_cfa_offset 10
 1276               		.cfi_offset 15, -9
 1277 0750 0F93      		push r16
 1278               	.LCFI34:
 1279               		.cfi_def_cfa_offset 11
 1280               		.cfi_offset 16, -10
 1281 0752 1F93      		push r17
 1282               	.LCFI35:
 1283               		.cfi_def_cfa_offset 12
 1284               		.cfi_offset 17, -11
 1285 0754 CF93      		push r28
 1286               	.LCFI36:
 1287               		.cfi_def_cfa_offset 13
 1288               		.cfi_offset 28, -12
 1289 0756 DF93      		push r29
 1290               	.LCFI37:
 1291               		.cfi_def_cfa_offset 14
 1292               		.cfi_offset 29, -13
 1293 0758 CDB7      		in r28,__SP_L__
 1294 075a DEB7      		in r29,__SP_H__
 1295               	.LCFI38:
 1296               		.cfi_def_cfa_register 28
 1297 075c C252      		subi r28,34
 1298 075e D140      		sbci r29,1
 1299               	.LCFI39:
 1300               		.cfi_def_cfa_offset 304
 1301 0760 0FB6      		in __tmp_reg__,__SREG__
 1302 0762 F894      		cli
 1303 0764 DEBF      		out __SP_H__,r29
 1304 0766 0FBE      		out __SREG__,__tmp_reg__
 1305 0768 CDBF      		out __SP_L__,r28
 1306               	/* prologue: function */
 1307               	/* frame size = 290 */
 1308               	/* stack size = 302 */
 1309               	.L__stack_usage = 302
 1310 076a FE01      		movw r30,r28
 1311 076c EF5E      		subi r30,-17
 1312 076e FE4F      		sbci r31,-2
 1313 0770 9183      		std Z+1,r25
 1314 0772 8083      		st Z,r24
 1315 0774 CE01      		movw r24,r28
 1316 0776 8D5E      		subi r24,-19
 1317 0778 9E4F      		sbci r25,-2
 1318 077a FC01      		movw r30,r24
 1319 077c 7183      		std Z+1,r23
 1320 077e 6083      		st Z,r22
 1321 0780 CE01      		movw r24,r28
 1322 0782 8B5E      		subi r24,-21
 1323 0784 9E4F      		sbci r25,-2
 1324 0786 FC01      		movw r30,r24
 1325 0788 5183      		std Z+1,r21
 1326 078a 4083      		st Z,r20
 1327 078c CE01      		movw r24,r28
 1328 078e 895E      		subi r24,-23
 1329 0790 9E4F      		sbci r25,-2
 1330 0792 FC01      		movw r30,r24
 1331 0794 3183      		std Z+1,r19
 1332 0796 2083      		st Z,r18
 1333 0798 CE01      		movw r24,r28
 1334 079a 875E      		subi r24,-25
 1335 079c 9E4F      		sbci r25,-2
 1336 079e FC01      		movw r30,r24
 1337 07a0 1183      		std Z+1,r17
 1338 07a2 0083      		st Z,r16
 1339 07a4 CE01      		movw r24,r28
 1340 07a6 855E      		subi r24,-27
 1341 07a8 9E4F      		sbci r25,-2
 1342 07aa FC01      		movw r30,r24
 1343 07ac F182      		std Z+1,r15
 1344 07ae E082      		st Z,r14
 1345 07b0 CE01      		movw r24,r28
 1346 07b2 835E      		subi r24,-29
 1347 07b4 9E4F      		sbci r25,-2
 1348 07b6 FC01      		movw r30,r24
 1349 07b8 D182      		std Z+1,r13
 1350 07ba C082      		st Z,r12
 1351 07bc CE01      		movw r24,r28
 1352 07be 815E      		subi r24,-31
 1353 07c0 9E4F      		sbci r25,-2
 1354 07c2 FC01      		movw r30,r24
 1355 07c4 B182      		std Z+1,r11
 1356 07c6 A082      		st Z,r10
 1357 07c8 CE01      		movw r24,r28
 1358 07ca 8F5D      		subi r24,-33
 1359 07cc 9E4F      		sbci r25,-2
 1360 07ce FC01      		movw r30,r24
 1361 07d0 9182      		std Z+1,r9
 1362 07d2 8082      		st Z,r8
 250:lp_solve_5.5/lp_MPS.c ****   int  items = 0, line_len, len;
 1363               		.loc 1 250 0
 1364 07d4 1A82      		std Y+2,__zero_reg__
 1365 07d6 1982      		std Y+1,__zero_reg__
 251:lp_solve_5.5/lp_MPS.c ****   char buf[256], *ptr1 = NULL, *ptr2;
 1366               		.loc 1 251 0
 1367 07d8 CE01      		movw r24,r28
 1368 07da 815F      		subi r24,-15
 1369 07dc 9E4F      		sbci r25,-2
 1370 07de FC01      		movw r30,r24
 1371 07e0 1182      		std Z+1,__zero_reg__
 1372 07e2 1082      		st Z,__zero_reg__
 252:lp_solve_5.5/lp_MPS.c **** 
 253:lp_solve_5.5/lp_MPS.c ****   line_len = (int) strlen(line);
 1373               		.loc 1 253 0
 1374 07e4 CE01      		movw r24,r28
 1375 07e6 8B5E      		subi r24,-21
 1376 07e8 9E4F      		sbci r25,-2
 1377 07ea FC01      		movw r30,r24
 1378 07ec 8081      		ld r24,Z
 1379 07ee 9181      		ldd r25,Z+1
 1380 07f0 0E94 0000 		call strlen
 1381 07f4 9C83      		std Y+4,r25
 1382 07f6 8B83      		std Y+3,r24
 254:lp_solve_5.5/lp_MPS.c ****   while ((line_len) && ((line[line_len-1] == '\n') || (line[line_len-1] == '\r') || (line[line_len-
 1383               		.loc 1 254 0
 1384 07f8 00C0      		rjmp .L60
 1385               	.L62:
 255:lp_solve_5.5/lp_MPS.c ****    line_len--;
 1386               		.loc 1 255 0
 1387 07fa 8B81      		ldd r24,Y+3
 1388 07fc 9C81      		ldd r25,Y+4
 1389 07fe 0197      		sbiw r24,1
 1390 0800 9C83      		std Y+4,r25
 1391 0802 8B83      		std Y+3,r24
 1392               	.L60:
 254:lp_solve_5.5/lp_MPS.c ****   while ((line_len) && ((line[line_len-1] == '\n') || (line[line_len-1] == '\r') || (line[line_len-
 1393               		.loc 1 254 0
 1394 0804 8B81      		ldd r24,Y+3
 1395 0806 9C81      		ldd r25,Y+4
 1396 0808 892B      		or r24,r25
 1397 080a 01F0      		breq .L61
 254:lp_solve_5.5/lp_MPS.c ****   while ((line_len) && ((line[line_len-1] == '\n') || (line[line_len-1] == '\r') || (line[line_len-
 1398               		.loc 1 254 0 is_stmt 0 discriminator 1
 1399 080c 8B81      		ldd r24,Y+3
 1400 080e 9C81      		ldd r25,Y+4
 1401 0810 0197      		sbiw r24,1
 1402 0812 9E01      		movw r18,r28
 1403 0814 2B5E      		subi r18,-21
 1404 0816 3E4F      		sbci r19,-2
 1405 0818 F901      		movw r30,r18
 1406 081a 2081      		ld r18,Z
 1407 081c 3181      		ldd r19,Z+1
 1408 081e 820F      		add r24,r18
 1409 0820 931F      		adc r25,r19
 1410 0822 FC01      		movw r30,r24
 1411 0824 8081      		ld r24,Z
 1412 0826 8A30      		cpi r24,lo8(10)
 1413 0828 01F0      		breq .L62
 254:lp_solve_5.5/lp_MPS.c ****   while ((line_len) && ((line[line_len-1] == '\n') || (line[line_len-1] == '\r') || (line[line_len-
 1414               		.loc 1 254 0 discriminator 2
 1415 082a 8B81      		ldd r24,Y+3
 1416 082c 9C81      		ldd r25,Y+4
 1417 082e 0197      		sbiw r24,1
 1418 0830 9E01      		movw r18,r28
 1419 0832 2B5E      		subi r18,-21
 1420 0834 3E4F      		sbci r19,-2
 1421 0836 F901      		movw r30,r18
 1422 0838 2081      		ld r18,Z
 1423 083a 3181      		ldd r19,Z+1
 1424 083c 820F      		add r24,r18
 1425 083e 931F      		adc r25,r19
 1426 0840 FC01      		movw r30,r24
 1427 0842 8081      		ld r24,Z
 1428 0844 8D30      		cpi r24,lo8(13)
 1429 0846 01F0      		breq .L62
 254:lp_solve_5.5/lp_MPS.c ****   while ((line_len) && ((line[line_len-1] == '\n') || (line[line_len-1] == '\r') || (line[line_len-
 1430               		.loc 1 254 0 discriminator 3
 1431 0848 8B81      		ldd r24,Y+3
 1432 084a 9C81      		ldd r25,Y+4
 1433 084c 0197      		sbiw r24,1
 1434 084e 9E01      		movw r18,r28
 1435 0850 2B5E      		subi r18,-21
 1436 0852 3E4F      		sbci r19,-2
 1437 0854 F901      		movw r30,r18
 1438 0856 2081      		ld r18,Z
 1439 0858 3181      		ldd r19,Z+1
 1440 085a 820F      		add r24,r18
 1441 085c 931F      		adc r25,r19
 1442 085e FC01      		movw r30,r24
 1443 0860 8081      		ld r24,Z
 1444 0862 8032      		cpi r24,lo8(32)
 1445 0864 01F0      		breq .L62
 1446               	.L61:
 256:lp_solve_5.5/lp_MPS.c **** 
 257:lp_solve_5.5/lp_MPS.c ****   len = spaces(line, line_len);
 1447               		.loc 1 257 0 is_stmt 1
 1448 0866 2B81      		ldd r18,Y+3
 1449 0868 3C81      		ldd r19,Y+4
 1450 086a CE01      		movw r24,r28
 1451 086c 8B5E      		subi r24,-21
 1452 086e 9E4F      		sbci r25,-2
 1453 0870 FC01      		movw r30,r24
 1454 0872 8081      		ld r24,Z
 1455 0874 9181      		ldd r25,Z+1
 1456 0876 B901      		movw r22,r18
 1457 0878 0E94 0000 		call spaces
 1458 087c 9E87      		std Y+14,r25
 1459 087e 8D87      		std Y+13,r24
 258:lp_solve_5.5/lp_MPS.c ****   line += len;
 1460               		.loc 1 258 0
 1461 0880 2D85      		ldd r18,Y+13
 1462 0882 3E85      		ldd r19,Y+14
 1463 0884 CE01      		movw r24,r28
 1464 0886 8B5E      		subi r24,-21
 1465 0888 9E4F      		sbci r25,-2
 1466 088a AE01      		movw r20,r28
 1467 088c 4B5E      		subi r20,-21
 1468 088e 5E4F      		sbci r21,-2
 1469 0890 FA01      		movw r30,r20
 1470 0892 4081      		ld r20,Z
 1471 0894 5181      		ldd r21,Z+1
 1472 0896 240F      		add r18,r20
 1473 0898 351F      		adc r19,r21
 1474 089a FC01      		movw r30,r24
 1475 089c 3183      		std Z+1,r19
 1476 089e 2083      		st Z,r18
 259:lp_solve_5.5/lp_MPS.c ****   line_len -= len;
 1477               		.loc 1 259 0
 1478 08a0 2B81      		ldd r18,Y+3
 1479 08a2 3C81      		ldd r19,Y+4
 1480 08a4 8D85      		ldd r24,Y+13
 1481 08a6 9E85      		ldd r25,Y+14
 1482 08a8 A901      		movw r20,r18
 1483 08aa 481B      		sub r20,r24
 1484 08ac 590B      		sbc r21,r25
 1485 08ae CA01      		movw r24,r20
 1486 08b0 9C83      		std Y+4,r25
 1487 08b2 8B83      		std Y+3,r24
 260:lp_solve_5.5/lp_MPS.c **** 
 261:lp_solve_5.5/lp_MPS.c ****   if ((section == MPSCOLUMNS) || (section == MPSRHS) || (section == MPSRANGES)) {
 1488               		.loc 1 261 0
 1489 08b4 CE01      		movw r24,r28
 1490 08b6 8D5E      		subi r24,-19
 1491 08b8 9E4F      		sbci r25,-2
 1492 08ba FC01      		movw r30,r24
 1493 08bc 8081      		ld r24,Z
 1494 08be 9181      		ldd r25,Z+1
 1495 08c0 0197      		sbiw r24,1
 1496 08c2 01F0      		breq .L63
 1497               		.loc 1 261 0 is_stmt 0 discriminator 1
 1498 08c4 CE01      		movw r24,r28
 1499 08c6 8D5E      		subi r24,-19
 1500 08c8 9E4F      		sbci r25,-2
 1501 08ca FC01      		movw r30,r24
 1502 08cc 8081      		ld r24,Z
 1503 08ce 9181      		ldd r25,Z+1
 1504 08d0 0297      		sbiw r24,2
 1505 08d2 01F0      		breq .L63
 1506               		.loc 1 261 0 discriminator 2
 1507 08d4 CE01      		movw r24,r28
 1508 08d6 8D5E      		subi r24,-19
 1509 08d8 9E4F      		sbci r25,-2
 1510 08da FC01      		movw r30,r24
 1511 08dc 8081      		ld r24,Z
 1512 08de 9181      		ldd r25,Z+1
 1513 08e0 0497      		sbiw r24,4
 1514 08e2 01F4      		brne .L64
 1515               	.L63:
 262:lp_solve_5.5/lp_MPS.c ****     field1[0] = '\0';
 1516               		.loc 1 262 0 is_stmt 1
 1517 08e4 CE01      		movw r24,r28
 1518 08e6 895E      		subi r24,-23
 1519 08e8 9E4F      		sbci r25,-2
 1520 08ea FC01      		movw r30,r24
 1521 08ec 8081      		ld r24,Z
 1522 08ee 9181      		ldd r25,Z+1
 1523 08f0 FC01      		movw r30,r24
 1524 08f2 1082      		st Z,__zero_reg__
 263:lp_solve_5.5/lp_MPS.c ****     items++;
 1525               		.loc 1 263 0
 1526 08f4 8981      		ldd r24,Y+1
 1527 08f6 9A81      		ldd r25,Y+2
 1528 08f8 0196      		adiw r24,1
 1529 08fa 9A83      		std Y+2,r25
 1530 08fc 8983      		std Y+1,r24
 1531 08fe 00C0      		rjmp .L65
 1532               	.L64:
 264:lp_solve_5.5/lp_MPS.c ****   }
 265:lp_solve_5.5/lp_MPS.c ****   else {
 266:lp_solve_5.5/lp_MPS.c ****     len = lenfield(line, line_len);
 1533               		.loc 1 266 0
 1534 0900 2B81      		ldd r18,Y+3
 1535 0902 3C81      		ldd r19,Y+4
 1536 0904 CE01      		movw r24,r28
 1537 0906 8B5E      		subi r24,-21
 1538 0908 9E4F      		sbci r25,-2
 1539 090a FC01      		movw r30,r24
 1540 090c 8081      		ld r24,Z
 1541 090e 9181      		ldd r25,Z+1
 1542 0910 B901      		movw r22,r18
 1543 0912 0E94 0000 		call lenfield
 1544 0916 9E87      		std Y+14,r25
 1545 0918 8D87      		std Y+13,r24
 267:lp_solve_5.5/lp_MPS.c ****     if(line_len >= 1) { /* spaces or N/L/G/E or UP/LO */
 1546               		.loc 1 267 0
 1547 091a 8B81      		ldd r24,Y+3
 1548 091c 9C81      		ldd r25,Y+4
 1549 091e 1816      		cp __zero_reg__,r24
 1550 0920 1906      		cpc __zero_reg__,r25
 1551 0922 04F0      		brlt .+2
 1552 0924 00C0      		rjmp .L66
 268:lp_solve_5.5/lp_MPS.c ****       strncpy(buf, line, len);
 1553               		.loc 1 268 0
 1554 0926 4D85      		ldd r20,Y+13
 1555 0928 5E85      		ldd r21,Y+14
 1556 092a CE01      		movw r24,r28
 1557 092c 8B5E      		subi r24,-21
 1558 092e 9E4F      		sbci r25,-2
 1559 0930 FC01      		movw r30,r24
 1560 0932 2081      		ld r18,Z
 1561 0934 3181      		ldd r19,Z+1
 1562 0936 CE01      		movw r24,r28
 1563 0938 0F96      		adiw r24,15
 1564 093a B901      		movw r22,r18
 1565 093c 0E94 0000 		call strncpy
 269:lp_solve_5.5/lp_MPS.c ****       buf[len] = '\0';
 1566               		.loc 1 269 0
 1567 0940 9E01      		movw r18,r28
 1568 0942 215F      		subi r18,-15
 1569 0944 3F4F      		sbci r19,-1
 1570 0946 8D85      		ldd r24,Y+13
 1571 0948 9E85      		ldd r25,Y+14
 1572 094a 820F      		add r24,r18
 1573 094c 931F      		adc r25,r19
 1574 094e FC01      		movw r30,r24
 1575 0950 1082      		st Z,__zero_reg__
 270:lp_solve_5.5/lp_MPS.c ****       sscanf(buf, "%s", field1);
 1576               		.loc 1 270 0
 1577 0952 CE01      		movw r24,r28
 1578 0954 895E      		subi r24,-23
 1579 0956 9E4F      		sbci r25,-2
 1580 0958 FC01      		movw r30,r24
 1581 095a 2181      		ldd r18,Z+1
 1582 095c 2F93      		push r18
 1583 095e FC01      		movw r30,r24
 1584 0960 8081      		ld r24,Z
 1585 0962 8F93      		push r24
 1586 0964 80E0      		ldi r24,lo8(.LC0)
 1587 0966 90E0      		ldi r25,hi8(.LC0)
 1588 0968 892F      		mov r24,r25
 1589 096a 8F93      		push r24
 1590 096c 80E0      		ldi r24,lo8(.LC0)
 1591 096e 90E0      		ldi r25,hi8(.LC0)
 1592 0970 8F93      		push r24
 1593 0972 CE01      		movw r24,r28
 1594 0974 0F96      		adiw r24,15
 1595 0976 292F      		mov r18,r25
 1596 0978 2F93      		push r18
 1597 097a 8F93      		push r24
 1598 097c 0E94 0000 		call sscanf
 1599 0980 0F90      		pop __tmp_reg__
 1600 0982 0F90      		pop __tmp_reg__
 1601 0984 0F90      		pop __tmp_reg__
 1602 0986 0F90      		pop __tmp_reg__
 1603 0988 0F90      		pop __tmp_reg__
 1604 098a 0F90      		pop __tmp_reg__
 271:lp_solve_5.5/lp_MPS.c ****       if(section == MPSBOUNDS) {
 1605               		.loc 1 271 0
 1606 098c CE01      		movw r24,r28
 1607 098e 8D5E      		subi r24,-19
 1608 0990 9E4F      		sbci r25,-2
 1609 0992 FC01      		movw r30,r24
 1610 0994 8081      		ld r24,Z
 1611 0996 9181      		ldd r25,Z+1
 1612 0998 0397      		sbiw r24,3
 1613 099a 01F4      		brne .L67
 272:lp_solve_5.5/lp_MPS.c ****         for(ptr1 = field1; *ptr1; ptr1++)
 1614               		.loc 1 272 0
 1615 099c CE01      		movw r24,r28
 1616 099e 815F      		subi r24,-15
 1617 09a0 9E4F      		sbci r25,-2
 1618 09a2 9E01      		movw r18,r28
 1619 09a4 295E      		subi r18,-23
 1620 09a6 3E4F      		sbci r19,-2
 1621 09a8 F901      		movw r30,r18
 1622 09aa 2081      		ld r18,Z
 1623 09ac 3181      		ldd r19,Z+1
 1624 09ae FC01      		movw r30,r24
 1625 09b0 3183      		std Z+1,r19
 1626 09b2 2083      		st Z,r18
 1627 09b4 00C0      		rjmp .L68
 1628               	.L69:
 273:lp_solve_5.5/lp_MPS.c ****           *ptr1=(char)toupper(*ptr1);
 1629               		.loc 1 273 0 discriminator 3
 1630 09b6 CE01      		movw r24,r28
 1631 09b8 815F      		subi r24,-15
 1632 09ba 9E4F      		sbci r25,-2
 1633 09bc FC01      		movw r30,r24
 1634 09be 0081      		ld r16,Z
 1635 09c0 1181      		ldd r17,Z+1
 1636 09c2 CE01      		movw r24,r28
 1637 09c4 815F      		subi r24,-15
 1638 09c6 9E4F      		sbci r25,-2
 1639 09c8 FC01      		movw r30,r24
 1640 09ca 8081      		ld r24,Z
 1641 09cc 9181      		ldd r25,Z+1
 1642 09ce FC01      		movw r30,r24
 1643 09d0 8081      		ld r24,Z
 1644 09d2 882F      		mov r24,r24
 1645 09d4 90E0      		ldi r25,0
 1646 09d6 0E94 0000 		call toupper
 1647 09da F801      		movw r30,r16
 1648 09dc 8083      		st Z,r24
 272:lp_solve_5.5/lp_MPS.c ****         for(ptr1 = field1; *ptr1; ptr1++)
 1649               		.loc 1 272 0 discriminator 3
 1650 09de CE01      		movw r24,r28
 1651 09e0 815F      		subi r24,-15
 1652 09e2 9E4F      		sbci r25,-2
 1653 09e4 FC01      		movw r30,r24
 1654 09e6 8081      		ld r24,Z
 1655 09e8 9181      		ldd r25,Z+1
 1656 09ea 9C01      		movw r18,r24
 1657 09ec 2F5F      		subi r18,-1
 1658 09ee 3F4F      		sbci r19,-1
 1659 09f0 CE01      		movw r24,r28
 1660 09f2 815F      		subi r24,-15
 1661 09f4 9E4F      		sbci r25,-2
 1662 09f6 FC01      		movw r30,r24
 1663 09f8 3183      		std Z+1,r19
 1664 09fa 2083      		st Z,r18
 1665               	.L68:
 272:lp_solve_5.5/lp_MPS.c ****         for(ptr1 = field1; *ptr1; ptr1++)
 1666               		.loc 1 272 0 is_stmt 0 discriminator 1
 1667 09fc CE01      		movw r24,r28
 1668 09fe 815F      		subi r24,-15
 1669 0a00 9E4F      		sbci r25,-2
 1670 0a02 FC01      		movw r30,r24
 1671 0a04 8081      		ld r24,Z
 1672 0a06 9181      		ldd r25,Z+1
 1673 0a08 FC01      		movw r30,r24
 1674 0a0a 8081      		ld r24,Z
 1675 0a0c 8823      		tst r24
 1676 0a0e 01F4      		brne .L69
 1677               	.L67:
 274:lp_solve_5.5/lp_MPS.c ****       }
 275:lp_solve_5.5/lp_MPS.c ****       items++;
 1678               		.loc 1 275 0 is_stmt 1
 1679 0a10 8981      		ldd r24,Y+1
 1680 0a12 9A81      		ldd r25,Y+2
 1681 0a14 0196      		adiw r24,1
 1682 0a16 9A83      		std Y+2,r25
 1683 0a18 8983      		std Y+1,r24
 1684 0a1a 00C0      		rjmp .L70
 1685               	.L66:
 276:lp_solve_5.5/lp_MPS.c ****     }
 277:lp_solve_5.5/lp_MPS.c ****     else
 278:lp_solve_5.5/lp_MPS.c ****       field1[0] = '\0';
 1686               		.loc 1 278 0
 1687 0a1c CE01      		movw r24,r28
 1688 0a1e 895E      		subi r24,-23
 1689 0a20 9E4F      		sbci r25,-2
 1690 0a22 FC01      		movw r30,r24
 1691 0a24 8081      		ld r24,Z
 1692 0a26 9181      		ldd r25,Z+1
 1693 0a28 FC01      		movw r30,r24
 1694 0a2a 1082      		st Z,__zero_reg__
 1695               	.L70:
 279:lp_solve_5.5/lp_MPS.c **** 
 280:lp_solve_5.5/lp_MPS.c ****     line += len;
 1696               		.loc 1 280 0
 1697 0a2c 2D85      		ldd r18,Y+13
 1698 0a2e 3E85      		ldd r19,Y+14
 1699 0a30 CE01      		movw r24,r28
 1700 0a32 8B5E      		subi r24,-21
 1701 0a34 9E4F      		sbci r25,-2
 1702 0a36 AE01      		movw r20,r28
 1703 0a38 4B5E      		subi r20,-21
 1704 0a3a 5E4F      		sbci r21,-2
 1705 0a3c FA01      		movw r30,r20
 1706 0a3e 4081      		ld r20,Z
 1707 0a40 5181      		ldd r21,Z+1
 1708 0a42 240F      		add r18,r20
 1709 0a44 351F      		adc r19,r21
 1710 0a46 FC01      		movw r30,r24
 1711 0a48 3183      		std Z+1,r19
 1712 0a4a 2083      		st Z,r18
 281:lp_solve_5.5/lp_MPS.c ****     line_len -= len;
 1713               		.loc 1 281 0
 1714 0a4c 2B81      		ldd r18,Y+3
 1715 0a4e 3C81      		ldd r19,Y+4
 1716 0a50 8D85      		ldd r24,Y+13
 1717 0a52 9E85      		ldd r25,Y+14
 1718 0a54 A901      		movw r20,r18
 1719 0a56 481B      		sub r20,r24
 1720 0a58 590B      		sbc r21,r25
 1721 0a5a CA01      		movw r24,r20
 1722 0a5c 9C83      		std Y+4,r25
 1723 0a5e 8B83      		std Y+3,r24
 282:lp_solve_5.5/lp_MPS.c **** 
 283:lp_solve_5.5/lp_MPS.c ****     len = spaces(line, line_len);
 1724               		.loc 1 283 0
 1725 0a60 2B81      		ldd r18,Y+3
 1726 0a62 3C81      		ldd r19,Y+4
 1727 0a64 CE01      		movw r24,r28
 1728 0a66 8B5E      		subi r24,-21
 1729 0a68 9E4F      		sbci r25,-2
 1730 0a6a FC01      		movw r30,r24
 1731 0a6c 8081      		ld r24,Z
 1732 0a6e 9181      		ldd r25,Z+1
 1733 0a70 B901      		movw r22,r18
 1734 0a72 0E94 0000 		call spaces
 1735 0a76 9E87      		std Y+14,r25
 1736 0a78 8D87      		std Y+13,r24
 284:lp_solve_5.5/lp_MPS.c ****     line += len;
 1737               		.loc 1 284 0
 1738 0a7a 2D85      		ldd r18,Y+13
 1739 0a7c 3E85      		ldd r19,Y+14
 1740 0a7e CE01      		movw r24,r28
 1741 0a80 8B5E      		subi r24,-21
 1742 0a82 9E4F      		sbci r25,-2
 1743 0a84 AE01      		movw r20,r28
 1744 0a86 4B5E      		subi r20,-21
 1745 0a88 5E4F      		sbci r21,-2
 1746 0a8a FA01      		movw r30,r20
 1747 0a8c 4081      		ld r20,Z
 1748 0a8e 5181      		ldd r21,Z+1
 1749 0a90 240F      		add r18,r20
 1750 0a92 351F      		adc r19,r21
 1751 0a94 FC01      		movw r30,r24
 1752 0a96 3183      		std Z+1,r19
 1753 0a98 2083      		st Z,r18
 285:lp_solve_5.5/lp_MPS.c ****     line_len -= len;
 1754               		.loc 1 285 0
 1755 0a9a 2B81      		ldd r18,Y+3
 1756 0a9c 3C81      		ldd r19,Y+4
 1757 0a9e 8D85      		ldd r24,Y+13
 1758 0aa0 9E85      		ldd r25,Y+14
 1759 0aa2 A901      		movw r20,r18
 1760 0aa4 481B      		sub r20,r24
 1761 0aa6 590B      		sbc r21,r25
 1762 0aa8 CA01      		movw r24,r20
 1763 0aaa 9C83      		std Y+4,r25
 1764 0aac 8B83      		std Y+3,r24
 1765               	.L65:
 286:lp_solve_5.5/lp_MPS.c ****   }
 287:lp_solve_5.5/lp_MPS.c **** 
 288:lp_solve_5.5/lp_MPS.c ****   len = lenfield(line, line_len);
 1766               		.loc 1 288 0
 1767 0aae 2B81      		ldd r18,Y+3
 1768 0ab0 3C81      		ldd r19,Y+4
 1769 0ab2 CE01      		movw r24,r28
 1770 0ab4 8B5E      		subi r24,-21
 1771 0ab6 9E4F      		sbci r25,-2
 1772 0ab8 FC01      		movw r30,r24
 1773 0aba 8081      		ld r24,Z
 1774 0abc 9181      		ldd r25,Z+1
 1775 0abe B901      		movw r22,r18
 1776 0ac0 0E94 0000 		call lenfield
 1777 0ac4 9E87      		std Y+14,r25
 1778 0ac6 8D87      		std Y+13,r24
 289:lp_solve_5.5/lp_MPS.c ****   if(line_len >= 1) { /* name */
 1779               		.loc 1 289 0
 1780 0ac8 8B81      		ldd r24,Y+3
 1781 0aca 9C81      		ldd r25,Y+4
 1782 0acc 1816      		cp __zero_reg__,r24
 1783 0ace 1906      		cpc __zero_reg__,r25
 1784 0ad0 04F4      		brge .L71
 290:lp_solve_5.5/lp_MPS.c ****     strncpy(field2, line, len);
 1785               		.loc 1 290 0
 1786 0ad2 4D85      		ldd r20,Y+13
 1787 0ad4 5E85      		ldd r21,Y+14
 1788 0ad6 CE01      		movw r24,r28
 1789 0ad8 8B5E      		subi r24,-21
 1790 0ada 9E4F      		sbci r25,-2
 1791 0adc FC01      		movw r30,r24
 1792 0ade 2081      		ld r18,Z
 1793 0ae0 3181      		ldd r19,Z+1
 1794 0ae2 CE01      		movw r24,r28
 1795 0ae4 875E      		subi r24,-25
 1796 0ae6 9E4F      		sbci r25,-2
 1797 0ae8 FC01      		movw r30,r24
 1798 0aea 8081      		ld r24,Z
 1799 0aec 9181      		ldd r25,Z+1
 1800 0aee B901      		movw r22,r18
 1801 0af0 0E94 0000 		call strncpy
 291:lp_solve_5.5/lp_MPS.c ****     field2[len] = '\0';
 1802               		.loc 1 291 0
 1803 0af4 8D85      		ldd r24,Y+13
 1804 0af6 9E85      		ldd r25,Y+14
 1805 0af8 9E01      		movw r18,r28
 1806 0afa 275E      		subi r18,-25
 1807 0afc 3E4F      		sbci r19,-2
 1808 0afe F901      		movw r30,r18
 1809 0b00 2081      		ld r18,Z
 1810 0b02 3181      		ldd r19,Z+1
 1811 0b04 820F      		add r24,r18
 1812 0b06 931F      		adc r25,r19
 1813 0b08 FC01      		movw r30,r24
 1814 0b0a 1082      		st Z,__zero_reg__
 292:lp_solve_5.5/lp_MPS.c ****     items++;
 1815               		.loc 1 292 0
 1816 0b0c 8981      		ldd r24,Y+1
 1817 0b0e 9A81      		ldd r25,Y+2
 1818 0b10 0196      		adiw r24,1
 1819 0b12 9A83      		std Y+2,r25
 1820 0b14 8983      		std Y+1,r24
 1821 0b16 00C0      		rjmp .L72
 1822               	.L71:
 293:lp_solve_5.5/lp_MPS.c ****   }
 294:lp_solve_5.5/lp_MPS.c ****   else
 295:lp_solve_5.5/lp_MPS.c ****     field2[0] = '\0';
 1823               		.loc 1 295 0
 1824 0b18 CE01      		movw r24,r28
 1825 0b1a 875E      		subi r24,-25
 1826 0b1c 9E4F      		sbci r25,-2
 1827 0b1e FC01      		movw r30,r24
 1828 0b20 8081      		ld r24,Z
 1829 0b22 9181      		ldd r25,Z+1
 1830 0b24 FC01      		movw r30,r24
 1831 0b26 1082      		st Z,__zero_reg__
 1832               	.L72:
 296:lp_solve_5.5/lp_MPS.c **** 
 297:lp_solve_5.5/lp_MPS.c ****   line += len;
 1833               		.loc 1 297 0
 1834 0b28 2D85      		ldd r18,Y+13
 1835 0b2a 3E85      		ldd r19,Y+14
 1836 0b2c CE01      		movw r24,r28
 1837 0b2e 8B5E      		subi r24,-21
 1838 0b30 9E4F      		sbci r25,-2
 1839 0b32 AE01      		movw r20,r28
 1840 0b34 4B5E      		subi r20,-21
 1841 0b36 5E4F      		sbci r21,-2
 1842 0b38 FA01      		movw r30,r20
 1843 0b3a 4081      		ld r20,Z
 1844 0b3c 5181      		ldd r21,Z+1
 1845 0b3e 240F      		add r18,r20
 1846 0b40 351F      		adc r19,r21
 1847 0b42 FC01      		movw r30,r24
 1848 0b44 3183      		std Z+1,r19
 1849 0b46 2083      		st Z,r18
 298:lp_solve_5.5/lp_MPS.c ****   line_len -= len;
 1850               		.loc 1 298 0
 1851 0b48 2B81      		ldd r18,Y+3
 1852 0b4a 3C81      		ldd r19,Y+4
 1853 0b4c 8D85      		ldd r24,Y+13
 1854 0b4e 9E85      		ldd r25,Y+14
 1855 0b50 A901      		movw r20,r18
 1856 0b52 481B      		sub r20,r24
 1857 0b54 590B      		sbc r21,r25
 1858 0b56 CA01      		movw r24,r20
 1859 0b58 9C83      		std Y+4,r25
 1860 0b5a 8B83      		std Y+3,r24
 299:lp_solve_5.5/lp_MPS.c **** 
 300:lp_solve_5.5/lp_MPS.c ****   len = spaces(line, line_len);
 1861               		.loc 1 300 0
 1862 0b5c 2B81      		ldd r18,Y+3
 1863 0b5e 3C81      		ldd r19,Y+4
 1864 0b60 CE01      		movw r24,r28
 1865 0b62 8B5E      		subi r24,-21
 1866 0b64 9E4F      		sbci r25,-2
 1867 0b66 FC01      		movw r30,r24
 1868 0b68 8081      		ld r24,Z
 1869 0b6a 9181      		ldd r25,Z+1
 1870 0b6c B901      		movw r22,r18
 1871 0b6e 0E94 0000 		call spaces
 1872 0b72 9E87      		std Y+14,r25
 1873 0b74 8D87      		std Y+13,r24
 301:lp_solve_5.5/lp_MPS.c ****   line += len;
 1874               		.loc 1 301 0
 1875 0b76 2D85      		ldd r18,Y+13
 1876 0b78 3E85      		ldd r19,Y+14
 1877 0b7a CE01      		movw r24,r28
 1878 0b7c 8B5E      		subi r24,-21
 1879 0b7e 9E4F      		sbci r25,-2
 1880 0b80 AE01      		movw r20,r28
 1881 0b82 4B5E      		subi r20,-21
 1882 0b84 5E4F      		sbci r21,-2
 1883 0b86 FA01      		movw r30,r20
 1884 0b88 4081      		ld r20,Z
 1885 0b8a 5181      		ldd r21,Z+1
 1886 0b8c 240F      		add r18,r20
 1887 0b8e 351F      		adc r19,r21
 1888 0b90 FC01      		movw r30,r24
 1889 0b92 3183      		std Z+1,r19
 1890 0b94 2083      		st Z,r18
 302:lp_solve_5.5/lp_MPS.c ****   line_len -= len;
 1891               		.loc 1 302 0
 1892 0b96 2B81      		ldd r18,Y+3
 1893 0b98 3C81      		ldd r19,Y+4
 1894 0b9a 8D85      		ldd r24,Y+13
 1895 0b9c 9E85      		ldd r25,Y+14
 1896 0b9e A901      		movw r20,r18
 1897 0ba0 481B      		sub r20,r24
 1898 0ba2 590B      		sbc r21,r25
 1899 0ba4 CA01      		movw r24,r20
 1900 0ba6 9C83      		std Y+4,r25
 1901 0ba8 8B83      		std Y+3,r24
 303:lp_solve_5.5/lp_MPS.c **** 
 304:lp_solve_5.5/lp_MPS.c ****   len = lenfield(line, line_len);
 1902               		.loc 1 304 0
 1903 0baa 2B81      		ldd r18,Y+3
 1904 0bac 3C81      		ldd r19,Y+4
 1905 0bae CE01      		movw r24,r28
 1906 0bb0 8B5E      		subi r24,-21
 1907 0bb2 9E4F      		sbci r25,-2
 1908 0bb4 FC01      		movw r30,r24
 1909 0bb6 8081      		ld r24,Z
 1910 0bb8 9181      		ldd r25,Z+1
 1911 0bba B901      		movw r22,r18
 1912 0bbc 0E94 0000 		call lenfield
 1913 0bc0 9E87      		std Y+14,r25
 1914 0bc2 8D87      		std Y+13,r24
 305:lp_solve_5.5/lp_MPS.c ****   if(line_len >= 1) { /* name */
 1915               		.loc 1 305 0
 1916 0bc4 8B81      		ldd r24,Y+3
 1917 0bc6 9C81      		ldd r25,Y+4
 1918 0bc8 1816      		cp __zero_reg__,r24
 1919 0bca 1906      		cpc __zero_reg__,r25
 1920 0bcc 04F4      		brge .L73
 306:lp_solve_5.5/lp_MPS.c ****     strncpy(field3, line, len);
 1921               		.loc 1 306 0
 1922 0bce 4D85      		ldd r20,Y+13
 1923 0bd0 5E85      		ldd r21,Y+14
 1924 0bd2 CE01      		movw r24,r28
 1925 0bd4 8B5E      		subi r24,-21
 1926 0bd6 9E4F      		sbci r25,-2
 1927 0bd8 FC01      		movw r30,r24
 1928 0bda 2081      		ld r18,Z
 1929 0bdc 3181      		ldd r19,Z+1
 1930 0bde CE01      		movw r24,r28
 1931 0be0 855E      		subi r24,-27
 1932 0be2 9E4F      		sbci r25,-2
 1933 0be4 FC01      		movw r30,r24
 1934 0be6 8081      		ld r24,Z
 1935 0be8 9181      		ldd r25,Z+1
 1936 0bea B901      		movw r22,r18
 1937 0bec 0E94 0000 		call strncpy
 307:lp_solve_5.5/lp_MPS.c ****     field3[len] = '\0';
 1938               		.loc 1 307 0
 1939 0bf0 8D85      		ldd r24,Y+13
 1940 0bf2 9E85      		ldd r25,Y+14
 1941 0bf4 9E01      		movw r18,r28
 1942 0bf6 255E      		subi r18,-27
 1943 0bf8 3E4F      		sbci r19,-2
 1944 0bfa F901      		movw r30,r18
 1945 0bfc 2081      		ld r18,Z
 1946 0bfe 3181      		ldd r19,Z+1
 1947 0c00 820F      		add r24,r18
 1948 0c02 931F      		adc r25,r19
 1949 0c04 FC01      		movw r30,r24
 1950 0c06 1082      		st Z,__zero_reg__
 308:lp_solve_5.5/lp_MPS.c ****     items++;
 1951               		.loc 1 308 0
 1952 0c08 8981      		ldd r24,Y+1
 1953 0c0a 9A81      		ldd r25,Y+2
 1954 0c0c 0196      		adiw r24,1
 1955 0c0e 9A83      		std Y+2,r25
 1956 0c10 8983      		std Y+1,r24
 1957 0c12 00C0      		rjmp .L74
 1958               	.L73:
 309:lp_solve_5.5/lp_MPS.c ****   }
 310:lp_solve_5.5/lp_MPS.c ****   else
 311:lp_solve_5.5/lp_MPS.c ****     field3[0] = '\0';
 1959               		.loc 1 311 0
 1960 0c14 CE01      		movw r24,r28
 1961 0c16 855E      		subi r24,-27
 1962 0c18 9E4F      		sbci r25,-2
 1963 0c1a FC01      		movw r30,r24
 1964 0c1c 8081      		ld r24,Z
 1965 0c1e 9181      		ldd r25,Z+1
 1966 0c20 FC01      		movw r30,r24
 1967 0c22 1082      		st Z,__zero_reg__
 1968               	.L74:
 312:lp_solve_5.5/lp_MPS.c **** 
 313:lp_solve_5.5/lp_MPS.c ****   line += len;
 1969               		.loc 1 313 0
 1970 0c24 2D85      		ldd r18,Y+13
 1971 0c26 3E85      		ldd r19,Y+14
 1972 0c28 CE01      		movw r24,r28
 1973 0c2a 8B5E      		subi r24,-21
 1974 0c2c 9E4F      		sbci r25,-2
 1975 0c2e AE01      		movw r20,r28
 1976 0c30 4B5E      		subi r20,-21
 1977 0c32 5E4F      		sbci r21,-2
 1978 0c34 FA01      		movw r30,r20
 1979 0c36 4081      		ld r20,Z
 1980 0c38 5181      		ldd r21,Z+1
 1981 0c3a 240F      		add r18,r20
 1982 0c3c 351F      		adc r19,r21
 1983 0c3e FC01      		movw r30,r24
 1984 0c40 3183      		std Z+1,r19
 1985 0c42 2083      		st Z,r18
 314:lp_solve_5.5/lp_MPS.c ****   line_len -= len;
 1986               		.loc 1 314 0
 1987 0c44 2B81      		ldd r18,Y+3
 1988 0c46 3C81      		ldd r19,Y+4
 1989 0c48 8D85      		ldd r24,Y+13
 1990 0c4a 9E85      		ldd r25,Y+14
 1991 0c4c A901      		movw r20,r18
 1992 0c4e 481B      		sub r20,r24
 1993 0c50 590B      		sbc r21,r25
 1994 0c52 CA01      		movw r24,r20
 1995 0c54 9C83      		std Y+4,r25
 1996 0c56 8B83      		std Y+3,r24
 315:lp_solve_5.5/lp_MPS.c **** 
 316:lp_solve_5.5/lp_MPS.c ****   len = spaces(line, line_len);
 1997               		.loc 1 316 0
 1998 0c58 2B81      		ldd r18,Y+3
 1999 0c5a 3C81      		ldd r19,Y+4
 2000 0c5c CE01      		movw r24,r28
 2001 0c5e 8B5E      		subi r24,-21
 2002 0c60 9E4F      		sbci r25,-2
 2003 0c62 FC01      		movw r30,r24
 2004 0c64 8081      		ld r24,Z
 2005 0c66 9181      		ldd r25,Z+1
 2006 0c68 B901      		movw r22,r18
 2007 0c6a 0E94 0000 		call spaces
 2008 0c6e 9E87      		std Y+14,r25
 2009 0c70 8D87      		std Y+13,r24
 317:lp_solve_5.5/lp_MPS.c ****   line += len;
 2010               		.loc 1 317 0
 2011 0c72 2D85      		ldd r18,Y+13
 2012 0c74 3E85      		ldd r19,Y+14
 2013 0c76 CE01      		movw r24,r28
 2014 0c78 8B5E      		subi r24,-21
 2015 0c7a 9E4F      		sbci r25,-2
 2016 0c7c AE01      		movw r20,r28
 2017 0c7e 4B5E      		subi r20,-21
 2018 0c80 5E4F      		sbci r21,-2
 2019 0c82 FA01      		movw r30,r20
 2020 0c84 4081      		ld r20,Z
 2021 0c86 5181      		ldd r21,Z+1
 2022 0c88 240F      		add r18,r20
 2023 0c8a 351F      		adc r19,r21
 2024 0c8c FC01      		movw r30,r24
 2025 0c8e 3183      		std Z+1,r19
 2026 0c90 2083      		st Z,r18
 318:lp_solve_5.5/lp_MPS.c ****   line_len -= len;
 2027               		.loc 1 318 0
 2028 0c92 2B81      		ldd r18,Y+3
 2029 0c94 3C81      		ldd r19,Y+4
 2030 0c96 8D85      		ldd r24,Y+13
 2031 0c98 9E85      		ldd r25,Y+14
 2032 0c9a A901      		movw r20,r18
 2033 0c9c 481B      		sub r20,r24
 2034 0c9e 590B      		sbc r21,r25
 2035 0ca0 CA01      		movw r24,r20
 2036 0ca2 9C83      		std Y+4,r25
 2037 0ca4 8B83      		std Y+3,r24
 319:lp_solve_5.5/lp_MPS.c **** 
 320:lp_solve_5.5/lp_MPS.c ****   if (*field3) {
 2038               		.loc 1 320 0
 2039 0ca6 CE01      		movw r24,r28
 2040 0ca8 855E      		subi r24,-27
 2041 0caa 9E4F      		sbci r25,-2
 2042 0cac FC01      		movw r30,r24
 2043 0cae 8081      		ld r24,Z
 2044 0cb0 9181      		ldd r25,Z+1
 2045 0cb2 FC01      		movw r30,r24
 2046 0cb4 8081      		ld r24,Z
 2047 0cb6 8823      		tst r24
 2048 0cb8 01F4      		brne .+2
 2049 0cba 00C0      		rjmp .L75
 321:lp_solve_5.5/lp_MPS.c ****     if((section == MPSCOLUMNS) && (strcmp(field3, "'MARKER'") == 0)) {
 2050               		.loc 1 321 0
 2051 0cbc CE01      		movw r24,r28
 2052 0cbe 8D5E      		subi r24,-19
 2053 0cc0 9E4F      		sbci r25,-2
 2054 0cc2 FC01      		movw r30,r24
 2055 0cc4 8081      		ld r24,Z
 2056 0cc6 9181      		ldd r25,Z+1
 2057 0cc8 0197      		sbiw r24,1
 2058 0cca 01F4      		brne .L76
 2059               		.loc 1 321 0 is_stmt 0 discriminator 1
 2060 0ccc CE01      		movw r24,r28
 2061 0cce 855E      		subi r24,-27
 2062 0cd0 9E4F      		sbci r25,-2
 2063 0cd2 FC01      		movw r30,r24
 2064 0cd4 8081      		ld r24,Z
 2065 0cd6 9181      		ldd r25,Z+1
 2066 0cd8 60E0      		ldi r22,lo8(.LC8)
 2067 0cda 70E0      		ldi r23,hi8(.LC8)
 2068 0cdc 0E94 0000 		call strcmp
 2069 0ce0 892B      		or r24,r25
 2070 0ce2 01F4      		brne .L76
 322:lp_solve_5.5/lp_MPS.c ****       *field4 = 0;
 2071               		.loc 1 322 0 is_stmt 1
 2072 0ce4 CE01      		movw r24,r28
 2073 0ce6 835E      		subi r24,-29
 2074 0ce8 9E4F      		sbci r25,-2
 2075 0cea FC01      		movw r30,r24
 2076 0cec 8081      		ld r24,Z
 2077 0cee 9181      		ldd r25,Z+1
 2078 0cf0 FC01      		movw r30,r24
 2079 0cf2 1082      		st Z,__zero_reg__
 2080 0cf4 1182      		std Z+1,__zero_reg__
 2081 0cf6 1282      		std Z+2,__zero_reg__
 2082 0cf8 1382      		std Z+3,__zero_reg__
 323:lp_solve_5.5/lp_MPS.c ****       items++;
 2083               		.loc 1 323 0
 2084 0cfa 8981      		ldd r24,Y+1
 2085 0cfc 9A81      		ldd r25,Y+2
 2086 0cfe 0196      		adiw r24,1
 2087 0d00 9A83      		std Y+2,r25
 2088 0d02 8983      		std Y+1,r24
 324:lp_solve_5.5/lp_MPS.c ****       ptr1 = field3;
 2089               		.loc 1 324 0
 2090 0d04 CE01      		movw r24,r28
 2091 0d06 815F      		subi r24,-15
 2092 0d08 9E4F      		sbci r25,-2
 2093 0d0a 9E01      		movw r18,r28
 2094 0d0c 255E      		subi r18,-27
 2095 0d0e 3E4F      		sbci r19,-2
 2096 0d10 F901      		movw r30,r18
 2097 0d12 2081      		ld r18,Z
 2098 0d14 3181      		ldd r19,Z+1
 2099 0d16 FC01      		movw r30,r24
 2100 0d18 3183      		std Z+1,r19
 2101 0d1a 2083      		st Z,r18
 2102 0d1c 00C0      		rjmp .L89
 2103               	.L76:
 325:lp_solve_5.5/lp_MPS.c ****     }
 326:lp_solve_5.5/lp_MPS.c ****     else if((section == MPSBOUNDS) &&
 2104               		.loc 1 326 0
 2105 0d1e CE01      		movw r24,r28
 2106 0d20 8D5E      		subi r24,-19
 2107 0d22 9E4F      		sbci r25,-2
 2108 0d24 FC01      		movw r30,r24
 2109 0d26 8081      		ld r24,Z
 2110 0d28 9181      		ldd r25,Z+1
 2111 0d2a 0397      		sbiw r24,3
 2112 0d2c 01F4      		brne .L78
 327:lp_solve_5.5/lp_MPS.c ****             ((strcmp(field1, "FR") == 0) || (strcmp(field1, "MI") == 0) || (strcmp(field1, "PL") ==
 2113               		.loc 1 327 0 discriminator 1
 2114 0d2e CE01      		movw r24,r28
 2115 0d30 895E      		subi r24,-23
 2116 0d32 9E4F      		sbci r25,-2
 2117 0d34 FC01      		movw r30,r24
 2118 0d36 8081      		ld r24,Z
 2119 0d38 9181      		ldd r25,Z+1
 2120 0d3a 60E0      		ldi r22,lo8(.LC9)
 2121 0d3c 70E0      		ldi r23,hi8(.LC9)
 2122 0d3e 0E94 0000 		call strcmp
 326:lp_solve_5.5/lp_MPS.c ****             ((strcmp(field1, "FR") == 0) || (strcmp(field1, "MI") == 0) || (strcmp(field1, "PL") ==
 2123               		.loc 1 326 0 discriminator 1
 2124 0d42 892B      		or r24,r25
 2125 0d44 01F4      		brne .+2
 2126 0d46 00C0      		rjmp .L114
 2127               		.loc 1 327 0
 2128 0d48 CE01      		movw r24,r28
 2129 0d4a 895E      		subi r24,-23
 2130 0d4c 9E4F      		sbci r25,-2
 2131 0d4e FC01      		movw r30,r24
 2132 0d50 8081      		ld r24,Z
 2133 0d52 9181      		ldd r25,Z+1
 2134 0d54 60E0      		ldi r22,lo8(.LC10)
 2135 0d56 70E0      		ldi r23,hi8(.LC10)
 2136 0d58 0E94 0000 		call strcmp
 2137 0d5c 892B      		or r24,r25
 2138 0d5e 01F4      		brne .+2
 2139 0d60 00C0      		rjmp .L114
 2140               		.loc 1 327 0 is_stmt 0 discriminator 1
 2141 0d62 CE01      		movw r24,r28
 2142 0d64 895E      		subi r24,-23
 2143 0d66 9E4F      		sbci r25,-2
 2144 0d68 FC01      		movw r30,r24
 2145 0d6a 8081      		ld r24,Z
 2146 0d6c 9181      		ldd r25,Z+1
 2147 0d6e 60E0      		ldi r22,lo8(.LC11)
 2148 0d70 70E0      		ldi r23,hi8(.LC11)
 2149 0d72 0E94 0000 		call strcmp
 2150 0d76 892B      		or r24,r25
 2151 0d78 01F4      		brne .+2
 2152 0d7a 00C0      		rjmp .L114
 2153               		.loc 1 327 0 discriminator 2
 2154 0d7c CE01      		movw r24,r28
 2155 0d7e 895E      		subi r24,-23
 2156 0d80 9E4F      		sbci r25,-2
 2157 0d82 FC01      		movw r30,r24
 2158 0d84 8081      		ld r24,Z
 2159 0d86 9181      		ldd r25,Z+1
 2160 0d88 60E0      		ldi r22,lo8(.LC12)
 2161 0d8a 70E0      		ldi r23,hi8(.LC12)
 2162 0d8c 0E94 0000 		call strcmp
 2163 0d90 892B      		or r24,r25
 2164 0d92 01F4      		brne .+2
 2165 0d94 00C0      		rjmp .L114
 2166               	.L78:
 2167               	.LBB2:
 328:lp_solve_5.5/lp_MPS.c ****       /* field3 *is* the variable name */;
 329:lp_solve_5.5/lp_MPS.c ****     else {
 330:lp_solve_5.5/lp_MPS.c ****       /* Some free MPS formats allow that field 2 is not provided after the first time.
 331:lp_solve_5.5/lp_MPS.c ****          The fieldname is then the same as the the defined field the line before.
 332:lp_solve_5.5/lp_MPS.c ****          In that case field2 shifts to field3, field1 shifts to field 2.
 333:lp_solve_5.5/lp_MPS.c ****          This situation is tested by checking if field3 is numerical AND there are an even number o
 334:lp_solve_5.5/lp_MPS.c ****       */
 335:lp_solve_5.5/lp_MPS.c ****       char *line1 = line;
 2168               		.loc 1 335 0 is_stmt 1
 2169 0d96 CE01      		movw r24,r28
 2170 0d98 8B5E      		subi r24,-21
 2171 0d9a 9E4F      		sbci r25,-2
 2172 0d9c FC01      		movw r30,r24
 2173 0d9e 8081      		ld r24,Z
 2174 0da0 9181      		ldd r25,Z+1
 2175 0da2 9887      		std Y+8,r25
 2176 0da4 8F83      		std Y+7,r24
 336:lp_solve_5.5/lp_MPS.c ****       int line_len1 = line_len;
 2177               		.loc 1 336 0
 2178 0da6 8B81      		ldd r24,Y+3
 2179 0da8 9C81      		ldd r25,Y+4
 2180 0daa 9A87      		std Y+10,r25
 2181 0dac 8987      		std Y+9,r24
 337:lp_solve_5.5/lp_MPS.c ****       int items1 = 0;
 2182               		.loc 1 337 0
 2183 0dae 1C86      		std Y+12,__zero_reg__
 2184 0db0 1B86      		std Y+11,__zero_reg__
 338:lp_solve_5.5/lp_MPS.c **** 
 339:lp_solve_5.5/lp_MPS.c ****       while (line_len1 > 0) {
 2185               		.loc 1 339 0
 2186 0db2 00C0      		rjmp .L80
 2187               	.L82:
 340:lp_solve_5.5/lp_MPS.c ****         len = lenfield(line1, line_len1);
 2188               		.loc 1 340 0
 2189 0db4 2985      		ldd r18,Y+9
 2190 0db6 3A85      		ldd r19,Y+10
 2191 0db8 8F81      		ldd r24,Y+7
 2192 0dba 9885      		ldd r25,Y+8
 2193 0dbc B901      		movw r22,r18
 2194 0dbe 0E94 0000 		call lenfield
 2195 0dc2 9E87      		std Y+14,r25
 2196 0dc4 8D87      		std Y+13,r24
 341:lp_solve_5.5/lp_MPS.c ****         if (len > 0) {
 2197               		.loc 1 341 0
 2198 0dc6 8D85      		ldd r24,Y+13
 2199 0dc8 9E85      		ldd r25,Y+14
 2200 0dca 1816      		cp __zero_reg__,r24
 2201 0dcc 1906      		cpc __zero_reg__,r25
 2202 0dce 04F4      		brge .L81
 342:lp_solve_5.5/lp_MPS.c ****           line1 += len;
 2203               		.loc 1 342 0
 2204 0dd0 8D85      		ldd r24,Y+13
 2205 0dd2 9E85      		ldd r25,Y+14
 2206 0dd4 2F81      		ldd r18,Y+7
 2207 0dd6 3885      		ldd r19,Y+8
 2208 0dd8 820F      		add r24,r18
 2209 0dda 931F      		adc r25,r19
 2210 0ddc 9887      		std Y+8,r25
 2211 0dde 8F83      		std Y+7,r24
 343:lp_solve_5.5/lp_MPS.c ****           line_len1 -= len;
 2212               		.loc 1 343 0
 2213 0de0 2985      		ldd r18,Y+9
 2214 0de2 3A85      		ldd r19,Y+10
 2215 0de4 8D85      		ldd r24,Y+13
 2216 0de6 9E85      		ldd r25,Y+14
 2217 0de8 A901      		movw r20,r18
 2218 0dea 481B      		sub r20,r24
 2219 0dec 590B      		sbc r21,r25
 2220 0dee CA01      		movw r24,r20
 2221 0df0 9A87      		std Y+10,r25
 2222 0df2 8987      		std Y+9,r24
 344:lp_solve_5.5/lp_MPS.c ****           items1++;
 2223               		.loc 1 344 0
 2224 0df4 8B85      		ldd r24,Y+11
 2225 0df6 9C85      		ldd r25,Y+12
 2226 0df8 0196      		adiw r24,1
 2227 0dfa 9C87      		std Y+12,r25
 2228 0dfc 8B87      		std Y+11,r24
 2229               	.L81:
 345:lp_solve_5.5/lp_MPS.c ****         }
 346:lp_solve_5.5/lp_MPS.c ****         len = spaces(line1, line_len1);
 2230               		.loc 1 346 0
 2231 0dfe 2985      		ldd r18,Y+9
 2232 0e00 3A85      		ldd r19,Y+10
 2233 0e02 8F81      		ldd r24,Y+7
 2234 0e04 9885      		ldd r25,Y+8
 2235 0e06 B901      		movw r22,r18
 2236 0e08 0E94 0000 		call spaces
 2237 0e0c 9E87      		std Y+14,r25
 2238 0e0e 8D87      		std Y+13,r24
 347:lp_solve_5.5/lp_MPS.c ****         line1 += len;
 2239               		.loc 1 347 0
 2240 0e10 8D85      		ldd r24,Y+13
 2241 0e12 9E85      		ldd r25,Y+14
 2242 0e14 2F81      		ldd r18,Y+7
 2243 0e16 3885      		ldd r19,Y+8
 2244 0e18 820F      		add r24,r18
 2245 0e1a 931F      		adc r25,r19
 2246 0e1c 9887      		std Y+8,r25
 2247 0e1e 8F83      		std Y+7,r24
 348:lp_solve_5.5/lp_MPS.c ****         line_len1 -= len;
 2248               		.loc 1 348 0
 2249 0e20 2985      		ldd r18,Y+9
 2250 0e22 3A85      		ldd r19,Y+10
 2251 0e24 8D85      		ldd r24,Y+13
 2252 0e26 9E85      		ldd r25,Y+14
 2253 0e28 F901      		movw r30,r18
 2254 0e2a E81B      		sub r30,r24
 2255 0e2c F90B      		sbc r31,r25
 2256 0e2e CF01      		movw r24,r30
 2257 0e30 9A87      		std Y+10,r25
 2258 0e32 8987      		std Y+9,r24
 2259               	.L80:
 339:lp_solve_5.5/lp_MPS.c ****         len = lenfield(line1, line_len1);
 2260               		.loc 1 339 0
 2261 0e34 8985      		ldd r24,Y+9
 2262 0e36 9A85      		ldd r25,Y+10
 2263 0e38 1816      		cp __zero_reg__,r24
 2264 0e3a 1906      		cpc __zero_reg__,r25
 2265 0e3c 04F4      		brge .+2
 2266 0e3e 00C0      		rjmp .L82
 349:lp_solve_5.5/lp_MPS.c ****       }
 350:lp_solve_5.5/lp_MPS.c ****       if ((items1 % 2) == 0) {
 2267               		.loc 1 350 0
 2268 0e40 8B85      		ldd r24,Y+11
 2269 0e42 9C85      		ldd r25,Y+12
 2270 0e44 8170      		andi r24,1
 2271 0e46 9927      		clr r25
 2272 0e48 892B      		or r24,r25
 2273 0e4a 01F0      		breq .+2
 2274 0e4c 00C0      		rjmp .L83
 351:lp_solve_5.5/lp_MPS.c ****         *field4 = strtod(field3, &ptr1);
 2275               		.loc 1 351 0
 2276 0e4e 9E01      		movw r18,r28
 2277 0e50 215F      		subi r18,-15
 2278 0e52 3E4F      		sbci r19,-2
 2279 0e54 CE01      		movw r24,r28
 2280 0e56 855E      		subi r24,-27
 2281 0e58 9E4F      		sbci r25,-2
 2282 0e5a FC01      		movw r30,r24
 2283 0e5c 8081      		ld r24,Z
 2284 0e5e 9181      		ldd r25,Z+1
 2285 0e60 B901      		movw r22,r18
 2286 0e62 0E94 0000 		call strtod
 2287 0e66 DC01      		movw r26,r24
 2288 0e68 CB01      		movw r24,r22
 2289 0e6a 9E01      		movw r18,r28
 2290 0e6c 235E      		subi r18,-29
 2291 0e6e 3E4F      		sbci r19,-2
 2292 0e70 F901      		movw r30,r18
 2293 0e72 2081      		ld r18,Z
 2294 0e74 3181      		ldd r19,Z+1
 2295 0e76 F901      		movw r30,r18
 2296 0e78 8083      		st Z,r24
 2297 0e7a 9183      		std Z+1,r25
 2298 0e7c A283      		std Z+2,r26
 2299 0e7e B383      		std Z+3,r27
 352:lp_solve_5.5/lp_MPS.c ****         if(*ptr1 == 0) {
 2300               		.loc 1 352 0
 2301 0e80 CE01      		movw r24,r28
 2302 0e82 815F      		subi r24,-15
 2303 0e84 9E4F      		sbci r25,-2
 2304 0e86 FC01      		movw r30,r24
 2305 0e88 8081      		ld r24,Z
 2306 0e8a 9181      		ldd r25,Z+1
 2307 0e8c FC01      		movw r30,r24
 2308 0e8e 8081      		ld r24,Z
 2309 0e90 8823      		tst r24
 2310 0e92 01F0      		breq .+2
 2311 0e94 00C0      		rjmp .L84
 353:lp_solve_5.5/lp_MPS.c ****           strcpy(field3, field2);
 2312               		.loc 1 353 0
 2313 0e96 CE01      		movw r24,r28
 2314 0e98 875E      		subi r24,-25
 2315 0e9a 9E4F      		sbci r25,-2
 2316 0e9c FC01      		movw r30,r24
 2317 0e9e 2081      		ld r18,Z
 2318 0ea0 3181      		ldd r19,Z+1
 2319 0ea2 CE01      		movw r24,r28
 2320 0ea4 855E      		subi r24,-27
 2321 0ea6 9E4F      		sbci r25,-2
 2322 0ea8 FC01      		movw r30,r24
 2323 0eaa 8081      		ld r24,Z
 2324 0eac 9181      		ldd r25,Z+1
 2325 0eae B901      		movw r22,r18
 2326 0eb0 0E94 0000 		call strcpy
 354:lp_solve_5.5/lp_MPS.c ****           if ((section == MPSROWS) || (section == MPSBOUNDS) /* || (section == MPSSOS) */)
 2327               		.loc 1 354 0
 2328 0eb4 CE01      		movw r24,r28
 2329 0eb6 8D5E      		subi r24,-19
 2330 0eb8 9E4F      		sbci r25,-2
 2331 0eba FC01      		movw r30,r24
 2332 0ebc 8081      		ld r24,Z
 2333 0ebe 9181      		ldd r25,Z+1
 2334 0ec0 892B      		or r24,r25
 2335 0ec2 01F0      		breq .L85
 2336               		.loc 1 354 0 is_stmt 0 discriminator 1
 2337 0ec4 CE01      		movw r24,r28
 2338 0ec6 8D5E      		subi r24,-19
 2339 0ec8 9E4F      		sbci r25,-2
 2340 0eca FC01      		movw r30,r24
 2341 0ecc 8081      		ld r24,Z
 2342 0ece 9181      		ldd r25,Z+1
 2343 0ed0 0397      		sbiw r24,3
 2344 0ed2 01F4      		brne .L86
 2345               	.L85:
 355:lp_solve_5.5/lp_MPS.c ****             *field2 = 0;
 2346               		.loc 1 355 0 is_stmt 1
 2347 0ed4 CE01      		movw r24,r28
 2348 0ed6 875E      		subi r24,-25
 2349 0ed8 9E4F      		sbci r25,-2
 2350 0eda FC01      		movw r30,r24
 2351 0edc 8081      		ld r24,Z
 2352 0ede 9181      		ldd r25,Z+1
 2353 0ee0 FC01      		movw r30,r24
 2354 0ee2 1082      		st Z,__zero_reg__
 2355 0ee4 00C0      		rjmp .L87
 2356               	.L86:
 356:lp_solve_5.5/lp_MPS.c ****           else {
 357:lp_solve_5.5/lp_MPS.c ****             strcpy(field2, field1);
 2357               		.loc 1 357 0
 2358 0ee6 CE01      		movw r24,r28
 2359 0ee8 895E      		subi r24,-23
 2360 0eea 9E4F      		sbci r25,-2
 2361 0eec FC01      		movw r30,r24
 2362 0eee 2081      		ld r18,Z
 2363 0ef0 3181      		ldd r19,Z+1
 2364 0ef2 CE01      		movw r24,r28
 2365 0ef4 875E      		subi r24,-25
 2366 0ef6 9E4F      		sbci r25,-2
 2367 0ef8 FC01      		movw r30,r24
 2368 0efa 8081      		ld r24,Z
 2369 0efc 9181      		ldd r25,Z+1
 2370 0efe B901      		movw r22,r18
 2371 0f00 0E94 0000 		call strcpy
 358:lp_solve_5.5/lp_MPS.c ****             *field1 = 0;
 2372               		.loc 1 358 0
 2373 0f04 CE01      		movw r24,r28
 2374 0f06 895E      		subi r24,-23
 2375 0f08 9E4F      		sbci r25,-2
 2376 0f0a FC01      		movw r30,r24
 2377 0f0c 8081      		ld r24,Z
 2378 0f0e 9181      		ldd r25,Z+1
 2379 0f10 FC01      		movw r30,r24
 2380 0f12 1082      		st Z,__zero_reg__
 2381               	.L87:
 359:lp_solve_5.5/lp_MPS.c ****           }
 360:lp_solve_5.5/lp_MPS.c ****           items++;
 2382               		.loc 1 360 0
 2383 0f14 8981      		ldd r24,Y+1
 2384 0f16 9A81      		ldd r25,Y+2
 2385 0f18 0196      		adiw r24,1
 2386 0f1a 9A83      		std Y+2,r25
 2387 0f1c 8983      		std Y+1,r24
 2388 0f1e 00C0      		rjmp .L89
 2389               	.L84:
 361:lp_solve_5.5/lp_MPS.c ****         }
 362:lp_solve_5.5/lp_MPS.c ****         else
 363:lp_solve_5.5/lp_MPS.c ****           ptr1 = NULL;
 2390               		.loc 1 363 0
 2391 0f20 CE01      		movw r24,r28
 2392 0f22 815F      		subi r24,-15
 2393 0f24 9E4F      		sbci r25,-2
 2394 0f26 FC01      		movw r30,r24
 2395 0f28 1182      		std Z+1,__zero_reg__
 2396 0f2a 1082      		st Z,__zero_reg__
 2397 0f2c 00C0      		rjmp .L89
 2398               	.L83:
 364:lp_solve_5.5/lp_MPS.c ****       }
 365:lp_solve_5.5/lp_MPS.c ****       else
 366:lp_solve_5.5/lp_MPS.c ****         ptr1 = NULL;
 2399               		.loc 1 366 0
 2400 0f2e CE01      		movw r24,r28
 2401 0f30 815F      		subi r24,-15
 2402 0f32 9E4F      		sbci r25,-2
 2403 0f34 FC01      		movw r30,r24
 2404 0f36 1182      		std Z+1,__zero_reg__
 2405 0f38 1082      		st Z,__zero_reg__
 2406 0f3a 00C0      		rjmp .L89
 2407               	.L75:
 2408               	.LBE2:
 367:lp_solve_5.5/lp_MPS.c ****     }
 368:lp_solve_5.5/lp_MPS.c ****   }
 369:lp_solve_5.5/lp_MPS.c ****   else {
 370:lp_solve_5.5/lp_MPS.c ****     ptr1 = NULL;
 2409               		.loc 1 370 0
 2410 0f3c CE01      		movw r24,r28
 2411 0f3e 815F      		subi r24,-15
 2412 0f40 9E4F      		sbci r25,-2
 2413 0f42 FC01      		movw r30,r24
 2414 0f44 1182      		std Z+1,__zero_reg__
 2415 0f46 1082      		st Z,__zero_reg__
 371:lp_solve_5.5/lp_MPS.c ****     if((section == MPSBOUNDS) &&
 2416               		.loc 1 371 0
 2417 0f48 CE01      		movw r24,r28
 2418 0f4a 8D5E      		subi r24,-19
 2419 0f4c 9E4F      		sbci r25,-2
 2420 0f4e FC01      		movw r30,r24
 2421 0f50 8081      		ld r24,Z
 2422 0f52 9181      		ldd r25,Z+1
 2423 0f54 0397      		sbiw r24,3
 2424 0f56 01F0      		breq .+2
 2425 0f58 00C0      		rjmp .L89
 372:lp_solve_5.5/lp_MPS.c ****        ((strcmp(field1, "FR") == 0) || (strcmp(field1, "MI") == 0) || (strcmp(field1, "PL") == 0) |
 2426               		.loc 1 372 0 discriminator 1
 2427 0f5a CE01      		movw r24,r28
 2428 0f5c 895E      		subi r24,-23
 2429 0f5e 9E4F      		sbci r25,-2
 2430 0f60 FC01      		movw r30,r24
 2431 0f62 8081      		ld r24,Z
 2432 0f64 9181      		ldd r25,Z+1
 2433 0f66 60E0      		ldi r22,lo8(.LC9)
 2434 0f68 70E0      		ldi r23,hi8(.LC9)
 2435 0f6a 0E94 0000 		call strcmp
 371:lp_solve_5.5/lp_MPS.c ****     if((section == MPSBOUNDS) &&
 2436               		.loc 1 371 0 discriminator 1
 2437 0f6e 892B      		or r24,r25
 2438 0f70 01F0      		breq .L90
 2439               		.loc 1 372 0
 2440 0f72 CE01      		movw r24,r28
 2441 0f74 895E      		subi r24,-23
 2442 0f76 9E4F      		sbci r25,-2
 2443 0f78 FC01      		movw r30,r24
 2444 0f7a 8081      		ld r24,Z
 2445 0f7c 9181      		ldd r25,Z+1
 2446 0f7e 60E0      		ldi r22,lo8(.LC10)
 2447 0f80 70E0      		ldi r23,hi8(.LC10)
 2448 0f82 0E94 0000 		call strcmp
 2449 0f86 892B      		or r24,r25
 2450 0f88 01F0      		breq .L90
 2451               		.loc 1 372 0 is_stmt 0 discriminator 1
 2452 0f8a CE01      		movw r24,r28
 2453 0f8c 895E      		subi r24,-23
 2454 0f8e 9E4F      		sbci r25,-2
 2455 0f90 FC01      		movw r30,r24
 2456 0f92 8081      		ld r24,Z
 2457 0f94 9181      		ldd r25,Z+1
 2458 0f96 60E0      		ldi r22,lo8(.LC11)
 2459 0f98 70E0      		ldi r23,hi8(.LC11)
 2460 0f9a 0E94 0000 		call strcmp
 2461 0f9e 892B      		or r24,r25
 2462 0fa0 01F0      		breq .L90
 2463               		.loc 1 372 0 discriminator 2
 2464 0fa2 CE01      		movw r24,r28
 2465 0fa4 895E      		subi r24,-23
 2466 0fa6 9E4F      		sbci r25,-2
 2467 0fa8 FC01      		movw r30,r24
 2468 0faa 8081      		ld r24,Z
 2469 0fac 9181      		ldd r25,Z+1
 2470 0fae 60E0      		ldi r22,lo8(.LC12)
 2471 0fb0 70E0      		ldi r23,hi8(.LC12)
 2472 0fb2 0E94 0000 		call strcmp
 2473 0fb6 892B      		or r24,r25
 2474 0fb8 01F4      		brne .L89
 2475               	.L90:
 373:lp_solve_5.5/lp_MPS.c ****       strcpy(field3, field2);
 2476               		.loc 1 373 0 is_stmt 1
 2477 0fba CE01      		movw r24,r28
 2478 0fbc 875E      		subi r24,-25
 2479 0fbe 9E4F      		sbci r25,-2
 2480 0fc0 FC01      		movw r30,r24
 2481 0fc2 2081      		ld r18,Z
 2482 0fc4 3181      		ldd r19,Z+1
 2483 0fc6 CE01      		movw r24,r28
 2484 0fc8 855E      		subi r24,-27
 2485 0fca 9E4F      		sbci r25,-2
 2486 0fcc FC01      		movw r30,r24
 2487 0fce 8081      		ld r24,Z
 2488 0fd0 9181      		ldd r25,Z+1
 2489 0fd2 B901      		movw r22,r18
 2490 0fd4 0E94 0000 		call strcpy
 374:lp_solve_5.5/lp_MPS.c ****       *field2 = 0;
 2491               		.loc 1 374 0
 2492 0fd8 CE01      		movw r24,r28
 2493 0fda 875E      		subi r24,-25
 2494 0fdc 9E4F      		sbci r25,-2
 2495 0fde FC01      		movw r30,r24
 2496 0fe0 8081      		ld r24,Z
 2497 0fe2 9181      		ldd r25,Z+1
 2498 0fe4 FC01      		movw r30,r24
 2499 0fe6 1082      		st Z,__zero_reg__
 375:lp_solve_5.5/lp_MPS.c ****       items++;
 2500               		.loc 1 375 0
 2501 0fe8 8981      		ldd r24,Y+1
 2502 0fea 9A81      		ldd r25,Y+2
 2503 0fec 0196      		adiw r24,1
 2504 0fee 9A83      		std Y+2,r25
 2505 0ff0 8983      		std Y+1,r24
 2506 0ff2 00C0      		rjmp .L89
 2507               	.L114:
 326:lp_solve_5.5/lp_MPS.c ****             ((strcmp(field1, "FR") == 0) || (strcmp(field1, "MI") == 0) || (strcmp(field1, "PL") ==
 2508               		.loc 1 326 0
 2509 0ff4 0000      		nop
 2510               	.L89:
 376:lp_solve_5.5/lp_MPS.c ****     }
 377:lp_solve_5.5/lp_MPS.c ****   }
 378:lp_solve_5.5/lp_MPS.c **** 
 379:lp_solve_5.5/lp_MPS.c ****   if(ptr1 == NULL) {
 2511               		.loc 1 379 0
 2512 0ff6 CE01      		movw r24,r28
 2513 0ff8 815F      		subi r24,-15
 2514 0ffa 9E4F      		sbci r25,-2
 2515 0ffc FC01      		movw r30,r24
 2516 0ffe 8081      		ld r24,Z
 2517 1000 9181      		ldd r25,Z+1
 2518 1002 892B      		or r24,r25
 2519 1004 01F0      		breq .+2
 2520 1006 00C0      		rjmp .L91
 380:lp_solve_5.5/lp_MPS.c ****     len = lenfield(line, line_len);
 2521               		.loc 1 380 0
 2522 1008 2B81      		ldd r18,Y+3
 2523 100a 3C81      		ldd r19,Y+4
 2524 100c CE01      		movw r24,r28
 2525 100e 8B5E      		subi r24,-21
 2526 1010 9E4F      		sbci r25,-2
 2527 1012 FC01      		movw r30,r24
 2528 1014 8081      		ld r24,Z
 2529 1016 9181      		ldd r25,Z+1
 2530 1018 B901      		movw r22,r18
 2531 101a 0E94 0000 		call lenfield
 2532 101e 9E87      		std Y+14,r25
 2533 1020 8D87      		std Y+13,r24
 381:lp_solve_5.5/lp_MPS.c ****     if(line_len >= 1) { /* number */
 2534               		.loc 1 381 0
 2535 1022 8B81      		ldd r24,Y+3
 2536 1024 9C81      		ldd r25,Y+4
 2537 1026 1816      		cp __zero_reg__,r24
 2538 1028 1906      		cpc __zero_reg__,r25
 2539 102a 04F0      		brlt .+2
 2540 102c 00C0      		rjmp .L92
 382:lp_solve_5.5/lp_MPS.c ****       strncpy(buf, line, len);
 2541               		.loc 1 382 0
 2542 102e 4D85      		ldd r20,Y+13
 2543 1030 5E85      		ldd r21,Y+14
 2544 1032 CE01      		movw r24,r28
 2545 1034 8B5E      		subi r24,-21
 2546 1036 9E4F      		sbci r25,-2
 2547 1038 FC01      		movw r30,r24
 2548 103a 2081      		ld r18,Z
 2549 103c 3181      		ldd r19,Z+1
 2550 103e CE01      		movw r24,r28
 2551 1040 0F96      		adiw r24,15
 2552 1042 B901      		movw r22,r18
 2553 1044 0E94 0000 		call strncpy
 383:lp_solve_5.5/lp_MPS.c ****       buf[len] = '\0';
 2554               		.loc 1 383 0
 2555 1048 9E01      		movw r18,r28
 2556 104a 215F      		subi r18,-15
 2557 104c 3F4F      		sbci r19,-1
 2558 104e 8D85      		ldd r24,Y+13
 2559 1050 9E85      		ldd r25,Y+14
 2560 1052 820F      		add r24,r18
 2561 1054 931F      		adc r25,r19
 2562 1056 FC01      		movw r30,r24
 2563 1058 1082      		st Z,__zero_reg__
 384:lp_solve_5.5/lp_MPS.c ****       for(ptr1 = ptr2 = buf; ; ptr1++)
 2564               		.loc 1 384 0
 2565 105a CE01      		movw r24,r28
 2566 105c 0F96      		adiw r24,15
 2567 105e 9E83      		std Y+6,r25
 2568 1060 8D83      		std Y+5,r24
 2569 1062 CE01      		movw r24,r28
 2570 1064 815F      		subi r24,-15
 2571 1066 9E4F      		sbci r25,-2
 2572 1068 2D81      		ldd r18,Y+5
 2573 106a 3E81      		ldd r19,Y+6
 2574 106c FC01      		movw r30,r24
 2575 106e 3183      		std Z+1,r19
 2576 1070 2083      		st Z,r18
 2577               	.L95:
 385:lp_solve_5.5/lp_MPS.c ****         if(!isspace((unsigned char) *ptr1))
 2578               		.loc 1 385 0
 2579 1072 CE01      		movw r24,r28
 2580 1074 815F      		subi r24,-15
 2581 1076 9E4F      		sbci r25,-2
 2582 1078 FC01      		movw r30,r24
 2583 107a 8081      		ld r24,Z
 2584 107c 9181      		ldd r25,Z+1
 2585 107e FC01      		movw r30,r24
 2586 1080 8081      		ld r24,Z
 2587 1082 882F      		mov r24,r24
 2588 1084 90E0      		ldi r25,0
 2589 1086 0E94 0000 		call isspace
 2590 108a 892B      		or r24,r25
 2591 108c 01F4      		brne .L93
 386:lp_solve_5.5/lp_MPS.c ****           if((*(ptr2++) = *ptr1) == 0)
 2592               		.loc 1 386 0
 2593 108e 8D81      		ldd r24,Y+5
 2594 1090 9E81      		ldd r25,Y+6
 2595 1092 9C01      		movw r18,r24
 2596 1094 2F5F      		subi r18,-1
 2597 1096 3F4F      		sbci r19,-1
 2598 1098 3E83      		std Y+6,r19
 2599 109a 2D83      		std Y+5,r18
 2600 109c 9E01      		movw r18,r28
 2601 109e 215F      		subi r18,-15
 2602 10a0 3E4F      		sbci r19,-2
 2603 10a2 F901      		movw r30,r18
 2604 10a4 2081      		ld r18,Z
 2605 10a6 3181      		ldd r19,Z+1
 2606 10a8 F901      		movw r30,r18
 2607 10aa 2081      		ld r18,Z
 2608 10ac FC01      		movw r30,r24
 2609 10ae 2083      		st Z,r18
 2610 10b0 FC01      		movw r30,r24
 2611 10b2 8081      		ld r24,Z
 2612 10b4 8823      		tst r24
 2613 10b6 01F0      		breq .L115
 2614               	.L93:
 384:lp_solve_5.5/lp_MPS.c ****       for(ptr1 = ptr2 = buf; ; ptr1++)
 2615               		.loc 1 384 0
 2616 10b8 CE01      		movw r24,r28
 2617 10ba 815F      		subi r24,-15
 2618 10bc 9E4F      		sbci r25,-2
 2619 10be FC01      		movw r30,r24
 2620 10c0 8081      		ld r24,Z
 2621 10c2 9181      		ldd r25,Z+1
 2622 10c4 9C01      		movw r18,r24
 2623 10c6 2F5F      		subi r18,-1
 2624 10c8 3F4F      		sbci r19,-1
 2625 10ca CE01      		movw r24,r28
 2626 10cc 815F      		subi r24,-15
 2627 10ce 9E4F      		sbci r25,-2
 2628 10d0 FC01      		movw r30,r24
 2629 10d2 3183      		std Z+1,r19
 2630 10d4 2083      		st Z,r18
 387:lp_solve_5.5/lp_MPS.c ****             break;
 388:lp_solve_5.5/lp_MPS.c ****       /* *field4 = atof(buf); */
 389:lp_solve_5.5/lp_MPS.c ****       *field4 = strtod(buf, &ptr1);
 2631               		.loc 1 389 0
 2632 10d6 00C0      		rjmp .L95
 2633               	.L115:
 387:lp_solve_5.5/lp_MPS.c ****             break;
 2634               		.loc 1 387 0
 2635 10d8 0000      		nop
 2636               		.loc 1 389 0
 2637 10da 9E01      		movw r18,r28
 2638 10dc 215F      		subi r18,-15
 2639 10de 3E4F      		sbci r19,-2
 2640 10e0 CE01      		movw r24,r28
 2641 10e2 0F96      		adiw r24,15
 2642 10e4 B901      		movw r22,r18
 2643 10e6 0E94 0000 		call strtod
 2644 10ea DC01      		movw r26,r24
 2645 10ec CB01      		movw r24,r22
 2646 10ee 9E01      		movw r18,r28
 2647 10f0 235E      		subi r18,-29
 2648 10f2 3E4F      		sbci r19,-2
 2649 10f4 F901      		movw r30,r18
 2650 10f6 2081      		ld r18,Z
 2651 10f8 3181      		ldd r19,Z+1
 2652 10fa F901      		movw r30,r18
 2653 10fc 8083      		st Z,r24
 2654 10fe 9183      		std Z+1,r25
 2655 1100 A283      		std Z+2,r26
 2656 1102 B383      		std Z+3,r27
 390:lp_solve_5.5/lp_MPS.c ****       if(*ptr1)
 2657               		.loc 1 390 0
 2658 1104 CE01      		movw r24,r28
 2659 1106 815F      		subi r24,-15
 2660 1108 9E4F      		sbci r25,-2
 2661 110a FC01      		movw r30,r24
 2662 110c 8081      		ld r24,Z
 2663 110e 9181      		ldd r25,Z+1
 2664 1110 FC01      		movw r30,r24
 2665 1112 8081      		ld r24,Z
 2666 1114 8823      		tst r24
 2667 1116 01F0      		breq .L96
 391:lp_solve_5.5/lp_MPS.c ****         return(-1);
 2668               		.loc 1 391 0
 2669 1118 8FEF      		ldi r24,lo8(-1)
 2670 111a 9FEF      		ldi r25,lo8(-1)
 2671 111c 00C0      		rjmp .L111
 2672               	.L96:
 392:lp_solve_5.5/lp_MPS.c ****       items++;
 2673               		.loc 1 392 0
 2674 111e 8981      		ldd r24,Y+1
 2675 1120 9A81      		ldd r25,Y+2
 2676 1122 0196      		adiw r24,1
 2677 1124 9A83      		std Y+2,r25
 2678 1126 8983      		std Y+1,r24
 2679 1128 00C0      		rjmp .L98
 2680               	.L92:
 393:lp_solve_5.5/lp_MPS.c ****     }
 394:lp_solve_5.5/lp_MPS.c ****     else
 395:lp_solve_5.5/lp_MPS.c ****       *field4 = 0;
 2681               		.loc 1 395 0
 2682 112a CE01      		movw r24,r28
 2683 112c 835E      		subi r24,-29
 2684 112e 9E4F      		sbci r25,-2
 2685 1130 FC01      		movw r30,r24
 2686 1132 8081      		ld r24,Z
 2687 1134 9181      		ldd r25,Z+1
 2688 1136 FC01      		movw r30,r24
 2689 1138 1082      		st Z,__zero_reg__
 2690 113a 1182      		std Z+1,__zero_reg__
 2691 113c 1282      		std Z+2,__zero_reg__
 2692 113e 1382      		std Z+3,__zero_reg__
 2693               	.L98:
 396:lp_solve_5.5/lp_MPS.c **** 
 397:lp_solve_5.5/lp_MPS.c ****     line += len;
 2694               		.loc 1 397 0
 2695 1140 2D85      		ldd r18,Y+13
 2696 1142 3E85      		ldd r19,Y+14
 2697 1144 CE01      		movw r24,r28
 2698 1146 8B5E      		subi r24,-21
 2699 1148 9E4F      		sbci r25,-2
 2700 114a AE01      		movw r20,r28
 2701 114c 4B5E      		subi r20,-21
 2702 114e 5E4F      		sbci r21,-2
 2703 1150 FA01      		movw r30,r20
 2704 1152 4081      		ld r20,Z
 2705 1154 5181      		ldd r21,Z+1
 2706 1156 240F      		add r18,r20
 2707 1158 351F      		adc r19,r21
 2708 115a FC01      		movw r30,r24
 2709 115c 3183      		std Z+1,r19
 2710 115e 2083      		st Z,r18
 398:lp_solve_5.5/lp_MPS.c ****     line_len -= len;
 2711               		.loc 1 398 0
 2712 1160 2B81      		ldd r18,Y+3
 2713 1162 3C81      		ldd r19,Y+4
 2714 1164 8D85      		ldd r24,Y+13
 2715 1166 9E85      		ldd r25,Y+14
 2716 1168 A901      		movw r20,r18
 2717 116a 481B      		sub r20,r24
 2718 116c 590B      		sbc r21,r25
 2719 116e CA01      		movw r24,r20
 2720 1170 9C83      		std Y+4,r25
 2721 1172 8B83      		std Y+3,r24
 399:lp_solve_5.5/lp_MPS.c **** 
 400:lp_solve_5.5/lp_MPS.c ****     len = spaces(line, line_len);
 2722               		.loc 1 400 0
 2723 1174 2B81      		ldd r18,Y+3
 2724 1176 3C81      		ldd r19,Y+4
 2725 1178 CE01      		movw r24,r28
 2726 117a 8B5E      		subi r24,-21
 2727 117c 9E4F      		sbci r25,-2
 2728 117e FC01      		movw r30,r24
 2729 1180 8081      		ld r24,Z
 2730 1182 9181      		ldd r25,Z+1
 2731 1184 B901      		movw r22,r18
 2732 1186 0E94 0000 		call spaces
 2733 118a 9E87      		std Y+14,r25
 2734 118c 8D87      		std Y+13,r24
 401:lp_solve_5.5/lp_MPS.c ****     line += len;
 2735               		.loc 1 401 0
 2736 118e 2D85      		ldd r18,Y+13
 2737 1190 3E85      		ldd r19,Y+14
 2738 1192 CE01      		movw r24,r28
 2739 1194 8B5E      		subi r24,-21
 2740 1196 9E4F      		sbci r25,-2
 2741 1198 AE01      		movw r20,r28
 2742 119a 4B5E      		subi r20,-21
 2743 119c 5E4F      		sbci r21,-2
 2744 119e FA01      		movw r30,r20
 2745 11a0 4081      		ld r20,Z
 2746 11a2 5181      		ldd r21,Z+1
 2747 11a4 240F      		add r18,r20
 2748 11a6 351F      		adc r19,r21
 2749 11a8 FC01      		movw r30,r24
 2750 11aa 3183      		std Z+1,r19
 2751 11ac 2083      		st Z,r18
 402:lp_solve_5.5/lp_MPS.c ****     line_len -= len;
 2752               		.loc 1 402 0
 2753 11ae 2B81      		ldd r18,Y+3
 2754 11b0 3C81      		ldd r19,Y+4
 2755 11b2 8D85      		ldd r24,Y+13
 2756 11b4 9E85      		ldd r25,Y+14
 2757 11b6 A901      		movw r20,r18
 2758 11b8 481B      		sub r20,r24
 2759 11ba 590B      		sbc r21,r25
 2760 11bc CA01      		movw r24,r20
 2761 11be 9C83      		std Y+4,r25
 2762 11c0 8B83      		std Y+3,r24
 2763               	.L91:
 403:lp_solve_5.5/lp_MPS.c ****   }
 404:lp_solve_5.5/lp_MPS.c **** 
 405:lp_solve_5.5/lp_MPS.c ****   len = lenfield(line, line_len);
 2764               		.loc 1 405 0
 2765 11c2 2B81      		ldd r18,Y+3
 2766 11c4 3C81      		ldd r19,Y+4
 2767 11c6 CE01      		movw r24,r28
 2768 11c8 8B5E      		subi r24,-21
 2769 11ca 9E4F      		sbci r25,-2
 2770 11cc FC01      		movw r30,r24
 2771 11ce 8081      		ld r24,Z
 2772 11d0 9181      		ldd r25,Z+1
 2773 11d2 B901      		movw r22,r18
 2774 11d4 0E94 0000 		call lenfield
 2775 11d8 9E87      		std Y+14,r25
 2776 11da 8D87      		std Y+13,r24
 406:lp_solve_5.5/lp_MPS.c ****   if(line_len >= 1) { /* name */
 2777               		.loc 1 406 0
 2778 11dc 8B81      		ldd r24,Y+3
 2779 11de 9C81      		ldd r25,Y+4
 2780 11e0 1816      		cp __zero_reg__,r24
 2781 11e2 1906      		cpc __zero_reg__,r25
 2782 11e4 04F4      		brge .L99
 407:lp_solve_5.5/lp_MPS.c ****     strncpy(field5, line, len);
 2783               		.loc 1 407 0
 2784 11e6 4D85      		ldd r20,Y+13
 2785 11e8 5E85      		ldd r21,Y+14
 2786 11ea CE01      		movw r24,r28
 2787 11ec 8B5E      		subi r24,-21
 2788 11ee 9E4F      		sbci r25,-2
 2789 11f0 FC01      		movw r30,r24
 2790 11f2 2081      		ld r18,Z
 2791 11f4 3181      		ldd r19,Z+1
 2792 11f6 CE01      		movw r24,r28
 2793 11f8 815E      		subi r24,-31
 2794 11fa 9E4F      		sbci r25,-2
 2795 11fc FC01      		movw r30,r24
 2796 11fe 8081      		ld r24,Z
 2797 1200 9181      		ldd r25,Z+1
 2798 1202 B901      		movw r22,r18
 2799 1204 0E94 0000 		call strncpy
 408:lp_solve_5.5/lp_MPS.c ****     field5[len] = '\0';
 2800               		.loc 1 408 0
 2801 1208 8D85      		ldd r24,Y+13
 2802 120a 9E85      		ldd r25,Y+14
 2803 120c 9E01      		movw r18,r28
 2804 120e 215E      		subi r18,-31
 2805 1210 3E4F      		sbci r19,-2
 2806 1212 F901      		movw r30,r18
 2807 1214 2081      		ld r18,Z
 2808 1216 3181      		ldd r19,Z+1
 2809 1218 820F      		add r24,r18
 2810 121a 931F      		adc r25,r19
 2811 121c FC01      		movw r30,r24
 2812 121e 1082      		st Z,__zero_reg__
 409:lp_solve_5.5/lp_MPS.c ****     items++;
 2813               		.loc 1 409 0
 2814 1220 8981      		ldd r24,Y+1
 2815 1222 9A81      		ldd r25,Y+2
 2816 1224 0196      		adiw r24,1
 2817 1226 9A83      		std Y+2,r25
 2818 1228 8983      		std Y+1,r24
 2819 122a 00C0      		rjmp .L100
 2820               	.L99:
 410:lp_solve_5.5/lp_MPS.c ****   }
 411:lp_solve_5.5/lp_MPS.c ****   else
 412:lp_solve_5.5/lp_MPS.c ****     field5[0] = '\0';
 2821               		.loc 1 412 0
 2822 122c CE01      		movw r24,r28
 2823 122e 815E      		subi r24,-31
 2824 1230 9E4F      		sbci r25,-2
 2825 1232 FC01      		movw r30,r24
 2826 1234 8081      		ld r24,Z
 2827 1236 9181      		ldd r25,Z+1
 2828 1238 FC01      		movw r30,r24
 2829 123a 1082      		st Z,__zero_reg__
 2830               	.L100:
 413:lp_solve_5.5/lp_MPS.c ****   line += len;
 2831               		.loc 1 413 0
 2832 123c 2D85      		ldd r18,Y+13
 2833 123e 3E85      		ldd r19,Y+14
 2834 1240 CE01      		movw r24,r28
 2835 1242 8B5E      		subi r24,-21
 2836 1244 9E4F      		sbci r25,-2
 2837 1246 AE01      		movw r20,r28
 2838 1248 4B5E      		subi r20,-21
 2839 124a 5E4F      		sbci r21,-2
 2840 124c FA01      		movw r30,r20
 2841 124e 4081      		ld r20,Z
 2842 1250 5181      		ldd r21,Z+1
 2843 1252 240F      		add r18,r20
 2844 1254 351F      		adc r19,r21
 2845 1256 FC01      		movw r30,r24
 2846 1258 3183      		std Z+1,r19
 2847 125a 2083      		st Z,r18
 414:lp_solve_5.5/lp_MPS.c ****   line_len -= len;
 2848               		.loc 1 414 0
 2849 125c 2B81      		ldd r18,Y+3
 2850 125e 3C81      		ldd r19,Y+4
 2851 1260 8D85      		ldd r24,Y+13
 2852 1262 9E85      		ldd r25,Y+14
 2853 1264 A901      		movw r20,r18
 2854 1266 481B      		sub r20,r24
 2855 1268 590B      		sbc r21,r25
 2856 126a CA01      		movw r24,r20
 2857 126c 9C83      		std Y+4,r25
 2858 126e 8B83      		std Y+3,r24
 415:lp_solve_5.5/lp_MPS.c **** 
 416:lp_solve_5.5/lp_MPS.c ****   len = spaces(line, line_len);
 2859               		.loc 1 416 0
 2860 1270 2B81      		ldd r18,Y+3
 2861 1272 3C81      		ldd r19,Y+4
 2862 1274 CE01      		movw r24,r28
 2863 1276 8B5E      		subi r24,-21
 2864 1278 9E4F      		sbci r25,-2
 2865 127a FC01      		movw r30,r24
 2866 127c 8081      		ld r24,Z
 2867 127e 9181      		ldd r25,Z+1
 2868 1280 B901      		movw r22,r18
 2869 1282 0E94 0000 		call spaces
 2870 1286 9E87      		std Y+14,r25
 2871 1288 8D87      		std Y+13,r24
 417:lp_solve_5.5/lp_MPS.c ****   line += len;
 2872               		.loc 1 417 0
 2873 128a 2D85      		ldd r18,Y+13
 2874 128c 3E85      		ldd r19,Y+14
 2875 128e CE01      		movw r24,r28
 2876 1290 8B5E      		subi r24,-21
 2877 1292 9E4F      		sbci r25,-2
 2878 1294 AE01      		movw r20,r28
 2879 1296 4B5E      		subi r20,-21
 2880 1298 5E4F      		sbci r21,-2
 2881 129a FA01      		movw r30,r20
 2882 129c 4081      		ld r20,Z
 2883 129e 5181      		ldd r21,Z+1
 2884 12a0 240F      		add r18,r20
 2885 12a2 351F      		adc r19,r21
 2886 12a4 FC01      		movw r30,r24
 2887 12a6 3183      		std Z+1,r19
 2888 12a8 2083      		st Z,r18
 418:lp_solve_5.5/lp_MPS.c ****   line_len -= len;
 2889               		.loc 1 418 0
 2890 12aa 2B81      		ldd r18,Y+3
 2891 12ac 3C81      		ldd r19,Y+4
 2892 12ae 8D85      		ldd r24,Y+13
 2893 12b0 9E85      		ldd r25,Y+14
 2894 12b2 A901      		movw r20,r18
 2895 12b4 481B      		sub r20,r24
 2896 12b6 590B      		sbc r21,r25
 2897 12b8 CA01      		movw r24,r20
 2898 12ba 9C83      		std Y+4,r25
 2899 12bc 8B83      		std Y+3,r24
 419:lp_solve_5.5/lp_MPS.c **** 
 420:lp_solve_5.5/lp_MPS.c ****   len = lenfield(line, line_len);
 2900               		.loc 1 420 0
 2901 12be 2B81      		ldd r18,Y+3
 2902 12c0 3C81      		ldd r19,Y+4
 2903 12c2 CE01      		movw r24,r28
 2904 12c4 8B5E      		subi r24,-21
 2905 12c6 9E4F      		sbci r25,-2
 2906 12c8 FC01      		movw r30,r24
 2907 12ca 8081      		ld r24,Z
 2908 12cc 9181      		ldd r25,Z+1
 2909 12ce B901      		movw r22,r18
 2910 12d0 0E94 0000 		call lenfield
 2911 12d4 9E87      		std Y+14,r25
 2912 12d6 8D87      		std Y+13,r24
 421:lp_solve_5.5/lp_MPS.c ****   if(line_len >= 1) { /* number */
 2913               		.loc 1 421 0
 2914 12d8 8B81      		ldd r24,Y+3
 2915 12da 9C81      		ldd r25,Y+4
 2916 12dc 1816      		cp __zero_reg__,r24
 2917 12de 1906      		cpc __zero_reg__,r25
 2918 12e0 04F0      		brlt .+2
 2919 12e2 00C0      		rjmp .L101
 422:lp_solve_5.5/lp_MPS.c ****     strncpy(buf, line, len);
 2920               		.loc 1 422 0
 2921 12e4 4D85      		ldd r20,Y+13
 2922 12e6 5E85      		ldd r21,Y+14
 2923 12e8 CE01      		movw r24,r28
 2924 12ea 8B5E      		subi r24,-21
 2925 12ec 9E4F      		sbci r25,-2
 2926 12ee FC01      		movw r30,r24
 2927 12f0 2081      		ld r18,Z
 2928 12f2 3181      		ldd r19,Z+1
 2929 12f4 CE01      		movw r24,r28
 2930 12f6 0F96      		adiw r24,15
 2931 12f8 B901      		movw r22,r18
 2932 12fa 0E94 0000 		call strncpy
 423:lp_solve_5.5/lp_MPS.c ****     buf[len] = '\0';
 2933               		.loc 1 423 0
 2934 12fe 9E01      		movw r18,r28
 2935 1300 215F      		subi r18,-15
 2936 1302 3F4F      		sbci r19,-1
 2937 1304 8D85      		ldd r24,Y+13
 2938 1306 9E85      		ldd r25,Y+14
 2939 1308 820F      		add r24,r18
 2940 130a 931F      		adc r25,r19
 2941 130c FC01      		movw r30,r24
 2942 130e 1082      		st Z,__zero_reg__
 424:lp_solve_5.5/lp_MPS.c ****     for(ptr1 = ptr2 = buf; ; ptr1++)
 2943               		.loc 1 424 0
 2944 1310 CE01      		movw r24,r28
 2945 1312 0F96      		adiw r24,15
 2946 1314 9E83      		std Y+6,r25
 2947 1316 8D83      		std Y+5,r24
 2948 1318 CE01      		movw r24,r28
 2949 131a 815F      		subi r24,-15
 2950 131c 9E4F      		sbci r25,-2
 2951 131e 2D81      		ldd r18,Y+5
 2952 1320 3E81      		ldd r19,Y+6
 2953 1322 FC01      		movw r30,r24
 2954 1324 3183      		std Z+1,r19
 2955 1326 2083      		st Z,r18
 2956               	.L104:
 425:lp_solve_5.5/lp_MPS.c ****       if(!isspace((unsigned char) *ptr1))
 2957               		.loc 1 425 0
 2958 1328 CE01      		movw r24,r28
 2959 132a 815F      		subi r24,-15
 2960 132c 9E4F      		sbci r25,-2
 2961 132e FC01      		movw r30,r24
 2962 1330 8081      		ld r24,Z
 2963 1332 9181      		ldd r25,Z+1
 2964 1334 FC01      		movw r30,r24
 2965 1336 8081      		ld r24,Z
 2966 1338 882F      		mov r24,r24
 2967 133a 90E0      		ldi r25,0
 2968 133c 0E94 0000 		call isspace
 2969 1340 892B      		or r24,r25
 2970 1342 01F4      		brne .L102
 426:lp_solve_5.5/lp_MPS.c ****         if((*(ptr2++) = *ptr1) == 0)
 2971               		.loc 1 426 0
 2972 1344 8D81      		ldd r24,Y+5
 2973 1346 9E81      		ldd r25,Y+6
 2974 1348 9C01      		movw r18,r24
 2975 134a 2F5F      		subi r18,-1
 2976 134c 3F4F      		sbci r19,-1
 2977 134e 3E83      		std Y+6,r19
 2978 1350 2D83      		std Y+5,r18
 2979 1352 9E01      		movw r18,r28
 2980 1354 215F      		subi r18,-15
 2981 1356 3E4F      		sbci r19,-2
 2982 1358 F901      		movw r30,r18
 2983 135a 2081      		ld r18,Z
 2984 135c 3181      		ldd r19,Z+1
 2985 135e F901      		movw r30,r18
 2986 1360 2081      		ld r18,Z
 2987 1362 FC01      		movw r30,r24
 2988 1364 2083      		st Z,r18
 2989 1366 FC01      		movw r30,r24
 2990 1368 8081      		ld r24,Z
 2991 136a 8823      		tst r24
 2992 136c 01F0      		breq .L116
 2993               	.L102:
 424:lp_solve_5.5/lp_MPS.c ****     for(ptr1 = ptr2 = buf; ; ptr1++)
 2994               		.loc 1 424 0
 2995 136e CE01      		movw r24,r28
 2996 1370 815F      		subi r24,-15
 2997 1372 9E4F      		sbci r25,-2
 2998 1374 FC01      		movw r30,r24
 2999 1376 8081      		ld r24,Z
 3000 1378 9181      		ldd r25,Z+1
 3001 137a 9C01      		movw r18,r24
 3002 137c 2F5F      		subi r18,-1
 3003 137e 3F4F      		sbci r19,-1
 3004 1380 CE01      		movw r24,r28
 3005 1382 815F      		subi r24,-15
 3006 1384 9E4F      		sbci r25,-2
 3007 1386 FC01      		movw r30,r24
 3008 1388 3183      		std Z+1,r19
 3009 138a 2083      		st Z,r18
 427:lp_solve_5.5/lp_MPS.c ****           break;
 428:lp_solve_5.5/lp_MPS.c ****     /* *field6 = atof(buf); */
 429:lp_solve_5.5/lp_MPS.c ****     *field6 = strtod(buf, &ptr1);
 3010               		.loc 1 429 0
 3011 138c 00C0      		rjmp .L104
 3012               	.L116:
 427:lp_solve_5.5/lp_MPS.c ****           break;
 3013               		.loc 1 427 0
 3014 138e 0000      		nop
 3015               		.loc 1 429 0
 3016 1390 9E01      		movw r18,r28
 3017 1392 215F      		subi r18,-15
 3018 1394 3E4F      		sbci r19,-2
 3019 1396 CE01      		movw r24,r28
 3020 1398 0F96      		adiw r24,15
 3021 139a B901      		movw r22,r18
 3022 139c 0E94 0000 		call strtod
 3023 13a0 DC01      		movw r26,r24
 3024 13a2 CB01      		movw r24,r22
 3025 13a4 9E01      		movw r18,r28
 3026 13a6 2F5D      		subi r18,-33
 3027 13a8 3E4F      		sbci r19,-2
 3028 13aa F901      		movw r30,r18
 3029 13ac 2081      		ld r18,Z
 3030 13ae 3181      		ldd r19,Z+1
 3031 13b0 F901      		movw r30,r18
 3032 13b2 8083      		st Z,r24
 3033 13b4 9183      		std Z+1,r25
 3034 13b6 A283      		std Z+2,r26
 3035 13b8 B383      		std Z+3,r27
 430:lp_solve_5.5/lp_MPS.c ****     if(*ptr1)
 3036               		.loc 1 430 0
 3037 13ba CE01      		movw r24,r28
 3038 13bc 815F      		subi r24,-15
 3039 13be 9E4F      		sbci r25,-2
 3040 13c0 FC01      		movw r30,r24
 3041 13c2 8081      		ld r24,Z
 3042 13c4 9181      		ldd r25,Z+1
 3043 13c6 FC01      		movw r30,r24
 3044 13c8 8081      		ld r24,Z
 3045 13ca 8823      		tst r24
 3046 13cc 01F0      		breq .L105
 431:lp_solve_5.5/lp_MPS.c ****       return(-1);
 3047               		.loc 1 431 0
 3048 13ce 8FEF      		ldi r24,lo8(-1)
 3049 13d0 9FEF      		ldi r25,lo8(-1)
 3050 13d2 00C0      		rjmp .L111
 3051               	.L105:
 432:lp_solve_5.5/lp_MPS.c ****     items++;
 3052               		.loc 1 432 0
 3053 13d4 8981      		ldd r24,Y+1
 3054 13d6 9A81      		ldd r25,Y+2
 3055 13d8 0196      		adiw r24,1
 3056 13da 9A83      		std Y+2,r25
 3057 13dc 8983      		std Y+1,r24
 3058 13de 00C0      		rjmp .L106
 3059               	.L101:
 433:lp_solve_5.5/lp_MPS.c ****   }
 434:lp_solve_5.5/lp_MPS.c ****   else
 435:lp_solve_5.5/lp_MPS.c ****     *field6 = 0;
 3060               		.loc 1 435 0
 3061 13e0 CE01      		movw r24,r28
 3062 13e2 8F5D      		subi r24,-33
 3063 13e4 9E4F      		sbci r25,-2
 3064 13e6 FC01      		movw r30,r24
 3065 13e8 8081      		ld r24,Z
 3066 13ea 9181      		ldd r25,Z+1
 3067 13ec FC01      		movw r30,r24
 3068 13ee 1082      		st Z,__zero_reg__
 3069 13f0 1182      		std Z+1,__zero_reg__
 3070 13f2 1282      		std Z+2,__zero_reg__
 3071 13f4 1382      		std Z+3,__zero_reg__
 3072               	.L106:
 436:lp_solve_5.5/lp_MPS.c **** 
 437:lp_solve_5.5/lp_MPS.c ****   if((section == MPSSOS) && (items == 2)) {
 3073               		.loc 1 437 0
 3074 13f6 CE01      		movw r24,r28
 3075 13f8 8D5E      		subi r24,-19
 3076 13fa 9E4F      		sbci r25,-2
 3077 13fc FC01      		movw r30,r24
 3078 13fe 8081      		ld r24,Z
 3079 1400 9181      		ldd r25,Z+1
 3080 1402 0597      		sbiw r24,5
 3081 1404 01F4      		brne .L107
 3082               		.loc 1 437 0 is_stmt 0 discriminator 1
 3083 1406 8981      		ldd r24,Y+1
 3084 1408 9A81      		ldd r25,Y+2
 3085 140a 0297      		sbiw r24,2
 3086 140c 01F4      		brne .L107
 438:lp_solve_5.5/lp_MPS.c ****     strcpy(field3, field2);
 3087               		.loc 1 438 0 is_stmt 1
 3088 140e CE01      		movw r24,r28
 3089 1410 875E      		subi r24,-25
 3090 1412 9E4F      		sbci r25,-2
 3091 1414 FC01      		movw r30,r24
 3092 1416 2081      		ld r18,Z
 3093 1418 3181      		ldd r19,Z+1
 3094 141a CE01      		movw r24,r28
 3095 141c 855E      		subi r24,-27
 3096 141e 9E4F      		sbci r25,-2
 3097 1420 FC01      		movw r30,r24
 3098 1422 8081      		ld r24,Z
 3099 1424 9181      		ldd r25,Z+1
 3100 1426 B901      		movw r22,r18
 3101 1428 0E94 0000 		call strcpy
 439:lp_solve_5.5/lp_MPS.c ****     strcpy(field2, field1);
 3102               		.loc 1 439 0
 3103 142c CE01      		movw r24,r28
 3104 142e 895E      		subi r24,-23
 3105 1430 9E4F      		sbci r25,-2
 3106 1432 FC01      		movw r30,r24
 3107 1434 2081      		ld r18,Z
 3108 1436 3181      		ldd r19,Z+1
 3109 1438 CE01      		movw r24,r28
 3110 143a 875E      		subi r24,-25
 3111 143c 9E4F      		sbci r25,-2
 3112 143e FC01      		movw r30,r24
 3113 1440 8081      		ld r24,Z
 3114 1442 9181      		ldd r25,Z+1
 3115 1444 B901      		movw r22,r18
 3116 1446 0E94 0000 		call strcpy
 440:lp_solve_5.5/lp_MPS.c ****     *field1 = 0;
 3117               		.loc 1 440 0
 3118 144a CE01      		movw r24,r28
 3119 144c 895E      		subi r24,-23
 3120 144e 9E4F      		sbci r25,-2
 3121 1450 FC01      		movw r30,r24
 3122 1452 8081      		ld r24,Z
 3123 1454 9181      		ldd r25,Z+1
 3124 1456 FC01      		movw r30,r24
 3125 1458 1082      		st Z,__zero_reg__
 3126               	.L107:
 441:lp_solve_5.5/lp_MPS.c ****   }
 442:lp_solve_5.5/lp_MPS.c **** 
 443:lp_solve_5.5/lp_MPS.c ****   if((section != MPSOBJNAME) && (section != MPSBOUNDS)) {
 3127               		.loc 1 443 0
 3128 145a CE01      		movw r24,r28
 3129 145c 8D5E      		subi r24,-19
 3130 145e 9E4F      		sbci r25,-2
 3131 1460 FC01      		movw r30,r24
 3132 1462 8081      		ld r24,Z
 3133 1464 9181      		ldd r25,Z+1
 3134 1466 0196      		adiw r24,1
 3135 1468 01F4      		brne .+2
 3136 146a 00C0      		rjmp .L108
 3137               		.loc 1 443 0 is_stmt 0 discriminator 1
 3138 146c CE01      		movw r24,r28
 3139 146e 8D5E      		subi r24,-19
 3140 1470 9E4F      		sbci r25,-2
 3141 1472 FC01      		movw r30,r24
 3142 1474 8081      		ld r24,Z
 3143 1476 9181      		ldd r25,Z+1
 3144 1478 0397      		sbiw r24,3
 3145 147a 01F0      		breq .L108
 444:lp_solve_5.5/lp_MPS.c ****     for(ptr1 = field1; *ptr1; ptr1++)
 3146               		.loc 1 444 0 is_stmt 1
 3147 147c CE01      		movw r24,r28
 3148 147e 815F      		subi r24,-15
 3149 1480 9E4F      		sbci r25,-2
 3150 1482 9E01      		movw r18,r28
 3151 1484 295E      		subi r18,-23
 3152 1486 3E4F      		sbci r19,-2
 3153 1488 F901      		movw r30,r18
 3154 148a 2081      		ld r18,Z
 3155 148c 3181      		ldd r19,Z+1
 3156 148e FC01      		movw r30,r24
 3157 1490 3183      		std Z+1,r19
 3158 1492 2083      		st Z,r18
 3159 1494 00C0      		rjmp .L109
 3160               	.L110:
 445:lp_solve_5.5/lp_MPS.c ****       *ptr1=(char)toupper(*ptr1);
 3161               		.loc 1 445 0 discriminator 3
 3162 1496 CE01      		movw r24,r28
 3163 1498 815F      		subi r24,-15
 3164 149a 9E4F      		sbci r25,-2
 3165 149c FC01      		movw r30,r24
 3166 149e 0081      		ld r16,Z
 3167 14a0 1181      		ldd r17,Z+1
 3168 14a2 CE01      		movw r24,r28
 3169 14a4 815F      		subi r24,-15
 3170 14a6 9E4F      		sbci r25,-2
 3171 14a8 FC01      		movw r30,r24
 3172 14aa 8081      		ld r24,Z
 3173 14ac 9181      		ldd r25,Z+1
 3174 14ae FC01      		movw r30,r24
 3175 14b0 8081      		ld r24,Z
 3176 14b2 882F      		mov r24,r24
 3177 14b4 90E0      		ldi r25,0
 3178 14b6 0E94 0000 		call toupper
 3179 14ba F801      		movw r30,r16
 3180 14bc 8083      		st Z,r24
 444:lp_solve_5.5/lp_MPS.c ****     for(ptr1 = field1; *ptr1; ptr1++)
 3181               		.loc 1 444 0 discriminator 3
 3182 14be CE01      		movw r24,r28
 3183 14c0 815F      		subi r24,-15
 3184 14c2 9E4F      		sbci r25,-2
 3185 14c4 FC01      		movw r30,r24
 3186 14c6 8081      		ld r24,Z
 3187 14c8 9181      		ldd r25,Z+1
 3188 14ca 9C01      		movw r18,r24
 3189 14cc 2F5F      		subi r18,-1
 3190 14ce 3F4F      		sbci r19,-1
 3191 14d0 CE01      		movw r24,r28
 3192 14d2 815F      		subi r24,-15
 3193 14d4 9E4F      		sbci r25,-2
 3194 14d6 FC01      		movw r30,r24
 3195 14d8 3183      		std Z+1,r19
 3196 14da 2083      		st Z,r18
 3197               	.L109:
 444:lp_solve_5.5/lp_MPS.c ****     for(ptr1 = field1; *ptr1; ptr1++)
 3198               		.loc 1 444 0 is_stmt 0 discriminator 1
 3199 14dc CE01      		movw r24,r28
 3200 14de 815F      		subi r24,-15
 3201 14e0 9E4F      		sbci r25,-2
 3202 14e2 FC01      		movw r30,r24
 3203 14e4 8081      		ld r24,Z
 3204 14e6 9181      		ldd r25,Z+1
 3205 14e8 FC01      		movw r30,r24
 3206 14ea 8081      		ld r24,Z
 3207 14ec 8823      		tst r24
 3208 14ee 01F4      		brne .L110
 3209               	.L108:
 446:lp_solve_5.5/lp_MPS.c ****   }
 447:lp_solve_5.5/lp_MPS.c **** 
 448:lp_solve_5.5/lp_MPS.c ****   return(items);
 3210               		.loc 1 448 0 is_stmt 1
 3211 14f0 8981      		ldd r24,Y+1
 3212 14f2 9A81      		ldd r25,Y+2
 3213               	.L111:
 3214               	/* epilogue start */
 449:lp_solve_5.5/lp_MPS.c **** }
 3215               		.loc 1 449 0 discriminator 3
 3216 14f4 CE5D      		subi r28,-34
 3217 14f6 DE4F      		sbci r29,-2
 3218 14f8 0FB6      		in __tmp_reg__,__SREG__
 3219 14fa F894      		cli
 3220 14fc DEBF      		out __SP_H__,r29
 3221 14fe 0FBE      		out __SREG__,__tmp_reg__
 3222 1500 CDBF      		out __SP_L__,r28
 3223 1502 DF91      		pop r29
 3224 1504 CF91      		pop r28
 3225 1506 1F91      		pop r17
 3226 1508 0F91      		pop r16
 3227 150a FF90      		pop r15
 3228 150c EF90      		pop r14
 3229 150e DF90      		pop r13
 3230 1510 CF90      		pop r12
 3231 1512 BF90      		pop r11
 3232 1514 AF90      		pop r10
 3233 1516 9F90      		pop r9
 3234 1518 8F90      		pop r8
 3235 151a 0895      		ret
 3236               		.cfi_endproc
 3237               	.LFE11:
 3239               	.global	addmpscolumn
 3241               	addmpscolumn:
 3242               	.LFB12:
 450:lp_solve_5.5/lp_MPS.c **** 
 451:lp_solve_5.5/lp_MPS.c **** STATIC int addmpscolumn(lprec *lp, MYBOOL Int_section, int typeMPS, MYBOOL *Column_ready,
 452:lp_solve_5.5/lp_MPS.c ****                         int *count, REAL *Last_column, int *Last_columnno, char *Last_col_name)
 453:lp_solve_5.5/lp_MPS.c **** {
 3243               		.loc 1 453 0
 3244               		.cfi_startproc
 3245 151c AF92      		push r10
 3246               	.LCFI40:
 3247               		.cfi_def_cfa_offset 3
 3248               		.cfi_offset 10, -2
 3249 151e BF92      		push r11
 3250               	.LCFI41:
 3251               		.cfi_def_cfa_offset 4
 3252               		.cfi_offset 11, -3
 3253 1520 CF92      		push r12
 3254               	.LCFI42:
 3255               		.cfi_def_cfa_offset 5
 3256               		.cfi_offset 12, -4
 3257 1522 DF92      		push r13
 3258               	.LCFI43:
 3259               		.cfi_def_cfa_offset 6
 3260               		.cfi_offset 13, -5
 3261 1524 EF92      		push r14
 3262               	.LCFI44:
 3263               		.cfi_def_cfa_offset 7
 3264               		.cfi_offset 14, -6
 3265 1526 FF92      		push r15
 3266               	.LCFI45:
 3267               		.cfi_def_cfa_offset 8
 3268               		.cfi_offset 15, -7
 3269 1528 0F93      		push r16
 3270               	.LCFI46:
 3271               		.cfi_def_cfa_offset 9
 3272               		.cfi_offset 16, -8
 3273 152a 1F93      		push r17
 3274               	.LCFI47:
 3275               		.cfi_def_cfa_offset 10
 3276               		.cfi_offset 17, -9
 3277 152c CF93      		push r28
 3278               	.LCFI48:
 3279               		.cfi_def_cfa_offset 11
 3280               		.cfi_offset 28, -10
 3281 152e DF93      		push r29
 3282               	.LCFI49:
 3283               		.cfi_def_cfa_offset 12
 3284               		.cfi_offset 29, -11
 3285 1530 CDB7      		in r28,__SP_L__
 3286 1532 DEB7      		in r29,__SP_H__
 3287               	.LCFI50:
 3288               		.cfi_def_cfa_register 28
 3289 1534 6197      		sbiw r28,17
 3290               	.LCFI51:
 3291               		.cfi_def_cfa_offset 29
 3292 1536 0FB6      		in __tmp_reg__,__SREG__
 3293 1538 F894      		cli
 3294 153a DEBF      		out __SP_H__,r29
 3295 153c 0FBE      		out __SREG__,__tmp_reg__
 3296 153e CDBF      		out __SP_L__,r28
 3297               	/* prologue: function */
 3298               	/* frame size = 17 */
 3299               	/* stack size = 27 */
 3300               	.L__stack_usage = 27
 3301 1540 9C83      		std Y+4,r25
 3302 1542 8B83      		std Y+3,r24
 3303 1544 6D83      		std Y+5,r22
 3304 1546 5F83      		std Y+7,r21
 3305 1548 4E83      		std Y+6,r20
 3306 154a 3987      		std Y+9,r19
 3307 154c 2887      		std Y+8,r18
 3308 154e 1B87      		std Y+11,r17
 3309 1550 0A87      		std Y+10,r16
 3310 1552 FD86      		std Y+13,r15
 3311 1554 EC86      		std Y+12,r14
 3312 1556 DF86      		std Y+15,r13
 3313 1558 CE86      		std Y+14,r12
 3314 155a B98A      		std Y+17,r11
 3315 155c A88A      		std Y+16,r10
 454:lp_solve_5.5/lp_MPS.c ****   int ok = TRUE;
 3316               		.loc 1 454 0
 3317 155e 81E0      		ldi r24,lo8(1)
 3318 1560 90E0      		ldi r25,0
 3319 1562 9A83      		std Y+2,r25
 3320 1564 8983      		std Y+1,r24
 455:lp_solve_5.5/lp_MPS.c **** 
 456:lp_solve_5.5/lp_MPS.c ****   if (*Column_ready) {
 3321               		.loc 1 456 0
 3322 1566 8885      		ldd r24,Y+8
 3323 1568 9985      		ldd r25,Y+9
 3324 156a FC01      		movw r30,r24
 3325 156c 8081      		ld r24,Z
 3326 156e 8823      		tst r24
 3327 1570 01F4      		brne .+2
 3328 1572 00C0      		rjmp .L118
 457:lp_solve_5.5/lp_MPS.c ****     ok = add_columnex(lp, *count, Last_column, Last_columnno);
 3329               		.loc 1 457 0
 3330 1574 8A85      		ldd r24,Y+10
 3331 1576 9B85      		ldd r25,Y+11
 3332 1578 FC01      		movw r30,r24
 3333 157a 6081      		ld r22,Z
 3334 157c 7181      		ldd r23,Z+1
 3335 157e 2E85      		ldd r18,Y+14
 3336 1580 3F85      		ldd r19,Y+15
 3337 1582 4C85      		ldd r20,Y+12
 3338 1584 5D85      		ldd r21,Y+13
 3339 1586 8B81      		ldd r24,Y+3
 3340 1588 9C81      		ldd r25,Y+4
 3341 158a 0E94 0000 		call add_columnex
 3342 158e 882F      		mov r24,r24
 3343 1590 90E0      		ldi r25,0
 3344 1592 9A83      		std Y+2,r25
 3345 1594 8983      		std Y+1,r24
 458:lp_solve_5.5/lp_MPS.c ****     if (ok) {
 3346               		.loc 1 458 0
 3347 1596 8981      		ldd r24,Y+1
 3348 1598 9A81      		ldd r25,Y+2
 3349 159a 892B      		or r24,r25
 3350 159c 01F0      		breq .L119
 459:lp_solve_5.5/lp_MPS.c ****       ok = set_col_name(lp, lp->columns, Last_col_name);
 3351               		.loc 1 459 0
 3352 159e 8B81      		ldd r24,Y+3
 3353 15a0 9C81      		ldd r25,Y+4
 3354 15a2 8451      		subi r24,20
 3355 15a4 9E4F      		sbci r25,-2
 3356 15a6 FC01      		movw r30,r24
 3357 15a8 2081      		ld r18,Z
 3358 15aa 3181      		ldd r19,Z+1
 3359 15ac 4889      		ldd r20,Y+16
 3360 15ae 5989      		ldd r21,Y+17
 3361 15b0 8B81      		ldd r24,Y+3
 3362 15b2 9C81      		ldd r25,Y+4
 3363 15b4 B901      		movw r22,r18
 3364 15b6 0E94 0000 		call set_col_name
 3365 15ba 882F      		mov r24,r24
 3366 15bc 90E0      		ldi r25,0
 3367 15be 9A83      		std Y+2,r25
 3368 15c0 8983      		std Y+1,r24
 3369               	.L119:
 460:lp_solve_5.5/lp_MPS.c ****     }
 461:lp_solve_5.5/lp_MPS.c ****     if (ok) {
 3370               		.loc 1 461 0
 3371 15c2 8981      		ldd r24,Y+1
 3372 15c4 9A81      		ldd r25,Y+2
 3373 15c6 892B      		or r24,r25
 3374 15c8 01F0      		breq .L118
 462:lp_solve_5.5/lp_MPS.c ****       set_int(lp, lp->columns, Int_section);
 3375               		.loc 1 462 0
 3376 15ca 8B81      		ldd r24,Y+3
 3377 15cc 9C81      		ldd r25,Y+4
 3378 15ce 8451      		subi r24,20
 3379 15d0 9E4F      		sbci r25,-2
 3380 15d2 FC01      		movw r30,r24
 3381 15d4 2081      		ld r18,Z
 3382 15d6 3181      		ldd r19,Z+1
 3383 15d8 8B81      		ldd r24,Y+3
 3384 15da 9C81      		ldd r25,Y+4
 3385 15dc 4D81      		ldd r20,Y+5
 3386 15de B901      		movw r22,r18
 3387 15e0 0E94 0000 		call set_int
 463:lp_solve_5.5/lp_MPS.c ****       if ((Int_section) && (typeMPS & MPSIBM))
 3388               		.loc 1 463 0
 3389 15e4 8D81      		ldd r24,Y+5
 3390 15e6 8823      		tst r24
 3391 15e8 01F0      		breq .L118
 3392               		.loc 1 463 0 is_stmt 0 discriminator 1
 3393 15ea 8E81      		ldd r24,Y+6
 3394 15ec 9F81      		ldd r25,Y+7
 3395 15ee 8470      		andi r24,4
 3396 15f0 9927      		clr r25
 3397 15f2 892B      		or r24,r25
 3398 15f4 01F0      		breq .L118
 464:lp_solve_5.5/lp_MPS.c ****         set_bounds(lp, lp->columns, 10.0 / DEF_INFINITE, DEF_INFINITE / 10.0);
 3399               		.loc 1 464 0 is_stmt 1
 3400 15f6 8B81      		ldd r24,Y+3
 3401 15f8 9C81      		ldd r25,Y+4
 3402 15fa 8451      		subi r24,20
 3403 15fc 9E4F      		sbci r25,-2
 3404 15fe FC01      		movw r30,r24
 3405 1600 6081      		ld r22,Z
 3406 1602 7181      		ldd r23,Z+1
 3407 1604 8B81      		ldd r24,Y+3
 3408 1606 9C81      		ldd r25,Y+4
 3409 1608 18E0      		ldi r17,lo8(8)
 3410 160a E12E      		mov r14,r17
 3411 160c 1FE8      		ldi r17,lo8(-113)
 3412 160e F12E      		mov r15,r17
 3413 1610 01EA      		ldi r16,lo8(-95)
 3414 1612 1FE6      		ldi r17,lo8(111)
 3415 1614 28EF      		ldi r18,lo8(-8)
 3416 1616 32ED      		ldi r19,lo8(-46)
 3417 1618 4AE4      		ldi r20,lo8(74)
 3418 161a 5FE0      		ldi r21,lo8(15)
 3419 161c 0E94 0000 		call set_bounds
 3420               	.L118:
 465:lp_solve_5.5/lp_MPS.c ****     }
 466:lp_solve_5.5/lp_MPS.c ****   }
 467:lp_solve_5.5/lp_MPS.c ****   *Column_ready = FALSE;
 3421               		.loc 1 467 0
 3422 1620 8885      		ldd r24,Y+8
 3423 1622 9985      		ldd r25,Y+9
 3424 1624 FC01      		movw r30,r24
 3425 1626 1082      		st Z,__zero_reg__
 468:lp_solve_5.5/lp_MPS.c ****   *count = 0;
 3426               		.loc 1 468 0
 3427 1628 8A85      		ldd r24,Y+10
 3428 162a 9B85      		ldd r25,Y+11
 3429 162c FC01      		movw r30,r24
 3430 162e 1182      		std Z+1,__zero_reg__
 3431 1630 1082      		st Z,__zero_reg__
 469:lp_solve_5.5/lp_MPS.c ****   return(ok);
 3432               		.loc 1 469 0
 3433 1632 8981      		ldd r24,Y+1
 3434 1634 9A81      		ldd r25,Y+2
 3435               	/* epilogue start */
 470:lp_solve_5.5/lp_MPS.c **** }
 3436               		.loc 1 470 0
 3437 1636 6196      		adiw r28,17
 3438 1638 0FB6      		in __tmp_reg__,__SREG__
 3439 163a F894      		cli
 3440 163c DEBF      		out __SP_H__,r29
 3441 163e 0FBE      		out __SREG__,__tmp_reg__
 3442 1640 CDBF      		out __SP_L__,r28
 3443 1642 DF91      		pop r29
 3444 1644 CF91      		pop r28
 3445 1646 1F91      		pop r17
 3446 1648 0F91      		pop r16
 3447 164a FF90      		pop r15
 3448 164c EF90      		pop r14
 3449 164e DF90      		pop r13
 3450 1650 CF90      		pop r12
 3451 1652 BF90      		pop r11
 3452 1654 AF90      		pop r10
 3453 1656 0895      		ret
 3454               		.cfi_endproc
 3455               	.LFE12:
 3457               	.global	__addsf3
 3458               	.global	appendmpsitem
 3460               	appendmpsitem:
 3461               	.LFB13:
 471:lp_solve_5.5/lp_MPS.c **** 
 472:lp_solve_5.5/lp_MPS.c **** #if 0
 473:lp_solve_5.5/lp_MPS.c **** STATIC MYBOOL appendmpsitem(int *count, int rowIndex[], REAL rowValue[])
 474:lp_solve_5.5/lp_MPS.c **** {
 475:lp_solve_5.5/lp_MPS.c ****   int i = *count;
 476:lp_solve_5.5/lp_MPS.c **** 
 477:lp_solve_5.5/lp_MPS.c ****   if(rowValue[i] == 0)
 478:lp_solve_5.5/lp_MPS.c ****     return( FALSE );
 479:lp_solve_5.5/lp_MPS.c **** 
 480:lp_solve_5.5/lp_MPS.c ****   while((i > 0) && (rowIndex[i] < rowIndex[i-1])) {
 481:lp_solve_5.5/lp_MPS.c ****     swapINT (rowIndex+i, rowIndex+i-1);
 482:lp_solve_5.5/lp_MPS.c ****     swapREAL(rowValue+i, rowValue+i-1);
 483:lp_solve_5.5/lp_MPS.c ****     i--;
 484:lp_solve_5.5/lp_MPS.c ****   }
 485:lp_solve_5.5/lp_MPS.c ****   (*count)++;
 486:lp_solve_5.5/lp_MPS.c ****   return( TRUE );
 487:lp_solve_5.5/lp_MPS.c **** }
 488:lp_solve_5.5/lp_MPS.c **** #endif
 489:lp_solve_5.5/lp_MPS.c **** 
 490:lp_solve_5.5/lp_MPS.c **** STATIC MYBOOL appendmpsitem(int *count, int rowIndex[], REAL rowValue[])
 491:lp_solve_5.5/lp_MPS.c **** {
 3462               		.loc 1 491 0
 3463               		.cfi_startproc
 3464 1658 0F93      		push r16
 3465               	.LCFI52:
 3466               		.cfi_def_cfa_offset 3
 3467               		.cfi_offset 16, -2
 3468 165a 1F93      		push r17
 3469               	.LCFI53:
 3470               		.cfi_def_cfa_offset 4
 3471               		.cfi_offset 17, -3
 3472 165c CF93      		push r28
 3473               	.LCFI54:
 3474               		.cfi_def_cfa_offset 5
 3475               		.cfi_offset 28, -4
 3476 165e DF93      		push r29
 3477               	.LCFI55:
 3478               		.cfi_def_cfa_offset 6
 3479               		.cfi_offset 29, -5
 3480 1660 CDB7      		in r28,__SP_L__
 3481 1662 DEB7      		in r29,__SP_H__
 3482               	.LCFI56:
 3483               		.cfi_def_cfa_register 28
 3484 1664 2A97      		sbiw r28,10
 3485               	.LCFI57:
 3486               		.cfi_def_cfa_offset 16
 3487 1666 0FB6      		in __tmp_reg__,__SREG__
 3488 1668 F894      		cli
 3489 166a DEBF      		out __SP_H__,r29
 3490 166c 0FBE      		out __SREG__,__tmp_reg__
 3491 166e CDBF      		out __SP_L__,r28
 3492               	/* prologue: function */
 3493               	/* frame size = 10 */
 3494               	/* stack size = 14 */
 3495               	.L__stack_usage = 14
 3496 1670 9E83      		std Y+6,r25
 3497 1672 8D83      		std Y+5,r24
 3498 1674 7887      		std Y+8,r23
 3499 1676 6F83      		std Y+7,r22
 3500 1678 5A87      		std Y+10,r21
 3501 167a 4987      		std Y+9,r20
 492:lp_solve_5.5/lp_MPS.c ****   int i = *count;
 3502               		.loc 1 492 0
 3503 167c 8D81      		ldd r24,Y+5
 3504 167e 9E81      		ldd r25,Y+6
 3505 1680 FC01      		movw r30,r24
 3506 1682 8081      		ld r24,Z
 3507 1684 9181      		ldd r25,Z+1
 3508 1686 9A83      		std Y+2,r25
 3509 1688 8983      		std Y+1,r24
 493:lp_solve_5.5/lp_MPS.c **** 
 494:lp_solve_5.5/lp_MPS.c ****   /* Check for non-negativity of the index */
 495:lp_solve_5.5/lp_MPS.c ****   if(rowIndex[i] < 0)
 3510               		.loc 1 495 0
 3511 168a 8981      		ldd r24,Y+1
 3512 168c 9A81      		ldd r25,Y+2
 3513 168e 880F      		lsl r24
 3514 1690 991F      		rol r25
 3515 1692 2F81      		ldd r18,Y+7
 3516 1694 3885      		ldd r19,Y+8
 3517 1696 820F      		add r24,r18
 3518 1698 931F      		adc r25,r19
 3519 169a FC01      		movw r30,r24
 3520 169c 8081      		ld r24,Z
 3521 169e 9181      		ldd r25,Z+1
 3522 16a0 9923      		tst r25
 3523 16a2 04F4      		brge .L124
 496:lp_solve_5.5/lp_MPS.c ****     return( FALSE );
 3524               		.loc 1 496 0
 3525 16a4 80E0      		ldi r24,0
 3526 16a6 00C0      		rjmp .L123
 3527               	.L126:
 497:lp_solve_5.5/lp_MPS.c **** 
 498:lp_solve_5.5/lp_MPS.c ****   /* Move the element so that the index list is sorted ascending */
 499:lp_solve_5.5/lp_MPS.c ****   while((i > 0) && (rowIndex[i] < rowIndex[i-1])) {
 500:lp_solve_5.5/lp_MPS.c ****     swapINT (rowIndex+i, rowIndex+i-1);
 3528               		.loc 1 500 0
 3529 16a8 8981      		ldd r24,Y+1
 3530 16aa 9A81      		ldd r25,Y+2
 3531 16ac 8150      		subi r24,1
 3532 16ae 9048      		sbci r25,-128
 3533 16b0 880F      		lsl r24
 3534 16b2 991F      		rol r25
 3535 16b4 2F81      		ldd r18,Y+7
 3536 16b6 3885      		ldd r19,Y+8
 3537 16b8 A901      		movw r20,r18
 3538 16ba 480F      		add r20,r24
 3539 16bc 591F      		adc r21,r25
 3540 16be 8981      		ldd r24,Y+1
 3541 16c0 9A81      		ldd r25,Y+2
 3542 16c2 880F      		lsl r24
 3543 16c4 991F      		rol r25
 3544 16c6 2F81      		ldd r18,Y+7
 3545 16c8 3885      		ldd r19,Y+8
 3546 16ca 820F      		add r24,r18
 3547 16cc 931F      		adc r25,r19
 3548 16ce BA01      		movw r22,r20
 3549 16d0 0E94 0000 		call swapINT
 501:lp_solve_5.5/lp_MPS.c ****     swapREAL(rowValue+i, rowValue+i-1);
 3550               		.loc 1 501 0
 3551 16d4 8981      		ldd r24,Y+1
 3552 16d6 9A81      		ldd r25,Y+2
 3553 16d8 8150      		subi r24,1
 3554 16da 904C      		sbci r25,-64
 3555 16dc 880F      		lsl r24
 3556 16de 991F      		rol r25
 3557 16e0 880F      		lsl r24
 3558 16e2 991F      		rol r25
 3559 16e4 2985      		ldd r18,Y+9
 3560 16e6 3A85      		ldd r19,Y+10
 3561 16e8 A901      		movw r20,r18
 3562 16ea 480F      		add r20,r24
 3563 16ec 591F      		adc r21,r25
 3564 16ee 8981      		ldd r24,Y+1
 3565 16f0 9A81      		ldd r25,Y+2
 3566 16f2 880F      		lsl r24
 3567 16f4 991F      		rol r25
 3568 16f6 880F      		lsl r24
 3569 16f8 991F      		rol r25
 3570 16fa 2985      		ldd r18,Y+9
 3571 16fc 3A85      		ldd r19,Y+10
 3572 16fe 820F      		add r24,r18
 3573 1700 931F      		adc r25,r19
 3574 1702 BA01      		movw r22,r20
 3575 1704 0E94 0000 		call swapREAL
 502:lp_solve_5.5/lp_MPS.c ****     i--;
 3576               		.loc 1 502 0
 3577 1708 8981      		ldd r24,Y+1
 3578 170a 9A81      		ldd r25,Y+2
 3579 170c 0197      		sbiw r24,1
 3580 170e 9A83      		std Y+2,r25
 3581 1710 8983      		std Y+1,r24
 3582               	.L124:
 499:lp_solve_5.5/lp_MPS.c ****     swapINT (rowIndex+i, rowIndex+i-1);
 3583               		.loc 1 499 0
 3584 1712 8981      		ldd r24,Y+1
 3585 1714 9A81      		ldd r25,Y+2
 3586 1716 1816      		cp __zero_reg__,r24
 3587 1718 1906      		cpc __zero_reg__,r25
 3588 171a 04F4      		brge .L125
 499:lp_solve_5.5/lp_MPS.c ****     swapINT (rowIndex+i, rowIndex+i-1);
 3589               		.loc 1 499 0 is_stmt 0 discriminator 1
 3590 171c 8981      		ldd r24,Y+1
 3591 171e 9A81      		ldd r25,Y+2
 3592 1720 880F      		lsl r24
 3593 1722 991F      		rol r25
 3594 1724 2F81      		ldd r18,Y+7
 3595 1726 3885      		ldd r19,Y+8
 3596 1728 820F      		add r24,r18
 3597 172a 931F      		adc r25,r19
 3598 172c FC01      		movw r30,r24
 3599 172e 2081      		ld r18,Z
 3600 1730 3181      		ldd r19,Z+1
 3601 1732 8981      		ldd r24,Y+1
 3602 1734 9A81      		ldd r25,Y+2
 3603 1736 8150      		subi r24,1
 3604 1738 9048      		sbci r25,-128
 3605 173a 880F      		lsl r24
 3606 173c 991F      		rol r25
 3607 173e 4F81      		ldd r20,Y+7
 3608 1740 5885      		ldd r21,Y+8
 3609 1742 840F      		add r24,r20
 3610 1744 951F      		adc r25,r21
 3611 1746 FC01      		movw r30,r24
 3612 1748 8081      		ld r24,Z
 3613 174a 9181      		ldd r25,Z+1
 3614 174c 2817      		cp r18,r24
 3615 174e 3907      		cpc r19,r25
 3616 1750 04F4      		brge .+2
 3617 1752 00C0      		rjmp .L126
 3618               	.L125:
 503:lp_solve_5.5/lp_MPS.c ****   }
 504:lp_solve_5.5/lp_MPS.c **** 
 505:lp_solve_5.5/lp_MPS.c ****   /* Add same-indexed items (which is rarely encountered), and shorten the list */
 506:lp_solve_5.5/lp_MPS.c ****   if((i < *count) && (rowIndex[i] == rowIndex[i+1])) {
 3619               		.loc 1 506 0 is_stmt 1
 3620 1754 8D81      		ldd r24,Y+5
 3621 1756 9E81      		ldd r25,Y+6
 3622 1758 FC01      		movw r30,r24
 3623 175a 2081      		ld r18,Z
 3624 175c 3181      		ldd r19,Z+1
 3625 175e 8981      		ldd r24,Y+1
 3626 1760 9A81      		ldd r25,Y+2
 3627 1762 8217      		cp r24,r18
 3628 1764 9307      		cpc r25,r19
 3629 1766 04F0      		brlt .+2
 3630 1768 00C0      		rjmp .L127
 3631               		.loc 1 506 0 is_stmt 0 discriminator 1
 3632 176a 8981      		ldd r24,Y+1
 3633 176c 9A81      		ldd r25,Y+2
 3634 176e 880F      		lsl r24
 3635 1770 991F      		rol r25
 3636 1772 2F81      		ldd r18,Y+7
 3637 1774 3885      		ldd r19,Y+8
 3638 1776 820F      		add r24,r18
 3639 1778 931F      		adc r25,r19
 3640 177a FC01      		movw r30,r24
 3641 177c 2081      		ld r18,Z
 3642 177e 3181      		ldd r19,Z+1
 3643 1780 8981      		ldd r24,Y+1
 3644 1782 9A81      		ldd r25,Y+2
 3645 1784 0196      		adiw r24,1
 3646 1786 880F      		lsl r24
 3647 1788 991F      		rol r25
 3648 178a 4F81      		ldd r20,Y+7
 3649 178c 5885      		ldd r21,Y+8
 3650 178e 840F      		add r24,r20
 3651 1790 951F      		adc r25,r21
 3652 1792 FC01      		movw r30,r24
 3653 1794 8081      		ld r24,Z
 3654 1796 9181      		ldd r25,Z+1
 3655 1798 2817      		cp r18,r24
 3656 179a 3907      		cpc r19,r25
 3657 179c 01F0      		breq .+2
 3658 179e 00C0      		rjmp .L127
 3659               	.LBB3:
 507:lp_solve_5.5/lp_MPS.c ****     int ii = i + 1;
 3660               		.loc 1 507 0 is_stmt 1
 3661 17a0 8981      		ldd r24,Y+1
 3662 17a2 9A81      		ldd r25,Y+2
 3663 17a4 0196      		adiw r24,1
 3664 17a6 9C83      		std Y+4,r25
 3665 17a8 8B83      		std Y+3,r24
 508:lp_solve_5.5/lp_MPS.c ****     rowValue[i] += rowValue[ii];
 3666               		.loc 1 508 0
 3667 17aa 8981      		ldd r24,Y+1
 3668 17ac 9A81      		ldd r25,Y+2
 3669 17ae 880F      		lsl r24
 3670 17b0 991F      		rol r25
 3671 17b2 880F      		lsl r24
 3672 17b4 991F      		rol r25
 3673 17b6 2985      		ldd r18,Y+9
 3674 17b8 3A85      		ldd r19,Y+10
 3675 17ba 8901      		movw r16,r18
 3676 17bc 080F      		add r16,r24
 3677 17be 191F      		adc r17,r25
 3678 17c0 8981      		ldd r24,Y+1
 3679 17c2 9A81      		ldd r25,Y+2
 3680 17c4 880F      		lsl r24
 3681 17c6 991F      		rol r25
 3682 17c8 880F      		lsl r24
 3683 17ca 991F      		rol r25
 3684 17cc 2985      		ldd r18,Y+9
 3685 17ce 3A85      		ldd r19,Y+10
 3686 17d0 820F      		add r24,r18
 3687 17d2 931F      		adc r25,r19
 3688 17d4 FC01      		movw r30,r24
 3689 17d6 8081      		ld r24,Z
 3690 17d8 9181      		ldd r25,Z+1
 3691 17da A281      		ldd r26,Z+2
 3692 17dc B381      		ldd r27,Z+3
 3693 17de 2B81      		ldd r18,Y+3
 3694 17e0 3C81      		ldd r19,Y+4
 3695 17e2 220F      		lsl r18
 3696 17e4 331F      		rol r19
 3697 17e6 220F      		lsl r18
 3698 17e8 331F      		rol r19
 3699 17ea 4985      		ldd r20,Y+9
 3700 17ec 5A85      		ldd r21,Y+10
 3701 17ee 240F      		add r18,r20
 3702 17f0 351F      		adc r19,r21
 3703 17f2 F901      		movw r30,r18
 3704 17f4 2081      		ld r18,Z
 3705 17f6 3181      		ldd r19,Z+1
 3706 17f8 4281      		ldd r20,Z+2
 3707 17fa 5381      		ldd r21,Z+3
 3708 17fc BC01      		movw r22,r24
 3709 17fe CD01      		movw r24,r26
 3710 1800 0E94 0000 		call __addsf3
 3711 1804 DC01      		movw r26,r24
 3712 1806 CB01      		movw r24,r22
 3713 1808 F801      		movw r30,r16
 3714 180a 8083      		st Z,r24
 3715 180c 9183      		std Z+1,r25
 3716 180e A283      		std Z+2,r26
 3717 1810 B383      		std Z+3,r27
 509:lp_solve_5.5/lp_MPS.c ****     (*count)--;
 3718               		.loc 1 509 0
 3719 1812 8D81      		ldd r24,Y+5
 3720 1814 9E81      		ldd r25,Y+6
 3721 1816 FC01      		movw r30,r24
 3722 1818 8081      		ld r24,Z
 3723 181a 9181      		ldd r25,Z+1
 3724 181c 9C01      		movw r18,r24
 3725 181e 2150      		subi r18,1
 3726 1820 3109      		sbc r19,__zero_reg__
 3727 1822 8D81      		ldd r24,Y+5
 3728 1824 9E81      		ldd r25,Y+6
 3729 1826 FC01      		movw r30,r24
 3730 1828 3183      		std Z+1,r19
 3731 182a 2083      		st Z,r18
 510:lp_solve_5.5/lp_MPS.c ****     while(ii < *count) {
 3732               		.loc 1 510 0
 3733 182c 00C0      		rjmp .L128
 3734               	.L129:
 511:lp_solve_5.5/lp_MPS.c ****       rowIndex[ii] = rowIndex[ii+1];
 3735               		.loc 1 511 0
 3736 182e 8B81      		ldd r24,Y+3
 3737 1830 9C81      		ldd r25,Y+4
 3738 1832 880F      		lsl r24
 3739 1834 991F      		rol r25
 3740 1836 2F81      		ldd r18,Y+7
 3741 1838 3885      		ldd r19,Y+8
 3742 183a 820F      		add r24,r18
 3743 183c 931F      		adc r25,r19
 3744 183e 2B81      		ldd r18,Y+3
 3745 1840 3C81      		ldd r19,Y+4
 3746 1842 2F5F      		subi r18,-1
 3747 1844 3F4F      		sbci r19,-1
 3748 1846 220F      		lsl r18
 3749 1848 331F      		rol r19
 3750 184a 4F81      		ldd r20,Y+7
 3751 184c 5885      		ldd r21,Y+8
 3752 184e 240F      		add r18,r20
 3753 1850 351F      		adc r19,r21
 3754 1852 F901      		movw r30,r18
 3755 1854 2081      		ld r18,Z
 3756 1856 3181      		ldd r19,Z+1
 3757 1858 FC01      		movw r30,r24
 3758 185a 3183      		std Z+1,r19
 3759 185c 2083      		st Z,r18
 512:lp_solve_5.5/lp_MPS.c ****       rowValue[ii] = rowValue[ii+1];
 3760               		.loc 1 512 0
 3761 185e 8B81      		ldd r24,Y+3
 3762 1860 9C81      		ldd r25,Y+4
 3763 1862 880F      		lsl r24
 3764 1864 991F      		rol r25
 3765 1866 880F      		lsl r24
 3766 1868 991F      		rol r25
 3767 186a 2985      		ldd r18,Y+9
 3768 186c 3A85      		ldd r19,Y+10
 3769 186e 280F      		add r18,r24
 3770 1870 391F      		adc r19,r25
 3771 1872 8B81      		ldd r24,Y+3
 3772 1874 9C81      		ldd r25,Y+4
 3773 1876 0196      		adiw r24,1
 3774 1878 880F      		lsl r24
 3775 187a 991F      		rol r25
 3776 187c 880F      		lsl r24
 3777 187e 991F      		rol r25
 3778 1880 4985      		ldd r20,Y+9
 3779 1882 5A85      		ldd r21,Y+10
 3780 1884 840F      		add r24,r20
 3781 1886 951F      		adc r25,r21
 3782 1888 FC01      		movw r30,r24
 3783 188a 8081      		ld r24,Z
 3784 188c 9181      		ldd r25,Z+1
 3785 188e A281      		ldd r26,Z+2
 3786 1890 B381      		ldd r27,Z+3
 3787 1892 F901      		movw r30,r18
 3788 1894 8083      		st Z,r24
 3789 1896 9183      		std Z+1,r25
 3790 1898 A283      		std Z+2,r26
 3791 189a B383      		std Z+3,r27
 513:lp_solve_5.5/lp_MPS.c ****       ii++;
 3792               		.loc 1 513 0
 3793 189c 8B81      		ldd r24,Y+3
 3794 189e 9C81      		ldd r25,Y+4
 3795 18a0 0196      		adiw r24,1
 3796 18a2 9C83      		std Y+4,r25
 3797 18a4 8B83      		std Y+3,r24
 3798               	.L128:
 510:lp_solve_5.5/lp_MPS.c ****       rowIndex[ii] = rowIndex[ii+1];
 3799               		.loc 1 510 0
 3800 18a6 8D81      		ldd r24,Y+5
 3801 18a8 9E81      		ldd r25,Y+6
 3802 18aa FC01      		movw r30,r24
 3803 18ac 2081      		ld r18,Z
 3804 18ae 3181      		ldd r19,Z+1
 3805 18b0 8B81      		ldd r24,Y+3
 3806 18b2 9C81      		ldd r25,Y+4
 3807 18b4 8217      		cp r24,r18
 3808 18b6 9307      		cpc r25,r19
 3809 18b8 04F4      		brge .+2
 3810 18ba 00C0      		rjmp .L129
 3811               	.L127:
 3812               	.LBE3:
 514:lp_solve_5.5/lp_MPS.c ****     }
 515:lp_solve_5.5/lp_MPS.c ****   }
 516:lp_solve_5.5/lp_MPS.c **** 
 517:lp_solve_5.5/lp_MPS.c ****   /* Update the count and return */
 518:lp_solve_5.5/lp_MPS.c ****   (*count)++;
 3813               		.loc 1 518 0
 3814 18bc 8D81      		ldd r24,Y+5
 3815 18be 9E81      		ldd r25,Y+6
 3816 18c0 FC01      		movw r30,r24
 3817 18c2 8081      		ld r24,Z
 3818 18c4 9181      		ldd r25,Z+1
 3819 18c6 9C01      		movw r18,r24
 3820 18c8 2F5F      		subi r18,-1
 3821 18ca 3F4F      		sbci r19,-1
 3822 18cc 8D81      		ldd r24,Y+5
 3823 18ce 9E81      		ldd r25,Y+6
 3824 18d0 FC01      		movw r30,r24
 3825 18d2 3183      		std Z+1,r19
 3826 18d4 2083      		st Z,r18
 519:lp_solve_5.5/lp_MPS.c ****   return( TRUE );
 3827               		.loc 1 519 0
 3828 18d6 81E0      		ldi r24,lo8(1)
 3829               	.L123:
 3830               	/* epilogue start */
 520:lp_solve_5.5/lp_MPS.c **** }
 3831               		.loc 1 520 0
 3832 18d8 2A96      		adiw r28,10
 3833 18da 0FB6      		in __tmp_reg__,__SREG__
 3834 18dc F894      		cli
 3835 18de DEBF      		out __SP_H__,r29
 3836 18e0 0FBE      		out __SREG__,__tmp_reg__
 3837 18e2 CDBF      		out __SP_L__,r28
 3838 18e4 DF91      		pop r29
 3839 18e6 CF91      		pop r28
 3840 18e8 1F91      		pop r17
 3841 18ea 0F91      		pop r16
 3842 18ec 0895      		ret
 3843               		.cfi_endproc
 3844               	.LFE13:
 3846               		.section	.rodata
 3847               	.LC13:
 3848 01a9 7200      		.string	"r"
 3849               		.text
 3850               	.global	MPS_readfile
 3852               	MPS_readfile:
 3853               	.LFB14:
 521:lp_solve_5.5/lp_MPS.c **** 
 522:lp_solve_5.5/lp_MPS.c **** MYBOOL MPS_readfile(lprec **newlp, char *filename, int typeMPS, int verbose)
 523:lp_solve_5.5/lp_MPS.c **** {
 3854               		.loc 1 523 0
 3855               		.cfi_startproc
 3856 18ee CF93      		push r28
 3857               	.LCFI58:
 3858               		.cfi_def_cfa_offset 3
 3859               		.cfi_offset 28, -2
 3860 18f0 DF93      		push r29
 3861               	.LCFI59:
 3862               		.cfi_def_cfa_offset 4
 3863               		.cfi_offset 29, -3
 3864 18f2 CDB7      		in r28,__SP_L__
 3865 18f4 DEB7      		in r29,__SP_H__
 3866               	.LCFI60:
 3867               		.cfi_def_cfa_register 28
 3868 18f6 2B97      		sbiw r28,11
 3869               	.LCFI61:
 3870               		.cfi_def_cfa_offset 15
 3871 18f8 0FB6      		in __tmp_reg__,__SREG__
 3872 18fa F894      		cli
 3873 18fc DEBF      		out __SP_H__,r29
 3874 18fe 0FBE      		out __SREG__,__tmp_reg__
 3875 1900 CDBF      		out __SP_L__,r28
 3876               	/* prologue: function */
 3877               	/* frame size = 11 */
 3878               	/* stack size = 13 */
 3879               	.L__stack_usage = 13
 3880 1902 9D83      		std Y+5,r25
 3881 1904 8C83      		std Y+4,r24
 3882 1906 7F83      		std Y+7,r23
 3883 1908 6E83      		std Y+6,r22
 3884 190a 5987      		std Y+9,r21
 3885 190c 4887      		std Y+8,r20
 3886 190e 3B87      		std Y+11,r19
 3887 1910 2A87      		std Y+10,r18
 524:lp_solve_5.5/lp_MPS.c ****   MYBOOL status = FALSE;
 3888               		.loc 1 524 0
 3889 1912 1982      		std Y+1,__zero_reg__
 525:lp_solve_5.5/lp_MPS.c ****   FILE   *fpin;
 526:lp_solve_5.5/lp_MPS.c **** 
 527:lp_solve_5.5/lp_MPS.c ****   fpin = fopen(filename, "r");
 3890               		.loc 1 527 0
 3891 1914 8E81      		ldd r24,Y+6
 3892 1916 9F81      		ldd r25,Y+7
 3893 1918 60E0      		ldi r22,lo8(.LC13)
 3894 191a 70E0      		ldi r23,hi8(.LC13)
 3895 191c 0E94 0000 		call fopen
 3896 1920 9B83      		std Y+3,r25
 3897 1922 8A83      		std Y+2,r24
 528:lp_solve_5.5/lp_MPS.c ****   if(fpin != NULL) {
 3898               		.loc 1 528 0
 3899 1924 8A81      		ldd r24,Y+2
 3900 1926 9B81      		ldd r25,Y+3
 3901 1928 892B      		or r24,r25
 3902 192a 01F0      		breq .L131
 529:lp_solve_5.5/lp_MPS.c ****     status = MPS_readhandle(newlp, fpin, typeMPS, verbose);
 3903               		.loc 1 529 0
 3904 192c 2A85      		ldd r18,Y+10
 3905 192e 3B85      		ldd r19,Y+11
 3906 1930 4885      		ldd r20,Y+8
 3907 1932 5985      		ldd r21,Y+9
 3908 1934 6A81      		ldd r22,Y+2
 3909 1936 7B81      		ldd r23,Y+3
 3910 1938 8C81      		ldd r24,Y+4
 3911 193a 9D81      		ldd r25,Y+5
 3912 193c 0E94 0000 		call MPS_readhandle
 3913 1940 8983      		std Y+1,r24
 530:lp_solve_5.5/lp_MPS.c ****     fclose(fpin);
 3914               		.loc 1 530 0
 3915 1942 8A81      		ldd r24,Y+2
 3916 1944 9B81      		ldd r25,Y+3
 3917 1946 0E94 0000 		call fclose
 3918               	.L131:
 531:lp_solve_5.5/lp_MPS.c ****   }
 532:lp_solve_5.5/lp_MPS.c ****   return( status );
 3919               		.loc 1 532 0
 3920 194a 8981      		ldd r24,Y+1
 3921               	/* epilogue start */
 533:lp_solve_5.5/lp_MPS.c **** }
 3922               		.loc 1 533 0
 3923 194c 2B96      		adiw r28,11
 3924 194e 0FB6      		in __tmp_reg__,__SREG__
 3925 1950 F894      		cli
 3926 1952 DEBF      		out __SP_H__,r29
 3927 1954 0FBE      		out __SREG__,__tmp_reg__
 3928 1956 CDBF      		out __SP_L__,r28
 3929 1958 DF91      		pop r29
 3930 195a CF91      		pop r28
 3931 195c 0895      		ret
 3932               		.cfi_endproc
 3933               	.LFE14:
 3936               	MPS_input:
 3937               	.LFB15:
 534:lp_solve_5.5/lp_MPS.c **** 
 535:lp_solve_5.5/lp_MPS.c **** static int __WINAPI MPS_input(void *fpin, char *buf, int max_size)
 536:lp_solve_5.5/lp_MPS.c **** {
 3938               		.loc 1 536 0
 3939               		.cfi_startproc
 3940 195e CF93      		push r28
 3941               	.LCFI62:
 3942               		.cfi_def_cfa_offset 3
 3943               		.cfi_offset 28, -2
 3944 1960 DF93      		push r29
 3945               	.LCFI63:
 3946               		.cfi_def_cfa_offset 4
 3947               		.cfi_offset 29, -3
 3948 1962 00D0      		rcall .
 3949 1964 00D0      		rcall .
 3950 1966 00D0      		rcall .
 3951               	.LCFI64:
 3952               		.cfi_def_cfa_offset 10
 3953 1968 CDB7      		in r28,__SP_L__
 3954 196a DEB7      		in r29,__SP_H__
 3955               	.LCFI65:
 3956               		.cfi_def_cfa_register 28
 3957               	/* prologue: function */
 3958               	/* frame size = 6 */
 3959               	/* stack size = 8 */
 3960               	.L__stack_usage = 8
 3961 196c 9A83      		std Y+2,r25
 3962 196e 8983      		std Y+1,r24
 3963 1970 7C83      		std Y+4,r23
 3964 1972 6B83      		std Y+3,r22
 3965 1974 5E83      		std Y+6,r21
 3966 1976 4D83      		std Y+5,r20
 537:lp_solve_5.5/lp_MPS.c ****   return(fgets(buf, max_size, (FILE *) fpin) != NULL);
 3967               		.loc 1 537 0
 3968 1978 4981      		ldd r20,Y+1
 3969 197a 5A81      		ldd r21,Y+2
 3970 197c 2D81      		ldd r18,Y+5
 3971 197e 3E81      		ldd r19,Y+6
 3972 1980 8B81      		ldd r24,Y+3
 3973 1982 9C81      		ldd r25,Y+4
 3974 1984 B901      		movw r22,r18
 3975 1986 0E94 0000 		call fgets
 3976 198a 21E0      		ldi r18,lo8(1)
 3977 198c 892B      		or r24,r25
 3978 198e 01F4      		brne .L134
 3979 1990 20E0      		ldi r18,0
 3980               	.L134:
 3981 1992 822F      		mov r24,r18
 3982 1994 90E0      		ldi r25,0
 3983               	/* epilogue start */
 538:lp_solve_5.5/lp_MPS.c **** }
 3984               		.loc 1 538 0
 3985 1996 2696      		adiw r28,6
 3986 1998 0FB6      		in __tmp_reg__,__SREG__
 3987 199a F894      		cli
 3988 199c DEBF      		out __SP_H__,r29
 3989 199e 0FBE      		out __SREG__,__tmp_reg__
 3990 19a0 CDBF      		out __SP_L__,r28
 3991 19a2 DF91      		pop r29
 3992 19a4 CF91      		pop r28
 3993 19a6 0895      		ret
 3994               		.cfi_endproc
 3995               	.LFE15:
 3997               	.global	MPS_readhandle
 3999               	MPS_readhandle:
 4000               	.LFB16:
 539:lp_solve_5.5/lp_MPS.c **** 
 540:lp_solve_5.5/lp_MPS.c **** MYBOOL __WINAPI MPS_readhandle(lprec **newlp, FILE *filehandle, int typeMPS, int verbose)
 541:lp_solve_5.5/lp_MPS.c **** {
 4001               		.loc 1 541 0
 4002               		.cfi_startproc
 4003 19a8 0F93      		push r16
 4004               	.LCFI66:
 4005               		.cfi_def_cfa_offset 3
 4006               		.cfi_offset 16, -2
 4007 19aa 1F93      		push r17
 4008               	.LCFI67:
 4009               		.cfi_def_cfa_offset 4
 4010               		.cfi_offset 17, -3
 4011 19ac CF93      		push r28
 4012               	.LCFI68:
 4013               		.cfi_def_cfa_offset 5
 4014               		.cfi_offset 28, -4
 4015 19ae DF93      		push r29
 4016               	.LCFI69:
 4017               		.cfi_def_cfa_offset 6
 4018               		.cfi_offset 29, -5
 4019 19b0 CDB7      		in r28,__SP_L__
 4020 19b2 DEB7      		in r29,__SP_H__
 4021               	.LCFI70:
 4022               		.cfi_def_cfa_register 28
 4023 19b4 2897      		sbiw r28,8
 4024               	.LCFI71:
 4025               		.cfi_def_cfa_offset 14
 4026 19b6 0FB6      		in __tmp_reg__,__SREG__
 4027 19b8 F894      		cli
 4028 19ba DEBF      		out __SP_H__,r29
 4029 19bc 0FBE      		out __SREG__,__tmp_reg__
 4030 19be CDBF      		out __SP_L__,r28
 4031               	/* prologue: function */
 4032               	/* frame size = 8 */
 4033               	/* stack size = 12 */
 4034               	.L__stack_usage = 12
 4035 19c0 9A83      		std Y+2,r25
 4036 19c2 8983      		std Y+1,r24
 4037 19c4 7C83      		std Y+4,r23
 4038 19c6 6B83      		std Y+3,r22
 4039 19c8 5E83      		std Y+6,r21
 4040 19ca 4D83      		std Y+5,r20
 4041 19cc 3887      		std Y+8,r19
 4042 19ce 2F83      		std Y+7,r18
 542:lp_solve_5.5/lp_MPS.c ****   return(MPS_readex(newlp, (void *) filehandle, MPS_input, typeMPS, verbose));
 4043               		.loc 1 542 0
 4044 19d0 4F81      		ldd r20,Y+7
 4045 19d2 5885      		ldd r21,Y+8
 4046 19d4 2D81      		ldd r18,Y+5
 4047 19d6 3E81      		ldd r19,Y+6
 4048 19d8 6B81      		ldd r22,Y+3
 4049 19da 7C81      		ldd r23,Y+4
 4050 19dc 8981      		ldd r24,Y+1
 4051 19de 9A81      		ldd r25,Y+2
 4052 19e0 8A01      		movw r16,r20
 4053 19e2 40E0      		ldi r20,lo8(gs(MPS_input))
 4054 19e4 50E0      		ldi r21,hi8(gs(MPS_input))
 4055 19e6 0E94 0000 		call MPS_readex
 4056               	/* epilogue start */
 543:lp_solve_5.5/lp_MPS.c **** }
 4057               		.loc 1 543 0
 4058 19ea 2896      		adiw r28,8
 4059 19ec 0FB6      		in __tmp_reg__,__SREG__
 4060 19ee F894      		cli
 4061 19f0 DEBF      		out __SP_H__,r29
 4062 19f2 0FBE      		out __SREG__,__tmp_reg__
 4063 19f4 CDBF      		out __SP_L__,r28
 4064 19f6 DF91      		pop r29
 4065 19f8 CF91      		pop r28
 4066 19fa 1F91      		pop r17
 4067 19fc 0F91      		pop r16
 4068 19fe 0895      		ret
 4069               		.cfi_endproc
 4070               	.LFE16:
 4072               		.section	.rodata
 4073               	.LC14:
 4074 01ab 4D50 535F 		.string	"MPS_readfile: Unrecognized MPS line type.\n"
 4074      7265 6164 
 4074      6669 6C65 
 4074      3A20 556E 
 4074      7265 636F 
 4075               	.LC15:
 4076 01d6 00        		.string	""
 4077               	.LC16:
 4078 01d7 436F 6D6D 		.string	"Comment on line %d: %s"
 4078      656E 7420 
 4078      6F6E 206C 
 4078      696E 6520 
 4078      2564 3A20 
 4079               	.LC17:
 4080 01ee 4C69 6E65 		.string	"Line %6d: %s"
 4080      2025 3664 
 4080      3A20 2573 
 4080      00
 4081               	.LC18:
 4082 01fb 4E41 4D45 		.string	"NAME"
 4082      00
 4083               	.LC19:
 4084 0200 4E41 4D45 		.string	"NAME %s"
 4084      2025 7300 
 4085               	.LC20:
 4086 0208 4F42 4A53 		.string	"OBJSENSE"
 4086      454E 5345 
 4086      00
 4087               	.LC21:
 4088 0211 5377 6974 		.string	"Switching to OBJSENSE section\n"
 4088      6368 696E 
 4088      6720 746F 
 4088      204F 424A 
 4088      5345 4E53 
 4089               	.LC22:
 4090 0230 4F42 4A4E 		.string	"OBJNAME"
 4090      414D 4500 
 4091               	.LC23:
 4092 0238 5377 6974 		.string	"Switching to OBJNAME section\n"
 4092      6368 696E 
 4092      6720 746F 
 4092      204F 424A 
 4092      4E41 4D45 
 4093               	.LC24:
 4094 0256 524F 5753 		.string	"ROWS"
 4094      00
 4095               	.LC25:
 4096 025b 5377 6974 		.string	"Switching to ROWS section\n"
 4096      6368 696E 
 4096      6720 746F 
 4096      2052 4F57 
 4096      5320 7365 
 4097               	.LC26:
 4098 0276 434F 4C55 		.string	"COLUMNS"
 4098      4D4E 5300 
 4099               	.LC27:
 4100 027e 5377 6974 		.string	"Switching to COLUMNS section\n"
 4100      6368 696E 
 4100      6720 746F 
 4100      2043 4F4C 
 4100      554D 4E53 
 4101               	.LC28:
 4102 029c 5248 5300 		.string	"RHS"
 4103               	.LC29:
 4104 02a0 5377 6974 		.string	"Switching to RHS section\n"
 4104      6368 696E 
 4104      6720 746F 
 4104      2052 4853 
 4104      2073 6563 
 4105               	.LC30:
 4106 02ba 424F 554E 		.string	"BOUNDS"
 4106      4453 00
 4107               	.LC31:
 4108 02c1 5377 6974 		.string	"Switching to BOUNDS section\n"
 4108      6368 696E 
 4108      6720 746F 
 4108      2042 4F55 
 4108      4E44 5320 
 4109               	.LC32:
 4110 02de 5241 4E47 		.string	"RANGES"
 4110      4553 00
 4111               	.LC33:
 4112 02e5 5377 6974 		.string	"Switching to RANGES section\n"
 4112      6368 696E 
 4112      6720 746F 
 4112      2052 414E 
 4112      4745 5320 
 4113               	.LC34:
 4114 0302 534F 5300 		.string	"SOS"
 4115               	.LC35:
 4116 0306 5345 5453 		.string	"SETS"
 4116      00
 4117               	.LC36:
 4118 030b 5377 6974 		.string	"Switching to %s section\n"
 4118      6368 696E 
 4118      6720 746F 
 4118      2025 7320 
 4118      7365 6374 
 4119               	.LC37:
 4120 0324 454E 4441 		.string	"ENDATA"
 4120      5441 00
 4121               	.LC38:
 4122 032b 4669 6E69 		.string	"Finished reading MPS file\n"
 4122      7368 6564 
 4122      2072 6561 
 4122      6469 6E67 
 4122      204D 5053 
 4123               	.LC39:
 4124 0346 556E 7265 		.string	"Unrecognized MPS line %d: %s\n"
 4124      636F 676E 
 4124      697A 6564 
 4124      204D 5053 
 4124      206C 696E 
 4125               	.LC40:
 4126 0364 5379 6E74 		.string	"Syntax error on line %d: %s\n"
 4126      6178 2065 
 4126      7272 6F72 
 4126      206F 6E20 
 4126      6C69 6E65 
 4127               	.LC41:
 4128 0381 4572 726F 		.string	"Error, extra line under NAME line\n"
 4128      722C 2065 
 4128      7874 7261 
 4128      206C 696E 
 4128      6520 756E 
 4129               	.LC42:
 4130 03a4 4572 726F 		.string	"Error, extra line under OBJSENSE line\n"
 4130      722C 2065 
 4130      7874 7261 
 4130      206C 696E 
 4130      6520 756E 
 4131               	.LC43:
 4132 03cb 4D41 5849 		.string	"MAXIMIZE"
 4132      4D49 5A45 
 4132      00
 4133               	.LC44:
 4134 03d4 4D41 5800 		.string	"MAX"
 4135               	.LC45:
 4136 03d8 4D49 4E49 		.string	"MINIMIZE"
 4136      4D49 5A45 
 4136      00
 4137               	.LC46:
 4138 03e1 4D49 4E00 		.string	"MIN"
 4139               	.LC47:
 4140 03e5 556E 6B6E 		.string	"Unknown OBJSENSE direction '%s' on line %d\n"
 4140      6F77 6E20 
 4140      4F42 4A53 
 4140      454E 5345 
 4140      2064 6972 
 4141               	.LC48:
 4142 0411 4572 726F 		.string	"Error, extra line under OBJNAME line\n"
 4142      722C 2065 
 4142      7874 7261 
 4142      206C 696E 
 4142      6520 756E 
 4143               	.LC49:
 4144 0437 526F 7720 		.string	"Row   %5d: %s %s\n"
 4144      2020 2535 
 4144      643A 2025 
 4144      7320 2573 
 4144      0A00 
 4145               	.LC50:
 4146 0449 4E00      		.string	"N"
 4147               	.LC51:
 4148 044b 556E 636F 		.string	"Unconstrained row %s ignored\n"
 4148      6E73 7472 
 4148      6169 6E65 
 4148      6420 726F 
 4148      7720 2573 
 4149               	.LC52:
 4150 0469 4675 7274 		.string	"Further messages of this kind will be suppressed\n"
 4150      6865 7220 
 4150      6D65 7373 
 4150      6167 6573 
 4150      206F 6620 
 4151               	.LC53:
 4152 049b 4C00      		.string	"L"
 4153               	.LC54:
 4154 049d 4700      		.string	"G"
 4155               	.LC55:
 4156 049f 4500      		.string	"E"
 4157               	.LC56:
 4158 04a1 556E 6B6E 		.string	"Unknown relation code '%s' on line %d\n"
 4158      6F77 6E20 
 4158      7265 6C61 
 4158      7469 6F6E 
 4158      2063 6F64 
 4159               	.LC57:
 4160 04c8 436F 6C75 		.string	"Column %4d: %s %s %g %s %g\n"
 4160      6D6E 2025 
 4160      3464 3A20 
 4160      2573 2025 
 4160      7320 2567 
 4161               	.LC58:
 4162 04e4 5661 7269 		.string	"Variable name (%s) is already used!\n"
 4162      6162 6C65 
 4162      206E 616D 
 4162      6520 2825 
 4162      7329 2069 
 4163               	.LC59:
 4164 0509 2749 4E54 		.string	"'INTORG'"
 4164      4F52 4727 
 4164      00
 4165               	.LC60:
 4166 0512 5377 6974 		.string	"Switching to integer section\n"
 4166      6368 696E 
 4166      6720 746F 
 4166      2069 6E74 
 4166      6567 6572 
 4167               	.LC61:
 4168 0530 2749 4E54 		.string	"'INTEND'"
 4168      454E 4427 
 4168      00
 4169               	.LC62:
 4170 0539 5377 6974 		.string	"Switching to non-integer section\n"
 4170      6368 696E 
 4170      6720 746F 
 4170      206E 6F6E 
 4170      2D69 6E74 
 4171               	.LC63:
 4172 055b 556E 6B6E 		.string	"Unknown marker (ignored) at line %d: %s\n"
 4172      6F77 6E20 
 4172      6D61 726B 
 4172      6572 2028 
 4172      6967 6E6F 
 4173               	.LC64:
 4174 0584 496E 7661 		.string	"Invalid row %s encountered in the MPS file\n"
 4174      6C69 6420 
 4174      726F 7720 
 4174      2573 2065 
 4174      6E63 6F75 
 4175               	.LC65:
 4176 05b0 5772 6F6E 		.string	"Wrong number of items (%d) in COLUMNS section (line %d)\n"
 4176      6720 6E75 
 4176      6D62 6572 
 4176      206F 6620 
 4176      6974 656D 
 4177               	.LC66:
 4178 05e9 5248 5320 		.string	"RHS line: %s %s %g %s %g\n"
 4178      6C69 6E65 
 4178      3A20 2573 
 4178      2025 7320 
 4178      2567 2025 
 4179               	.LC67:
 4180 0603 5772 6F6E 		.string	"Wrong number of items (%d) in RHS section line %d\n"
 4180      6720 6E75 
 4180      6D62 6572 
 4180      206F 6620 
 4180      6974 656D 
 4181               	.LC68:
 4182 0636 424F 554E 		.string	"BOUNDS line: %s %s %s %g\n"
 4182      4453 206C 
 4182      696E 653A 
 4182      2025 7320 
 4182      2573 2025 
 4183               	.LC69:
 4184 0650 5550 00   		.string	"UP"
 4185               	.LC70:
 4186 0653 5343 00   		.string	"SC"
 4187               	.global	__eqsf2
 4188               	.LC71:
 4189 0656 5349 00   		.string	"SI"
 4190               	.LC72:
 4191 0659 4C4F 00   		.string	"LO"
 4192               	.LC73:
 4193 065c 4658 00   		.string	"FX"
 4194               	.LC74:
 4195 065f 5549 00   		.string	"UI"
 4196               	.LC75:
 4197 0662 4C49 00   		.string	"LI"
 4198               	.LC76:
 4199 0665 424F 554E 		.string	"BOUND type %s on line %d is not supported"
 4199      4420 7479 
 4199      7065 2025 
 4199      7320 6F6E 
 4199      206C 696E 
 4200               	.LC77:
 4201 068f 5241 4E47 		.string	"RANGES line: %s %s %g %s %g"
 4201      4553 206C 
 4201      696E 653A 
 4201      2025 7320 
 4201      2573 2025 
 4202               	.LC78:
 4203 06ab 5772 6F6E 		.string	"Wrong number of items (%d) in RANGES section line %d"
 4203      6720 6E75 
 4203      6D62 6572 
 4203      206F 6620 
 4203      6974 656D 
 4204               	.global	__gesf2
 4205               	.LC79:
 4206 06e0 5761 726E 		.string	"Warning, Range for row %s >= infinity (value %g) on line %d, ignored"
 4206      696E 672C 
 4206      2052 616E 
 4206      6765 2066 
 4206      6F72 2072 
 4207               	.global	__nesf2
 4208               	.global	__ltsf2
 4209               	.LC80:
 4210 0725 4361 6E6E 		.string	"Cannot figure out row type, row = %d, is_chsign = %d, upbo = %g on line %d"
 4210      6F74 2066 
 4210      6967 7572 
 4210      6520 6F75 
 4210      7420 726F 
 4211               	.LC81:
 4212 0770 534F 5320 		.string	"SOS line: %s %s %g %s %g"
 4212      6C69 6E65 
 4212      3A20 2573 
 4212      2025 7320 
 4212      2567 2025 
 4213               	.LC82:
 4214 0789 496E 7661 		.string	"Invalid number of items (%d) in SOS section line %d\n"
 4214      6C69 6420 
 4214      6E75 6D62 
 4214      6572 206F 
 4214      6620 6974 
 4215               	.LC83:
 4216 07be 4572 726F 		.string	"Error: Invalid SOS type %s line %d\n"
 4216      723A 2049 
 4216      6E76 616C 
 4216      6964 2053 
 4216      4F53 2074 
 4217               	.LC84:
 4218 07e2 534F 535F 		.string	"SOS_%d"
 4218      2564 00
 4219               	.global	__fixsfsi
 4220               	.LC85:
 4221 07e9 4572 726F 		.string	"Error: Cannot handle line %d\n"
 4221      723A 2043 
 4221      616E 6E6F 
 4221      7420 6861 
 4221      6E64 6C65 
 4222               	.LC86:
 4223 0807 4572 726F 		.string	"Error: Objective function specified by OBJNAME card not found\n"
 4223      723A 204F 
 4223      626A 6563 
 4223      7469 7665 
 4223      2066 756E 
 4224               		.text
 4225               	.global	MPS_readex
 4227               	MPS_readex:
 4228               	.LFB17:
 544:lp_solve_5.5/lp_MPS.c **** 
 545:lp_solve_5.5/lp_MPS.c **** MYBOOL __WINAPI MPS_readex(lprec **newlp, void *userhandle, read_modeldata_func read_modeldata, int
 546:lp_solve_5.5/lp_MPS.c **** {
 4229               		.loc 1 546 0
 4230               		.cfi_startproc
 4231 1a00 8F92      		push r8
 4232               	.LCFI72:
 4233               		.cfi_def_cfa_offset 3
 4234               		.cfi_offset 8, -2
 4235 1a02 9F92      		push r9
 4236               	.LCFI73:
 4237               		.cfi_def_cfa_offset 4
 4238               		.cfi_offset 9, -3
 4239 1a04 AF92      		push r10
 4240               	.LCFI74:
 4241               		.cfi_def_cfa_offset 5
 4242               		.cfi_offset 10, -4
 4243 1a06 BF92      		push r11
 4244               	.LCFI75:
 4245               		.cfi_def_cfa_offset 6
 4246               		.cfi_offset 11, -5
 4247 1a08 CF92      		push r12
 4248               	.LCFI76:
 4249               		.cfi_def_cfa_offset 7
 4250               		.cfi_offset 12, -6
 4251 1a0a DF92      		push r13
 4252               	.LCFI77:
 4253               		.cfi_def_cfa_offset 8
 4254               		.cfi_offset 13, -7
 4255 1a0c EF92      		push r14
 4256               	.LCFI78:
 4257               		.cfi_def_cfa_offset 9
 4258               		.cfi_offset 14, -8
 4259 1a0e FF92      		push r15
 4260               	.LCFI79:
 4261               		.cfi_def_cfa_offset 10
 4262               		.cfi_offset 15, -9
 4263 1a10 0F93      		push r16
 4264               	.LCFI80:
 4265               		.cfi_def_cfa_offset 11
 4266               		.cfi_offset 16, -10
 4267 1a12 1F93      		push r17
 4268               	.LCFI81:
 4269               		.cfi_def_cfa_offset 12
 4270               		.cfi_offset 17, -11
 4271 1a14 CF93      		push r28
 4272               	.LCFI82:
 4273               		.cfi_def_cfa_offset 13
 4274               		.cfi_offset 28, -12
 4275 1a16 DF93      		push r29
 4276               	.LCFI83:
 4277               		.cfi_def_cfa_offset 14
 4278               		.cfi_offset 29, -13
 4279 1a18 CDB7      		in r28,__SP_L__
 4280 1a1a DEB7      		in r29,__SP_H__
 4281               	.LCFI84:
 4282               		.cfi_def_cfa_register 28
 4283 1a1c C254      		subi r28,66
 4284 1a1e D442      		sbci r29,36
 4285               	.LCFI85:
 4286               		.cfi_def_cfa_offset 9296
 4287 1a20 0FB6      		in __tmp_reg__,__SREG__
 4288 1a22 F894      		cli
 4289 1a24 DEBF      		out __SP_H__,r29
 4290 1a26 0FBE      		out __SREG__,__tmp_reg__
 4291 1a28 CDBF      		out __SP_L__,r28
 4292               	/* prologue: function */
 4293               	/* frame size = 9282 */
 4294               	/* stack size = 9294 */
 4295               	.L__stack_usage = 9294
 4296 1a2a FE01      		movw r30,r28
 4297 1a2c E95C      		subi r30,-55
 4298 1a2e FB4D      		sbci r31,-37
 4299 1a30 9183      		std Z+1,r25
 4300 1a32 8083      		st Z,r24
 4301 1a34 CE01      		movw r24,r28
 4302 1a36 875C      		subi r24,-57
 4303 1a38 9B4D      		sbci r25,-37
 4304 1a3a DC01      		movw r26,r24
 4305 1a3c 6D93      		st X+,r22
 4306 1a3e 7C93      		st X,r23
 4307 1a40 CE01      		movw r24,r28
 4308 1a42 855C      		subi r24,-59
 4309 1a44 9B4D      		sbci r25,-37
 4310 1a46 FC01      		movw r30,r24
 4311 1a48 5183      		std Z+1,r21
 4312 1a4a 4083      		st Z,r20
 4313 1a4c CE01      		movw r24,r28
 4314 1a4e 835C      		subi r24,-61
 4315 1a50 9B4D      		sbci r25,-37
 4316 1a52 DC01      		movw r26,r24
 4317 1a54 2D93      		st X+,r18
 4318 1a56 3C93      		st X,r19
 4319 1a58 CE01      		movw r24,r28
 4320 1a5a 815C      		subi r24,-63
 4321 1a5c 9B4D      		sbci r25,-37
 4322 1a5e FC01      		movw r30,r24
 4323 1a60 1183      		std Z+1,r17
 4324 1a62 0083      		st Z,r16
 547:lp_solve_5.5/lp_MPS.c ****   char   field1[BUFSIZ], field2[BUFSIZ], field3[BUFSIZ], field5[BUFSIZ], line[BUFSIZ], tmp[BUFSIZ],
 548:lp_solve_5.5/lp_MPS.c ****          Last_col_name[BUFSIZ], probname[BUFSIZ], OBJNAME[BUFSIZ], *ptr;
 549:lp_solve_5.5/lp_MPS.c ****   int    items, row, Lineno, var,
 550:lp_solve_5.5/lp_MPS.c ****          section = MPSUNDEF, variant = 0, NZ = 0, SOS = 0;
 4325               		.loc 1 550 0
 4326 1a64 8CEF      		ldi r24,lo8(-4)
 4327 1a66 9FEF      		ldi r25,lo8(-1)
 4328 1a68 9887      		std Y+8,r25
 4329 1a6a 8F83      		std Y+7,r24
 4330 1a6c 1A86      		std Y+10,__zero_reg__
 4331 1a6e 1986      		std Y+9,__zero_reg__
 4332 1a70 1C86      		std Y+12,__zero_reg__
 4333 1a72 1B86      		std Y+11,__zero_reg__
 4334 1a74 1E86      		std Y+14,__zero_reg__
 4335 1a76 1D86      		std Y+13,__zero_reg__
 551:lp_solve_5.5/lp_MPS.c ****   MYBOOL Int_section, Column_ready, Column_ready1,
 552:lp_solve_5.5/lp_MPS.c ****          Unconstrained_rows_found = FALSE, OF_found = FALSE, CompleteStatus = FALSE;
 4336               		.loc 1 552 0
 4337 1a78 188A      		std Y+16,__zero_reg__
 4338 1a7a 198A      		std Y+17,__zero_reg__
 4339 1a7c 1A8A      		std Y+18,__zero_reg__
 553:lp_solve_5.5/lp_MPS.c ****   double field4, field6;
 554:lp_solve_5.5/lp_MPS.c ****   REAL   *Last_column = NULL;
 4340               		.loc 1 554 0
 4341 1a7e CE01      		movw r24,r28
 4342 1a80 8F5C      		subi r24,-49
 4343 1a82 9B4D      		sbci r25,-37
 4344 1a84 DC01      		movw r26,r24
 4345 1a86 1D92      		st X+,__zero_reg__
 4346 1a88 1C92      		st X,__zero_reg__
 555:lp_solve_5.5/lp_MPS.c ****   int    count = 0, *Last_columnno = NULL;
 4347               		.loc 1 555 0
 4348 1a8a CE01      		movw r24,r28
 4349 1a8c 8D5C      		subi r24,-51
 4350 1a8e 9B4D      		sbci r25,-37
 4351 1a90 FC01      		movw r30,r24
 4352 1a92 1182      		std Z+1,__zero_reg__
 4353 1a94 1082      		st Z,__zero_reg__
 4354 1a96 CE01      		movw r24,r28
 4355 1a98 8B5C      		subi r24,-53
 4356 1a9a 9B4D      		sbci r25,-37
 4357 1a9c DC01      		movw r26,r24
 4358 1a9e 1D92      		st X+,__zero_reg__
 4359 1aa0 1C92      		st X,__zero_reg__
 556:lp_solve_5.5/lp_MPS.c ****   int    OBJSENSE = ROWTYPE_EMPTY;
 4360               		.loc 1 556 0
 4361 1aa2 1C8A      		std Y+20,__zero_reg__
 4362 1aa4 1B8A      		std Y+19,__zero_reg__
 557:lp_solve_5.5/lp_MPS.c ****   lprec  *lp;
 558:lp_solve_5.5/lp_MPS.c ****   int    (*scan_line)(lprec *lp, int section, char* line, char *field1, char *field2, char *field3,
 559:lp_solve_5.5/lp_MPS.c ****                       double *field4, char *field5, double *field6);
 560:lp_solve_5.5/lp_MPS.c **** 
 561:lp_solve_5.5/lp_MPS.c ****   if(newlp == NULL)
 4363               		.loc 1 561 0
 4364 1aa6 CE01      		movw r24,r28
 4365 1aa8 895C      		subi r24,-55
 4366 1aaa 9B4D      		sbci r25,-37
 4367 1aac FC01      		movw r30,r24
 4368 1aae 8081      		ld r24,Z
 4369 1ab0 9181      		ldd r25,Z+1
 4370 1ab2 892B      		or r24,r25
 4371 1ab4 01F4      		brne .L139
 562:lp_solve_5.5/lp_MPS.c ****     return( CompleteStatus );
 4372               		.loc 1 562 0
 4373 1ab6 8A89      		ldd r24,Y+18
 4374 1ab8 0C94 0000 		jmp .L316
 4375               	.L139:
 563:lp_solve_5.5/lp_MPS.c ****   else if(*newlp == NULL)
 4376               		.loc 1 563 0
 4377 1abc CE01      		movw r24,r28
 4378 1abe 895C      		subi r24,-55
 4379 1ac0 9B4D      		sbci r25,-37
 4380 1ac2 DC01      		movw r26,r24
 4381 1ac4 8D91      		ld r24,X+
 4382 1ac6 9C91      		ld r25,X
 4383 1ac8 FC01      		movw r30,r24
 4384 1aca 8081      		ld r24,Z
 4385 1acc 9181      		ldd r25,Z+1
 4386 1ace 892B      		or r24,r25
 4387 1ad0 01F4      		brne .L141
 564:lp_solve_5.5/lp_MPS.c ****     lp = make_lp(0, 0);
 4388               		.loc 1 564 0
 4389 1ad2 60E0      		ldi r22,0
 4390 1ad4 70E0      		ldi r23,0
 4391 1ad6 80E0      		ldi r24,0
 4392 1ad8 90E0      		ldi r25,0
 4393 1ada 0E94 0000 		call make_lp
 4394 1ade 9E8B      		std Y+22,r25
 4395 1ae0 8D8B      		std Y+21,r24
 4396 1ae2 00C0      		rjmp .L142
 4397               	.L141:
 565:lp_solve_5.5/lp_MPS.c ****   else
 566:lp_solve_5.5/lp_MPS.c ****     lp = *newlp;
 4398               		.loc 1 566 0
 4399 1ae4 CE01      		movw r24,r28
 4400 1ae6 895C      		subi r24,-55
 4401 1ae8 9B4D      		sbci r25,-37
 4402 1aea DC01      		movw r26,r24
 4403 1aec 8D91      		ld r24,X+
 4404 1aee 9C91      		ld r25,X
 4405 1af0 FC01      		movw r30,r24
 4406 1af2 8081      		ld r24,Z
 4407 1af4 9181      		ldd r25,Z+1
 4408 1af6 9E8B      		std Y+22,r25
 4409 1af8 8D8B      		std Y+21,r24
 4410               	.L142:
 567:lp_solve_5.5/lp_MPS.c **** 
 568:lp_solve_5.5/lp_MPS.c ****   if((typeMPS & MPSFIXED) == MPSFIXED)
 4411               		.loc 1 568 0
 4412 1afa CE01      		movw r24,r28
 4413 1afc 835C      		subi r24,-61
 4414 1afe 9B4D      		sbci r25,-37
 4415 1b00 DC01      		movw r26,r24
 4416 1b02 8D91      		ld r24,X+
 4417 1b04 9C91      		ld r25,X
 4418 1b06 8170      		andi r24,1
 4419 1b08 9927      		clr r25
 4420 1b0a 892B      		or r24,r25
 4421 1b0c 01F0      		breq .L143
 569:lp_solve_5.5/lp_MPS.c ****     scan_line = scan_lineFIXED;
 4422               		.loc 1 569 0
 4423 1b0e 80E0      		ldi r24,lo8(gs(scan_lineFIXED))
 4424 1b10 90E0      		ldi r25,hi8(gs(scan_lineFIXED))
 4425 1b12 988F      		std Y+24,r25
 4426 1b14 8F8B      		std Y+23,r24
 4427 1b16 00C0      		rjmp .L144
 4428               	.L143:
 570:lp_solve_5.5/lp_MPS.c ****   else if((typeMPS & MPSFREE) == MPSFREE)
 4429               		.loc 1 570 0
 4430 1b18 CE01      		movw r24,r28
 4431 1b1a 835C      		subi r24,-61
 4432 1b1c 9B4D      		sbci r25,-37
 4433 1b1e FC01      		movw r30,r24
 4434 1b20 8081      		ld r24,Z
 4435 1b22 9181      		ldd r25,Z+1
 4436 1b24 8270      		andi r24,2
 4437 1b26 9927      		clr r25
 4438 1b28 892B      		or r24,r25
 4439 1b2a 01F0      		breq .L145
 571:lp_solve_5.5/lp_MPS.c ****     scan_line = scan_lineFREE;
 4440               		.loc 1 571 0
 4441 1b2c 80E0      		ldi r24,lo8(gs(scan_lineFREE))
 4442 1b2e 90E0      		ldi r25,hi8(gs(scan_lineFREE))
 4443 1b30 988F      		std Y+24,r25
 4444 1b32 8F8B      		std Y+23,r24
 4445 1b34 00C0      		rjmp .L144
 4446               	.L145:
 572:lp_solve_5.5/lp_MPS.c ****   else {
 573:lp_solve_5.5/lp_MPS.c ****     report(lp, IMPORTANT, "MPS_readfile: Unrecognized MPS line type.\n");
 4447               		.loc 1 573 0
 4448 1b36 80E0      		ldi r24,lo8(.LC14)
 4449 1b38 90E0      		ldi r25,hi8(.LC14)
 4450 1b3a 892F      		mov r24,r25
 4451 1b3c 8F93      		push r24
 4452 1b3e 80E0      		ldi r24,lo8(.LC14)
 4453 1b40 90E0      		ldi r25,hi8(.LC14)
 4454 1b42 8F93      		push r24
 4455 1b44 1F92      		push __zero_reg__
 4456 1b46 83E0      		ldi r24,lo8(3)
 4457 1b48 8F93      		push r24
 4458 1b4a 8E89      		ldd r24,Y+22
 4459 1b4c 8F93      		push r24
 4460 1b4e 8D89      		ldd r24,Y+21
 4461 1b50 8F93      		push r24
 4462 1b52 0E94 0000 		call report
 4463 1b56 0F90      		pop __tmp_reg__
 4464 1b58 0F90      		pop __tmp_reg__
 4465 1b5a 0F90      		pop __tmp_reg__
 4466 1b5c 0F90      		pop __tmp_reg__
 4467 1b5e 0F90      		pop __tmp_reg__
 4468 1b60 0F90      		pop __tmp_reg__
 574:lp_solve_5.5/lp_MPS.c ****     if (*newlp == NULL)
 4469               		.loc 1 574 0
 4470 1b62 CE01      		movw r24,r28
 4471 1b64 895C      		subi r24,-55
 4472 1b66 9B4D      		sbci r25,-37
 4473 1b68 DC01      		movw r26,r24
 4474 1b6a 8D91      		ld r24,X+
 4475 1b6c 9C91      		ld r25,X
 4476 1b6e FC01      		movw r30,r24
 4477 1b70 8081      		ld r24,Z
 4478 1b72 9181      		ldd r25,Z+1
 4479 1b74 892B      		or r24,r25
 4480 1b76 01F4      		brne .L146
 575:lp_solve_5.5/lp_MPS.c ****       delete_lp(lp);
 4481               		.loc 1 575 0
 4482 1b78 8D89      		ldd r24,Y+21
 4483 1b7a 9E89      		ldd r25,Y+22
 4484 1b7c 0E94 0000 		call delete_lp
 4485               	.L146:
 576:lp_solve_5.5/lp_MPS.c ****     return( CompleteStatus );
 4486               		.loc 1 576 0
 4487 1b80 8A89      		ldd r24,Y+18
 4488 1b82 0C94 0000 		jmp .L316
 4489               	.L144:
 577:lp_solve_5.5/lp_MPS.c ****   }
 578:lp_solve_5.5/lp_MPS.c **** 
 579:lp_solve_5.5/lp_MPS.c ****   if (lp != NULL) {
 4490               		.loc 1 579 0
 4491 1b86 8D89      		ldd r24,Y+21
 4492 1b88 9E89      		ldd r25,Y+22
 4493 1b8a 892B      		or r24,r25
 4494 1b8c 01F4      		brne .+4
 4495 1b8e 0C94 0000 		jmp .L147
 580:lp_solve_5.5/lp_MPS.c ****     lp->source_is_file = TRUE;
 4496               		.loc 1 580 0
 4497 1b92 8D89      		ldd r24,Y+21
 4498 1b94 9E89      		ldd r25,Y+22
 4499 1b96 8650      		subi r24,6
 4500 1b98 9E4F      		sbci r25,-2
 4501 1b9a 21E0      		ldi r18,lo8(1)
 4502 1b9c DC01      		movw r26,r24
 4503 1b9e 2C93      		st X,r18
 581:lp_solve_5.5/lp_MPS.c ****     lp->verbose = verbose;
 4504               		.loc 1 581 0
 4505 1ba0 8D89      		ldd r24,Y+21
 4506 1ba2 9E89      		ldd r25,Y+22
 4507 1ba4 885A      		subi r24,-88
 4508 1ba6 9D4F      		sbci r25,-3
 4509 1ba8 9E01      		movw r18,r28
 4510 1baa 215C      		subi r18,-63
 4511 1bac 3B4D      		sbci r19,-37
 4512 1bae F901      		movw r30,r18
 4513 1bb0 2081      		ld r18,Z
 4514 1bb2 3181      		ldd r19,Z+1
 4515 1bb4 DC01      		movw r26,r24
 4516 1bb6 2D93      		st X+,r18
 4517 1bb8 3C93      		st X,r19
 582:lp_solve_5.5/lp_MPS.c ****     strcpy(Last_col_name, "");
 4518               		.loc 1 582 0
 4519 1bba 2091 0000 		lds r18,.LC15
 4520 1bbe CE01      		movw r24,r28
 4521 1bc0 8A5D      		subi r24,-38
 4522 1bc2 974E      		sbci r25,-25
 4523 1bc4 FC01      		movw r30,r24
 4524 1bc6 2083      		st Z,r18
 583:lp_solve_5.5/lp_MPS.c ****     strcpy(OBJNAME, "");
 4525               		.loc 1 583 0
 4526 1bc8 2091 0000 		lds r18,.LC15
 4527 1bcc CE01      		movw r24,r28
 4528 1bce 8A5D      		subi r24,-38
 4529 1bd0 9F4D      		sbci r25,-33
 4530 1bd2 DC01      		movw r26,r24
 4531 1bd4 2C93      		st X,r18
 584:lp_solve_5.5/lp_MPS.c ****     Int_section = FALSE;
 4532               		.loc 1 584 0
 4533 1bd6 1F86      		std Y+15,__zero_reg__
 585:lp_solve_5.5/lp_MPS.c ****     Column_ready = FALSE;
 4534               		.loc 1 585 0
 4535 1bd8 CE01      		movw r24,r28
 4536 1bda 885D      		subi r24,-40
 4537 1bdc 9B4D      		sbci r25,-37
 4538 1bde FC01      		movw r30,r24
 4539 1be0 1082      		st Z,__zero_reg__
 586:lp_solve_5.5/lp_MPS.c ****     Lineno = 0;
 4540               		.loc 1 586 0
 4541 1be2 1E82      		std Y+6,__zero_reg__
 4542 1be4 1D82      		std Y+5,__zero_reg__
 587:lp_solve_5.5/lp_MPS.c **** 
 588:lp_solve_5.5/lp_MPS.c ****     /* let's initialize line to all zero's */
 589:lp_solve_5.5/lp_MPS.c ****     MEMCLEAR(line, BUFSIZ);
 4543               		.loc 1 589 0
 4544 1be6 CE01      		movw r24,r28
 4545 1be8 8A5D      		subi r24,-38
 4546 1bea 9F4E      		sbci r25,-17
 4547 1bec 40E0      		ldi r20,0
 4548 1bee 54E0      		ldi r21,lo8(4)
 4549 1bf0 60E0      		ldi r22,0
 4550 1bf2 70E0      		ldi r23,0
 4551 1bf4 0E94 0000 		call memset
 590:lp_solve_5.5/lp_MPS.c **** 
 591:lp_solve_5.5/lp_MPS.c ****     while(read_modeldata(userhandle, line, BUFSIZ - 1)) {
 4552               		.loc 1 591 0
 4553 1bf8 0C94 0000 		jmp .L148
 4554               	.L299:
 592:lp_solve_5.5/lp_MPS.c ****       Lineno++;
 4555               		.loc 1 592 0
 4556 1bfc 8D81      		ldd r24,Y+5
 4557 1bfe 9E81      		ldd r25,Y+6
 4558 1c00 0196      		adiw r24,1
 4559 1c02 9E83      		std Y+6,r25
 4560 1c04 8D83      		std Y+5,r24
 593:lp_solve_5.5/lp_MPS.c **** 
 594:lp_solve_5.5/lp_MPS.c ****       for(ptr = line; (*ptr) && (isspace((unsigned char) *ptr)); ptr++);
 4561               		.loc 1 594 0
 4562 1c06 CE01      		movw r24,r28
 4563 1c08 8A5D      		subi r24,-38
 4564 1c0a 9F4E      		sbci r25,-17
 4565 1c0c 9A83      		std Y+2,r25
 4566 1c0e 8983      		std Y+1,r24
 4567 1c10 00C0      		rjmp .L149
 4568               	.L151:
 4569               		.loc 1 594 0 is_stmt 0 discriminator 4
 4570 1c12 8981      		ldd r24,Y+1
 4571 1c14 9A81      		ldd r25,Y+2
 4572 1c16 0196      		adiw r24,1
 4573 1c18 9A83      		std Y+2,r25
 4574 1c1a 8983      		std Y+1,r24
 4575               	.L149:
 4576               		.loc 1 594 0 discriminator 1
 4577 1c1c 8981      		ldd r24,Y+1
 4578 1c1e 9A81      		ldd r25,Y+2
 4579 1c20 DC01      		movw r26,r24
 4580 1c22 8C91      		ld r24,X
 4581 1c24 8823      		tst r24
 4582 1c26 01F0      		breq .L150
 4583               		.loc 1 594 0 discriminator 3
 4584 1c28 8981      		ldd r24,Y+1
 4585 1c2a 9A81      		ldd r25,Y+2
 4586 1c2c FC01      		movw r30,r24
 4587 1c2e 8081      		ld r24,Z
 4588 1c30 882F      		mov r24,r24
 4589 1c32 90E0      		ldi r25,0
 4590 1c34 0E94 0000 		call isspace
 4591 1c38 892B      		or r24,r25
 4592 1c3a 01F4      		brne .L151
 4593               	.L150:
 595:lp_solve_5.5/lp_MPS.c **** 
 596:lp_solve_5.5/lp_MPS.c ****       /* skip lines which start with "*", they are comment */
 597:lp_solve_5.5/lp_MPS.c ****       if((line[0] == '*') || (*ptr == 0) || (*ptr == '\n') || (*ptr == '\r')) {
 4594               		.loc 1 597 0 is_stmt 1
 4595 1c3c CE01      		movw r24,r28
 4596 1c3e 8A5D      		subi r24,-38
 4597 1c40 9F4E      		sbci r25,-17
 4598 1c42 DC01      		movw r26,r24
 4599 1c44 8C91      		ld r24,X
 4600 1c46 8A32      		cpi r24,lo8(42)
 4601 1c48 01F0      		breq .L152
 4602               		.loc 1 597 0 is_stmt 0 discriminator 1
 4603 1c4a 8981      		ldd r24,Y+1
 4604 1c4c 9A81      		ldd r25,Y+2
 4605 1c4e FC01      		movw r30,r24
 4606 1c50 8081      		ld r24,Z
 4607 1c52 8823      		tst r24
 4608 1c54 01F0      		breq .L152
 4609               		.loc 1 597 0 discriminator 2
 4610 1c56 8981      		ldd r24,Y+1
 4611 1c58 9A81      		ldd r25,Y+2
 4612 1c5a DC01      		movw r26,r24
 4613 1c5c 8C91      		ld r24,X
 4614 1c5e 8A30      		cpi r24,lo8(10)
 4615 1c60 01F0      		breq .L152
 4616               		.loc 1 597 0 discriminator 3
 4617 1c62 8981      		ldd r24,Y+1
 4618 1c64 9A81      		ldd r25,Y+2
 4619 1c66 FC01      		movw r30,r24
 4620 1c68 8081      		ld r24,Z
 4621 1c6a 8D30      		cpi r24,lo8(13)
 4622 1c6c 01F4      		brne .L153
 4623               	.L152:
 598:lp_solve_5.5/lp_MPS.c ****         report(lp, FULL, "Comment on line %d: %s", Lineno, line);
 4624               		.loc 1 598 0 is_stmt 1
 4625 1c6e CE01      		movw r24,r28
 4626 1c70 8A5D      		subi r24,-38
 4627 1c72 9F4E      		sbci r25,-17
 4628 1c74 292F      		mov r18,r25
 4629 1c76 2F93      		push r18
 4630 1c78 8F93      		push r24
 4631 1c7a 8E81      		ldd r24,Y+6
 4632 1c7c 8F93      		push r24
 4633 1c7e 8D81      		ldd r24,Y+5
 4634 1c80 8F93      		push r24
 4635 1c82 80E0      		ldi r24,lo8(.LC16)
 4636 1c84 90E0      		ldi r25,hi8(.LC16)
 4637 1c86 892F      		mov r24,r25
 4638 1c88 8F93      		push r24
 4639 1c8a 80E0      		ldi r24,lo8(.LC16)
 4640 1c8c 90E0      		ldi r25,hi8(.LC16)
 4641 1c8e 8F93      		push r24
 4642 1c90 1F92      		push __zero_reg__
 4643 1c92 86E0      		ldi r24,lo8(6)
 4644 1c94 8F93      		push r24
 4645 1c96 8E89      		ldd r24,Y+22
 4646 1c98 8F93      		push r24
 4647 1c9a 8D89      		ldd r24,Y+21
 4648 1c9c 8F93      		push r24
 4649 1c9e 0E94 0000 		call report
 4650 1ca2 2DB7      		in r18,__SP_L__
 4651 1ca4 3EB7      		in r19,__SP_H__
 4652 1ca6 265F      		subi r18,-10
 4653 1ca8 3F4F      		sbci r19,-1
 4654 1caa 0FB6      		in __tmp_reg__,__SREG__
 4655 1cac F894      		cli
 4656 1cae DEBF      		out __SP_H__,r29
 4657 1cb0 0FBE      		out __SREG__,__tmp_reg__
 4658 1cb2 CDBF      		out __SP_L__,r28
 599:lp_solve_5.5/lp_MPS.c ****         continue;
 4659               		.loc 1 599 0
 4660 1cb4 0C94 0000 		jmp .L148
 4661               	.L153:
 600:lp_solve_5.5/lp_MPS.c ****       }
 601:lp_solve_5.5/lp_MPS.c **** 
 602:lp_solve_5.5/lp_MPS.c ****       report(lp, FULL, "Line %6d: %s", Lineno, line);
 4662               		.loc 1 602 0
 4663 1cb8 CE01      		movw r24,r28
 4664 1cba 8A5D      		subi r24,-38
 4665 1cbc 9F4E      		sbci r25,-17
 4666 1cbe 292F      		mov r18,r25
 4667 1cc0 2F93      		push r18
 4668 1cc2 8F93      		push r24
 4669 1cc4 8E81      		ldd r24,Y+6
 4670 1cc6 8F93      		push r24
 4671 1cc8 8D81      		ldd r24,Y+5
 4672 1cca 8F93      		push r24
 4673 1ccc 80E0      		ldi r24,lo8(.LC17)
 4674 1cce 90E0      		ldi r25,hi8(.LC17)
 4675 1cd0 892F      		mov r24,r25
 4676 1cd2 8F93      		push r24
 4677 1cd4 80E0      		ldi r24,lo8(.LC17)
 4678 1cd6 90E0      		ldi r25,hi8(.LC17)
 4679 1cd8 8F93      		push r24
 4680 1cda 1F92      		push __zero_reg__
 4681 1cdc 86E0      		ldi r24,lo8(6)
 4682 1cde 8F93      		push r24
 4683 1ce0 8E89      		ldd r24,Y+22
 4684 1ce2 8F93      		push r24
 4685 1ce4 8D89      		ldd r24,Y+21
 4686 1ce6 8F93      		push r24
 4687 1ce8 0E94 0000 		call report
 4688 1cec 8DB7      		in r24,__SP_L__
 4689 1cee 9EB7      		in r25,__SP_H__
 4690 1cf0 0A96      		adiw r24,10
 4691 1cf2 0FB6      		in __tmp_reg__,__SREG__
 4692 1cf4 F894      		cli
 4693 1cf6 DEBF      		out __SP_H__,r29
 4694 1cf8 0FBE      		out __SREG__,__tmp_reg__
 4695 1cfa CDBF      		out __SP_L__,r28
 603:lp_solve_5.5/lp_MPS.c **** 
 604:lp_solve_5.5/lp_MPS.c ****       /* first check for "special" lines: NAME, ROWS, BOUNDS .... */
 605:lp_solve_5.5/lp_MPS.c ****       /* this must start in the first position of line */
 606:lp_solve_5.5/lp_MPS.c ****       if(line[0] != ' ') {
 4696               		.loc 1 606 0
 4697 1cfc CE01      		movw r24,r28
 4698 1cfe 8A5D      		subi r24,-38
 4699 1d00 9F4E      		sbci r25,-17
 4700 1d02 DC01      		movw r26,r24
 4701 1d04 8C91      		ld r24,X
 4702 1d06 8032      		cpi r24,lo8(32)
 4703 1d08 01F4      		brne .+2
 4704 1d0a 00C0      		rjmp .L154
 607:lp_solve_5.5/lp_MPS.c ****         sscanf(line, "%s", tmp);
 4705               		.loc 1 607 0
 4706 1d0c CE01      		movw r24,r28
 4707 1d0e 8A5D      		subi r24,-38
 4708 1d10 9B4E      		sbci r25,-21
 4709 1d12 292F      		mov r18,r25
 4710 1d14 2F93      		push r18
 4711 1d16 8F93      		push r24
 4712 1d18 80E0      		ldi r24,lo8(.LC0)
 4713 1d1a 90E0      		ldi r25,hi8(.LC0)
 4714 1d1c 892F      		mov r24,r25
 4715 1d1e 8F93      		push r24
 4716 1d20 80E0      		ldi r24,lo8(.LC0)
 4717 1d22 90E0      		ldi r25,hi8(.LC0)
 4718 1d24 8F93      		push r24
 4719 1d26 CE01      		movw r24,r28
 4720 1d28 8A5D      		subi r24,-38
 4721 1d2a 9F4E      		sbci r25,-17
 4722 1d2c 292F      		mov r18,r25
 4723 1d2e 2F93      		push r18
 4724 1d30 8F93      		push r24
 4725 1d32 0E94 0000 		call sscanf
 4726 1d36 0F90      		pop __tmp_reg__
 4727 1d38 0F90      		pop __tmp_reg__
 4728 1d3a 0F90      		pop __tmp_reg__
 4729 1d3c 0F90      		pop __tmp_reg__
 4730 1d3e 0F90      		pop __tmp_reg__
 4731 1d40 0F90      		pop __tmp_reg__
 608:lp_solve_5.5/lp_MPS.c ****         if(strcmp(tmp, "NAME") == 0) {
 4732               		.loc 1 608 0
 4733 1d42 CE01      		movw r24,r28
 4734 1d44 8A5D      		subi r24,-38
 4735 1d46 9B4E      		sbci r25,-21
 4736 1d48 60E0      		ldi r22,lo8(.LC18)
 4737 1d4a 70E0      		ldi r23,hi8(.LC18)
 4738 1d4c 0E94 0000 		call strcmp
 4739 1d50 892B      		or r24,r25
 4740 1d52 01F4      		brne .L155
 609:lp_solve_5.5/lp_MPS.c ****           section = MPSNAME;
 4741               		.loc 1 609 0
 4742 1d54 8DEF      		ldi r24,lo8(-3)
 4743 1d56 9FEF      		ldi r25,lo8(-1)
 4744 1d58 9887      		std Y+8,r25
 4745 1d5a 8F83      		std Y+7,r24
 610:lp_solve_5.5/lp_MPS.c ****           *probname = 0;
 4746               		.loc 1 610 0
 4747 1d5c CE01      		movw r24,r28
 4748 1d5e 8A5D      		subi r24,-38
 4749 1d60 934E      		sbci r25,-29
 4750 1d62 FC01      		movw r30,r24
 4751 1d64 1082      		st Z,__zero_reg__
 611:lp_solve_5.5/lp_MPS.c ****           sscanf(line, "NAME %s", probname);
 4752               		.loc 1 611 0
 4753 1d66 CE01      		movw r24,r28
 4754 1d68 8A5D      		subi r24,-38
 4755 1d6a 934E      		sbci r25,-29
 4756 1d6c 292F      		mov r18,r25
 4757 1d6e 2F93      		push r18
 4758 1d70 8F93      		push r24
 4759 1d72 80E0      		ldi r24,lo8(.LC19)
 4760 1d74 90E0      		ldi r25,hi8(.LC19)
 4761 1d76 892F      		mov r24,r25
 4762 1d78 8F93      		push r24
 4763 1d7a 80E0      		ldi r24,lo8(.LC19)
 4764 1d7c 90E0      		ldi r25,hi8(.LC19)
 4765 1d7e 8F93      		push r24
 4766 1d80 CE01      		movw r24,r28
 4767 1d82 8A5D      		subi r24,-38
 4768 1d84 9F4E      		sbci r25,-17
 4769 1d86 292F      		mov r18,r25
 4770 1d88 2F93      		push r18
 4771 1d8a 8F93      		push r24
 4772 1d8c 0E94 0000 		call sscanf
 4773 1d90 0F90      		pop __tmp_reg__
 4774 1d92 0F90      		pop __tmp_reg__
 4775 1d94 0F90      		pop __tmp_reg__
 4776 1d96 0F90      		pop __tmp_reg__
 4777 1d98 0F90      		pop __tmp_reg__
 4778 1d9a 0F90      		pop __tmp_reg__
 612:lp_solve_5.5/lp_MPS.c ****           if (!set_lp_name(lp, probname))
 4779               		.loc 1 612 0
 4780 1d9c 9E01      		movw r18,r28
 4781 1d9e 2A5D      		subi r18,-38
 4782 1da0 334E      		sbci r19,-29
 4783 1da2 8D89      		ldd r24,Y+21
 4784 1da4 9E89      		ldd r25,Y+22
 4785 1da6 B901      		movw r22,r18
 4786 1da8 0E94 0000 		call set_lp_name
 4787 1dac 8823      		tst r24
 4788 1dae 01F0      		breq .+4
 4789 1db0 0C94 0000 		jmp .L148
 613:lp_solve_5.5/lp_MPS.c ****             break;
 4790               		.loc 1 613 0
 4791 1db4 0C94 0000 		jmp .L157
 4792               	.L155:
 614:lp_solve_5.5/lp_MPS.c ****         }
 615:lp_solve_5.5/lp_MPS.c ****         else if(((typeMPS & MPSFREE) == MPSFREE) && (strcmp(tmp, "OBJSENSE") == 0)) {
 4793               		.loc 1 615 0
 4794 1db8 CE01      		movw r24,r28
 4795 1dba 835C      		subi r24,-61
 4796 1dbc 9B4D      		sbci r25,-37
 4797 1dbe DC01      		movw r26,r24
 4798 1dc0 8D91      		ld r24,X+
 4799 1dc2 9C91      		ld r25,X
 4800 1dc4 8270      		andi r24,2
 4801 1dc6 9927      		clr r25
 4802 1dc8 892B      		or r24,r25
 4803 1dca 01F0      		breq .L158
 4804               		.loc 1 615 0 is_stmt 0 discriminator 1
 4805 1dcc CE01      		movw r24,r28
 4806 1dce 8A5D      		subi r24,-38
 4807 1dd0 9B4E      		sbci r25,-21
 4808 1dd2 60E0      		ldi r22,lo8(.LC20)
 4809 1dd4 70E0      		ldi r23,hi8(.LC20)
 4810 1dd6 0E94 0000 		call strcmp
 4811 1dda 892B      		or r24,r25
 4812 1ddc 01F4      		brne .L158
 616:lp_solve_5.5/lp_MPS.c ****           section = MPSOBJSENSE;
 4813               		.loc 1 616 0 is_stmt 1
 4814 1dde 8EEF      		ldi r24,lo8(-2)
 4815 1de0 9FEF      		ldi r25,lo8(-1)
 4816 1de2 9887      		std Y+8,r25
 4817 1de4 8F83      		std Y+7,r24
 617:lp_solve_5.5/lp_MPS.c ****           report(lp, FULL, "Switching to OBJSENSE section\n");
 4818               		.loc 1 617 0
 4819 1de6 80E0      		ldi r24,lo8(.LC21)
 4820 1de8 90E0      		ldi r25,hi8(.LC21)
 4821 1dea 892F      		mov r24,r25
 4822 1dec 8F93      		push r24
 4823 1dee 80E0      		ldi r24,lo8(.LC21)
 4824 1df0 90E0      		ldi r25,hi8(.LC21)
 4825 1df2 8F93      		push r24
 4826 1df4 1F92      		push __zero_reg__
 4827 1df6 86E0      		ldi r24,lo8(6)
 4828 1df8 8F93      		push r24
 4829 1dfa 8E89      		ldd r24,Y+22
 4830 1dfc 8F93      		push r24
 4831 1dfe 8D89      		ldd r24,Y+21
 4832 1e00 8F93      		push r24
 4833 1e02 0E94 0000 		call report
 4834 1e06 0F90      		pop __tmp_reg__
 4835 1e08 0F90      		pop __tmp_reg__
 4836 1e0a 0F90      		pop __tmp_reg__
 4837 1e0c 0F90      		pop __tmp_reg__
 4838 1e0e 0F90      		pop __tmp_reg__
 4839 1e10 0F90      		pop __tmp_reg__
 4840 1e12 0C94 0000 		jmp .L148
 4841               	.L158:
 618:lp_solve_5.5/lp_MPS.c ****         }
 619:lp_solve_5.5/lp_MPS.c ****         else if(((typeMPS & MPSFREE) == MPSFREE) && (strcmp(tmp, "OBJNAME") == 0)) {
 4842               		.loc 1 619 0
 4843 1e16 CE01      		movw r24,r28
 4844 1e18 835C      		subi r24,-61
 4845 1e1a 9B4D      		sbci r25,-37
 4846 1e1c FC01      		movw r30,r24
 4847 1e1e 8081      		ld r24,Z
 4848 1e20 9181      		ldd r25,Z+1
 4849 1e22 8270      		andi r24,2
 4850 1e24 9927      		clr r25
 4851 1e26 892B      		or r24,r25
 4852 1e28 01F0      		breq .L159
 4853               		.loc 1 619 0 is_stmt 0 discriminator 1
 4854 1e2a CE01      		movw r24,r28
 4855 1e2c 8A5D      		subi r24,-38
 4856 1e2e 9B4E      		sbci r25,-21
 4857 1e30 60E0      		ldi r22,lo8(.LC22)
 4858 1e32 70E0      		ldi r23,hi8(.LC22)
 4859 1e34 0E94 0000 		call strcmp
 4860 1e38 892B      		or r24,r25
 4861 1e3a 01F4      		brne .L159
 620:lp_solve_5.5/lp_MPS.c ****           section = MPSOBJNAME;
 4862               		.loc 1 620 0 is_stmt 1
 4863 1e3c 8FEF      		ldi r24,lo8(-1)
 4864 1e3e 9FEF      		ldi r25,lo8(-1)
 4865 1e40 9887      		std Y+8,r25
 4866 1e42 8F83      		std Y+7,r24
 621:lp_solve_5.5/lp_MPS.c ****           report(lp, FULL, "Switching to OBJNAME section\n");
 4867               		.loc 1 621 0
 4868 1e44 80E0      		ldi r24,lo8(.LC23)
 4869 1e46 90E0      		ldi r25,hi8(.LC23)
 4870 1e48 892F      		mov r24,r25
 4871 1e4a 8F93      		push r24
 4872 1e4c 80E0      		ldi r24,lo8(.LC23)
 4873 1e4e 90E0      		ldi r25,hi8(.LC23)
 4874 1e50 8F93      		push r24
 4875 1e52 1F92      		push __zero_reg__
 4876 1e54 86E0      		ldi r24,lo8(6)
 4877 1e56 8F93      		push r24
 4878 1e58 8E89      		ldd r24,Y+22
 4879 1e5a 8F93      		push r24
 4880 1e5c 8D89      		ldd r24,Y+21
 4881 1e5e 8F93      		push r24
 4882 1e60 0E94 0000 		call report
 4883 1e64 0F90      		pop __tmp_reg__
 4884 1e66 0F90      		pop __tmp_reg__
 4885 1e68 0F90      		pop __tmp_reg__
 4886 1e6a 0F90      		pop __tmp_reg__
 4887 1e6c 0F90      		pop __tmp_reg__
 4888 1e6e 0F90      		pop __tmp_reg__
 4889 1e70 0C94 0000 		jmp .L148
 4890               	.L159:
 622:lp_solve_5.5/lp_MPS.c ****         }
 623:lp_solve_5.5/lp_MPS.c ****         else if(strcmp(tmp, "ROWS") == 0) {
 4891               		.loc 1 623 0
 4892 1e74 CE01      		movw r24,r28
 4893 1e76 8A5D      		subi r24,-38
 4894 1e78 9B4E      		sbci r25,-21
 4895 1e7a 60E0      		ldi r22,lo8(.LC24)
 4896 1e7c 70E0      		ldi r23,hi8(.LC24)
 4897 1e7e 0E94 0000 		call strcmp
 4898 1e82 892B      		or r24,r25
 4899 1e84 01F4      		brne .L160
 624:lp_solve_5.5/lp_MPS.c ****           section = MPSROWS;
 4900               		.loc 1 624 0
 4901 1e86 1886      		std Y+8,__zero_reg__
 4902 1e88 1F82      		std Y+7,__zero_reg__
 625:lp_solve_5.5/lp_MPS.c ****           report(lp, FULL, "Switching to ROWS section\n");
 4903               		.loc 1 625 0
 4904 1e8a 80E0      		ldi r24,lo8(.LC25)
 4905 1e8c 90E0      		ldi r25,hi8(.LC25)
 4906 1e8e 892F      		mov r24,r25
 4907 1e90 8F93      		push r24
 4908 1e92 80E0      		ldi r24,lo8(.LC25)
 4909 1e94 90E0      		ldi r25,hi8(.LC25)
 4910 1e96 8F93      		push r24
 4911 1e98 1F92      		push __zero_reg__
 4912 1e9a 86E0      		ldi r24,lo8(6)
 4913 1e9c 8F93      		push r24
 4914 1e9e 8E89      		ldd r24,Y+22
 4915 1ea0 8F93      		push r24
 4916 1ea2 8D89      		ldd r24,Y+21
 4917 1ea4 8F93      		push r24
 4918 1ea6 0E94 0000 		call report
 4919 1eaa 0F90      		pop __tmp_reg__
 4920 1eac 0F90      		pop __tmp_reg__
 4921 1eae 0F90      		pop __tmp_reg__
 4922 1eb0 0F90      		pop __tmp_reg__
 4923 1eb2 0F90      		pop __tmp_reg__
 4924 1eb4 0F90      		pop __tmp_reg__
 4925 1eb6 0C94 0000 		jmp .L148
 4926               	.L160:
 626:lp_solve_5.5/lp_MPS.c ****         }
 627:lp_solve_5.5/lp_MPS.c ****         else if(strcmp(tmp, "COLUMNS") == 0) {
 4927               		.loc 1 627 0
 4928 1eba CE01      		movw r24,r28
 4929 1ebc 8A5D      		subi r24,-38
 4930 1ebe 9B4E      		sbci r25,-21
 4931 1ec0 60E0      		ldi r22,lo8(.LC26)
 4932 1ec2 70E0      		ldi r23,hi8(.LC26)
 4933 1ec4 0E94 0000 		call strcmp
 4934 1ec8 892B      		or r24,r25
 4935 1eca 01F0      		breq .+2
 4936 1ecc 00C0      		rjmp .L161
 628:lp_solve_5.5/lp_MPS.c ****           allocREAL(lp, &Last_column, lp->rows + 1, TRUE);
 4937               		.loc 1 628 0
 4938 1ece 8D89      		ldd r24,Y+21
 4939 1ed0 9E89      		ldd r25,Y+22
 4940 1ed2 8651      		subi r24,22
 4941 1ed4 9E4F      		sbci r25,-2
 4942 1ed6 DC01      		movw r26,r24
 4943 1ed8 8D91      		ld r24,X+
 4944 1eda 9C91      		ld r25,X
 4945 1edc AC01      		movw r20,r24
 4946 1ede 4F5F      		subi r20,-1
 4947 1ee0 5F4F      		sbci r21,-1
 4948 1ee2 BE01      		movw r22,r28
 4949 1ee4 6F5C      		subi r22,-49
 4950 1ee6 7B4D      		sbci r23,-37
 4951 1ee8 8D89      		ldd r24,Y+21
 4952 1eea 9E89      		ldd r25,Y+22
 4953 1eec 21E0      		ldi r18,lo8(1)
 4954 1eee 0E94 0000 		call allocREAL
 629:lp_solve_5.5/lp_MPS.c ****           allocINT(lp, &Last_columnno, lp->rows + 1, TRUE);
 4955               		.loc 1 629 0
 4956 1ef2 8D89      		ldd r24,Y+21
 4957 1ef4 9E89      		ldd r25,Y+22
 4958 1ef6 8651      		subi r24,22
 4959 1ef8 9E4F      		sbci r25,-2
 4960 1efa FC01      		movw r30,r24
 4961 1efc 8081      		ld r24,Z
 4962 1efe 9181      		ldd r25,Z+1
 4963 1f00 AC01      		movw r20,r24
 4964 1f02 4F5F      		subi r20,-1
 4965 1f04 5F4F      		sbci r21,-1
 4966 1f06 BE01      		movw r22,r28
 4967 1f08 6B5C      		subi r22,-53
 4968 1f0a 7B4D      		sbci r23,-37
 4969 1f0c 8D89      		ldd r24,Y+21
 4970 1f0e 9E89      		ldd r25,Y+22
 4971 1f10 21E0      		ldi r18,lo8(1)
 4972 1f12 0E94 0000 		call allocINT
 630:lp_solve_5.5/lp_MPS.c ****           count = 0;
 4973               		.loc 1 630 0
 4974 1f16 CE01      		movw r24,r28
 4975 1f18 8D5C      		subi r24,-51
 4976 1f1a 9B4D      		sbci r25,-37
 4977 1f1c DC01      		movw r26,r24
 4978 1f1e 1D92      		st X+,__zero_reg__
 4979 1f20 1C92      		st X,__zero_reg__
 631:lp_solve_5.5/lp_MPS.c ****           if ((Last_column == NULL) || (Last_columnno == NULL))
 4980               		.loc 1 631 0
 4981 1f22 CE01      		movw r24,r28
 4982 1f24 8F5C      		subi r24,-49
 4983 1f26 9B4D      		sbci r25,-37
 4984 1f28 FC01      		movw r30,r24
 4985 1f2a 8081      		ld r24,Z
 4986 1f2c 9181      		ldd r25,Z+1
 4987 1f2e 892B      		or r24,r25
 4988 1f30 01F4      		brne .+4
 4989 1f32 0C94 0000 		jmp .L157
 4990               		.loc 1 631 0 is_stmt 0 discriminator 1
 4991 1f36 CE01      		movw r24,r28
 4992 1f38 8B5C      		subi r24,-53
 4993 1f3a 9B4D      		sbci r25,-37
 4994 1f3c DC01      		movw r26,r24
 4995 1f3e 8D91      		ld r24,X+
 4996 1f40 9C91      		ld r25,X
 4997 1f42 892B      		or r24,r25
 4998 1f44 01F4      		brne .+4
 4999 1f46 0C94 0000 		jmp .L157
 632:lp_solve_5.5/lp_MPS.c ****             break;
 633:lp_solve_5.5/lp_MPS.c ****           section = MPSCOLUMNS;
 5000               		.loc 1 633 0 is_stmt 1
 5001 1f4a 81E0      		ldi r24,lo8(1)
 5002 1f4c 90E0      		ldi r25,0
 5003 1f4e 9887      		std Y+8,r25
 5004 1f50 8F83      		std Y+7,r24
 634:lp_solve_5.5/lp_MPS.c ****           report(lp, FULL, "Switching to COLUMNS section\n");
 5005               		.loc 1 634 0
 5006 1f52 80E0      		ldi r24,lo8(.LC27)
 5007 1f54 90E0      		ldi r25,hi8(.LC27)
 5008 1f56 892F      		mov r24,r25
 5009 1f58 8F93      		push r24
 5010 1f5a 80E0      		ldi r24,lo8(.LC27)
 5011 1f5c 90E0      		ldi r25,hi8(.LC27)
 5012 1f5e 8F93      		push r24
 5013 1f60 1F92      		push __zero_reg__
 5014 1f62 86E0      		ldi r24,lo8(6)
 5015 1f64 8F93      		push r24
 5016 1f66 8E89      		ldd r24,Y+22
 5017 1f68 8F93      		push r24
 5018 1f6a 8D89      		ldd r24,Y+21
 5019 1f6c 8F93      		push r24
 5020 1f6e 0E94 0000 		call report
 5021 1f72 0F90      		pop __tmp_reg__
 5022 1f74 0F90      		pop __tmp_reg__
 5023 1f76 0F90      		pop __tmp_reg__
 5024 1f78 0F90      		pop __tmp_reg__
 5025 1f7a 0F90      		pop __tmp_reg__
 5026 1f7c 0F90      		pop __tmp_reg__
 5027 1f7e 0C94 0000 		jmp .L148
 5028               	.L161:
 635:lp_solve_5.5/lp_MPS.c ****         }
 636:lp_solve_5.5/lp_MPS.c ****         else if(strcmp(tmp, "RHS") == 0) {
 5029               		.loc 1 636 0
 5030 1f82 CE01      		movw r24,r28
 5031 1f84 8A5D      		subi r24,-38
 5032 1f86 9B4E      		sbci r25,-21
 5033 1f88 60E0      		ldi r22,lo8(.LC28)
 5034 1f8a 70E0      		ldi r23,hi8(.LC28)
 5035 1f8c 0E94 0000 		call strcmp
 5036 1f90 892B      		or r24,r25
 5037 1f92 01F0      		breq .+2
 5038 1f94 00C0      		rjmp .L162
 637:lp_solve_5.5/lp_MPS.c ****           if (!addmpscolumn(lp, Int_section, typeMPS, &Column_ready, &count, Last_column, Last_colu
 5039               		.loc 1 637 0
 5040 1f96 CE01      		movw r24,r28
 5041 1f98 8B5C      		subi r24,-53
 5042 1f9a 9B4D      		sbci r25,-37
 5043 1f9c FC01      		movw r30,r24
 5044 1f9e A081      		ld r26,Z
 5045 1fa0 B181      		ldd r27,Z+1
 5046 1fa2 CE01      		movw r24,r28
 5047 1fa4 8F5C      		subi r24,-49
 5048 1fa6 9B4D      		sbci r25,-37
 5049 1fa8 FC01      		movw r30,r24
 5050 1faa 0190      		ld __tmp_reg__,Z+
 5051 1fac F081      		ld r31,Z
 5052 1fae E02D      		mov r30,__tmp_reg__
 5053 1fb0 CF5B      		subi r28,lo8(-9281)
 5054 1fb2 DB4D      		sbci r29,hi8(-9281)
 5055 1fb4 F983      		std Y+1,r31
 5056 1fb6 E883      		st Y,r30
 5057 1fb8 C154      		subi r28,lo8(9281)
 5058 1fba D442      		sbci r29,hi8(9281)
 5059 1fbc 8E01      		movw r16,r28
 5060 1fbe 0A5D      		subi r16,-38
 5061 1fc0 174E      		sbci r17,-25
 5062 1fc2 BE01      		movw r22,r28
 5063 1fc4 6D5C      		subi r22,-51
 5064 1fc6 7B4D      		sbci r23,-37
 5065 1fc8 9E01      		movw r18,r28
 5066 1fca 285D      		subi r18,-40
 5067 1fcc 3B4D      		sbci r19,-37
 5068 1fce CE01      		movw r24,r28
 5069 1fd0 835C      		subi r24,-61
 5070 1fd2 9B4D      		sbci r25,-37
 5071 1fd4 FC01      		movw r30,r24
 5072 1fd6 4081      		ld r20,Z
 5073 1fd8 5181      		ldd r21,Z+1
 5074 1fda 8D89      		ldd r24,Y+21
 5075 1fdc 9E89      		ldd r25,Y+22
 5076 1fde 5801      		movw r10,r16
 5077 1fe0 6D01      		movw r12,r26
 5078 1fe2 CF5B      		subi r28,lo8(-9281)
 5079 1fe4 DB4D      		sbci r29,hi8(-9281)
 5080 1fe6 E880      		ld r14,Y
 5081 1fe8 F980      		ldd r15,Y+1
 5082 1fea C154      		subi r28,lo8(9281)
 5083 1fec D442      		sbci r29,hi8(9281)
 5084 1fee 8B01      		movw r16,r22
 5085 1ff0 6F85      		ldd r22,Y+15
 5086 1ff2 0E94 0000 		call addmpscolumn
 5087 1ff6 892B      		or r24,r25
 5088 1ff8 01F4      		brne .+4
 5089 1ffa 0C94 0000 		jmp .L349
 638:lp_solve_5.5/lp_MPS.c ****             break;
 639:lp_solve_5.5/lp_MPS.c ****           section = MPSRHS;
 5090               		.loc 1 639 0
 5091 1ffe 82E0      		ldi r24,lo8(2)
 5092 2000 90E0      		ldi r25,0
 5093 2002 9887      		std Y+8,r25
 5094 2004 8F83      		std Y+7,r24
 640:lp_solve_5.5/lp_MPS.c ****           report(lp, FULL, "Switching to RHS section\n");
 5095               		.loc 1 640 0
 5096 2006 80E0      		ldi r24,lo8(.LC29)
 5097 2008 90E0      		ldi r25,hi8(.LC29)
 5098 200a 892F      		mov r24,r25
 5099 200c 8F93      		push r24
 5100 200e 80E0      		ldi r24,lo8(.LC29)
 5101 2010 90E0      		ldi r25,hi8(.LC29)
 5102 2012 8F93      		push r24
 5103 2014 1F92      		push __zero_reg__
 5104 2016 86E0      		ldi r24,lo8(6)
 5105 2018 8F93      		push r24
 5106 201a 8E89      		ldd r24,Y+22
 5107 201c 8F93      		push r24
 5108 201e 8D89      		ldd r24,Y+21
 5109 2020 8F93      		push r24
 5110 2022 0E94 0000 		call report
 5111 2026 0F90      		pop __tmp_reg__
 5112 2028 0F90      		pop __tmp_reg__
 5113 202a 0F90      		pop __tmp_reg__
 5114 202c 0F90      		pop __tmp_reg__
 5115 202e 0F90      		pop __tmp_reg__
 5116 2030 0F90      		pop __tmp_reg__
 5117 2032 0C94 0000 		jmp .L148
 5118               	.L162:
 641:lp_solve_5.5/lp_MPS.c ****         }
 642:lp_solve_5.5/lp_MPS.c ****         else if(strcmp(tmp, "BOUNDS") == 0) {
 5119               		.loc 1 642 0
 5120 2036 CE01      		movw r24,r28
 5121 2038 8A5D      		subi r24,-38
 5122 203a 9B4E      		sbci r25,-21
 5123 203c 60E0      		ldi r22,lo8(.LC30)
 5124 203e 70E0      		ldi r23,hi8(.LC30)
 5125 2040 0E94 0000 		call strcmp
 5126 2044 892B      		or r24,r25
 5127 2046 01F4      		brne .L164
 643:lp_solve_5.5/lp_MPS.c ****           section = MPSBOUNDS;
 5128               		.loc 1 643 0
 5129 2048 83E0      		ldi r24,lo8(3)
 5130 204a 90E0      		ldi r25,0
 5131 204c 9887      		std Y+8,r25
 5132 204e 8F83      		std Y+7,r24
 644:lp_solve_5.5/lp_MPS.c ****           report(lp, FULL, "Switching to BOUNDS section\n");
 5133               		.loc 1 644 0
 5134 2050 80E0      		ldi r24,lo8(.LC31)
 5135 2052 90E0      		ldi r25,hi8(.LC31)
 5136 2054 892F      		mov r24,r25
 5137 2056 8F93      		push r24
 5138 2058 80E0      		ldi r24,lo8(.LC31)
 5139 205a 90E0      		ldi r25,hi8(.LC31)
 5140 205c 8F93      		push r24
 5141 205e 1F92      		push __zero_reg__
 5142 2060 86E0      		ldi r24,lo8(6)
 5143 2062 8F93      		push r24
 5144 2064 8E89      		ldd r24,Y+22
 5145 2066 8F93      		push r24
 5146 2068 8D89      		ldd r24,Y+21
 5147 206a 8F93      		push r24
 5148 206c 0E94 0000 		call report
 5149 2070 0F90      		pop __tmp_reg__
 5150 2072 0F90      		pop __tmp_reg__
 5151 2074 0F90      		pop __tmp_reg__
 5152 2076 0F90      		pop __tmp_reg__
 5153 2078 0F90      		pop __tmp_reg__
 5154 207a 0F90      		pop __tmp_reg__
 5155 207c 0C94 0000 		jmp .L148
 5156               	.L164:
 645:lp_solve_5.5/lp_MPS.c ****         }
 646:lp_solve_5.5/lp_MPS.c ****         else if(strcmp(tmp, "RANGES") == 0) {
 5157               		.loc 1 646 0
 5158 2080 CE01      		movw r24,r28
 5159 2082 8A5D      		subi r24,-38
 5160 2084 9B4E      		sbci r25,-21
 5161 2086 60E0      		ldi r22,lo8(.LC32)
 5162 2088 70E0      		ldi r23,hi8(.LC32)
 5163 208a 0E94 0000 		call strcmp
 5164 208e 892B      		or r24,r25
 5165 2090 01F4      		brne .L165
 647:lp_solve_5.5/lp_MPS.c ****           section = MPSRANGES;
 5166               		.loc 1 647 0
 5167 2092 84E0      		ldi r24,lo8(4)
 5168 2094 90E0      		ldi r25,0
 5169 2096 9887      		std Y+8,r25
 5170 2098 8F83      		std Y+7,r24
 648:lp_solve_5.5/lp_MPS.c ****           report(lp, FULL, "Switching to RANGES section\n");
 5171               		.loc 1 648 0
 5172 209a 80E0      		ldi r24,lo8(.LC33)
 5173 209c 90E0      		ldi r25,hi8(.LC33)
 5174 209e 892F      		mov r24,r25
 5175 20a0 8F93      		push r24
 5176 20a2 80E0      		ldi r24,lo8(.LC33)
 5177 20a4 90E0      		ldi r25,hi8(.LC33)
 5178 20a6 8F93      		push r24
 5179 20a8 1F92      		push __zero_reg__
 5180 20aa 86E0      		ldi r24,lo8(6)
 5181 20ac 8F93      		push r24
 5182 20ae 8E89      		ldd r24,Y+22
 5183 20b0 8F93      		push r24
 5184 20b2 8D89      		ldd r24,Y+21
 5185 20b4 8F93      		push r24
 5186 20b6 0E94 0000 		call report
 5187 20ba 0F90      		pop __tmp_reg__
 5188 20bc 0F90      		pop __tmp_reg__
 5189 20be 0F90      		pop __tmp_reg__
 5190 20c0 0F90      		pop __tmp_reg__
 5191 20c2 0F90      		pop __tmp_reg__
 5192 20c4 0F90      		pop __tmp_reg__
 5193 20c6 0C94 0000 		jmp .L148
 5194               	.L165:
 649:lp_solve_5.5/lp_MPS.c ****         }
 650:lp_solve_5.5/lp_MPS.c ****         else if((strcmp(tmp, "SOS") == 0) || (strcmp(tmp, "SETS") == 0)) {
 5195               		.loc 1 650 0
 5196 20ca CE01      		movw r24,r28
 5197 20cc 8A5D      		subi r24,-38
 5198 20ce 9B4E      		sbci r25,-21
 5199 20d0 60E0      		ldi r22,lo8(.LC34)
 5200 20d2 70E0      		ldi r23,hi8(.LC34)
 5201 20d4 0E94 0000 		call strcmp
 5202 20d8 892B      		or r24,r25
 5203 20da 01F0      		breq .L166
 5204               		.loc 1 650 0 is_stmt 0 discriminator 1
 5205 20dc CE01      		movw r24,r28
 5206 20de 8A5D      		subi r24,-38
 5207 20e0 9B4E      		sbci r25,-21
 5208 20e2 60E0      		ldi r22,lo8(.LC35)
 5209 20e4 70E0      		ldi r23,hi8(.LC35)
 5210 20e6 0E94 0000 		call strcmp
 5211 20ea 892B      		or r24,r25
 5212 20ec 01F4      		brne .L167
 5213               	.L166:
 651:lp_solve_5.5/lp_MPS.c ****           section = MPSSOS;
 5214               		.loc 1 651 0 is_stmt 1
 5215 20ee 85E0      		ldi r24,lo8(5)
 5216 20f0 90E0      		ldi r25,0
 5217 20f2 9887      		std Y+8,r25
 5218 20f4 8F83      		std Y+7,r24
 652:lp_solve_5.5/lp_MPS.c ****           if(strcmp(tmp, "SOS") == 0)
 5219               		.loc 1 652 0
 5220 20f6 CE01      		movw r24,r28
 5221 20f8 8A5D      		subi r24,-38
 5222 20fa 9B4E      		sbci r25,-21
 5223 20fc 60E0      		ldi r22,lo8(.LC34)
 5224 20fe 70E0      		ldi r23,hi8(.LC34)
 5225 2100 0E94 0000 		call strcmp
 5226 2104 892B      		or r24,r25
 5227 2106 01F4      		brne .L168
 653:lp_solve_5.5/lp_MPS.c ****             variant = 0;
 5228               		.loc 1 653 0
 5229 2108 1A86      		std Y+10,__zero_reg__
 5230 210a 1986      		std Y+9,__zero_reg__
 5231 210c 00C0      		rjmp .L169
 5232               	.L168:
 654:lp_solve_5.5/lp_MPS.c ****           else
 655:lp_solve_5.5/lp_MPS.c ****             variant = 1;
 5233               		.loc 1 655 0
 5234 210e 81E0      		ldi r24,lo8(1)
 5235 2110 90E0      		ldi r25,0
 5236 2112 9A87      		std Y+10,r25
 5237 2114 8987      		std Y+9,r24
 5238               	.L169:
 656:lp_solve_5.5/lp_MPS.c ****           report(lp, FULL, "Switching to %s section\n", tmp);
 5239               		.loc 1 656 0
 5240 2116 CE01      		movw r24,r28
 5241 2118 8A5D      		subi r24,-38
 5242 211a 9B4E      		sbci r25,-21
 5243 211c 292F      		mov r18,r25
 5244 211e 2F93      		push r18
 5245 2120 8F93      		push r24
 5246 2122 80E0      		ldi r24,lo8(.LC36)
 5247 2124 90E0      		ldi r25,hi8(.LC36)
 5248 2126 892F      		mov r24,r25
 5249 2128 8F93      		push r24
 5250 212a 80E0      		ldi r24,lo8(.LC36)
 5251 212c 90E0      		ldi r25,hi8(.LC36)
 5252 212e 8F93      		push r24
 5253 2130 1F92      		push __zero_reg__
 5254 2132 86E0      		ldi r24,lo8(6)
 5255 2134 8F93      		push r24
 5256 2136 8E89      		ldd r24,Y+22
 5257 2138 8F93      		push r24
 5258 213a 8D89      		ldd r24,Y+21
 5259 213c 8F93      		push r24
 5260 213e 0E94 0000 		call report
 5261 2142 2DB7      		in r18,__SP_L__
 5262 2144 3EB7      		in r19,__SP_H__
 5263 2146 285F      		subi r18,-8
 5264 2148 3F4F      		sbci r19,-1
 5265 214a 0FB6      		in __tmp_reg__,__SREG__
 5266 214c F894      		cli
 5267 214e DEBF      		out __SP_H__,r29
 5268 2150 0FBE      		out __SREG__,__tmp_reg__
 5269 2152 CDBF      		out __SP_L__,r28
 5270 2154 0C94 0000 		jmp .L148
 5271               	.L167:
 657:lp_solve_5.5/lp_MPS.c ****         }
 658:lp_solve_5.5/lp_MPS.c ****         else if(strcmp(tmp, "ENDATA") == 0) {
 5272               		.loc 1 658 0
 5273 2158 CE01      		movw r24,r28
 5274 215a 8A5D      		subi r24,-38
 5275 215c 9B4E      		sbci r25,-21
 5276 215e 60E0      		ldi r22,lo8(.LC37)
 5277 2160 70E0      		ldi r23,hi8(.LC37)
 5278 2162 0E94 0000 		call strcmp
 5279 2166 892B      		or r24,r25
 5280 2168 01F4      		brne .L170
 659:lp_solve_5.5/lp_MPS.c ****           report(lp, FULL, "Finished reading MPS file\n");
 5281               		.loc 1 659 0
 5282 216a 80E0      		ldi r24,lo8(.LC38)
 5283 216c 90E0      		ldi r25,hi8(.LC38)
 5284 216e 892F      		mov r24,r25
 5285 2170 8F93      		push r24
 5286 2172 80E0      		ldi r24,lo8(.LC38)
 5287 2174 90E0      		ldi r25,hi8(.LC38)
 5288 2176 8F93      		push r24
 5289 2178 1F92      		push __zero_reg__
 5290 217a 86E0      		ldi r24,lo8(6)
 5291 217c 8F93      		push r24
 5292 217e 8E89      		ldd r24,Y+22
 5293 2180 8F93      		push r24
 5294 2182 8D89      		ldd r24,Y+21
 5295 2184 8F93      		push r24
 5296 2186 0E94 0000 		call report
 5297 218a 0F90      		pop __tmp_reg__
 5298 218c 0F90      		pop __tmp_reg__
 5299 218e 0F90      		pop __tmp_reg__
 5300 2190 0F90      		pop __tmp_reg__
 5301 2192 0F90      		pop __tmp_reg__
 5302 2194 0F90      		pop __tmp_reg__
 660:lp_solve_5.5/lp_MPS.c ****           CompleteStatus = TRUE;
 5303               		.loc 1 660 0
 5304 2196 81E0      		ldi r24,lo8(1)
 5305 2198 8A8B      		std Y+18,r24
 661:lp_solve_5.5/lp_MPS.c ****           break;
 5306               		.loc 1 661 0
 5307 219a 0C94 0000 		jmp .L157
 5308               	.L170:
 662:lp_solve_5.5/lp_MPS.c ****         }
 663:lp_solve_5.5/lp_MPS.c ****         else { /* line does not start with space and does not match above */
 664:lp_solve_5.5/lp_MPS.c ****           report(lp, IMPORTANT, "Unrecognized MPS line %d: %s\n", Lineno, line);
 5309               		.loc 1 664 0
 5310 219e CE01      		movw r24,r28
 5311 21a0 8A5D      		subi r24,-38
 5312 21a2 9F4E      		sbci r25,-17
 5313 21a4 292F      		mov r18,r25
 5314 21a6 2F93      		push r18
 5315 21a8 8F93      		push r24
 5316 21aa 8E81      		ldd r24,Y+6
 5317 21ac 8F93      		push r24
 5318 21ae 8D81      		ldd r24,Y+5
 5319 21b0 8F93      		push r24
 5320 21b2 80E0      		ldi r24,lo8(.LC39)
 5321 21b4 90E0      		ldi r25,hi8(.LC39)
 5322 21b6 892F      		mov r24,r25
 5323 21b8 8F93      		push r24
 5324 21ba 80E0      		ldi r24,lo8(.LC39)
 5325 21bc 90E0      		ldi r25,hi8(.LC39)
 5326 21be 8F93      		push r24
 5327 21c0 1F92      		push __zero_reg__
 5328 21c2 83E0      		ldi r24,lo8(3)
 5329 21c4 8F93      		push r24
 5330 21c6 8E89      		ldd r24,Y+22
 5331 21c8 8F93      		push r24
 5332 21ca 8D89      		ldd r24,Y+21
 5333 21cc 8F93      		push r24
 5334 21ce 0E94 0000 		call report
 5335 21d2 8DB7      		in r24,__SP_L__
 5336 21d4 9EB7      		in r25,__SP_H__
 5337 21d6 0A96      		adiw r24,10
 5338 21d8 0FB6      		in __tmp_reg__,__SREG__
 5339 21da F894      		cli
 5340 21dc DEBF      		out __SP_H__,r29
 5341 21de 0FBE      		out __SREG__,__tmp_reg__
 5342 21e0 CDBF      		out __SP_L__,r28
 665:lp_solve_5.5/lp_MPS.c ****           break;
 5343               		.loc 1 665 0
 5344 21e2 0C94 0000 		jmp .L157
 5345               	.L154:
 666:lp_solve_5.5/lp_MPS.c ****         }
 667:lp_solve_5.5/lp_MPS.c ****       }
 668:lp_solve_5.5/lp_MPS.c ****       else { /* normal line, process */
 669:lp_solve_5.5/lp_MPS.c ****         items = scan_line(lp, section, line, field1, field2, field3, &field4, field5, &field6);
 5346               		.loc 1 669 0
 5347 21e6 5E01      		movw r10,r28
 5348 21e8 93ED      		ldi r25,-45
 5349 21ea A91A      		sub r10,r25
 5350 21ec 9BED      		ldi r25,-37
 5351 21ee B90A      		sbc r11,r25
 5352 21f0 6E01      		movw r12,r28
 5353 21f2 AAED      		ldi r26,-38
 5354 21f4 CA1A      		sub r12,r26
 5355 21f6 A3EF      		ldi r26,-13
 5356 21f8 DA0A      		sbc r13,r26
 5357 21fa 7E01      		movw r14,r28
 5358 21fc B7ED      		ldi r27,-41
 5359 21fe EB1A      		sub r14,r27
 5360 2200 BBED      		ldi r27,-37
 5361 2202 FB0A      		sbc r15,r27
 5362 2204 8E01      		movw r16,r28
 5363 2206 0A5D      		subi r16,-38
 5364 2208 174F      		sbci r17,-9
 5365 220a DE01      		movw r26,r28
 5366 220c AA5D      		subi r26,-38
 5367 220e BB4F      		sbci r27,-5
 5368 2210 9E01      		movw r18,r28
 5369 2212 2A5D      		subi r18,-38
 5370 2214 3F4F      		sbci r19,-1
 5371 2216 AE01      		movw r20,r28
 5372 2218 4A5D      		subi r20,-38
 5373 221a 5F4E      		sbci r21,-17
 5374 221c 6F81      		ldd r22,Y+7
 5375 221e 7885      		ldd r23,Y+8
 5376 2220 8D89      		ldd r24,Y+21
 5377 2222 9E89      		ldd r25,Y+22
 5378 2224 EF89      		ldd r30,Y+23
 5379 2226 F88D      		ldd r31,Y+24
 5380 2228 4501      		movw r8,r10
 5381 222a 5601      		movw r10,r12
 5382 222c 6701      		movw r12,r14
 5383 222e 7801      		movw r14,r16
 5384 2230 8D01      		movw r16,r26
 5385 2232 0995      		icall
 5386 2234 9C83      		std Y+4,r25
 5387 2236 8B83      		std Y+3,r24
 670:lp_solve_5.5/lp_MPS.c ****         if(items < 0){
 5388               		.loc 1 670 0
 5389 2238 8B81      		ldd r24,Y+3
 5390 223a 9C81      		ldd r25,Y+4
 5391 223c 9923      		tst r25
 5392 223e 04F4      		brge .L171
 671:lp_solve_5.5/lp_MPS.c ****           report(lp, IMPORTANT, "Syntax error on line %d: %s\n", Lineno, line);
 5393               		.loc 1 671 0
 5394 2240 CE01      		movw r24,r28
 5395 2242 8A5D      		subi r24,-38
 5396 2244 9F4E      		sbci r25,-17
 5397 2246 292F      		mov r18,r25
 5398 2248 2F93      		push r18
 5399 224a 8F93      		push r24
 5400 224c 8E81      		ldd r24,Y+6
 5401 224e 8F93      		push r24
 5402 2250 8D81      		ldd r24,Y+5
 5403 2252 8F93      		push r24
 5404 2254 80E0      		ldi r24,lo8(.LC40)
 5405 2256 90E0      		ldi r25,hi8(.LC40)
 5406 2258 892F      		mov r24,r25
 5407 225a 8F93      		push r24
 5408 225c 80E0      		ldi r24,lo8(.LC40)
 5409 225e 90E0      		ldi r25,hi8(.LC40)
 5410 2260 8F93      		push r24
 5411 2262 1F92      		push __zero_reg__
 5412 2264 83E0      		ldi r24,lo8(3)
 5413 2266 8F93      		push r24
 5414 2268 8E89      		ldd r24,Y+22
 5415 226a 8F93      		push r24
 5416 226c 8D89      		ldd r24,Y+21
 5417 226e 8F93      		push r24
 5418 2270 0E94 0000 		call report
 5419 2274 EDB7      		in r30,__SP_L__
 5420 2276 FEB7      		in r31,__SP_H__
 5421 2278 3A96      		adiw r30,10
 5422 227a 0FB6      		in __tmp_reg__,__SREG__
 5423 227c F894      		cli
 5424 227e DEBF      		out __SP_H__,r29
 5425 2280 0FBE      		out __SREG__,__tmp_reg__
 5426 2282 CDBF      		out __SP_L__,r28
 672:lp_solve_5.5/lp_MPS.c ****           break;
 5427               		.loc 1 672 0
 5428 2284 0C94 0000 		jmp .L157
 5429               	.L171:
 673:lp_solve_5.5/lp_MPS.c ****         }
 674:lp_solve_5.5/lp_MPS.c **** 
 675:lp_solve_5.5/lp_MPS.c ****         switch(section) {
 5430               		.loc 1 675 0
 5431 2288 8F81      		ldd r24,Y+7
 5432 228a 9885      		ldd r25,Y+8
 5433 228c 092E      		mov __tmp_reg__,r25
 5434 228e 000C      		lsl r0
 5435 2290 AA0B      		sbc r26,r26
 5436 2292 BB0B      		sbc r27,r27
 5437 2294 4DEF      		ldi r20,lo8(-3)
 5438 2296 5FEF      		ldi r21,lo8(-1)
 5439 2298 28E0      		ldi r18,lo8(8)
 5440 229a 30E0      		ldi r19,0
 5441 229c 841B      		sub r24,r20
 5442 229e 950B      		sbc r25,r21
 5443 22a0 2817      		cp r18,r24
 5444 22a2 3907      		cpc r19,r25
 5445 22a4 00F4      		brsh .+4
 5446 22a6 0C94 0000 		jmp .L172
 5447 22aa 8050      		subi r24,lo8(-(gs(.L174)))
 5448 22ac 9040      		sbci r25,hi8(-(gs(.L174)))
 5449 22ae FC01      		movw r30,r24
 5450 22b0 0C94 0000 		jmp __tablejump2__
 5451               		.section	.progmem.gcc_sw_table,"a",@progbits
 5452               		.p2align	1
 5453               	.L174:
 5454 0000 0000      		.word gs(.L173)
 5455 0002 0000      		.word gs(.L175)
 5456 0004 0000      		.word gs(.L176)
 5457 0006 0000      		.word gs(.L177)
 5458 0008 0000      		.word gs(.L178)
 5459 000a 0000      		.word gs(.L179)
 5460 000c 0000      		.word gs(.L180)
 5461 000e 0000      		.word gs(.L181)
 5462 0010 0000      		.word gs(.L182)
 5463               		.text
 5464               	.L173:
 676:lp_solve_5.5/lp_MPS.c **** 
 677:lp_solve_5.5/lp_MPS.c ****         case MPSNAME:
 678:lp_solve_5.5/lp_MPS.c ****           report(lp, IMPORTANT, "Error, extra line under NAME line\n");
 5465               		.loc 1 678 0
 5466 22b4 80E0      		ldi r24,lo8(.LC41)
 5467 22b6 90E0      		ldi r25,hi8(.LC41)
 5468 22b8 892F      		mov r24,r25
 5469 22ba 8F93      		push r24
 5470 22bc 80E0      		ldi r24,lo8(.LC41)
 5471 22be 90E0      		ldi r25,hi8(.LC41)
 5472 22c0 8F93      		push r24
 5473 22c2 1F92      		push __zero_reg__
 5474 22c4 83E0      		ldi r24,lo8(3)
 5475 22c6 8F93      		push r24
 5476 22c8 8E89      		ldd r24,Y+22
 5477 22ca 8F93      		push r24
 5478 22cc 8D89      		ldd r24,Y+21
 5479 22ce 8F93      		push r24
 5480 22d0 0E94 0000 		call report
 5481 22d4 0F90      		pop __tmp_reg__
 5482 22d6 0F90      		pop __tmp_reg__
 5483 22d8 0F90      		pop __tmp_reg__
 5484 22da 0F90      		pop __tmp_reg__
 5485 22dc 0F90      		pop __tmp_reg__
 5486 22de 0F90      		pop __tmp_reg__
 679:lp_solve_5.5/lp_MPS.c ****           break;
 5487               		.loc 1 679 0
 5488 22e0 0C94 0000 		jmp .L172
 5489               	.L175:
 680:lp_solve_5.5/lp_MPS.c **** 
 681:lp_solve_5.5/lp_MPS.c ****         case MPSOBJSENSE:
 682:lp_solve_5.5/lp_MPS.c ****           if(OBJSENSE != ROWTYPE_EMPTY) {
 5490               		.loc 1 682 0
 5491 22e4 8B89      		ldd r24,Y+19
 5492 22e6 9C89      		ldd r25,Y+20
 5493 22e8 892B      		or r24,r25
 5494 22ea 01F0      		breq .L183
 683:lp_solve_5.5/lp_MPS.c ****             report(lp, IMPORTANT, "Error, extra line under OBJSENSE line\n");
 5495               		.loc 1 683 0
 5496 22ec 80E0      		ldi r24,lo8(.LC42)
 5497 22ee 90E0      		ldi r25,hi8(.LC42)
 5498 22f0 892F      		mov r24,r25
 5499 22f2 8F93      		push r24
 5500 22f4 80E0      		ldi r24,lo8(.LC42)
 5501 22f6 90E0      		ldi r25,hi8(.LC42)
 5502 22f8 8F93      		push r24
 5503 22fa 1F92      		push __zero_reg__
 5504 22fc 83E0      		ldi r24,lo8(3)
 5505 22fe 8F93      		push r24
 5506 2300 8E89      		ldd r24,Y+22
 5507 2302 8F93      		push r24
 5508 2304 8D89      		ldd r24,Y+21
 5509 2306 8F93      		push r24
 5510 2308 0E94 0000 		call report
 5511 230c 0F90      		pop __tmp_reg__
 5512 230e 0F90      		pop __tmp_reg__
 5513 2310 0F90      		pop __tmp_reg__
 5514 2312 0F90      		pop __tmp_reg__
 5515 2314 0F90      		pop __tmp_reg__
 5516 2316 0F90      		pop __tmp_reg__
 684:lp_solve_5.5/lp_MPS.c ****             break;
 5517               		.loc 1 684 0
 5518 2318 0C94 0000 		jmp .L172
 5519               	.L183:
 685:lp_solve_5.5/lp_MPS.c ****           }
 686:lp_solve_5.5/lp_MPS.c ****           if((strcmp(field1, "MAXIMIZE") == 0) || (strcmp(field1, "MAX") == 0)) {
 5520               		.loc 1 686 0
 5521 231c CE01      		movw r24,r28
 5522 231e 8696      		adiw r24,38
 5523 2320 60E0      		ldi r22,lo8(.LC43)
 5524 2322 70E0      		ldi r23,hi8(.LC43)
 5525 2324 0E94 0000 		call strcmp
 5526 2328 892B      		or r24,r25
 5527 232a 01F0      		breq .L184
 5528               		.loc 1 686 0 is_stmt 0 discriminator 1
 5529 232c CE01      		movw r24,r28
 5530 232e 8696      		adiw r24,38
 5531 2330 60E0      		ldi r22,lo8(.LC44)
 5532 2332 70E0      		ldi r23,hi8(.LC44)
 5533 2334 0E94 0000 		call strcmp
 5534 2338 892B      		or r24,r25
 5535 233a 01F4      		brne .L185
 5536               	.L184:
 687:lp_solve_5.5/lp_MPS.c ****             OBJSENSE = ROWTYPE_OFMAX;
 5537               		.loc 1 687 0 is_stmt 1
 5538 233c 86E0      		ldi r24,lo8(6)
 5539 233e 90E0      		ldi r25,0
 5540 2340 9C8B      		std Y+20,r25
 5541 2342 8B8B      		std Y+19,r24
 688:lp_solve_5.5/lp_MPS.c ****             set_maxim(lp);
 5542               		.loc 1 688 0
 5543 2344 8D89      		ldd r24,Y+21
 5544 2346 9E89      		ldd r25,Y+22
 5545 2348 0E94 0000 		call set_maxim
 5546 234c 00C0      		rjmp .L186
 5547               	.L185:
 689:lp_solve_5.5/lp_MPS.c ****           }
 690:lp_solve_5.5/lp_MPS.c ****           else if((strcmp(field1, "MINIMIZE") == 0) || (strcmp(field1, "MIN") == 0)) {
 5548               		.loc 1 690 0
 5549 234e CE01      		movw r24,r28
 5550 2350 8696      		adiw r24,38
 5551 2352 60E0      		ldi r22,lo8(.LC45)
 5552 2354 70E0      		ldi r23,hi8(.LC45)
 5553 2356 0E94 0000 		call strcmp
 5554 235a 892B      		or r24,r25
 5555 235c 01F0      		breq .L187
 5556               		.loc 1 690 0 is_stmt 0 discriminator 1
 5557 235e CE01      		movw r24,r28
 5558 2360 8696      		adiw r24,38
 5559 2362 60E0      		ldi r22,lo8(.LC46)
 5560 2364 70E0      		ldi r23,hi8(.LC46)
 5561 2366 0E94 0000 		call strcmp
 5562 236a 892B      		or r24,r25
 5563 236c 01F4      		brne .L188
 5564               	.L187:
 691:lp_solve_5.5/lp_MPS.c ****             OBJSENSE = ROWTYPE_OFMIN;
 5565               		.loc 1 691 0 is_stmt 1
 5566 236e 85E0      		ldi r24,lo8(5)
 5567 2370 90E0      		ldi r25,0
 5568 2372 9C8B      		std Y+20,r25
 5569 2374 8B8B      		std Y+19,r24
 692:lp_solve_5.5/lp_MPS.c ****             set_minim(lp);
 5570               		.loc 1 692 0
 5571 2376 8D89      		ldd r24,Y+21
 5572 2378 9E89      		ldd r25,Y+22
 5573 237a 0E94 0000 		call set_minim
 5574 237e 00C0      		rjmp .L186
 5575               	.L188:
 693:lp_solve_5.5/lp_MPS.c ****           }
 694:lp_solve_5.5/lp_MPS.c ****           else {
 695:lp_solve_5.5/lp_MPS.c ****             report(lp, SEVERE, "Unknown OBJSENSE direction '%s' on line %d\n", field1, Lineno);
 5576               		.loc 1 695 0
 5577 2380 8E81      		ldd r24,Y+6
 5578 2382 8F93      		push r24
 5579 2384 8D81      		ldd r24,Y+5
 5580 2386 8F93      		push r24
 5581 2388 CE01      		movw r24,r28
 5582 238a 8696      		adiw r24,38
 5583 238c 292F      		mov r18,r25
 5584 238e 2F93      		push r18
 5585 2390 8F93      		push r24
 5586 2392 80E0      		ldi r24,lo8(.LC47)
 5587 2394 90E0      		ldi r25,hi8(.LC47)
 5588 2396 892F      		mov r24,r25
 5589 2398 8F93      		push r24
 5590 239a 80E0      		ldi r24,lo8(.LC47)
 5591 239c 90E0      		ldi r25,hi8(.LC47)
 5592 239e 8F93      		push r24
 5593 23a0 1F92      		push __zero_reg__
 5594 23a2 82E0      		ldi r24,lo8(2)
 5595 23a4 8F93      		push r24
 5596 23a6 8E89      		ldd r24,Y+22
 5597 23a8 8F93      		push r24
 5598 23aa 8D89      		ldd r24,Y+21
 5599 23ac 8F93      		push r24
 5600 23ae 0E94 0000 		call report
 5601 23b2 2DB7      		in r18,__SP_L__
 5602 23b4 3EB7      		in r19,__SP_H__
 5603 23b6 265F      		subi r18,-10
 5604 23b8 3F4F      		sbci r19,-1
 5605 23ba 0FB6      		in __tmp_reg__,__SREG__
 5606 23bc F894      		cli
 5607 23be DEBF      		out __SP_H__,r29
 5608 23c0 0FBE      		out __SREG__,__tmp_reg__
 5609 23c2 CDBF      		out __SP_L__,r28
 696:lp_solve_5.5/lp_MPS.c ****             break;
 5610               		.loc 1 696 0
 5611 23c4 0C94 0000 		jmp .L172
 5612               	.L186:
 697:lp_solve_5.5/lp_MPS.c ****           }
 698:lp_solve_5.5/lp_MPS.c ****           continue;
 5613               		.loc 1 698 0
 5614 23c8 0C94 0000 		jmp .L148
 5615               	.L176:
 699:lp_solve_5.5/lp_MPS.c **** 
 700:lp_solve_5.5/lp_MPS.c ****         case MPSOBJNAME:
 701:lp_solve_5.5/lp_MPS.c ****           if(*OBJNAME) {
 5616               		.loc 1 701 0
 5617 23cc CE01      		movw r24,r28
 5618 23ce 8A5D      		subi r24,-38
