   1               		.file	"lp_mipbb.c"
   2               	__SP_H__ = 0x3e
   3               	__SP_L__ = 0x3d
   4               	__SREG__ = 0x3f
   5               	__RAMPZ__ = 0x3b
   6               	__tmp_reg__ = 0
   7               	__zero_reg__ = 1
   8               		.text
   9               	.Ltext0:
  10               		.cfi_sections	.debug_frame
  11               	.global	create_BB
  13               	create_BB:
  14               	.LFB7:
  15               		.file 1 "lp_solve_5.5/lp_mipbb.c"
   1:lp_solve_5.5/lp_mipbb.c **** 
   2:lp_solve_5.5/lp_mipbb.c **** /*
   3:lp_solve_5.5/lp_mipbb.c ****     Mixed integer programming optimization drivers for lp_solve v5.0+
   4:lp_solve_5.5/lp_mipbb.c ****    ----------------------------------------------------------------------------------
   5:lp_solve_5.5/lp_mipbb.c ****     Author:        Michel Berkelaar (to lp_solve v3.2)
   6:lp_solve_5.5/lp_mipbb.c ****                    Kjell Eikland    (v4.0 and forward)
   7:lp_solve_5.5/lp_mipbb.c ****     Contact:
   8:lp_solve_5.5/lp_mipbb.c ****     License terms: LGPL.
   9:lp_solve_5.5/lp_mipbb.c **** 
  10:lp_solve_5.5/lp_mipbb.c ****     Requires:      string.h, float.h, commonlib.h, lp_lib.h, lp_report.h,
  11:lp_solve_5.5/lp_mipbb.c ****                    lp_simplex.h
  12:lp_solve_5.5/lp_mipbb.c **** 
  13:lp_solve_5.5/lp_mipbb.c ****     Release notes:
  14:lp_solve_5.5/lp_mipbb.c ****     v5.0.0 31 January 2004      New unit isolating B&B routines.
  15:lp_solve_5.5/lp_mipbb.c ****     v5.0.1 01 February 2004     Complete rewrite into non-recursive version.
  16:lp_solve_5.5/lp_mipbb.c ****     v5.0.2 05 April 2004        Expanded pseudocosting with options for MIP fraction
  17:lp_solve_5.5/lp_mipbb.c ****                                 counts and "cost/benefit" ratio (KE special!).
  18:lp_solve_5.5/lp_mipbb.c ****                                 Added GUB functionality based on SOS structures.
  19:lp_solve_5.5/lp_mipbb.c ****     v5.0.3    1 May 2004        Changed routine names to be more intuitive.
  20:lp_solve_5.5/lp_mipbb.c ****     v5.0.4    15 May 2004       Added functinality to pack bounds in order to
  21:lp_solve_5.5/lp_mipbb.c ****                                 conserve memory in B&B-processing large MIP models.
  22:lp_solve_5.5/lp_mipbb.c ****     v5.1.0    25 July 2004      Added functions for dynamic cut generation.
  23:lp_solve_5.5/lp_mipbb.c ****     v5.2.0    15 December 2004  Added functions for reduced cost variable fixing
  24:lp_solve_5.5/lp_mipbb.c ****                                 and converted to delta-model of B&B bound storage.
  25:lp_solve_5.5/lp_mipbb.c ****    ----------------------------------------------------------------------------------
  26:lp_solve_5.5/lp_mipbb.c **** */
  27:lp_solve_5.5/lp_mipbb.c **** 
  28:lp_solve_5.5/lp_mipbb.c **** #include <string.h>
  29:lp_solve_5.5/lp_mipbb.c **** #include <float.h>
  30:lp_solve_5.5/lp_mipbb.c **** #include "commonlib.h"
  31:lp_solve_5.5/lp_mipbb.c **** #include "lp_lib.h"
  32:lp_solve_5.5/lp_mipbb.c **** #include "lp_scale.h"
  33:lp_solve_5.5/lp_mipbb.c **** #include "lp_report.h"
  34:lp_solve_5.5/lp_mipbb.c **** #include "lp_simplex.h"
  35:lp_solve_5.5/lp_mipbb.c **** #include "lp_mipbb.h"
  36:lp_solve_5.5/lp_mipbb.c **** 
  37:lp_solve_5.5/lp_mipbb.c **** #ifdef FORTIFY
  38:lp_solve_5.5/lp_mipbb.c **** # include "lp_fortify.h"
  39:lp_solve_5.5/lp_mipbb.c **** #endif
  40:lp_solve_5.5/lp_mipbb.c **** 
  41:lp_solve_5.5/lp_mipbb.c **** 
  42:lp_solve_5.5/lp_mipbb.c **** /* Allocation routine for the BB record structure */
  43:lp_solve_5.5/lp_mipbb.c **** STATIC BBrec *create_BB(lprec *lp, BBrec *parentBB, MYBOOL dofullcopy)
  44:lp_solve_5.5/lp_mipbb.c **** {
  16               		.loc 1 44 0
  17               		.cfi_startproc
  18 0000 CF93      		push r28
  19               	.LCFI0:
  20               		.cfi_def_cfa_offset 3
  21               		.cfi_offset 28, -2
  22 0002 DF93      		push r29
  23               	.LCFI1:
  24               		.cfi_def_cfa_offset 4
  25               		.cfi_offset 29, -3
  26 0004 CDB7      		in r28,__SP_L__
  27 0006 DEB7      		in r29,__SP_H__
  28               	.LCFI2:
  29               		.cfi_def_cfa_register 28
  30 0008 2797      		sbiw r28,7
  31               	.LCFI3:
  32               		.cfi_def_cfa_offset 11
  33 000a 0FB6      		in __tmp_reg__,__SREG__
  34 000c F894      		cli
  35 000e DEBF      		out __SP_H__,r29
  36 0010 0FBE      		out __SREG__,__tmp_reg__
  37 0012 CDBF      		out __SP_L__,r28
  38               	/* prologue: function */
  39               	/* frame size = 7 */
  40               	/* stack size = 9 */
  41               	.L__stack_usage = 9
  42 0014 9C83      		std Y+4,r25
  43 0016 8B83      		std Y+3,r24
  44 0018 7E83      		std Y+6,r23
  45 001a 6D83      		std Y+5,r22
  46 001c 4F83      		std Y+7,r20
  45:lp_solve_5.5/lp_mipbb.c ****   BBrec *newBB;
  46:lp_solve_5.5/lp_mipbb.c **** 
  47:lp_solve_5.5/lp_mipbb.c ****   newBB = (BBrec *) calloc(1, sizeof(*newBB));
  47               		.loc 1 47 0
  48 001e 68E3      		ldi r22,lo8(56)
  49 0020 70E0      		ldi r23,0
  50 0022 81E0      		ldi r24,lo8(1)
  51 0024 90E0      		ldi r25,0
  52 0026 0E94 0000 		call calloc
  53 002a 9A83      		std Y+2,r25
  54 002c 8983      		std Y+1,r24
  48:lp_solve_5.5/lp_mipbb.c ****   if(newBB != NULL) {
  55               		.loc 1 48 0
  56 002e 8981      		ldd r24,Y+1
  57 0030 9A81      		ldd r25,Y+2
  58 0032 892B      		or r24,r25
  59 0034 01F4      		brne .+2
  60 0036 00C0      		rjmp .L2
  49:lp_solve_5.5/lp_mipbb.c **** 
  50:lp_solve_5.5/lp_mipbb.c ****     if(parentBB == NULL) {
  61               		.loc 1 50 0
  62 0038 8D81      		ldd r24,Y+5
  63 003a 9E81      		ldd r25,Y+6
  64 003c 892B      		or r24,r25
  65 003e 01F0      		breq .+2
  66 0040 00C0      		rjmp .L3
  51:lp_solve_5.5/lp_mipbb.c ****       allocREAL(lp, &newBB->upbo,  lp->sum + 1, FALSE);
  67               		.loc 1 51 0
  68 0042 8B81      		ldd r24,Y+3
  69 0044 9C81      		ldd r25,Y+4
  70 0046 8851      		subi r24,24
  71 0048 9E4F      		sbci r25,-2
  72 004a FC01      		movw r30,r24
  73 004c 8081      		ld r24,Z
  74 004e 9181      		ldd r25,Z+1
  75 0050 AC01      		movw r20,r24
  76 0052 4F5F      		subi r20,-1
  77 0054 5F4F      		sbci r21,-1
  78 0056 8981      		ldd r24,Y+1
  79 0058 9A81      		ldd r25,Y+2
  80 005a BC01      		movw r22,r24
  81 005c 605E      		subi r22,-32
  82 005e 7F4F      		sbci r23,-1
  83 0060 8B81      		ldd r24,Y+3
  84 0062 9C81      		ldd r25,Y+4
  85 0064 20E0      		ldi r18,0
  86 0066 0E94 0000 		call allocREAL
  52:lp_solve_5.5/lp_mipbb.c ****       allocREAL(lp, &newBB->lowbo, lp->sum + 1, FALSE);
  87               		.loc 1 52 0
  88 006a 8B81      		ldd r24,Y+3
  89 006c 9C81      		ldd r25,Y+4
  90 006e 8851      		subi r24,24
  91 0070 9E4F      		sbci r25,-2
  92 0072 FC01      		movw r30,r24
  93 0074 8081      		ld r24,Z
  94 0076 9181      		ldd r25,Z+1
  95 0078 AC01      		movw r20,r24
  96 007a 4F5F      		subi r20,-1
  97 007c 5F4F      		sbci r21,-1
  98 007e 8981      		ldd r24,Y+1
  99 0080 9A81      		ldd r25,Y+2
 100 0082 BC01      		movw r22,r24
 101 0084 6E5D      		subi r22,-34
 102 0086 7F4F      		sbci r23,-1
 103 0088 8B81      		ldd r24,Y+3
 104 008a 9C81      		ldd r25,Y+4
 105 008c 20E0      		ldi r18,0
 106 008e 0E94 0000 		call allocREAL
  53:lp_solve_5.5/lp_mipbb.c ****       MEMCOPY(newBB->upbo,  lp->orig_upbo,  lp->sum + 1);
 107               		.loc 1 53 0
 108 0092 8B81      		ldd r24,Y+3
 109 0094 9C81      		ldd r25,Y+4
 110 0096 8851      		subi r24,24
 111 0098 9E4F      		sbci r25,-2
 112 009a FC01      		movw r30,r24
 113 009c 8081      		ld r24,Z
 114 009e 9181      		ldd r25,Z+1
 115 00a0 0196      		adiw r24,1
 116 00a2 AC01      		movw r20,r24
 117 00a4 440F      		lsl r20
 118 00a6 551F      		rol r21
 119 00a8 440F      		lsl r20
 120 00aa 551F      		rol r21
 121 00ac 8B81      		ldd r24,Y+3
 122 00ae 9C81      		ldd r25,Y+4
 123 00b0 8255      		subi r24,82
 124 00b2 9D4F      		sbci r25,-3
 125 00b4 FC01      		movw r30,r24
 126 00b6 2081      		ld r18,Z
 127 00b8 3181      		ldd r19,Z+1
 128 00ba 8981      		ldd r24,Y+1
 129 00bc 9A81      		ldd r25,Y+2
 130 00be FC01      		movw r30,r24
 131 00c0 80A1      		ldd r24,Z+32
 132 00c2 91A1      		ldd r25,Z+33
 133 00c4 B901      		movw r22,r18
 134 00c6 0E94 0000 		call memcpy
  54:lp_solve_5.5/lp_mipbb.c ****       MEMCOPY(newBB->lowbo, lp->orig_lowbo, lp->sum + 1);
 135               		.loc 1 54 0
 136 00ca 8B81      		ldd r24,Y+3
 137 00cc 9C81      		ldd r25,Y+4
 138 00ce 8851      		subi r24,24
 139 00d0 9E4F      		sbci r25,-2
 140 00d2 FC01      		movw r30,r24
 141 00d4 8081      		ld r24,Z
 142 00d6 9181      		ldd r25,Z+1
 143 00d8 0196      		adiw r24,1
 144 00da AC01      		movw r20,r24
 145 00dc 440F      		lsl r20
 146 00de 551F      		rol r21
 147 00e0 440F      		lsl r20
 148 00e2 551F      		rol r21
 149 00e4 8B81      		ldd r24,Y+3
 150 00e6 9C81      		ldd r25,Y+4
 151 00e8 8E54      		subi r24,78
 152 00ea 9D4F      		sbci r25,-3
 153 00ec FC01      		movw r30,r24
 154 00ee 2081      		ld r18,Z
 155 00f0 3181      		ldd r19,Z+1
 156 00f2 8981      		ldd r24,Y+1
 157 00f4 9A81      		ldd r25,Y+2
 158 00f6 FC01      		movw r30,r24
 159 00f8 82A1      		ldd r24,Z+34
 160 00fa 93A1      		ldd r25,Z+35
 161 00fc B901      		movw r22,r18
 162 00fe 0E94 0000 		call memcpy
 163 0102 00C0      		rjmp .L4
 164               	.L3:
  55:lp_solve_5.5/lp_mipbb.c ****     }
  56:lp_solve_5.5/lp_mipbb.c ****     else if(dofullcopy) {
 165               		.loc 1 56 0
 166 0104 8F81      		ldd r24,Y+7
 167 0106 8823      		tst r24
 168 0108 01F4      		brne .+2
 169 010a 00C0      		rjmp .L5
  57:lp_solve_5.5/lp_mipbb.c ****       allocREAL(lp, &newBB->upbo,  lp->sum + 1, FALSE);
 170               		.loc 1 57 0
 171 010c 8B81      		ldd r24,Y+3
 172 010e 9C81      		ldd r25,Y+4
 173 0110 8851      		subi r24,24
 174 0112 9E4F      		sbci r25,-2
 175 0114 FC01      		movw r30,r24
 176 0116 8081      		ld r24,Z
 177 0118 9181      		ldd r25,Z+1
 178 011a AC01      		movw r20,r24
 179 011c 4F5F      		subi r20,-1
 180 011e 5F4F      		sbci r21,-1
 181 0120 8981      		ldd r24,Y+1
 182 0122 9A81      		ldd r25,Y+2
 183 0124 BC01      		movw r22,r24
 184 0126 605E      		subi r22,-32
 185 0128 7F4F      		sbci r23,-1
 186 012a 8B81      		ldd r24,Y+3
 187 012c 9C81      		ldd r25,Y+4
 188 012e 20E0      		ldi r18,0
 189 0130 0E94 0000 		call allocREAL
  58:lp_solve_5.5/lp_mipbb.c ****       allocREAL(lp, &newBB->lowbo, lp->sum + 1, FALSE);
 190               		.loc 1 58 0
 191 0134 8B81      		ldd r24,Y+3
 192 0136 9C81      		ldd r25,Y+4
 193 0138 8851      		subi r24,24
 194 013a 9E4F      		sbci r25,-2
 195 013c FC01      		movw r30,r24
 196 013e 8081      		ld r24,Z
 197 0140 9181      		ldd r25,Z+1
 198 0142 AC01      		movw r20,r24
 199 0144 4F5F      		subi r20,-1
 200 0146 5F4F      		sbci r21,-1
 201 0148 8981      		ldd r24,Y+1
 202 014a 9A81      		ldd r25,Y+2
 203 014c BC01      		movw r22,r24
 204 014e 6E5D      		subi r22,-34
 205 0150 7F4F      		sbci r23,-1
 206 0152 8B81      		ldd r24,Y+3
 207 0154 9C81      		ldd r25,Y+4
 208 0156 20E0      		ldi r18,0
 209 0158 0E94 0000 		call allocREAL
  59:lp_solve_5.5/lp_mipbb.c ****       MEMCOPY(newBB->upbo,  parentBB->upbo,  lp->sum + 1);
 210               		.loc 1 59 0
 211 015c 8B81      		ldd r24,Y+3
 212 015e 9C81      		ldd r25,Y+4
 213 0160 8851      		subi r24,24
 214 0162 9E4F      		sbci r25,-2
 215 0164 FC01      		movw r30,r24
 216 0166 8081      		ld r24,Z
 217 0168 9181      		ldd r25,Z+1
 218 016a 0196      		adiw r24,1
 219 016c AC01      		movw r20,r24
 220 016e 440F      		lsl r20
 221 0170 551F      		rol r21
 222 0172 440F      		lsl r20
 223 0174 551F      		rol r21
 224 0176 8D81      		ldd r24,Y+5
 225 0178 9E81      		ldd r25,Y+6
 226 017a FC01      		movw r30,r24
 227 017c 20A1      		ldd r18,Z+32
 228 017e 31A1      		ldd r19,Z+33
 229 0180 8981      		ldd r24,Y+1
 230 0182 9A81      		ldd r25,Y+2
 231 0184 FC01      		movw r30,r24
 232 0186 80A1      		ldd r24,Z+32
 233 0188 91A1      		ldd r25,Z+33
 234 018a B901      		movw r22,r18
 235 018c 0E94 0000 		call memcpy
  60:lp_solve_5.5/lp_mipbb.c ****       MEMCOPY(newBB->lowbo, parentBB->lowbo, lp->sum + 1);
 236               		.loc 1 60 0
 237 0190 8B81      		ldd r24,Y+3
 238 0192 9C81      		ldd r25,Y+4
 239 0194 8851      		subi r24,24
 240 0196 9E4F      		sbci r25,-2
 241 0198 FC01      		movw r30,r24
 242 019a 8081      		ld r24,Z
 243 019c 9181      		ldd r25,Z+1
 244 019e 0196      		adiw r24,1
 245 01a0 AC01      		movw r20,r24
 246 01a2 440F      		lsl r20
 247 01a4 551F      		rol r21
 248 01a6 440F      		lsl r20
 249 01a8 551F      		rol r21
 250 01aa 8D81      		ldd r24,Y+5
 251 01ac 9E81      		ldd r25,Y+6
 252 01ae FC01      		movw r30,r24
 253 01b0 22A1      		ldd r18,Z+34
 254 01b2 33A1      		ldd r19,Z+35
 255 01b4 8981      		ldd r24,Y+1
 256 01b6 9A81      		ldd r25,Y+2
 257 01b8 FC01      		movw r30,r24
 258 01ba 82A1      		ldd r24,Z+34
 259 01bc 93A1      		ldd r25,Z+35
 260 01be B901      		movw r22,r18
 261 01c0 0E94 0000 		call memcpy
 262 01c4 00C0      		rjmp .L4
 263               	.L5:
  61:lp_solve_5.5/lp_mipbb.c ****     }
  62:lp_solve_5.5/lp_mipbb.c ****     else {
  63:lp_solve_5.5/lp_mipbb.c ****       newBB->upbo  = parentBB->upbo;
 264               		.loc 1 63 0
 265 01c6 8D81      		ldd r24,Y+5
 266 01c8 9E81      		ldd r25,Y+6
 267 01ca FC01      		movw r30,r24
 268 01cc 20A1      		ldd r18,Z+32
 269 01ce 31A1      		ldd r19,Z+33
 270 01d0 8981      		ldd r24,Y+1
 271 01d2 9A81      		ldd r25,Y+2
 272 01d4 FC01      		movw r30,r24
 273 01d6 31A3      		std Z+33,r19
 274 01d8 20A3      		std Z+32,r18
  64:lp_solve_5.5/lp_mipbb.c ****       newBB->lowbo = parentBB->lowbo;
 275               		.loc 1 64 0
 276 01da 8D81      		ldd r24,Y+5
 277 01dc 9E81      		ldd r25,Y+6
 278 01de FC01      		movw r30,r24
 279 01e0 22A1      		ldd r18,Z+34
 280 01e2 33A1      		ldd r19,Z+35
 281 01e4 8981      		ldd r24,Y+1
 282 01e6 9A81      		ldd r25,Y+2
 283 01e8 FC01      		movw r30,r24
 284 01ea 33A3      		std Z+35,r19
 285 01ec 22A3      		std Z+34,r18
 286               	.L4:
  65:lp_solve_5.5/lp_mipbb.c ****     }
  66:lp_solve_5.5/lp_mipbb.c ****     newBB->contentmode = dofullcopy;
 287               		.loc 1 66 0
 288 01ee 8981      		ldd r24,Y+1
 289 01f0 9A81      		ldd r25,Y+2
 290 01f2 2F81      		ldd r18,Y+7
 291 01f4 FC01      		movw r30,r24
 292 01f6 20AB      		std Z+48,r18
  67:lp_solve_5.5/lp_mipbb.c **** 
  68:lp_solve_5.5/lp_mipbb.c ****     newBB->lp = lp;
 293               		.loc 1 68 0
 294 01f8 8981      		ldd r24,Y+1
 295 01fa 9A81      		ldd r25,Y+2
 296 01fc 2B81      		ldd r18,Y+3
 297 01fe 3C81      		ldd r19,Y+4
 298 0200 FC01      		movw r30,r24
 299 0202 3583      		std Z+5,r19
 300 0204 2483      		std Z+4,r18
  69:lp_solve_5.5/lp_mipbb.c **** 
  70:lp_solve_5.5/lp_mipbb.c ****     /* Set parent by default, but not child */
  71:lp_solve_5.5/lp_mipbb.c ****     newBB->parent = parentBB;
 301               		.loc 1 71 0
 302 0206 8981      		ldd r24,Y+1
 303 0208 9A81      		ldd r25,Y+2
 304 020a 2D81      		ldd r18,Y+5
 305 020c 3E81      		ldd r19,Y+6
 306 020e FC01      		movw r30,r24
 307 0210 3183      		std Z+1,r19
 308 0212 2083      		st Z,r18
 309               	.L2:
  72:lp_solve_5.5/lp_mipbb.c **** 
  73:lp_solve_5.5/lp_mipbb.c ****   }
  74:lp_solve_5.5/lp_mipbb.c ****   return( newBB );
 310               		.loc 1 74 0
 311 0214 8981      		ldd r24,Y+1
 312 0216 9A81      		ldd r25,Y+2
 313               	/* epilogue start */
  75:lp_solve_5.5/lp_mipbb.c **** }
 314               		.loc 1 75 0
 315 0218 2796      		adiw r28,7
 316 021a 0FB6      		in __tmp_reg__,__SREG__
 317 021c F894      		cli
 318 021e DEBF      		out __SP_H__,r29
 319 0220 0FBE      		out __SREG__,__tmp_reg__
 320 0222 CDBF      		out __SP_L__,r28
 321 0224 DF91      		pop r29
 322 0226 CF91      		pop r28
 323 0228 0895      		ret
 324               		.cfi_endproc
 325               	.LFE7:
 327               	.global	__ltsf2
 328               	.global	__gtsf2
 329               	.global	__eqsf2
 330               		.section	.rodata
 331               	.LC0:
 332 0000 7075 7368 		.string	"push_BB: Used reduced cost to fix %d variables and tighten %d bounds\n"
 332      5F42 423A 
 332      2055 7365 
 332      6420 7265 
 332      6475 6365 
 333               		.text
 334               	.global	push_BB
 336               	push_BB:
 337               	.LFB8:
  76:lp_solve_5.5/lp_mipbb.c **** 
  77:lp_solve_5.5/lp_mipbb.c **** 
  78:lp_solve_5.5/lp_mipbb.c **** /* Pushing and popping routines for the B&B structure */
  79:lp_solve_5.5/lp_mipbb.c **** 
  80:lp_solve_5.5/lp_mipbb.c **** STATIC BBrec *push_BB(lprec *lp, BBrec *parentBB, int varno, int vartype, int varcus)
  81:lp_solve_5.5/lp_mipbb.c **** /* Push ingoing bounds and B&B data onto the stack */
  82:lp_solve_5.5/lp_mipbb.c **** {
 338               		.loc 1 82 0
 339               		.cfi_startproc
 340 022a 0F93      		push r16
 341               	.LCFI4:
 342               		.cfi_def_cfa_offset 3
 343               		.cfi_offset 16, -2
 344 022c 1F93      		push r17
 345               	.LCFI5:
 346               		.cfi_def_cfa_offset 4
 347               		.cfi_offset 17, -3
 348 022e CF93      		push r28
 349               	.LCFI6:
 350               		.cfi_def_cfa_offset 5
 351               		.cfi_offset 28, -4
 352 0230 DF93      		push r29
 353               	.LCFI7:
 354               		.cfi_def_cfa_offset 6
 355               		.cfi_offset 29, -5
 356 0232 CDB7      		in r28,__SP_L__
 357 0234 DEB7      		in r29,__SP_H__
 358               	.LCFI8:
 359               		.cfi_def_cfa_register 28
 360 0236 6B97      		sbiw r28,27
 361               	.LCFI9:
 362               		.cfi_def_cfa_offset 33
 363 0238 0FB6      		in __tmp_reg__,__SREG__
 364 023a F894      		cli
 365 023c DEBF      		out __SP_H__,r29
 366 023e 0FBE      		out __SREG__,__tmp_reg__
 367 0240 CDBF      		out __SP_L__,r28
 368               	/* prologue: function */
 369               	/* frame size = 27 */
 370               	/* stack size = 31 */
 371               	.L__stack_usage = 31
 372 0242 998B      		std Y+17,r25
 373 0244 888B      		std Y+16,r24
 374 0246 7B8B      		std Y+19,r23
 375 0248 6A8B      		std Y+18,r22
 376 024a 5D8B      		std Y+21,r21
 377 024c 4C8B      		std Y+20,r20
 378 024e 3F8B      		std Y+23,r19
 379 0250 2E8B      		std Y+22,r18
 380 0252 198F      		std Y+25,r17
 381 0254 088F      		std Y+24,r16
  83:lp_solve_5.5/lp_mipbb.c ****   BBrec *newBB;
  84:lp_solve_5.5/lp_mipbb.c **** 
  85:lp_solve_5.5/lp_mipbb.c ****   /* Do initialization and updates */
  86:lp_solve_5.5/lp_mipbb.c ****   if(parentBB == NULL)
 382               		.loc 1 86 0
 383 0256 8A89      		ldd r24,Y+18
 384 0258 9B89      		ldd r25,Y+19
 385 025a 892B      		or r24,r25
 386 025c 01F4      		brne .L8
  87:lp_solve_5.5/lp_mipbb.c ****     parentBB = lp->bb_bounds;
 387               		.loc 1 87 0
 388 025e 8889      		ldd r24,Y+16
 389 0260 9989      		ldd r25,Y+17
 390 0262 8654      		subi r24,70
 391 0264 9D4F      		sbci r25,-3
 392 0266 FC01      		movw r30,r24
 393 0268 8081      		ld r24,Z
 394 026a 9181      		ldd r25,Z+1
 395 026c 9B8B      		std Y+19,r25
 396 026e 8A8B      		std Y+18,r24
 397               	.L8:
  88:lp_solve_5.5/lp_mipbb.c ****   newBB = create_BB(lp, parentBB, FALSE);
 398               		.loc 1 88 0
 399 0270 2A89      		ldd r18,Y+18
 400 0272 3B89      		ldd r19,Y+19
 401 0274 8889      		ldd r24,Y+16
 402 0276 9989      		ldd r25,Y+17
 403 0278 40E0      		ldi r20,0
 404 027a B901      		movw r22,r18
 405 027c 0E94 0000 		call create_BB
 406 0280 9A83      		std Y+2,r25
 407 0282 8983      		std Y+1,r24
  89:lp_solve_5.5/lp_mipbb.c ****   if(newBB != NULL) {
 408               		.loc 1 89 0
 409 0284 8981      		ldd r24,Y+1
 410 0286 9A81      		ldd r25,Y+2
 411 0288 892B      		or r24,r25
 412 028a 01F4      		brne .+2
 413 028c 00C0      		rjmp .L9
  90:lp_solve_5.5/lp_mipbb.c **** 
  91:lp_solve_5.5/lp_mipbb.c ****     newBB->varno = varno;
 414               		.loc 1 91 0
 415 028e 8981      		ldd r24,Y+1
 416 0290 9A81      		ldd r25,Y+2
 417 0292 2C89      		ldd r18,Y+20
 418 0294 3D89      		ldd r19,Y+21
 419 0296 FC01      		movw r30,r24
 420 0298 3783      		std Z+7,r19
 421 029a 2683      		std Z+6,r18
  92:lp_solve_5.5/lp_mipbb.c ****     newBB->vartype = vartype;
 422               		.loc 1 92 0
 423 029c 8981      		ldd r24,Y+1
 424 029e 9A81      		ldd r25,Y+2
 425 02a0 2E89      		ldd r18,Y+22
 426 02a2 3F89      		ldd r19,Y+23
 427 02a4 FC01      		movw r30,r24
 428 02a6 3187      		std Z+9,r19
 429 02a8 2087      		std Z+8,r18
  93:lp_solve_5.5/lp_mipbb.c ****     newBB->lastvarcus = varcus;
 430               		.loc 1 93 0
 431 02aa 8981      		ldd r24,Y+1
 432 02ac 9A81      		ldd r25,Y+2
 433 02ae 288D      		ldd r18,Y+24
 434 02b0 398D      		ldd r19,Y+25
 435 02b2 FC01      		movw r30,r24
 436 02b4 3387      		std Z+11,r19
 437 02b6 2287      		std Z+10,r18
  94:lp_solve_5.5/lp_mipbb.c ****     incrementUndoLadder(lp->bb_lowerchange);
 438               		.loc 1 94 0
 439 02b8 8889      		ldd r24,Y+16
 440 02ba 9989      		ldd r25,Y+17
 441 02bc 845B      		subi r24,-76
 442 02be 9C4F      		sbci r25,-4
 443 02c0 FC01      		movw r30,r24
 444 02c2 8081      		ld r24,Z
 445 02c4 9181      		ldd r25,Z+1
 446 02c6 0E94 0000 		call incrementUndoLadder
  95:lp_solve_5.5/lp_mipbb.c ****     newBB->LBtrack++;
 447               		.loc 1 95 0
 448 02ca 8981      		ldd r24,Y+1
 449 02cc 9A81      		ldd r25,Y+2
 450 02ce FC01      		movw r30,r24
 451 02d0 86A5      		ldd r24,Z+46
 452 02d2 97A5      		ldd r25,Z+47
 453 02d4 9C01      		movw r18,r24
 454 02d6 2F5F      		subi r18,-1
 455 02d8 3F4F      		sbci r19,-1
 456 02da 8981      		ldd r24,Y+1
 457 02dc 9A81      		ldd r25,Y+2
 458 02de FC01      		movw r30,r24
 459 02e0 37A7      		std Z+47,r19
 460 02e2 26A7      		std Z+46,r18
  96:lp_solve_5.5/lp_mipbb.c ****     incrementUndoLadder(lp->bb_upperchange);
 461               		.loc 1 96 0
 462 02e4 8889      		ldd r24,Y+16
 463 02e6 9989      		ldd r25,Y+17
 464 02e8 865B      		subi r24,-74
 465 02ea 9C4F      		sbci r25,-4
 466 02ec FC01      		movw r30,r24
 467 02ee 8081      		ld r24,Z
 468 02f0 9181      		ldd r25,Z+1
 469 02f2 0E94 0000 		call incrementUndoLadder
  97:lp_solve_5.5/lp_mipbb.c ****     newBB->UBtrack++;
 470               		.loc 1 97 0
 471 02f6 8981      		ldd r24,Y+1
 472 02f8 9A81      		ldd r25,Y+2
 473 02fa FC01      		movw r30,r24
 474 02fc 84A5      		ldd r24,Z+44
 475 02fe 95A5      		ldd r25,Z+45
 476 0300 9C01      		movw r18,r24
 477 0302 2F5F      		subi r18,-1
 478 0304 3F4F      		sbci r19,-1
 479 0306 8981      		ldd r24,Y+1
 480 0308 9A81      		ldd r25,Y+2
 481 030a FC01      		movw r30,r24
 482 030c 35A7      		std Z+45,r19
 483 030e 24A7      		std Z+44,r18
  98:lp_solve_5.5/lp_mipbb.c **** 
  99:lp_solve_5.5/lp_mipbb.c ****     /* Adjust variable fixing/bound tightening based on the last reduced cost */
 100:lp_solve_5.5/lp_mipbb.c ****     if((parentBB != NULL) && (parentBB->lastrcf > 0)) {
 484               		.loc 1 100 0
 485 0310 8A89      		ldd r24,Y+18
 486 0312 9B89      		ldd r25,Y+19
 487 0314 892B      		or r24,r25
 488 0316 01F4      		brne .+2
 489 0318 00C0      		rjmp .L10
 490               		.loc 1 100 0 is_stmt 0 discriminator 1
 491 031a 8A89      		ldd r24,Y+18
 492 031c 9B89      		ldd r25,Y+19
 493 031e FC01      		movw r30,r24
 494 0320 8485      		ldd r24,Z+12
 495 0322 9585      		ldd r25,Z+13
 496 0324 1816      		cp __zero_reg__,r24
 497 0326 1906      		cpc __zero_reg__,r25
 498 0328 04F0      		brlt .+2
 499 032a 00C0      		rjmp .L10
 500               	.LBB2:
 101:lp_solve_5.5/lp_mipbb.c ****       MYBOOL isINT;
 102:lp_solve_5.5/lp_mipbb.c ****       int    k, ii, nfixed = 0, ntighten = 0;
 501               		.loc 1 102 0 is_stmt 1
 502 032c 1E82      		std Y+6,__zero_reg__
 503 032e 1D82      		std Y+5,__zero_reg__
 504 0330 1886      		std Y+8,__zero_reg__
 505 0332 1F82      		std Y+7,__zero_reg__
 103:lp_solve_5.5/lp_mipbb.c ****       REAL   deltaUL;
 104:lp_solve_5.5/lp_mipbb.c **** 
 105:lp_solve_5.5/lp_mipbb.c ****       for(k = 1; k <= lp->nzdrow[0]; k++) {
 506               		.loc 1 105 0
 507 0334 81E0      		ldi r24,lo8(1)
 508 0336 90E0      		ldi r25,0
 509 0338 9C83      		std Y+4,r25
 510 033a 8B83      		std Y+3,r24
 511 033c 00C0      		rjmp .L11
 512               	.L29:
 106:lp_solve_5.5/lp_mipbb.c ****         ii = lp->nzdrow[k];
 513               		.loc 1 106 0
 514 033e 8889      		ldd r24,Y+16
 515 0340 9989      		ldd r25,Y+17
 516 0342 845E      		subi r24,-28
 517 0344 9D4F      		sbci r25,-3
 518 0346 FC01      		movw r30,r24
 519 0348 2081      		ld r18,Z
 520 034a 3181      		ldd r19,Z+1
 521 034c 8B81      		ldd r24,Y+3
 522 034e 9C81      		ldd r25,Y+4
 523 0350 880F      		lsl r24
 524 0352 991F      		rol r25
 525 0354 820F      		add r24,r18
 526 0356 931F      		adc r25,r19
 527 0358 FC01      		movw r30,r24
 528 035a 8081      		ld r24,Z
 529 035c 9181      		ldd r25,Z+1
 530 035e 9A87      		std Y+10,r25
 531 0360 8987      		std Y+9,r24
 107:lp_solve_5.5/lp_mipbb.c **** #ifdef UseMilpSlacksRCF  /* Check if we should include ranged constraints */
 108:lp_solve_5.5/lp_mipbb.c ****         isINT = FALSE;
 109:lp_solve_5.5/lp_mipbb.c **** #else
 110:lp_solve_5.5/lp_mipbb.c ****         if(ii <= lp->rows)
 532               		.loc 1 110 0
 533 0362 8889      		ldd r24,Y+16
 534 0364 9989      		ldd r25,Y+17
 535 0366 8651      		subi r24,22
 536 0368 9E4F      		sbci r25,-2
 537 036a FC01      		movw r30,r24
 538 036c 2081      		ld r18,Z
 539 036e 3181      		ldd r19,Z+1
 540 0370 8985      		ldd r24,Y+9
 541 0372 9A85      		ldd r25,Y+10
 542 0374 2817      		cp r18,r24
 543 0376 3907      		cpc r19,r25
 544 0378 04F0      		brlt .+2
 545 037a 00C0      		rjmp .L45
 111:lp_solve_5.5/lp_mipbb.c ****           continue;
 112:lp_solve_5.5/lp_mipbb.c ****         isINT = is_int(lp, ii-lp->rows);
 546               		.loc 1 112 0
 547 037c 8889      		ldd r24,Y+16
 548 037e 9989      		ldd r25,Y+17
 549 0380 8651      		subi r24,22
 550 0382 9E4F      		sbci r25,-2
 551 0384 FC01      		movw r30,r24
 552 0386 8081      		ld r24,Z
 553 0388 9181      		ldd r25,Z+1
 554 038a 2985      		ldd r18,Y+9
 555 038c 3A85      		ldd r19,Y+10
 556 038e 281B      		sub r18,r24
 557 0390 390B      		sbc r19,r25
 558 0392 8889      		ldd r24,Y+16
 559 0394 9989      		ldd r25,Y+17
 560 0396 B901      		movw r22,r18
 561 0398 0E94 0000 		call is_int
 562 039c 8B87      		std Y+11,r24
 113:lp_solve_5.5/lp_mipbb.c **** #endif
 114:lp_solve_5.5/lp_mipbb.c **** #ifndef UseMilpExpandedRCF  /* Don't include non-integers if it is not defined */
 115:lp_solve_5.5/lp_mipbb.c ****         if(!isINT)
 116:lp_solve_5.5/lp_mipbb.c ****           continue;
 117:lp_solve_5.5/lp_mipbb.c **** #endif
 118:lp_solve_5.5/lp_mipbb.c ****         switch(abs(rcfbound_BB(newBB, ii, isINT, &deltaUL, NULL))) {
 563               		.loc 1 118 0
 564 039e 9E01      		movw r18,r28
 565 03a0 245F      		subi r18,-12
 566 03a2 3F4F      		sbci r19,-1
 567 03a4 6985      		ldd r22,Y+9
 568 03a6 7A85      		ldd r23,Y+10
 569 03a8 8981      		ldd r24,Y+1
 570 03aa 9A81      		ldd r25,Y+2
 571 03ac 00E0      		ldi r16,0
 572 03ae 10E0      		ldi r17,0
 573 03b0 4B85      		ldd r20,Y+11
 574 03b2 0E94 0000 		call rcfbound_BB
 575 03b6 9923      		tst r25
 576 03b8 04F4      		brge .L14
 577 03ba 9195      		neg r25
 578 03bc 8195      		neg r24
 579 03be 9109      		sbc r25,__zero_reg__
 580               	.L14:
 581 03c0 8130      		cpi r24,1
 582 03c2 9105      		cpc r25,__zero_reg__
 583 03c4 01F0      		breq .L16
 584 03c6 0297      		sbiw r24,2
 585 03c8 01F4      		brne .+2
 586 03ca 00C0      		rjmp .L17
 119:lp_solve_5.5/lp_mipbb.c ****           case LE: SETMIN(deltaUL, newBB->upbo[ii]);
 120:lp_solve_5.5/lp_mipbb.c ****                    SETMAX(deltaUL, newBB->lowbo[ii]);
 121:lp_solve_5.5/lp_mipbb.c ****                    modifyUndoLadder(lp->bb_upperchange, ii, newBB->upbo, deltaUL);
 122:lp_solve_5.5/lp_mipbb.c ****                    break;
 123:lp_solve_5.5/lp_mipbb.c ****           case GE: SETMAX(deltaUL, newBB->lowbo[ii]);
 124:lp_solve_5.5/lp_mipbb.c ****                    SETMIN(deltaUL, newBB->upbo[ii]);
 125:lp_solve_5.5/lp_mipbb.c ****                    modifyUndoLadder(lp->bb_lowerchange, ii, newBB->lowbo, deltaUL);
 126:lp_solve_5.5/lp_mipbb.c ****                    break;
 127:lp_solve_5.5/lp_mipbb.c ****           default: continue;
 587               		.loc 1 127 0
 588 03cc 00C0      		rjmp .L13
 589               	.L16:
 119:lp_solve_5.5/lp_mipbb.c ****           case LE: SETMIN(deltaUL, newBB->upbo[ii]);
 590               		.loc 1 119 0
 591 03ce 8981      		ldd r24,Y+1
 592 03d0 9A81      		ldd r25,Y+2
 593 03d2 FC01      		movw r30,r24
 594 03d4 20A1      		ldd r18,Z+32
 595 03d6 31A1      		ldd r19,Z+33
 596 03d8 8985      		ldd r24,Y+9
 597 03da 9A85      		ldd r25,Y+10
 598 03dc 880F      		lsl r24
 599 03de 991F      		rol r25
 600 03e0 880F      		lsl r24
 601 03e2 991F      		rol r25
 602 03e4 820F      		add r24,r18
 603 03e6 931F      		adc r25,r19
 604 03e8 FC01      		movw r30,r24
 605 03ea 8081      		ld r24,Z
 606 03ec 9181      		ldd r25,Z+1
 607 03ee A281      		ldd r26,Z+2
 608 03f0 B381      		ldd r27,Z+3
 609 03f2 2C85      		ldd r18,Y+12
 610 03f4 3D85      		ldd r19,Y+13
 611 03f6 4E85      		ldd r20,Y+14
 612 03f8 5F85      		ldd r21,Y+15
 613 03fa BC01      		movw r22,r24
 614 03fc CD01      		movw r24,r26
 615 03fe 0E94 0000 		call __ltsf2
 616 0402 8823      		tst r24
 617 0404 04F4      		brge .L18
 119:lp_solve_5.5/lp_mipbb.c ****           case LE: SETMIN(deltaUL, newBB->upbo[ii]);
 618               		.loc 1 119 0 is_stmt 0 discriminator 1
 619 0406 8981      		ldd r24,Y+1
 620 0408 9A81      		ldd r25,Y+2
 621 040a FC01      		movw r30,r24
 622 040c 20A1      		ldd r18,Z+32
 623 040e 31A1      		ldd r19,Z+33
 624 0410 8985      		ldd r24,Y+9
 625 0412 9A85      		ldd r25,Y+10
 626 0414 880F      		lsl r24
 627 0416 991F      		rol r25
 628 0418 880F      		lsl r24
 629 041a 991F      		rol r25
 630 041c 820F      		add r24,r18
 631 041e 931F      		adc r25,r19
 632 0420 FC01      		movw r30,r24
 633 0422 8081      		ld r24,Z
 634 0424 9181      		ldd r25,Z+1
 635 0426 A281      		ldd r26,Z+2
 636 0428 B381      		ldd r27,Z+3
 637 042a 8C87      		std Y+12,r24
 638 042c 9D87      		std Y+13,r25
 639 042e AE87      		std Y+14,r26
 640 0430 BF87      		std Y+15,r27
 641               	.L18:
 120:lp_solve_5.5/lp_mipbb.c ****                    modifyUndoLadder(lp->bb_upperchange, ii, newBB->upbo, deltaUL);
 642               		.loc 1 120 0 is_stmt 1
 643 0432 8981      		ldd r24,Y+1
 644 0434 9A81      		ldd r25,Y+2
 645 0436 FC01      		movw r30,r24
 646 0438 22A1      		ldd r18,Z+34
 647 043a 33A1      		ldd r19,Z+35
 648 043c 8985      		ldd r24,Y+9
 649 043e 9A85      		ldd r25,Y+10
 650 0440 880F      		lsl r24
 651 0442 991F      		rol r25
 652 0444 880F      		lsl r24
 653 0446 991F      		rol r25
 654 0448 820F      		add r24,r18
 655 044a 931F      		adc r25,r19
 656 044c FC01      		movw r30,r24
 657 044e 8081      		ld r24,Z
 658 0450 9181      		ldd r25,Z+1
 659 0452 A281      		ldd r26,Z+2
 660 0454 B381      		ldd r27,Z+3
 661 0456 2C85      		ldd r18,Y+12
 662 0458 3D85      		ldd r19,Y+13
 663 045a 4E85      		ldd r20,Y+14
 664 045c 5F85      		ldd r21,Y+15
 665 045e BC01      		movw r22,r24
 666 0460 CD01      		movw r24,r26
 667 0462 0E94 0000 		call __gtsf2
 668 0466 1816      		cp __zero_reg__,r24
 669 0468 04F4      		brge .L20
 120:lp_solve_5.5/lp_mipbb.c ****                    modifyUndoLadder(lp->bb_upperchange, ii, newBB->upbo, deltaUL);
 670               		.loc 1 120 0 is_stmt 0 discriminator 1
 671 046a 8981      		ldd r24,Y+1
 672 046c 9A81      		ldd r25,Y+2
 673 046e FC01      		movw r30,r24
 674 0470 22A1      		ldd r18,Z+34
 675 0472 33A1      		ldd r19,Z+35
 676 0474 8985      		ldd r24,Y+9
 677 0476 9A85      		ldd r25,Y+10
 678 0478 880F      		lsl r24
 679 047a 991F      		rol r25
 680 047c 880F      		lsl r24
 681 047e 991F      		rol r25
 682 0480 820F      		add r24,r18
 683 0482 931F      		adc r25,r19
 684 0484 FC01      		movw r30,r24
 685 0486 8081      		ld r24,Z
 686 0488 9181      		ldd r25,Z+1
 687 048a A281      		ldd r26,Z+2
 688 048c B381      		ldd r27,Z+3
 689 048e 8C87      		std Y+12,r24
 690 0490 9D87      		std Y+13,r25
 691 0492 AE87      		std Y+14,r26
 692 0494 BF87      		std Y+15,r27
 693               	.L20:
 121:lp_solve_5.5/lp_mipbb.c ****                    break;
 694               		.loc 1 121 0 is_stmt 1
 695 0496 8C85      		ldd r24,Y+12
 696 0498 9D85      		ldd r25,Y+13
 697 049a AE85      		ldd r26,Y+14
 698 049c BF85      		ldd r27,Y+15
 699 049e 2981      		ldd r18,Y+1
 700 04a0 3A81      		ldd r19,Y+2
 701 04a2 F901      		movw r30,r18
 702 04a4 40A1      		ldd r20,Z+32
 703 04a6 51A1      		ldd r21,Z+33
 704 04a8 2889      		ldd r18,Y+16
 705 04aa 3989      		ldd r19,Y+17
 706 04ac 265B      		subi r18,-74
 707 04ae 3C4F      		sbci r19,-4
 708 04b0 F901      		movw r30,r18
 709 04b2 0190      		ld __tmp_reg__,Z+
 710 04b4 F081      		ld r31,Z
 711 04b6 E02D      		mov r30,__tmp_reg__
 712 04b8 FB8F      		std Y+27,r31
 713 04ba EA8F      		std Y+26,r30
 714 04bc 6985      		ldd r22,Y+9
 715 04be 7A85      		ldd r23,Y+10
 716 04c0 8C01      		movw r16,r24
 717 04c2 9D01      		movw r18,r26
 718 04c4 8A8D      		ldd r24,Y+26
 719 04c6 9B8D      		ldd r25,Y+27
 720 04c8 0E94 0000 		call modifyUndoLadder
 122:lp_solve_5.5/lp_mipbb.c ****           case GE: SETMAX(deltaUL, newBB->lowbo[ii]);
 721               		.loc 1 122 0
 722 04cc 00C0      		rjmp .L22
 723               	.L17:
 123:lp_solve_5.5/lp_mipbb.c ****                    SETMIN(deltaUL, newBB->upbo[ii]);
 724               		.loc 1 123 0
 725 04ce 8981      		ldd r24,Y+1
 726 04d0 9A81      		ldd r25,Y+2
 727 04d2 FC01      		movw r30,r24
 728 04d4 22A1      		ldd r18,Z+34
 729 04d6 33A1      		ldd r19,Z+35
 730 04d8 8985      		ldd r24,Y+9
 731 04da 9A85      		ldd r25,Y+10
 732 04dc 880F      		lsl r24
 733 04de 991F      		rol r25
 734 04e0 880F      		lsl r24
 735 04e2 991F      		rol r25
 736 04e4 820F      		add r24,r18
 737 04e6 931F      		adc r25,r19
 738 04e8 FC01      		movw r30,r24
 739 04ea 8081      		ld r24,Z
 740 04ec 9181      		ldd r25,Z+1
 741 04ee A281      		ldd r26,Z+2
 742 04f0 B381      		ldd r27,Z+3
 743 04f2 2C85      		ldd r18,Y+12
 744 04f4 3D85      		ldd r19,Y+13
 745 04f6 4E85      		ldd r20,Y+14
 746 04f8 5F85      		ldd r21,Y+15
 747 04fa BC01      		movw r22,r24
 748 04fc CD01      		movw r24,r26
 749 04fe 0E94 0000 		call __gtsf2
 750 0502 1816      		cp __zero_reg__,r24
 751 0504 04F4      		brge .L23
 123:lp_solve_5.5/lp_mipbb.c ****                    SETMIN(deltaUL, newBB->upbo[ii]);
 752               		.loc 1 123 0 is_stmt 0 discriminator 1
 753 0506 8981      		ldd r24,Y+1
 754 0508 9A81      		ldd r25,Y+2
 755 050a FC01      		movw r30,r24
 756 050c 22A1      		ldd r18,Z+34
 757 050e 33A1      		ldd r19,Z+35
 758 0510 8985      		ldd r24,Y+9
 759 0512 9A85      		ldd r25,Y+10
 760 0514 880F      		lsl r24
 761 0516 991F      		rol r25
 762 0518 880F      		lsl r24
 763 051a 991F      		rol r25
 764 051c 820F      		add r24,r18
 765 051e 931F      		adc r25,r19
 766 0520 FC01      		movw r30,r24
 767 0522 8081      		ld r24,Z
 768 0524 9181      		ldd r25,Z+1
 769 0526 A281      		ldd r26,Z+2
 770 0528 B381      		ldd r27,Z+3
 771 052a 8C87      		std Y+12,r24
 772 052c 9D87      		std Y+13,r25
 773 052e AE87      		std Y+14,r26
 774 0530 BF87      		std Y+15,r27
 775               	.L23:
 124:lp_solve_5.5/lp_mipbb.c ****                    modifyUndoLadder(lp->bb_lowerchange, ii, newBB->lowbo, deltaUL);
 776               		.loc 1 124 0 is_stmt 1
 777 0532 8981      		ldd r24,Y+1
 778 0534 9A81      		ldd r25,Y+2
 779 0536 FC01      		movw r30,r24
 780 0538 20A1      		ldd r18,Z+32
 781 053a 31A1      		ldd r19,Z+33
 782 053c 8985      		ldd r24,Y+9
 783 053e 9A85      		ldd r25,Y+10
 784 0540 880F      		lsl r24
 785 0542 991F      		rol r25
 786 0544 880F      		lsl r24
 787 0546 991F      		rol r25
 788 0548 820F      		add r24,r18
 789 054a 931F      		adc r25,r19
 790 054c FC01      		movw r30,r24
 791 054e 8081      		ld r24,Z
 792 0550 9181      		ldd r25,Z+1
 793 0552 A281      		ldd r26,Z+2
 794 0554 B381      		ldd r27,Z+3
 795 0556 2C85      		ldd r18,Y+12
 796 0558 3D85      		ldd r19,Y+13
 797 055a 4E85      		ldd r20,Y+14
 798 055c 5F85      		ldd r21,Y+15
 799 055e BC01      		movw r22,r24
 800 0560 CD01      		movw r24,r26
 801 0562 0E94 0000 		call __ltsf2
 802 0566 8823      		tst r24
 803 0568 04F4      		brge .L25
 124:lp_solve_5.5/lp_mipbb.c ****                    modifyUndoLadder(lp->bb_lowerchange, ii, newBB->lowbo, deltaUL);
 804               		.loc 1 124 0 is_stmt 0 discriminator 1
 805 056a 8981      		ldd r24,Y+1
 806 056c 9A81      		ldd r25,Y+2
 807 056e FC01      		movw r30,r24
 808 0570 20A1      		ldd r18,Z+32
 809 0572 31A1      		ldd r19,Z+33
 810 0574 8985      		ldd r24,Y+9
 811 0576 9A85      		ldd r25,Y+10
 812 0578 880F      		lsl r24
 813 057a 991F      		rol r25
 814 057c 880F      		lsl r24
 815 057e 991F      		rol r25
 816 0580 820F      		add r24,r18
 817 0582 931F      		adc r25,r19
 818 0584 FC01      		movw r30,r24
 819 0586 8081      		ld r24,Z
 820 0588 9181      		ldd r25,Z+1
 821 058a A281      		ldd r26,Z+2
 822 058c B381      		ldd r27,Z+3
 823 058e 8C87      		std Y+12,r24
 824 0590 9D87      		std Y+13,r25
 825 0592 AE87      		std Y+14,r26
 826 0594 BF87      		std Y+15,r27
 827               	.L25:
 125:lp_solve_5.5/lp_mipbb.c ****                    break;
 828               		.loc 1 125 0 is_stmt 1
 829 0596 8C85      		ldd r24,Y+12
 830 0598 9D85      		ldd r25,Y+13
 831 059a AE85      		ldd r26,Y+14
 832 059c BF85      		ldd r27,Y+15
 833 059e 2981      		ldd r18,Y+1
 834 05a0 3A81      		ldd r19,Y+2
 835 05a2 F901      		movw r30,r18
 836 05a4 42A1      		ldd r20,Z+34
 837 05a6 53A1      		ldd r21,Z+35
 838 05a8 2889      		ldd r18,Y+16
 839 05aa 3989      		ldd r19,Y+17
 840 05ac 245B      		subi r18,-76
 841 05ae 3C4F      		sbci r19,-4
 842 05b0 F901      		movw r30,r18
 843 05b2 0190      		ld __tmp_reg__,Z+
 844 05b4 F081      		ld r31,Z
 845 05b6 E02D      		mov r30,__tmp_reg__
 846 05b8 FB8F      		std Y+27,r31
 847 05ba EA8F      		std Y+26,r30
 848 05bc 6985      		ldd r22,Y+9
 849 05be 7A85      		ldd r23,Y+10
 850 05c0 8C01      		movw r16,r24
 851 05c2 9D01      		movw r18,r26
 852 05c4 8A8D      		ldd r24,Y+26
 853 05c6 9B8D      		ldd r25,Y+27
 854 05c8 0E94 0000 		call modifyUndoLadder
 126:lp_solve_5.5/lp_mipbb.c ****           default: continue;
 855               		.loc 1 126 0
 856 05cc 0000      		nop
 857               	.L22:
 128:lp_solve_5.5/lp_mipbb.c ****         }
 129:lp_solve_5.5/lp_mipbb.c ****         if(newBB->upbo[ii] == newBB->lowbo[ii])
 858               		.loc 1 129 0
 859 05ce 8981      		ldd r24,Y+1
 860 05d0 9A81      		ldd r25,Y+2
 861 05d2 FC01      		movw r30,r24
 862 05d4 20A1      		ldd r18,Z+32
 863 05d6 31A1      		ldd r19,Z+33
 864 05d8 8985      		ldd r24,Y+9
 865 05da 9A85      		ldd r25,Y+10
 866 05dc 880F      		lsl r24
 867 05de 991F      		rol r25
 868 05e0 880F      		lsl r24
 869 05e2 991F      		rol r25
 870 05e4 820F      		add r24,r18
 871 05e6 931F      		adc r25,r19
 872 05e8 FC01      		movw r30,r24
 873 05ea 8081      		ld r24,Z
 874 05ec 9181      		ldd r25,Z+1
 875 05ee A281      		ldd r26,Z+2
 876 05f0 B381      		ldd r27,Z+3
 877 05f2 2981      		ldd r18,Y+1
 878 05f4 3A81      		ldd r19,Y+2
 879 05f6 F901      		movw r30,r18
 880 05f8 42A1      		ldd r20,Z+34
 881 05fa 53A1      		ldd r21,Z+35
 882 05fc 2985      		ldd r18,Y+9
 883 05fe 3A85      		ldd r19,Y+10
 884 0600 220F      		lsl r18
 885 0602 331F      		rol r19
 886 0604 220F      		lsl r18
 887 0606 331F      		rol r19
 888 0608 240F      		add r18,r20
 889 060a 351F      		adc r19,r21
 890 060c F901      		movw r30,r18
 891 060e 2081      		ld r18,Z
 892 0610 3181      		ldd r19,Z+1
 893 0612 4281      		ldd r20,Z+2
 894 0614 5381      		ldd r21,Z+3
 895 0616 BC01      		movw r22,r24
 896 0618 CD01      		movw r24,r26
 897 061a 0E94 0000 		call __eqsf2
 898 061e 8823      		tst r24
 899 0620 01F4      		brne .L44
 130:lp_solve_5.5/lp_mipbb.c ****           nfixed++;
 900               		.loc 1 130 0
 901 0622 8D81      		ldd r24,Y+5
 902 0624 9E81      		ldd r25,Y+6
 903 0626 0196      		adiw r24,1
 904 0628 9E83      		std Y+6,r25
 905 062a 8D83      		std Y+5,r24
 906 062c 00C0      		rjmp .L13
 907               	.L44:
 131:lp_solve_5.5/lp_mipbb.c ****         else
 132:lp_solve_5.5/lp_mipbb.c ****           ntighten++;
 908               		.loc 1 132 0
 909 062e 8F81      		ldd r24,Y+7
 910 0630 9885      		ldd r25,Y+8
 911 0632 0196      		adiw r24,1
 912 0634 9887      		std Y+8,r25
 913 0636 8F83      		std Y+7,r24
 914 0638 00C0      		rjmp .L13
 915               	.L45:
 111:lp_solve_5.5/lp_mipbb.c ****         isINT = is_int(lp, ii-lp->rows);
 916               		.loc 1 111 0
 917 063a 0000      		nop
 918               	.L13:
 105:lp_solve_5.5/lp_mipbb.c ****         ii = lp->nzdrow[k];
 919               		.loc 1 105 0 discriminator 2
 920 063c 8B81      		ldd r24,Y+3
 921 063e 9C81      		ldd r25,Y+4
 922 0640 0196      		adiw r24,1
 923 0642 9C83      		std Y+4,r25
 924 0644 8B83      		std Y+3,r24
 925               	.L11:
 105:lp_solve_5.5/lp_mipbb.c ****         ii = lp->nzdrow[k];
 926               		.loc 1 105 0 is_stmt 0 discriminator 1
 927 0646 8889      		ldd r24,Y+16
 928 0648 9989      		ldd r25,Y+17
 929 064a 845E      		subi r24,-28
 930 064c 9D4F      		sbci r25,-3
 931 064e FC01      		movw r30,r24
 932 0650 8081      		ld r24,Z
 933 0652 9181      		ldd r25,Z+1
 934 0654 FC01      		movw r30,r24
 935 0656 2081      		ld r18,Z
 936 0658 3181      		ldd r19,Z+1
 937 065a 8B81      		ldd r24,Y+3
 938 065c 9C81      		ldd r25,Y+4
 939 065e 2817      		cp r18,r24
 940 0660 3907      		cpc r19,r25
 941 0662 04F0      		brlt .+2
 942 0664 00C0      		rjmp .L29
 133:lp_solve_5.5/lp_mipbb.c ****       }
 134:lp_solve_5.5/lp_mipbb.c ****       if(lp->bb_trace) {
 943               		.loc 1 134 0 is_stmt 1
 944 0666 8889      		ldd r24,Y+16
 945 0668 9989      		ldd r25,Y+17
 946 066a 8D5F      		subi r24,-3
 947 066c 9D4F      		sbci r25,-3
 948 066e FC01      		movw r30,r24
 949 0670 8081      		ld r24,Z
 950 0672 8823      		tst r24
 951 0674 01F0      		breq .L10
 135:lp_solve_5.5/lp_mipbb.c ****         report(lp, DETAILED,
 952               		.loc 1 135 0
 953 0676 8885      		ldd r24,Y+8
 954 0678 8F93      		push r24
 955 067a 8F81      		ldd r24,Y+7
 956 067c 8F93      		push r24
 957 067e 8E81      		ldd r24,Y+6
 958 0680 8F93      		push r24
 959 0682 8D81      		ldd r24,Y+5
 960 0684 8F93      		push r24
 961 0686 80E0      		ldi r24,lo8(.LC0)
 962 0688 90E0      		ldi r25,hi8(.LC0)
 963 068a 892F      		mov r24,r25
 964 068c 8F93      		push r24
 965 068e 80E0      		ldi r24,lo8(.LC0)
 966 0690 90E0      		ldi r25,hi8(.LC0)
 967 0692 8F93      		push r24
 968 0694 1F92      		push __zero_reg__
 969 0696 85E0      		ldi r24,lo8(5)
 970 0698 8F93      		push r24
 971 069a 8989      		ldd r24,Y+17
 972 069c 8F93      		push r24
 973 069e 8889      		ldd r24,Y+16
 974 06a0 8F93      		push r24
 975 06a2 0E94 0000 		call report
 976 06a6 6DB7      		in r22,__SP_L__
 977 06a8 7EB7      		in r23,__SP_H__
 978 06aa 665F      		subi r22,-10
 979 06ac 7F4F      		sbci r23,-1
 980 06ae 0FB6      		in __tmp_reg__,__SREG__
 981 06b0 F894      		cli
 982 06b2 DEBF      		out __SP_H__,r29
 983 06b4 0FBE      		out __SREG__,__tmp_reg__
 984 06b6 CDBF      		out __SP_L__,r28
 985               	.L10:
 986               	.LBE2:
 136:lp_solve_5.5/lp_mipbb.c ****                  "push_BB: Used reduced cost to fix %d variables and tighten %d bounds\n",
 137:lp_solve_5.5/lp_mipbb.c ****                   nfixed, ntighten);
 138:lp_solve_5.5/lp_mipbb.c ****       }
 139:lp_solve_5.5/lp_mipbb.c ****     }
 140:lp_solve_5.5/lp_mipbb.c **** 
 141:lp_solve_5.5/lp_mipbb.c ****     /* Handle case where we are pushing at the end */
 142:lp_solve_5.5/lp_mipbb.c ****     if(parentBB == lp->bb_bounds)
 987               		.loc 1 142 0
 988 06b8 8889      		ldd r24,Y+16
 989 06ba 9989      		ldd r25,Y+17
 990 06bc 8654      		subi r24,70
 991 06be 9D4F      		sbci r25,-3
 992 06c0 FC01      		movw r30,r24
 993 06c2 2081      		ld r18,Z
 994 06c4 3181      		ldd r19,Z+1
 995 06c6 8A89      		ldd r24,Y+18
 996 06c8 9B89      		ldd r25,Y+19
 997 06ca 2817      		cp r18,r24
 998 06cc 3907      		cpc r19,r25
 999 06ce 01F4      		brne .L31
 143:lp_solve_5.5/lp_mipbb.c ****       lp->bb_bounds = newBB;
 1000               		.loc 1 143 0
 1001 06d0 8889      		ldd r24,Y+16
 1002 06d2 9989      		ldd r25,Y+17
 1003 06d4 8654      		subi r24,70
 1004 06d6 9D4F      		sbci r25,-3
 1005 06d8 2981      		ldd r18,Y+1
 1006 06da 3A81      		ldd r19,Y+2
 1007 06dc FC01      		movw r30,r24
 1008 06de 3183      		std Z+1,r19
 1009 06e0 2083      		st Z,r18
 1010 06e2 00C0      		rjmp .L32
 1011               	.L31:
 144:lp_solve_5.5/lp_mipbb.c ****     /* Handle case where we are pushing in the middle */
 145:lp_solve_5.5/lp_mipbb.c ****     else
 146:lp_solve_5.5/lp_mipbb.c ****       newBB->child = parentBB->child;
 1012               		.loc 1 146 0
 1013 06e4 8A89      		ldd r24,Y+18
 1014 06e6 9B89      		ldd r25,Y+19
 1015 06e8 FC01      		movw r30,r24
 1016 06ea 2281      		ldd r18,Z+2
 1017 06ec 3381      		ldd r19,Z+3
 1018 06ee 8981      		ldd r24,Y+1
 1019 06f0 9A81      		ldd r25,Y+2
 1020 06f2 FC01      		movw r30,r24
 1021 06f4 3383      		std Z+3,r19
 1022 06f6 2283      		std Z+2,r18
 1023               	.L32:
 147:lp_solve_5.5/lp_mipbb.c ****     if(parentBB != NULL)
 1024               		.loc 1 147 0
 1025 06f8 8A89      		ldd r24,Y+18
 1026 06fa 9B89      		ldd r25,Y+19
 1027 06fc 892B      		or r24,r25
 1028 06fe 01F0      		breq .L33
 148:lp_solve_5.5/lp_mipbb.c ****       parentBB->child = newBB;
 1029               		.loc 1 148 0
 1030 0700 8A89      		ldd r24,Y+18
 1031 0702 9B89      		ldd r25,Y+19
 1032 0704 2981      		ldd r18,Y+1
 1033 0706 3A81      		ldd r19,Y+2
 1034 0708 FC01      		movw r30,r24
 1035 070a 3383      		std Z+3,r19
 1036 070c 2283      		std Z+2,r18
 1037               	.L33:
 149:lp_solve_5.5/lp_mipbb.c **** 
 150:lp_solve_5.5/lp_mipbb.c ****     lp->bb_level++;
 1038               		.loc 1 150 0
 1039 070e 8889      		ldd r24,Y+16
 1040 0710 9989      		ldd r25,Y+17
 1041 0712 805D      		subi r24,-48
 1042 0714 9C4F      		sbci r25,-4
 1043 0716 FC01      		movw r30,r24
 1044 0718 8081      		ld r24,Z
 1045 071a 9181      		ldd r25,Z+1
 1046 071c 9C01      		movw r18,r24
 1047 071e 2F5F      		subi r18,-1
 1048 0720 3F4F      		sbci r19,-1
 1049 0722 8889      		ldd r24,Y+16
 1050 0724 9989      		ldd r25,Y+17
 1051 0726 805D      		subi r24,-48
 1052 0728 9C4F      		sbci r25,-4
 1053 072a FC01      		movw r30,r24
 1054 072c 3183      		std Z+1,r19
 1055 072e 2083      		st Z,r18
 151:lp_solve_5.5/lp_mipbb.c ****     if(lp->bb_level > lp->bb_maxlevel)
 1056               		.loc 1 151 0
 1057 0730 8889      		ldd r24,Y+16
 1058 0732 9989      		ldd r25,Y+17
 1059 0734 805D      		subi r24,-48
 1060 0736 9C4F      		sbci r25,-4
 1061 0738 FC01      		movw r30,r24
 1062 073a 2081      		ld r18,Z
 1063 073c 3181      		ldd r19,Z+1
 1064 073e 8889      		ldd r24,Y+16
 1065 0740 9989      		ldd r25,Y+17
 1066 0742 8E5C      		subi r24,-50
 1067 0744 9C4F      		sbci r25,-4
 1068 0746 FC01      		movw r30,r24
 1069 0748 8081      		ld r24,Z
 1070 074a 9181      		ldd r25,Z+1
 1071 074c 8217      		cp r24,r18
 1072 074e 9307      		cpc r25,r19
 1073 0750 04F4      		brge .L34
 152:lp_solve_5.5/lp_mipbb.c ****       lp->bb_maxlevel = lp->bb_level;
 1074               		.loc 1 152 0
 1075 0752 8889      		ldd r24,Y+16
 1076 0754 9989      		ldd r25,Y+17
 1077 0756 805D      		subi r24,-48
 1078 0758 9C4F      		sbci r25,-4
 1079 075a FC01      		movw r30,r24
 1080 075c 2081      		ld r18,Z
 1081 075e 3181      		ldd r19,Z+1
 1082 0760 8889      		ldd r24,Y+16
 1083 0762 9989      		ldd r25,Y+17
 1084 0764 8E5C      		subi r24,-50
 1085 0766 9C4F      		sbci r25,-4
 1086 0768 FC01      		movw r30,r24
 1087 076a 3183      		std Z+1,r19
 1088 076c 2083      		st Z,r18
 1089               	.L34:
 153:lp_solve_5.5/lp_mipbb.c **** 
 154:lp_solve_5.5/lp_mipbb.c ****     if(!initbranches_BB(newBB))
 1090               		.loc 1 154 0
 1091 076e 8981      		ldd r24,Y+1
 1092 0770 9A81      		ldd r25,Y+2
 1093 0772 0E94 0000 		call initbranches_BB
 1094 0776 8823      		tst r24
 1095 0778 01F4      		brne .L35
 155:lp_solve_5.5/lp_mipbb.c ****       newBB = pop_BB(newBB);
 1096               		.loc 1 155 0
 1097 077a 8981      		ldd r24,Y+1
 1098 077c 9A81      		ldd r25,Y+2
 1099 077e 0E94 0000 		call pop_BB
 1100 0782 9A83      		std Y+2,r25
 1101 0784 8983      		std Y+1,r24
 1102 0786 00C0      		rjmp .L9
 1103               	.L35:
 156:lp_solve_5.5/lp_mipbb.c ****     else if(MIP_count(lp) > 0) {
 1104               		.loc 1 156 0
 1105 0788 8889      		ldd r24,Y+16
 1106 078a 9989      		ldd r25,Y+17
 1107 078c 0E94 0000 		call MIP_count
 1108 0790 1816      		cp __zero_reg__,r24
 1109 0792 1906      		cpc __zero_reg__,r25
 1110 0794 04F0      		brlt .+2
 1111 0796 00C0      		rjmp .L9
 157:lp_solve_5.5/lp_mipbb.c ****       if( (lp->bb_level <= 1) && (lp->bb_varactive == NULL) &&
 1112               		.loc 1 157 0
 1113 0798 8889      		ldd r24,Y+16
 1114 079a 9989      		ldd r25,Y+17
 1115 079c 805D      		subi r24,-48
 1116 079e 9C4F      		sbci r25,-4
 1117 07a0 FC01      		movw r30,r24
 1118 07a2 8081      		ld r24,Z
 1119 07a4 9181      		ldd r25,Z+1
 1120 07a6 0297      		sbiw r24,2
 1121 07a8 04F4      		brge .L36
 1122               		.loc 1 157 0 is_stmt 0 discriminator 1
 1123 07aa 8889      		ldd r24,Y+16
 1124 07ac 9989      		ldd r25,Y+17
 1125 07ae 885B      		subi r24,-72
 1126 07b0 9C4F      		sbci r25,-4
 1127 07b2 FC01      		movw r30,r24
 1128 07b4 8081      		ld r24,Z
 1129 07b6 9181      		ldd r25,Z+1
 1130 07b8 892B      		or r24,r25
 1131 07ba 01F4      		brne .L36
 158:lp_solve_5.5/lp_mipbb.c ****           (!allocINT(lp, &lp->bb_varactive, lp->columns+1, TRUE) ||
 1132               		.loc 1 158 0 is_stmt 1 discriminator 2
 1133 07bc 8889      		ldd r24,Y+16
 1134 07be 9989      		ldd r25,Y+17
 1135 07c0 8451      		subi r24,20
 1136 07c2 9E4F      		sbci r25,-2
 1137 07c4 FC01      		movw r30,r24
 1138 07c6 8081      		ld r24,Z
 1139 07c8 9181      		ldd r25,Z+1
 1140 07ca AC01      		movw r20,r24
 1141 07cc 4F5F      		subi r20,-1
 1142 07ce 5F4F      		sbci r21,-1
 1143 07d0 8889      		ldd r24,Y+16
 1144 07d2 9989      		ldd r25,Y+17
 1145 07d4 BC01      		movw r22,r24
 1146 07d6 685B      		subi r22,-72
 1147 07d8 7C4F      		sbci r23,-4
 1148 07da 8889      		ldd r24,Y+16
 1149 07dc 9989      		ldd r25,Y+17
 1150 07de 21E0      		ldi r18,lo8(1)
 1151 07e0 0E94 0000 		call allocINT
 157:lp_solve_5.5/lp_mipbb.c ****       if( (lp->bb_level <= 1) && (lp->bb_varactive == NULL) &&
 1152               		.loc 1 157 0 discriminator 2
 1153 07e4 8823      		tst r24
 1154 07e6 01F0      		breq .L37
 159:lp_solve_5.5/lp_mipbb.c ****            !initcuts_BB(lp)) )
 1155               		.loc 1 159 0
 1156 07e8 8889      		ldd r24,Y+16
 1157 07ea 9989      		ldd r25,Y+17
 1158 07ec 0E94 0000 		call initcuts_BB
 158:lp_solve_5.5/lp_mipbb.c ****           (!allocINT(lp, &lp->bb_varactive, lp->columns+1, TRUE) ||
 1159               		.loc 1 158 0
 1160 07f0 8823      		tst r24
 1161 07f2 01F4      		brne .L36
 1162               	.L37:
 160:lp_solve_5.5/lp_mipbb.c ****         newBB = pop_BB(newBB);
 1163               		.loc 1 160 0
 1164 07f4 8981      		ldd r24,Y+1
 1165 07f6 9A81      		ldd r25,Y+2
 1166 07f8 0E94 0000 		call pop_BB
 1167 07fc 9A83      		std Y+2,r25
 1168 07fe 8983      		std Y+1,r24
 1169               	.L36:
 161:lp_solve_5.5/lp_mipbb.c ****       if(varno > 0) {
 1170               		.loc 1 161 0
 1171 0800 8C89      		ldd r24,Y+20
 1172 0802 9D89      		ldd r25,Y+21
 1173 0804 1816      		cp __zero_reg__,r24
 1174 0806 1906      		cpc __zero_reg__,r25
 1175 0808 04F4      		brge .L9
 162:lp_solve_5.5/lp_mipbb.c ****         lp->bb_varactive[varno-lp->rows]++;
 1176               		.loc 1 162 0
 1177 080a 8889      		ldd r24,Y+16
 1178 080c 9989      		ldd r25,Y+17
 1179 080e 885B      		subi r24,-72
 1180 0810 9C4F      		sbci r25,-4
 1181 0812 FC01      		movw r30,r24
 1182 0814 2081      		ld r18,Z
 1183 0816 3181      		ldd r19,Z+1
 1184 0818 8889      		ldd r24,Y+16
 1185 081a 9989      		ldd r25,Y+17
 1186 081c 8651      		subi r24,22
 1187 081e 9E4F      		sbci r25,-2
 1188 0820 FC01      		movw r30,r24
 1189 0822 8081      		ld r24,Z
 1190 0824 9181      		ldd r25,Z+1
 1191 0826 4C89      		ldd r20,Y+20
 1192 0828 5D89      		ldd r21,Y+21
 1193 082a BA01      		movw r22,r20
 1194 082c 681B      		sub r22,r24
 1195 082e 790B      		sbc r23,r25
 1196 0830 CB01      		movw r24,r22
 1197 0832 880F      		lsl r24
 1198 0834 991F      		rol r25
 1199 0836 820F      		add r24,r18
 1200 0838 931F      		adc r25,r19
 1201 083a FC01      		movw r30,r24
 1202 083c 2081      		ld r18,Z
 1203 083e 3181      		ldd r19,Z+1
 1204 0840 2F5F      		subi r18,-1
 1205 0842 3F4F      		sbci r19,-1
 1206 0844 FC01      		movw r30,r24
 1207 0846 3183      		std Z+1,r19
 1208 0848 2083      		st Z,r18
 1209               	.L9:
 163:lp_solve_5.5/lp_mipbb.c ****       }
 164:lp_solve_5.5/lp_mipbb.c ****     }
 165:lp_solve_5.5/lp_mipbb.c ****   }
 166:lp_solve_5.5/lp_mipbb.c ****   return( newBB );
 1210               		.loc 1 166 0
 1211 084a 8981      		ldd r24,Y+1
 1212 084c 9A81      		ldd r25,Y+2
 1213               	/* epilogue start */
 167:lp_solve_5.5/lp_mipbb.c **** }
 1214               		.loc 1 167 0
 1215 084e 6B96      		adiw r28,27
 1216 0850 0FB6      		in __tmp_reg__,__SREG__
 1217 0852 F894      		cli
 1218 0854 DEBF      		out __SP_H__,r29
 1219 0856 0FBE      		out __SREG__,__tmp_reg__
 1220 0858 CDBF      		out __SP_L__,r28
 1221 085a DF91      		pop r29
 1222 085c CF91      		pop r28
 1223 085e 1F91      		pop r17
 1224 0860 0F91      		pop r16
 1225 0862 0895      		ret
 1226               		.cfi_endproc
 1227               	.LFE8:
 1229               	.global	free_BB
 1231               	free_BB:
 1232               	.LFB9:
 168:lp_solve_5.5/lp_mipbb.c **** 
 169:lp_solve_5.5/lp_mipbb.c **** STATIC MYBOOL free_BB(BBrec **BB)
 170:lp_solve_5.5/lp_mipbb.c **** {
 1233               		.loc 1 170 0
 1234               		.cfi_startproc
 1235 0864 CF93      		push r28
 1236               	.LCFI10:
 1237               		.cfi_def_cfa_offset 3
 1238               		.cfi_offset 28, -2
 1239 0866 DF93      		push r29
 1240               	.LCFI11:
 1241               		.cfi_def_cfa_offset 4
 1242               		.cfi_offset 29, -3
 1243 0868 00D0      		rcall .
 1244 086a 00D0      		rcall .
 1245 086c 1F92      		push __zero_reg__
 1246               	.LCFI12:
 1247               		.cfi_def_cfa_offset 9
 1248 086e CDB7      		in r28,__SP_L__
 1249 0870 DEB7      		in r29,__SP_H__
 1250               	.LCFI13:
 1251               		.cfi_def_cfa_register 28
 1252               	/* prologue: function */
 1253               	/* frame size = 5 */
 1254               	/* stack size = 7 */
 1255               	.L__stack_usage = 7
 1256 0872 9D83      		std Y+5,r25
 1257 0874 8C83      		std Y+4,r24
 171:lp_solve_5.5/lp_mipbb.c ****   MYBOOL parentreturned = FALSE;
 1258               		.loc 1 171 0
 1259 0876 1982      		std Y+1,__zero_reg__
 172:lp_solve_5.5/lp_mipbb.c **** 
 173:lp_solve_5.5/lp_mipbb.c ****   if((BB != NULL) && (*BB != NULL)) {
 1260               		.loc 1 173 0
 1261 0878 8C81      		ldd r24,Y+4
 1262 087a 9D81      		ldd r25,Y+5
 1263 087c 892B      		or r24,r25
 1264 087e 01F4      		brne .+2
 1265 0880 00C0      		rjmp .L47
 1266               		.loc 1 173 0 is_stmt 0 discriminator 1
 1267 0882 8C81      		ldd r24,Y+4
 1268 0884 9D81      		ldd r25,Y+5
 1269 0886 FC01      		movw r30,r24
 1270 0888 8081      		ld r24,Z
 1271 088a 9181      		ldd r25,Z+1
 1272 088c 892B      		or r24,r25
 1273 088e 01F4      		brne .+2
 1274 0890 00C0      		rjmp .L47
 1275               	.LBB3:
 174:lp_solve_5.5/lp_mipbb.c ****     BBrec *parent = (*BB)->parent;
 1276               		.loc 1 174 0 is_stmt 1
 1277 0892 8C81      		ldd r24,Y+4
 1278 0894 9D81      		ldd r25,Y+5
 1279 0896 FC01      		movw r30,r24
 1280 0898 8081      		ld r24,Z
 1281 089a 9181      		ldd r25,Z+1
 1282 089c FC01      		movw r30,r24
 1283 089e 8081      		ld r24,Z
 1284 08a0 9181      		ldd r25,Z+1
 1285 08a2 9B83      		std Y+3,r25
 1286 08a4 8A83      		std Y+2,r24
 175:lp_solve_5.5/lp_mipbb.c **** 
 176:lp_solve_5.5/lp_mipbb.c ****     if((parent == NULL) || (*BB)->contentmode) {
 1287               		.loc 1 176 0
 1288 08a6 8A81      		ldd r24,Y+2
 1289 08a8 9B81      		ldd r25,Y+3
 1290 08aa 892B      		or r24,r25
 1291 08ac 01F0      		breq .L48
 1292               		.loc 1 176 0 is_stmt 0 discriminator 1
 1293 08ae 8C81      		ldd r24,Y+4
 1294 08b0 9D81      		ldd r25,Y+5
 1295 08b2 FC01      		movw r30,r24
 1296 08b4 8081      		ld r24,Z
 1297 08b6 9181      		ldd r25,Z+1
 1298 08b8 FC01      		movw r30,r24
 1299 08ba 80A9      		ldd r24,Z+48
 1300 08bc 8823      		tst r24
 1301 08be 01F0      		breq .L49
 1302               	.L48:
 177:lp_solve_5.5/lp_mipbb.c ****       FREE((*BB)->upbo);
 1303               		.loc 1 177 0 is_stmt 1
 1304 08c0 8C81      		ldd r24,Y+4
 1305 08c2 9D81      		ldd r25,Y+5
 1306 08c4 FC01      		movw r30,r24
 1307 08c6 8081      		ld r24,Z
 1308 08c8 9181      		ldd r25,Z+1
 1309 08ca FC01      		movw r30,r24
 1310 08cc 80A1      		ldd r24,Z+32
 1311 08ce 91A1      		ldd r25,Z+33
 1312 08d0 892B      		or r24,r25
 1313 08d2 01F0      		breq .L50
 1314               		.loc 1 177 0 is_stmt 0 discriminator 1
 1315 08d4 8C81      		ldd r24,Y+4
 1316 08d6 9D81      		ldd r25,Y+5
 1317 08d8 FC01      		movw r30,r24
 1318 08da 8081      		ld r24,Z
 1319 08dc 9181      		ldd r25,Z+1
 1320 08de FC01      		movw r30,r24
 1321 08e0 80A1      		ldd r24,Z+32
 1322 08e2 91A1      		ldd r25,Z+33
 1323 08e4 0E94 0000 		call free
 1324 08e8 8C81      		ldd r24,Y+4
 1325 08ea 9D81      		ldd r25,Y+5
 1326 08ec FC01      		movw r30,r24
 1327 08ee 8081      		ld r24,Z
 1328 08f0 9181      		ldd r25,Z+1
 1329 08f2 FC01      		movw r30,r24
 1330 08f4 11A2      		std Z+33,__zero_reg__
 1331 08f6 10A2      		std Z+32,__zero_reg__
 1332               	.L50:
 178:lp_solve_5.5/lp_mipbb.c ****       FREE((*BB)->lowbo);
 1333               		.loc 1 178 0 is_stmt 1
 1334 08f8 8C81      		ldd r24,Y+4
 1335 08fa 9D81      		ldd r25,Y+5
 1336 08fc FC01      		movw r30,r24
 1337 08fe 8081      		ld r24,Z
 1338 0900 9181      		ldd r25,Z+1
 1339 0902 FC01      		movw r30,r24
 1340 0904 82A1      		ldd r24,Z+34
 1341 0906 93A1      		ldd r25,Z+35
 1342 0908 892B      		or r24,r25
 1343 090a 01F0      		breq .L49
 1344               		.loc 1 178 0 is_stmt 0 discriminator 1
 1345 090c 8C81      		ldd r24,Y+4
 1346 090e 9D81      		ldd r25,Y+5
 1347 0910 FC01      		movw r30,r24
 1348 0912 8081      		ld r24,Z
 1349 0914 9181      		ldd r25,Z+1
 1350 0916 FC01      		movw r30,r24
 1351 0918 82A1      		ldd r24,Z+34
 1352 091a 93A1      		ldd r25,Z+35
 1353 091c 0E94 0000 		call free
 1354 0920 8C81      		ldd r24,Y+4
 1355 0922 9D81      		ldd r25,Y+5
 1356 0924 FC01      		movw r30,r24
 1357 0926 8081      		ld r24,Z
 1358 0928 9181      		ldd r25,Z+1
 1359 092a FC01      		movw r30,r24
 1360 092c 13A2      		std Z+35,__zero_reg__
 1361 092e 12A2      		std Z+34,__zero_reg__
 1362               	.L49:
 179:lp_solve_5.5/lp_mipbb.c ****     }
 180:lp_solve_5.5/lp_mipbb.c ****     FREE((*BB)->varmanaged);
 1363               		.loc 1 180 0 is_stmt 1
 1364 0930 8C81      		ldd r24,Y+4
 1365 0932 9D81      		ldd r25,Y+5
 1366 0934 FC01      		movw r30,r24
 1367 0936 8081      		ld r24,Z
 1368 0938 9181      		ldd r25,Z+1
 1369 093a FC01      		movw r30,r24
 1370 093c 84A9      		ldd r24,Z+52
 1371 093e 95A9      		ldd r25,Z+53
 1372 0940 892B      		or r24,r25
 1373 0942 01F0      		breq .L51
 1374               		.loc 1 180 0 is_stmt 0 discriminator 1
 1375 0944 8C81      		ldd r24,Y+4
 1376 0946 9D81      		ldd r25,Y+5
 1377 0948 FC01      		movw r30,r24
 1378 094a 8081      		ld r24,Z
 1379 094c 9181      		ldd r25,Z+1
 1380 094e FC01      		movw r30,r24
 1381 0950 84A9      		ldd r24,Z+52
 1382 0952 95A9      		ldd r25,Z+53
 1383 0954 0E94 0000 		call free
 1384 0958 8C81      		ldd r24,Y+4
 1385 095a 9D81      		ldd r25,Y+5
 1386 095c FC01      		movw r30,r24
 1387 095e 8081      		ld r24,Z
 1388 0960 9181      		ldd r25,Z+1
 1389 0962 FC01      		movw r30,r24
 1390 0964 15AA      		std Z+53,__zero_reg__
 1391 0966 14AA      		std Z+52,__zero_reg__
 1392               	.L51:
 181:lp_solve_5.5/lp_mipbb.c ****     FREE(*BB);
 1393               		.loc 1 181 0 is_stmt 1
 1394 0968 8C81      		ldd r24,Y+4
 1395 096a 9D81      		ldd r25,Y+5
 1396 096c FC01      		movw r30,r24
 1397 096e 8081      		ld r24,Z
 1398 0970 9181      		ldd r25,Z+1
 1399 0972 892B      		or r24,r25
 1400 0974 01F0      		breq .L52
 1401               		.loc 1 181 0 is_stmt 0 discriminator 1
 1402 0976 8C81      		ldd r24,Y+4
 1403 0978 9D81      		ldd r25,Y+5
 1404 097a FC01      		movw r30,r24
 1405 097c 8081      		ld r24,Z
 1406 097e 9181      		ldd r25,Z+1
 1407 0980 0E94 0000 		call free
 1408 0984 8C81      		ldd r24,Y+4
 1409 0986 9D81      		ldd r25,Y+5
 1410 0988 FC01      		movw r30,r24
 1411 098a 1182      		std Z+1,__zero_reg__
 1412 098c 1082      		st Z,__zero_reg__
 1413               	.L52:
 182:lp_solve_5.5/lp_mipbb.c **** 
 183:lp_solve_5.5/lp_mipbb.c ****     parentreturned = (MYBOOL) (parent != NULL);
 1414               		.loc 1 183 0 is_stmt 1
 1415 098e 21E0      		ldi r18,lo8(1)
 1416 0990 8A81      		ldd r24,Y+2
 1417 0992 9B81      		ldd r25,Y+3
 1418 0994 892B      		or r24,r25
 1419 0996 01F4      		brne .L53
 1420 0998 20E0      		ldi r18,0
 1421               	.L53:
 1422 099a 2983      		std Y+1,r18
 184:lp_solve_5.5/lp_mipbb.c ****     if(parentreturned)
 1423               		.loc 1 184 0
 1424 099c 8981      		ldd r24,Y+1
 1425 099e 8823      		tst r24
 1426 09a0 01F0      		breq .L47
 185:lp_solve_5.5/lp_mipbb.c ****       *BB = parent;
 1427               		.loc 1 185 0
 1428 09a2 8C81      		ldd r24,Y+4
 1429 09a4 9D81      		ldd r25,Y+5
 1430 09a6 2A81      		ldd r18,Y+2
 1431 09a8 3B81      		ldd r19,Y+3
 1432 09aa FC01      		movw r30,r24
 1433 09ac 3183      		std Z+1,r19
 1434 09ae 2083      		st Z,r18
 1435               	.L47:
 1436               	.LBE3:
 186:lp_solve_5.5/lp_mipbb.c **** 
 187:lp_solve_5.5/lp_mipbb.c ****   }
 188:lp_solve_5.5/lp_mipbb.c ****   return( parentreturned );
 1437               		.loc 1 188 0
 1438 09b0 8981      		ldd r24,Y+1
 1439               	/* epilogue start */
 189:lp_solve_5.5/lp_mipbb.c **** }
 1440               		.loc 1 189 0
 1441 09b2 0F90      		pop __tmp_reg__
 1442 09b4 0F90      		pop __tmp_reg__
 1443 09b6 0F90      		pop __tmp_reg__
 1444 09b8 0F90      		pop __tmp_reg__
 1445 09ba 0F90      		pop __tmp_reg__
 1446 09bc DF91      		pop r29
 1447 09be CF91      		pop r28
 1448 09c0 0895      		ret
 1449               		.cfi_endproc
 1450               	.LFE9:
 1452               	.global	pop_BB
 1454               	pop_BB:
 1455               	.LFB10:
 190:lp_solve_5.5/lp_mipbb.c **** 
 191:lp_solve_5.5/lp_mipbb.c **** STATIC BBrec *pop_BB(BBrec *BB)
 192:lp_solve_5.5/lp_mipbb.c **** /* Pop / free the previously "pushed" / saved bounds */
 193:lp_solve_5.5/lp_mipbb.c **** {
 1456               		.loc 1 193 0
 1457               		.cfi_startproc
 1458 09c2 CF93      		push r28
 1459               	.LCFI14:
 1460               		.cfi_def_cfa_offset 3
 1461               		.cfi_offset 28, -2
 1462 09c4 DF93      		push r29
 1463               	.LCFI15:
 1464               		.cfi_def_cfa_offset 4
 1465               		.cfi_offset 29, -3
 1466 09c6 CDB7      		in r28,__SP_L__
 1467 09c8 DEB7      		in r29,__SP_H__
 1468               	.LCFI16:
 1469               		.cfi_def_cfa_register 28
 1470 09ca 2897      		sbiw r28,8
 1471               	.LCFI17:
 1472               		.cfi_def_cfa_offset 12
 1473 09cc 0FB6      		in __tmp_reg__,__SREG__
 1474 09ce F894      		cli
 1475 09d0 DEBF      		out __SP_H__,r29
 1476 09d2 0FBE      		out __SREG__,__tmp_reg__
 1477 09d4 CDBF      		out __SP_L__,r28
 1478               	/* prologue: function */
 1479               	/* frame size = 8 */
 1480               	/* stack size = 10 */
 1481               	.L__stack_usage = 10
 1482 09d6 9887      		std Y+8,r25
 1483 09d8 8F83      		std Y+7,r24
 194:lp_solve_5.5/lp_mipbb.c ****   int   k;
 195:lp_solve_5.5/lp_mipbb.c ****   BBrec *parentBB;
 196:lp_solve_5.5/lp_mipbb.c ****   lprec *lp = BB->lp;
 1484               		.loc 1 196 0
 1485 09da 8F81      		ldd r24,Y+7
 1486 09dc 9885      		ldd r25,Y+8
 1487 09de FC01      		movw r30,r24
 1488 09e0 8481      		ldd r24,Z+4
 1489 09e2 9581      		ldd r25,Z+5
 1490 09e4 9A83      		std Y+2,r25
 1491 09e6 8983      		std Y+1,r24
 197:lp_solve_5.5/lp_mipbb.c **** 
 198:lp_solve_5.5/lp_mipbb.c ****   if(BB == NULL)
 1492               		.loc 1 198 0
 1493 09e8 8F81      		ldd r24,Y+7
 1494 09ea 9885      		ldd r25,Y+8
 1495 09ec 892B      		or r24,r25
 1496 09ee 01F4      		brne .L56
 199:lp_solve_5.5/lp_mipbb.c ****     return( BB );
 1497               		.loc 1 199 0
 1498 09f0 8F81      		ldd r24,Y+7
 1499 09f2 9885      		ldd r25,Y+8
 1500 09f4 00C0      		rjmp .L57
 1501               	.L56:
 200:lp_solve_5.5/lp_mipbb.c **** 
 201:lp_solve_5.5/lp_mipbb.c ****   /* Handle case where we are popping the end of the chain */
 202:lp_solve_5.5/lp_mipbb.c ****   parentBB = BB->parent;
 1502               		.loc 1 202 0
 1503 09f6 8F81      		ldd r24,Y+7
 1504 09f8 9885      		ldd r25,Y+8
 1505 09fa FC01      		movw r30,r24
 1506 09fc 8081      		ld r24,Z
 1507 09fe 9181      		ldd r25,Z+1
 1508 0a00 9C83      		std Y+4,r25
 1509 0a02 8B83      		std Y+3,r24
 203:lp_solve_5.5/lp_mipbb.c ****   if(BB == lp->bb_bounds) {
 1510               		.loc 1 203 0
 1511 0a04 8981      		ldd r24,Y+1
 1512 0a06 9A81      		ldd r25,Y+2
 1513 0a08 8654      		subi r24,70
 1514 0a0a 9D4F      		sbci r25,-3
 1515 0a0c FC01      		movw r30,r24
 1516 0a0e 2081      		ld r18,Z
 1517 0a10 3181      		ldd r19,Z+1
 1518 0a12 8F81      		ldd r24,Y+7
 1519 0a14 9885      		ldd r25,Y+8
 1520 0a16 2817      		cp r18,r24
 1521 0a18 3907      		cpc r19,r25
 1522 0a1a 01F4      		brne .L58
 204:lp_solve_5.5/lp_mipbb.c ****     lp->bb_bounds = parentBB;
 1523               		.loc 1 204 0
 1524 0a1c 8981      		ldd r24,Y+1
 1525 0a1e 9A81      		ldd r25,Y+2
 1526 0a20 8654      		subi r24,70
 1527 0a22 9D4F      		sbci r25,-3
 1528 0a24 2B81      		ldd r18,Y+3
 1529 0a26 3C81      		ldd r19,Y+4
 1530 0a28 FC01      		movw r30,r24
 1531 0a2a 3183      		std Z+1,r19
 1532 0a2c 2083      		st Z,r18
 205:lp_solve_5.5/lp_mipbb.c ****     if(parentBB != NULL)
 1533               		.loc 1 205 0
 1534 0a2e 8B81      		ldd r24,Y+3
 1535 0a30 9C81      		ldd r25,Y+4
 1536 0a32 892B      		or r24,r25
 1537 0a34 01F0      		breq .L60
 206:lp_solve_5.5/lp_mipbb.c ****       parentBB->child = NULL;
 1538               		.loc 1 206 0
 1539 0a36 8B81      		ldd r24,Y+3
 1540 0a38 9C81      		ldd r25,Y+4
 1541 0a3a FC01      		movw r30,r24
 1542 0a3c 1382      		std Z+3,__zero_reg__
 1543 0a3e 1282      		std Z+2,__zero_reg__
 1544 0a40 00C0      		rjmp .L60
 1545               	.L58:
 207:lp_solve_5.5/lp_mipbb.c ****   }
 208:lp_solve_5.5/lp_mipbb.c ****   /* Handle case where we are popping inside or at the beginning of the chain */
 209:lp_solve_5.5/lp_mipbb.c ****   else {
 210:lp_solve_5.5/lp_mipbb.c ****     if(parentBB != NULL)
 1546               		.loc 1 210 0
 1547 0a42 8B81      		ldd r24,Y+3
 1548 0a44 9C81      		ldd r25,Y+4
 1549 0a46 892B      		or r24,r25
 1550 0a48 01F0      		breq .L61
 211:lp_solve_5.5/lp_mipbb.c ****       parentBB->child = BB->child;
 1551               		.loc 1 211 0
 1552 0a4a 8F81      		ldd r24,Y+7
 1553 0a4c 9885      		ldd r25,Y+8
 1554 0a4e FC01      		movw r30,r24
 1555 0a50 2281      		ldd r18,Z+2
 1556 0a52 3381      		ldd r19,Z+3
 1557 0a54 8B81      		ldd r24,Y+3
 1558 0a56 9C81      		ldd r25,Y+4
 1559 0a58 FC01      		movw r30,r24
 1560 0a5a 3383      		std Z+3,r19
 1561 0a5c 2283      		std Z+2,r18
 1562               	.L61:
 212:lp_solve_5.5/lp_mipbb.c ****     if(BB->child != NULL)
 1563               		.loc 1 212 0
 1564 0a5e 8F81      		ldd r24,Y+7
 1565 0a60 9885      		ldd r25,Y+8
 1566 0a62 FC01      		movw r30,r24
 1567 0a64 8281      		ldd r24,Z+2
 1568 0a66 9381      		ldd r25,Z+3
 1569 0a68 892B      		or r24,r25
 1570 0a6a 01F0      		breq .L60
 213:lp_solve_5.5/lp_mipbb.c ****       BB->child->parent = parentBB;
 1571               		.loc 1 213 0
 1572 0a6c 8F81      		ldd r24,Y+7
 1573 0a6e 9885      		ldd r25,Y+8
 1574 0a70 FC01      		movw r30,r24
 1575 0a72 8281      		ldd r24,Z+2
 1576 0a74 9381      		ldd r25,Z+3
 1577 0a76 2B81      		ldd r18,Y+3
 1578 0a78 3C81      		ldd r19,Y+4
 1579 0a7a FC01      		movw r30,r24
 1580 0a7c 3183      		std Z+1,r19
 1581 0a7e 2083      		st Z,r18
 1582               	.L60:
 214:lp_solve_5.5/lp_mipbb.c ****   }
 215:lp_solve_5.5/lp_mipbb.c **** 
 216:lp_solve_5.5/lp_mipbb.c ****   /* Unwind other variables */
 217:lp_solve_5.5/lp_mipbb.c ****   if(lp->bb_upperchange != NULL) {
 1583               		.loc 1 217 0
 1584 0a80 8981      		ldd r24,Y+1
 1585 0a82 9A81      		ldd r25,Y+2
 1586 0a84 865B      		subi r24,-74
 1587 0a86 9C4F      		sbci r25,-4
 1588 0a88 FC01      		movw r30,r24
 1589 0a8a 8081      		ld r24,Z
 1590 0a8c 9181      		ldd r25,Z+1
 1591 0a8e 892B      		or r24,r25
 1592 0a90 01F0      		breq .L62
 218:lp_solve_5.5/lp_mipbb.c ****     restoreUndoLadder(lp->bb_upperchange, BB->upbo);
 1593               		.loc 1 218 0
 1594 0a92 8F81      		ldd r24,Y+7
 1595 0a94 9885      		ldd r25,Y+8
 1596 0a96 FC01      		movw r30,r24
 1597 0a98 20A1      		ldd r18,Z+32
 1598 0a9a 31A1      		ldd r19,Z+33
 1599 0a9c 8981      		ldd r24,Y+1
 1600 0a9e 9A81      		ldd r25,Y+2
 1601 0aa0 865B      		subi r24,-74
 1602 0aa2 9C4F      		sbci r25,-4
 1603 0aa4 FC01      		movw r30,r24
 1604 0aa6 8081      		ld r24,Z
 1605 0aa8 9181      		ldd r25,Z+1
 1606 0aaa B901      		movw r22,r18
 1607 0aac 0E94 0000 		call restoreUndoLadder
 219:lp_solve_5.5/lp_mipbb.c ****     for(; BB->UBtrack > 0; BB->UBtrack--) {
 1608               		.loc 1 219 0
 1609 0ab0 00C0      		rjmp .L63
 1610               	.L64:
 220:lp_solve_5.5/lp_mipbb.c ****       decrementUndoLadder(lp->bb_upperchange);
 1611               		.loc 1 220 0 discriminator 2
 1612 0ab2 8981      		ldd r24,Y+1
 1613 0ab4 9A81      		ldd r25,Y+2
 1614 0ab6 865B      		subi r24,-74
 1615 0ab8 9C4F      		sbci r25,-4
 1616 0aba FC01      		movw r30,r24
 1617 0abc 8081      		ld r24,Z
 1618 0abe 9181      		ldd r25,Z+1
 1619 0ac0 0E94 0000 		call decrementUndoLadder
 221:lp_solve_5.5/lp_mipbb.c ****       restoreUndoLadder(lp->bb_upperchange, BB->upbo);
 1620               		.loc 1 221 0 discriminator 2
 1621 0ac4 8F81      		ldd r24,Y+7
 1622 0ac6 9885      		ldd r25,Y+8
 1623 0ac8 FC01      		movw r30,r24
 1624 0aca 20A1      		ldd r18,Z+32
 1625 0acc 31A1      		ldd r19,Z+33
 1626 0ace 8981      		ldd r24,Y+1
 1627 0ad0 9A81      		ldd r25,Y+2
 1628 0ad2 865B      		subi r24,-74
 1629 0ad4 9C4F      		sbci r25,-4
 1630 0ad6 FC01      		movw r30,r24
 1631 0ad8 8081      		ld r24,Z
 1632 0ada 9181      		ldd r25,Z+1
 1633 0adc B901      		movw r22,r18
 1634 0ade 0E94 0000 		call restoreUndoLadder
 219:lp_solve_5.5/lp_mipbb.c ****     for(; BB->UBtrack > 0; BB->UBtrack--) {
 1635               		.loc 1 219 0 discriminator 2
 1636 0ae2 8F81      		ldd r24,Y+7
 1637 0ae4 9885      		ldd r25,Y+8
 1638 0ae6 FC01      		movw r30,r24
 1639 0ae8 24A5      		ldd r18,Z+44
 1640 0aea 35A5      		ldd r19,Z+45
 1641 0aec 2150      		subi r18,1
 1642 0aee 3109      		sbc r19,__zero_reg__
 1643 0af0 FC01      		movw r30,r24
 1644 0af2 35A7      		std Z+45,r19
 1645 0af4 24A7      		std Z+44,r18
 1646               	.L63:
 219:lp_solve_5.5/lp_mipbb.c ****     for(; BB->UBtrack > 0; BB->UBtrack--) {
 1647               		.loc 1 219 0 is_stmt 0 discriminator 1
 1648 0af6 8F81      		ldd r24,Y+7
 1649 0af8 9885      		ldd r25,Y+8
 1650 0afa FC01      		movw r30,r24
 1651 0afc 84A5      		ldd r24,Z+44
 1652 0afe 95A5      		ldd r25,Z+45
 1653 0b00 1816      		cp __zero_reg__,r24
 1654 0b02 1906      		cpc __zero_reg__,r25
 1655 0b04 04F0      		brlt .L64
 1656               	.L62:
 222:lp_solve_5.5/lp_mipbb.c ****     }
 223:lp_solve_5.5/lp_mipbb.c ****   }
 224:lp_solve_5.5/lp_mipbb.c ****   if(lp->bb_lowerchange != NULL) {
 1657               		.loc 1 224 0 is_stmt 1
 1658 0b06 8981      		ldd r24,Y+1
 1659 0b08 9A81      		ldd r25,Y+2
 1660 0b0a 845B      		subi r24,-76
 1661 0b0c 9C4F      		sbci r25,-4
 1662 0b0e FC01      		movw r30,r24
 1663 0b10 8081      		ld r24,Z
 1664 0b12 9181      		ldd r25,Z+1
 1665 0b14 892B      		or r24,r25
 1666 0b16 01F0      		breq .L65
 225:lp_solve_5.5/lp_mipbb.c ****     restoreUndoLadder(lp->bb_lowerchange, BB->lowbo);
 1667               		.loc 1 225 0
 1668 0b18 8F81      		ldd r24,Y+7
 1669 0b1a 9885      		ldd r25,Y+8
 1670 0b1c FC01      		movw r30,r24
 1671 0b1e 22A1      		ldd r18,Z+34
 1672 0b20 33A1      		ldd r19,Z+35
 1673 0b22 8981      		ldd r24,Y+1
 1674 0b24 9A81      		ldd r25,Y+2
 1675 0b26 845B      		subi r24,-76
 1676 0b28 9C4F      		sbci r25,-4
 1677 0b2a FC01      		movw r30,r24
 1678 0b2c 8081      		ld r24,Z
 1679 0b2e 9181      		ldd r25,Z+1
 1680 0b30 B901      		movw r22,r18
 1681 0b32 0E94 0000 		call restoreUndoLadder
 226:lp_solve_5.5/lp_mipbb.c ****     for(; BB->LBtrack > 0; BB->LBtrack--) {
 1682               		.loc 1 226 0
 1683 0b36 00C0      		rjmp .L66
 1684               	.L67:
 227:lp_solve_5.5/lp_mipbb.c ****       decrementUndoLadder(lp->bb_lowerchange);
 1685               		.loc 1 227 0 discriminator 2
 1686 0b38 8981      		ldd r24,Y+1
 1687 0b3a 9A81      		ldd r25,Y+2
 1688 0b3c 845B      		subi r24,-76
 1689 0b3e 9C4F      		sbci r25,-4
 1690 0b40 FC01      		movw r30,r24
 1691 0b42 8081      		ld r24,Z
 1692 0b44 9181      		ldd r25,Z+1
 1693 0b46 0E94 0000 		call decrementUndoLadder
 228:lp_solve_5.5/lp_mipbb.c ****       restoreUndoLadder(lp->bb_lowerchange, BB->lowbo);
 1694               		.loc 1 228 0 discriminator 2
 1695 0b4a 8F81      		ldd r24,Y+7
 1696 0b4c 9885      		ldd r25,Y+8
 1697 0b4e FC01      		movw r30,r24
 1698 0b50 22A1      		ldd r18,Z+34
 1699 0b52 33A1      		ldd r19,Z+35
 1700 0b54 8981      		ldd r24,Y+1
 1701 0b56 9A81      		ldd r25,Y+2
 1702 0b58 845B      		subi r24,-76
 1703 0b5a 9C4F      		sbci r25,-4
 1704 0b5c FC01      		movw r30,r24
 1705 0b5e 8081      		ld r24,Z
 1706 0b60 9181      		ldd r25,Z+1
 1707 0b62 B901      		movw r22,r18
 1708 0b64 0E94 0000 		call restoreUndoLadder
 226:lp_solve_5.5/lp_mipbb.c ****     for(; BB->LBtrack > 0; BB->LBtrack--) {
 1709               		.loc 1 226 0 discriminator 2
 1710 0b68 8F81      		ldd r24,Y+7
 1711 0b6a 9885      		ldd r25,Y+8
 1712 0b6c FC01      		movw r30,r24
 1713 0b6e 26A5      		ldd r18,Z+46
 1714 0b70 37A5      		ldd r19,Z+47
 1715 0b72 2150      		subi r18,1
 1716 0b74 3109      		sbc r19,__zero_reg__
 1717 0b76 FC01      		movw r30,r24
 1718 0b78 37A7      		std Z+47,r19
 1719 0b7a 26A7      		std Z+46,r18
 1720               	.L66:
 226:lp_solve_5.5/lp_mipbb.c ****     for(; BB->LBtrack > 0; BB->LBtrack--) {
 1721               		.loc 1 226 0 is_stmt 0 discriminator 1
 1722 0b7c 8F81      		ldd r24,Y+7
 1723 0b7e 9885      		ldd r25,Y+8
 1724 0b80 FC01      		movw r30,r24
 1725 0b82 86A5      		ldd r24,Z+46
 1726 0b84 97A5      		ldd r25,Z+47
 1727 0b86 1816      		cp __zero_reg__,r24
 1728 0b88 1906      		cpc __zero_reg__,r25
 1729 0b8a 04F0      		brlt .L67
 1730               	.L65:
 229:lp_solve_5.5/lp_mipbb.c ****     }
 230:lp_solve_5.5/lp_mipbb.c ****   }
 231:lp_solve_5.5/lp_mipbb.c ****   lp->bb_level--;
 1731               		.loc 1 231 0 is_stmt 1
 1732 0b8c 8981      		ldd r24,Y+1
 1733 0b8e 9A81      		ldd r25,Y+2
 1734 0b90 805D      		subi r24,-48
 1735 0b92 9C4F      		sbci r25,-4
 1736 0b94 FC01      		movw r30,r24
 1737 0b96 8081      		ld r24,Z
 1738 0b98 9181      		ldd r25,Z+1
 1739 0b9a 9C01      		movw r18,r24
 1740 0b9c 2150      		subi r18,1
 1741 0b9e 3109      		sbc r19,__zero_reg__
 1742 0ba0 8981      		ldd r24,Y+1
 1743 0ba2 9A81      		ldd r25,Y+2
 1744 0ba4 805D      		subi r24,-48
 1745 0ba6 9C4F      		sbci r25,-4
 1746 0ba8 FC01      		movw r30,r24
 1747 0baa 3183      		std Z+1,r19
 1748 0bac 2083      		st Z,r18
 232:lp_solve_5.5/lp_mipbb.c ****   k = BB->varno - lp->rows;
 1749               		.loc 1 232 0
 1750 0bae 8F81      		ldd r24,Y+7
 1751 0bb0 9885      		ldd r25,Y+8
 1752 0bb2 FC01      		movw r30,r24
 1753 0bb4 2681      		ldd r18,Z+6
 1754 0bb6 3781      		ldd r19,Z+7
 1755 0bb8 8981      		ldd r24,Y+1
 1756 0bba 9A81      		ldd r25,Y+2
 1757 0bbc 8651      		subi r24,22
 1758 0bbe 9E4F      		sbci r25,-2
 1759 0bc0 FC01      		movw r30,r24
 1760 0bc2 8081      		ld r24,Z
 1761 0bc4 9181      		ldd r25,Z+1
 1762 0bc6 A901      		movw r20,r18
 1763 0bc8 481B      		sub r20,r24
 1764 0bca 590B      		sbc r21,r25
 1765 0bcc CA01      		movw r24,r20
 1766 0bce 9E83      		std Y+6,r25
 1767 0bd0 8D83      		std Y+5,r24
 233:lp_solve_5.5/lp_mipbb.c ****   if(lp->bb_level == 0) {
 1768               		.loc 1 233 0
 1769 0bd2 8981      		ldd r24,Y+1
 1770 0bd4 9A81      		ldd r25,Y+2
 1771 0bd6 805D      		subi r24,-48
 1772 0bd8 9C4F      		sbci r25,-4
 1773 0bda FC01      		movw r30,r24
 1774 0bdc 8081      		ld r24,Z
 1775 0bde 9181      		ldd r25,Z+1
 1776 0be0 892B      		or r24,r25
 1777 0be2 01F0      		breq .+2
 1778 0be4 00C0      		rjmp .L68
 234:lp_solve_5.5/lp_mipbb.c ****     if(lp->bb_varactive != NULL) {
 1779               		.loc 1 234 0
 1780 0be6 8981      		ldd r24,Y+1
 1781 0be8 9A81      		ldd r25,Y+2
 1782 0bea 885B      		subi r24,-72
 1783 0bec 9C4F      		sbci r25,-4
 1784 0bee FC01      		movw r30,r24
 1785 0bf0 8081      		ld r24,Z
 1786 0bf2 9181      		ldd r25,Z+1
 1787 0bf4 892B      		or r24,r25
 1788 0bf6 01F0      		breq .L69
 235:lp_solve_5.5/lp_mipbb.c ****       FREE(lp->bb_varactive);
 1789               		.loc 1 235 0
 1790 0bf8 8981      		ldd r24,Y+1
 1791 0bfa 9A81      		ldd r25,Y+2
 1792 0bfc 885B      		subi r24,-72
 1793 0bfe 9C4F      		sbci r25,-4
 1794 0c00 FC01      		movw r30,r24
 1795 0c02 8081      		ld r24,Z
 1796 0c04 9181      		ldd r25,Z+1
 1797 0c06 892B      		or r24,r25
 1798 0c08 01F0      		breq .L70
 1799               		.loc 1 235 0 is_stmt 0 discriminator 1
 1800 0c0a 8981      		ldd r24,Y+1
 1801 0c0c 9A81      		ldd r25,Y+2
 1802 0c0e 885B      		subi r24,-72
 1803 0c10 9C4F      		sbci r25,-4
 1804 0c12 FC01      		movw r30,r24
 1805 0c14 8081      		ld r24,Z
 1806 0c16 9181      		ldd r25,Z+1
 1807 0c18 0E94 0000 		call free
 1808 0c1c 8981      		ldd r24,Y+1
 1809 0c1e 9A81      		ldd r25,Y+2
 1810 0c20 885B      		subi r24,-72
 1811 0c22 9C4F      		sbci r25,-4
 1812 0c24 FC01      		movw r30,r24
 1813 0c26 1182      		std Z+1,__zero_reg__
 1814 0c28 1082      		st Z,__zero_reg__
 1815               	.L70:
 236:lp_solve_5.5/lp_mipbb.c ****       freecuts_BB(lp);
 1816               		.loc 1 236 0 is_stmt 1
 1817 0c2a 8981      		ldd r24,Y+1
 1818 0c2c 9A81      		ldd r25,Y+2
 1819 0c2e 0E94 0000 		call freecuts_BB
 1820               	.L69:
 237:lp_solve_5.5/lp_mipbb.c ****     }
 238:lp_solve_5.5/lp_mipbb.c ****     if(lp->int_vars+lp->sc_vars > 0)
 1821               		.loc 1 238 0
 1822 0c32 8981      		ldd r24,Y+1
 1823 0c34 9A81      		ldd r25,Y+2
 1824 0c36 8257      		subi r24,114
 1825 0c38 9D4F      		sbci r25,-3
 1826 0c3a FC01      		movw r30,r24
 1827 0c3c 2081      		ld r18,Z
 1828 0c3e 3181      		ldd r19,Z+1
 1829 0c40 8981      		ldd r24,Y+1
 1830 0c42 9A81      		ldd r25,Y+2
 1831 0c44 8057      		subi r24,112
 1832 0c46 9D4F      		sbci r25,-3
 1833 0c48 FC01      		movw r30,r24
 1834 0c4a 8081      		ld r24,Z
 1835 0c4c 9181      		ldd r25,Z+1
 1836 0c4e 820F      		add r24,r18
 1837 0c50 931F      		adc r25,r19
 1838 0c52 1816      		cp __zero_reg__,r24
 1839 0c54 1906      		cpc __zero_reg__,r25
 1840 0c56 04F4      		brge .L71
 239:lp_solve_5.5/lp_mipbb.c ****       free_pseudocost(lp);
 1841               		.loc 1 239 0
 1842 0c58 8981      		ldd r24,Y+1
 1843 0c5a 9A81      		ldd r25,Y+2
 1844 0c5c 0E94 0000 		call free_pseudocost
 1845               	.L71:
 240:lp_solve_5.5/lp_mipbb.c ****     pop_basis(lp, FALSE);
 1846               		.loc 1 240 0
 1847 0c60 8981      		ldd r24,Y+1
 1848 0c62 9A81      		ldd r25,Y+2
 1849 0c64 60E0      		ldi r22,0
 1850 0c66 0E94 0000 		call pop_basis
 241:lp_solve_5.5/lp_mipbb.c ****     lp->rootbounds = NULL;
 1851               		.loc 1 241 0
 1852 0c6a 8981      		ldd r24,Y+1
 1853 0c6c 9A81      		ldd r25,Y+2
 1854 0c6e 8454      		subi r24,68
 1855 0c70 9D4F      		sbci r25,-3
 1856 0c72 FC01      		movw r30,r24
 1857 0c74 1182      		std Z+1,__zero_reg__
 1858 0c76 1082      		st Z,__zero_reg__
 1859 0c78 00C0      		rjmp .L72
 1860               	.L68:
 242:lp_solve_5.5/lp_mipbb.c ****   }
 243:lp_solve_5.5/lp_mipbb.c ****   else
 244:lp_solve_5.5/lp_mipbb.c ****     lp->bb_varactive[k]--;
 1861               		.loc 1 244 0
 1862 0c7a 8981      		ldd r24,Y+1
 1863 0c7c 9A81      		ldd r25,Y+2
 1864 0c7e 885B      		subi r24,-72
 1865 0c80 9C4F      		sbci r25,-4
 1866 0c82 FC01      		movw r30,r24
 1867 0c84 2081      		ld r18,Z
 1868 0c86 3181      		ldd r19,Z+1
 1869 0c88 8D81      		ldd r24,Y+5
 1870 0c8a 9E81      		ldd r25,Y+6
 1871 0c8c 880F      		lsl r24
 1872 0c8e 991F      		rol r25
 1873 0c90 820F      		add r24,r18
 1874 0c92 931F      		adc r25,r19
 1875 0c94 FC01      		movw r30,r24
 1876 0c96 2081      		ld r18,Z
 1877 0c98 3181      		ldd r19,Z+1
 1878 0c9a 2150      		subi r18,1
 1879 0c9c 3109      		sbc r19,__zero_reg__
 1880 0c9e FC01      		movw r30,r24
 1881 0ca0 3183      		std Z+1,r19
 1882 0ca2 2083      		st Z,r18
 1883               	.L72:
 245:lp_solve_5.5/lp_mipbb.c **** 
 246:lp_solve_5.5/lp_mipbb.c ****   /* Undo SOS/GUB markers */
 247:lp_solve_5.5/lp_mipbb.c ****   if(BB->isSOS && (BB->vartype != BB_INT))
 1884               		.loc 1 247 0
 1885 0ca4 8F81      		ldd r24,Y+7
 1886 0ca6 9885      		ldd r25,Y+8
 1887 0ca8 FC01      		movw r30,r24
 1888 0caa 82A9      		ldd r24,Z+50
 1889 0cac 8823      		tst r24
 1890 0cae 01F0      		breq .L73
 1891               		.loc 1 247 0 is_stmt 0 discriminator 1
 1892 0cb0 8F81      		ldd r24,Y+7
 1893 0cb2 9885      		ldd r25,Y+8
 1894 0cb4 FC01      		movw r30,r24
 1895 0cb6 8085      		ldd r24,Z+8
 1896 0cb8 9185      		ldd r25,Z+9
 1897 0cba 0197      		sbiw r24,1
 1898 0cbc 01F0      		breq .L73
 248:lp_solve_5.5/lp_mipbb.c ****     SOS_unmark(lp->SOS, 0, k);
 1899               		.loc 1 248 0 is_stmt 1
 1900 0cbe 8981      		ldd r24,Y+1
 1901 0cc0 9A81      		ldd r25,Y+2
 1902 0cc2 8256      		subi r24,98
 1903 0cc4 9D4F      		sbci r25,-3
 1904 0cc6 FC01      		movw r30,r24
 1905 0cc8 8081      		ld r24,Z
 1906 0cca 9181      		ldd r25,Z+1
 1907 0ccc 2D81      		ldd r18,Y+5
 1908 0cce 3E81      		ldd r19,Y+6
 1909 0cd0 A901      		movw r20,r18
 1910 0cd2 60E0      		ldi r22,0
 1911 0cd4 70E0      		ldi r23,0
 1912 0cd6 0E94 0000 		call SOS_unmark
 1913 0cda 00C0      		rjmp .L74
 1914               	.L73:
 249:lp_solve_5.5/lp_mipbb.c ****   else if(BB->isGUB)
 1915               		.loc 1 249 0
 1916 0cdc 8F81      		ldd r24,Y+7
 1917 0cde 9885      		ldd r25,Y+8
 1918 0ce0 FC01      		movw r30,r24
 1919 0ce2 83A9      		ldd r24,Z+51
 1920 0ce4 8823      		tst r24
 1921 0ce6 01F0      		breq .L74
 250:lp_solve_5.5/lp_mipbb.c ****     SOS_unmark(lp->GUB, 0, k);
 1922               		.loc 1 250 0
 1923 0ce8 8981      		ldd r24,Y+1
 1924 0cea 9A81      		ldd r25,Y+2
 1925 0cec 8856      		subi r24,104
 1926 0cee 9D4F      		sbci r25,-3
 1927 0cf0 FC01      		movw r30,r24
 1928 0cf2 8081      		ld r24,Z
 1929 0cf4 9181      		ldd r25,Z+1
 1930 0cf6 2D81      		ldd r18,Y+5
 1931 0cf8 3E81      		ldd r19,Y+6
 1932 0cfa A901      		movw r20,r18
 1933 0cfc 60E0      		ldi r22,0
 1934 0cfe 70E0      		ldi r23,0
 1935 0d00 0E94 0000 		call SOS_unmark
 1936               	.L74:
 251:lp_solve_5.5/lp_mipbb.c **** 
 252:lp_solve_5.5/lp_mipbb.c ****   /* Undo the SC marker */
 253:lp_solve_5.5/lp_mipbb.c ****   if(BB->sc_canset)
 1937               		.loc 1 253 0
 1938 0d04 8F81      		ldd r24,Y+7
 1939 0d06 9885      		ldd r25,Y+8
 1940 0d08 FC01      		movw r30,r24
 1941 0d0a 81A9      		ldd r24,Z+49
 1942 0d0c 8823      		tst r24
 1943 0d0e 01F0      		breq .L75
 254:lp_solve_5.5/lp_mipbb.c ****     lp->sc_lobound[k] *= -1;
 1944               		.loc 1 254 0
 1945 0d10 8981      		ldd r24,Y+1
 1946 0d12 9A81      		ldd r25,Y+2
 1947 0d14 8E56      		subi r24,110
 1948 0d16 9D4F      		sbci r25,-3
 1949 0d18 FC01      		movw r30,r24
 1950 0d1a 2081      		ld r18,Z
 1951 0d1c 3181      		ldd r19,Z+1
 1952 0d1e 8D81      		ldd r24,Y+5
 1953 0d20 9E81      		ldd r25,Y+6
 1954 0d22 880F      		lsl r24
 1955 0d24 991F      		rol r25
 1956 0d26 880F      		lsl r24
 1957 0d28 991F      		rol r25
 1958 0d2a 280F      		add r18,r24
 1959 0d2c 391F      		adc r19,r25
 1960 0d2e 8981      		ldd r24,Y+1
 1961 0d30 9A81      		ldd r25,Y+2
 1962 0d32 8E56      		subi r24,110
 1963 0d34 9D4F      		sbci r25,-3
 1964 0d36 FC01      		movw r30,r24
 1965 0d38 4081      		ld r20,Z
 1966 0d3a 5181      		ldd r21,Z+1
 1967 0d3c 8D81      		ldd r24,Y+5
 1968 0d3e 9E81      		ldd r25,Y+6
 1969 0d40 880F      		lsl r24
 1970 0d42 991F      		rol r25
 1971 0d44 880F      		lsl r24
 1972 0d46 991F      		rol r25
 1973 0d48 840F      		add r24,r20
 1974 0d4a 951F      		adc r25,r21
 1975 0d4c FC01      		movw r30,r24
 1976 0d4e 8081      		ld r24,Z
 1977 0d50 9181      		ldd r25,Z+1
 1978 0d52 A281      		ldd r26,Z+2
 1979 0d54 B381      		ldd r27,Z+3
 1980 0d56 B058      		subi r27,0x80
 1981 0d58 F901      		movw r30,r18
 1982 0d5a 8083      		st Z,r24
 1983 0d5c 9183      		std Z+1,r25
 1984 0d5e A283      		std Z+2,r26
 1985 0d60 B383      		std Z+3,r27
 1986               	.L75:
 255:lp_solve_5.5/lp_mipbb.c **** 
 256:lp_solve_5.5/lp_mipbb.c ****   /* Pop the associated basis */
 257:lp_solve_5.5/lp_mipbb.c **** #if 1
 258:lp_solve_5.5/lp_mipbb.c ****   /* Original version that does not restore previous basis */
 259:lp_solve_5.5/lp_mipbb.c ****   pop_basis(lp, FALSE);
 1987               		.loc 1 259 0
 1988 0d62 8981      		ldd r24,Y+1
 1989 0d64 9A81      		ldd r25,Y+2
 1990 0d66 60E0      		ldi r22,0
 1991 0d68 0E94 0000 		call pop_basis
 260:lp_solve_5.5/lp_mipbb.c **** #else
 261:lp_solve_5.5/lp_mipbb.c ****   /* Experimental version that restores previous basis */
 262:lp_solve_5.5/lp_mipbb.c ****   pop_basis(lp, BB->isSOS);
 263:lp_solve_5.5/lp_mipbb.c **** #endif
 264:lp_solve_5.5/lp_mipbb.c **** 
 265:lp_solve_5.5/lp_mipbb.c ****   /* Finally free the B&B object */
 266:lp_solve_5.5/lp_mipbb.c ****   free_BB(&BB);
 1992               		.loc 1 266 0
 1993 0d6c CE01      		movw r24,r28
 1994 0d6e 0796      		adiw r24,7
 1995 0d70 0E94 0000 		call free_BB
 267:lp_solve_5.5/lp_mipbb.c **** 
 268:lp_solve_5.5/lp_mipbb.c ****   /* Return the parent BB */
 269:lp_solve_5.5/lp_mipbb.c ****   return( parentBB );
 1996               		.loc 1 269 0
 1997 0d74 8B81      		ldd r24,Y+3
 1998 0d76 9C81      		ldd r25,Y+4
 1999               	.L57:
 2000               	/* epilogue start */
 270:lp_solve_5.5/lp_mipbb.c **** }
 2001               		.loc 1 270 0
 2002 0d78 2896      		adiw r28,8
 2003 0d7a 0FB6      		in __tmp_reg__,__SREG__
 2004 0d7c F894      		cli
 2005 0d7e DEBF      		out __SP_H__,r29
 2006 0d80 0FBE      		out __SREG__,__tmp_reg__
 2007 0d82 CDBF      		out __SP_L__,r28
 2008 0d84 DF91      		pop r29
 2009 0d86 CF91      		pop r28
 2010 0d88 0895      		ret
 2011               		.cfi_endproc
 2012               	.LFE10:
 2014               	.global	__subsf3
 2015               	.global	__mulsf3
 2016               	.global	__addsf3
 2017               	.global	probe_BB
 2019               	probe_BB:
 2020               	.LFB11:
 271:lp_solve_5.5/lp_mipbb.c **** 
 272:lp_solve_5.5/lp_mipbb.c **** /* Here are heuristic routines to see if we need bother with branching further
 273:lp_solve_5.5/lp_mipbb.c **** 
 274:lp_solve_5.5/lp_mipbb.c ****     1. A probing routine to see of the best OF can be better than incumbent
 275:lp_solve_5.5/lp_mipbb.c ****     2. A presolve routine to fix other variables and detect infeasibility
 276:lp_solve_5.5/lp_mipbb.c **** 
 277:lp_solve_5.5/lp_mipbb.c ****    THIS IS INACTIVE CODE, PLACEHOLDERS FOR FUTURE DEVELOPMENT!!! */
 278:lp_solve_5.5/lp_mipbb.c **** STATIC REAL probe_BB(BBrec *BB)
 279:lp_solve_5.5/lp_mipbb.c **** {
 2021               		.loc 1 279 0
 2022               		.cfi_startproc
 2023 0d8a CF93      		push r28
 2024               	.LCFI18:
 2025               		.cfi_def_cfa_offset 3
 2026               		.cfi_offset 28, -2
 2027 0d8c DF93      		push r29
 2028               	.LCFI19:
 2029               		.cfi_def_cfa_offset 4
 2030               		.cfi_offset 29, -3
 2031 0d8e CDB7      		in r28,__SP_L__
 2032 0d90 DEB7      		in r29,__SP_H__
 2033               	.LCFI20:
 2034               		.cfi_def_cfa_register 28
 2035 0d92 6097      		sbiw r28,16
 2036               	.LCFI21:
 2037               		.cfi_def_cfa_offset 20
 2038 0d94 0FB6      		in __tmp_reg__,__SREG__
 2039 0d96 F894      		cli
 2040 0d98 DEBF      		out __SP_H__,r29
 2041 0d9a 0FBE      		out __SREG__,__tmp_reg__
 2042 0d9c CDBF      		out __SP_L__,r28
 2043               	/* prologue: function */
 2044               	/* frame size = 16 */
 2045               	/* stack size = 18 */
 2046               	.L__stack_usage = 18
 2047 0d9e 988B      		std Y+16,r25
 2048 0da0 8F87      		std Y+15,r24
 280:lp_solve_5.5/lp_mipbb.c ****   int  i, ii;
 281:lp_solve_5.5/lp_mipbb.c ****   REAL coefOF, sum = 0;
 2049               		.loc 1 281 0
 2050 0da2 1B82      		std Y+3,__zero_reg__
 2051 0da4 1C82      		std Y+4,__zero_reg__
 2052 0da6 1D82      		std Y+5,__zero_reg__
 2053 0da8 1E82      		std Y+6,__zero_reg__
 282:lp_solve_5.5/lp_mipbb.c ****   lprec *lp = BB->lp;
 2054               		.loc 1 282 0
 2055 0daa 8F85      		ldd r24,Y+15
 2056 0dac 9889      		ldd r25,Y+16
 2057 0dae FC01      		movw r30,r24
 2058 0db0 8481      		ldd r24,Z+4
 2059 0db2 9581      		ldd r25,Z+5
 2060 0db4 9887      		std Y+8,r25
 2061 0db6 8F83      		std Y+7,r24
 283:lp_solve_5.5/lp_mipbb.c **** 
 284:lp_solve_5.5/lp_mipbb.c ****   /* Loop over all ints to see if the best possible solution
 285:lp_solve_5.5/lp_mipbb.c ****      stands any chance of being better than the incumbent solution */
 286:lp_solve_5.5/lp_mipbb.c ****   if(lp->solutioncount == 0)
 2062               		.loc 1 286 0
 2063 0db8 8F81      		ldd r24,Y+7
 2064 0dba 9885      		ldd r25,Y+8
 2065 0dbc 865F      		subi r24,-10
 2066 0dbe 9D4F      		sbci r25,-3
 2067 0dc0 FC01      		movw r30,r24
 2068 0dc2 8081      		ld r24,Z
 2069 0dc4 9181      		ldd r25,Z+1
 2070 0dc6 892B      		or r24,r25
 2071 0dc8 01F4      		brne .L77
 287:lp_solve_5.5/lp_mipbb.c ****     return( lp->infinite );
 2072               		.loc 1 287 0
 2073 0dca 8F81      		ldd r24,Y+7
 2074 0dcc 9885      		ldd r25,Y+8
 2075 0dce 865F      		subi r24,-10
 2076 0dd0 9C4F      		sbci r25,-4
 2077 0dd2 FC01      		movw r30,r24
 2078 0dd4 8081      		ld r24,Z
 2079 0dd6 9181      		ldd r25,Z+1
 2080 0dd8 A281      		ldd r26,Z+2
 2081 0dda B381      		ldd r27,Z+3
 2082 0ddc 00C0      		rjmp .L78
 2083               	.L77:
 288:lp_solve_5.5/lp_mipbb.c ****   for(i = 1; i <= lp->columns; i++) {
 2084               		.loc 1 288 0
 2085 0dde 81E0      		ldi r24,lo8(1)
 2086 0de0 90E0      		ldi r25,0
 2087 0de2 9A83      		std Y+2,r25
 2088 0de4 8983      		std Y+1,r24
 2089 0de6 00C0      		rjmp .L79
 2090               	.L86:
 289:lp_solve_5.5/lp_mipbb.c ****     if(!is_int(lp, i))
 2091               		.loc 1 289 0
 2092 0de8 2981      		ldd r18,Y+1
 2093 0dea 3A81      		ldd r19,Y+2
 2094 0dec 8F81      		ldd r24,Y+7
 2095 0dee 9885      		ldd r25,Y+8
 2096 0df0 B901      		movw r22,r18
 2097 0df2 0E94 0000 		call is_int
 2098 0df6 8823      		tst r24
 2099 0df8 01F4      		brne .+2
 2100 0dfa 00C0      		rjmp .L89
 290:lp_solve_5.5/lp_mipbb.c ****       continue;
 291:lp_solve_5.5/lp_mipbb.c ****     ii = lp->rows + i;
 2101               		.loc 1 291 0
 2102 0dfc 8F81      		ldd r24,Y+7
 2103 0dfe 9885      		ldd r25,Y+8
 2104 0e00 8651      		subi r24,22
 2105 0e02 9E4F      		sbci r25,-2
 2106 0e04 FC01      		movw r30,r24
 2107 0e06 2081      		ld r18,Z
 2108 0e08 3181      		ldd r19,Z+1
 2109 0e0a 8981      		ldd r24,Y+1
 2110 0e0c 9A81      		ldd r25,Y+2
 2111 0e0e 820F      		add r24,r18
 2112 0e10 931F      		adc r25,r19
 2113 0e12 9A87      		std Y+10,r25
 2114 0e14 8987      		std Y+9,r24
 292:lp_solve_5.5/lp_mipbb.c ****     coefOF = lp->obj[i];
 2115               		.loc 1 292 0
 2116 0e16 8F81      		ldd r24,Y+7
 2117 0e18 9885      		ldd r25,Y+8
 2118 0e1a 825D      		subi r24,-46
 2119 0e1c 9D4F      		sbci r25,-3
 2120 0e1e FC01      		movw r30,r24
 2121 0e20 2081      		ld r18,Z
 2122 0e22 3181      		ldd r19,Z+1
 2123 0e24 8981      		ldd r24,Y+1
 2124 0e26 9A81      		ldd r25,Y+2
 2125 0e28 880F      		lsl r24
 2126 0e2a 991F      		rol r25
 2127 0e2c 880F      		lsl r24
 2128 0e2e 991F      		rol r25
 2129 0e30 820F      		add r24,r18
 2130 0e32 931F      		adc r25,r19
 2131 0e34 FC01      		movw r30,r24
 2132 0e36 8081      		ld r24,Z
 2133 0e38 9181      		ldd r25,Z+1
 2134 0e3a A281      		ldd r26,Z+2
 2135 0e3c B381      		ldd r27,Z+3
 2136 0e3e 8B87      		std Y+11,r24
 2137 0e40 9C87      		std Y+12,r25
 2138 0e42 AD87      		std Y+13,r26
 2139 0e44 BE87      		std Y+14,r27
 293:lp_solve_5.5/lp_mipbb.c ****     if(coefOF < 0) {
 2140               		.loc 1 293 0
 2141 0e46 20E0      		ldi r18,0
 2142 0e48 30E0      		ldi r19,0
 2143 0e4a A901      		movw r20,r18
 2144 0e4c 6B85      		ldd r22,Y+11
 2145 0e4e 7C85      		ldd r23,Y+12
 2146 0e50 8D85      		ldd r24,Y+13
 2147 0e52 9E85      		ldd r25,Y+14
 2148 0e54 0E94 0000 		call __ltsf2
 2149 0e58 8823      		tst r24
 2150 0e5a 04F0      		brlt .+2
 2151 0e5c 00C0      		rjmp .L88
 294:lp_solve_5.5/lp_mipbb.c ****       if(is_infinite(lp, BB->lowbo[ii]))
 2152               		.loc 1 294 0
 2153 0e5e 8F85      		ldd r24,Y+15
 2154 0e60 9889      		ldd r25,Y+16
 2155 0e62 FC01      		movw r30,r24
 2156 0e64 22A1      		ldd r18,Z+34
 2157 0e66 33A1      		ldd r19,Z+35
 2158 0e68 8985      		ldd r24,Y+9
 2159 0e6a 9A85      		ldd r25,Y+10
 2160 0e6c 880F      		lsl r24
 2161 0e6e 991F      		rol r25
 2162 0e70 880F      		lsl r24
 2163 0e72 991F      		rol r25
 2164 0e74 820F      		add r24,r18
 2165 0e76 931F      		adc r25,r19
 2166 0e78 FC01      		movw r30,r24
 2167 0e7a 8081      		ld r24,Z
 2168 0e7c 9181      		ldd r25,Z+1
 2169 0e7e A281      		ldd r26,Z+2
 2170 0e80 B381      		ldd r27,Z+3
 2171 0e82 2F81      		ldd r18,Y+7
 2172 0e84 3885      		ldd r19,Y+8
 2173 0e86 AC01      		movw r20,r24
 2174 0e88 BD01      		movw r22,r26
 2175 0e8a C901      		movw r24,r18
 2176 0e8c 0E94 0000 		call is_infinite
 2177 0e90 8823      		tst r24
 2178 0e92 01F0      		breq .L84
 295:lp_solve_5.5/lp_mipbb.c ****         return( lp->infinite );
 2179               		.loc 1 295 0
 2180 0e94 8F81      		ldd r24,Y+7
 2181 0e96 9885      		ldd r25,Y+8
 2182 0e98 865F      		subi r24,-10
 2183 0e9a 9C4F      		sbci r25,-4
 2184 0e9c FC01      		movw r30,r24
 2185 0e9e 8081      		ld r24,Z
 2186 0ea0 9181      		ldd r25,Z+1
 2187 0ea2 A281      		ldd r26,Z+2
 2188 0ea4 B381      		ldd r27,Z+3
 2189 0ea6 00C0      		rjmp .L78
 2190               	.L84:
 296:lp_solve_5.5/lp_mipbb.c ****       sum += coefOF * (lp->solution[ii]-BB->lowbo[ii]);
 2191               		.loc 1 296 0
 2192 0ea8 8F81      		ldd r24,Y+7
 2193 0eaa 9885      		ldd r25,Y+8
 2194 0eac 8E5E      		subi r24,-18
 2195 0eae 9D4F      		sbci r25,-3
 2196 0eb0 FC01      		movw r30,r24
 2197 0eb2 2081      		ld r18,Z
 2198 0eb4 3181      		ldd r19,Z+1
 2199 0eb6 8985      		ldd r24,Y+9
 2200 0eb8 9A85      		ldd r25,Y+10
 2201 0eba 880F      		lsl r24
 2202 0ebc 991F      		rol r25
 2203 0ebe 880F      		lsl r24
 2204 0ec0 991F      		rol r25
 2205 0ec2 820F      		add r24,r18
 2206 0ec4 931F      		adc r25,r19
 2207 0ec6 FC01      		movw r30,r24
 2208 0ec8 8081      		ld r24,Z
 2209 0eca 9181      		ldd r25,Z+1
 2210 0ecc A281      		ldd r26,Z+2
 2211 0ece B381      		ldd r27,Z+3
 2212 0ed0 2F85      		ldd r18,Y+15
 2213 0ed2 3889      		ldd r19,Y+16
 2214 0ed4 F901      		movw r30,r18
 2215 0ed6 42A1      		ldd r20,Z+34
 2216 0ed8 53A1      		ldd r21,Z+35
 2217 0eda 2985      		ldd r18,Y+9
 2218 0edc 3A85      		ldd r19,Y+10
 2219 0ede 220F      		lsl r18
 2220 0ee0 331F      		rol r19
 2221 0ee2 220F      		lsl r18
 2222 0ee4 331F      		rol r19
 2223 0ee6 240F      		add r18,r20
 2224 0ee8 351F      		adc r19,r21
 2225 0eea F901      		movw r30,r18
 2226 0eec 2081      		ld r18,Z
 2227 0eee 3181      		ldd r19,Z+1
 2228 0ef0 4281      		ldd r20,Z+2
 2229 0ef2 5381      		ldd r21,Z+3
 2230 0ef4 BC01      		movw r22,r24
 2231 0ef6 CD01      		movw r24,r26
 2232 0ef8 0E94 0000 		call __subsf3
 2233 0efc DC01      		movw r26,r24
 2234 0efe CB01      		movw r24,r22
 2235 0f00 2B85      		ldd r18,Y+11
 2236 0f02 3C85      		ldd r19,Y+12
 2237 0f04 4D85      		ldd r20,Y+13
 2238 0f06 5E85      		ldd r21,Y+14
 2239 0f08 BC01      		movw r22,r24
 2240 0f0a CD01      		movw r24,r26
 2241 0f0c 0E94 0000 		call __mulsf3
 2242 0f10 DC01      		movw r26,r24
 2243 0f12 CB01      		movw r24,r22
 2244 0f14 9C01      		movw r18,r24
 2245 0f16 AD01      		movw r20,r26
 2246 0f18 6B81      		ldd r22,Y+3
 2247 0f1a 7C81      		ldd r23,Y+4
 2248 0f1c 8D81      		ldd r24,Y+5
 2249 0f1e 9E81      		ldd r25,Y+6
 2250 0f20 0E94 0000 		call __addsf3
 2251 0f24 DC01      		movw r26,r24
 2252 0f26 CB01      		movw r24,r22
 2253 0f28 8B83      		std Y+3,r24
 2254 0f2a 9C83      		std Y+4,r25
 2255 0f2c AD83      		std Y+5,r26
 2256 0f2e BE83      		std Y+6,r27
 2257 0f30 00C0      		rjmp .L81
 2258               	.L88:
 297:lp_solve_5.5/lp_mipbb.c ****     }
 298:lp_solve_5.5/lp_mipbb.c ****     else {
 299:lp_solve_5.5/lp_mipbb.c ****       if(is_infinite(lp, BB->upbo[ii]))
 2259               		.loc 1 299 0
 2260 0f32 8F85      		ldd r24,Y+15
 2261 0f34 9889      		ldd r25,Y+16
 2262 0f36 FC01      		movw r30,r24
 2263 0f38 20A1      		ldd r18,Z+32
 2264 0f3a 31A1      		ldd r19,Z+33
 2265 0f3c 8985      		ldd r24,Y+9
 2266 0f3e 9A85      		ldd r25,Y+10
 2267 0f40 880F      		lsl r24
 2268 0f42 991F      		rol r25
 2269 0f44 880F      		lsl r24
 2270 0f46 991F      		rol r25
 2271 0f48 820F      		add r24,r18
 2272 0f4a 931F      		adc r25,r19
 2273 0f4c FC01      		movw r30,r24
 2274 0f4e 8081      		ld r24,Z
 2275 0f50 9181      		ldd r25,Z+1
 2276 0f52 A281      		ldd r26,Z+2
 2277 0f54 B381      		ldd r27,Z+3
 2278 0f56 2F81      		ldd r18,Y+7
 2279 0f58 3885      		ldd r19,Y+8
 2280 0f5a AC01      		movw r20,r24
 2281 0f5c BD01      		movw r22,r26
 2282 0f5e C901      		movw r24,r18
 2283 0f60 0E94 0000 		call is_infinite
 2284 0f64 8823      		tst r24
 2285 0f66 01F0      		breq .L85
 300:lp_solve_5.5/lp_mipbb.c ****         return( lp->infinite );
 2286               		.loc 1 300 0
 2287 0f68 8F81      		ldd r24,Y+7
 2288 0f6a 9885      		ldd r25,Y+8
 2289 0f6c 865F      		subi r24,-10
 2290 0f6e 9C4F      		sbci r25,-4
 2291 0f70 FC01      		movw r30,r24
 2292 0f72 8081      		ld r24,Z
 2293 0f74 9181      		ldd r25,Z+1
 2294 0f76 A281      		ldd r26,Z+2
 2295 0f78 B381      		ldd r27,Z+3
 2296 0f7a 00C0      		rjmp .L78
 2297               	.L85:
 301:lp_solve_5.5/lp_mipbb.c ****       sum += coefOF * (BB->upbo[ii] - lp->solution[ii]);
 2298               		.loc 1 301 0
 2299 0f7c 8F85      		ldd r24,Y+15
 2300 0f7e 9889      		ldd r25,Y+16
 2301 0f80 FC01      		movw r30,r24
 2302 0f82 20A1      		ldd r18,Z+32
 2303 0f84 31A1      		ldd r19,Z+33
 2304 0f86 8985      		ldd r24,Y+9
 2305 0f88 9A85      		ldd r25,Y+10
 2306 0f8a 880F      		lsl r24
 2307 0f8c 991F      		rol r25
 2308 0f8e 880F      		lsl r24
 2309 0f90 991F      		rol r25
 2310 0f92 820F      		add r24,r18
 2311 0f94 931F      		adc r25,r19
 2312 0f96 FC01      		movw r30,r24
 2313 0f98 8081      		ld r24,Z
 2314 0f9a 9181      		ldd r25,Z+1
 2315 0f9c A281      		ldd r26,Z+2
 2316 0f9e B381      		ldd r27,Z+3
 2317 0fa0 2F81      		ldd r18,Y+7
 2318 0fa2 3885      		ldd r19,Y+8
 2319 0fa4 2E5E      		subi r18,-18
 2320 0fa6 3D4F      		sbci r19,-3
 2321 0fa8 F901      		movw r30,r18
 2322 0faa 4081      		ld r20,Z
 2323 0fac 5181      		ldd r21,Z+1
 2324 0fae 2985      		ldd r18,Y+9
 2325 0fb0 3A85      		ldd r19,Y+10
 2326 0fb2 220F      		lsl r18
 2327 0fb4 331F      		rol r19
 2328 0fb6 220F      		lsl r18
 2329 0fb8 331F      		rol r19
 2330 0fba 240F      		add r18,r20
 2331 0fbc 351F      		adc r19,r21
 2332 0fbe F901      		movw r30,r18
 2333 0fc0 2081      		ld r18,Z
 2334 0fc2 3181      		ldd r19,Z+1
 2335 0fc4 4281      		ldd r20,Z+2
 2336 0fc6 5381      		ldd r21,Z+3
 2337 0fc8 BC01      		movw r22,r24
 2338 0fca CD01      		movw r24,r26
 2339 0fcc 0E94 0000 		call __subsf3
 2340 0fd0 DC01      		movw r26,r24
 2341 0fd2 CB01      		movw r24,r22
 2342 0fd4 2B85      		ldd r18,Y+11
 2343 0fd6 3C85      		ldd r19,Y+12
 2344 0fd8 4D85      		ldd r20,Y+13
 2345 0fda 5E85      		ldd r21,Y+14
 2346 0fdc BC01      		movw r22,r24
 2347 0fde CD01      		movw r24,r26
 2348 0fe0 0E94 0000 		call __mulsf3
 2349 0fe4 DC01      		movw r26,r24
 2350 0fe6 CB01      		movw r24,r22
 2351 0fe8 9C01      		movw r18,r24
 2352 0fea AD01      		movw r20,r26
 2353 0fec 6B81      		ldd r22,Y+3
 2354 0fee 7C81      		ldd r23,Y+4
 2355 0ff0 8D81      		ldd r24,Y+5
 2356 0ff2 9E81      		ldd r25,Y+6
 2357 0ff4 0E94 0000 		call __addsf3
 2358 0ff8 DC01      		movw r26,r24
 2359 0ffa CB01      		movw r24,r22
 2360 0ffc 8B83      		std Y+3,r24
 2361 0ffe 9C83      		std Y+4,r25
 2362 1000 AD83      		std Y+5,r26
 2363 1002 BE83      		std Y+6,r27
 2364 1004 00C0      		rjmp .L81
 2365               	.L89:
 290:lp_solve_5.5/lp_mipbb.c ****     ii = lp->rows + i;
 2366               		.loc 1 290 0
 2367 1006 0000      		nop
 2368               	.L81:
 288:lp_solve_5.5/lp_mipbb.c ****     if(!is_int(lp, i))
 2369               		.loc 1 288 0 discriminator 2
 2370 1008 8981      		ldd r24,Y+1
 2371 100a 9A81      		ldd r25,Y+2
 2372 100c 0196      		adiw r24,1
 2373 100e 9A83      		std Y+2,r25
 2374 1010 8983      		std Y+1,r24
 2375               	.L79:
 288:lp_solve_5.5/lp_mipbb.c ****     if(!is_int(lp, i))
 2376               		.loc 1 288 0 is_stmt 0 discriminator 1
 2377 1012 8F81      		ldd r24,Y+7
 2378 1014 9885      		ldd r25,Y+8
 2379 1016 8451      		subi r24,20
 2380 1018 9E4F      		sbci r25,-2
 2381 101a FC01      		movw r30,r24
 2382 101c 2081      		ld r18,Z
 2383 101e 3181      		ldd r19,Z+1
 2384 1020 8981      		ldd r24,Y+1
 2385 1022 9A81      		ldd r25,Y+2
 2386 1024 2817      		cp r18,r24
 2387 1026 3907      		cpc r19,r25
 2388 1028 04F0      		brlt .+2
 2389 102a 00C0      		rjmp .L86
 302:lp_solve_5.5/lp_mipbb.c ****     }
 303:lp_solve_5.5/lp_mipbb.c ****   }
 304:lp_solve_5.5/lp_mipbb.c ****   return( sum );
 2390               		.loc 1 304 0 is_stmt 1
 2391 102c 8B81      		ldd r24,Y+3
 2392 102e 9C81      		ldd r25,Y+4
 2393 1030 AD81      		ldd r26,Y+5
 2394 1032 BE81      		ldd r27,Y+6
 2395               	.L78:
 305:lp_solve_5.5/lp_mipbb.c **** }
 2396               		.loc 1 305 0
 2397 1034 BC01      		movw r22,r24
 2398 1036 CD01      		movw r24,r26
 2399               	/* epilogue start */
 2400 1038 6096      		adiw r28,16
 2401 103a 0FB6      		in __tmp_reg__,__SREG__
 2402 103c F894      		cli
 2403 103e DEBF      		out __SP_H__,r29
 2404 1040 0FBE      		out __SREG__,__tmp_reg__
 2405 1042 CDBF      		out __SP_L__,r28
 2406 1044 DF91      		pop r29
 2407 1046 CF91      		pop r28
 2408 1048 0895      		ret
 2409               		.cfi_endproc
 2410               	.LFE11:
 2412               	.global	presolve_BB
 2414               	presolve_BB:
 2415               	.LFB12:
 306:lp_solve_5.5/lp_mipbb.c **** 
 307:lp_solve_5.5/lp_mipbb.c **** STATIC REAL presolve_BB(BBrec *BB)
 308:lp_solve_5.5/lp_mipbb.c **** {
 2416               		.loc 1 308 0
 2417               		.cfi_startproc
 2418 104a CF93      		push r28
 2419               	.LCFI22:
 2420               		.cfi_def_cfa_offset 3
 2421               		.cfi_offset 28, -2
 2422 104c DF93      		push r29
 2423               	.LCFI23:
 2424               		.cfi_def_cfa_offset 4
 2425               		.cfi_offset 29, -3
 2426 104e 00D0      		rcall .
 2427               	.LCFI24:
 2428               		.cfi_def_cfa_offset 6
 2429 1050 CDB7      		in r28,__SP_L__
 2430 1052 DEB7      		in r29,__SP_H__
 2431               	.LCFI25:
 2432               		.cfi_def_cfa_register 28
 2433               	/* prologue: function */
 2434               	/* frame size = 2 */
 2435               	/* stack size = 4 */
 2436               	.L__stack_usage = 4
 2437 1054 9A83      		std Y+2,r25
 2438 1056 8983      		std Y+1,r24
 309:lp_solve_5.5/lp_mipbb.c ****   return( 0 );
 2439               		.loc 1 309 0
 2440 1058 80E0      		ldi r24,0
 2441 105a 90E0      		ldi r25,0
 2442 105c DC01      		movw r26,r24
 310:lp_solve_5.5/lp_mipbb.c **** }
 2443               		.loc 1 310 0
 2444 105e BC01      		movw r22,r24
 2445 1060 CD01      		movw r24,r26
 2446               	/* epilogue start */
 2447 1062 0F90      		pop __tmp_reg__
 2448 1064 0F90      		pop __tmp_reg__
 2449 1066 DF91      		pop r29
 2450 1068 CF91      		pop r28
 2451 106a 0895      		ret
 2452               		.cfi_endproc
 2453               	.LFE12:
 2455               	.global	__divsf3
 2456               	.global	__unordsf2
 2457               	.global	__lesf2
 2458               	.global	__nesf2
 2459               	.global	initbranches_BB
 2461               	initbranches_BB:
 2462               	.LFB13:
 311:lp_solve_5.5/lp_mipbb.c **** 
 312:lp_solve_5.5/lp_mipbb.c **** /* Node and branch management routines */
 313:lp_solve_5.5/lp_mipbb.c **** STATIC MYBOOL initbranches_BB(BBrec *BB)
 314:lp_solve_5.5/lp_mipbb.c **** {
 2463               		.loc 1 314 0
 2464               		.cfi_startproc
 2465 106c CF92      		push r12
 2466               	.LCFI26:
 2467               		.cfi_def_cfa_offset 3
 2468               		.cfi_offset 12, -2
 2469 106e DF92      		push r13
 2470               	.LCFI27:
 2471               		.cfi_def_cfa_offset 4
 2472               		.cfi_offset 13, -3
 2473 1070 EF92      		push r14
 2474               	.LCFI28:
 2475               		.cfi_def_cfa_offset 5
 2476               		.cfi_offset 14, -4
 2477 1072 FF92      		push r15
 2478               	.LCFI29:
 2479               		.cfi_def_cfa_offset 6
 2480               		.cfi_offset 15, -5
 2481 1074 0F93      		push r16
 2482               	.LCFI30:
 2483               		.cfi_def_cfa_offset 7
 2484               		.cfi_offset 16, -6
 2485 1076 1F93      		push r17
 2486               	.LCFI31:
 2487               		.cfi_def_cfa_offset 8
 2488               		.cfi_offset 17, -7
 2489 1078 CF93      		push r28
 2490               	.LCFI32:
 2491               		.cfi_def_cfa_offset 9
 2492               		.cfi_offset 28, -8
 2493 107a DF93      		push r29
 2494               	.LCFI33:
 2495               		.cfi_def_cfa_offset 10
 2496               		.cfi_offset 29, -9
 2497 107c CDB7      		in r28,__SP_L__
 2498 107e DEB7      		in r29,__SP_H__
 2499               	.LCFI34:
 2500               		.cfi_def_cfa_register 28
 2501 1080 6097      		sbiw r28,16
 2502               	.LCFI35:
 2503               		.cfi_def_cfa_offset 26
 2504 1082 0FB6      		in __tmp_reg__,__SREG__
 2505 1084 F894      		cli
 2506 1086 DEBF      		out __SP_H__,r29
 2507 1088 0FBE      		out __SREG__,__tmp_reg__
 2508 108a CDBF      		out __SP_L__,r28
 2509               	/* prologue: function */
 2510               	/* frame size = 16 */
 2511               	/* stack size = 24 */
 2512               	.L__stack_usage = 24
 2513 108c 9E87      		std Y+14,r25
 2514 108e 8D87      		std Y+13,r24
 315:lp_solve_5.5/lp_mipbb.c ****   REAL   new_bound, temp;
 316:lp_solve_5.5/lp_mipbb.c ****   int    k;
 317:lp_solve_5.5/lp_mipbb.c ****   lprec  *lp = BB->lp;
 2515               		.loc 1 317 0
 2516 1090 8D85      		ldd r24,Y+13
 2517 1092 9E85      		ldd r25,Y+14
 2518 1094 FC01      		movw r30,r24
 2519 1096 8481      		ldd r24,Z+4
 2520 1098 9581      		ldd r25,Z+5
 2521 109a 9E83      		std Y+6,r25
 2522 109c 8D83      		std Y+5,r24
 318:lp_solve_5.5/lp_mipbb.c **** 
 319:lp_solve_5.5/lp_mipbb.c ****  /* Create and initialize local bounds and basis */
 320:lp_solve_5.5/lp_mipbb.c ****   BB->nodestatus = NOTRUN;
 2523               		.loc 1 320 0
 2524 109e 8D85      		ldd r24,Y+13
 2525 10a0 9E85      		ldd r25,Y+14
 2526 10a2 2FEF      		ldi r18,lo8(-1)
 2527 10a4 3FEF      		ldi r19,lo8(-1)
 2528 10a6 FC01      		movw r30,r24
 2529 10a8 338B      		std Z+19,r19
 2530 10aa 228B      		std Z+18,r18
 321:lp_solve_5.5/lp_mipbb.c ****   BB->noderesult = lp->infinite;
 2531               		.loc 1 321 0
 2532 10ac 8D81      		ldd r24,Y+5
 2533 10ae 9E81      		ldd r25,Y+6
 2534 10b0 865F      		subi r24,-10
 2535 10b2 9C4F      		sbci r25,-4
 2536 10b4 FC01      		movw r30,r24
 2537 10b6 8081      		ld r24,Z
 2538 10b8 9181      		ldd r25,Z+1
 2539 10ba A281      		ldd r26,Z+2
 2540 10bc B381      		ldd r27,Z+3
 2541 10be 2D85      		ldd r18,Y+13
 2542 10c0 3E85      		ldd r19,Y+14
 2543 10c2 F901      		movw r30,r18
 2544 10c4 848B      		std Z+20,r24
 2545 10c6 958B      		std Z+21,r25
 2546 10c8 A68B      		std Z+22,r26
 2547 10ca B78B      		std Z+23,r27
 322:lp_solve_5.5/lp_mipbb.c ****   push_basis(lp, NULL, NULL, NULL);
 2548               		.loc 1 322 0
 2549 10cc 8D81      		ldd r24,Y+5
 2550 10ce 9E81      		ldd r25,Y+6
 2551 10d0 20E0      		ldi r18,0
 2552 10d2 30E0      		ldi r19,0
 2553 10d4 40E0      		ldi r20,0
 2554 10d6 50E0      		ldi r21,0
 2555 10d8 60E0      		ldi r22,0
 2556 10da 70E0      		ldi r23,0
 2557 10dc 0E94 0000 		call push_basis
 323:lp_solve_5.5/lp_mipbb.c **** 
 324:lp_solve_5.5/lp_mipbb.c ****  /* Set default number of branches at the current B&B branch */
 325:lp_solve_5.5/lp_mipbb.c ****   if(BB->vartype == BB_REAL)
 2558               		.loc 1 325 0
 2559 10e0 8D85      		ldd r24,Y+13
 2560 10e2 9E85      		ldd r25,Y+14
 2561 10e4 FC01      		movw r30,r24
 2562 10e6 8085      		ldd r24,Z+8
 2563 10e8 9185      		ldd r25,Z+9
 2564 10ea 892B      		or r24,r25
 2565 10ec 01F4      		brne .L93
 326:lp_solve_5.5/lp_mipbb.c ****     BB->nodesleft = 1;
 2566               		.loc 1 326 0
 2567 10ee 8D85      		ldd r24,Y+13
 2568 10f0 9E85      		ldd r25,Y+14
 2569 10f2 21E0      		ldi r18,lo8(1)
 2570 10f4 30E0      		ldi r19,0
 2571 10f6 FC01      		movw r30,r24
 2572 10f8 3787      		std Z+15,r19
 2573 10fa 2687      		std Z+14,r18
 2574 10fc 00C0      		rjmp .L94
 2575               	.L93:
 327:lp_solve_5.5/lp_mipbb.c **** 
 328:lp_solve_5.5/lp_mipbb.c ****   else {
 329:lp_solve_5.5/lp_mipbb.c ****    /* The default is a binary up-low branching */
 330:lp_solve_5.5/lp_mipbb.c ****     BB->nodesleft = 2;
 2576               		.loc 1 330 0
 2577 10fe 8D85      		ldd r24,Y+13
 2578 1100 9E85      		ldd r25,Y+14
 2579 1102 22E0      		ldi r18,lo8(2)
 2580 1104 30E0      		ldi r19,0
 2581 1106 FC01      		movw r30,r24
 2582 1108 3787      		std Z+15,r19
 2583 110a 2687      		std Z+14,r18
 331:lp_solve_5.5/lp_mipbb.c **** 
 332:lp_solve_5.5/lp_mipbb.c ****    /* Initialize the MIP status code pair and set reference values */
 333:lp_solve_5.5/lp_mipbb.c ****     k = BB->varno - lp->rows;
 2584               		.loc 1 333 0
 2585 110c 8D85      		ldd r24,Y+13
 2586 110e 9E85      		ldd r25,Y+14
 2587 1110 FC01      		movw r30,r24
 2588 1112 2681      		ldd r18,Z+6
 2589 1114 3781      		ldd r19,Z+7
 2590 1116 8D81      		ldd r24,Y+5
 2591 1118 9E81      		ldd r25,Y+6
 2592 111a 8651      		subi r24,22
 2593 111c 9E4F      		sbci r25,-2
 2594 111e FC01      		movw r30,r24
 2595 1120 8081      		ld r24,Z
 2596 1122 9181      		ldd r25,Z+1
 2597 1124 A901      		movw r20,r18
 2598 1126 481B      		sub r20,r24
 2599 1128 590B      		sbc r21,r25
 2600 112a CA01      		movw r24,r20
 2601 112c 9887      		std Y+8,r25
 2602 112e 8F83      		std Y+7,r24
 334:lp_solve_5.5/lp_mipbb.c ****     BB->lastsolution = lp->solution[BB->varno];
 2603               		.loc 1 334 0
 2604 1130 8D81      		ldd r24,Y+5
 2605 1132 9E81      		ldd r25,Y+6
 2606 1134 8E5E      		subi r24,-18
 2607 1136 9D4F      		sbci r25,-3
 2608 1138 FC01      		movw r30,r24
 2609 113a 2081      		ld r18,Z
 2610 113c 3181      		ldd r19,Z+1
 2611 113e 8D85      		ldd r24,Y+13
 2612 1140 9E85      		ldd r25,Y+14
 2613 1142 FC01      		movw r30,r24
 2614 1144 8681      		ldd r24,Z+6
 2615 1146 9781      		ldd r25,Z+7
 2616 1148 880F      		lsl r24
 2617 114a 991F      		rol r25
 2618 114c 880F      		lsl r24
 2619 114e 991F      		rol r25
 2620 1150 820F      		add r24,r18
 2621 1152 931F      		adc r25,r19
 2622 1154 FC01      		movw r30,r24
 2623 1156 8081      		ld r24,Z
 2624 1158 9181      		ldd r25,Z+1
 2625 115a A281      		ldd r26,Z+2
 2626 115c B381      		ldd r27,Z+3
 2627 115e 2D85      		ldd r18,Y+13
 2628 1160 3E85      		ldd r19,Y+14
 2629 1162 F901      		movw r30,r18
 2630 1164 808F      		std Z+24,r24
 2631 1166 918F      		std Z+25,r25
 2632 1168 A28F      		std Z+26,r26
 2633 116a B38F      		std Z+27,r27
 335:lp_solve_5.5/lp_mipbb.c **** 
 336:lp_solve_5.5/lp_mipbb.c ****    /* Determine if we must process in the B&B SOS mode */
 337:lp_solve_5.5/lp_mipbb.c ****     BB->isSOS = (MYBOOL) ((BB->vartype == BB_SOS) || SOS_is_member(lp->SOS, 0, k));
 2634               		.loc 1 337 0
 2635 116c 8D85      		ldd r24,Y+13
 2636 116e 9E85      		ldd r25,Y+14
 2637 1170 FC01      		movw r30,r24
 2638 1172 8085      		ldd r24,Z+8
 2639 1174 9185      		ldd r25,Z+9
 2640 1176 0397      		sbiw r24,3
 2641 1178 01F0      		breq .L95
 2642               		.loc 1 337 0 is_stmt 0 discriminator 2
 2643 117a 8D81      		ldd r24,Y+5
 2644 117c 9E81      		ldd r25,Y+6
 2645 117e 8256      		subi r24,98
 2646 1180 9D4F      		sbci r25,-3
 2647 1182 FC01      		movw r30,r24
 2648 1184 8081      		ld r24,Z
 2649 1186 9181      		ldd r25,Z+1
 2650 1188 2F81      		ldd r18,Y+7
 2651 118a 3885      		ldd r19,Y+8
 2652 118c A901      		movw r20,r18
 2653 118e 60E0      		ldi r22,0
 2654 1190 70E0      		ldi r23,0
 2655 1192 0E94 0000 		call SOS_is_member
 2656 1196 892B      		or r24,r25
 2657 1198 01F0      		breq .L96
 2658               	.L95:
 2659               		.loc 1 337 0 discriminator 3
 2660 119a 81E0      		ldi r24,lo8(1)
 2661 119c 90E0      		ldi r25,0
 2662 119e 00C0      		rjmp .L97
 2663               	.L96:
 2664               		.loc 1 337 0 discriminator 4
 2665 11a0 80E0      		ldi r24,0
 2666 11a2 90E0      		ldi r25,0
 2667               	.L97:
 2668               		.loc 1 337 0 discriminator 6
 2669 11a4 282F      		mov r18,r24
 2670 11a6 8D85      		ldd r24,Y+13
 2671 11a8 9E85      		ldd r25,Y+14
 2672 11aa FC01      		movw r30,r24
 2673 11ac 22AB      		std Z+50,r18
 338:lp_solve_5.5/lp_mipbb.c **** #ifdef Paranoia
 339:lp_solve_5.5/lp_mipbb.c ****     if((BB->vartype == BB_SOS) && !SOS_is_member(lp->SOS, 0, k))
 340:lp_solve_5.5/lp_mipbb.c ****       report(lp, SEVERE, "initbranches_BB: Inconsistent identification of SOS variable %s (%d)\n",
 341:lp_solve_5.5/lp_mipbb.c ****                          get_col_name(lp, k), k);
 342:lp_solve_5.5/lp_mipbb.c **** #endif
 343:lp_solve_5.5/lp_mipbb.c **** 
 344:lp_solve_5.5/lp_mipbb.c ****    /* Check if we have a GUB-member variable that needs a triple-branch */
 345:lp_solve_5.5/lp_mipbb.c ****     BB->isGUB = (MYBOOL) ((BB->vartype == BB_INT) && SOS_can_activate(lp->GUB, 0, k));
 2674               		.loc 1 345 0 is_stmt 1 discriminator 6
 2675 11ae 8D85      		ldd r24,Y+13
 2676 11b0 9E85      		ldd r25,Y+14
 2677 11b2 FC01      		movw r30,r24
 2678 11b4 8085      		ldd r24,Z+8
 2679 11b6 9185      		ldd r25,Z+9
 2680 11b8 0197      		sbiw r24,1
 2681 11ba 01F4      		brne .L98
 2682               		.loc 1 345 0 is_stmt 0 discriminator 1
 2683 11bc 8D81      		ldd r24,Y+5
 2684 11be 9E81      		ldd r25,Y+6
 2685 11c0 8856      		subi r24,104
 2686 11c2 9D4F      		sbci r25,-3
 2687 11c4 FC01      		movw r30,r24
 2688 11c6 8081      		ld r24,Z
 2689 11c8 9181      		ldd r25,Z+1
 2690 11ca 2F81      		ldd r18,Y+7
 2691 11cc 3885      		ldd r19,Y+8
 2692 11ce A901      		movw r20,r18
 2693 11d0 60E0      		ldi r22,0
 2694 11d2 70E0      		ldi r23,0
 2695 11d4 0E94 0000 		call SOS_can_activate
 2696 11d8 8823      		tst r24
 2697 11da 01F0      		breq .L98
 2698               		.loc 1 345 0 discriminator 3
 2699 11dc 81E0      		ldi r24,lo8(1)
 2700 11de 90E0      		ldi r25,0
 2701 11e0 00C0      		rjmp .L99
 2702               	.L98:
 2703               		.loc 1 345 0 discriminator 4
 2704 11e2 80E0      		ldi r24,0
 2705 11e4 90E0      		ldi r25,0
 2706               	.L99:
 2707               		.loc 1 345 0 discriminator 6
 2708 11e6 282F      		mov r18,r24
 2709 11e8 8D85      		ldd r24,Y+13
 2710 11ea 9E85      		ldd r25,Y+14
 2711 11ec FC01      		movw r30,r24
 2712 11ee 23AB      		std Z+51,r18
 346:lp_solve_5.5/lp_mipbb.c ****     if(BB->isGUB) {
 2713               		.loc 1 346 0 is_stmt 1 discriminator 6
 2714 11f0 8D85      		ldd r24,Y+13
 2715 11f2 9E85      		ldd r25,Y+14
 2716 11f4 FC01      		movw r30,r24
 2717 11f6 83A9      		ldd r24,Z+51
 2718 11f8 8823      		tst r24
 2719 11fa 01F0      		breq .L100
 347:lp_solve_5.5/lp_mipbb.c ****       /* Obtain variable index list from applicable GUB - now the first GUB is used,
 348:lp_solve_5.5/lp_mipbb.c ****         but we could also consider selecting the longest */
 349:lp_solve_5.5/lp_mipbb.c ****       BB->varmanaged = SOS_get_candidates(lp->GUB, -1, k, TRUE, BB->upbo, BB->lowbo);
 2720               		.loc 1 349 0
 2721 11fc 8D85      		ldd r24,Y+13
 2722 11fe 9E85      		ldd r25,Y+14
 2723 1200 FC01      		movw r30,r24
 2724 1202 62A1      		ldd r22,Z+34
 2725 1204 73A1      		ldd r23,Z+35
 2726 1206 8D85      		ldd r24,Y+13
 2727 1208 9E85      		ldd r25,Y+14
 2728 120a FC01      		movw r30,r24
 2729 120c 20A1      		ldd r18,Z+32
 2730 120e 31A1      		ldd r19,Z+33
 2731 1210 8D81      		ldd r24,Y+5
 2732 1212 9E81      		ldd r25,Y+6
 2733 1214 8856      		subi r24,104
 2734 1216 9D4F      		sbci r25,-3
 2735 1218 FC01      		movw r30,r24
 2736 121a 8081      		ld r24,Z
 2737 121c 9181      		ldd r25,Z+1
 2738 121e 4F81      		ldd r20,Y+7
 2739 1220 5885      		ldd r21,Y+8
 2740 1222 7B01      		movw r14,r22
 2741 1224 8901      		movw r16,r18
 2742 1226 21E0      		ldi r18,lo8(1)
 2743 1228 6FEF      		ldi r22,lo8(-1)
 2744 122a 7FEF      		ldi r23,lo8(-1)
 2745 122c 0E94 0000 		call SOS_get_candidates
 2746 1230 9C01      		movw r18,r24
 2747 1232 8D85      		ldd r24,Y+13
 2748 1234 9E85      		ldd r25,Y+14
 2749 1236 FC01      		movw r30,r24
 2750 1238 35AB      		std Z+53,r19
 2751 123a 24AB      		std Z+52,r18
 350:lp_solve_5.5/lp_mipbb.c ****       BB->nodesleft++;
 2752               		.loc 1 350 0
 2753 123c 8D85      		ldd r24,Y+13
 2754 123e 9E85      		ldd r25,Y+14
 2755 1240 FC01      		movw r30,r24
 2756 1242 8685      		ldd r24,Z+14
 2757 1244 9785      		ldd r25,Z+15
 2758 1246 9C01      		movw r18,r24
 2759 1248 2F5F      		subi r18,-1
 2760 124a 3F4F      		sbci r19,-1
 2761 124c 8D85      		ldd r24,Y+13
 2762 124e 9E85      		ldd r25,Y+14
 2763 1250 FC01      		movw r30,r24
 2764 1252 3787      		std Z+15,r19
 2765 1254 2687      		std Z+14,r18
 2766               	.L100:
 351:lp_solve_5.5/lp_mipbb.c ****     }
 352:lp_solve_5.5/lp_mipbb.c **** 
 353:lp_solve_5.5/lp_mipbb.c **** 
 354:lp_solve_5.5/lp_mipbb.c ****    /* Set local pruning info, automatic, or user-defined strategy */
 355:lp_solve_5.5/lp_mipbb.c ****     if(BB->vartype == BB_SOS) {
 2767               		.loc 1 355 0
 2768 1256 8D85      		ldd r24,Y+13
 2769 1258 9E85      		ldd r25,Y+14
 2770 125a FC01      		movw r30,r24
 2771 125c 8085      		ldd r24,Z+8
 2772 125e 9185      		ldd r25,Z+9
 2773 1260 0397      		sbiw r24,3
 2774 1262 01F4      		brne .L101
 356:lp_solve_5.5/lp_mipbb.c ****       if(!SOS_can_activate(lp->SOS, 0, k)) {
 2775               		.loc 1 356 0
 2776 1264 8D81      		ldd r24,Y+5
 2777 1266 9E81      		ldd r25,Y+6
 2778 1268 8256      		subi r24,98
 2779 126a 9D4F      		sbci r25,-3
 2780 126c FC01      		movw r30,r24
 2781 126e 8081      		ld r24,Z
 2782 1270 9181      		ldd r25,Z+1
 2783 1272 2F81      		ldd r18,Y+7
 2784 1274 3885      		ldd r19,Y+8
 2785 1276 A901      		movw r20,r18
 2786 1278 60E0      		ldi r22,0
 2787 127a 70E0      		ldi r23,0
 2788 127c 0E94 0000 		call SOS_can_activate
 2789 1280 8823      		tst r24
 2790 1282 01F4      		brne .L102
 357:lp_solve_5.5/lp_mipbb.c ****         BB->nodesleft--;
 2791               		.loc 1 357 0
 2792 1284 8D85      		ldd r24,Y+13
 2793 1286 9E85      		ldd r25,Y+14
 2794 1288 FC01      		movw r30,r24
 2795 128a 8685      		ldd r24,Z+14
 2796 128c 9785      		ldd r25,Z+15
 2797 128e 9C01      		movw r18,r24
 2798 1290 2150      		subi r18,1
 2799 1292 3109      		sbc r19,__zero_reg__
 2800 1294 8D85      		ldd r24,Y+13
 2801 1296 9E85      		ldd r25,Y+14
 2802 1298 FC01      		movw r30,r24
 2803 129a 3787      		std Z+15,r19
 2804 129c 2687      		std Z+14,r18
 358:lp_solve_5.5/lp_mipbb.c ****         BB->isfloor = TRUE;
 2805               		.loc 1 358 0
 2806 129e 8D85      		ldd r24,Y+13
 2807 12a0 9E85      		ldd r25,Y+14
 2808 12a2 21E0      		ldi r18,lo8(1)
 2809 12a4 FC01      		movw r30,r24
 2810 12a6 26AB      		std Z+54,r18
 2811 12a8 00C0      		rjmp .L105
 2812               	.L102:
 359:lp_solve_5.5/lp_mipbb.c ****       }
 360:lp_solve_5.5/lp_mipbb.c ****       else
 361:lp_solve_5.5/lp_mipbb.c ****         BB->isfloor = (MYBOOL) (BB->lastsolution == 0);
 2813               		.loc 1 361 0
 2814 12aa 8D85      		ldd r24,Y+13
 2815 12ac 9E85      		ldd r25,Y+14
 2816 12ae FC01      		movw r30,r24
 2817 12b0 808D      		ldd r24,Z+24
 2818 12b2 918D      		ldd r25,Z+25
 2819 12b4 A28D      		ldd r26,Z+26
 2820 12b6 B38D      		ldd r27,Z+27
 2821 12b8 11E0      		ldi r17,lo8(1)
 2822 12ba 20E0      		ldi r18,0
 2823 12bc 30E0      		ldi r19,0
 2824 12be A901      		movw r20,r18
 2825 12c0 BC01      		movw r22,r24
 2826 12c2 CD01      		movw r24,r26
 2827 12c4 0E94 0000 		call __eqsf2
 2828 12c8 8823      		tst r24
 2829 12ca 01F0      		breq .L104
 2830 12cc 10E0      		ldi r17,0
 2831               	.L104:
 2832 12ce 212F      		mov r18,r17
 2833 12d0 8D85      		ldd r24,Y+13
 2834 12d2 9E85      		ldd r25,Y+14
 2835 12d4 FC01      		movw r30,r24
 2836 12d6 26AB      		std Z+54,r18
 2837 12d8 00C0      		rjmp .L105
 2838               	.L101:
 362:lp_solve_5.5/lp_mipbb.c ****     }
 363:lp_solve_5.5/lp_mipbb.c **** 
 364:lp_solve_5.5/lp_mipbb.c ****     /* First check if the user wishes to select the branching direction */
 365:lp_solve_5.5/lp_mipbb.c ****     else if(lp->bb_usebranch != NULL)
 2839               		.loc 1 365 0
 2840 12da 8D81      		ldd r24,Y+5
 2841 12dc 9E81      		ldd r25,Y+6
 2842 12de 865F      		subi r24,-10
 2843 12e0 9B4F      		sbci r25,-5
 2844 12e2 FC01      		movw r30,r24
 2845 12e4 8081      		ld r24,Z
 2846 12e6 9181      		ldd r25,Z+1
 2847 12e8 892B      		or r24,r25
 2848 12ea 01F0      		breq .L106
 366:lp_solve_5.5/lp_mipbb.c ****       BB->isfloor = (MYBOOL) lp->bb_usebranch(lp, lp->bb_branchhandle, k);
 2849               		.loc 1 366 0
 2850 12ec 8D81      		ldd r24,Y+5
 2851 12ee 9E81      		ldd r25,Y+6
 2852 12f0 865F      		subi r24,-10
 2853 12f2 9B4F      		sbci r25,-5
 2854 12f4 FC01      		movw r30,r24
 2855 12f6 2081      		ld r18,Z
 2856 12f8 3181      		ldd r19,Z+1
 2857 12fa 8D81      		ldd r24,Y+5
 2858 12fc 9E81      		ldd r25,Y+6
 2859 12fe 845F      		subi r24,-12
 2860 1300 9B4F      		sbci r25,-5
 2861 1302 FC01      		movw r30,r24
 2862 1304 6081      		ld r22,Z
 2863 1306 7181      		ldd r23,Z+1
 2864 1308 4F81      		ldd r20,Y+7
 2865 130a 5885      		ldd r21,Y+8
 2866 130c 8D81      		ldd r24,Y+5
 2867 130e 9E81      		ldd r25,Y+6
 2868 1310 F901      		movw r30,r18
 2869 1312 0995      		icall
 2870 1314 282F      		mov r18,r24
 2871 1316 8D85      		ldd r24,Y+13
 2872 1318 9E85      		ldd r25,Y+14
 2873 131a FC01      		movw r30,r24
 2874 131c 26AB      		std Z+54,r18
 2875 131e 00C0      		rjmp .L105
 2876               	.L106:
 367:lp_solve_5.5/lp_mipbb.c **** 
 368:lp_solve_5.5/lp_mipbb.c ****     /* Otherwise check if we should do automatic branching */
 369:lp_solve_5.5/lp_mipbb.c ****     else if(get_var_branch(lp, k) == BRANCH_AUTOMATIC) {
 2877               		.loc 1 369 0
 2878 1320 2F81      		ldd r18,Y+7
 2879 1322 3885      		ldd r19,Y+8
 2880 1324 8D81      		ldd r24,Y+5
 2881 1326 9E81      		ldd r25,Y+6
 2882 1328 B901      		movw r22,r18
 2883 132a 0E94 0000 		call get_var_branch
 2884 132e 0297      		sbiw r24,2
 2885 1330 01F0      		breq .+2
 2886 1332 00C0      		rjmp .L107
 370:lp_solve_5.5/lp_mipbb.c ****       new_bound = modf(BB->lastsolution/get_pseudorange(lp->bb_PseudoCost, k, BB->vartype), &temp);
 2887               		.loc 1 370 0
 2888 1334 8D85      		ldd r24,Y+13
 2889 1336 9E85      		ldd r25,Y+14
 2890 1338 FC01      		movw r30,r24
 2891 133a C08C      		ldd r12,Z+24
 2892 133c D18C      		ldd r13,Z+25
 2893 133e E28C      		ldd r14,Z+26
 2894 1340 F38C      		ldd r15,Z+27
 2895 1342 8D85      		ldd r24,Y+13
 2896 1344 9E85      		ldd r25,Y+14
 2897 1346 FC01      		movw r30,r24
 2898 1348 4085      		ldd r20,Z+8
 2899 134a 5185      		ldd r21,Z+9
 2900 134c 8D81      		ldd r24,Y+5
 2901 134e 9E81      		ldd r25,Y+6
 2902 1350 8A52      		subi r24,42
 2903 1352 9D4F      		sbci r25,-3
 2904 1354 FC01      		movw r30,r24
 2905 1356 8081      		ld r24,Z
 2906 1358 9181      		ldd r25,Z+1
 2907 135a 2F81      		ldd r18,Y+7
 2908 135c 3885      		ldd r19,Y+8
 2909 135e B901      		movw r22,r18
 2910 1360 0E94 0000 		call get_pseudorange
 2911 1364 DC01      		movw r26,r24
 2912 1366 CB01      		movw r24,r22
 2913 1368 9C01      		movw r18,r24
 2914 136a AD01      		movw r20,r26
 2915 136c C701      		movw r24,r14
 2916 136e B601      		movw r22,r12
 2917 1370 0E94 0000 		call __divsf3
 2918 1374 DC01      		movw r26,r24
 2919 1376 CB01      		movw r24,r22
 2920 1378 8C01      		movw r16,r24
 2921 137a 9D01      		movw r18,r26
 2922 137c CE01      		movw r24,r28
 2923 137e 0996      		adiw r24,9
 2924 1380 AC01      		movw r20,r24
 2925 1382 C901      		movw r24,r18
 2926 1384 B801      		movw r22,r16
 2927 1386 0E94 0000 		call modf
 2928 138a DC01      		movw r26,r24
 2929 138c CB01      		movw r24,r22
 2930 138e 8983      		std Y+1,r24
 2931 1390 9A83      		std Y+2,r25
 2932 1392 AB83      		std Y+3,r26
 2933 1394 BC83      		std Y+4,r27
 371:lp_solve_5.5/lp_mipbb.c ****       if(isnan(new_bound))
 2934               		.loc 1 371 0
 2935 1396 2981      		ldd r18,Y+1
 2936 1398 3A81      		ldd r19,Y+2
 2937 139a 4B81      		ldd r20,Y+3
 2938 139c 5C81      		ldd r21,Y+4
 2939 139e 6981      		ldd r22,Y+1
 2940 13a0 7A81      		ldd r23,Y+2
 2941 13a2 8B81      		ldd r24,Y+3
 2942 13a4 9C81      		ldd r25,Y+4
 2943 13a6 0E94 0000 		call __unordsf2
 2944 13aa 8823      		tst r24
 2945 13ac 01F0      		breq .L134
 372:lp_solve_5.5/lp_mipbb.c ****         new_bound = 0;
 2946               		.loc 1 372 0
 2947 13ae 1982      		std Y+1,__zero_reg__
 2948 13b0 1A82      		std Y+2,__zero_reg__
 2949 13b2 1B82      		std Y+3,__zero_reg__
 2950 13b4 1C82      		std Y+4,__zero_reg__
 2951 13b6 00C0      		rjmp .L110
 2952               	.L134:
 373:lp_solve_5.5/lp_mipbb.c ****       else if(new_bound < 0)
 2953               		.loc 1 373 0
 2954 13b8 20E0      		ldi r18,0
 2955 13ba 30E0      		ldi r19,0
 2956 13bc A901      		movw r20,r18
 2957 13be 6981      		ldd r22,Y+1
 2958 13c0 7A81      		ldd r23,Y+2
 2959 13c2 8B81      		ldd r24,Y+3
 2960 13c4 9C81      		ldd r25,Y+4
 2961 13c6 0E94 0000 		call __ltsf2
 2962 13ca 8823      		tst r24
 2963 13cc 04F4      		brge .L110
 374:lp_solve_5.5/lp_mipbb.c ****         new_bound += 1.0;
 2964               		.loc 1 374 0
 2965 13ce 20E0      		ldi r18,0
 2966 13d0 30E0      		ldi r19,0
 2967 13d2 40E8      		ldi r20,lo8(-128)
 2968 13d4 5FE3      		ldi r21,lo8(63)
 2969 13d6 6981      		ldd r22,Y+1
 2970 13d8 7A81      		ldd r23,Y+2
 2971 13da 8B81      		ldd r24,Y+3
 2972 13dc 9C81      		ldd r25,Y+4
 2973 13de 0E94 0000 		call __addsf3
 2974 13e2 DC01      		movw r26,r24
 2975 13e4 CB01      		movw r24,r22
 2976 13e6 8983      		std Y+1,r24
 2977 13e8 9A83      		std Y+2,r25
 2978 13ea AB83      		std Y+3,r26
 2979 13ec BC83      		std Y+4,r27
 2980               	.L110:
 375:lp_solve_5.5/lp_mipbb.c ****       BB->isfloor = (MYBOOL) (new_bound <= 0.5);
 2981               		.loc 1 375 0
 2982 13ee 11E0      		ldi r17,lo8(1)
 2983 13f0 20E0      		ldi r18,0
 2984 13f2 30E0      		ldi r19,0
 2985 13f4 40E0      		ldi r20,0
 2986 13f6 5FE3      		ldi r21,lo8(63)
 2987 13f8 6981      		ldd r22,Y+1
 2988 13fa 7A81      		ldd r23,Y+2
 2989 13fc 8B81      		ldd r24,Y+3
 2990 13fe 9C81      		ldd r25,Y+4
 2991 1400 0E94 0000 		call __lesf2
 2992 1404 1816      		cp __zero_reg__,r24
 2993 1406 04F4      		brge .L112
 2994 1408 10E0      		ldi r17,0
 2995               	.L112:
 2996 140a 212F      		mov r18,r17
 2997 140c 8D85      		ldd r24,Y+13
 2998 140e 9E85      		ldd r25,Y+14
 2999 1410 FC01      		movw r30,r24
 3000 1412 26AB      		std Z+54,r18
 376:lp_solve_5.5/lp_mipbb.c **** 
 377:lp_solve_5.5/lp_mipbb.c ****       /* Set direction by OF value; note that a zero-value in
 378:lp_solve_5.5/lp_mipbb.c ****          the OF gives priority to floor_first = TRUE */
 379:lp_solve_5.5/lp_mipbb.c ****       if(is_bb_mode(lp, NODE_GREEDYMODE)) {
 3001               		.loc 1 379 0
 3002 1414 8D81      		ldd r24,Y+5
 3003 1416 9E81      		ldd r25,Y+6
 3004 1418 60E2      		ldi r22,lo8(32)
 3005 141a 70E0      		ldi r23,0
 3006 141c 0E94 0000 		call is_bb_mode
 3007 1420 8823      		tst r24
 3008 1422 01F4      		brne .+2
 3009 1424 00C0      		rjmp .L113
 380:lp_solve_5.5/lp_mipbb.c ****         if(is_bb_mode(lp, NODE_PSEUDOCOSTMODE))
 3010               		.loc 1 380 0
 3011 1426 8D81      		ldd r24,Y+5
 3012 1428 9E81      		ldd r25,Y+6
 3013 142a 60E4      		ldi r22,lo8(64)
 3014 142c 70E0      		ldi r23,0
 3015 142e 0E94 0000 		call is_bb_mode
 3016 1432 8823      		tst r24
 3017 1434 01F0      		breq .L114
 381:lp_solve_5.5/lp_mipbb.c ****           BB->sc_bound = get_pseudonodecost(lp->bb_PseudoCost, k, BB->vartype, BB->lastsolution);
 3018               		.loc 1 381 0
 3019 1436 8D85      		ldd r24,Y+13
 3020 1438 9E85      		ldd r25,Y+14
 3021 143a FC01      		movw r30,r24
 3022 143c 808D      		ldd r24,Z+24
 3023 143e 918D      		ldd r25,Z+25
 3024 1440 A28D      		ldd r26,Z+26
 3025 1442 B38D      		ldd r27,Z+27
 3026 1444 2D85      		ldd r18,Y+13
 3027 1446 3E85      		ldd r19,Y+14
 3028 1448 F901      		movw r30,r18
 3029 144a 4085      		ldd r20,Z+8
 3030 144c 5185      		ldd r21,Z+9
 3031 144e 2D81      		ldd r18,Y+5
 3032 1450 3E81      		ldd r19,Y+6
 3033 1452 2A52      		subi r18,42
 3034 1454 3D4F      		sbci r19,-3
 3035 1456 F901      		movw r30,r18
 3036 1458 0190      		ld __tmp_reg__,Z+
 3037 145a F081      		ld r31,Z
 3038 145c E02D      		mov r30,__tmp_reg__
 3039 145e F88B      		std Y+16,r31
 3040 1460 EF87      		std Y+15,r30
 3041 1462 6F81      		ldd r22,Y+7
 3042 1464 7885      		ldd r23,Y+8
 3043 1466 8C01      		movw r16,r24
 3044 1468 9D01      		movw r18,r26
 3045 146a 8F85      		ldd r24,Y+15
 3046 146c 9889      		ldd r25,Y+16
 3047 146e 0E94 0000 		call get_pseudonodecost
 3048 1472 DC01      		movw r26,r24
 3049 1474 CB01      		movw r24,r22
 3050 1476 2D85      		ldd r18,Y+13
 3051 1478 3E85      		ldd r19,Y+14
 3052 147a F901      		movw r30,r18
 3053 147c 848F      		std Z+28,r24
 3054 147e 958F      		std Z+29,r25
 3055 1480 A68F      		std Z+30,r26
 3056 1482 B78F      		std Z+31,r27
 3057 1484 00C0      		rjmp .L115
 3058               	.L114:
 382:lp_solve_5.5/lp_mipbb.c ****         else
 383:lp_solve_5.5/lp_mipbb.c ****           BB->sc_bound = mat_getitem(lp->matA, 0, k);
 3059               		.loc 1 383 0
 3060 1486 8D81      		ldd r24,Y+5
 3061 1488 9E81      		ldd r25,Y+6
 3062 148a 8A54      		subi r24,74
 3063 148c 9D4F      		sbci r25,-3
 3064 148e FC01      		movw r30,r24
 3065 1490 8081      		ld r24,Z
 3066 1492 9181      		ldd r25,Z+1
 3067 1494 2F81      		ldd r18,Y+7
 3068 1496 3885      		ldd r19,Y+8
 3069 1498 A901      		movw r20,r18
 3070 149a 60E0      		ldi r22,0
 3071 149c 70E0      		ldi r23,0
 3072 149e 0E94 0000 		call mat_getitem
 3073 14a2 DC01      		movw r26,r24
 3074 14a4 CB01      		movw r24,r22
 3075 14a6 2D85      		ldd r18,Y+13
 3076 14a8 3E85      		ldd r19,Y+14
 3077 14aa F901      		movw r30,r18
 3078 14ac 848F      		std Z+28,r24
 3079 14ae 958F      		std Z+29,r25
 3080 14b0 A68F      		std Z+30,r26
 3081 14b2 B78F      		std Z+31,r27
 3082               	.L115:
 384:lp_solve_5.5/lp_mipbb.c ****         new_bound -= 0.5;
 3083               		.loc 1 384 0
 3084 14b4 20E0      		ldi r18,0
 3085 14b6 30E0      		ldi r19,0
 3086 14b8 40E0      		ldi r20,0
 3087 14ba 5FE3      		ldi r21,lo8(63)
 3088 14bc 6981      		ldd r22,Y+1
 3089 14be 7A81      		ldd r23,Y+2
 3090 14c0 8B81      		ldd r24,Y+3
 3091 14c2 9C81      		ldd r25,Y+4
 3092 14c4 0E94 0000 		call __subsf3
 3093 14c8 DC01      		movw r26,r24
 3094 14ca CB01      		movw r24,r22
 3095 14cc 8983      		std Y+1,r24
 3096 14ce 9A83      		std Y+2,r25
 3097 14d0 AB83      		std Y+3,r26
 3098 14d2 BC83      		std Y+4,r27
 385:lp_solve_5.5/lp_mipbb.c ****         BB->sc_bound *= new_bound;
 3099               		.loc 1 385 0
 3100 14d4 8D85      		ldd r24,Y+13
 3101 14d6 9E85      		ldd r25,Y+14
 3102 14d8 FC01      		movw r30,r24
 3103 14da 848D      		ldd r24,Z+28
 3104 14dc 958D      		ldd r25,Z+29
 3105 14de A68D      		ldd r26,Z+30
 3106 14e0 B78D      		ldd r27,Z+31
 3107 14e2 2981      		ldd r18,Y+1
 3108 14e4 3A81      		ldd r19,Y+2
 3109 14e6 4B81      		ldd r20,Y+3
 3110 14e8 5C81      		ldd r21,Y+4
 3111 14ea BC01      		movw r22,r24
 3112 14ec CD01      		movw r24,r26
 3113 14ee 0E94 0000 		call __mulsf3
 3114 14f2 DC01      		movw r26,r24
 3115 14f4 CB01      		movw r24,r22
 3116 14f6 2D85      		ldd r18,Y+13
 3117 14f8 3E85      		ldd r19,Y+14
 3118 14fa F901      		movw r30,r18
 3119 14fc 848F      		std Z+28,r24
 3120 14fe 958F      		std Z+29,r25
 3121 1500 A68F      		std Z+30,r26
 3122 1502 B78F      		std Z+31,r27
 386:lp_solve_5.5/lp_mipbb.c ****         BB->isfloor = (MYBOOL) (BB->sc_bound > 0);
 3123               		.loc 1 386 0
 3124 1504 8D85      		ldd r24,Y+13
 3125 1506 9E85      		ldd r25,Y+14
 3126 1508 FC01      		movw r30,r24
 3127 150a 848D      		ldd r24,Z+28
 3128 150c 958D      		ldd r25,Z+29
 3129 150e A68D      		ldd r26,Z+30
 3130 1510 B78D      		ldd r27,Z+31
 3131 1512 11E0      		ldi r17,lo8(1)
 3132 1514 20E0      		ldi r18,0
 3133 1516 30E0      		ldi r19,0
 3134 1518 A901      		movw r20,r18
 3135 151a BC01      		movw r22,r24
 3136 151c CD01      		movw r24,r26
 3137 151e 0E94 0000 		call __gtsf2
 3138 1522 1816      		cp __zero_reg__,r24
 3139 1524 04F0      		brlt .L116
 3140 1526 10E0      		ldi r17,0
 3141               	.L116:
 3142 1528 212F      		mov r18,r17
 3143 152a 8D85      		ldd r24,Y+13
 3144 152c 9E85      		ldd r25,Y+14
 3145 152e FC01      		movw r30,r24
 3146 1530 26AB      		std Z+54,r18
 3147 1532 00C0      		rjmp .L117
 3148               	.L113:
 387:lp_solve_5.5/lp_mipbb.c ****       }
 388:lp_solve_5.5/lp_mipbb.c ****       /* Set direction by pseudocost (normally used in tandem with NODE_PSEUDOxxxSELECT) */
 389:lp_solve_5.5/lp_mipbb.c ****       else if(is_bb_mode(lp, NODE_PSEUDOCOSTMODE)) {
 3149               		.loc 1 389 0
 3150 1534 8D81      		ldd r24,Y+5
 3151 1536 9E81      		ldd r25,Y+6
 3152 1538 60E4      		ldi r22,lo8(64)
 3153 153a 70E0      		ldi r23,0
 3154 153c 0E94 0000 		call is_bb_mode
 3155 1540 8823      		tst r24
 3156 1542 01F4      		brne .+2
 3157 1544 00C0      		rjmp .L117
 390:lp_solve_5.5/lp_mipbb.c ****         BB->isfloor = (MYBOOL) (get_pseudobranchcost(lp->bb_PseudoCost, k, TRUE) >
 3158               		.loc 1 390 0
 3159 1546 8D81      		ldd r24,Y+5
 3160 1548 9E81      		ldd r25,Y+6
 3161 154a 8A52      		subi r24,42
 3162 154c 9D4F      		sbci r25,-3
 3163 154e FC01      		movw r30,r24
 3164 1550 8081      		ld r24,Z
 3165 1552 9181      		ldd r25,Z+1
 3166 1554 2F81      		ldd r18,Y+7
 3167 1556 3885      		ldd r19,Y+8
 3168 1558 41E0      		ldi r20,lo8(1)
 3169 155a B901      		movw r22,r18
 3170 155c 0E94 0000 		call get_pseudobranchcost
 3171 1560 6B01      		movw r12,r22
 3172 1562 7C01      		movw r14,r24
 391:lp_solve_5.5/lp_mipbb.c ****                                 get_pseudobranchcost(lp->bb_PseudoCost, k, FALSE));
 3173               		.loc 1 391 0
 3174 1564 8D81      		ldd r24,Y+5
 3175 1566 9E81      		ldd r25,Y+6
 3176 1568 8A52      		subi r24,42
 3177 156a 9D4F      		sbci r25,-3
 3178 156c FC01      		movw r30,r24
 3179 156e 8081      		ld r24,Z
 3180 1570 9181      		ldd r25,Z+1
 3181 1572 2F81      		ldd r18,Y+7
 3182 1574 3885      		ldd r19,Y+8
 3183 1576 40E0      		ldi r20,0
 3184 1578 B901      		movw r22,r18
 3185 157a 0E94 0000 		call get_pseudobranchcost
 3186 157e DC01      		movw r26,r24
 3187 1580 CB01      		movw r24,r22
 390:lp_solve_5.5/lp_mipbb.c ****         BB->isfloor = (MYBOOL) (get_pseudobranchcost(lp->bb_PseudoCost, k, TRUE) >
 3188               		.loc 1 390 0
 3189 1582 11E0      		ldi r17,lo8(1)
 3190 1584 9C01      		movw r18,r24
 3191 1586 AD01      		movw r20,r26
 3192 1588 C701      		movw r24,r14
 3193 158a B601      		movw r22,r12
 3194 158c 0E94 0000 		call __gtsf2
 3195 1590 1816      		cp __zero_reg__,r24
 3196 1592 04F0      		brlt .L118
 3197 1594 10E0      		ldi r17,0
 3198               	.L118:
 3199 1596 212F      		mov r18,r17
 3200 1598 8D85      		ldd r24,Y+13
 3201 159a 9E85      		ldd r25,Y+14
 3202 159c FC01      		movw r30,r24
 3203 159e 26AB      		std Z+54,r18
 392:lp_solve_5.5/lp_mipbb.c ****         if(is_maxim(lp))
 3204               		.loc 1 392 0
 3205 15a0 8D81      		ldd r24,Y+5
 3206 15a2 9E81      		ldd r25,Y+6
 3207 15a4 0E94 0000 		call is_maxim
 3208 15a8 8823      		tst r24
 3209 15aa 01F0      		breq .L117
 393:lp_solve_5.5/lp_mipbb.c ****           BB->isfloor = !BB->isfloor;
 3210               		.loc 1 393 0
 3211 15ac 8D85      		ldd r24,Y+13
 3212 15ae 9E85      		ldd r25,Y+14
 3213 15b0 FC01      		movw r30,r24
 3214 15b2 96A9      		ldd r25,Z+54
 3215 15b4 81E0      		ldi r24,lo8(1)
 3216 15b6 9923      		tst r25
 3217 15b8 01F0      		breq .L119
 3218 15ba 80E0      		ldi r24,0
 3219               	.L119:
 3220 15bc 282F      		mov r18,r24
 3221 15be 8D85      		ldd r24,Y+13
 3222 15c0 9E85      		ldd r25,Y+14
 3223 15c2 FC01      		movw r30,r24
 3224 15c4 26AB      		std Z+54,r18
 3225               	.L117:
 394:lp_solve_5.5/lp_mipbb.c ****       }
 395:lp_solve_5.5/lp_mipbb.c **** 
 396:lp_solve_5.5/lp_mipbb.c ****       /* Check for reversal */
 397:lp_solve_5.5/lp_mipbb.c ****       if(is_bb_mode(lp, NODE_BRANCHREVERSEMODE))
 3226               		.loc 1 397 0
 3227 15c6 8D81      		ldd r24,Y+5
 3228 15c8 9E81      		ldd r25,Y+6
 3229 15ca 60E1      		ldi r22,lo8(16)
 3230 15cc 70E0      		ldi r23,0
 3231 15ce 0E94 0000 		call is_bb_mode
 3232 15d2 8823      		tst r24
 3233 15d4 01F0      		breq .L105
 398:lp_solve_5.5/lp_mipbb.c ****         BB->isfloor = !BB->isfloor;
 3234               		.loc 1 398 0
 3235 15d6 8D85      		ldd r24,Y+13
 3236 15d8 9E85      		ldd r25,Y+14
 3237 15da FC01      		movw r30,r24
 3238 15dc 96A9      		ldd r25,Z+54
 3239 15de 81E0      		ldi r24,lo8(1)
 3240 15e0 9923      		tst r25
 3241 15e2 01F0      		breq .L121
 3242 15e4 80E0      		ldi r24,0
 3243               	.L121:
 3244 15e6 282F      		mov r18,r24
 3245 15e8 8D85      		ldd r24,Y+13
 3246 15ea 9E85      		ldd r25,Y+14
 3247 15ec FC01      		movw r30,r24
 3248 15ee 26AB      		std Z+54,r18
 3249 15f0 00C0      		rjmp .L105
 3250               	.L107:
 399:lp_solve_5.5/lp_mipbb.c ****     }
 400:lp_solve_5.5/lp_mipbb.c ****     else
 401:lp_solve_5.5/lp_mipbb.c ****       BB->isfloor = (MYBOOL) (get_var_branch(lp, k) == BRANCH_FLOOR);
 3251               		.loc 1 401 0
 3252 15f2 2F81      		ldd r18,Y+7
 3253 15f4 3885      		ldd r19,Y+8
 3254 15f6 8D81      		ldd r24,Y+5
 3255 15f8 9E81      		ldd r25,Y+6
 3256 15fa B901      		movw r22,r18
 3257 15fc 0E94 0000 		call get_var_branch
 3258 1600 21E0      		ldi r18,lo8(1)
 3259 1602 0197      		sbiw r24,1
 3260 1604 01F0      		breq .L122
 3261 1606 20E0      		ldi r18,0
 3262               	.L122:
 3263 1608 8D85      		ldd r24,Y+13
 3264 160a 9E85      		ldd r25,Y+14
 3265 160c FC01      		movw r30,r24
 3266 160e 26AB      		std Z+54,r18
 3267               	.L105:
 402:lp_solve_5.5/lp_mipbb.c **** 
 403:lp_solve_5.5/lp_mipbb.c ****     /* SC logic: If the current SC variable value is in the [0..NZLOBOUND> range, then
 404:lp_solve_5.5/lp_mipbb.c **** 
 405:lp_solve_5.5/lp_mipbb.c ****       UP: Set lower bound to NZLOBOUND, upper bound is the original
 406:lp_solve_5.5/lp_mipbb.c ****       LO: Fix the variable by setting upper/lower bound to zero
 407:lp_solve_5.5/lp_mipbb.c **** 
 408:lp_solve_5.5/lp_mipbb.c ****       ... indicate that the variable is B&B-active by reversing sign of sc_lobound[]. */
 409:lp_solve_5.5/lp_mipbb.c ****     new_bound = fabs(lp->sc_lobound[k]);
 3268               		.loc 1 409 0
 3269 1610 8D81      		ldd r24,Y+5
 3270 1612 9E81      		ldd r25,Y+6
 3271 1614 8E56      		subi r24,110
 3272 1616 9D4F      		sbci r25,-3
 3273 1618 FC01      		movw r30,r24
 3274 161a 2081      		ld r18,Z
 3275 161c 3181      		ldd r19,Z+1
 3276 161e 8F81      		ldd r24,Y+7
 3277 1620 9885      		ldd r25,Y+8
 3278 1622 880F      		lsl r24
 3279 1624 991F      		rol r25
 3280 1626 880F      		lsl r24
 3281 1628 991F      		rol r25
 3282 162a 820F      		add r24,r18
 3283 162c 931F      		adc r25,r19
 3284 162e FC01      		movw r30,r24
 3285 1630 8081      		ld r24,Z
 3286 1632 9181      		ldd r25,Z+1
 3287 1634 A281      		ldd r26,Z+2
 3288 1636 B381      		ldd r27,Z+3
 3289 1638 BF77      		andi r27,0x7f
 3290 163a 8983      		std Y+1,r24
 3291 163c 9A83      		std Y+2,r25
 3292 163e AB83      		std Y+3,r26
 3293 1640 BC83      		std Y+4,r27
 410:lp_solve_5.5/lp_mipbb.c ****     BB->sc_bound = new_bound;
 3294               		.loc 1 410 0
 3295 1642 2D85      		ldd r18,Y+13
 3296 1644 3E85      		ldd r19,Y+14
 3297 1646 8981      		ldd r24,Y+1
 3298 1648 9A81      		ldd r25,Y+2
 3299 164a AB81      		ldd r26,Y+3
 3300 164c BC81      		ldd r27,Y+4
 3301 164e F901      		movw r30,r18
 3302 1650 848F      		std Z+28,r24
 3303 1652 958F      		std Z+29,r25
 3304 1654 A68F      		std Z+30,r26
 3305 1656 B78F      		std Z+31,r27
 411:lp_solve_5.5/lp_mipbb.c ****     BB->sc_canset = (MYBOOL) (new_bound != 0);
 3306               		.loc 1 411 0
 3307 1658 11E0      		ldi r17,lo8(1)
 3308 165a 20E0      		ldi r18,0
 3309 165c 30E0      		ldi r19,0
 3310 165e A901      		movw r20,r18
 3311 1660 6981      		ldd r22,Y+1
 3312 1662 7A81      		ldd r23,Y+2
 3313 1664 8B81      		ldd r24,Y+3
 3314 1666 9C81      		ldd r25,Y+4
 3315 1668 0E94 0000 		call __nesf2
 3316 166c 8823      		tst r24
 3317 166e 01F4      		brne .L123
 3318 1670 10E0      		ldi r17,0
 3319               	.L123:
 3320 1672 212F      		mov r18,r17
 3321 1674 8D85      		ldd r24,Y+13
 3322 1676 9E85      		ldd r25,Y+14
 3323 1678 FC01      		movw r30,r24
 3324 167a 21AB      		std Z+49,r18
 412:lp_solve_5.5/lp_mipbb.c **** 
 413:lp_solve_5.5/lp_mipbb.c ****    /* Must make sure that we handle fractional lower bounds properly;
 414:lp_solve_5.5/lp_mipbb.c ****       also to ensure that we do a full binary tree search */
 415:lp_solve_5.5/lp_mipbb.c ****     new_bound = unscaled_value(lp, new_bound, BB->varno);
 3325               		.loc 1 415 0
 3326 167c 8D85      		ldd r24,Y+13
 3327 167e 9E85      		ldd r25,Y+14
 3328 1680 FC01      		movw r30,r24
 3329 1682 2681      		ldd r18,Z+6
 3330 1684 3781      		ldd r19,Z+7
 3331 1686 8981      		ldd r24,Y+1
 3332 1688 9A81      		ldd r25,Y+2
 3333 168a AB81      		ldd r26,Y+3
 3334 168c BC81      		ldd r27,Y+4
 3335 168e ED81      		ldd r30,Y+5
 3336 1690 FE81      		ldd r31,Y+6
 3337 1692 AC01      		movw r20,r24
 3338 1694 BD01      		movw r22,r26
 3339 1696 CF01      		movw r24,r30
 3340 1698 0E94 0000 		call unscaled_value
 3341 169c DC01      		movw r26,r24
 3342 169e CB01      		movw r24,r22
 3343 16a0 8983      		std Y+1,r24
 3344 16a2 9A83      		std Y+2,r25
 3345 16a4 AB83      		std Y+3,r26
 3346 16a6 BC83      		std Y+4,r27
 416:lp_solve_5.5/lp_mipbb.c ****     if(is_int(lp, k) && ((new_bound > 0) &&
 3347               		.loc 1 416 0
 3348 16a8 2F81      		ldd r18,Y+7
 3349 16aa 3885      		ldd r19,Y+8
 3350 16ac 8D81      		ldd r24,Y+5
 3351 16ae 9E81      		ldd r25,Y+6
 3352 16b0 B901      		movw r22,r18
 3353 16b2 0E94 0000 		call is_int
 3354 16b6 8823      		tst r24
 3355 16b8 01F4      		brne .+2
 3356 16ba 00C0      		rjmp .L94
 3357               		.loc 1 416 0 is_stmt 0 discriminator 1
 3358 16bc 20E0      		ldi r18,0
 3359 16be 30E0      		ldi r19,0
 3360 16c0 A901      		movw r20,r18
 3361 16c2 6981      		ldd r22,Y+1
 3362 16c4 7A81      		ldd r23,Y+2
 3363 16c6 8B81      		ldd r24,Y+3
 3364 16c8 9C81      		ldd r25,Y+4
 3365 16ca 0E94 0000 		call __gtsf2
 3366 16ce 1816      		cp __zero_reg__,r24
 3367 16d0 04F0      		brlt .+2
 3368 16d2 00C0      		rjmp .L94
 417:lp_solve_5.5/lp_mipbb.c ****                          (BB->lastsolution > floor(new_bound)))) {
 3369               		.loc 1 417 0 is_stmt 1 discriminator 2
 3370 16d4 8D85      		ldd r24,Y+13
 3371 16d6 9E85      		ldd r25,Y+14
 3372 16d8 FC01      		movw r30,r24
 3373 16da C08C      		ldd r12,Z+24
 3374 16dc D18C      		ldd r13,Z+25
 3375 16de E28C      		ldd r14,Z+26
 3376 16e0 F38C      		ldd r15,Z+27
 3377 16e2 8981      		ldd r24,Y+1
 3378 16e4 9A81      		ldd r25,Y+2
 3379 16e6 AB81      		ldd r26,Y+3
 3380 16e8 BC81      		ldd r27,Y+4
 3381 16ea BC01      		movw r22,r24
 3382 16ec CD01      		movw r24,r26
 3383 16ee 0E94 0000 		call floor
 3384 16f2 DC01      		movw r26,r24
 3385 16f4 CB01      		movw r24,r22
 416:lp_solve_5.5/lp_mipbb.c ****     if(is_int(lp, k) && ((new_bound > 0) &&
 3386               		.loc 1 416 0 discriminator 2
 3387 16f6 9C01      		movw r18,r24
 3388 16f8 AD01      		movw r20,r26
 3389 16fa C701      		movw r24,r14
 3390 16fc B601      		movw r22,r12
 3391 16fe 0E94 0000 		call __gtsf2
 3392 1702 1816      		cp __zero_reg__,r24
 3393 1704 04F0      		brlt .+2
 3394 1706 00C0      		rjmp .L94
 418:lp_solve_5.5/lp_mipbb.c ****       if(BB->lastsolution < ceil(new_bound))
 3395               		.loc 1 418 0
 3396 1708 8D85      		ldd r24,Y+13
 3397 170a 9E85      		ldd r25,Y+14
 3398 170c FC01      		movw r30,r24
 3399 170e C08C      		ldd r12,Z+24
 3400 1710 D18C      		ldd r13,Z+25
 3401 1712 E28C      		ldd r14,Z+26
 3402 1714 F38C      		ldd r15,Z+27
 3403 1716 8981      		ldd r24,Y+1
 3404 1718 9A81      		ldd r25,Y+2
 3405 171a AB81      		ldd r26,Y+3
 3406 171c BC81      		ldd r27,Y+4
 3407 171e BC01      		movw r22,r24
 3408 1720 CD01      		movw r24,r26
 3409 1722 0E94 0000 		call ceil
 3410 1726 DC01      		movw r26,r24
 3411 1728 CB01      		movw r24,r22
 3412 172a 9C01      		movw r18,r24
 3413 172c AD01      		movw r20,r26
 3414 172e C701      		movw r24,r14
 3415 1730 B601      		movw r22,r12
 3416 1732 0E94 0000 		call __ltsf2
 3417 1736 8823      		tst r24
 3418 1738 04F4      		brge .L126
 419:lp_solve_5.5/lp_mipbb.c ****         BB->lastsolution += 1;
 3419               		.loc 1 419 0
 3420 173a 8D85      		ldd r24,Y+13
 3421 173c 9E85      		ldd r25,Y+14
 3422 173e FC01      		movw r30,r24
 3423 1740 808D      		ldd r24,Z+24
 3424 1742 918D      		ldd r25,Z+25
 3425 1744 A28D      		ldd r26,Z+26
 3426 1746 B38D      		ldd r27,Z+27
 3427 1748 20E0      		ldi r18,0
 3428 174a 30E0      		ldi r19,0
 3429 174c 40E8      		ldi r20,lo8(-128)
 3430 174e 5FE3      		ldi r21,lo8(63)
 3431 1750 BC01      		movw r22,r24
 3432 1752 CD01      		movw r24,r26
 3433 1754 0E94 0000 		call __addsf3
 3434 1758 DC01      		movw r26,r24
 3435 175a CB01      		movw r24,r22
 3436 175c 2D85      		ldd r18,Y+13
 3437 175e 3E85      		ldd r19,Y+14
 3438 1760 F901      		movw r30,r18
 3439 1762 808F      		std Z+24,r24
 3440 1764 918F      		std Z+25,r25
 3441 1766 A28F      		std Z+26,r26
 3442 1768 B38F      		std Z+27,r27
 3443               	.L126:
 420:lp_solve_5.5/lp_mipbb.c ****       modifyUndoLadder(lp->bb_lowerchange, BB->varno, BB->lowbo,
 3444               		.loc 1 420 0
 3445 176a 8D85      		ldd r24,Y+13
 3446 176c 9E85      		ldd r25,Y+14
 3447 176e FC01      		movw r30,r24
 3448 1770 808D      		ldd r24,Z+24
 3449 1772 918D      		ldd r25,Z+25
 3450 1774 A28D      		ldd r26,Z+26
 3451 1776 B38D      		ldd r27,Z+27
 3452 1778 2D85      		ldd r18,Y+13
 3453 177a 3E85      		ldd r19,Y+14
 3454 177c F901      		movw r30,r18
 3455 177e 6681      		ldd r22,Z+6
 3456 1780 7781      		ldd r23,Z+7
 3457 1782 ED81      		ldd r30,Y+5
 3458 1784 FE81      		ldd r31,Y+6
 3459 1786 E12C      		mov r14,__zero_reg__
 3460 1788 F12C      		mov r15,__zero_reg__
 3461 178a 00E8      		ldi r16,lo8(-128)
 3462 178c 1FE3      		ldi r17,lo8(63)
 3463 178e 9C01      		movw r18,r24
 3464 1790 AD01      		movw r20,r26
 3465 1792 CF01      		movw r24,r30
 3466 1794 0E94 0000 		call scaled_floor
 3467 1798 8B01      		movw r16,r22
 3468 179a 9C01      		movw r18,r24
 3469 179c 8D85      		ldd r24,Y+13
 3470 179e 9E85      		ldd r25,Y+14
 3471 17a0 FC01      		movw r30,r24
 3472 17a2 42A1      		ldd r20,Z+34
 3473 17a4 53A1      		ldd r21,Z+35
 3474 17a6 8D85      		ldd r24,Y+13
 3475 17a8 9E85      		ldd r25,Y+14
 3476 17aa FC01      		movw r30,r24
 3477 17ac 6681      		ldd r22,Z+6
 3478 17ae 7781      		ldd r23,Z+7
 3479 17b0 8D81      		ldd r24,Y+5
 3480 17b2 9E81      		ldd r25,Y+6
 3481 17b4 845B      		subi r24,-76
 3482 17b6 9C4F      		sbci r25,-4
 3483 17b8 FC01      		movw r30,r24
 3484 17ba 8081      		ld r24,Z
 3485 17bc 9181      		ldd r25,Z+1
 3486 17be 0E94 0000 		call modifyUndoLadder
 3487               	.L94:
 421:lp_solve_5.5/lp_mipbb.c ****                        scaled_floor(lp, BB->varno, BB->lastsolution, 1));
 422:lp_solve_5.5/lp_mipbb.c ****     }
 423:lp_solve_5.5/lp_mipbb.c ****   }
 424:lp_solve_5.5/lp_mipbb.c **** 
 425:lp_solve_5.5/lp_mipbb.c ****   /* Now initialize the brances and set to first */
 426:lp_solve_5.5/lp_mipbb.c ****   return( fillbranches_BB(BB) );
 3488               		.loc 1 426 0
 3489 17c2 8D85      		ldd r24,Y+13
 3490 17c4 9E85      		ldd r25,Y+14
 3491 17c6 0E94 0000 		call fillbranches_BB
 3492               	/* epilogue start */
 427:lp_solve_5.5/lp_mipbb.c **** }
 3493               		.loc 1 427 0
 3494 17ca 6096      		adiw r28,16
 3495 17cc 0FB6      		in __tmp_reg__,__SREG__
 3496 17ce F894      		cli
 3497 17d0 DEBF      		out __SP_H__,r29
 3498 17d2 0FBE      		out __SREG__,__tmp_reg__
 3499 17d4 CDBF      		out __SP_L__,r28
 3500 17d6 DF91      		pop r29
 3501 17d8 CF91      		pop r28
 3502 17da 1F91      		pop r17
 3503 17dc 0F91      		pop r16
 3504 17de FF90      		pop r15
 3505 17e0 EF90      		pop r14
 3506 17e2 DF90      		pop r13
 3507 17e4 CF90      		pop r12
 3508 17e6 0895      		ret
 3509               		.cfi_endproc
 3510               	.LFE13:
 3512               	.global	__gesf2
 3513               		.section	.rodata
 3514               	.LC1:
 3515 0046 6669 6C6C 		.string	"fillbranches_BB: Inconsistent equal-valued bounds for %s\n"
 3515      6272 616E 
 3515      6368 6573 
 3515      5F42 423A 
 3515      2049 6E63 
 3516               		.text
 3517               	.global	fillbranches_BB
 3519               	fillbranches_BB:
 3520               	.LFB14:
 428:lp_solve_5.5/lp_mipbb.c **** 
 429:lp_solve_5.5/lp_mipbb.c **** STATIC MYBOOL fillbranches_BB(BBrec *BB)
 430:lp_solve_5.5/lp_mipbb.c **** {
 3521               		.loc 1 430 0
 3522               		.cfi_startproc
 3523 17e8 CF92      		push r12
 3524               	.LCFI36:
 3525               		.cfi_def_cfa_offset 3
 3526               		.cfi_offset 12, -2
 3527 17ea DF92      		push r13
 3528               	.LCFI37:
 3529               		.cfi_def_cfa_offset 4
 3530               		.cfi_offset 13, -3
 3531 17ec EF92      		push r14
 3532               	.LCFI38:
 3533               		.cfi_def_cfa_offset 5
 3534               		.cfi_offset 14, -4
 3535 17ee FF92      		push r15
 3536               	.LCFI39:
 3537               		.cfi_def_cfa_offset 6
 3538               		.cfi_offset 15, -5
 3539 17f0 0F93      		push r16
 3540               	.LCFI40:
 3541               		.cfi_def_cfa_offset 7
 3542               		.cfi_offset 16, -6
 3543 17f2 1F93      		push r17
 3544               	.LCFI41:
 3545               		.cfi_def_cfa_offset 8
 3546               		.cfi_offset 17, -7
 3547 17f4 CF93      		push r28
 3548               	.LCFI42:
 3549               		.cfi_def_cfa_offset 9
 3550               		.cfi_offset 28, -8
 3551 17f6 DF93      		push r29
 3552               	.LCFI43:
 3553               		.cfi_def_cfa_offset 10
 3554               		.cfi_offset 29, -9
 3555 17f8 CDB7      		in r28,__SP_L__
 3556 17fa DEB7      		in r29,__SP_H__
 3557               	.LCFI44:
 3558               		.cfi_def_cfa_register 28
 3559 17fc 6D97      		sbiw r28,29
 3560               	.LCFI45:
 3561               		.cfi_def_cfa_offset 39
 3562 17fe 0FB6      		in __tmp_reg__,__SREG__
 3563 1800 F894      		cli
 3564 1802 DEBF      		out __SP_H__,r29
 3565 1804 0FBE      		out __SREG__,__tmp_reg__
 3566 1806 CDBF      		out __SP_L__,r28
 3567               	/* prologue: function */
 3568               	/* frame size = 29 */
 3569               	/* stack size = 37 */
 3570               	.L__stack_usage = 37
 3571 1808 9D8F      		std Y+29,r25
 3572 180a 8C8F      		std Y+28,r24
 431:lp_solve_5.5/lp_mipbb.c ****   int    K, k;
 432:lp_solve_5.5/lp_mipbb.c ****   REAL   ult_upbo, ult_lowbo;
 433:lp_solve_5.5/lp_mipbb.c ****   REAL   new_bound, SC_bound, intmargin = BB->lp->epsprimal;
 3573               		.loc 1 433 0
 3574 180c 8C8D      		ldd r24,Y+28
 3575 180e 9D8D      		ldd r25,Y+29
 3576 1810 FC01      		movw r30,r24
 3577 1812 8481      		ldd r24,Z+4
 3578 1814 9581      		ldd r25,Z+5
 3579 1816 865E      		subi r24,-26
 3580 1818 9C4F      		sbci r25,-4
 3581 181a FC01      		movw r30,r24
 3582 181c 8081      		ld r24,Z
 3583 181e 9181      		ldd r25,Z+1
 3584 1820 A281      		ldd r26,Z+2
 3585 1822 B381      		ldd r27,Z+3
 3586 1824 8E83      		std Y+6,r24
 3587 1826 9F83      		std Y+7,r25
 3588 1828 A887      		std Y+8,r26
 3589 182a B987      		std Y+9,r27
 434:lp_solve_5.5/lp_mipbb.c ****   lprec  *lp = BB->lp;
 3590               		.loc 1 434 0
 3591 182c 8C8D      		ldd r24,Y+28
 3592 182e 9D8D      		ldd r25,Y+29
 3593 1830 FC01      		movw r30,r24
 3594 1832 8481      		ldd r24,Z+4
 3595 1834 9581      		ldd r25,Z+5
 3596 1836 9B87      		std Y+11,r25
 3597 1838 8A87      		std Y+10,r24
 435:lp_solve_5.5/lp_mipbb.c ****   MYBOOL OKstatus = FALSE;
 3598               		.loc 1 435 0
 3599 183a 1D82      		std Y+5,__zero_reg__
 436:lp_solve_5.5/lp_mipbb.c **** 
 437:lp_solve_5.5/lp_mipbb.c ****   if(lp->bb_break || userabort(lp, MSG_MILPSTRATEGY))
 3600               		.loc 1 437 0
 3601 183c 8A85      		ldd r24,Y+10
 3602 183e 9B85      		ldd r25,Y+11
 3603 1840 8B50      		subi r24,11
 3604 1842 9D4F      		sbci r25,-3
 3605 1844 FC01      		movw r30,r24
 3606 1846 8081      		ld r24,Z
 3607 1848 8823      		tst r24
 3608 184a 01F4      		brne .L136
 3609               		.loc 1 437 0 is_stmt 0 discriminator 1
 3610 184c 8A85      		ldd r24,Y+10
 3611 184e 9B85      		ldd r25,Y+11
 3612 1850 60E0      		ldi r22,0
 3613 1852 74E0      		ldi r23,lo8(4)
 3614 1854 0E94 0000 		call userabort
 3615 1858 8823      		tst r24
 3616 185a 01F0      		breq .L137
 3617               	.L136:
 438:lp_solve_5.5/lp_mipbb.c ****     return( OKstatus );
 3618               		.loc 1 438 0 is_stmt 1
 3619 185c 8D81      		ldd r24,Y+5
 3620 185e 00C0      		rjmp .L138
 3621               	.L137:
 439:lp_solve_5.5/lp_mipbb.c **** 
 440:lp_solve_5.5/lp_mipbb.c ****   K = BB->varno;
 3622               		.loc 1 440 0
 3623 1860 8C8D      		ldd r24,Y+28
 3624 1862 9D8D      		ldd r25,Y+29
 3625 1864 FC01      		movw r30,r24
 3626 1866 8681      		ldd r24,Z+6
 3627 1868 9781      		ldd r25,Z+7
 3628 186a 9D87      		std Y+13,r25
 3629 186c 8C87      		std Y+12,r24
 441:lp_solve_5.5/lp_mipbb.c ****   if(K > 0) {
 3630               		.loc 1 441 0
 3631 186e 8C85      		ldd r24,Y+12
 3632 1870 9D85      		ldd r25,Y+13
 3633 1872 1816      		cp __zero_reg__,r24
 3634 1874 1906      		cpc __zero_reg__,r25
 3635 1876 04F0      		brlt .+2
 3636 1878 00C0      		rjmp .L139
 442:lp_solve_5.5/lp_mipbb.c **** 
 443:lp_solve_5.5/lp_mipbb.c ****   /* Shortcut variables */
 444:lp_solve_5.5/lp_mipbb.c ****     k = BB->varno - lp->rows;
 3637               		.loc 1 444 0
 3638 187a 8C8D      		ldd r24,Y+28
 3639 187c 9D8D      		ldd r25,Y+29
 3640 187e FC01      		movw r30,r24
 3641 1880 2681      		ldd r18,Z+6
 3642 1882 3781      		ldd r19,Z+7
 3643 1884 8A85      		ldd r24,Y+10
 3644 1886 9B85      		ldd r25,Y+11
 3645 1888 8651      		subi r24,22
 3646 188a 9E4F      		sbci r25,-2
 3647 188c FC01      		movw r30,r24
 3648 188e 8081      		ld r24,Z
 3649 1890 9181      		ldd r25,Z+1
 3650 1892 A901      		movw r20,r18
 3651 1894 481B      		sub r20,r24
 3652 1896 590B      		sbc r21,r25
 3653 1898 CA01      		movw r24,r20
 3654 189a 9F87      		std Y+15,r25
 3655 189c 8E87      		std Y+14,r24
 445:lp_solve_5.5/lp_mipbb.c ****     ult_upbo  = lp->orig_upbo[K];
 3656               		.loc 1 445 0
 3657 189e 8A85      		ldd r24,Y+10
 3658 18a0 9B85      		ldd r25,Y+11
 3659 18a2 8255      		subi r24,82
 3660 18a4 9D4F      		sbci r25,-3
 3661 18a6 FC01      		movw r30,r24
 3662 18a8 2081      		ld r18,Z
 3663 18aa 3181      		ldd r19,Z+1
 3664 18ac 8C85      		ldd r24,Y+12
 3665 18ae 9D85      		ldd r25,Y+13
 3666 18b0 880F      		lsl r24
 3667 18b2 991F      		rol r25
 3668 18b4 880F      		lsl r24
 3669 18b6 991F      		rol r25
 3670 18b8 820F      		add r24,r18
 3671 18ba 931F      		adc r25,r19
 3672 18bc FC01      		movw r30,r24
 3673 18be 8081      		ld r24,Z
 3674 18c0 9181      		ldd r25,Z+1
 3675 18c2 A281      		ldd r26,Z+2
 3676 18c4 B381      		ldd r27,Z+3
 3677 18c6 888B      		std Y+16,r24
 3678 18c8 998B      		std Y+17,r25
 3679 18ca AA8B      		std Y+18,r26
 3680 18cc BB8B      		std Y+19,r27
 446:lp_solve_5.5/lp_mipbb.c ****     ult_lowbo = lp->orig_lowbo[K];
 3681               		.loc 1 446 0
 3682 18ce 8A85      		ldd r24,Y+10
 3683 18d0 9B85      		ldd r25,Y+11
 3684 18d2 8E54      		subi r24,78
 3685 18d4 9D4F      		sbci r25,-3
 3686 18d6 FC01      		movw r30,r24
 3687 18d8 2081      		ld r18,Z
 3688 18da 3181      		ldd r19,Z+1
 3689 18dc 8C85      		ldd r24,Y+12
 3690 18de 9D85      		ldd r25,Y+13
 3691 18e0 880F      		lsl r24
 3692 18e2 991F      		rol r25
 3693 18e4 880F      		lsl r24
 3694 18e6 991F      		rol r25
 3695 18e8 820F      		add r24,r18
 3696 18ea 931F      		adc r25,r19
 3697 18ec FC01      		movw r30,r24
 3698 18ee 8081      		ld r24,Z
 3699 18f0 9181      		ldd r25,Z+1
 3700 18f2 A281      		ldd r26,Z+2
 3701 18f4 B381      		ldd r27,Z+3
 3702 18f6 8C8B      		std Y+20,r24
 3703 18f8 9D8B      		std Y+21,r25
 3704 18fa AE8B      		std Y+22,r26
 3705 18fc BF8B      		std Y+23,r27
 447:lp_solve_5.5/lp_mipbb.c ****     SC_bound  = unscaled_value(lp, BB->sc_bound, K);
 3706               		.loc 1 447 0
 3707 18fe 8C8D      		ldd r24,Y+28
 3708 1900 9D8D      		ldd r25,Y+29
 3709 1902 FC01      		movw r30,r24
 3710 1904 848D      		ldd r24,Z+28
 3711 1906 958D      		ldd r25,Z+29
 3712 1908 A68D      		ldd r26,Z+30
 3713 190a B78D      		ldd r27,Z+31
 3714 190c 2C85      		ldd r18,Y+12
 3715 190e 3D85      		ldd r19,Y+13
 3716 1910 EA85      		ldd r30,Y+10
 3717 1912 FB85      		ldd r31,Y+11
 3718 1914 AC01      		movw r20,r24
 3719 1916 BD01      		movw r22,r26
 3720 1918 CF01      		movw r24,r30
 3721 191a 0E94 0000 		call unscaled_value
 3722 191e DC01      		movw r26,r24
 3723 1920 CB01      		movw r24,r22
 3724 1922 888F      		std Y+24,r24
 3725 1924 998F      		std Y+25,r25
 3726 1926 AA8F      		std Y+26,r26
 3727 1928 BB8F      		std Y+27,r27
 448:lp_solve_5.5/lp_mipbb.c **** 
 449:lp_solve_5.5/lp_mipbb.c ****     /* First, establish the upper bound to be applied (when isfloor == TRUE)
 450:lp_solve_5.5/lp_mipbb.c ****        --------------------------------------------------------------------- */
 451:lp_solve_5.5/lp_mipbb.c **** /*SetUB:*/
 452:lp_solve_5.5/lp_mipbb.c ****     BB->UPbound = lp->infinite;
 3728               		.loc 1 452 0
 3729 192a 8A85      		ldd r24,Y+10
 3730 192c 9B85      		ldd r25,Y+11
 3731 192e 865F      		subi r24,-10
 3732 1930 9C4F      		sbci r25,-4
 3733 1932 FC01      		movw r30,r24
 3734 1934 8081      		ld r24,Z
 3735 1936 9181      		ldd r25,Z+1
 3736 1938 A281      		ldd r26,Z+2
 3737 193a B381      		ldd r27,Z+3
 3738 193c 2C8D      		ldd r18,Y+28
 3739 193e 3D8D      		ldd r19,Y+29
 3740 1940 F901      		movw r30,r18
 3741 1942 84A3      		std Z+36,r24
 3742 1944 95A3      		std Z+37,r25
 3743 1946 A6A3      		std Z+38,r26
 3744 1948 B7A3      		std Z+39,r27
 453:lp_solve_5.5/lp_mipbb.c **** 
 454:lp_solve_5.5/lp_mipbb.c ****     /* Handle SC-variables for the [0-LoBound> range */
 455:lp_solve_5.5/lp_mipbb.c ****     if((SC_bound > 0) && (fabs(BB->lastsolution) < SC_bound-intmargin)) {
 3745               		.loc 1 455 0
 3746 194a 20E0      		ldi r18,0
 3747 194c 30E0      		ldi r19,0
 3748 194e A901      		movw r20,r18
 3749 1950 688D      		ldd r22,Y+24
 3750 1952 798D      		ldd r23,Y+25
 3751 1954 8A8D      		ldd r24,Y+26
 3752 1956 9B8D      		ldd r25,Y+27
 3753 1958 0E94 0000 		call __gtsf2
 3754 195c 1816      		cp __zero_reg__,r24
 3755 195e 04F4      		brge .L140
 3756               		.loc 1 455 0 is_stmt 0 discriminator 1
 3757 1960 8C8D      		ldd r24,Y+28
 3758 1962 9D8D      		ldd r25,Y+29
 3759 1964 FC01      		movw r30,r24
 3760 1966 808D      		ldd r24,Z+24
 3761 1968 918D      		ldd r25,Z+25
 3762 196a A28D      		ldd r26,Z+26
 3763 196c B38D      		ldd r27,Z+27
 3764 196e 6C01      		movw r12,r24
 3765 1970 7D01      		movw r14,r26
 3766 1972 E894      		clt
 3767 1974 F7F8      		bld r15,7
 3768 1976 2E81      		ldd r18,Y+6
 3769 1978 3F81      		ldd r19,Y+7
 3770 197a 4885      		ldd r20,Y+8
 3771 197c 5985      		ldd r21,Y+9
 3772 197e 688D      		ldd r22,Y+24
 3773 1980 798D      		ldd r23,Y+25
 3774 1982 8A8D      		ldd r24,Y+26
 3775 1984 9B8D      		ldd r25,Y+27
 3776 1986 0E94 0000 		call __subsf3
 3777 198a DC01      		movw r26,r24
 3778 198c CB01      		movw r24,r22
 3779 198e 9C01      		movw r18,r24
 3780 1990 AD01      		movw r20,r26
 3781 1992 C701      		movw r24,r14
 3782 1994 B601      		movw r22,r12
 3783 1996 0E94 0000 		call __ltsf2
 3784 199a 8823      		tst r24
 3785 199c 04F4      		brge .L140
 456:lp_solve_5.5/lp_mipbb.c ****       new_bound = 0;
 3786               		.loc 1 456 0 is_stmt 1
 3787 199e 1982      		std Y+1,__zero_reg__
 3788 19a0 1A82      		std Y+2,__zero_reg__
 3789 19a2 1B82      		std Y+3,__zero_reg__
 3790 19a4 1C82      		std Y+4,__zero_reg__
 3791 19a6 00C0      		rjmp .L143
 3792               	.L140:
 457:lp_solve_5.5/lp_mipbb.c ****     }
 458:lp_solve_5.5/lp_mipbb.c ****     /* Handle pure integers (non-SOS, non-SC) */
 459:lp_solve_5.5/lp_mipbb.c ****     else if(BB->vartype == BB_INT) {
 3793               		.loc 1 459 0
 3794 19a8 8C8D      		ldd r24,Y+28
 3795 19aa 9D8D      		ldd r25,Y+29
 3796 19ac FC01      		movw r30,r24
 3797 19ae 8085      		ldd r24,Z+8
 3798 19b0 9185      		ldd r25,Z+9
 3799 19b2 0197      		sbiw r24,1
 3800 19b4 01F0      		breq .+2
 3801 19b6 00C0      		rjmp .L144
 460:lp_solve_5.5/lp_mipbb.c **** #if 1
 461:lp_solve_5.5/lp_mipbb.c ****       if(((ult_lowbo >= 0) &&
 3802               		.loc 1 461 0
 3803 19b8 20E0      		ldi r18,0
 3804 19ba 30E0      		ldi r19,0
 3805 19bc A901      		movw r20,r18
 3806 19be 6C89      		ldd r22,Y+20
 3807 19c0 7D89      		ldd r23,Y+21
 3808 19c2 8E89      		ldd r24,Y+22
 3809 19c4 9F89      		ldd r25,Y+23
 3810 19c6 0E94 0000 		call __gesf2
 3811 19ca 8823      		tst r24
 3812 19cc 04F4      		brge .+2
 3813 19ce 00C0      		rjmp .L145
 462:lp_solve_5.5/lp_mipbb.c ****           ((floor(BB->lastsolution) < /* Skip cases where the lower bound becomes violated */
 3814               		.loc 1 462 0
 3815 19d0 8C8D      		ldd r24,Y+28
 3816 19d2 9D8D      		ldd r25,Y+29
 3817 19d4 FC01      		movw r30,r24
 3818 19d6 808D      		ldd r24,Z+24
 3819 19d8 918D      		ldd r25,Z+25
 3820 19da A28D      		ldd r26,Z+26
 3821 19dc B38D      		ldd r27,Z+27
 3822 19de BC01      		movw r22,r24
 3823 19e0 CD01      		movw r24,r26
 3824 19e2 0E94 0000 		call floor
 3825 19e6 6B01      		movw r12,r22
 3826 19e8 7C01      		movw r14,r24
 463:lp_solve_5.5/lp_mipbb.c ****             unscaled_value(lp, MAX(ult_lowbo, fabs(lp->sc_lobound[k])), K)-intmargin))) ||
 3827               		.loc 1 463 0
 3828 19ea 8A85      		ldd r24,Y+10
 3829 19ec 9B85      		ldd r25,Y+11
 3830 19ee 8E56      		subi r24,110
 3831 19f0 9D4F      		sbci r25,-3
 3832 19f2 FC01      		movw r30,r24
 3833 19f4 2081      		ld r18,Z
 3834 19f6 3181      		ldd r19,Z+1
 3835 19f8 8E85      		ldd r24,Y+14
 3836 19fa 9F85      		ldd r25,Y+15
 3837 19fc 880F      		lsl r24
 3838 19fe 991F      		rol r25
 3839 1a00 880F      		lsl r24
 3840 1a02 991F      		rol r25
 3841 1a04 820F      		add r24,r18
 3842 1a06 931F      		adc r25,r19
 3843 1a08 FC01      		movw r30,r24
 3844 1a0a 8081      		ld r24,Z
 3845 1a0c 9181      		ldd r25,Z+1
 3846 1a0e A281      		ldd r26,Z+2
 3847 1a10 B381      		ldd r27,Z+3
 3848 1a12 BF77      		andi r27,0x7f
 3849 1a14 2C89      		ldd r18,Y+20
 3850 1a16 3D89      		ldd r19,Y+21
 3851 1a18 4E89      		ldd r20,Y+22
 3852 1a1a 5F89      		ldd r21,Y+23
 3853 1a1c BC01      		movw r22,r24
 3854 1a1e CD01      		movw r24,r26
 3855 1a20 0E94 0000 		call __ltsf2
 3856 1a24 8823      		tst r24
 3857 1a26 04F4      		brge .L233
 3858               		.loc 1 463 0 is_stmt 0 discriminator 1
 3859 1a28 8C89      		ldd r24,Y+20
 3860 1a2a 9D89      		ldd r25,Y+21
 3861 1a2c AE89      		ldd r26,Y+22
 3862 1a2e BF89      		ldd r27,Y+23
 3863 1a30 00C0      		rjmp .L149
 3864               	.L233:
 3865               		.loc 1 463 0 discriminator 2
 3866 1a32 8A85      		ldd r24,Y+10
 3867 1a34 9B85      		ldd r25,Y+11
 3868 1a36 8E56      		subi r24,110
 3869 1a38 9D4F      		sbci r25,-3
 3870 1a3a FC01      		movw r30,r24
 3871 1a3c 2081      		ld r18,Z
 3872 1a3e 3181      		ldd r19,Z+1
 3873 1a40 8E85      		ldd r24,Y+14
 3874 1a42 9F85      		ldd r25,Y+15
 3875 1a44 880F      		lsl r24
 3876 1a46 991F      		rol r25
 3877 1a48 880F      		lsl r24
 3878 1a4a 991F      		rol r25
 3879 1a4c 820F      		add r24,r18
 3880 1a4e 931F      		adc r25,r19
 3881 1a50 FC01      		movw r30,r24
 3882 1a52 8081      		ld r24,Z
 3883 1a54 9181      		ldd r25,Z+1
 3884 1a56 A281      		ldd r26,Z+2
 3885 1a58 B381      		ldd r27,Z+3
 3886 1a5a BF77      		andi r27,0x7f
 3887               	.L149:
 3888               		.loc 1 463 0 discriminator 4
 3889 1a5c 2C85      		ldd r18,Y+12
 3890 1a5e 3D85      		ldd r19,Y+13
 3891 1a60 EA85      		ldd r30,Y+10
 3892 1a62 FB85      		ldd r31,Y+11
 3893 1a64 AC01      		movw r20,r24
 3894 1a66 BD01      		movw r22,r26
 3895 1a68 CF01      		movw r24,r30
 3896 1a6a 0E94 0000 		call unscaled_value
 3897 1a6e DC01      		movw r26,r24
 3898 1a70 CB01      		movw r24,r22
 3899 1a72 2E81      		ldd r18,Y+6
 3900 1a74 3F81      		ldd r19,Y+7
 3901 1a76 4885      		ldd r20,Y+8
 3902 1a78 5985      		ldd r21,Y+9
 3903 1a7a BC01      		movw r22,r24
 3904 1a7c CD01      		movw r24,r26
 3905 1a7e 0E94 0000 		call __subsf3
 3906 1a82 DC01      		movw r26,r24
 3907 1a84 CB01      		movw r24,r22
 461:lp_solve_5.5/lp_mipbb.c ****           ((floor(BB->lastsolution) < /* Skip cases where the lower bound becomes violated */
 3908               		.loc 1 461 0 is_stmt 1 discriminator 4
 3909 1a86 9C01      		movw r18,r24
 3910 1a88 AD01      		movw r20,r26
 3911 1a8a C701      		movw r24,r14
 3912 1a8c B601      		movw r22,r12
 3913 1a8e 0E94 0000 		call __ltsf2
 3914 1a92 8823      		tst r24
 3915 1a94 04F4      		brge .+2
 3916 1a96 00C0      		rjmp .L150
 3917               	.L145:
 3918               		.loc 1 463 0
 3919 1a98 20E0      		ldi r18,0
 3920 1a9a 30E0      		ldi r19,0
 3921 1a9c A901      		movw r20,r18
 3922 1a9e 6889      		ldd r22,Y+16
 3923 1aa0 7989      		ldd r23,Y+17
 3924 1aa2 8A89      		ldd r24,Y+18
 3925 1aa4 9B89      		ldd r25,Y+19
 3926 1aa6 0E94 0000 		call __lesf2
 3927 1aaa 1816      		cp __zero_reg__,r24
 3928 1aac 04F4      		brge .+2
 3929 1aae 00C0      		rjmp .L151
 464:lp_solve_5.5/lp_mipbb.c ****          ((ult_upbo <= 0) &&   /*  Was  ((ult_lowbo < 0) && */
 465:lp_solve_5.5/lp_mipbb.c ****           ((floor(BB->lastsolution) > /* Skip cases where the upper bound becomes violated */
 3930               		.loc 1 465 0
 3931 1ab0 8C8D      		ldd r24,Y+28
 3932 1ab2 9D8D      		ldd r25,Y+29
 3933 1ab4 FC01      		movw r30,r24
 3934 1ab6 808D      		ldd r24,Z+24
 3935 1ab8 918D      		ldd r25,Z+25
 3936 1aba A28D      		ldd r26,Z+26
 3937 1abc B38D      		ldd r27,Z+27
 3938 1abe BC01      		movw r22,r24
 3939 1ac0 CD01      		movw r24,r26
 3940 1ac2 0E94 0000 		call floor
 3941 1ac6 6B01      		movw r12,r22
 3942 1ac8 7C01      		movw r14,r24
 466:lp_solve_5.5/lp_mipbb.c ****             unscaled_value(lp, MIN(ult_upbo, -fabs(lp->sc_lobound[k])), K)-intmargin)))) {
 3943               		.loc 1 466 0
 3944 1aca 8A85      		ldd r24,Y+10
 3945 1acc 9B85      		ldd r25,Y+11
 3946 1ace 8E56      		subi r24,110
 3947 1ad0 9D4F      		sbci r25,-3
 3948 1ad2 FC01      		movw r30,r24
 3949 1ad4 2081      		ld r18,Z
 3950 1ad6 3181      		ldd r19,Z+1
 3951 1ad8 8E85      		ldd r24,Y+14
 3952 1ada 9F85      		ldd r25,Y+15
 3953 1adc 880F      		lsl r24
 3954 1ade 991F      		rol r25
 3955 1ae0 880F      		lsl r24
 3956 1ae2 991F      		rol r25
 3957 1ae4 820F      		add r24,r18
 3958 1ae6 931F      		adc r25,r19
 3959 1ae8 FC01      		movw r30,r24
 3960 1aea 8081      		ld r24,Z
 3961 1aec 9181      		ldd r25,Z+1
 3962 1aee A281      		ldd r26,Z+2
 3963 1af0 B381      		ldd r27,Z+3
 3964 1af2 BF77      		andi r27,0x7f
 3965 1af4 B058      		subi r27,0x80
 3966 1af6 2889      		ldd r18,Y+16
 3967 1af8 3989      		ldd r19,Y+17
 3968 1afa 4A89      		ldd r20,Y+18
 3969 1afc 5B89      		ldd r21,Y+19
 3970 1afe BC01      		movw r22,r24
 3971 1b00 CD01      		movw r24,r26
 3972 1b02 0E94 0000 		call __gtsf2
 3973 1b06 1816      		cp __zero_reg__,r24
 3974 1b08 04F4      		brge .L234
 3975               		.loc 1 466 0 is_stmt 0 discriminator 1
 3976 1b0a 8889      		ldd r24,Y+16
 3977 1b0c 9989      		ldd r25,Y+17
 3978 1b0e AA89      		ldd r26,Y+18
 3979 1b10 BB89      		ldd r27,Y+19
 3980 1b12 00C0      		rjmp .L155
 3981               	.L234:
 3982               		.loc 1 466 0 discriminator 2
 3983 1b14 8A85      		ldd r24,Y+10
 3984 1b16 9B85      		ldd r25,Y+11
 3985 1b18 8E56      		subi r24,110
 3986 1b1a 9D4F      		sbci r25,-3
 3987 1b1c FC01      		movw r30,r24
 3988 1b1e 2081      		ld r18,Z
 3989 1b20 3181      		ldd r19,Z+1
 3990 1b22 8E85      		ldd r24,Y+14
 3991 1b24 9F85      		ldd r25,Y+15
 3992 1b26 880F      		lsl r24
 3993 1b28 991F      		rol r25
 3994 1b2a 880F      		lsl r24
 3995 1b2c 991F      		rol r25
 3996 1b2e 820F      		add r24,r18
 3997 1b30 931F      		adc r25,r19
 3998 1b32 FC01      		movw r30,r24
 3999 1b34 8081      		ld r24,Z
 4000 1b36 9181      		ldd r25,Z+1
 4001 1b38 A281      		ldd r26,Z+2
 4002 1b3a B381      		ldd r27,Z+3
 4003 1b3c BF77      		andi r27,0x7f
 4004 1b3e B058      		subi r27,0x80
 4005               	.L155:
 4006               		.loc 1 466 0 discriminator 4
 4007 1b40 2C85      		ldd r18,Y+12
 4008 1b42 3D85      		ldd r19,Y+13
 4009 1b44 EA85      		ldd r30,Y+10
 4010 1b46 FB85      		ldd r31,Y+11
 4011 1b48 AC01      		movw r20,r24
 4012 1b4a BD01      		movw r22,r26
 4013 1b4c CF01      		movw r24,r30
 4014 1b4e 0E94 0000 		call unscaled_value
 4015 1b52 DC01      		movw r26,r24
 4016 1b54 CB01      		movw r24,r22
 4017 1b56 2E81      		ldd r18,Y+6
 4018 1b58 3F81      		ldd r19,Y+7
 4019 1b5a 4885      		ldd r20,Y+8
 4020 1b5c 5985      		ldd r21,Y+9
 4021 1b5e BC01      		movw r22,r24
 4022 1b60 CD01      		movw r24,r26
 4023 1b62 0E94 0000 		call __subsf3
 4024 1b66 DC01      		movw r26,r24
 4025 1b68 CB01      		movw r24,r22
 464:lp_solve_5.5/lp_mipbb.c ****          ((ult_upbo <= 0) &&   /*  Was  ((ult_lowbo < 0) && */
 4026               		.loc 1 464 0 is_stmt 1 discriminator 4
 4027 1b6a 9C01      		movw r18,r24
 4028 1b6c AD01      		movw r20,r26
 4029 1b6e C701      		movw r24,r14
 4030 1b70 B601      		movw r22,r12
 4031 1b72 0E94 0000 		call __gtsf2
 4032 1b76 1816      		cp __zero_reg__,r24
 4033 1b78 04F4      		brge .L151
 4034               	.L150:
 467:lp_solve_5.5/lp_mipbb.c **** #else
 468:lp_solve_5.5/lp_mipbb.c ****       if((floor(BB->lastsolution) <  /* Skip cases where the lower bound becomes violated */
 469:lp_solve_5.5/lp_mipbb.c ****           unscaled_value(lp, MAX(ult_lowbo, fabs(lp->sc_lobound[k])), K)-intmargin)) {
 470:lp_solve_5.5/lp_mipbb.c **** #endif
 471:lp_solve_5.5/lp_mipbb.c ****         BB->nodesleft--;
 4035               		.loc 1 471 0
 4036 1b7a 8C8D      		ldd r24,Y+28
 4037 1b7c 9D8D      		ldd r25,Y+29
 4038 1b7e FC01      		movw r30,r24
 4039 1b80 8685      		ldd r24,Z+14
 4040 1b82 9785      		ldd r25,Z+15
 4041 1b84 9C01      		movw r18,r24
 4042 1b86 2150      		subi r18,1
 4043 1b88 3109      		sbc r19,__zero_reg__
 4044 1b8a 8C8D      		ldd r24,Y+28
 4045 1b8c 9D8D      		ldd r25,Y+29
 4046 1b8e FC01      		movw r30,r24
 4047 1b90 3787      		std Z+15,r19
 4048 1b92 2687      		std Z+14,r18
 472:lp_solve_5.5/lp_mipbb.c ****         goto SetLB;
 4049               		.loc 1 472 0
 4050 1b94 00C0      		rjmp .L157
 4051               	.L151:
 473:lp_solve_5.5/lp_mipbb.c ****       }
 474:lp_solve_5.5/lp_mipbb.c ****       new_bound = scaled_floor(lp, K, BB->lastsolution, 1);
 4052               		.loc 1 474 0
 4053 1b96 8C8D      		ldd r24,Y+28
 4054 1b98 9D8D      		ldd r25,Y+29
 4055 1b9a FC01      		movw r30,r24
 4056 1b9c 808D      		ldd r24,Z+24
 4057 1b9e 918D      		ldd r25,Z+25
 4058 1ba0 A28D      		ldd r26,Z+26
 4059 1ba2 B38D      		ldd r27,Z+27
 4060 1ba4 6C85      		ldd r22,Y+12
 4061 1ba6 7D85      		ldd r23,Y+13
 4062 1ba8 EA85      		ldd r30,Y+10
 4063 1baa FB85      		ldd r31,Y+11
 4064 1bac E12C      		mov r14,__zero_reg__
 4065 1bae F12C      		mov r15,__zero_reg__
 4066 1bb0 00E8      		ldi r16,lo8(-128)
 4067 1bb2 1FE3      		ldi r17,lo8(63)
 4068 1bb4 9C01      		movw r18,r24
 4069 1bb6 AD01      		movw r20,r26
 4070 1bb8 CF01      		movw r24,r30
 4071 1bba 0E94 0000 		call scaled_floor
 4072 1bbe DC01      		movw r26,r24
 4073 1bc0 CB01      		movw r24,r22
 4074 1bc2 8983      		std Y+1,r24
 4075 1bc4 9A83      		std Y+2,r25
 4076 1bc6 AB83      		std Y+3,r26
 4077 1bc8 BC83      		std Y+4,r27
 4078 1bca 00C0      		rjmp .L143
 4079               	.L144:
 475:lp_solve_5.5/lp_mipbb.c ****     }
 476:lp_solve_5.5/lp_mipbb.c ****     else if(BB->isSOS) {           /* Handle all SOS variants */
 4080               		.loc 1 476 0
 4081 1bcc 8C8D      		ldd r24,Y+28
 4082 1bce 9D8D      		ldd r25,Y+29
 4083 1bd0 FC01      		movw r30,r24
 4084 1bd2 82A9      		ldd r24,Z+50
 4085 1bd4 8823      		tst r24
 4086 1bd6 01F0      		breq .L158
 477:lp_solve_5.5/lp_mipbb.c ****       new_bound = ult_lowbo;
 4087               		.loc 1 477 0
 4088 1bd8 8C89      		ldd r24,Y+20
 4089 1bda 9D89      		ldd r25,Y+21
 4090 1bdc AE89      		ldd r26,Y+22
 4091 1bde BF89      		ldd r27,Y+23
 4092 1be0 8983      		std Y+1,r24
 4093 1be2 9A83      		std Y+2,r25
 4094 1be4 AB83      		std Y+3,r26
 4095 1be6 BC83      		std Y+4,r27
 478:lp_solve_5.5/lp_mipbb.c ****       if(is_int(lp, k))
 4096               		.loc 1 478 0
 4097 1be8 2E85      		ldd r18,Y+14
 4098 1bea 3F85      		ldd r19,Y+15
 4099 1bec 8A85      		ldd r24,Y+10
 4100 1bee 9B85      		ldd r25,Y+11
 4101 1bf0 B901      		movw r22,r18
 4102 1bf2 0E94 0000 		call is_int
 4103 1bf6 8823      		tst r24
 4104 1bf8 01F0      		breq .L143
 479:lp_solve_5.5/lp_mipbb.c ****         new_bound = scaled_ceil(lp, K, unscaled_value(lp, new_bound, K), -1);
 4105               		.loc 1 479 0
 4106 1bfa 2C85      		ldd r18,Y+12
 4107 1bfc 3D85      		ldd r19,Y+13
 4108 1bfe 8981      		ldd r24,Y+1
 4109 1c00 9A81      		ldd r25,Y+2
 4110 1c02 AB81      		ldd r26,Y+3
 4111 1c04 BC81      		ldd r27,Y+4
 4112 1c06 EA85      		ldd r30,Y+10
 4113 1c08 FB85      		ldd r31,Y+11
 4114 1c0a AC01      		movw r20,r24
 4115 1c0c BD01      		movw r22,r26
 4116 1c0e CF01      		movw r24,r30
 4117 1c10 0E94 0000 		call unscaled_value
 4118 1c14 9B01      		movw r18,r22
 4119 1c16 AC01      		movw r20,r24
 4120 1c18 6C85      		ldd r22,Y+12
 4121 1c1a 7D85      		ldd r23,Y+13
 4122 1c1c 8A85      		ldd r24,Y+10
 4123 1c1e 9B85      		ldd r25,Y+11
 4124 1c20 E12C      		mov r14,__zero_reg__
 4125 1c22 F12C      		mov r15,__zero_reg__
 4126 1c24 00E8      		ldi r16,lo8(-128)
 4127 1c26 1FEB      		ldi r17,lo8(-65)
 4128 1c28 0E94 0000 		call scaled_ceil
 4129 1c2c DC01      		movw r26,r24
 4130 1c2e CB01      		movw r24,r22
 4131 1c30 8983      		std Y+1,r24
 4132 1c32 9A83      		std Y+2,r25
 4133 1c34 AB83      		std Y+3,r26
 4134 1c36 BC83      		std Y+4,r27
 4135 1c38 00C0      		rjmp .L143
 4136               	.L158:
 480:lp_solve_5.5/lp_mipbb.c ****     }
 481:lp_solve_5.5/lp_mipbb.c ****     else                           /* Handle all other variable incarnations */
 482:lp_solve_5.5/lp_mipbb.c ****       new_bound = BB->sc_bound;
 4137               		.loc 1 482 0
 4138 1c3a 8C8D      		ldd r24,Y+28
 4139 1c3c 9D8D      		ldd r25,Y+29
 4140 1c3e FC01      		movw r30,r24
 4141 1c40 848D      		ldd r24,Z+28
 4142 1c42 958D      		ldd r25,Z+29
 4143 1c44 A68D      		ldd r26,Z+30
 4144 1c46 B78D      		ldd r27,Z+31
 4145 1c48 8983      		std Y+1,r24
 4146 1c4a 9A83      		std Y+2,r25
 4147 1c4c AB83      		std Y+3,r26
 4148 1c4e BC83      		std Y+4,r27
 4149               	.L143:
 483:lp_solve_5.5/lp_mipbb.c **** 
 484:lp_solve_5.5/lp_mipbb.c ****     /* Check if the new bound might conflict and possibly make adjustments */
 485:lp_solve_5.5/lp_mipbb.c ****     if(new_bound < BB->lowbo[K])
 4150               		.loc 1 485 0
 4151 1c50 8C8D      		ldd r24,Y+28
 4152 1c52 9D8D      		ldd r25,Y+29
 4153 1c54 FC01      		movw r30,r24
 4154 1c56 22A1      		ldd r18,Z+34
 4155 1c58 33A1      		ldd r19,Z+35
 4156 1c5a 8C85      		ldd r24,Y+12
 4157 1c5c 9D85      		ldd r25,Y+13
 4158 1c5e 880F      		lsl r24
 4159 1c60 991F      		rol r25
 4160 1c62 880F      		lsl r24
 4161 1c64 991F      		rol r25
 4162 1c66 820F      		add r24,r18
 4163 1c68 931F      		adc r25,r19
 4164 1c6a FC01      		movw r30,r24
 4165 1c6c 8081      		ld r24,Z
 4166 1c6e 9181      		ldd r25,Z+1
 4167 1c70 A281      		ldd r26,Z+2
 4168 1c72 B381      		ldd r27,Z+3
 4169 1c74 2981      		ldd r18,Y+1
 4170 1c76 3A81      		ldd r19,Y+2
 4171 1c78 4B81      		ldd r20,Y+3
 4172 1c7a 5C81      		ldd r21,Y+4
 4173 1c7c BC01      		movw r22,r24
 4174 1c7e CD01      		movw r24,r26
 4175 1c80 0E94 0000 		call __gtsf2
 4176 1c84 1816      		cp __zero_reg__,r24
 4177 1c86 04F0      		brlt .+2
 4178 1c88 00C0      		rjmp .L160
 486:lp_solve_5.5/lp_mipbb.c ****       new_bound = BB->lowbo[K] - my_avoidtiny(new_bound-BB->lowbo[K], intmargin);
 4179               		.loc 1 486 0
 4180 1c8a 8C8D      		ldd r24,Y+28
 4181 1c8c 9D8D      		ldd r25,Y+29
 4182 1c8e FC01      		movw r30,r24
 4183 1c90 22A1      		ldd r18,Z+34
 4184 1c92 33A1      		ldd r19,Z+35
 4185 1c94 8C85      		ldd r24,Y+12
 4186 1c96 9D85      		ldd r25,Y+13
 4187 1c98 880F      		lsl r24
 4188 1c9a 991F      		rol r25
 4189 1c9c 880F      		lsl r24
 4190 1c9e 991F      		rol r25
 4191 1ca0 820F      		add r24,r18
 4192 1ca2 931F      		adc r25,r19
 4193 1ca4 FC01      		movw r30,r24
 4194 1ca6 C080      		ld r12,Z
 4195 1ca8 D180      		ldd r13,Z+1
 4196 1caa E280      		ldd r14,Z+2
 4197 1cac F380      		ldd r15,Z+3
 4198 1cae 8C8D      		ldd r24,Y+28
 4199 1cb0 9D8D      		ldd r25,Y+29
 4200 1cb2 FC01      		movw r30,r24
 4201 1cb4 22A1      		ldd r18,Z+34
 4202 1cb6 33A1      		ldd r19,Z+35
 4203 1cb8 8C85      		ldd r24,Y+12
 4204 1cba 9D85      		ldd r25,Y+13
 4205 1cbc 880F      		lsl r24
 4206 1cbe 991F      		rol r25
 4207 1cc0 880F      		lsl r24
 4208 1cc2 991F      		rol r25
 4209 1cc4 820F      		add r24,r18
 4210 1cc6 931F      		adc r25,r19
 4211 1cc8 FC01      		movw r30,r24
 4212 1cca 8081      		ld r24,Z
 4213 1ccc 9181      		ldd r25,Z+1
 4214 1cce A281      		ldd r26,Z+2
 4215 1cd0 B381      		ldd r27,Z+3
 4216 1cd2 9C01      		movw r18,r24
 4217 1cd4 AD01      		movw r20,r26
 4218 1cd6 6981      		ldd r22,Y+1
 4219 1cd8 7A81      		ldd r23,Y+2
 4220 1cda 8B81      		ldd r24,Y+3
 4221 1cdc 9C81      		ldd r25,Y+4
 4222 1cde 0E94 0000 		call __subsf3
 4223 1ce2 DC01      		movw r26,r24
 4224 1ce4 CB01      		movw r24,r22
 4225 1ce6 BF77      		andi r27,0x7f
 4226 1ce8 2E81      		ldd r18,Y+6
 4227 1cea 3F81      		ldd r19,Y+7
 4228 1cec 4885      		ldd r20,Y+8
 4229 1cee 5985      		ldd r21,Y+9
 4230 1cf0 BC01      		movw r22,r24
 4231 1cf2 CD01      		movw r24,r26
 4232 1cf4 0E94 0000 		call __ltsf2
 4233 1cf8 8823      		tst r24
 4234 1cfa 04F4      		brge .L235
 4235               		.loc 1 486 0 is_stmt 0 discriminator 1
 4236 1cfc 80E0      		ldi r24,0
 4237 1cfe 90E0      		ldi r25,0
 4238 1d00 DC01      		movw r26,r24
 4239 1d02 00C0      		rjmp .L164
 4240               	.L235:
 4241               		.loc 1 486 0 discriminator 2
 4242 1d04 8C8D      		ldd r24,Y+28
 4243 1d06 9D8D      		ldd r25,Y+29
 4244 1d08 FC01      		movw r30,r24
 4245 1d0a 22A1      		ldd r18,Z+34
 4246 1d0c 33A1      		ldd r19,Z+35
 4247 1d0e 8C85      		ldd r24,Y+12
 4248 1d10 9D85      		ldd r25,Y+13
 4249 1d12 880F      		lsl r24
 4250 1d14 991F      		rol r25
 4251 1d16 880F      		lsl r24
 4252 1d18 991F      		rol r25
 4253 1d1a 820F      		add r24,r18
 4254 1d1c 931F      		adc r25,r19
 4255 1d1e FC01      		movw r30,r24
 4256 1d20 8081      		ld r24,Z
 4257 1d22 9181      		ldd r25,Z+1
 4258 1d24 A281      		ldd r26,Z+2
 4259 1d26 B381      		ldd r27,Z+3
 4260 1d28 9C01      		movw r18,r24
 4261 1d2a AD01      		movw r20,r26
 4262 1d2c 6981      		ldd r22,Y+1
 4263 1d2e 7A81      		ldd r23,Y+2
 4264 1d30 8B81      		ldd r24,Y+3
 4265 1d32 9C81      		ldd r25,Y+4
 4266 1d34 0E94 0000 		call __subsf3
 4267 1d38 DC01      		movw r26,r24
 4268 1d3a CB01      		movw r24,r22
 4269               	.L164:
 4270               		.loc 1 486 0 discriminator 4
 4271 1d3c 9C01      		movw r18,r24
 4272 1d3e AD01      		movw r20,r26
 4273 1d40 C701      		movw r24,r14
 4274 1d42 B601      		movw r22,r12
 4275 1d44 0E94 0000 		call __subsf3
 4276 1d48 DC01      		movw r26,r24
 4277 1d4a CB01      		movw r24,r22
 4278 1d4c 8983      		std Y+1,r24
 4279 1d4e 9A83      		std Y+2,r25
 4280 1d50 AB83      		std Y+3,r26
 4281 1d52 BC83      		std Y+4,r27
 4282               	.L160:
 487:lp_solve_5.5/lp_mipbb.c ****     if(new_bound < BB->lowbo[K]) {
 4283               		.loc 1 487 0 is_stmt 1
 4284 1d54 8C8D      		ldd r24,Y+28
 4285 1d56 9D8D      		ldd r25,Y+29
 4286 1d58 FC01      		movw r30,r24
 4287 1d5a 22A1      		ldd r18,Z+34
 4288 1d5c 33A1      		ldd r19,Z+35
 4289 1d5e 8C85      		ldd r24,Y+12
 4290 1d60 9D85      		ldd r25,Y+13
 4291 1d62 880F      		lsl r24
 4292 1d64 991F      		rol r25
 4293 1d66 880F      		lsl r24
 4294 1d68 991F      		rol r25
 4295 1d6a 820F      		add r24,r18
 4296 1d6c 931F      		adc r25,r19
 4297 1d6e FC01      		movw r30,r24
 4298 1d70 8081      		ld r24,Z
 4299 1d72 9181      		ldd r25,Z+1
 4300 1d74 A281      		ldd r26,Z+2
 4301 1d76 B381      		ldd r27,Z+3
 4302 1d78 2981      		ldd r18,Y+1
 4303 1d7a 3A81      		ldd r19,Y+2
 4304 1d7c 4B81      		ldd r20,Y+3
 4305 1d7e 5C81      		ldd r21,Y+4
 4306 1d80 BC01      		movw r22,r24
 4307 1d82 CD01      		movw r24,r26
 4308 1d84 0E94 0000 		call __gtsf2
 4309 1d88 1816      		cp __zero_reg__,r24
 4310 1d8a 04F4      		brge .L236
 488:lp_solve_5.5/lp_mipbb.c **** #ifdef Paranoia
 489:lp_solve_5.5/lp_mipbb.c ****       debug_print(lp,
 490:lp_solve_5.5/lp_mipbb.c ****           "fillbranches_BB: New upper bound value %g conflicts with old lower bound %g\n",
 491:lp_solve_5.5/lp_mipbb.c ****           new_bound, BB->lowbo[K]);
 492:lp_solve_5.5/lp_mipbb.c **** #endif
 493:lp_solve_5.5/lp_mipbb.c ****       BB->nodesleft--;
 4311               		.loc 1 493 0
 4312 1d8c 8C8D      		ldd r24,Y+28
 4313 1d8e 9D8D      		ldd r25,Y+29
 4314 1d90 FC01      		movw r30,r24
 4315 1d92 8685      		ldd r24,Z+14
 4316 1d94 9785      		ldd r25,Z+15
 4317 1d96 9C01      		movw r18,r24
 4318 1d98 2150      		subi r18,1
 4319 1d9a 3109      		sbc r19,__zero_reg__
 4320 1d9c 8C8D      		ldd r24,Y+28
 4321 1d9e 9D8D      		ldd r25,Y+29
 4322 1da0 FC01      		movw r30,r24
 4323 1da2 3787      		std Z+15,r19
 4324 1da4 2687      		std Z+14,r18
 494:lp_solve_5.5/lp_mipbb.c ****       goto SetLB;
 4325               		.loc 1 494 0
 4326 1da6 00C0      		rjmp .L157
 4327               	.L236:
 495:lp_solve_5.5/lp_mipbb.c ****     }
 496:lp_solve_5.5/lp_mipbb.c **** #ifdef Paranoia
 497:lp_solve_5.5/lp_mipbb.c ****     /* Do additional consistency checking */
 498:lp_solve_5.5/lp_mipbb.c ****     else if(!check_if_less(lp, new_bound, BB->upbo[K], K)) {
 499:lp_solve_5.5/lp_mipbb.c ****       BB->nodesleft--;
 500:lp_solve_5.5/lp_mipbb.c ****       goto SetLB;
 501:lp_solve_5.5/lp_mipbb.c ****     }
 502:lp_solve_5.5/lp_mipbb.c **** #endif
 503:lp_solve_5.5/lp_mipbb.c ****     /* Bound (at least near) feasible */
 504:lp_solve_5.5/lp_mipbb.c ****     else {
 505:lp_solve_5.5/lp_mipbb.c ****       /* Makes a difference with models like QUEEN
 506:lp_solve_5.5/lp_mipbb.c ****          (note consistent use of epsint for scaled integer variables) */
 507:lp_solve_5.5/lp_mipbb.c ****       if(fabs(new_bound - BB->lowbo[K]) < intmargin*SCALEDINTFIXRANGE)
 4328               		.loc 1 507 0
 4329 1da8 8C8D      		ldd r24,Y+28
 4330 1daa 9D8D      		ldd r25,Y+29
 4331 1dac FC01      		movw r30,r24
 4332 1dae 22A1      		ldd r18,Z+34
 4333 1db0 33A1      		ldd r19,Z+35
 4334 1db2 8C85      		ldd r24,Y+12
 4335 1db4 9D85      		ldd r25,Y+13
 4336 1db6 880F      		lsl r24
 4337 1db8 991F      		rol r25
 4338 1dba 880F      		lsl r24
 4339 1dbc 991F      		rol r25
 4340 1dbe 820F      		add r24,r18
 4341 1dc0 931F      		adc r25,r19
 4342 1dc2 FC01      		movw r30,r24
 4343 1dc4 8081      		ld r24,Z
 4344 1dc6 9181      		ldd r25,Z+1
 4345 1dc8 A281      		ldd r26,Z+2
 4346 1dca B381      		ldd r27,Z+3
 4347 1dcc 9C01      		movw r18,r24
 4348 1dce AD01      		movw r20,r26
 4349 1dd0 6981      		ldd r22,Y+1
 4350 1dd2 7A81      		ldd r23,Y+2
 4351 1dd4 8B81      		ldd r24,Y+3
 4352 1dd6 9C81      		ldd r25,Y+4
 4353 1dd8 0E94 0000 		call __subsf3
 4354 1ddc DC01      		movw r26,r24
 4355 1dde CB01      		movw r24,r22
 4356 1de0 6C01      		movw r12,r24
 4357 1de2 7D01      		movw r14,r26
 4358 1de4 E894      		clt
 4359 1de6 F7F8      		bld r15,7
 4360 1de8 2DEC      		ldi r18,lo8(-51)
 4361 1dea 3CEC      		ldi r19,lo8(-52)
 4362 1dec 4CEC      		ldi r20,lo8(-52)
 4363 1dee 5FE3      		ldi r21,lo8(63)
 4364 1df0 6E81      		ldd r22,Y+6
 4365 1df2 7F81      		ldd r23,Y+7
 4366 1df4 8885      		ldd r24,Y+8
 4367 1df6 9985      		ldd r25,Y+9
 4368 1df8 0E94 0000 		call __mulsf3
 4369 1dfc DC01      		movw r26,r24
 4370 1dfe CB01      		movw r24,r22
 4371 1e00 9C01      		movw r18,r24
 4372 1e02 AD01      		movw r20,r26
 4373 1e04 C701      		movw r24,r14
 4374 1e06 B601      		movw r22,r12
 4375 1e08 0E94 0000 		call __ltsf2
 4376 1e0c 8823      		tst r24
 4377 1e0e 04F4      		brge .L167
 508:lp_solve_5.5/lp_mipbb.c ****         new_bound = BB->lowbo[K];
 4378               		.loc 1 508 0
 4379 1e10 8C8D      		ldd r24,Y+28
 4380 1e12 9D8D      		ldd r25,Y+29
 4381 1e14 FC01      		movw r30,r24
 4382 1e16 22A1      		ldd r18,Z+34
 4383 1e18 33A1      		ldd r19,Z+35
 4384 1e1a 8C85      		ldd r24,Y+12
 4385 1e1c 9D85      		ldd r25,Y+13
 4386 1e1e 880F      		lsl r24
 4387 1e20 991F      		rol r25
 4388 1e22 880F      		lsl r24
 4389 1e24 991F      		rol r25
 4390 1e26 820F      		add r24,r18
 4391 1e28 931F      		adc r25,r19
 4392 1e2a FC01      		movw r30,r24
 4393 1e2c 8081      		ld r24,Z
 4394 1e2e 9181      		ldd r25,Z+1
 4395 1e30 A281      		ldd r26,Z+2
 4396 1e32 B381      		ldd r27,Z+3
 4397 1e34 8983      		std Y+1,r24
 4398 1e36 9A83      		std Y+2,r25
 4399 1e38 AB83      		std Y+3,r26
 4400 1e3a BC83      		std Y+4,r27
 4401               	.L167:
 509:lp_solve_5.5/lp_mipbb.c ****     }
 510:lp_solve_5.5/lp_mipbb.c **** 
 511:lp_solve_5.5/lp_mipbb.c ****     BB->UPbound = new_bound;
 4402               		.loc 1 511 0
 4403 1e3c 2C8D      		ldd r18,Y+28
 4404 1e3e 3D8D      		ldd r19,Y+29
 4405 1e40 8981      		ldd r24,Y+1
 4406 1e42 9A81      		ldd r25,Y+2
 4407 1e44 AB81      		ldd r26,Y+3
 4408 1e46 BC81      		ldd r27,Y+4
 4409 1e48 F901      		movw r30,r18
 4410 1e4a 84A3      		std Z+36,r24
 4411 1e4c 95A3      		std Z+37,r25
 4412 1e4e A6A3      		std Z+38,r26
 4413 1e50 B7A3      		std Z+39,r27
 4414               	.L157:
 512:lp_solve_5.5/lp_mipbb.c **** 
 513:lp_solve_5.5/lp_mipbb.c **** 
 514:lp_solve_5.5/lp_mipbb.c ****     /* Next, establish the lower bound to be applied (when isfloor == FALSE)
 515:lp_solve_5.5/lp_mipbb.c ****        --------------------------------------------------------------------- */
 516:lp_solve_5.5/lp_mipbb.c **** SetLB:
 517:lp_solve_5.5/lp_mipbb.c ****     BB->LObound = -lp->infinite;
 4415               		.loc 1 517 0
 4416 1e52 8A85      		ldd r24,Y+10
 4417 1e54 9B85      		ldd r25,Y+11
 4418 1e56 865F      		subi r24,-10
 4419 1e58 9C4F      		sbci r25,-4
 4420 1e5a FC01      		movw r30,r24
 4421 1e5c 8081      		ld r24,Z
 4422 1e5e 9181      		ldd r25,Z+1
 4423 1e60 A281      		ldd r26,Z+2
 4424 1e62 B381      		ldd r27,Z+3
 4425 1e64 B058      		subi r27,0x80
 4426 1e66 2C8D      		ldd r18,Y+28
 4427 1e68 3D8D      		ldd r19,Y+29
 4428 1e6a F901      		movw r30,r18
 4429 1e6c 80A7      		std Z+40,r24
 4430 1e6e 91A7      		std Z+41,r25
 4431 1e70 A2A7      		std Z+42,r26
 4432 1e72 B3A7      		std Z+43,r27
 518:lp_solve_5.5/lp_mipbb.c **** 
 519:lp_solve_5.5/lp_mipbb.c ****     /* Handle SC-variables for the [0-LoBound> range */
 520:lp_solve_5.5/lp_mipbb.c ****     if((SC_bound > 0) && (fabs(BB->lastsolution) < SC_bound)) {
 4433               		.loc 1 520 0
 4434 1e74 20E0      		ldi r18,0
 4435 1e76 30E0      		ldi r19,0
 4436 1e78 A901      		movw r20,r18
 4437 1e7a 688D      		ldd r22,Y+24
 4438 1e7c 798D      		ldd r23,Y+25
 4439 1e7e 8A8D      		ldd r24,Y+26
 4440 1e80 9B8D      		ldd r25,Y+27
 4441 1e82 0E94 0000 		call __gtsf2
 4442 1e86 1816      		cp __zero_reg__,r24
 4443 1e88 04F0      		brlt .+2
 4444 1e8a 00C0      		rjmp .L169
 4445               		.loc 1 520 0 is_stmt 0 discriminator 1
 4446 1e8c 8C8D      		ldd r24,Y+28
 4447 1e8e 9D8D      		ldd r25,Y+29
 4448 1e90 FC01      		movw r30,r24
 4449 1e92 808D      		ldd r24,Z+24
 4450 1e94 918D      		ldd r25,Z+25
 4451 1e96 A28D      		ldd r26,Z+26
 4452 1e98 B38D      		ldd r27,Z+27
 4453 1e9a BF77      		andi r27,0x7f
 4454 1e9c 288D      		ldd r18,Y+24
 4455 1e9e 398D      		ldd r19,Y+25
 4456 1ea0 4A8D      		ldd r20,Y+26
 4457 1ea2 5B8D      		ldd r21,Y+27
 4458 1ea4 BC01      		movw r22,r24
 4459 1ea6 CD01      		movw r24,r26
 4460 1ea8 0E94 0000 		call __ltsf2
 4461 1eac 8823      		tst r24
 4462 1eae 04F4      		brge .L169
 521:lp_solve_5.5/lp_mipbb.c ****       if(is_int(lp, k))
 4463               		.loc 1 521 0 is_stmt 1
 4464 1eb0 2E85      		ldd r18,Y+14
 4465 1eb2 3F85      		ldd r19,Y+15
 4466 1eb4 8A85      		ldd r24,Y+10
 4467 1eb6 9B85      		ldd r25,Y+11
 4468 1eb8 B901      		movw r22,r18
 4469 1eba 0E94 0000 		call is_int
 4470 1ebe 8823      		tst r24
 4471 1ec0 01F0      		breq .L172
 522:lp_solve_5.5/lp_mipbb.c ****         new_bound = scaled_ceil(lp, K, SC_bound, 1);
 4472               		.loc 1 522 0
 4473 1ec2 888D      		ldd r24,Y+24
 4474 1ec4 998D      		ldd r25,Y+25
 4475 1ec6 AA8D      		ldd r26,Y+26
 4476 1ec8 BB8D      		ldd r27,Y+27
 4477 1eca 6C85      		ldd r22,Y+12
 4478 1ecc 7D85      		ldd r23,Y+13
 4479 1ece EA85      		ldd r30,Y+10
 4480 1ed0 FB85      		ldd r31,Y+11
 4481 1ed2 E12C      		mov r14,__zero_reg__
 4482 1ed4 F12C      		mov r15,__zero_reg__
 4483 1ed6 00E8      		ldi r16,lo8(-128)
 4484 1ed8 1FE3      		ldi r17,lo8(63)
 4485 1eda 9C01      		movw r18,r24
 4486 1edc AD01      		movw r20,r26
 4487 1ede CF01      		movw r24,r30
 4488 1ee0 0E94 0000 		call scaled_ceil
 4489 1ee4 DC01      		movw r26,r24
 4490 1ee6 CB01      		movw r24,r22
 4491 1ee8 8983      		std Y+1,r24
 4492 1eea 9A83      		std Y+2,r25
 4493 1eec AB83      		std Y+3,r26
 4494 1eee BC83      		std Y+4,r27
 521:lp_solve_5.5/lp_mipbb.c ****       if(is_int(lp, k))
 4495               		.loc 1 521 0
 4496 1ef0 00C0      		rjmp .L174
 4497               	.L172:
 523:lp_solve_5.5/lp_mipbb.c ****       else
 524:lp_solve_5.5/lp_mipbb.c ****         new_bound = BB->sc_bound;
 4498               		.loc 1 524 0
 4499 1ef2 8C8D      		ldd r24,Y+28
 4500 1ef4 9D8D      		ldd r25,Y+29
 4501 1ef6 FC01      		movw r30,r24
 4502 1ef8 848D      		ldd r24,Z+28
 4503 1efa 958D      		ldd r25,Z+29
 4504 1efc A68D      		ldd r26,Z+30
 4505 1efe B78D      		ldd r27,Z+31
 4506 1f00 8983      		std Y+1,r24
 4507 1f02 9A83      		std Y+2,r25
 4508 1f04 AB83      		std Y+3,r26
 4509 1f06 BC83      		std Y+4,r27
 521:lp_solve_5.5/lp_mipbb.c ****         new_bound = scaled_ceil(lp, K, SC_bound, 1);
 4510               		.loc 1 521 0
 4511 1f08 00C0      		rjmp .L174
 4512               	.L169:
 525:lp_solve_5.5/lp_mipbb.c ****     }
 526:lp_solve_5.5/lp_mipbb.c ****     /* Handle pure integers (non-SOS, non-SC, but Ok for GUB!) */
 527:lp_solve_5.5/lp_mipbb.c ****     else if((BB->vartype == BB_INT)) {
 4513               		.loc 1 527 0
 4514 1f0a 8C8D      		ldd r24,Y+28
 4515 1f0c 9D8D      		ldd r25,Y+29
 4516 1f0e FC01      		movw r30,r24
 4517 1f10 8085      		ldd r24,Z+8
 4518 1f12 9185      		ldd r25,Z+9
 4519 1f14 0197      		sbiw r24,1
 4520 1f16 01F0      		breq .+2
 4521 1f18 00C0      		rjmp .L175
 528:lp_solve_5.5/lp_mipbb.c ****       if(((ceil(BB->lastsolution) == BB->lastsolution)) ||    /* Skip branch 0 if the current solut
 4522               		.loc 1 528 0
 4523 1f1a 8C8D      		ldd r24,Y+28
 4524 1f1c 9D8D      		ldd r25,Y+29
 4525 1f1e FC01      		movw r30,r24
 4526 1f20 808D      		ldd r24,Z+24
 4527 1f22 918D      		ldd r25,Z+25
 4528 1f24 A28D      		ldd r26,Z+26
 4529 1f26 B38D      		ldd r27,Z+27
 4530 1f28 BC01      		movw r22,r24
 4531 1f2a CD01      		movw r24,r26
 4532 1f2c 0E94 0000 		call ceil
 4533 1f30 7B01      		movw r14,r22
 4534 1f32 8C01      		movw r16,r24
 4535 1f34 8C8D      		ldd r24,Y+28
 4536 1f36 9D8D      		ldd r25,Y+29
 4537 1f38 FC01      		movw r30,r24
 4538 1f3a 808D      		ldd r24,Z+24
 4539 1f3c 918D      		ldd r25,Z+25
 4540 1f3e A28D      		ldd r26,Z+26
 4541 1f40 B38D      		ldd r27,Z+27
 4542 1f42 9C01      		movw r18,r24
 4543 1f44 AD01      		movw r20,r26
 4544 1f46 C801      		movw r24,r16
 4545 1f48 B701      		movw r22,r14
 4546 1f4a 0E94 0000 		call __eqsf2
 4547 1f4e 8823      		tst r24
 4548 1f50 01F4      		brne .+2
 4549 1f52 00C0      		rjmp .L176
 529:lp_solve_5.5/lp_mipbb.c ****          (ceil(BB->lastsolution) >   /* Skip cases where the upper bound becomes violated */
 4550               		.loc 1 529 0 discriminator 1
 4551 1f54 8C8D      		ldd r24,Y+28
 4552 1f56 9D8D      		ldd r25,Y+29
 4553 1f58 FC01      		movw r30,r24
 4554 1f5a 808D      		ldd r24,Z+24
 4555 1f5c 918D      		ldd r25,Z+25
 4556 1f5e A28D      		ldd r26,Z+26
 4557 1f60 B38D      		ldd r27,Z+27
 4558 1f62 BC01      		movw r22,r24
 4559 1f64 CD01      		movw r24,r26
 4560 1f66 0E94 0000 		call ceil
 4561 1f6a 6B01      		movw r12,r22
 4562 1f6c 7C01      		movw r14,r24
 530:lp_solve_5.5/lp_mipbb.c ****           unscaled_value(lp, ult_upbo, K)+intmargin) ||
 4563               		.loc 1 530 0 discriminator 1
 4564 1f6e 2C85      		ldd r18,Y+12
 4565 1f70 3D85      		ldd r19,Y+13
 4566 1f72 8889      		ldd r24,Y+16
 4567 1f74 9989      		ldd r25,Y+17
 4568 1f76 AA89      		ldd r26,Y+18
 4569 1f78 BB89      		ldd r27,Y+19
 4570 1f7a EA85      		ldd r30,Y+10
 4571 1f7c FB85      		ldd r31,Y+11
 4572 1f7e AC01      		movw r20,r24
 4573 1f80 BD01      		movw r22,r26
 4574 1f82 CF01      		movw r24,r30
 4575 1f84 0E94 0000 		call unscaled_value
 4576 1f88 DC01      		movw r26,r24
 4577 1f8a CB01      		movw r24,r22
 4578 1f8c 2E81      		ldd r18,Y+6
 4579 1f8e 3F81      		ldd r19,Y+7
 4580 1f90 4885      		ldd r20,Y+8
 4581 1f92 5985      		ldd r21,Y+9
 4582 1f94 BC01      		movw r22,r24
 4583 1f96 CD01      		movw r24,r26
 4584 1f98 0E94 0000 		call __addsf3
 4585 1f9c DC01      		movw r26,r24
 4586 1f9e CB01      		movw r24,r22
 528:lp_solve_5.5/lp_mipbb.c ****       if(((ceil(BB->lastsolution) == BB->lastsolution)) ||    /* Skip branch 0 if the current solut
 4587               		.loc 1 528 0 discriminator 1
 4588 1fa0 9C01      		movw r18,r24
 4589 1fa2 AD01      		movw r20,r26
 4590 1fa4 C701      		movw r24,r14
 4591 1fa6 B601      		movw r22,r12
 4592 1fa8 0E94 0000 		call __gtsf2
 4593 1fac 1816      		cp __zero_reg__,r24
 4594 1fae 04F0      		brlt .L176
 531:lp_solve_5.5/lp_mipbb.c ****           (BB->isSOS && (BB->lastsolution == 0))) {           /* Don't branch 0 since this is handl
 4595               		.loc 1 531 0
 4596 1fb0 8C8D      		ldd r24,Y+28
 4597 1fb2 9D8D      		ldd r25,Y+29
 4598 1fb4 FC01      		movw r30,r24
 4599 1fb6 82A9      		ldd r24,Z+50
 530:lp_solve_5.5/lp_mipbb.c ****           unscaled_value(lp, ult_upbo, K)+intmargin) ||
 4600               		.loc 1 530 0
 4601 1fb8 8823      		tst r24
 4602 1fba 01F0      		breq .L177
 4603               		.loc 1 531 0
 4604 1fbc 8C8D      		ldd r24,Y+28
 4605 1fbe 9D8D      		ldd r25,Y+29
 4606 1fc0 FC01      		movw r30,r24
 4607 1fc2 808D      		ldd r24,Z+24
 4608 1fc4 918D      		ldd r25,Z+25
 4609 1fc6 A28D      		ldd r26,Z+26
 4610 1fc8 B38D      		ldd r27,Z+27
 4611 1fca 20E0      		ldi r18,0
 4612 1fcc 30E0      		ldi r19,0
 4613 1fce A901      		movw r20,r18
 4614 1fd0 BC01      		movw r22,r24
 4615 1fd2 CD01      		movw r24,r26
 4616 1fd4 0E94 0000 		call __eqsf2
 4617 1fd8 8823      		tst r24
 4618 1fda 01F4      		brne .L177
 4619               	.L176:
 532:lp_solve_5.5/lp_mipbb.c ****         BB->nodesleft--;
 4620               		.loc 1 532 0
 4621 1fdc 8C8D      		ldd r24,Y+28
 4622 1fde 9D8D      		ldd r25,Y+29
 4623 1fe0 FC01      		movw r30,r24
 4624 1fe2 8685      		ldd r24,Z+14
 4625 1fe4 9785      		ldd r25,Z+15
 4626 1fe6 9C01      		movw r18,r24
 4627 1fe8 2150      		subi r18,1
 4628 1fea 3109      		sbc r19,__zero_reg__
 4629 1fec 8C8D      		ldd r24,Y+28
 4630 1fee 9D8D      		ldd r25,Y+29
 4631 1ff0 FC01      		movw r30,r24
 4632 1ff2 3787      		std Z+15,r19
 4633 1ff4 2687      		std Z+14,r18
 533:lp_solve_5.5/lp_mipbb.c ****         goto Finish;
 4634               		.loc 1 533 0
 4635 1ff6 00C0      		rjmp .L179
 4636               	.L177:
 534:lp_solve_5.5/lp_mipbb.c ****       }
 535:lp_solve_5.5/lp_mipbb.c ****       new_bound = scaled_ceil(lp, K, BB->lastsolution, 1);
 4637               		.loc 1 535 0
 4638 1ff8 8C8D      		ldd r24,Y+28
 4639 1ffa 9D8D      		ldd r25,Y+29
 4640 1ffc FC01      		movw r30,r24
 4641 1ffe 808D      		ldd r24,Z+24
 4642 2000 918D      		ldd r25,Z+25
 4643 2002 A28D      		ldd r26,Z+26
 4644 2004 B38D      		ldd r27,Z+27
 4645 2006 6C85      		ldd r22,Y+12
 4646 2008 7D85      		ldd r23,Y+13
 4647 200a EA85      		ldd r30,Y+10
 4648 200c FB85      		ldd r31,Y+11
 4649 200e E12C      		mov r14,__zero_reg__
 4650 2010 F12C      		mov r15,__zero_reg__
 4651 2012 00E8      		ldi r16,lo8(-128)
 4652 2014 1FE3      		ldi r17,lo8(63)
 4653 2016 9C01      		movw r18,r24
 4654 2018 AD01      		movw r20,r26
 4655 201a CF01      		movw r24,r30
 4656 201c 0E94 0000 		call scaled_ceil
 4657 2020 DC01      		movw r26,r24
 4658 2022 CB01      		movw r24,r22
 4659 2024 8983      		std Y+1,r24
 4660 2026 9A83      		std Y+2,r25
 4661 2028 AB83      		std Y+3,r26
 4662 202a BC83      		std Y+4,r27
 4663 202c 00C0      		rjmp .L174
 4664               	.L175:
 536:lp_solve_5.5/lp_mipbb.c ****     }
 537:lp_solve_5.5/lp_mipbb.c ****     else if(BB->isSOS) {             /* Handle all SOS variants */
 4665               		.loc 1 537 0
 4666 202e 8C8D      		ldd r24,Y+28
 4667 2030 9D8D      		ldd r25,Y+29
 4668 2032 FC01      		movw r30,r24
 4669 2034 82A9      		ldd r24,Z+50
 4670 2036 8823      		tst r24
 4671 2038 01F4      		brne .+2
 4672 203a 00C0      		rjmp .L180
 538:lp_solve_5.5/lp_mipbb.c ****       if(SOS_is_member_of_type(lp->SOS, k, SOS3))
 4673               		.loc 1 538 0
 4674 203c 8A85      		ldd r24,Y+10
 4675 203e 9B85      		ldd r25,Y+11
 4676 2040 8256      		subi r24,98
 4677 2042 9D4F      		sbci r25,-3
 4678 2044 FC01      		movw r30,r24
 4679 2046 8081      		ld r24,Z
 4680 2048 9181      		ldd r25,Z+1
 4681 204a 2E85      		ldd r18,Y+14
 4682 204c 3F85      		ldd r19,Y+15
 4683 204e 4FEF      		ldi r20,lo8(-1)
 4684 2050 5FEF      		ldi r21,lo8(-1)
 4685 2052 B901      		movw r22,r18
 4686 2054 0E94 0000 		call SOS_is_member_of_type
 4687 2058 8823      		tst r24
 4688 205a 01F0      		breq .L181
 539:lp_solve_5.5/lp_mipbb.c ****         new_bound = scaled_floor(lp, K, 1, 1);
 4689               		.loc 1 539 0
 4690 205c 6C85      		ldd r22,Y+12
 4691 205e 7D85      		ldd r23,Y+13
 4692 2060 8A85      		ldd r24,Y+10
 4693 2062 9B85      		ldd r25,Y+11
 4694 2064 E12C      		mov r14,__zero_reg__
 4695 2066 F12C      		mov r15,__zero_reg__
 4696 2068 00E8      		ldi r16,lo8(-128)
 4697 206a 1FE3      		ldi r17,lo8(63)
 4698 206c 20E0      		ldi r18,0
 4699 206e 30E0      		ldi r19,0
 4700 2070 40E8      		ldi r20,lo8(-128)
 4701 2072 5FE3      		ldi r21,lo8(63)
 4702 2074 0E94 0000 		call scaled_floor
 4703 2078 DC01      		movw r26,r24
 4704 207a CB01      		movw r24,r22
 4705 207c 8983      		std Y+1,r24
 4706 207e 9A83      		std Y+2,r25
 4707 2080 AB83      		std Y+3,r26
 4708 2082 BC83      		std Y+4,r27
 4709 2084 00C0      		rjmp .L174
 4710               	.L181:
 540:lp_solve_5.5/lp_mipbb.c ****       else {
 541:lp_solve_5.5/lp_mipbb.c ****         new_bound = ult_lowbo;
 4711               		.loc 1 541 0
 4712 2086 8C89      		ldd r24,Y+20
 4713 2088 9D89      		ldd r25,Y+21
 4714 208a AE89      		ldd r26,Y+22
 4715 208c BF89      		ldd r27,Y+23
 4716 208e 8983      		std Y+1,r24
 4717 2090 9A83      		std Y+2,r25
 4718 2092 AB83      		std Y+3,r26
 4719 2094 BC83      		std Y+4,r27
 542:lp_solve_5.5/lp_mipbb.c ****         if(is_int(lp, k))
 4720               		.loc 1 542 0
 4721 2096 2E85      		ldd r18,Y+14
 4722 2098 3F85      		ldd r19,Y+15
 4723 209a 8A85      		ldd r24,Y+10
 4724 209c 9B85      		ldd r25,Y+11
 4725 209e B901      		movw r22,r18
 4726 20a0 0E94 0000 		call is_int
 4727 20a4 8823      		tst r24
 4728 20a6 01F0      		breq .L183
 543:lp_solve_5.5/lp_mipbb.c ****           new_bound = scaled_floor(lp, K, unscaled_value(lp, new_bound, K), 1);
 4729               		.loc 1 543 0
 4730 20a8 2C85      		ldd r18,Y+12
 4731 20aa 3D85      		ldd r19,Y+13
 4732 20ac 8981      		ldd r24,Y+1
 4733 20ae 9A81      		ldd r25,Y+2
 4734 20b0 AB81      		ldd r26,Y+3
 4735 20b2 BC81      		ldd r27,Y+4
 4736 20b4 EA85      		ldd r30,Y+10
 4737 20b6 FB85      		ldd r31,Y+11
 4738 20b8 AC01      		movw r20,r24
 4739 20ba BD01      		movw r22,r26
 4740 20bc CF01      		movw r24,r30
 4741 20be 0E94 0000 		call unscaled_value
 4742 20c2 9B01      		movw r18,r22
 4743 20c4 AC01      		movw r20,r24
 4744 20c6 6C85      		ldd r22,Y+12
 4745 20c8 7D85      		ldd r23,Y+13
 4746 20ca 8A85      		ldd r24,Y+10
 4747 20cc 9B85      		ldd r25,Y+11
 4748 20ce E12C      		mov r14,__zero_reg__
 4749 20d0 F12C      		mov r15,__zero_reg__
 4750 20d2 00E8      		ldi r16,lo8(-128)
 4751 20d4 1FE3      		ldi r17,lo8(63)
 4752 20d6 0E94 0000 		call scaled_floor
 4753 20da DC01      		movw r26,r24
 4754 20dc CB01      		movw r24,r22
 4755 20de 8983      		std Y+1,r24
 4756 20e0 9A83      		std Y+2,r25
 4757 20e2 AB83      		std Y+3,r26
 4758 20e4 BC83      		std Y+4,r27
 4759               	.L183:
 544:lp_solve_5.5/lp_mipbb.c ****         /* If we have a high-order SOS (SOS3+) and this variable is "intermediate"
 545:lp_solve_5.5/lp_mipbb.c ****           between members previously lower-bounded at a non-zero level, then we should
 546:lp_solve_5.5/lp_mipbb.c ****           set this and similar neighbouring variables at non-zero lowbo-values (remember
 547:lp_solve_5.5/lp_mipbb.c ****           that SOS3+ members are all either integers or semi-continuous). Flag this
 548:lp_solve_5.5/lp_mipbb.c ****           situation and prune tree, since we cannot lower-bound. */
 549:lp_solve_5.5/lp_mipbb.c ****         if((lp->SOS->maxorder > 2) && (BB->lastsolution == 0) &&
 4760               		.loc 1 549 0
 4761 20e6 8A85      		ldd r24,Y+10
 4762 20e8 9B85      		ldd r25,Y+11
 4763 20ea 8256      		subi r24,98
 4764 20ec 9D4F      		sbci r25,-3
 4765 20ee FC01      		movw r30,r24
 4766 20f0 8081      		ld r24,Z
 4767 20f2 9181      		ldd r25,Z+1
 4768 20f4 FC01      		movw r30,r24
 4769 20f6 8085      		ldd r24,Z+8
 4770 20f8 9185      		ldd r25,Z+9
 4771 20fa 0397      		sbiw r24,3
 4772 20fc 04F0      		brlt .L174
 4773               		.loc 1 549 0 is_stmt 0 discriminator 1
 4774 20fe 8C8D      		ldd r24,Y+28
 4775 2100 9D8D      		ldd r25,Y+29
 4776 2102 FC01      		movw r30,r24
 4777 2104 808D      		ldd r24,Z+24
 4778 2106 918D      		ldd r25,Z+25
 4779 2108 A28D      		ldd r26,Z+26
 4780 210a B38D      		ldd r27,Z+27
 4781 210c 20E0      		ldi r18,0
 4782 210e 30E0      		ldi r19,0
 4783 2110 A901      		movw r20,r18
 4784 2112 BC01      		movw r22,r24
 4785 2114 CD01      		movw r24,r26
 4786 2116 0E94 0000 		call __eqsf2
 4787 211a 8823      		tst r24
 4788 211c 01F4      		brne .L174
 550:lp_solve_5.5/lp_mipbb.c ****            SOS_is_member_of_type(lp->SOS, k, SOSn)) {
 4789               		.loc 1 550 0 is_stmt 1 discriminator 2
 4790 211e 8A85      		ldd r24,Y+10
 4791 2120 9B85      		ldd r25,Y+11
 4792 2122 8256      		subi r24,98
 4793 2124 9D4F      		sbci r25,-3
 4794 2126 FC01      		movw r30,r24
 4795 2128 8081      		ld r24,Z
 4796 212a 9181      		ldd r25,Z+1
 4797 212c 2E85      		ldd r18,Y+14
 4798 212e 3F85      		ldd r19,Y+15
 4799 2130 4FEF      		ldi r20,lo8(-1)
 4800 2132 5FEF      		ldi r21,lo8(-1)
 4801 2134 B901      		movw r22,r18
 4802 2136 0E94 0000 		call SOS_is_member_of_type
 549:lp_solve_5.5/lp_mipbb.c ****            SOS_is_member_of_type(lp->SOS, k, SOSn)) {
 4803               		.loc 1 549 0 discriminator 2
 4804 213a 8823      		tst r24
 4805 213c 01F0      		breq .L174
 551:lp_solve_5.5/lp_mipbb.c ****           BB->isSOS = AUTOMATIC;
 4806               		.loc 1 551 0
 4807 213e 8C8D      		ldd r24,Y+28
 4808 2140 9D8D      		ldd r25,Y+29
 4809 2142 22E0      		ldi r18,lo8(2)
 4810 2144 FC01      		movw r30,r24
 4811 2146 22AB      		std Z+50,r18
 4812 2148 00C0      		rjmp .L174
 4813               	.L180:
 552:lp_solve_5.5/lp_mipbb.c ****         }
 553:lp_solve_5.5/lp_mipbb.c ****       }
 554:lp_solve_5.5/lp_mipbb.c ****     }
 555:lp_solve_5.5/lp_mipbb.c ****     else                              /* Handle all other variable incarnations */
 556:lp_solve_5.5/lp_mipbb.c ****       new_bound = BB->sc_bound;
 4814               		.loc 1 556 0
 4815 214a 8C8D      		ldd r24,Y+28
 4816 214c 9D8D      		ldd r25,Y+29
 4817 214e FC01      		movw r30,r24
 4818 2150 848D      		ldd r24,Z+28
 4819 2152 958D      		ldd r25,Z+29
 4820 2154 A68D      		ldd r26,Z+30
 4821 2156 B78D      		ldd r27,Z+31
 4822 2158 8983      		std Y+1,r24
 4823 215a 9A83      		std Y+2,r25
 4824 215c AB83      		std Y+3,r26
 4825 215e BC83      		std Y+4,r27
 4826               	.L174:
 557:lp_solve_5.5/lp_mipbb.c **** 
 558:lp_solve_5.5/lp_mipbb.c ****     /* Check if the new bound might conflict and possibly make adjustments */
 559:lp_solve_5.5/lp_mipbb.c ****     if(new_bound > BB->upbo[K])
 4827               		.loc 1 559 0
 4828 2160 8C8D      		ldd r24,Y+28
 4829 2162 9D8D      		ldd r25,Y+29
 4830 2164 FC01      		movw r30,r24
 4831 2166 20A1      		ldd r18,Z+32
 4832 2168 31A1      		ldd r19,Z+33
 4833 216a 8C85      		ldd r24,Y+12
 4834 216c 9D85      		ldd r25,Y+13
 4835 216e 880F      		lsl r24
 4836 2170 991F      		rol r25
 4837 2172 880F      		lsl r24
 4838 2174 991F      		rol r25
 4839 2176 820F      		add r24,r18
 4840 2178 931F      		adc r25,r19
 4841 217a FC01      		movw r30,r24
 4842 217c 8081      		ld r24,Z
 4843 217e 9181      		ldd r25,Z+1
 4844 2180 A281      		ldd r26,Z+2
 4845 2182 B381      		ldd r27,Z+3
 4846 2184 2981      		ldd r18,Y+1
 4847 2186 3A81      		ldd r19,Y+2
 4848 2188 4B81      		ldd r20,Y+3
 4849 218a 5C81      		ldd r21,Y+4
 4850 218c BC01      		movw r22,r24
 4851 218e CD01      		movw r24,r26
 4852 2190 0E94 0000 		call __ltsf2
 4853 2194 8823      		tst r24
 4854 2196 04F0      		brlt .+2
 4855 2198 00C0      		rjmp .L185
 560:lp_solve_5.5/lp_mipbb.c ****       new_bound = BB->upbo[K] + my_avoidtiny(new_bound-BB->upbo[K], intmargin);
 4856               		.loc 1 560 0
 4857 219a 8C8D      		ldd r24,Y+28
 4858 219c 9D8D      		ldd r25,Y+29
 4859 219e FC01      		movw r30,r24
 4860 21a0 20A1      		ldd r18,Z+32
 4861 21a2 31A1      		ldd r19,Z+33
 4862 21a4 8C85      		ldd r24,Y+12
 4863 21a6 9D85      		ldd r25,Y+13
 4864 21a8 880F      		lsl r24
 4865 21aa 991F      		rol r25
 4866 21ac 880F      		lsl r24
 4867 21ae 991F      		rol r25
 4868 21b0 820F      		add r24,r18
 4869 21b2 931F      		adc r25,r19
 4870 21b4 FC01      		movw r30,r24
 4871 21b6 C080      		ld r12,Z
 4872 21b8 D180      		ldd r13,Z+1
 4873 21ba E280      		ldd r14,Z+2
 4874 21bc F380      		ldd r15,Z+3
 4875 21be 8C8D      		ldd r24,Y+28
 4876 21c0 9D8D      		ldd r25,Y+29
 4877 21c2 FC01      		movw r30,r24
 4878 21c4 20A1      		ldd r18,Z+32
 4879 21c6 31A1      		ldd r19,Z+33
 4880 21c8 8C85      		ldd r24,Y+12
 4881 21ca 9D85      		ldd r25,Y+13
 4882 21cc 880F      		lsl r24
 4883 21ce 991F      		rol r25
 4884 21d0 880F      		lsl r24
 4885 21d2 991F      		rol r25
 4886 21d4 820F      		add r24,r18
 4887 21d6 931F      		adc r25,r19
 4888 21d8 FC01      		movw r30,r24
 4889 21da 8081      		ld r24,Z
 4890 21dc 9181      		ldd r25,Z+1
 4891 21de A281      		ldd r26,Z+2
 4892 21e0 B381      		ldd r27,Z+3
 4893 21e2 9C01      		movw r18,r24
 4894 21e4 AD01      		movw r20,r26
 4895 21e6 6981      		ldd r22,Y+1
 4896 21e8 7A81      		ldd r23,Y+2
 4897 21ea 8B81      		ldd r24,Y+3
 4898 21ec 9C81      		ldd r25,Y+4
 4899 21ee 0E94 0000 		call __subsf3
 4900 21f2 DC01      		movw r26,r24
 4901 21f4 CB01      		movw r24,r22
 4902 21f6 BF77      		andi r27,0x7f
 4903 21f8 2E81      		ldd r18,Y+6
 4904 21fa 3F81      		ldd r19,Y+7
 4905 21fc 4885      		ldd r20,Y+8
 4906 21fe 5985      		ldd r21,Y+9
 4907 2200 BC01      		movw r22,r24
 4908 2202 CD01      		movw r24,r26
 4909 2204 0E94 0000 		call __ltsf2
 4910 2208 8823      		tst r24
 4911 220a 04F4      		brge .L237
 4912               		.loc 1 560 0 is_stmt 0 discriminator 1
 4913 220c 80E0      		ldi r24,0
 4914 220e 90E0      		ldi r25,0
 4915 2210 DC01      		movw r26,r24
 4916 2212 00C0      		rjmp .L189
 4917               	.L237:
 4918               		.loc 1 560 0 discriminator 2
 4919 2214 8C8D      		ldd r24,Y+28
 4920 2216 9D8D      		ldd r25,Y+29
 4921 2218 FC01      		movw r30,r24
 4922 221a 20A1      		ldd r18,Z+32
 4923 221c 31A1      		ldd r19,Z+33
 4924 221e 8C85      		ldd r24,Y+12
 4925 2220 9D85      		ldd r25,Y+13
 4926 2222 880F      		lsl r24
 4927 2224 991F      		rol r25
 4928 2226 880F      		lsl r24
 4929 2228 991F      		rol r25
 4930 222a 820F      		add r24,r18
 4931 222c 931F      		adc r25,r19
 4932 222e FC01      		movw r30,r24
 4933 2230 8081      		ld r24,Z
 4934 2232 9181      		ldd r25,Z+1
 4935 2234 A281      		ldd r26,Z+2
 4936 2236 B381      		ldd r27,Z+3
 4937 2238 9C01      		movw r18,r24
 4938 223a AD01      		movw r20,r26
 4939 223c 6981      		ldd r22,Y+1
 4940 223e 7A81      		ldd r23,Y+2
 4941 2240 8B81      		ldd r24,Y+3
 4942 2242 9C81      		ldd r25,Y+4
 4943 2244 0E94 0000 		call __subsf3
 4944 2248 DC01      		movw r26,r24
 4945 224a CB01      		movw r24,r22
 4946               	.L189:
 4947               		.loc 1 560 0 discriminator 4
 4948 224c 9C01      		movw r18,r24
 4949 224e AD01      		movw r20,r26
 4950 2250 C701      		movw r24,r14
 4951 2252 B601      		movw r22,r12
 4952 2254 0E94 0000 		call __addsf3
 4953 2258 DC01      		movw r26,r24
 4954 225a CB01      		movw r24,r22
 4955 225c 8983      		std Y+1,r24
 4956 225e 9A83      		std Y+2,r25
 4957 2260 AB83      		std Y+3,r26
 4958 2262 BC83      		std Y+4,r27
 4959               	.L185:
 561:lp_solve_5.5/lp_mipbb.c ****     if(new_bound > BB->upbo[K]) {
 4960               		.loc 1 561 0 is_stmt 1
 4961 2264 8C8D      		ldd r24,Y+28
 4962 2266 9D8D      		ldd r25,Y+29
 4963 2268 FC01      		movw r30,r24
 4964 226a 20A1      		ldd r18,Z+32
 4965 226c 31A1      		ldd r19,Z+33
 4966 226e 8C85      		ldd r24,Y+12
 4967 2270 9D85      		ldd r25,Y+13
 4968 2272 880F      		lsl r24
 4969 2274 991F      		rol r25
 4970 2276 880F      		lsl r24
 4971 2278 991F      		rol r25
 4972 227a 820F      		add r24,r18
 4973 227c 931F      		adc r25,r19
 4974 227e FC01      		movw r30,r24
 4975 2280 8081      		ld r24,Z
 4976 2282 9181      		ldd r25,Z+1
 4977 2284 A281      		ldd r26,Z+2
 4978 2286 B381      		ldd r27,Z+3
 4979 2288 2981      		ldd r18,Y+1
 4980 228a 3A81      		ldd r19,Y+2
 4981 228c 4B81      		ldd r20,Y+3
 4982 228e 5C81      		ldd r21,Y+4
 4983 2290 BC01      		movw r22,r24
 4984 2292 CD01      		movw r24,r26
 4985 2294 0E94 0000 		call __ltsf2
 4986 2298 8823      		tst r24
 4987 229a 04F4      		brge .L238
 562:lp_solve_5.5/lp_mipbb.c **** #ifdef Paranoia
 563:lp_solve_5.5/lp_mipbb.c ****       debug_print(lp,
 564:lp_solve_5.5/lp_mipbb.c ****         "fillbranches_BB: New lower bound value %g conflicts with old upper bound %g\n",
 565:lp_solve_5.5/lp_mipbb.c ****         new_bound, BB->upbo[K]);
 566:lp_solve_5.5/lp_mipbb.c **** #endif
 567:lp_solve_5.5/lp_mipbb.c ****       BB->nodesleft--;
 4988               		.loc 1 567 0
 4989 229c 8C8D      		ldd r24,Y+28
 4990 229e 9D8D      		ldd r25,Y+29
 4991 22a0 FC01      		movw r30,r24
 4992 22a2 8685      		ldd r24,Z+14
 4993 22a4 9785      		ldd r25,Z+15
 4994 22a6 9C01      		movw r18,r24
 4995 22a8 2150      		subi r18,1
 4996 22aa 3109      		sbc r19,__zero_reg__
 4997 22ac 8C8D      		ldd r24,Y+28
 4998 22ae 9D8D      		ldd r25,Y+29
 4999 22b0 FC01      		movw r30,r24
 5000 22b2 3787      		std Z+15,r19
 5001 22b4 2687      		std Z+14,r18
 568:lp_solve_5.5/lp_mipbb.c ****       goto Finish;
 5002               		.loc 1 568 0
 5003 22b6 00C0      		rjmp .L179
 5004               	.L238:
 569:lp_solve_5.5/lp_mipbb.c ****     }
 570:lp_solve_5.5/lp_mipbb.c **** #ifdef Paranoia
 571:lp_solve_5.5/lp_mipbb.c ****     /* Do additional consistency checking */
 572:lp_solve_5.5/lp_mipbb.c ****     else if(!check_if_less(lp, BB->lowbo[K], new_bound, K)) {
 573:lp_solve_5.5/lp_mipbb.c ****       BB->nodesleft--;
 574:lp_solve_5.5/lp_mipbb.c ****       goto Finish;
 575:lp_solve_5.5/lp_mipbb.c ****     }
 576:lp_solve_5.5/lp_mipbb.c **** #endif
 577:lp_solve_5.5/lp_mipbb.c ****     /* Bound (at least near-)feasible */
 578:lp_solve_5.5/lp_mipbb.c ****     else {
 579:lp_solve_5.5/lp_mipbb.c ****       /* Makes a difference with models like QUEEN
 580:lp_solve_5.5/lp_mipbb.c ****          (note consistent use of lp->epsprimal for scaled integer variables) */
 581:lp_solve_5.5/lp_mipbb.c ****       if(fabs(BB->upbo[K]-new_bound) < intmargin*SCALEDINTFIXRANGE)
 5005               		.loc 1 581 0
 5006 22b8 8C8D      		ldd r24,Y+28
 5007 22ba 9D8D      		ldd r25,Y+29
 5008 22bc FC01      		movw r30,r24
 5009 22be 20A1      		ldd r18,Z+32
 5010 22c0 31A1      		ldd r19,Z+33
 5011 22c2 8C85      		ldd r24,Y+12
 5012 22c4 9D85      		ldd r25,Y+13
 5013 22c6 880F      		lsl r24
 5014 22c8 991F      		rol r25
 5015 22ca 880F      		lsl r24
 5016 22cc 991F      		rol r25
 5017 22ce 820F      		add r24,r18
 5018 22d0 931F      		adc r25,r19
 5019 22d2 FC01      		movw r30,r24
 5020 22d4 8081      		ld r24,Z
 5021 22d6 9181      		ldd r25,Z+1
 5022 22d8 A281      		ldd r26,Z+2
 5023 22da B381      		ldd r27,Z+3
 5024 22dc 2981      		ldd r18,Y+1
 5025 22de 3A81      		ldd r19,Y+2
 5026 22e0 4B81      		ldd r20,Y+3
 5027 22e2 5C81      		ldd r21,Y+4
 5028 22e4 BC01      		movw r22,r24
 5029 22e6 CD01      		movw r24,r26
 5030 22e8 0E94 0000 		call __subsf3
 5031 22ec DC01      		movw r26,r24
 5032 22ee CB01      		movw r24,r22
 5033 22f0 6C01      		movw r12,r24
 5034 22f2 7D01      		movw r14,r26
 5035 22f4 E894      		clt
 5036 22f6 F7F8      		bld r15,7
 5037 22f8 2DEC      		ldi r18,lo8(-51)
 5038 22fa 3CEC      		ldi r19,lo8(-52)
 5039 22fc 4CEC      		ldi r20,lo8(-52)
 5040 22fe 5FE3      		ldi r21,lo8(63)
 5041 2300 6E81      		ldd r22,Y+6
 5042 2302 7F81      		ldd r23,Y+7
 5043 2304 8885      		ldd r24,Y+8
 5044 2306 9985      		ldd r25,Y+9
 5045 2308 0E94 0000 		call __mulsf3
 5046 230c DC01      		movw r26,r24
 5047 230e CB01      		movw r24,r22
 5048 2310 9C01      		movw r18,r24
 5049 2312 AD01      		movw r20,r26
 5050 2314 C701      		movw r24,r14
 5051 2316 B601      		movw r22,r12
 5052 2318 0E94 0000 		call __ltsf2
 5053 231c 8823      		tst r24
 5054 231e 04F4      		brge .L192
 582:lp_solve_5.5/lp_mipbb.c ****         new_bound = BB->upbo[K];
 5055               		.loc 1 582 0
 5056 2320 8C8D      		ldd r24,Y+28
 5057 2322 9D8D      		ldd r25,Y+29
 5058 2324 FC01      		movw r30,r24
 5059 2326 20A1      		ldd r18,Z+32
 5060 2328 31A1      		ldd r19,Z+33
 5061 232a 8C85      		ldd r24,Y+12
 5062 232c 9D85      		ldd r25,Y+13
 5063 232e 880F      		lsl r24
 5064 2330 991F      		rol r25
 5065 2332 880F      		lsl r24
 5066 2334 991F      		rol r25
 5067 2336 820F      		add r24,r18
 5068 2338 931F      		adc r25,r19
 5069 233a FC01      		movw r30,r24
 5070 233c 8081      		ld r24,Z
 5071 233e 9181      		ldd r25,Z+1
 5072 2340 A281      		ldd r26,Z+2
 5073 2342 B381      		ldd r27,Z+3
 5074 2344 8983      		std Y+1,r24
 5075 2346 9A83      		std Y+2,r25
 5076 2348 AB83      		std Y+3,r26
 5077 234a BC83      		std Y+4,r27
 5078               	.L192:
 583:lp_solve_5.5/lp_mipbb.c ****     }
 584:lp_solve_5.5/lp_mipbb.c **** 
 585:lp_solve_5.5/lp_mipbb.c ****     BB->LObound = new_bound;
 5079               		.loc 1 585 0
 5080 234c 2C8D      		ldd r18,Y+28
 5081 234e 3D8D      		ldd r19,Y+29
 5082 2350 8981      		ldd r24,Y+1
 5083 2352 9A81      		ldd r25,Y+2
 5084 2354 AB81      		ldd r26,Y+3
 5085 2356 BC81      		ldd r27,Y+4
 5086 2358 F901      		movw r30,r18
 5087 235a 80A7      		std Z+40,r24
 5088 235c 91A7      		std Z+41,r25
 5089 235e A2A7      		std Z+42,r26
 5090 2360 B3A7      		std Z+43,r27
 5091               	.L179:
 586:lp_solve_5.5/lp_mipbb.c **** 
 587:lp_solve_5.5/lp_mipbb.c ****     /* Prepare for the first branch by making sure we are pointing correctly */
 588:lp_solve_5.5/lp_mipbb.c **** Finish:
 589:lp_solve_5.5/lp_mipbb.c ****     if(BB->nodesleft > 0) {
 5092               		.loc 1 589 0
 5093 2362 8C8D      		ldd r24,Y+28
 5094 2364 9D8D      		ldd r25,Y+29
 5095 2366 FC01      		movw r30,r24
 5096 2368 8685      		ldd r24,Z+14
 5097 236a 9785      		ldd r25,Z+15
 5098 236c 1816      		cp __zero_reg__,r24
 5099 236e 1906      		cpc __zero_reg__,r25
 5100 2370 04F0      		brlt .+2
 5101 2372 00C0      		rjmp .L194
 590:lp_solve_5.5/lp_mipbb.c **** 
 591:lp_solve_5.5/lp_mipbb.c ****       /* Make sure the change tracker levels are "clean" for the B&B */
 592:lp_solve_5.5/lp_mipbb.c ****       if(countsUndoLadder(lp->bb_upperchange) > 0) {
 5102               		.loc 1 592 0
 5103 2374 8A85      		ldd r24,Y+10
 5104 2376 9B85      		ldd r25,Y+11
 5105 2378 865B      		subi r24,-74
 5106 237a 9C4F      		sbci r25,-4
 5107 237c FC01      		movw r30,r24
 5108 237e 8081      		ld r24,Z
 5109 2380 9181      		ldd r25,Z+1
 5110 2382 0E94 0000 		call countsUndoLadder
 5111 2386 1816      		cp __zero_reg__,r24
 5112 2388 1906      		cpc __zero_reg__,r25
 5113 238a 04F4      		brge .L195
 593:lp_solve_5.5/lp_mipbb.c ****         incrementUndoLadder(lp->bb_upperchange);
 5114               		.loc 1 593 0
 5115 238c 8A85      		ldd r24,Y+10
 5116 238e 9B85      		ldd r25,Y+11
 5117 2390 865B      		subi r24,-74
 5118 2392 9C4F      		sbci r25,-4
 5119 2394 FC01      		movw r30,r24
 5120 2396 8081      		ld r24,Z
 5121 2398 9181      		ldd r25,Z+1
 5122 239a 0E94 0000 		call incrementUndoLadder
 594:lp_solve_5.5/lp_mipbb.c ****         BB->UBtrack++;
 5123               		.loc 1 594 0
 5124 239e 8C8D      		ldd r24,Y+28
 5125 23a0 9D8D      		ldd r25,Y+29
 5126 23a2 FC01      		movw r30,r24
 5127 23a4 84A5      		ldd r24,Z+44
 5128 23a6 95A5      		ldd r25,Z+45
 5129 23a8 9C01      		movw r18,r24
 5130 23aa 2F5F      		subi r18,-1
 5131 23ac 3F4F      		sbci r19,-1
 5132 23ae 8C8D      		ldd r24,Y+28
 5133 23b0 9D8D      		ldd r25,Y+29
 5134 23b2 FC01      		movw r30,r24
 5135 23b4 35A7      		std Z+45,r19
 5136 23b6 24A7      		std Z+44,r18
 5137               	.L195:
 595:lp_solve_5.5/lp_mipbb.c ****       }
 596:lp_solve_5.5/lp_mipbb.c ****       if(countsUndoLadder(lp->bb_lowerchange) > 0) {
 5138               		.loc 1 596 0
 5139 23b8 8A85      		ldd r24,Y+10
 5140 23ba 9B85      		ldd r25,Y+11
 5141 23bc 845B      		subi r24,-76
 5142 23be 9C4F      		sbci r25,-4
 5143 23c0 FC01      		movw r30,r24
 5144 23c2 8081      		ld r24,Z
 5145 23c4 9181      		ldd r25,Z+1
 5146 23c6 0E94 0000 		call countsUndoLadder
 5147 23ca 1816      		cp __zero_reg__,r24
 5148 23cc 1906      		cpc __zero_reg__,r25
 5149 23ce 04F4      		brge .L196
 597:lp_solve_5.5/lp_mipbb.c ****         incrementUndoLadder(lp->bb_lowerchange);
 5150               		.loc 1 597 0
 5151 23d0 8A85      		ldd r24,Y+10
 5152 23d2 9B85      		ldd r25,Y+11
 5153 23d4 845B      		subi r24,-76
 5154 23d6 9C4F      		sbci r25,-4
 5155 23d8 FC01      		movw r30,r24
 5156 23da 8081      		ld r24,Z
 5157 23dc 9181      		ldd r25,Z+1
 5158 23de 0E94 0000 		call incrementUndoLadder
 598:lp_solve_5.5/lp_mipbb.c ****         BB->LBtrack++;
 5159               		.loc 1 598 0
 5160 23e2 8C8D      		ldd r24,Y+28
 5161 23e4 9D8D      		ldd r25,Y+29
 5162 23e6 FC01      		movw r30,r24
 5163 23e8 86A5      		ldd r24,Z+46
 5164 23ea 97A5      		ldd r25,Z+47
 5165 23ec 9C01      		movw r18,r24
 5166 23ee 2F5F      		subi r18,-1
 5167 23f0 3F4F      		sbci r19,-1
 5168 23f2 8C8D      		ldd r24,Y+28
 5169 23f4 9D8D      		ldd r25,Y+29
 5170 23f6 FC01      		movw r30,r24
 5171 23f8 37A7      		std Z+47,r19
 5172 23fa 26A7      		std Z+46,r18
 5173               	.L196:
 599:lp_solve_5.5/lp_mipbb.c ****       }
 600:lp_solve_5.5/lp_mipbb.c **** 
 601:lp_solve_5.5/lp_mipbb.c ****       /* Do adjustments */
 602:lp_solve_5.5/lp_mipbb.c ****       if((BB->vartype != BB_SOS) && (fabs(BB->LObound-BB->UPbound) < intmargin)) {
 5174               		.loc 1 602 0
 5175 23fc 8C8D      		ldd r24,Y+28
 5176 23fe 9D8D      		ldd r25,Y+29
 5177 2400 FC01      		movw r30,r24
 5178 2402 8085      		ldd r24,Z+8
 5179 2404 9185      		ldd r25,Z+9
 5180 2406 0397      		sbiw r24,3
 5181 2408 01F4      		brne .+2
 5182 240a 00C0      		rjmp .L197
 5183               		.loc 1 602 0 is_stmt 0 discriminator 1
 5184 240c 8C8D      		ldd r24,Y+28
 5185 240e 9D8D      		ldd r25,Y+29
 5186 2410 FC01      		movw r30,r24
 5187 2412 80A5      		ldd r24,Z+40
 5188 2414 91A5      		ldd r25,Z+41
 5189 2416 A2A5      		ldd r26,Z+42
 5190 2418 B3A5      		ldd r27,Z+43
 5191 241a 2C8D      		ldd r18,Y+28
 5192 241c 3D8D      		ldd r19,Y+29
 5193 241e F901      		movw r30,r18
 5194 2420 24A1      		ldd r18,Z+36
 5195 2422 35A1      		ldd r19,Z+37
 5196 2424 46A1      		ldd r20,Z+38
 5197 2426 57A1      		ldd r21,Z+39
 5198 2428 BC01      		movw r22,r24
 5199 242a CD01      		movw r24,r26
 5200 242c 0E94 0000 		call __subsf3
 5201 2430 DC01      		movw r26,r24
 5202 2432 CB01      		movw r24,r22
 5203 2434 BF77      		andi r27,0x7f
 5204 2436 2E81      		ldd r18,Y+6
 5205 2438 3F81      		ldd r19,Y+7
 5206 243a 4885      		ldd r20,Y+8
 5207 243c 5985      		ldd r21,Y+9
 5208 243e BC01      		movw r22,r24
 5209 2440 CD01      		movw r24,r26
 5210 2442 0E94 0000 		call __ltsf2
 5211 2446 8823      		tst r24
 5212 2448 04F0      		brlt .+2
 5213 244a 00C0      		rjmp .L197
 603:lp_solve_5.5/lp_mipbb.c ****         BB->nodesleft--;
 5214               		.loc 1 603 0 is_stmt 1
 5215 244c 8C8D      		ldd r24,Y+28
 5216 244e 9D8D      		ldd r25,Y+29
 5217 2450 FC01      		movw r30,r24
 5218 2452 8685      		ldd r24,Z+14
 5219 2454 9785      		ldd r25,Z+15
 5220 2456 9C01      		movw r18,r24
 5221 2458 2150      		subi r18,1
 5222 245a 3109      		sbc r19,__zero_reg__
 5223 245c 8C8D      		ldd r24,Y+28
 5224 245e 9D8D      		ldd r25,Y+29
 5225 2460 FC01      		movw r30,r24
 5226 2462 3787      		std Z+15,r19
 5227 2464 2687      		std Z+14,r18
 604:lp_solve_5.5/lp_mipbb.c ****         if(fabs(BB->lowbo[K]-BB->LObound) < intmargin)
 5228               		.loc 1 604 0
 5229 2466 8C8D      		ldd r24,Y+28
 5230 2468 9D8D      		ldd r25,Y+29
 5231 246a FC01      		movw r30,r24
 5232 246c 22A1      		ldd r18,Z+34
 5233 246e 33A1      		ldd r19,Z+35
 5234 2470 8C85      		ldd r24,Y+12
 5235 2472 9D85      		ldd r25,Y+13
 5236 2474 880F      		lsl r24
 5237 2476 991F      		rol r25
 5238 2478 880F      		lsl r24
 5239 247a 991F      		rol r25
 5240 247c 820F      		add r24,r18
 5241 247e 931F      		adc r25,r19
 5242 2480 FC01      		movw r30,r24
 5243 2482 8081      		ld r24,Z
 5244 2484 9181      		ldd r25,Z+1
 5245 2486 A281      		ldd r26,Z+2
 5246 2488 B381      		ldd r27,Z+3
 5247 248a 2C8D      		ldd r18,Y+28
 5248 248c 3D8D      		ldd r19,Y+29
 5249 248e F901      		movw r30,r18
 5250 2490 20A5      		ldd r18,Z+40
 5251 2492 31A5      		ldd r19,Z+41
 5252 2494 42A5      		ldd r20,Z+42
 5253 2496 53A5      		ldd r21,Z+43
 5254 2498 BC01      		movw r22,r24
 5255 249a CD01      		movw r24,r26
 5256 249c 0E94 0000 		call __subsf3
 5257 24a0 DC01      		movw r26,r24
 5258 24a2 CB01      		movw r24,r22
 5259 24a4 BF77      		andi r27,0x7f
 5260 24a6 2E81      		ldd r18,Y+6
 5261 24a8 3F81      		ldd r19,Y+7
 5262 24aa 4885      		ldd r20,Y+8
 5263 24ac 5985      		ldd r21,Y+9
 5264 24ae BC01      		movw r22,r24
 5265 24b0 CD01      		movw r24,r26
 5266 24b2 0E94 0000 		call __ltsf2
 5267 24b6 8823      		tst r24
 5268 24b8 04F4      		brge .L239
 605:lp_solve_5.5/lp_mipbb.c ****           BB->isfloor = FALSE;
 5269               		.loc 1 605 0
 5270 24ba 8C8D      		ldd r24,Y+28
 5271 24bc 9D8D      		ldd r25,Y+29
 5272 24be FC01      		movw r30,r24
 5273 24c0 16AA      		std Z+54,__zero_reg__
 5274 24c2 00C0      		rjmp .L197
 5275               	.L239:
 606:lp_solve_5.5/lp_mipbb.c ****         else if(fabs(BB->upbo[K]-BB->UPbound) < intmargin)
 5276               		.loc 1 606 0
 5277 24c4 8C8D      		ldd r24,Y+28
 5278 24c6 9D8D      		ldd r25,Y+29
 5279 24c8 FC01      		movw r30,r24
 5280 24ca 20A1      		ldd r18,Z+32
 5281 24cc 31A1      		ldd r19,Z+33
 5282 24ce 8C85      		ldd r24,Y+12
 5283 24d0 9D85      		ldd r25,Y+13
 5284 24d2 880F      		lsl r24
 5285 24d4 991F      		rol r25
 5286 24d6 880F      		lsl r24
 5287 24d8 991F      		rol r25
 5288 24da 820F      		add r24,r18
 5289 24dc 931F      		adc r25,r19
 5290 24de FC01      		movw r30,r24
 5291 24e0 8081      		ld r24,Z
 5292 24e2 9181      		ldd r25,Z+1
 5293 24e4 A281      		ldd r26,Z+2
 5294 24e6 B381      		ldd r27,Z+3
 5295 24e8 2C8D      		ldd r18,Y+28
 5296 24ea 3D8D      		ldd r19,Y+29
 5297 24ec F901      		movw r30,r18
 5298 24ee 24A1      		ldd r18,Z+36
 5299 24f0 35A1      		ldd r19,Z+37
 5300 24f2 46A1      		ldd r20,Z+38
 5301 24f4 57A1      		ldd r21,Z+39
 5302 24f6 BC01      		movw r22,r24
 5303 24f8 CD01      		movw r24,r26
 5304 24fa 0E94 0000 		call __subsf3
 5305 24fe DC01      		movw r26,r24
 5306 2500 CB01      		movw r24,r22
 5307 2502 BF77      		andi r27,0x7f
 5308 2504 2E81      		ldd r18,Y+6
 5309 2506 3F81      		ldd r19,Y+7
 5310 2508 4885      		ldd r20,Y+8
 5311 250a 5985      		ldd r21,Y+9
 5312 250c BC01      		movw r22,r24
 5313 250e CD01      		movw r24,r26
 5314 2510 0E94 0000 		call __ltsf2
 5315 2514 8823      		tst r24
 5316 2516 04F4      		brge .L240
 607:lp_solve_5.5/lp_mipbb.c ****           BB->isfloor = TRUE;
 5317               		.loc 1 607 0
 5318 2518 8C8D      		ldd r24,Y+28
 5319 251a 9D8D      		ldd r25,Y+29
 5320 251c 21E0      		ldi r18,lo8(1)
 5321 251e FC01      		movw r30,r24
 5322 2520 26AB      		std Z+54,r18
 5323 2522 00C0      		rjmp .L197
 5324               	.L240:
 608:lp_solve_5.5/lp_mipbb.c ****         else {
 609:lp_solve_5.5/lp_mipbb.c ****           BB->isfloor = TRUE;
 5325               		.loc 1 609 0
 5326 2524 8C8D      		ldd r24,Y+28
 5327 2526 9D8D      		ldd r25,Y+29
 5328 2528 21E0      		ldi r18,lo8(1)
 5329 252a FC01      		movw r30,r24
 5330 252c 26AB      		std Z+54,r18
 610:lp_solve_5.5/lp_mipbb.c ****           report(BB->lp, IMPORTANT, "fillbranches_BB: Inconsistent equal-valued bounds for %s\n",
 5331               		.loc 1 610 0
 5332 252e 8C8D      		ldd r24,Y+28
 5333 2530 9D8D      		ldd r25,Y+29
 5334 2532 FC01      		movw r30,r24
 5335 2534 8481      		ldd r24,Z+4
 5336 2536 9581      		ldd r25,Z+5
 5337 2538 2E85      		ldd r18,Y+14
 5338 253a 3F85      		ldd r19,Y+15
 5339 253c B901      		movw r22,r18
 5340 253e 0E94 0000 		call get_col_name
 5341 2542 9C01      		movw r18,r24
 5342 2544 8C8D      		ldd r24,Y+28
 5343 2546 9D8D      		ldd r25,Y+29
 5344 2548 FC01      		movw r30,r24
 5345 254a 8481      		ldd r24,Z+4
 5346 254c 9581      		ldd r25,Z+5
 5347 254e 432F      		mov r20,r19
 5348 2550 4F93      		push r20
 5349 2552 2F93      		push r18
 5350 2554 20E0      		ldi r18,lo8(.LC1)
 5351 2556 30E0      		ldi r19,hi8(.LC1)
 5352 2558 232F      		mov r18,r19
 5353 255a 2F93      		push r18
 5354 255c 20E0      		ldi r18,lo8(.LC1)
 5355 255e 30E0      		ldi r19,hi8(.LC1)
 5356 2560 2F93      		push r18
 5357 2562 1F92      		push __zero_reg__
 5358 2564 23E0      		ldi r18,lo8(3)
 5359 2566 2F93      		push r18
 5360 2568 292F      		mov r18,r25
 5361 256a 2F93      		push r18
 5362 256c 8F93      		push r24
 5363 256e 0E94 0000 		call report
 5364 2572 4DB7      		in r20,__SP_L__
 5365 2574 5EB7      		in r21,__SP_H__
 5366 2576 485F      		subi r20,-8
 5367 2578 5F4F      		sbci r21,-1
 5368 257a 0FB6      		in __tmp_reg__,__SREG__
 5369 257c F894      		cli
 5370 257e DEBF      		out __SP_H__,r29
 5371 2580 0FBE      		out __SREG__,__tmp_reg__
 5372 2582 CDBF      		out __SP_L__,r28
 5373               	.L197:
 611:lp_solve_5.5/lp_mipbb.c ****                                     get_col_name(BB->lp, k));
 612:lp_solve_5.5/lp_mipbb.c ****         }
 613:lp_solve_5.5/lp_mipbb.c ****       }
 614:lp_solve_5.5/lp_mipbb.c ****       if((BB->nodesleft == 1) &&
 5374               		.loc 1 614 0
 5375 2584 8C8D      		ldd r24,Y+28
 5376 2586 9D8D      		ldd r25,Y+29
 5377 2588 FC01      		movw r30,r24
 5378 258a 8685      		ldd r24,Z+14
 5379 258c 9785      		ldd r25,Z+15
 5380 258e 0197      		sbiw r24,1
 5381 2590 01F0      		breq .+2
 5382 2592 00C0      		rjmp .L203
 615:lp_solve_5.5/lp_mipbb.c ****          ((BB->isfloor && (BB->UPbound >= lp->infinite)) ||
 5383               		.loc 1 615 0 discriminator 1
 5384 2594 8C8D      		ldd r24,Y+28
 5385 2596 9D8D      		ldd r25,Y+29
 5386 2598 FC01      		movw r30,r24
 5387 259a 86A9      		ldd r24,Z+54
 614:lp_solve_5.5/lp_mipbb.c ****          ((BB->isfloor && (BB->UPbound >= lp->infinite)) ||
 5388               		.loc 1 614 0 discriminator 1
 5389 259c 8823      		tst r24
 5390 259e 01F0      		breq .L204
 5391               		.loc 1 615 0
 5392 25a0 8C8D      		ldd r24,Y+28
 5393 25a2 9D8D      		ldd r25,Y+29
 5394 25a4 FC01      		movw r30,r24
 5395 25a6 84A1      		ldd r24,Z+36
 5396 25a8 95A1      		ldd r25,Z+37
 5397 25aa A6A1      		ldd r26,Z+38
 5398 25ac B7A1      		ldd r27,Z+39
 5399 25ae 2A85      		ldd r18,Y+10
 5400 25b0 3B85      		ldd r19,Y+11
 5401 25b2 265F      		subi r18,-10
 5402 25b4 3C4F      		sbci r19,-4
 5403 25b6 F901      		movw r30,r18
 5404 25b8 2081      		ld r18,Z
 5405 25ba 3181      		ldd r19,Z+1
 5406 25bc 4281      		ldd r20,Z+2
 5407 25be 5381      		ldd r21,Z+3
 5408 25c0 BC01      		movw r22,r24
 5409 25c2 CD01      		movw r24,r26
 5410 25c4 0E94 0000 		call __gesf2
 5411 25c8 8823      		tst r24
 5412 25ca 04F4      		brge .L205
 5413               	.L204:
 616:lp_solve_5.5/lp_mipbb.c ****           (!BB->isfloor && (BB->LObound <= -lp->infinite))))
 5414               		.loc 1 616 0 discriminator 1
 5415 25cc 8C8D      		ldd r24,Y+28
 5416 25ce 9D8D      		ldd r25,Y+29
 5417 25d0 FC01      		movw r30,r24
 5418 25d2 86A9      		ldd r24,Z+54
 615:lp_solve_5.5/lp_mipbb.c ****          ((BB->isfloor && (BB->UPbound >= lp->infinite)) ||
 5419               		.loc 1 615 0 discriminator 1
 5420 25d4 8823      		tst r24
 5421 25d6 01F4      		brne .L203
 5422               		.loc 1 616 0
 5423 25d8 8C8D      		ldd r24,Y+28
 5424 25da 9D8D      		ldd r25,Y+29
 5425 25dc FC01      		movw r30,r24
 5426 25de E0A4      		ldd r14,Z+40
 5427 25e0 F1A4      		ldd r15,Z+41
 5428 25e2 02A5      		ldd r16,Z+42
 5429 25e4 13A5      		ldd r17,Z+43
 5430 25e6 8A85      		ldd r24,Y+10
 5431 25e8 9B85      		ldd r25,Y+11
 5432 25ea 865F      		subi r24,-10
 5433 25ec 9C4F      		sbci r25,-4
 5434 25ee FC01      		movw r30,r24
 5435 25f0 8081      		ld r24,Z
 5436 25f2 9181      		ldd r25,Z+1
 5437 25f4 A281      		ldd r26,Z+2
 5438 25f6 B381      		ldd r27,Z+3
 5439 25f8 B058      		subi r27,0x80
 5440 25fa 9C01      		movw r18,r24
 5441 25fc AD01      		movw r20,r26
 5442 25fe C801      		movw r24,r16
 5443 2600 B701      		movw r22,r14
 5444 2602 0E94 0000 		call __lesf2
 5445 2606 1816      		cp __zero_reg__,r24
 5446 2608 04F0      		brlt .L203
 5447               	.L205:
 617:lp_solve_5.5/lp_mipbb.c ****         BB->isfloor = !BB->isfloor;
 5448               		.loc 1 617 0
 5449 260a 8C8D      		ldd r24,Y+28
 5450 260c 9D8D      		ldd r25,Y+29
 5451 260e FC01      		movw r30,r24
 5452 2610 96A9      		ldd r25,Z+54
 5453 2612 81E0      		ldi r24,lo8(1)
 5454 2614 9923      		tst r25
 5455 2616 01F0      		breq .L207
 5456 2618 80E0      		ldi r24,0
 5457               	.L207:
 5458 261a 282F      		mov r18,r24
 5459 261c 8C8D      		ldd r24,Y+28
 5460 261e 9D8D      		ldd r25,Y+29
 5461 2620 FC01      		movw r30,r24
 5462 2622 26AB      		std Z+54,r18
 5463               	.L203:
 618:lp_solve_5.5/lp_mipbb.c ****       /* Header initialization */
 619:lp_solve_5.5/lp_mipbb.c ****       BB->isfloor = !BB->isfloor;
 5464               		.loc 1 619 0
 5465 2624 8C8D      		ldd r24,Y+28
 5466 2626 9D8D      		ldd r25,Y+29
 5467 2628 FC01      		movw r30,r24
 5468 262a 96A9      		ldd r25,Z+54
 5469 262c 81E0      		ldi r24,lo8(1)
 5470 262e 9923      		tst r25
 5471 2630 01F0      		breq .L208
 5472 2632 80E0      		ldi r24,0
 5473               	.L208:
 5474 2634 282F      		mov r18,r24
 5475 2636 8C8D      		ldd r24,Y+28
 5476 2638 9D8D      		ldd r25,Y+29
 5477 263a FC01      		movw r30,r24
 5478 263c 26AB      		std Z+54,r18
 620:lp_solve_5.5/lp_mipbb.c ****       while(!OKstatus && /* !userabort(lp, -1) */ lp->spx_status != TIMEOUT && !lp->bb_break && (BB
 5479               		.loc 1 620 0
 5480 263e 00C0      		rjmp .L209
 5481               	.L210:
 621:lp_solve_5.5/lp_mipbb.c ****         OKstatus = nextbranch_BB( BB );
 5482               		.loc 1 621 0
 5483 2640 8C8D      		ldd r24,Y+28
 5484 2642 9D8D      		ldd r25,Y+29
 5485 2644 0E94 0000 		call nextbranch_BB
 5486 2648 8D83      		std Y+5,r24
 5487               	.L209:
 620:lp_solve_5.5/lp_mipbb.c ****       while(!OKstatus && /* !userabort(lp, -1) */ lp->spx_status != TIMEOUT && !lp->bb_break && (BB
 5488               		.loc 1 620 0
 5489 264a 8D81      		ldd r24,Y+5
 5490 264c 8823      		tst r24
 5491 264e 01F4      		brne .L194
 620:lp_solve_5.5/lp_mipbb.c ****       while(!OKstatus && /* !userabort(lp, -1) */ lp->spx_status != TIMEOUT && !lp->bb_break && (BB
 5492               		.loc 1 620 0 is_stmt 0 discriminator 1
 5493 2650 8A85      		ldd r24,Y+10
 5494 2652 9B85      		ldd r25,Y+11
 5495 2654 8A5F      		subi r24,-6
 5496 2656 9D4F      		sbci r25,-3
 5497 2658 FC01      		movw r30,r24
 5498 265a 8081      		ld r24,Z
 5499 265c 9181      		ldd r25,Z+1
 5500 265e 0797      		sbiw r24,7
 5501 2660 01F0      		breq .L194
 620:lp_solve_5.5/lp_mipbb.c ****       while(!OKstatus && /* !userabort(lp, -1) */ lp->spx_status != TIMEOUT && !lp->bb_break && (BB
 5502               		.loc 1 620 0 discriminator 2
 5503 2662 8A85      		ldd r24,Y+10
 5504 2664 9B85      		ldd r25,Y+11
 5505 2666 8B50      		subi r24,11
 5506 2668 9D4F      		sbci r25,-3
 5507 266a FC01      		movw r30,r24
 5508 266c 8081      		ld r24,Z
 5509 266e 8823      		tst r24
 5510 2670 01F4      		brne .L194
 620:lp_solve_5.5/lp_mipbb.c ****       while(!OKstatus && /* !userabort(lp, -1) */ lp->spx_status != TIMEOUT && !lp->bb_break && (BB
 5511               		.loc 1 620 0 discriminator 3
 5512 2672 8C8D      		ldd r24,Y+28
 5513 2674 9D8D      		ldd r25,Y+29
 5514 2676 FC01      		movw r30,r24
 5515 2678 8685      		ldd r24,Z+14
 5516 267a 9785      		ldd r25,Z+15
 5517 267c 1816      		cp __zero_reg__,r24
 5518 267e 1906      		cpc __zero_reg__,r25
 5519 2680 04F0      		brlt .L210
 5520               	.L194:
 622:lp_solve_5.5/lp_mipbb.c ****     }
 623:lp_solve_5.5/lp_mipbb.c **** 
 624:lp_solve_5.5/lp_mipbb.c ****     /* Set an SC variable active, if necessary */
 625:lp_solve_5.5/lp_mipbb.c ****     if(BB->sc_canset)
 5521               		.loc 1 625 0 is_stmt 1
 5522 2682 8C8D      		ldd r24,Y+28
 5523 2684 9D8D      		ldd r25,Y+29
 5524 2686 FC01      		movw r30,r24
 5525 2688 81A9      		ldd r24,Z+49
 5526 268a 8823      		tst r24
 5527 268c 01F0      		breq .L212
 626:lp_solve_5.5/lp_mipbb.c ****       lp->sc_lobound[k] *= -1;
 5528               		.loc 1 626 0
 5529 268e 8A85      		ldd r24,Y+10
 5530 2690 9B85      		ldd r25,Y+11
 5531 2692 8E56      		subi r24,110
 5532 2694 9D4F      		sbci r25,-3
 5533 2696 FC01      		movw r30,r24
 5534 2698 2081      		ld r18,Z
 5535 269a 3181      		ldd r19,Z+1
 5536 269c 8E85      		ldd r24,Y+14
 5537 269e 9F85      		ldd r25,Y+15
 5538 26a0 880F      		lsl r24
 5539 26a2 991F      		rol r25
 5540 26a4 880F      		lsl r24
 5541 26a6 991F      		rol r25
 5542 26a8 280F      		add r18,r24
 5543 26aa 391F      		adc r19,r25
 5544 26ac 8A85      		ldd r24,Y+10
 5545 26ae 9B85      		ldd r25,Y+11
 5546 26b0 8E56      		subi r24,110
 5547 26b2 9D4F      		sbci r25,-3
 5548 26b4 FC01      		movw r30,r24
 5549 26b6 4081      		ld r20,Z
 5550 26b8 5181      		ldd r21,Z+1
 5551 26ba 8E85      		ldd r24,Y+14
 5552 26bc 9F85      		ldd r25,Y+15
 5553 26be 880F      		lsl r24
 5554 26c0 991F      		rol r25
 5555 26c2 880F      		lsl r24
 5556 26c4 991F      		rol r25
 5557 26c6 840F      		add r24,r20
 5558 26c8 951F      		adc r25,r21
 5559 26ca FC01      		movw r30,r24
 5560 26cc 8081      		ld r24,Z
 5561 26ce 9181      		ldd r25,Z+1
 5562 26d0 A281      		ldd r26,Z+2
 5563 26d2 B381      		ldd r27,Z+3
 5564 26d4 B058      		subi r27,0x80
 5565 26d6 F901      		movw r30,r18
 5566 26d8 8083      		st Z,r24
 5567 26da 9183      		std Z+1,r25
 5568 26dc A283      		std Z+2,r26
 5569 26de B383      		std Z+3,r27
 5570 26e0 00C0      		rjmp .L212
 5571               	.L139:
 627:lp_solve_5.5/lp_mipbb.c **** 
 628:lp_solve_5.5/lp_mipbb.c ****   }
 629:lp_solve_5.5/lp_mipbb.c ****   else {
 630:lp_solve_5.5/lp_mipbb.c ****     BB->nodesleft--;
 5572               		.loc 1 630 0
 5573 26e2 8C8D      		ldd r24,Y+28
 5574 26e4 9D8D      		ldd r25,Y+29
 5575 26e6 FC01      		movw r30,r24
 5576 26e8 8685      		ldd r24,Z+14
 5577 26ea 9785      		ldd r25,Z+15
 5578 26ec 9C01      		movw r18,r24
 5579 26ee 2150      		subi r18,1
 5580 26f0 3109      		sbc r19,__zero_reg__
 5581 26f2 8C8D      		ldd r24,Y+28
 5582 26f4 9D8D      		ldd r25,Y+29
 5583 26f6 FC01      		movw r30,r24
 5584 26f8 3787      		std Z+15,r19
 5585 26fa 2687      		std Z+14,r18
 631:lp_solve_5.5/lp_mipbb.c ****     OKstatus = TRUE;
 5586               		.loc 1 631 0
 5587 26fc 81E0      		ldi r24,lo8(1)
 5588 26fe 8D83      		std Y+5,r24
 5589               	.L212:
 632:lp_solve_5.5/lp_mipbb.c ****   }
 633:lp_solve_5.5/lp_mipbb.c **** 
 634:lp_solve_5.5/lp_mipbb.c ****   return( OKstatus );
 5590               		.loc 1 634 0
 5591 2700 8D81      		ldd r24,Y+5
 5592               	.L138:
 5593               	/* epilogue start */
 635:lp_solve_5.5/lp_mipbb.c **** }
 5594               		.loc 1 635 0
 5595 2702 6D96      		adiw r28,29
 5596 2704 0FB6      		in __tmp_reg__,__SREG__
 5597 2706 F894      		cli
 5598 2708 DEBF      		out __SP_H__,r29
 5599 270a 0FBE      		out __SREG__,__tmp_reg__
 5600 270c CDBF      		out __SP_L__,r28
 5601 270e DF91      		pop r29
 5602 2710 CF91      		pop r28
 5603 2712 1F91      		pop r17
 5604 2714 0F91      		pop r16
 5605 2716 FF90      		pop r15
 5606 2718 EF90      		pop r14
 5607 271a DF90      		pop r13
 5608 271c CF90      		pop r12
 5609 271e 0895      		ret
 5610               		.cfi_endproc
 5611               	.LFE14:
 5613               	.global	nextbranch_BB
 5615               	nextbranch_BB:
 5616               	.LFB15:
 636:lp_solve_5.5/lp_mipbb.c **** 
 637:lp_solve_5.5/lp_mipbb.c **** STATIC MYBOOL nextbranch_BB(BBrec *BB)
 638:lp_solve_5.5/lp_mipbb.c **** {
 5617               		.loc 1 638 0
 5618               		.cfi_startproc
 5619 2720 8F92      		push r8
 5620               	.LCFI46:
 5621               		.cfi_def_cfa_offset 3
 5622               		.cfi_offset 8, -2
 5623 2722 9F92      		push r9
 5624               	.LCFI47:
 5625               		.cfi_def_cfa_offset 4
 5626               		.cfi_offset 9, -3
 5627 2724 AF92      		push r10
 5628               	.LCFI48:
 5629               		.cfi_def_cfa_offset 5
 5630               		.cfi_offset 10, -4
 5631 2726 BF92      		push r11
 5632               	.LCFI49:
 5633               		.cfi_def_cfa_offset 6
 5634               		.cfi_offset 11, -5
 5635 2728 CF92      		push r12
 5636               	.LCFI50:
 5637               		.cfi_def_cfa_offset 7
 5638               		.cfi_offset 12, -6
 5639 272a DF92      		push r13
 5640               	.LCFI51:
 5641               		.cfi_def_cfa_offset 8
 5642               		.cfi_offset 13, -7
 5643 272c EF92      		push r14
 5644               	.LCFI52:
 5645               		.cfi_def_cfa_offset 9
 5646               		.cfi_offset 14, -8
 5647 272e FF92      		push r15
 5648               	.LCFI53:
 5649               		.cfi_def_cfa_offset 10
 5650               		.cfi_offset 15, -9
 5651 2730 0F93      		push r16
 5652               	.LCFI54:
 5653               		.cfi_def_cfa_offset 11
 5654               		.cfi_offset 16, -10
 5655 2732 1F93      		push r17
 5656               	.LCFI55:
 5657               		.cfi_def_cfa_offset 12
 5658               		.cfi_offset 17, -11
 5659 2734 CF93      		push r28
 5660               	.LCFI56:
 5661               		.cfi_def_cfa_offset 13
 5662               		.cfi_offset 28, -12
 5663 2736 DF93      		push r29
 5664               	.LCFI57:
 5665               		.cfi_def_cfa_offset 14
 5666               		.cfi_offset 29, -13
 5667 2738 CDB7      		in r28,__SP_L__
 5668 273a DEB7      		in r29,__SP_H__
 5669               	.LCFI58:
 5670               		.cfi_def_cfa_register 28
 5671 273c 2997      		sbiw r28,9
 5672               	.LCFI59:
 5673               		.cfi_def_cfa_offset 23
 5674 273e 0FB6      		in __tmp_reg__,__SREG__
 5675 2740 F894      		cli
 5676 2742 DEBF      		out __SP_H__,r29
 5677 2744 0FBE      		out __SREG__,__tmp_reg__
 5678 2746 CDBF      		out __SP_L__,r28
 5679               	/* prologue: function */
 5680               	/* frame size = 9 */
 5681               	/* stack size = 21 */
 5682               	.L__stack_usage = 21
 5683 2748 9F83      		std Y+7,r25
 5684 274a 8E83      		std Y+6,r24
 639:lp_solve_5.5/lp_mipbb.c ****   int    k;
 640:lp_solve_5.5/lp_mipbb.c ****   lprec  *lp = BB->lp;
 5685               		.loc 1 640 0
 5686 274c 8E81      		ldd r24,Y+6
 5687 274e 9F81      		ldd r25,Y+7
 5688 2750 DC01      		movw r26,r24
 5689 2752 1496      		adiw r26,4
 5690 2754 8D91      		ld r24,X+
 5691 2756 9C91      		ld r25,X
 5692 2758 1597      		sbiw r26,4+1
 5693 275a 9B83      		std Y+3,r25
 5694 275c 8A83      		std Y+2,r24
 641:lp_solve_5.5/lp_mipbb.c ****   MYBOOL OKstatus = FALSE;
 5695               		.loc 1 641 0
 5696 275e 1982      		std Y+1,__zero_reg__
 642:lp_solve_5.5/lp_mipbb.c **** 
 643:lp_solve_5.5/lp_mipbb.c ****   /* Undo the most recently imposed B&B bounds using the data
 644:lp_solve_5.5/lp_mipbb.c ****      in the last level of change tracker; this code handles changes
 645:lp_solve_5.5/lp_mipbb.c ****      to both upper and lower bounds */
 646:lp_solve_5.5/lp_mipbb.c ****   if(BB->nodessolved > 0) {
 5697               		.loc 1 646 0
 5698 2760 8E81      		ldd r24,Y+6
 5699 2762 9F81      		ldd r25,Y+7
 5700 2764 FC01      		movw r30,r24
 5701 2766 8089      		ldd r24,Z+16
 5702 2768 9189      		ldd r25,Z+17
 5703 276a 1816      		cp __zero_reg__,r24
 5704 276c 1906      		cpc __zero_reg__,r25
 5705 276e 04F4      		brge .L242
 647:lp_solve_5.5/lp_mipbb.c ****       restoreUndoLadder(lp->bb_upperchange, BB->upbo);
 5706               		.loc 1 647 0
 5707 2770 8E81      		ldd r24,Y+6
 5708 2772 9F81      		ldd r25,Y+7
 5709 2774 DC01      		movw r26,r24
 5710 2776 9096      		adiw r26,32
 5711 2778 2D91      		ld r18,X+
 5712 277a 3C91      		ld r19,X
 5713 277c 9197      		sbiw r26,32+1
 5714 277e 8A81      		ldd r24,Y+2
 5715 2780 9B81      		ldd r25,Y+3
 5716 2782 865B      		subi r24,-74
 5717 2784 9C4F      		sbci r25,-4
 5718 2786 FC01      		movw r30,r24
 5719 2788 8081      		ld r24,Z
 5720 278a 9181      		ldd r25,Z+1
 5721 278c B901      		movw r22,r18
 5722 278e 0E94 0000 		call restoreUndoLadder
 648:lp_solve_5.5/lp_mipbb.c ****       restoreUndoLadder(lp->bb_lowerchange, BB->lowbo);
 5723               		.loc 1 648 0
 5724 2792 8E81      		ldd r24,Y+6
 5725 2794 9F81      		ldd r25,Y+7
 5726 2796 DC01      		movw r26,r24
 5727 2798 9296      		adiw r26,34
 5728 279a 2D91      		ld r18,X+
 5729 279c 3C91      		ld r19,X
 5730 279e 9397      		sbiw r26,34+1
 5731 27a0 8A81      		ldd r24,Y+2
 5732 27a2 9B81      		ldd r25,Y+3
 5733 27a4 845B      		subi r24,-76
 5734 27a6 9C4F      		sbci r25,-4
 5735 27a8 FC01      		movw r30,r24
 5736 27aa 8081      		ld r24,Z
 5737 27ac 9181      		ldd r25,Z+1
 5738 27ae B901      		movw r22,r18
 5739 27b0 0E94 0000 		call restoreUndoLadder
 5740               	.L242:
 649:lp_solve_5.5/lp_mipbb.c ****   }
 650:lp_solve_5.5/lp_mipbb.c **** 
 651:lp_solve_5.5/lp_mipbb.c ****   if(lp->bb_break || userabort(lp, MSG_MILPSTRATEGY)) {
 5741               		.loc 1 651 0
 5742 27b4 8A81      		ldd r24,Y+2
