   1               		.file	"lp_presolve.c"
   2               	__SP_H__ = 0x3e
   3               	__SP_L__ = 0x3d
   4               	__SREG__ = 0x3f
   5               	__RAMPZ__ = 0x3b
   6               	__tmp_reg__ = 0
   7               	__zero_reg__ = 1
   8               		.text
   9               	.Ltext0:
  10               		.cfi_sections	.debug_frame
  12               	presolve_rowlength:
  13               	.LFB7:
  14               		.file 1 "lp_solve_5.5/lp_presolve.h"
   1:lp_solve_5.5/lp_presolve.h **** #ifndef HEADER_lp_presolve
   2:lp_solve_5.5/lp_presolve.h **** #define HEADER_lp_presolve
   3:lp_solve_5.5/lp_presolve.h **** 
   4:lp_solve_5.5/lp_presolve.h **** #include "lp_types.h"
   5:lp_solve_5.5/lp_presolve.h **** #include "lp_matrix.h"
   6:lp_solve_5.5/lp_presolve.h **** 
   7:lp_solve_5.5/lp_presolve.h **** /* -------------------------------------------------------------------------------------------- */
   8:lp_solve_5.5/lp_presolve.h **** /* Defines for various presolve options                                                         */
   9:lp_solve_5.5/lp_presolve.h **** /* -------------------------------------------------------------------------------------------- */
  10:lp_solve_5.5/lp_presolve.h **** 
  11:lp_solve_5.5/lp_presolve.h **** #define MAX_PSMERGELOOPS                2                 /* Max loops to merge compatible constrai
  12:lp_solve_5.5/lp_presolve.h **** #define MAX_PSLINDEPLOOPS               1   /* Max loops to detect linearly dependendent constraint
  13:lp_solve_5.5/lp_presolve.h **** #define MAX_PSBOUNDTIGHTENLOOPS         5     /* Maximumn number of loops to allow bound tightening
  14:lp_solve_5.5/lp_presolve.h **** #define MIN_SOS1LENGTH                  4   /* Minimum length of a constraint for conversion to SOS
  15:lp_solve_5.5/lp_presolve.h **** #if 1
  16:lp_solve_5.5/lp_presolve.h ****   #define PRESOLVE_EPSVALUE (0.1*lp->epsprimal)
  17:lp_solve_5.5/lp_presolve.h **** #else
  18:lp_solve_5.5/lp_presolve.h ****   #define PRESOLVE_EPSVALUE  lp->epsvalue
  19:lp_solve_5.5/lp_presolve.h **** #endif
  20:lp_solve_5.5/lp_presolve.h **** #define PRESOLVE_EPSPIVOT         1.0e-3        /* Looses robustness at values smaller than ~1.0e-3
  21:lp_solve_5.5/lp_presolve.h **** #define PRESOLVE_BOUNDSLACK           10                     /* Extra error recovery/tolerance marg
  22:lp_solve_5.5/lp_presolve.h **** 
  23:lp_solve_5.5/lp_presolve.h **** #define DoPresolveRounding              /* Use absolute and directed rounding (disable at own risk)
  24:lp_solve_5.5/lp_presolve.h **** /*#define DoPresolveRelativeTest*/
  25:lp_solve_5.5/lp_presolve.h **** 
  26:lp_solve_5.5/lp_presolve.h **** /*#define PresolveForceUpdateMax*/
  27:lp_solve_5.5/lp_presolve.h **** 
  28:lp_solve_5.5/lp_presolve.h **** /*#define DualFeasibilityLogicEQ2*/              /* Add low-order feasibility/accuracy logic to eli
  29:lp_solve_5.5/lp_presolve.h **** #define DivisorIntegralityLogicEQ2                                   /* Always prefer integer divis
  30:lp_solve_5.5/lp_presolve.h **** #define FindImpliedEqualities                               /* Detect equalities (default is enable
  31:lp_solve_5.5/lp_presolve.h **** #define Eq2Reldiff
  32:lp_solve_5.5/lp_presolve.h **** 
  33:lp_solve_5.5/lp_presolve.h **** /*#define SavePresolveEliminated */        /* Enable to activate storage of eliminated matrix data 
  34:lp_solve_5.5/lp_presolve.h **** /*#define UseDualPresolve */                    /* Enable to use full dual information for presolve
  35:lp_solve_5.5/lp_presolve.h **** 
  36:lp_solve_5.5/lp_presolve.h **** 
  37:lp_solve_5.5/lp_presolve.h **** typedef struct _psrec
  38:lp_solve_5.5/lp_presolve.h **** {
  39:lp_solve_5.5/lp_presolve.h ****   LLrec *varmap;
  40:lp_solve_5.5/lp_presolve.h ****   int  **next;
  41:lp_solve_5.5/lp_presolve.h ****   int  *empty;
  42:lp_solve_5.5/lp_presolve.h ****   int  *plucount;
  43:lp_solve_5.5/lp_presolve.h ****   int  *negcount;
  44:lp_solve_5.5/lp_presolve.h ****   int  *pluneg;
  45:lp_solve_5.5/lp_presolve.h ****   int  *infcount;
  46:lp_solve_5.5/lp_presolve.h ****   REAL  *plulower;
  47:lp_solve_5.5/lp_presolve.h ****   REAL  *neglower;
  48:lp_solve_5.5/lp_presolve.h ****   REAL  *pluupper;
  49:lp_solve_5.5/lp_presolve.h ****   REAL  *negupper;
  50:lp_solve_5.5/lp_presolve.h ****   int  allocsize;
  51:lp_solve_5.5/lp_presolve.h **** } psrec;
  52:lp_solve_5.5/lp_presolve.h **** 
  53:lp_solve_5.5/lp_presolve.h **** typedef struct _presolverec
  54:lp_solve_5.5/lp_presolve.h **** {
  55:lp_solve_5.5/lp_presolve.h ****   psrec *rows;
  56:lp_solve_5.5/lp_presolve.h ****   psrec *cols;
  57:lp_solve_5.5/lp_presolve.h ****   LLrec *EQmap;
  58:lp_solve_5.5/lp_presolve.h ****   LLrec *LTmap;
  59:lp_solve_5.5/lp_presolve.h ****   LLrec *INTmap;
  60:lp_solve_5.5/lp_presolve.h ****   REAL  *pv_upbo;
  61:lp_solve_5.5/lp_presolve.h ****   REAL  *pv_lobo;
  62:lp_solve_5.5/lp_presolve.h ****   REAL  *dv_upbo;
  63:lp_solve_5.5/lp_presolve.h ****   REAL  *dv_lobo;
  64:lp_solve_5.5/lp_presolve.h ****   lprec *lp;
  65:lp_solve_5.5/lp_presolve.h ****   REAL  epsvalue;
  66:lp_solve_5.5/lp_presolve.h ****   REAL  epspivot;
  67:lp_solve_5.5/lp_presolve.h ****   int   innerloops;
  68:lp_solve_5.5/lp_presolve.h ****   int   middleloops;
  69:lp_solve_5.5/lp_presolve.h ****   int   outerloops;
  70:lp_solve_5.5/lp_presolve.h ****   int   nzdeleted;
  71:lp_solve_5.5/lp_presolve.h ****   MYBOOL forceupdate;
  72:lp_solve_5.5/lp_presolve.h **** } presolverec;
  73:lp_solve_5.5/lp_presolve.h **** 
  74:lp_solve_5.5/lp_presolve.h **** #ifdef __cplusplus
  75:lp_solve_5.5/lp_presolve.h **** extern "C" {
  76:lp_solve_5.5/lp_presolve.h **** #endif
  77:lp_solve_5.5/lp_presolve.h **** 
  78:lp_solve_5.5/lp_presolve.h **** /* Put function headers here */
  79:lp_solve_5.5/lp_presolve.h **** 
  80:lp_solve_5.5/lp_presolve.h **** STATIC MYBOOL presolve_createUndo(lprec *lp);
  81:lp_solve_5.5/lp_presolve.h **** STATIC MYBOOL presolve_rebuildUndo(lprec *lp, MYBOOL isprimal);
  82:lp_solve_5.5/lp_presolve.h **** STATIC MYBOOL inc_presolve_space(lprec *lp, int delta, MYBOOL isrows);
  83:lp_solve_5.5/lp_presolve.h **** STATIC MYBOOL presolve_setOrig(lprec *lp, int orig_rows, int orig_cols);
  84:lp_solve_5.5/lp_presolve.h **** STATIC MYBOOL presolve_colfix(presolverec *psdata, int colnr, REAL newvalue, MYBOOL remove, int *ta
  85:lp_solve_5.5/lp_presolve.h **** STATIC MYBOOL presolve_fillUndo(lprec *lp, int orig_rows, int orig_cols, MYBOOL setOrig);
  86:lp_solve_5.5/lp_presolve.h **** STATIC MYBOOL presolve_freeUndo(lprec *lp);
  87:lp_solve_5.5/lp_presolve.h **** 
  88:lp_solve_5.5/lp_presolve.h **** STATIC MYBOOL presolve_updatesums(presolverec *psdata);
  89:lp_solve_5.5/lp_presolve.h **** 
  90:lp_solve_5.5/lp_presolve.h **** INLINE int presolve_nextrow(presolverec *psdata, int colnr, int *previtem);
  91:lp_solve_5.5/lp_presolve.h **** INLINE int presolve_nextcol(presolverec *psdata, int rownr, int *previtem);
  92:lp_solve_5.5/lp_presolve.h **** 
  93:lp_solve_5.5/lp_presolve.h **** STATIC presolverec *presolve_init(lprec *lp);
  94:lp_solve_5.5/lp_presolve.h **** STATIC void presolve_free(presolverec **psdata);
  95:lp_solve_5.5/lp_presolve.h **** STATIC int presolve_shrink(presolverec *psdata, int *nConRemove, int *nVarRemove);
  96:lp_solve_5.5/lp_presolve.h **** STATIC void presolve_rowremove(presolverec *psdata, int rownr, MYBOOL allowcoldelete);
  97:lp_solve_5.5/lp_presolve.h **** STATIC int presolve_colremove(presolverec *psdata, int colnr, MYBOOL allowrowdelete);
  98:lp_solve_5.5/lp_presolve.h **** 
  99:lp_solve_5.5/lp_presolve.h **** STATIC MYBOOL presolve_colfixdual(presolverec *psdata, int colnr, REAL *fixValue, int *status);
 100:lp_solve_5.5/lp_presolve.h **** 
 101:lp_solve_5.5/lp_presolve.h **** INLINE int presolve_rowlength(presolverec *psdata, int rownr)
 102:lp_solve_5.5/lp_presolve.h **** {
  15               		.loc 1 102 0
  16               		.cfi_startproc
  17 0000 CF93      		push r28
  18               	.LCFI0:
  19               		.cfi_def_cfa_offset 3
  20               		.cfi_offset 28, -2
  21 0002 DF93      		push r29
  22               	.LCFI1:
  23               		.cfi_def_cfa_offset 4
  24               		.cfi_offset 29, -3
  25 0004 00D0      		rcall .
  26 0006 00D0      		rcall .
  27 0008 00D0      		rcall .
  28               	.LCFI2:
  29               		.cfi_def_cfa_offset 10
  30 000a CDB7      		in r28,__SP_L__
  31 000c DEB7      		in r29,__SP_H__
  32               	.LCFI3:
  33               		.cfi_def_cfa_register 28
  34               	/* prologue: function */
  35               	/* frame size = 6 */
  36               	/* stack size = 8 */
  37               	.L__stack_usage = 8
  38 000e 9C83      		std Y+4,r25
  39 0010 8B83      		std Y+3,r24
  40 0012 7E83      		std Y+6,r23
  41 0014 6D83      		std Y+5,r22
 103:lp_solve_5.5/lp_presolve.h ****   int *items = psdata->rows->next[rownr];
  42               		.loc 1 103 0
  43 0016 8B81      		ldd r24,Y+3
  44 0018 9C81      		ldd r25,Y+4
  45 001a FC01      		movw r30,r24
  46 001c 8081      		ld r24,Z
  47 001e 9181      		ldd r25,Z+1
  48 0020 FC01      		movw r30,r24
  49 0022 2281      		ldd r18,Z+2
  50 0024 3381      		ldd r19,Z+3
  51 0026 8D81      		ldd r24,Y+5
  52 0028 9E81      		ldd r25,Y+6
  53 002a 880F      		lsl r24
  54 002c 991F      		rol r25
  55 002e 820F      		add r24,r18
  56 0030 931F      		adc r25,r19
  57 0032 FC01      		movw r30,r24
  58 0034 8081      		ld r24,Z
  59 0036 9181      		ldd r25,Z+1
  60 0038 9A83      		std Y+2,r25
  61 003a 8983      		std Y+1,r24
 104:lp_solve_5.5/lp_presolve.h **** 
 105:lp_solve_5.5/lp_presolve.h ****   if(items == NULL)
  62               		.loc 1 105 0
  63 003c 8981      		ldd r24,Y+1
  64 003e 9A81      		ldd r25,Y+2
  65 0040 892B      		or r24,r25
  66 0042 01F4      		brne .L2
 106:lp_solve_5.5/lp_presolve.h ****     return( 0 );
  67               		.loc 1 106 0
  68 0044 80E0      		ldi r24,0
  69 0046 90E0      		ldi r25,0
  70 0048 00C0      		rjmp .L3
  71               	.L2:
 107:lp_solve_5.5/lp_presolve.h ****   else
 108:lp_solve_5.5/lp_presolve.h ****     return( items[0] );
  72               		.loc 1 108 0
  73 004a 8981      		ldd r24,Y+1
  74 004c 9A81      		ldd r25,Y+2
  75 004e FC01      		movw r30,r24
  76 0050 8081      		ld r24,Z
  77 0052 9181      		ldd r25,Z+1
  78               	.L3:
  79               	/* epilogue start */
 109:lp_solve_5.5/lp_presolve.h **** }
  80               		.loc 1 109 0
  81 0054 2696      		adiw r28,6
  82 0056 0FB6      		in __tmp_reg__,__SREG__
  83 0058 F894      		cli
  84 005a DEBF      		out __SP_H__,r29
  85 005c 0FBE      		out __SREG__,__tmp_reg__
  86 005e CDBF      		out __SP_L__,r28
  87 0060 DF91      		pop r29
  88 0062 CF91      		pop r28
  89 0064 0895      		ret
  90               		.cfi_endproc
  91               	.LFE7:
  94               	presolve_collength:
  95               	.LFB8:
 110:lp_solve_5.5/lp_presolve.h **** INLINE int presolve_collength(presolverec *psdata, int colnr)
 111:lp_solve_5.5/lp_presolve.h **** {
  96               		.loc 1 111 0
  97               		.cfi_startproc
  98 0066 CF93      		push r28
  99               	.LCFI4:
 100               		.cfi_def_cfa_offset 3
 101               		.cfi_offset 28, -2
 102 0068 DF93      		push r29
 103               	.LCFI5:
 104               		.cfi_def_cfa_offset 4
 105               		.cfi_offset 29, -3
 106 006a 00D0      		rcall .
 107 006c 00D0      		rcall .
 108 006e 00D0      		rcall .
 109               	.LCFI6:
 110               		.cfi_def_cfa_offset 10
 111 0070 CDB7      		in r28,__SP_L__
 112 0072 DEB7      		in r29,__SP_H__
 113               	.LCFI7:
 114               		.cfi_def_cfa_register 28
 115               	/* prologue: function */
 116               	/* frame size = 6 */
 117               	/* stack size = 8 */
 118               	.L__stack_usage = 8
 119 0074 9C83      		std Y+4,r25
 120 0076 8B83      		std Y+3,r24
 121 0078 7E83      		std Y+6,r23
 122 007a 6D83      		std Y+5,r22
 112:lp_solve_5.5/lp_presolve.h ****   int *items = psdata->cols->next[colnr];
 123               		.loc 1 112 0
 124 007c 8B81      		ldd r24,Y+3
 125 007e 9C81      		ldd r25,Y+4
 126 0080 FC01      		movw r30,r24
 127 0082 8281      		ldd r24,Z+2
 128 0084 9381      		ldd r25,Z+3
 129 0086 FC01      		movw r30,r24
 130 0088 2281      		ldd r18,Z+2
 131 008a 3381      		ldd r19,Z+3
 132 008c 8D81      		ldd r24,Y+5
 133 008e 9E81      		ldd r25,Y+6
 134 0090 880F      		lsl r24
 135 0092 991F      		rol r25
 136 0094 820F      		add r24,r18
 137 0096 931F      		adc r25,r19
 138 0098 FC01      		movw r30,r24
 139 009a 8081      		ld r24,Z
 140 009c 9181      		ldd r25,Z+1
 141 009e 9A83      		std Y+2,r25
 142 00a0 8983      		std Y+1,r24
 113:lp_solve_5.5/lp_presolve.h ****   if(items == NULL)
 143               		.loc 1 113 0
 144 00a2 8981      		ldd r24,Y+1
 145 00a4 9A81      		ldd r25,Y+2
 146 00a6 892B      		or r24,r25
 147 00a8 01F4      		brne .L5
 114:lp_solve_5.5/lp_presolve.h ****     return( 0 );
 148               		.loc 1 114 0
 149 00aa 80E0      		ldi r24,0
 150 00ac 90E0      		ldi r25,0
 151 00ae 00C0      		rjmp .L6
 152               	.L5:
 115:lp_solve_5.5/lp_presolve.h ****   else
 116:lp_solve_5.5/lp_presolve.h ****     return( items[0] );
 153               		.loc 1 116 0
 154 00b0 8981      		ldd r24,Y+1
 155 00b2 9A81      		ldd r25,Y+2
 156 00b4 FC01      		movw r30,r24
 157 00b6 8081      		ld r24,Z
 158 00b8 9181      		ldd r25,Z+1
 159               	.L6:
 160               	/* epilogue start */
 117:lp_solve_5.5/lp_presolve.h **** }
 161               		.loc 1 117 0
 162 00ba 2696      		adiw r28,6
 163 00bc 0FB6      		in __tmp_reg__,__SREG__
 164 00be F894      		cli
 165 00c0 DEBF      		out __SP_H__,r29
 166 00c2 0FBE      		out __SREG__,__tmp_reg__
 167 00c4 CDBF      		out __SP_L__,r28
 168 00c6 DF91      		pop r29
 169 00c8 CF91      		pop r28
 170 00ca 0895      		ret
 171               		.cfi_endproc
 172               	.LFE8:
 174               		.section	.rodata
 175               	.LC0:
 176 0000 556E 6B6E 		.string	"Unknown"
 176      6F77 6E00 
 177               	.LC1:
 178 0008 494E 4645 		.string	"INFEASIBLE"
 178      4153 4942 
 178      4C45 00
 179               	.LC2:
 180 0013 554E 424F 		.string	"UNBOUNDED"
 180      554E 4445 
 180      4400 
 181               	.LC3:
 182 001d 7072 6573 		.string	"presolve_setstatus: Status set to '%s' on code line %d, file '%s'\n"
 182      6F6C 7665 
 182      5F73 6574 
 182      7374 6174 
 182      7573 3A20 
 183               		.text
 184               	.global	presolve_setstatusex
 186               	presolve_setstatusex:
 187               	.LFB9:
 188               		.file 2 "lp_solve_5.5/lp_presolve.c"
   1:lp_solve_5.5/lp_presolve.c **** 
   2:lp_solve_5.5/lp_presolve.c **** /* -------------------------------------------------------------------------
   3:lp_solve_5.5/lp_presolve.c ****    Presolve routines for lp_solve v5.0+
   4:lp_solve_5.5/lp_presolve.c ****    -------------------------------------------------------------------------
   5:lp_solve_5.5/lp_presolve.c ****     Author:        Kjell Eikland
   6:lp_solve_5.5/lp_presolve.c ****     Contact:       kjell.eikland@broadpark.no
   7:lp_solve_5.5/lp_presolve.c ****     License terms: LGPL.
   8:lp_solve_5.5/lp_presolve.c **** 
   9:lp_solve_5.5/lp_presolve.c ****     Requires:      lp_lib.h, lp_presolve, lp_crash.h, lp_scale.h, lp_report.h
  10:lp_solve_5.5/lp_presolve.c **** 
  11:lp_solve_5.5/lp_presolve.c ****     Release notes:
  12:lp_solve_5.5/lp_presolve.c ****     v1.0.0  1 January 2003      Initial crude version used with lp_solve v4.
  13:lp_solve_5.5/lp_presolve.c ****     v5.0.0  1 January 2004      Significantly expanded and repackaged
  14:lp_solve_5.5/lp_presolve.c ****                                 presolve routines for lp_solve v5 release.
  15:lp_solve_5.5/lp_presolve.c ****     v5.0.1  1 April   2004      Added reference to new crash module
  16:lp_solve_5.5/lp_presolve.c ****     v5.1.0  20 August 2004      Reworked infeasibility detection.
  17:lp_solve_5.5/lp_presolve.c ****                                 Added encapsulation of presolve undo logic.
  18:lp_solve_5.5/lp_presolve.c ****     v5.1.1  10 September 2004   Added variable bound tightening based on
  19:lp_solve_5.5/lp_presolve.c ****                                 full-constraint information, as well as
  20:lp_solve_5.5/lp_presolve.c ****                                 variable fixing by duality.
  21:lp_solve_5.5/lp_presolve.c ****     v5.2.0  1 January 2005      Fixes to bound fixing handling.
  22:lp_solve_5.5/lp_presolve.c ****                                 Added fast batch compression after presolve.
  23:lp_solve_5.5/lp_presolve.c ****                                 Restructured calls by adding presolve wrapper.
  24:lp_solve_5.5/lp_presolve.c ****                                 Major optimization of identification logic
  25:lp_solve_5.5/lp_presolve.c ****                                   along with bug fixes.
  26:lp_solve_5.5/lp_presolve.c ****                                 Enabled storage of eliminated matrix data.
  27:lp_solve_5.5/lp_presolve.c ****                                 Added function to report on constraint classes.
  28:lp_solve_5.5/lp_presolve.c ****     v5.5.0  1 June 2005         Added implied slack presolve, restructured
  29:lp_solve_5.5/lp_presolve.c ****                                 looping logic to be more modular, and made
  30:lp_solve_5.5/lp_presolve.c ****                                 active row/column selection logic faster.
  31:lp_solve_5.5/lp_presolve.c ****     v5.5.1  18 June 2005        Finished sparsity-enhancing logic and added
  32:lp_solve_5.5/lp_presolve.c ****                                 initial version of column aggregation code.
  33:lp_solve_5.5/lp_presolve.c ****    ------------------------------------------------------------------------- */
  34:lp_solve_5.5/lp_presolve.c **** 
  35:lp_solve_5.5/lp_presolve.c **** #include <string.h>
  36:lp_solve_5.5/lp_presolve.c **** #include "commonlib.h"
  37:lp_solve_5.5/lp_presolve.c **** #include "lp_lib.h"
  38:lp_solve_5.5/lp_presolve.c **** #include "lp_presolve.h"
  39:lp_solve_5.5/lp_presolve.c **** #include "lp_crash.h"
  40:lp_solve_5.5/lp_presolve.c **** #include "lp_scale.h"
  41:lp_solve_5.5/lp_presolve.c **** #include "lp_report.h"
  42:lp_solve_5.5/lp_presolve.c **** 
  43:lp_solve_5.5/lp_presolve.c **** #ifdef FORTIFY
  44:lp_solve_5.5/lp_presolve.c **** # include "lp_fortify.h"
  45:lp_solve_5.5/lp_presolve.c **** #endif
  46:lp_solve_5.5/lp_presolve.c **** 
  47:lp_solve_5.5/lp_presolve.c **** 
  48:lp_solve_5.5/lp_presolve.c **** #define presolve_setstatus(one, two)  presolve_setstatusex(one, two, __LINE__, __FILE__)
  49:lp_solve_5.5/lp_presolve.c **** STATIC int presolve_setstatusex(presolverec *psdata, int status, int lineno, char *filename)
  50:lp_solve_5.5/lp_presolve.c **** {
 189               		.loc 2 50 0
 190               		.cfi_startproc
 191 00cc CF93      		push r28
 192               	.LCFI8:
 193               		.cfi_def_cfa_offset 3
 194               		.cfi_offset 28, -2
 195 00ce DF93      		push r29
 196               	.LCFI9:
 197               		.cfi_def_cfa_offset 4
 198               		.cfi_offset 29, -3
 199 00d0 CDB7      		in r28,__SP_L__
 200 00d2 DEB7      		in r29,__SP_H__
 201               	.LCFI10:
 202               		.cfi_def_cfa_register 28
 203 00d4 2897      		sbiw r28,8
 204               	.LCFI11:
 205               		.cfi_def_cfa_offset 12
 206 00d6 0FB6      		in __tmp_reg__,__SREG__
 207 00d8 F894      		cli
 208 00da DEBF      		out __SP_H__,r29
 209 00dc 0FBE      		out __SREG__,__tmp_reg__
 210 00de CDBF      		out __SP_L__,r28
 211               	/* prologue: function */
 212               	/* frame size = 8 */
 213               	/* stack size = 10 */
 214               	.L__stack_usage = 10
 215 00e0 9A83      		std Y+2,r25
 216 00e2 8983      		std Y+1,r24
 217 00e4 7C83      		std Y+4,r23
 218 00e6 6B83      		std Y+3,r22
 219 00e8 5E83      		std Y+6,r21
 220 00ea 4D83      		std Y+5,r20
 221 00ec 3887      		std Y+8,r19
 222 00ee 2F83      		std Y+7,r18
  51:lp_solve_5.5/lp_presolve.c ****   if((status == INFEASIBLE) || (status == UNBOUNDED)) {
 223               		.loc 2 51 0
 224 00f0 8B81      		ldd r24,Y+3
 225 00f2 9C81      		ldd r25,Y+4
 226 00f4 0297      		sbiw r24,2
 227 00f6 01F0      		breq .L8
 228               		.loc 2 51 0 is_stmt 0 discriminator 1
 229 00f8 8B81      		ldd r24,Y+3
 230 00fa 9C81      		ldd r25,Y+4
 231 00fc 0397      		sbiw r24,3
 232 00fe 01F4      		brne .L9
 233               	.L8:
  52:lp_solve_5.5/lp_presolve.c ****     report(psdata->lp,
 234               		.loc 2 52 0 is_stmt 1
 235 0100 8F81      		ldd r24,Y+7
 236 0102 9885      		ldd r25,Y+8
 237 0104 892B      		or r24,r25
 238 0106 01F0      		breq .L10
 239               		.loc 2 52 0 is_stmt 0 discriminator 1
 240 0108 2F81      		ldd r18,Y+7
 241 010a 3885      		ldd r19,Y+8
 242 010c 00C0      		rjmp .L11
 243               	.L10:
 244               		.loc 2 52 0 discriminator 2
 245 010e 20E0      		ldi r18,lo8(.LC0)
 246 0110 30E0      		ldi r19,hi8(.LC0)
 247               	.L11:
 248               		.loc 2 52 0 discriminator 4
 249 0112 8B81      		ldd r24,Y+3
 250 0114 9C81      		ldd r25,Y+4
 251 0116 0297      		sbiw r24,2
 252 0118 01F4      		brne .L12
 253               		.loc 2 52 0 discriminator 5
 254 011a 80E0      		ldi r24,lo8(.LC1)
 255 011c 90E0      		ldi r25,hi8(.LC1)
 256 011e 00C0      		rjmp .L13
 257               	.L12:
 258               		.loc 2 52 0 discriminator 6
 259 0120 80E0      		ldi r24,lo8(.LC2)
 260 0122 90E0      		ldi r25,hi8(.LC2)
 261               	.L13:
 262               		.loc 2 52 0 discriminator 8
 263 0124 4981      		ldd r20,Y+1
 264 0126 5A81      		ldd r21,Y+2
 265 0128 FA01      		movw r30,r20
 266 012a 4289      		ldd r20,Z+18
 267 012c 5389      		ldd r21,Z+19
 268 012e 632F      		mov r22,r19
 269 0130 6F93      		push r22
 270 0132 2F93      		push r18
 271 0134 2E81      		ldd r18,Y+6
 272 0136 2F93      		push r18
 273 0138 2D81      		ldd r18,Y+5
 274 013a 2F93      		push r18
 275 013c 292F      		mov r18,r25
 276 013e 2F93      		push r18
 277 0140 8F93      		push r24
 278 0142 80E0      		ldi r24,lo8(.LC3)
 279 0144 90E0      		ldi r25,hi8(.LC3)
 280 0146 892F      		mov r24,r25
 281 0148 8F93      		push r24
 282 014a 80E0      		ldi r24,lo8(.LC3)
 283 014c 90E0      		ldi r25,hi8(.LC3)
 284 014e 8F93      		push r24
 285 0150 1F92      		push __zero_reg__
 286 0152 85E0      		ldi r24,lo8(5)
 287 0154 8F93      		push r24
 288 0156 852F      		mov r24,r21
 289 0158 8F93      		push r24
 290 015a 842F      		mov r24,r20
 291 015c 8F93      		push r24
 292 015e 0E94 0000 		call report
 293 0162 8DB7      		in r24,__SP_L__
 294 0164 9EB7      		in r25,__SP_H__
 295 0166 0C96      		adiw r24,12
 296 0168 0FB6      		in __tmp_reg__,__SREG__
 297 016a F894      		cli
 298 016c DEBF      		out __SP_H__,r29
 299 016e 0FBE      		out __SREG__,__tmp_reg__
 300 0170 CDBF      		out __SP_L__,r28
 301               	.L9:
  53:lp_solve_5.5/lp_presolve.c **** #ifdef Paranoia
  54:lp_solve_5.5/lp_presolve.c ****            NORMAL,
  55:lp_solve_5.5/lp_presolve.c **** #else
  56:lp_solve_5.5/lp_presolve.c ****            DETAILED,
  57:lp_solve_5.5/lp_presolve.c **** #endif
  58:lp_solve_5.5/lp_presolve.c ****            "presolve_setstatus: Status set to '%s' on code line %d, file '%s'\n",
  59:lp_solve_5.5/lp_presolve.c ****            (status == INFEASIBLE ? "INFEASIBLE" : "UNBOUNDED"), lineno, (filename == NULL ? "Unknow
  60:lp_solve_5.5/lp_presolve.c ****   }
  61:lp_solve_5.5/lp_presolve.c ****   return( status );
 302               		.loc 2 61 0 is_stmt 1
 303 0172 8B81      		ldd r24,Y+3
 304 0174 9C81      		ldd r25,Y+4
 305               	/* epilogue start */
  62:lp_solve_5.5/lp_presolve.c **** }
 306               		.loc 2 62 0
 307 0176 2896      		adiw r28,8
 308 0178 0FB6      		in __tmp_reg__,__SREG__
 309 017a F894      		cli
 310 017c DEBF      		out __SP_H__,r29
 311 017e 0FBE      		out __SREG__,__tmp_reg__
 312 0180 CDBF      		out __SP_L__,r28
 313 0182 DF91      		pop r29
 314 0184 CF91      		pop r28
 315 0186 0895      		ret
 316               		.cfi_endproc
 317               	.LFE9:
 319               	.global	presolve_statuscheck
 321               	presolve_statuscheck:
 322               	.LFB10:
  63:lp_solve_5.5/lp_presolve.c **** 
  64:lp_solve_5.5/lp_presolve.c **** STATIC MYBOOL presolve_statuscheck(presolverec *psdata, int *status)
  65:lp_solve_5.5/lp_presolve.c **** {
 323               		.loc 2 65 0
 324               		.cfi_startproc
 325 0188 CF93      		push r28
 326               	.LCFI12:
 327               		.cfi_def_cfa_offset 3
 328               		.cfi_offset 28, -2
 329 018a DF93      		push r29
 330               	.LCFI13:
 331               		.cfi_def_cfa_offset 4
 332               		.cfi_offset 29, -3
 333 018c 00D0      		rcall .
 334 018e 00D0      		rcall .
 335 0190 00D0      		rcall .
 336               	.LCFI14:
 337               		.cfi_def_cfa_offset 10
 338 0192 CDB7      		in r28,__SP_L__
 339 0194 DEB7      		in r29,__SP_H__
 340               	.LCFI15:
 341               		.cfi_def_cfa_register 28
 342               	/* prologue: function */
 343               	/* frame size = 6 */
 344               	/* stack size = 8 */
 345               	.L__stack_usage = 8
 346 0196 9C83      		std Y+4,r25
 347 0198 8B83      		std Y+3,r24
 348 019a 7E83      		std Y+6,r23
 349 019c 6D83      		std Y+5,r22
  66:lp_solve_5.5/lp_presolve.c ****   if(*status == RUNNING) {
 350               		.loc 2 66 0
 351 019e 8D81      		ldd r24,Y+5
 352 01a0 9E81      		ldd r25,Y+6
 353 01a2 FC01      		movw r30,r24
 354 01a4 8081      		ld r24,Z
 355 01a6 9181      		ldd r25,Z+1
 356 01a8 0897      		sbiw r24,8
 357 01aa 01F4      		brne .L16
 358               	.LBB2:
  67:lp_solve_5.5/lp_presolve.c ****     lprec *lp = psdata->lp;
 359               		.loc 2 67 0
 360 01ac 8B81      		ldd r24,Y+3
 361 01ae 9C81      		ldd r25,Y+4
 362 01b0 FC01      		movw r30,r24
 363 01b2 8289      		ldd r24,Z+18
 364 01b4 9389      		ldd r25,Z+19
 365 01b6 9A83      		std Y+2,r25
 366 01b8 8983      		std Y+1,r24
  68:lp_solve_5.5/lp_presolve.c ****     if(!mat_validate(lp->matA))
 367               		.loc 2 68 0
 368 01ba 8981      		ldd r24,Y+1
 369 01bc 9A81      		ldd r25,Y+2
 370 01be 8A54      		subi r24,74
 371 01c0 9D4F      		sbci r25,-3
 372 01c2 FC01      		movw r30,r24
 373 01c4 8081      		ld r24,Z
 374 01c6 9181      		ldd r25,Z+1
 375 01c8 0E94 0000 		call mat_validate
 376 01cc 8823      		tst r24
 377 01ce 01F4      		brne .L17
  69:lp_solve_5.5/lp_presolve.c ****       *status = MATRIXERROR;
 378               		.loc 2 69 0
 379 01d0 8D81      		ldd r24,Y+5
 380 01d2 9E81      		ldd r25,Y+6
 381 01d4 28E1      		ldi r18,lo8(24)
 382 01d6 30E0      		ldi r19,0
 383 01d8 FC01      		movw r30,r24
 384 01da 3183      		std Z+1,r19
 385 01dc 2083      		st Z,r18
 386 01de 00C0      		rjmp .L16
 387               	.L17:
  70:lp_solve_5.5/lp_presolve.c ****     else if(userabort(lp, -1))
 388               		.loc 2 70 0
 389 01e0 8981      		ldd r24,Y+1
 390 01e2 9A81      		ldd r25,Y+2
 391 01e4 6FEF      		ldi r22,lo8(-1)
 392 01e6 7FEF      		ldi r23,lo8(-1)
 393 01e8 0E94 0000 		call userabort
 394 01ec 8823      		tst r24
 395 01ee 01F0      		breq .L16
  71:lp_solve_5.5/lp_presolve.c ****       *status = lp->spx_status;
 396               		.loc 2 71 0
 397 01f0 8981      		ldd r24,Y+1
 398 01f2 9A81      		ldd r25,Y+2
 399 01f4 8A5F      		subi r24,-6
 400 01f6 9D4F      		sbci r25,-3
 401 01f8 FC01      		movw r30,r24
 402 01fa 2081      		ld r18,Z
 403 01fc 3181      		ldd r19,Z+1
 404 01fe 8D81      		ldd r24,Y+5
 405 0200 9E81      		ldd r25,Y+6
 406 0202 FC01      		movw r30,r24
 407 0204 3183      		std Z+1,r19
 408 0206 2083      		st Z,r18
 409               	.L16:
 410               	.LBE2:
  72:lp_solve_5.5/lp_presolve.c ****   }
  73:lp_solve_5.5/lp_presolve.c ****   return( (MYBOOL) (*status == RUNNING) );
 411               		.loc 2 73 0
 412 0208 8D81      		ldd r24,Y+5
 413 020a 9E81      		ldd r25,Y+6
 414 020c FC01      		movw r30,r24
 415 020e 8081      		ld r24,Z
 416 0210 9181      		ldd r25,Z+1
 417 0212 21E0      		ldi r18,lo8(1)
 418 0214 0897      		sbiw r24,8
 419 0216 01F0      		breq .L18
 420 0218 20E0      		ldi r18,0
 421               	.L18:
 422 021a 822F      		mov r24,r18
 423               	/* epilogue start */
  74:lp_solve_5.5/lp_presolve.c **** }
 424               		.loc 2 74 0
 425 021c 2696      		adiw r28,6
 426 021e 0FB6      		in __tmp_reg__,__SREG__
 427 0220 F894      		cli
 428 0222 DEBF      		out __SP_H__,r29
 429 0224 0FBE      		out __SREG__,__tmp_reg__
 430 0226 CDBF      		out __SP_L__,r28
 431 0228 DF91      		pop r29
 432 022a CF91      		pop r28
 433 022c 0895      		ret
 434               		.cfi_endproc
 435               	.LFE10:
 437               	.global	presolve_createUndo
 439               	presolve_createUndo:
 440               	.LFB11:
  75:lp_solve_5.5/lp_presolve.c **** 
  76:lp_solve_5.5/lp_presolve.c **** STATIC MYBOOL presolve_createUndo(lprec *lp)
  77:lp_solve_5.5/lp_presolve.c **** {
 441               		.loc 2 77 0
 442               		.cfi_startproc
 443 022e CF93      		push r28
 444               	.LCFI16:
 445               		.cfi_def_cfa_offset 3
 446               		.cfi_offset 28, -2
 447 0230 DF93      		push r29
 448               	.LCFI17:
 449               		.cfi_def_cfa_offset 4
 450               		.cfi_offset 29, -3
 451 0232 00D0      		rcall .
 452               	.LCFI18:
 453               		.cfi_def_cfa_offset 6
 454 0234 CDB7      		in r28,__SP_L__
 455 0236 DEB7      		in r29,__SP_H__
 456               	.LCFI19:
 457               		.cfi_def_cfa_register 28
 458               	/* prologue: function */
 459               	/* frame size = 2 */
 460               	/* stack size = 4 */
 461               	.L__stack_usage = 4
 462 0238 9A83      		std Y+2,r25
 463 023a 8983      		std Y+1,r24
  78:lp_solve_5.5/lp_presolve.c ****   if(lp->presolve_undo != NULL)
 464               		.loc 2 78 0
 465 023c 8981      		ldd r24,Y+1
 466 023e 9A81      		ldd r25,Y+2
 467 0240 8A59      		subi r24,-102
 468 0242 9C4F      		sbci r25,-4
 469 0244 FC01      		movw r30,r24
 470 0246 8081      		ld r24,Z
 471 0248 9181      		ldd r25,Z+1
 472 024a 892B      		or r24,r25
 473 024c 01F0      		breq .L21
  79:lp_solve_5.5/lp_presolve.c ****     presolve_freeUndo(lp);
 474               		.loc 2 79 0
 475 024e 8981      		ldd r24,Y+1
 476 0250 9A81      		ldd r25,Y+2
 477 0252 0E94 0000 		call presolve_freeUndo
 478               	.L21:
  80:lp_solve_5.5/lp_presolve.c ****   lp->presolve_undo = (presolveundorec *) calloc(1, sizeof(presolveundorec));
 479               		.loc 2 80 0
 480 0256 67E1      		ldi r22,lo8(23)
 481 0258 70E0      		ldi r23,0
 482 025a 81E0      		ldi r24,lo8(1)
 483 025c 90E0      		ldi r25,0
 484 025e 0E94 0000 		call calloc
 485 0262 9C01      		movw r18,r24
 486 0264 8981      		ldd r24,Y+1
 487 0266 9A81      		ldd r25,Y+2
 488 0268 8A59      		subi r24,-102
 489 026a 9C4F      		sbci r25,-4
 490 026c FC01      		movw r30,r24
 491 026e 3183      		std Z+1,r19
 492 0270 2083      		st Z,r18
  81:lp_solve_5.5/lp_presolve.c ****   lp->presolve_undo->lp = lp;
 493               		.loc 2 81 0
 494 0272 8981      		ldd r24,Y+1
 495 0274 9A81      		ldd r25,Y+2
 496 0276 8A59      		subi r24,-102
 497 0278 9C4F      		sbci r25,-4
 498 027a FC01      		movw r30,r24
 499 027c 8081      		ld r24,Z
 500 027e 9181      		ldd r25,Z+1
 501 0280 2981      		ldd r18,Y+1
 502 0282 3A81      		ldd r19,Y+2
 503 0284 FC01      		movw r30,r24
 504 0286 3183      		std Z+1,r19
 505 0288 2083      		st Z,r18
  82:lp_solve_5.5/lp_presolve.c ****   if(lp->presolve_undo == NULL)
 506               		.loc 2 82 0
 507 028a 8981      		ldd r24,Y+1
 508 028c 9A81      		ldd r25,Y+2
 509 028e 8A59      		subi r24,-102
 510 0290 9C4F      		sbci r25,-4
 511 0292 FC01      		movw r30,r24
 512 0294 8081      		ld r24,Z
 513 0296 9181      		ldd r25,Z+1
 514 0298 892B      		or r24,r25
 515 029a 01F4      		brne .L22
  83:lp_solve_5.5/lp_presolve.c ****     return( FALSE );
 516               		.loc 2 83 0
 517 029c 80E0      		ldi r24,0
 518 029e 00C0      		rjmp .L23
 519               	.L22:
  84:lp_solve_5.5/lp_presolve.c ****   return( TRUE );
 520               		.loc 2 84 0
 521 02a0 81E0      		ldi r24,lo8(1)
 522               	.L23:
 523               	/* epilogue start */
  85:lp_solve_5.5/lp_presolve.c **** }
 524               		.loc 2 85 0
 525 02a2 0F90      		pop __tmp_reg__
 526 02a4 0F90      		pop __tmp_reg__
 527 02a6 DF91      		pop r29
 528 02a8 CF91      		pop r28
 529 02aa 0895      		ret
 530               		.cfi_endproc
 531               	.LFE11:
 533               	.global	inc_presolve_space
 535               	inc_presolve_space:
 536               	.LFB12:
  86:lp_solve_5.5/lp_presolve.c **** STATIC MYBOOL inc_presolve_space(lprec *lp, int delta, MYBOOL isrows)
  87:lp_solve_5.5/lp_presolve.c **** {
 537               		.loc 2 87 0
 538               		.cfi_startproc
 539 02ac CF93      		push r28
 540               	.LCFI20:
 541               		.cfi_def_cfa_offset 3
 542               		.cfi_offset 28, -2
 543 02ae DF93      		push r29
 544               	.LCFI21:
 545               		.cfi_def_cfa_offset 4
 546               		.cfi_offset 29, -3
 547 02b0 CDB7      		in r28,__SP_L__
 548 02b2 DEB7      		in r29,__SP_H__
 549               	.LCFI22:
 550               		.cfi_def_cfa_register 28
 551 02b4 6397      		sbiw r28,19
 552               	.LCFI23:
 553               		.cfi_def_cfa_offset 23
 554 02b6 0FB6      		in __tmp_reg__,__SREG__
 555 02b8 F894      		cli
 556 02ba DEBF      		out __SP_H__,r29
 557 02bc 0FBE      		out __SREG__,__tmp_reg__
 558 02be CDBF      		out __SP_L__,r28
 559               	/* prologue: function */
 560               	/* frame size = 19 */
 561               	/* stack size = 21 */
 562               	.L__stack_usage = 21
 563 02c0 988B      		std Y+16,r25
 564 02c2 8F87      		std Y+15,r24
 565 02c4 7A8B      		std Y+18,r23
 566 02c6 698B      		std Y+17,r22
 567 02c8 4B8B      		std Y+19,r20
  88:lp_solve_5.5/lp_presolve.c ****   int i, ii,
  89:lp_solve_5.5/lp_presolve.c ****       oldrowcolalloc, rowcolsum, oldrowalloc, oldcolalloc;
  90:lp_solve_5.5/lp_presolve.c ****   presolveundorec *psundo = lp->presolve_undo;
 568               		.loc 2 90 0
 569 02ca 8F85      		ldd r24,Y+15
 570 02cc 9889      		ldd r25,Y+16
 571 02ce 8A59      		subi r24,-102
 572 02d0 9C4F      		sbci r25,-4
 573 02d2 FC01      		movw r30,r24
 574 02d4 8081      		ld r24,Z
 575 02d6 9181      		ldd r25,Z+1
 576 02d8 9E83      		std Y+6,r25
 577 02da 8D83      		std Y+5,r24
  91:lp_solve_5.5/lp_presolve.c **** 
  92:lp_solve_5.5/lp_presolve.c ****   if(psundo == NULL) {
 578               		.loc 2 92 0
 579 02dc 8D81      		ldd r24,Y+5
 580 02de 9E81      		ldd r25,Y+6
 581 02e0 892B      		or r24,r25
 582 02e2 01F4      		brne .L25
  93:lp_solve_5.5/lp_presolve.c ****     presolve_createUndo(lp);
 583               		.loc 2 93 0
 584 02e4 8F85      		ldd r24,Y+15
 585 02e6 9889      		ldd r25,Y+16
 586 02e8 0E94 0000 		call presolve_createUndo
  94:lp_solve_5.5/lp_presolve.c ****     psundo = lp->presolve_undo;
 587               		.loc 2 94 0
 588 02ec 8F85      		ldd r24,Y+15
 589 02ee 9889      		ldd r25,Y+16
 590 02f0 8A59      		subi r24,-102
 591 02f2 9C4F      		sbci r25,-4
 592 02f4 FC01      		movw r30,r24
 593 02f6 8081      		ld r24,Z
 594 02f8 9181      		ldd r25,Z+1
 595 02fa 9E83      		std Y+6,r25
 596 02fc 8D83      		std Y+5,r24
 597               	.L25:
  95:lp_solve_5.5/lp_presolve.c ****   }
  96:lp_solve_5.5/lp_presolve.c **** 
  97:lp_solve_5.5/lp_presolve.c ****   /* Set constants */
  98:lp_solve_5.5/lp_presolve.c ****   oldrowalloc = lp->rows_alloc-delta;
 598               		.loc 2 98 0
 599 02fe 8F85      		ldd r24,Y+15
 600 0300 9889      		ldd r25,Y+16
 601 0302 8A50      		subi r24,10
 602 0304 9E4F      		sbci r25,-2
 603 0306 FC01      		movw r30,r24
 604 0308 2081      		ld r18,Z
 605 030a 3181      		ldd r19,Z+1
 606 030c 8989      		ldd r24,Y+17
 607 030e 9A89      		ldd r25,Y+18
 608 0310 A901      		movw r20,r18
 609 0312 481B      		sub r20,r24
 610 0314 590B      		sbc r21,r25
 611 0316 CA01      		movw r24,r20
 612 0318 9887      		std Y+8,r25
 613 031a 8F83      		std Y+7,r24
  99:lp_solve_5.5/lp_presolve.c ****   oldcolalloc = lp->columns_alloc-delta;
 614               		.loc 2 99 0
 615 031c 8F85      		ldd r24,Y+15
 616 031e 9889      		ldd r25,Y+16
 617 0320 8850      		subi r24,8
 618 0322 9E4F      		sbci r25,-2
 619 0324 FC01      		movw r30,r24
 620 0326 2081      		ld r18,Z
 621 0328 3181      		ldd r19,Z+1
 622 032a 8989      		ldd r24,Y+17
 623 032c 9A89      		ldd r25,Y+18
 624 032e A901      		movw r20,r18
 625 0330 481B      		sub r20,r24
 626 0332 590B      		sbc r21,r25
 627 0334 CA01      		movw r24,r20
 628 0336 9A87      		std Y+10,r25
 629 0338 8987      		std Y+9,r24
 100:lp_solve_5.5/lp_presolve.c ****   oldrowcolalloc = lp->sum_alloc-delta;
 630               		.loc 2 100 0
 631 033a 8F85      		ldd r24,Y+15
 632 033c 9889      		ldd r25,Y+16
 633 033e 8C50      		subi r24,12
 634 0340 9E4F      		sbci r25,-2
 635 0342 FC01      		movw r30,r24
 636 0344 2081      		ld r18,Z
 637 0346 3181      		ldd r19,Z+1
 638 0348 8989      		ldd r24,Y+17
 639 034a 9A89      		ldd r25,Y+18
 640 034c A901      		movw r20,r18
 641 034e 481B      		sub r20,r24
 642 0350 590B      		sbc r21,r25
 643 0352 CA01      		movw r24,r20
 644 0354 9C87      		std Y+12,r25
 645 0356 8B87      		std Y+11,r24
 101:lp_solve_5.5/lp_presolve.c ****   rowcolsum = lp->sum_alloc + 1;
 646               		.loc 2 101 0
 647 0358 8F85      		ldd r24,Y+15
 648 035a 9889      		ldd r25,Y+16
 649 035c 8C50      		subi r24,12
 650 035e 9E4F      		sbci r25,-2
 651 0360 FC01      		movw r30,r24
 652 0362 8081      		ld r24,Z
 653 0364 9181      		ldd r25,Z+1
 654 0366 0196      		adiw r24,1
 655 0368 9E87      		std Y+14,r25
 656 036a 8D87      		std Y+13,r24
 102:lp_solve_5.5/lp_presolve.c **** 
 103:lp_solve_5.5/lp_presolve.c ****   /* Reallocate lp memory */
 104:lp_solve_5.5/lp_presolve.c ****   if(isrows)
 657               		.loc 2 104 0
 658 036c 8B89      		ldd r24,Y+19
 659 036e 8823      		tst r24
 660 0370 01F0      		breq .L26
 105:lp_solve_5.5/lp_presolve.c ****     allocREAL(lp, &psundo->fixed_rhs,   lp->rows_alloc+1, AUTOMATIC);
 661               		.loc 2 105 0
 662 0372 8F85      		ldd r24,Y+15
 663 0374 9889      		ldd r25,Y+16
 664 0376 8A50      		subi r24,10
 665 0378 9E4F      		sbci r25,-2
 666 037a FC01      		movw r30,r24
 667 037c 8081      		ld r24,Z
 668 037e 9181      		ldd r25,Z+1
 669 0380 AC01      		movw r20,r24
 670 0382 4F5F      		subi r20,-1
 671 0384 5F4F      		sbci r21,-1
 672 0386 8D81      		ldd r24,Y+5
 673 0388 9E81      		ldd r25,Y+6
 674 038a BC01      		movw r22,r24
 675 038c 645F      		subi r22,-12
 676 038e 7F4F      		sbci r23,-1
 677 0390 8F85      		ldd r24,Y+15
 678 0392 9889      		ldd r25,Y+16
 679 0394 22E0      		ldi r18,lo8(2)
 680 0396 0E94 0000 		call allocREAL
 681 039a 00C0      		rjmp .L27
 682               	.L26:
 106:lp_solve_5.5/lp_presolve.c ****   else
 107:lp_solve_5.5/lp_presolve.c ****     allocREAL(lp, &psundo->fixed_obj,   lp->columns_alloc+1, AUTOMATIC);
 683               		.loc 2 107 0
 684 039c 8F85      		ldd r24,Y+15
 685 039e 9889      		ldd r25,Y+16
 686 03a0 8850      		subi r24,8
 687 03a2 9E4F      		sbci r25,-2
 688 03a4 FC01      		movw r30,r24
 689 03a6 8081      		ld r24,Z
 690 03a8 9181      		ldd r25,Z+1
 691 03aa AC01      		movw r20,r24
 692 03ac 4F5F      		subi r20,-1
 693 03ae 5F4F      		sbci r21,-1
 694 03b0 8D81      		ldd r24,Y+5
 695 03b2 9E81      		ldd r25,Y+6
 696 03b4 BC01      		movw r22,r24
 697 03b6 625F      		subi r22,-14
 698 03b8 7F4F      		sbci r23,-1
 699 03ba 8F85      		ldd r24,Y+15
 700 03bc 9889      		ldd r25,Y+16
 701 03be 22E0      		ldi r18,lo8(2)
 702 03c0 0E94 0000 		call allocREAL
 703               	.L27:
 108:lp_solve_5.5/lp_presolve.c ****   allocINT(lp,  &psundo->var_to_orig, rowcolsum, AUTOMATIC);
 704               		.loc 2 108 0
 705 03c4 8D81      		ldd r24,Y+5
 706 03c6 9E81      		ldd r25,Y+6
 707 03c8 BC01      		movw r22,r24
 708 03ca 685F      		subi r22,-8
 709 03cc 7F4F      		sbci r23,-1
 710 03ce 4D85      		ldd r20,Y+13
 711 03d0 5E85      		ldd r21,Y+14
 712 03d2 8F85      		ldd r24,Y+15
 713 03d4 9889      		ldd r25,Y+16
 714 03d6 22E0      		ldi r18,lo8(2)
 715 03d8 0E94 0000 		call allocINT
 109:lp_solve_5.5/lp_presolve.c ****   allocINT(lp,  &psundo->orig_to_var, rowcolsum, AUTOMATIC);
 716               		.loc 2 109 0
 717 03dc 8D81      		ldd r24,Y+5
 718 03de 9E81      		ldd r25,Y+6
 719 03e0 BC01      		movw r22,r24
 720 03e2 665F      		subi r22,-10
 721 03e4 7F4F      		sbci r23,-1
 722 03e6 4D85      		ldd r20,Y+13
 723 03e8 5E85      		ldd r21,Y+14
 724 03ea 8F85      		ldd r24,Y+15
 725 03ec 9889      		ldd r25,Y+16
 726 03ee 22E0      		ldi r18,lo8(2)
 727 03f0 0E94 0000 		call allocINT
 110:lp_solve_5.5/lp_presolve.c **** 
 111:lp_solve_5.5/lp_presolve.c ****   /* Fill in default values, where appropriate */
 112:lp_solve_5.5/lp_presolve.c ****   if(isrows)
 728               		.loc 2 112 0
 729 03f4 8B89      		ldd r24,Y+19
 730 03f6 8823      		tst r24
 731 03f8 01F0      		breq .L28
 113:lp_solve_5.5/lp_presolve.c ****     ii = oldrowalloc+1;
 732               		.loc 2 113 0
 733 03fa 8F81      		ldd r24,Y+7
 734 03fc 9885      		ldd r25,Y+8
 735 03fe 0196      		adiw r24,1
 736 0400 9C83      		std Y+4,r25
 737 0402 8B83      		std Y+3,r24
 738 0404 00C0      		rjmp .L29
 739               	.L28:
 114:lp_solve_5.5/lp_presolve.c ****   else
 115:lp_solve_5.5/lp_presolve.c ****     ii = oldcolalloc+1;
 740               		.loc 2 115 0
 741 0406 8985      		ldd r24,Y+9
 742 0408 9A85      		ldd r25,Y+10
 743 040a 0196      		adiw r24,1
 744 040c 9C83      		std Y+4,r25
 745 040e 8B83      		std Y+3,r24
 746               	.L29:
 116:lp_solve_5.5/lp_presolve.c ****   for(i = oldrowcolalloc+1; i < rowcolsum; i++, ii++) {
 747               		.loc 2 116 0
 748 0410 8B85      		ldd r24,Y+11
 749 0412 9C85      		ldd r25,Y+12
 750 0414 0196      		adiw r24,1
 751 0416 9A83      		std Y+2,r25
 752 0418 8983      		std Y+1,r24
 753 041a 00C0      		rjmp .L30
 754               	.L33:
 117:lp_solve_5.5/lp_presolve.c ****     psundo->var_to_orig[i] = 0;
 755               		.loc 2 117 0
 756 041c 8D81      		ldd r24,Y+5
 757 041e 9E81      		ldd r25,Y+6
 758 0420 FC01      		movw r30,r24
 759 0422 2085      		ldd r18,Z+8
 760 0424 3185      		ldd r19,Z+9
 761 0426 8981      		ldd r24,Y+1
 762 0428 9A81      		ldd r25,Y+2
 763 042a 880F      		lsl r24
 764 042c 991F      		rol r25
 765 042e 820F      		add r24,r18
 766 0430 931F      		adc r25,r19
 767 0432 FC01      		movw r30,r24
 768 0434 1182      		std Z+1,__zero_reg__
 769 0436 1082      		st Z,__zero_reg__
 118:lp_solve_5.5/lp_presolve.c ****     psundo->orig_to_var[i] = 0;
 770               		.loc 2 118 0
 771 0438 8D81      		ldd r24,Y+5
 772 043a 9E81      		ldd r25,Y+6
 773 043c FC01      		movw r30,r24
 774 043e 2285      		ldd r18,Z+10
 775 0440 3385      		ldd r19,Z+11
 776 0442 8981      		ldd r24,Y+1
 777 0444 9A81      		ldd r25,Y+2
 778 0446 880F      		lsl r24
 779 0448 991F      		rol r25
 780 044a 820F      		add r24,r18
 781 044c 931F      		adc r25,r19
 782 044e FC01      		movw r30,r24
 783 0450 1182      		std Z+1,__zero_reg__
 784 0452 1082      		st Z,__zero_reg__
 119:lp_solve_5.5/lp_presolve.c ****     if(isrows)
 785               		.loc 2 119 0
 786 0454 8B89      		ldd r24,Y+19
 787 0456 8823      		tst r24
 788 0458 01F0      		breq .L31
 120:lp_solve_5.5/lp_presolve.c ****       psundo->fixed_rhs[ii] = 0;
 789               		.loc 2 120 0
 790 045a 8D81      		ldd r24,Y+5
 791 045c 9E81      		ldd r25,Y+6
 792 045e FC01      		movw r30,r24
 793 0460 2485      		ldd r18,Z+12
 794 0462 3585      		ldd r19,Z+13
 795 0464 8B81      		ldd r24,Y+3
 796 0466 9C81      		ldd r25,Y+4
 797 0468 880F      		lsl r24
 798 046a 991F      		rol r25
 799 046c 880F      		lsl r24
 800 046e 991F      		rol r25
 801 0470 820F      		add r24,r18
 802 0472 931F      		adc r25,r19
 803 0474 FC01      		movw r30,r24
 804 0476 1082      		st Z,__zero_reg__
 805 0478 1182      		std Z+1,__zero_reg__
 806 047a 1282      		std Z+2,__zero_reg__
 807 047c 1382      		std Z+3,__zero_reg__
 808 047e 00C0      		rjmp .L32
 809               	.L31:
 121:lp_solve_5.5/lp_presolve.c ****     else
 122:lp_solve_5.5/lp_presolve.c ****       psundo->fixed_obj[ii] = 0;
 810               		.loc 2 122 0
 811 0480 8D81      		ldd r24,Y+5
 812 0482 9E81      		ldd r25,Y+6
 813 0484 FC01      		movw r30,r24
 814 0486 2685      		ldd r18,Z+14
 815 0488 3785      		ldd r19,Z+15
 816 048a 8B81      		ldd r24,Y+3
 817 048c 9C81      		ldd r25,Y+4
 818 048e 880F      		lsl r24
 819 0490 991F      		rol r25
 820 0492 880F      		lsl r24
 821 0494 991F      		rol r25
 822 0496 820F      		add r24,r18
 823 0498 931F      		adc r25,r19
 824 049a FC01      		movw r30,r24
 825 049c 1082      		st Z,__zero_reg__
 826 049e 1182      		std Z+1,__zero_reg__
 827 04a0 1282      		std Z+2,__zero_reg__
 828 04a2 1382      		std Z+3,__zero_reg__
 829               	.L32:
 116:lp_solve_5.5/lp_presolve.c ****     psundo->var_to_orig[i] = 0;
 830               		.loc 2 116 0 discriminator 2
 831 04a4 8981      		ldd r24,Y+1
 832 04a6 9A81      		ldd r25,Y+2
 833 04a8 0196      		adiw r24,1
 834 04aa 9A83      		std Y+2,r25
 835 04ac 8983      		std Y+1,r24
 836 04ae 8B81      		ldd r24,Y+3
 837 04b0 9C81      		ldd r25,Y+4
 838 04b2 0196      		adiw r24,1
 839 04b4 9C83      		std Y+4,r25
 840 04b6 8B83      		std Y+3,r24
 841               	.L30:
 116:lp_solve_5.5/lp_presolve.c ****     psundo->var_to_orig[i] = 0;
 842               		.loc 2 116 0 is_stmt 0 discriminator 1
 843 04b8 2981      		ldd r18,Y+1
 844 04ba 3A81      		ldd r19,Y+2
 845 04bc 8D85      		ldd r24,Y+13
 846 04be 9E85      		ldd r25,Y+14
 847 04c0 2817      		cp r18,r24
 848 04c2 3907      		cpc r19,r25
 849 04c4 04F4      		brge .+2
 850 04c6 00C0      		rjmp .L33
 123:lp_solve_5.5/lp_presolve.c ****   }
 124:lp_solve_5.5/lp_presolve.c **** 
 125:lp_solve_5.5/lp_presolve.c ****   return(TRUE);
 851               		.loc 2 125 0 is_stmt 1
 852 04c8 81E0      		ldi r24,lo8(1)
 853               	/* epilogue start */
 126:lp_solve_5.5/lp_presolve.c **** }
 854               		.loc 2 126 0
 855 04ca 6396      		adiw r28,19
 856 04cc 0FB6      		in __tmp_reg__,__SREG__
 857 04ce F894      		cli
 858 04d0 DEBF      		out __SP_H__,r29
 859 04d2 0FBE      		out __SREG__,__tmp_reg__
 860 04d4 CDBF      		out __SP_L__,r28
 861 04d6 DF91      		pop r29
 862 04d8 CF91      		pop r28
 863 04da 0895      		ret
 864               		.cfi_endproc
 865               	.LFE12:
 867               	.global	presolve_setOrig
 869               	presolve_setOrig:
 870               	.LFB13:
 127:lp_solve_5.5/lp_presolve.c **** STATIC MYBOOL presolve_setOrig(lprec *lp, int orig_rows, int orig_cols)
 128:lp_solve_5.5/lp_presolve.c **** {
 871               		.loc 2 128 0
 872               		.cfi_startproc
 873 04dc CF93      		push r28
 874               	.LCFI24:
 875               		.cfi_def_cfa_offset 3
 876               		.cfi_offset 28, -2
 877 04de DF93      		push r29
 878               	.LCFI25:
 879               		.cfi_def_cfa_offset 4
 880               		.cfi_offset 29, -3
 881 04e0 CDB7      		in r28,__SP_L__
 882 04e2 DEB7      		in r29,__SP_H__
 883               	.LCFI26:
 884               		.cfi_def_cfa_register 28
 885 04e4 2897      		sbiw r28,8
 886               	.LCFI27:
 887               		.cfi_def_cfa_offset 12
 888 04e6 0FB6      		in __tmp_reg__,__SREG__
 889 04e8 F894      		cli
 890 04ea DEBF      		out __SP_H__,r29
 891 04ec 0FBE      		out __SREG__,__tmp_reg__
 892 04ee CDBF      		out __SP_L__,r28
 893               	/* prologue: function */
 894               	/* frame size = 8 */
 895               	/* stack size = 10 */
 896               	.L__stack_usage = 10
 897 04f0 9C83      		std Y+4,r25
 898 04f2 8B83      		std Y+3,r24
 899 04f4 7E83      		std Y+6,r23
 900 04f6 6D83      		std Y+5,r22
 901 04f8 5887      		std Y+8,r21
 902 04fa 4F83      		std Y+7,r20
 129:lp_solve_5.5/lp_presolve.c ****   presolveundorec *psundo = lp->presolve_undo;
 903               		.loc 2 129 0
 904 04fc 8B81      		ldd r24,Y+3
 905 04fe 9C81      		ldd r25,Y+4
 906 0500 8A59      		subi r24,-102
 907 0502 9C4F      		sbci r25,-4
 908 0504 FC01      		movw r30,r24
 909 0506 8081      		ld r24,Z
 910 0508 9181      		ldd r25,Z+1
 911 050a 9A83      		std Y+2,r25
 912 050c 8983      		std Y+1,r24
 130:lp_solve_5.5/lp_presolve.c **** 
 131:lp_solve_5.5/lp_presolve.c ****   if(psundo == NULL)
 913               		.loc 2 131 0
 914 050e 8981      		ldd r24,Y+1
 915 0510 9A81      		ldd r25,Y+2
 916 0512 892B      		or r24,r25
 917 0514 01F4      		brne .L36
 132:lp_solve_5.5/lp_presolve.c ****     return( FALSE );
 918               		.loc 2 132 0
 919 0516 80E0      		ldi r24,0
 920 0518 00C0      		rjmp .L37
 921               	.L36:
 133:lp_solve_5.5/lp_presolve.c ****   psundo->orig_rows = orig_rows;
 922               		.loc 2 133 0
 923 051a 8981      		ldd r24,Y+1
 924 051c 9A81      		ldd r25,Y+2
 925 051e 2D81      		ldd r18,Y+5
 926 0520 3E81      		ldd r19,Y+6
 927 0522 FC01      		movw r30,r24
 928 0524 3383      		std Z+3,r19
 929 0526 2283      		std Z+2,r18
 134:lp_solve_5.5/lp_presolve.c ****   psundo->orig_columns = orig_cols;
 930               		.loc 2 134 0
 931 0528 8981      		ldd r24,Y+1
 932 052a 9A81      		ldd r25,Y+2
 933 052c 2F81      		ldd r18,Y+7
 934 052e 3885      		ldd r19,Y+8
 935 0530 FC01      		movw r30,r24
 936 0532 3583      		std Z+5,r19
 937 0534 2483      		std Z+4,r18
 135:lp_solve_5.5/lp_presolve.c ****   psundo->orig_sum = orig_rows + orig_cols;
 938               		.loc 2 135 0
 939 0536 2D81      		ldd r18,Y+5
 940 0538 3E81      		ldd r19,Y+6
 941 053a 8F81      		ldd r24,Y+7
 942 053c 9885      		ldd r25,Y+8
 943 053e 280F      		add r18,r24
 944 0540 391F      		adc r19,r25
 945 0542 8981      		ldd r24,Y+1
 946 0544 9A81      		ldd r25,Y+2
 947 0546 FC01      		movw r30,r24
 948 0548 3783      		std Z+7,r19
 949 054a 2683      		std Z+6,r18
 136:lp_solve_5.5/lp_presolve.c ****   if(lp->wasPresolved)
 950               		.loc 2 136 0
 951 054c 8B81      		ldd r24,Y+3
 952 054e 9C81      		ldd r25,Y+4
 953 0550 8950      		subi r24,9
 954 0552 9D4F      		sbci r25,-3
 955 0554 FC01      		movw r30,r24
 956 0556 8081      		ld r24,Z
 957 0558 8823      		tst r24
 958 055a 01F0      		breq .L38
 137:lp_solve_5.5/lp_presolve.c ****     presolve_fillUndo(lp, orig_rows, orig_cols, FALSE);
 959               		.loc 2 137 0
 960 055c 4F81      		ldd r20,Y+7
 961 055e 5885      		ldd r21,Y+8
 962 0560 6D81      		ldd r22,Y+5
 963 0562 7E81      		ldd r23,Y+6
 964 0564 8B81      		ldd r24,Y+3
 965 0566 9C81      		ldd r25,Y+4
 966 0568 20E0      		ldi r18,0
 967 056a 0E94 0000 		call presolve_fillUndo
 968               	.L38:
 138:lp_solve_5.5/lp_presolve.c ****   return( TRUE );
 969               		.loc 2 138 0
 970 056e 81E0      		ldi r24,lo8(1)
 971               	.L37:
 972               	/* epilogue start */
 139:lp_solve_5.5/lp_presolve.c **** }
 973               		.loc 2 139 0
 974 0570 2896      		adiw r28,8
 975 0572 0FB6      		in __tmp_reg__,__SREG__
 976 0574 F894      		cli
 977 0576 DEBF      		out __SP_H__,r29
 978 0578 0FBE      		out __SREG__,__tmp_reg__
 979 057a CDBF      		out __SP_L__,r28
 980 057c DF91      		pop r29
 981 057e CF91      		pop r28
 982 0580 0895      		ret
 983               		.cfi_endproc
 984               	.LFE13:
 986               	.global	presolve_fillUndo
 988               	presolve_fillUndo:
 989               	.LFB14:
 140:lp_solve_5.5/lp_presolve.c **** STATIC MYBOOL presolve_fillUndo(lprec *lp, int orig_rows, int orig_cols, MYBOOL setOrig)
 141:lp_solve_5.5/lp_presolve.c **** {
 990               		.loc 2 141 0
 991               		.cfi_startproc
 992 0582 CF93      		push r28
 993               	.LCFI28:
 994               		.cfi_def_cfa_offset 3
 995               		.cfi_offset 28, -2
 996 0584 DF93      		push r29
 997               	.LCFI29:
 998               		.cfi_def_cfa_offset 4
 999               		.cfi_offset 29, -3
 1000 0586 CDB7      		in r28,__SP_L__
 1001 0588 DEB7      		in r29,__SP_H__
 1002               	.LCFI30:
 1003               		.cfi_def_cfa_register 28
 1004 058a 2B97      		sbiw r28,11
 1005               	.LCFI31:
 1006               		.cfi_def_cfa_offset 15
 1007 058c 0FB6      		in __tmp_reg__,__SREG__
 1008 058e F894      		cli
 1009 0590 DEBF      		out __SP_H__,r29
 1010 0592 0FBE      		out __SREG__,__tmp_reg__
 1011 0594 CDBF      		out __SP_L__,r28
 1012               	/* prologue: function */
 1013               	/* frame size = 11 */
 1014               	/* stack size = 13 */
 1015               	.L__stack_usage = 13
 1016 0596 9E83      		std Y+6,r25
 1017 0598 8D83      		std Y+5,r24
 1018 059a 7887      		std Y+8,r23
 1019 059c 6F83      		std Y+7,r22
 1020 059e 5A87      		std Y+10,r21
 1021 05a0 4987      		std Y+9,r20
 1022 05a2 2B87      		std Y+11,r18
 142:lp_solve_5.5/lp_presolve.c ****   int i;
 143:lp_solve_5.5/lp_presolve.c ****   presolveundorec *psundo = lp->presolve_undo;
 1023               		.loc 2 143 0
 1024 05a4 8D81      		ldd r24,Y+5
 1025 05a6 9E81      		ldd r25,Y+6
 1026 05a8 8A59      		subi r24,-102
 1027 05aa 9C4F      		sbci r25,-4
 1028 05ac FC01      		movw r30,r24
 1029 05ae 8081      		ld r24,Z
 1030 05b0 9181      		ldd r25,Z+1
 1031 05b2 9C83      		std Y+4,r25
 1032 05b4 8B83      		std Y+3,r24
 144:lp_solve_5.5/lp_presolve.c **** 
 145:lp_solve_5.5/lp_presolve.c ****   for(i = 0; i <= orig_rows; i++) {
 1033               		.loc 2 145 0
 1034 05b6 1A82      		std Y+2,__zero_reg__
 1035 05b8 1982      		std Y+1,__zero_reg__
 1036 05ba 00C0      		rjmp .L40
 1037               	.L41:
 146:lp_solve_5.5/lp_presolve.c ****     psundo->var_to_orig[i] = i;
 1038               		.loc 2 146 0 discriminator 3
 1039 05bc 8B81      		ldd r24,Y+3
 1040 05be 9C81      		ldd r25,Y+4
 1041 05c0 FC01      		movw r30,r24
 1042 05c2 2085      		ldd r18,Z+8
 1043 05c4 3185      		ldd r19,Z+9
 1044 05c6 8981      		ldd r24,Y+1
 1045 05c8 9A81      		ldd r25,Y+2
 1046 05ca 880F      		lsl r24
 1047 05cc 991F      		rol r25
 1048 05ce 820F      		add r24,r18
 1049 05d0 931F      		adc r25,r19
 1050 05d2 2981      		ldd r18,Y+1
 1051 05d4 3A81      		ldd r19,Y+2
 1052 05d6 FC01      		movw r30,r24
 1053 05d8 3183      		std Z+1,r19
 1054 05da 2083      		st Z,r18
 147:lp_solve_5.5/lp_presolve.c ****     psundo->orig_to_var[i] = i;
 1055               		.loc 2 147 0 discriminator 3
 1056 05dc 8B81      		ldd r24,Y+3
 1057 05de 9C81      		ldd r25,Y+4
 1058 05e0 FC01      		movw r30,r24
 1059 05e2 2285      		ldd r18,Z+10
 1060 05e4 3385      		ldd r19,Z+11
 1061 05e6 8981      		ldd r24,Y+1
 1062 05e8 9A81      		ldd r25,Y+2
 1063 05ea 880F      		lsl r24
 1064 05ec 991F      		rol r25
 1065 05ee 820F      		add r24,r18
 1066 05f0 931F      		adc r25,r19
 1067 05f2 2981      		ldd r18,Y+1
 1068 05f4 3A81      		ldd r19,Y+2
 1069 05f6 FC01      		movw r30,r24
 1070 05f8 3183      		std Z+1,r19
 1071 05fa 2083      		st Z,r18
 148:lp_solve_5.5/lp_presolve.c ****     psundo->fixed_rhs[i]   = 0;
 1072               		.loc 2 148 0 discriminator 3
 1073 05fc 8B81      		ldd r24,Y+3
 1074 05fe 9C81      		ldd r25,Y+4
 1075 0600 FC01      		movw r30,r24
 1076 0602 2485      		ldd r18,Z+12
 1077 0604 3585      		ldd r19,Z+13
 1078 0606 8981      		ldd r24,Y+1
 1079 0608 9A81      		ldd r25,Y+2
 1080 060a 880F      		lsl r24
 1081 060c 991F      		rol r25
 1082 060e 880F      		lsl r24
 1083 0610 991F      		rol r25
 1084 0612 820F      		add r24,r18
 1085 0614 931F      		adc r25,r19
 1086 0616 FC01      		movw r30,r24
 1087 0618 1082      		st Z,__zero_reg__
 1088 061a 1182      		std Z+1,__zero_reg__
 1089 061c 1282      		std Z+2,__zero_reg__
 1090 061e 1382      		std Z+3,__zero_reg__
 145:lp_solve_5.5/lp_presolve.c ****     psundo->var_to_orig[i] = i;
 1091               		.loc 2 145 0 discriminator 3
 1092 0620 8981      		ldd r24,Y+1
 1093 0622 9A81      		ldd r25,Y+2
 1094 0624 0196      		adiw r24,1
 1095 0626 9A83      		std Y+2,r25
 1096 0628 8983      		std Y+1,r24
 1097               	.L40:
 145:lp_solve_5.5/lp_presolve.c ****     psundo->var_to_orig[i] = i;
 1098               		.loc 2 145 0 is_stmt 0 discriminator 1
 1099 062a 2981      		ldd r18,Y+1
 1100 062c 3A81      		ldd r19,Y+2
 1101 062e 8F81      		ldd r24,Y+7
 1102 0630 9885      		ldd r25,Y+8
 1103 0632 8217      		cp r24,r18
 1104 0634 9307      		cpc r25,r19
 1105 0636 04F4      		brge .L41
 149:lp_solve_5.5/lp_presolve.c ****   }
 150:lp_solve_5.5/lp_presolve.c ****   for(i = 1; i <= orig_cols; i++) {
 1106               		.loc 2 150 0 is_stmt 1
 1107 0638 81E0      		ldi r24,lo8(1)
 1108 063a 90E0      		ldi r25,0
 1109 063c 9A83      		std Y+2,r25
 1110 063e 8983      		std Y+1,r24
 1111 0640 00C0      		rjmp .L42
 1112               	.L43:
 151:lp_solve_5.5/lp_presolve.c ****     psundo->var_to_orig[orig_rows + i] = i;
 1113               		.loc 2 151 0 discriminator 3
 1114 0642 8B81      		ldd r24,Y+3
 1115 0644 9C81      		ldd r25,Y+4
 1116 0646 FC01      		movw r30,r24
 1117 0648 2085      		ldd r18,Z+8
 1118 064a 3185      		ldd r19,Z+9
 1119 064c 4F81      		ldd r20,Y+7
 1120 064e 5885      		ldd r21,Y+8
 1121 0650 8981      		ldd r24,Y+1
 1122 0652 9A81      		ldd r25,Y+2
 1123 0654 840F      		add r24,r20
 1124 0656 951F      		adc r25,r21
 1125 0658 880F      		lsl r24
 1126 065a 991F      		rol r25
 1127 065c 820F      		add r24,r18
 1128 065e 931F      		adc r25,r19
 1129 0660 2981      		ldd r18,Y+1
 1130 0662 3A81      		ldd r19,Y+2
 1131 0664 FC01      		movw r30,r24
 1132 0666 3183      		std Z+1,r19
 1133 0668 2083      		st Z,r18
 152:lp_solve_5.5/lp_presolve.c ****     psundo->orig_to_var[orig_rows + i] = i;
 1134               		.loc 2 152 0 discriminator 3
 1135 066a 8B81      		ldd r24,Y+3
 1136 066c 9C81      		ldd r25,Y+4
 1137 066e FC01      		movw r30,r24
 1138 0670 2285      		ldd r18,Z+10
 1139 0672 3385      		ldd r19,Z+11
 1140 0674 4F81      		ldd r20,Y+7
 1141 0676 5885      		ldd r21,Y+8
 1142 0678 8981      		ldd r24,Y+1
 1143 067a 9A81      		ldd r25,Y+2
 1144 067c 840F      		add r24,r20
 1145 067e 951F      		adc r25,r21
 1146 0680 880F      		lsl r24
 1147 0682 991F      		rol r25
 1148 0684 820F      		add r24,r18
 1149 0686 931F      		adc r25,r19
 1150 0688 2981      		ldd r18,Y+1
 1151 068a 3A81      		ldd r19,Y+2
 1152 068c FC01      		movw r30,r24
 1153 068e 3183      		std Z+1,r19
 1154 0690 2083      		st Z,r18
 153:lp_solve_5.5/lp_presolve.c ****     psundo->fixed_obj[i] = 0;
 1155               		.loc 2 153 0 discriminator 3
 1156 0692 8B81      		ldd r24,Y+3
 1157 0694 9C81      		ldd r25,Y+4
 1158 0696 FC01      		movw r30,r24
 1159 0698 2685      		ldd r18,Z+14
 1160 069a 3785      		ldd r19,Z+15
 1161 069c 8981      		ldd r24,Y+1
 1162 069e 9A81      		ldd r25,Y+2
 1163 06a0 880F      		lsl r24
 1164 06a2 991F      		rol r25
 1165 06a4 880F      		lsl r24
 1166 06a6 991F      		rol r25
 1167 06a8 820F      		add r24,r18
 1168 06aa 931F      		adc r25,r19
 1169 06ac FC01      		movw r30,r24
 1170 06ae 1082      		st Z,__zero_reg__
 1171 06b0 1182      		std Z+1,__zero_reg__
 1172 06b2 1282      		std Z+2,__zero_reg__
 1173 06b4 1382      		std Z+3,__zero_reg__
 150:lp_solve_5.5/lp_presolve.c ****     psundo->var_to_orig[orig_rows + i] = i;
 1174               		.loc 2 150 0 discriminator 3
 1175 06b6 8981      		ldd r24,Y+1
 1176 06b8 9A81      		ldd r25,Y+2
 1177 06ba 0196      		adiw r24,1
 1178 06bc 9A83      		std Y+2,r25
 1179 06be 8983      		std Y+1,r24
 1180               	.L42:
 150:lp_solve_5.5/lp_presolve.c ****     psundo->var_to_orig[orig_rows + i] = i;
 1181               		.loc 2 150 0 is_stmt 0 discriminator 1
 1182 06c0 2981      		ldd r18,Y+1
 1183 06c2 3A81      		ldd r19,Y+2
 1184 06c4 8985      		ldd r24,Y+9
 1185 06c6 9A85      		ldd r25,Y+10
 1186 06c8 8217      		cp r24,r18
 1187 06ca 9307      		cpc r25,r19
 1188 06cc 04F0      		brlt .+2
 1189 06ce 00C0      		rjmp .L43
 154:lp_solve_5.5/lp_presolve.c ****   }
 155:lp_solve_5.5/lp_presolve.c ****   if(setOrig)
 1190               		.loc 2 155 0 is_stmt 1
 1191 06d0 8B85      		ldd r24,Y+11
 1192 06d2 8823      		tst r24
 1193 06d4 01F0      		breq .L44
 156:lp_solve_5.5/lp_presolve.c ****     presolve_setOrig(lp, orig_rows, orig_cols);
 1194               		.loc 2 156 0
 1195 06d6 4985      		ldd r20,Y+9
 1196 06d8 5A85      		ldd r21,Y+10
 1197 06da 2F81      		ldd r18,Y+7
 1198 06dc 3885      		ldd r19,Y+8
 1199 06de 8D81      		ldd r24,Y+5
 1200 06e0 9E81      		ldd r25,Y+6
 1201 06e2 B901      		movw r22,r18
 1202 06e4 0E94 0000 		call presolve_setOrig
 1203               	.L44:
 157:lp_solve_5.5/lp_presolve.c **** 
 158:lp_solve_5.5/lp_presolve.c ****   return( TRUE );
 1204               		.loc 2 158 0
 1205 06e8 81E0      		ldi r24,lo8(1)
 1206               	/* epilogue start */
 159:lp_solve_5.5/lp_presolve.c **** }
 1207               		.loc 2 159 0
 1208 06ea 2B96      		adiw r28,11
 1209 06ec 0FB6      		in __tmp_reg__,__SREG__
 1210 06ee F894      		cli
 1211 06f0 DEBF      		out __SP_H__,r29
 1212 06f2 0FBE      		out __SREG__,__tmp_reg__
 1213 06f4 CDBF      		out __SP_L__,r28
 1214 06f6 DF91      		pop r29
 1215 06f8 CF91      		pop r28
 1216 06fa 0895      		ret
 1217               		.cfi_endproc
 1218               	.LFE14:
 1220               	.global	__addsf3
 1221               	.global	__mulsf3
 1222               	.global	__subsf3
 1223               	.global	__gtsf2
 1224               	.global	presolve_rebuildUndo
 1226               	presolve_rebuildUndo:
 1227               	.LFB15:
 160:lp_solve_5.5/lp_presolve.c **** STATIC MYBOOL presolve_rebuildUndo(lprec *lp, MYBOOL isprimal)
 161:lp_solve_5.5/lp_presolve.c **** {
 1228               		.loc 2 161 0
 1229               		.cfi_startproc
 1230 06fc CF93      		push r28
 1231               	.LCFI32:
 1232               		.cfi_def_cfa_offset 3
 1233               		.cfi_offset 28, -2
 1234 06fe DF93      		push r29
 1235               	.LCFI33:
 1236               		.cfi_def_cfa_offset 4
 1237               		.cfi_offset 29, -3
 1238 0700 CDB7      		in r28,__SP_L__
 1239 0702 DEB7      		in r29,__SP_H__
 1240               	.LCFI34:
 1241               		.cfi_def_cfa_register 28
 1242 0704 6D97      		sbiw r28,29
 1243               	.LCFI35:
 1244               		.cfi_def_cfa_offset 33
 1245 0706 0FB6      		in __tmp_reg__,__SREG__
 1246 0708 F894      		cli
 1247 070a DEBF      		out __SP_H__,r29
 1248 070c 0FBE      		out __SREG__,__tmp_reg__
 1249 070e CDBF      		out __SP_L__,r28
 1250               	/* prologue: function */
 1251               	/* frame size = 29 */
 1252               	/* stack size = 31 */
 1253               	.L__stack_usage = 31
 1254 0710 9C8F      		std Y+28,r25
 1255 0712 8B8F      		std Y+27,r24
 1256 0714 6D8F      		std Y+29,r22
 162:lp_solve_5.5/lp_presolve.c ****   int             ik, ie, ix, j, k, *colnrDep;
 163:lp_solve_5.5/lp_presolve.c ****   REAL             hold, *value, *solution, *slacks;
 164:lp_solve_5.5/lp_presolve.c ****   presolveundorec *psdata = lp->presolve_undo;
 1257               		.loc 2 164 0
 1258 0716 8B8D      		ldd r24,Y+27
 1259 0718 9C8D      		ldd r25,Y+28
 1260 071a 8A59      		subi r24,-102
 1261 071c 9C4F      		sbci r25,-4
 1262 071e FC01      		movw r30,r24
 1263 0720 8081      		ld r24,Z
 1264 0722 9181      		ldd r25,Z+1
 1265 0724 9C8B      		std Y+20,r25
 1266 0726 8B8B      		std Y+19,r24
 165:lp_solve_5.5/lp_presolve.c ****   MATrec          *mat = NULL;
 1267               		.loc 2 165 0
 1268 0728 1A8A      		std Y+18,__zero_reg__
 1269 072a 198A      		std Y+17,__zero_reg__
 166:lp_solve_5.5/lp_presolve.c **** 
 167:lp_solve_5.5/lp_presolve.c ****   /* Point to and initialize undo structure at first call */
 168:lp_solve_5.5/lp_presolve.c ****   if(isprimal) {
 1270               		.loc 2 168 0
 1271 072c 8D8D      		ldd r24,Y+29
 1272 072e 8823      		tst r24
 1273 0730 01F0      		breq .L47
 169:lp_solve_5.5/lp_presolve.c ****     if(psdata->primalundo != NULL)
 1274               		.loc 2 169 0
 1275 0732 8B89      		ldd r24,Y+19
 1276 0734 9C89      		ldd r25,Y+20
 1277 0736 FC01      		movw r30,r24
 1278 0738 8289      		ldd r24,Z+18
 1279 073a 9389      		ldd r25,Z+19
 1280 073c 892B      		or r24,r25
 1281 073e 01F0      		breq .L48
 170:lp_solve_5.5/lp_presolve.c ****       mat = psdata->primalundo->tracker;
 1282               		.loc 2 170 0
 1283 0740 8B89      		ldd r24,Y+19
 1284 0742 9C89      		ldd r25,Y+20
 1285 0744 FC01      		movw r30,r24
 1286 0746 8289      		ldd r24,Z+18
 1287 0748 9389      		ldd r25,Z+19
 1288 074a FC01      		movw r30,r24
 1289 074c 8481      		ldd r24,Z+4
 1290 074e 9581      		ldd r25,Z+5
 1291 0750 9A8B      		std Y+18,r25
 1292 0752 898B      		std Y+17,r24
 1293               	.L48:
 171:lp_solve_5.5/lp_presolve.c ****     solution = lp->full_solution + lp->presolve_undo->orig_rows;
 1294               		.loc 2 171 0
 1295 0754 8B8D      		ldd r24,Y+27
 1296 0756 9C8D      		ldd r25,Y+28
 1297 0758 8A5E      		subi r24,-22
 1298 075a 9D4F      		sbci r25,-3
 1299 075c FC01      		movw r30,r24
 1300 075e 2081      		ld r18,Z
 1301 0760 3181      		ldd r19,Z+1
 1302 0762 8B8D      		ldd r24,Y+27
 1303 0764 9C8D      		ldd r25,Y+28
 1304 0766 8A59      		subi r24,-102
 1305 0768 9C4F      		sbci r25,-4
 1306 076a FC01      		movw r30,r24
 1307 076c 8081      		ld r24,Z
 1308 076e 9181      		ldd r25,Z+1
 1309 0770 FC01      		movw r30,r24
 1310 0772 8281      		ldd r24,Z+2
 1311 0774 9381      		ldd r25,Z+3
 1312 0776 880F      		lsl r24
 1313 0778 991F      		rol r25
 1314 077a 880F      		lsl r24
 1315 077c 991F      		rol r25
 1316 077e 820F      		add r24,r18
 1317 0780 931F      		adc r25,r19
 1318 0782 9E87      		std Y+14,r25
 1319 0784 8D87      		std Y+13,r24
 172:lp_solve_5.5/lp_presolve.c ****     slacks   = lp->full_solution;
 1320               		.loc 2 172 0
 1321 0786 8B8D      		ldd r24,Y+27
 1322 0788 9C8D      		ldd r25,Y+28
 1323 078a 8A5E      		subi r24,-22
 1324 078c 9D4F      		sbci r25,-3
 1325 078e FC01      		movw r30,r24
 1326 0790 8081      		ld r24,Z
 1327 0792 9181      		ldd r25,Z+1
 1328 0794 988B      		std Y+16,r25
 1329 0796 8F87      		std Y+15,r24
 1330 0798 00C0      		rjmp .L49
 1331               	.L47:
 173:lp_solve_5.5/lp_presolve.c ****   }
 174:lp_solve_5.5/lp_presolve.c ****   else {
 175:lp_solve_5.5/lp_presolve.c ****     if(psdata->dualundo != NULL)
 1332               		.loc 2 175 0
 1333 079a 8B89      		ldd r24,Y+19
 1334 079c 9C89      		ldd r25,Y+20
 1335 079e FC01      		movw r30,r24
 1336 07a0 8489      		ldd r24,Z+20
 1337 07a2 9589      		ldd r25,Z+21
 1338 07a4 892B      		or r24,r25
 1339 07a6 01F0      		breq .L50
 176:lp_solve_5.5/lp_presolve.c ****       mat = psdata->dualundo->tracker;
 1340               		.loc 2 176 0
 1341 07a8 8B89      		ldd r24,Y+19
 1342 07aa 9C89      		ldd r25,Y+20
 1343 07ac FC01      		movw r30,r24
 1344 07ae 8489      		ldd r24,Z+20
 1345 07b0 9589      		ldd r25,Z+21
 1346 07b2 FC01      		movw r30,r24
 1347 07b4 8481      		ldd r24,Z+4
 1348 07b6 9581      		ldd r25,Z+5
 1349 07b8 9A8B      		std Y+18,r25
 1350 07ba 898B      		std Y+17,r24
 1351               	.L50:
 177:lp_solve_5.5/lp_presolve.c ****     solution = lp->full_duals;
 1352               		.loc 2 177 0
 1353 07bc 8B8D      		ldd r24,Y+27
 1354 07be 9C8D      		ldd r25,Y+28
 1355 07c0 805E      		subi r24,-32
 1356 07c2 9D4F      		sbci r25,-3
 1357 07c4 FC01      		movw r30,r24
 1358 07c6 8081      		ld r24,Z
 1359 07c8 9181      		ldd r25,Z+1
 1360 07ca 9E87      		std Y+14,r25
 1361 07cc 8D87      		std Y+13,r24
 178:lp_solve_5.5/lp_presolve.c ****     slacks   = lp->full_duals + lp->presolve_undo->orig_rows;
 1362               		.loc 2 178 0
 1363 07ce 8B8D      		ldd r24,Y+27
 1364 07d0 9C8D      		ldd r25,Y+28
 1365 07d2 805E      		subi r24,-32
 1366 07d4 9D4F      		sbci r25,-3
 1367 07d6 FC01      		movw r30,r24
 1368 07d8 2081      		ld r18,Z
 1369 07da 3181      		ldd r19,Z+1
 1370 07dc 8B8D      		ldd r24,Y+27
 1371 07de 9C8D      		ldd r25,Y+28
 1372 07e0 8A59      		subi r24,-102
 1373 07e2 9C4F      		sbci r25,-4
 1374 07e4 FC01      		movw r30,r24
 1375 07e6 8081      		ld r24,Z
 1376 07e8 9181      		ldd r25,Z+1
 1377 07ea FC01      		movw r30,r24
 1378 07ec 8281      		ldd r24,Z+2
 1379 07ee 9381      		ldd r25,Z+3
 1380 07f0 880F      		lsl r24
 1381 07f2 991F      		rol r25
 1382 07f4 880F      		lsl r24
 1383 07f6 991F      		rol r25
 1384 07f8 820F      		add r24,r18
 1385 07fa 931F      		adc r25,r19
 1386 07fc 988B      		std Y+16,r25
 1387 07fe 8F87      		std Y+15,r24
 1388               	.L49:
 179:lp_solve_5.5/lp_presolve.c ****   }
 180:lp_solve_5.5/lp_presolve.c ****   if(mat == NULL)
 1389               		.loc 2 180 0
 1390 0800 8989      		ldd r24,Y+17
 1391 0802 9A89      		ldd r25,Y+18
 1392 0804 892B      		or r24,r25
 1393 0806 01F4      		brne .L51
 181:lp_solve_5.5/lp_presolve.c ****     return( FALSE );
 1394               		.loc 2 181 0
 1395 0808 80E0      		ldi r24,0
 1396 080a 00C0      		rjmp .L52
 1397               	.L51:
 182:lp_solve_5.5/lp_presolve.c **** 
 183:lp_solve_5.5/lp_presolve.c ****   /* Loop backward over the undo chain */
 184:lp_solve_5.5/lp_presolve.c ****   for(j = mat->col_tag[0]; j > 0; j--) {
 1398               		.loc 2 184 0
 1399 080c 8989      		ldd r24,Y+17
 1400 080e 9A89      		ldd r25,Y+18
 1401 0810 FC01      		movw r30,r24
 1402 0812 8489      		ldd r24,Z+20
 1403 0814 9589      		ldd r25,Z+21
 1404 0816 FC01      		movw r30,r24
 1405 0818 8081      		ld r24,Z
 1406 081a 9181      		ldd r25,Z+1
 1407 081c 9C83      		std Y+4,r25
 1408 081e 8B83      		std Y+3,r24
 1409 0820 00C0      		rjmp .L53
 1410               	.L62:
 185:lp_solve_5.5/lp_presolve.c ****     ix = mat->col_tag[j];
 1411               		.loc 2 185 0
 1412 0822 8989      		ldd r24,Y+17
 1413 0824 9A89      		ldd r25,Y+18
 1414 0826 FC01      		movw r30,r24
 1415 0828 2489      		ldd r18,Z+20
 1416 082a 3589      		ldd r19,Z+21
 1417 082c 8B81      		ldd r24,Y+3
 1418 082e 9C81      		ldd r25,Y+4
 1419 0830 880F      		lsl r24
 1420 0832 991F      		rol r25
 1421 0834 820F      		add r24,r18
 1422 0836 931F      		adc r25,r19
 1423 0838 FC01      		movw r30,r24
 1424 083a 8081      		ld r24,Z
 1425 083c 9181      		ldd r25,Z+1
 1426 083e 9E8B      		std Y+22,r25
 1427 0840 8D8B      		std Y+21,r24
 186:lp_solve_5.5/lp_presolve.c ****     ik = mat->col_end[j-1];
 1428               		.loc 2 186 0
 1429 0842 8989      		ldd r24,Y+17
 1430 0844 9A89      		ldd r25,Y+18
 1431 0846 FC01      		movw r30,r24
 1432 0848 2289      		ldd r18,Z+18
 1433 084a 3389      		ldd r19,Z+19
 1434 084c 8B81      		ldd r24,Y+3
 1435 084e 9C81      		ldd r25,Y+4
 1436 0850 8150      		subi r24,1
 1437 0852 9048      		sbci r25,-128
 1438 0854 880F      		lsl r24
 1439 0856 991F      		rol r25
 1440 0858 820F      		add r24,r18
 1441 085a 931F      		adc r25,r19
 1442 085c FC01      		movw r30,r24
 1443 085e 8081      		ld r24,Z
 1444 0860 9181      		ldd r25,Z+1
 1445 0862 9A83      		std Y+2,r25
 1446 0864 8983      		std Y+1,r24
 187:lp_solve_5.5/lp_presolve.c ****     ie = mat->col_end[j];
 1447               		.loc 2 187 0
 1448 0866 8989      		ldd r24,Y+17
 1449 0868 9A89      		ldd r25,Y+18
 1450 086a FC01      		movw r30,r24
 1451 086c 2289      		ldd r18,Z+18
 1452 086e 3389      		ldd r19,Z+19
 1453 0870 8B81      		ldd r24,Y+3
 1454 0872 9C81      		ldd r25,Y+4
 1455 0874 880F      		lsl r24
 1456 0876 991F      		rol r25
 1457 0878 820F      		add r24,r18
 1458 087a 931F      		adc r25,r19
 1459 087c FC01      		movw r30,r24
 1460 087e 8081      		ld r24,Z
 1461 0880 9181      		ldd r25,Z+1
 1462 0882 988F      		std Y+24,r25
 1463 0884 8F8B      		std Y+23,r24
 188:lp_solve_5.5/lp_presolve.c ****     colnrDep = &COL_MAT_ROWNR(ik);
 1464               		.loc 2 188 0
 1465 0886 8989      		ldd r24,Y+17
 1466 0888 9A89      		ldd r25,Y+18
 1467 088a FC01      		movw r30,r24
 1468 088c 2685      		ldd r18,Z+14
 1469 088e 3785      		ldd r19,Z+15
 1470 0890 8981      		ldd r24,Y+1
 1471 0892 9A81      		ldd r25,Y+2
 1472 0894 880F      		lsl r24
 1473 0896 991F      		rol r25
 1474 0898 820F      		add r24,r18
 1475 089a 931F      		adc r25,r19
 1476 089c 9E83      		std Y+6,r25
 1477 089e 8D83      		std Y+5,r24
 189:lp_solve_5.5/lp_presolve.c ****     value    = &COL_MAT_VALUE(ik);
 1478               		.loc 2 189 0
 1479 08a0 8989      		ldd r24,Y+17
 1480 08a2 9A89      		ldd r25,Y+18
 1481 08a4 FC01      		movw r30,r24
 1482 08a6 2089      		ldd r18,Z+16
 1483 08a8 3189      		ldd r19,Z+17
 1484 08aa 8981      		ldd r24,Y+1
 1485 08ac 9A81      		ldd r25,Y+2
 1486 08ae 880F      		lsl r24
 1487 08b0 991F      		rol r25
 1488 08b2 880F      		lsl r24
 1489 08b4 991F      		rol r25
 1490 08b6 820F      		add r24,r18
 1491 08b8 931F      		adc r25,r19
 1492 08ba 9C87      		std Y+12,r25
 1493 08bc 8B87      		std Y+11,r24
 190:lp_solve_5.5/lp_presolve.c ****     hold = 0;
 1494               		.loc 2 190 0
 1495 08be 1F82      		std Y+7,__zero_reg__
 1496 08c0 1886      		std Y+8,__zero_reg__
 1497 08c2 1986      		std Y+9,__zero_reg__
 1498 08c4 1A86      		std Y+10,__zero_reg__
 191:lp_solve_5.5/lp_presolve.c ****     k = 0;
 1499               		.loc 2 191 0
 1500 08c6 1A8E      		std Y+26,__zero_reg__
 1501 08c8 198E      		std Y+25,__zero_reg__
 192:lp_solve_5.5/lp_presolve.c ****     for(; ik < ie; ik++, colnrDep += matRowColStep, value += matValueStep) {
 1502               		.loc 2 192 0
 1503 08ca 00C0      		rjmp .L54
 1504               	.L59:
 193:lp_solve_5.5/lp_presolve.c **** 
 194:lp_solve_5.5/lp_presolve.c ****       /* Constant term */
 195:lp_solve_5.5/lp_presolve.c ****       if(*colnrDep == 0)
 1505               		.loc 2 195 0
 1506 08cc 8D81      		ldd r24,Y+5
 1507 08ce 9E81      		ldd r25,Y+6
 1508 08d0 FC01      		movw r30,r24
 1509 08d2 8081      		ld r24,Z
 1510 08d4 9181      		ldd r25,Z+1
 1511 08d6 892B      		or r24,r25
 1512 08d8 01F4      		brne .L55
 196:lp_solve_5.5/lp_presolve.c ****         hold += *value;
 1513               		.loc 2 196 0
 1514 08da 8B85      		ldd r24,Y+11
 1515 08dc 9C85      		ldd r25,Y+12
 1516 08de FC01      		movw r30,r24
 1517 08e0 8081      		ld r24,Z
 1518 08e2 9181      		ldd r25,Z+1
 1519 08e4 A281      		ldd r26,Z+2
 1520 08e6 B381      		ldd r27,Z+3
 1521 08e8 9C01      		movw r18,r24
 1522 08ea AD01      		movw r20,r26
 1523 08ec 6F81      		ldd r22,Y+7
 1524 08ee 7885      		ldd r23,Y+8
 1525 08f0 8985      		ldd r24,Y+9
 1526 08f2 9A85      		ldd r25,Y+10
 1527 08f4 0E94 0000 		call __addsf3
 1528 08f8 DC01      		movw r26,r24
 1529 08fa CB01      		movw r24,r22
 1530 08fc 8F83      		std Y+7,r24
 1531 08fe 9887      		std Y+8,r25
 1532 0900 A987      		std Y+9,r26
 1533 0902 BA87      		std Y+10,r27
 1534 0904 00C0      		rjmp .L56
 1535               	.L55:
 197:lp_solve_5.5/lp_presolve.c **** 
 198:lp_solve_5.5/lp_presolve.c ****       /* Special case with dependence on a slack variable */
 199:lp_solve_5.5/lp_presolve.c ****       else if(isprimal && (*colnrDep > lp->presolve_undo->orig_columns)) {
 1536               		.loc 2 199 0
 1537 0906 8D8D      		ldd r24,Y+29
 1538 0908 8823      		tst r24
 1539 090a 01F4      		brne .+2
 1540 090c 00C0      		rjmp .L57
 1541               		.loc 2 199 0 is_stmt 0 discriminator 1
 1542 090e 8D81      		ldd r24,Y+5
 1543 0910 9E81      		ldd r25,Y+6
 1544 0912 FC01      		movw r30,r24
 1545 0914 2081      		ld r18,Z
 1546 0916 3181      		ldd r19,Z+1
 1547 0918 8B8D      		ldd r24,Y+27
 1548 091a 9C8D      		ldd r25,Y+28
 1549 091c 8A59      		subi r24,-102
 1550 091e 9C4F      		sbci r25,-4
 1551 0920 FC01      		movw r30,r24
 1552 0922 8081      		ld r24,Z
 1553 0924 9181      		ldd r25,Z+1
 1554 0926 FC01      		movw r30,r24
 1555 0928 8481      		ldd r24,Z+4
 1556 092a 9581      		ldd r25,Z+5
 1557 092c 8217      		cp r24,r18
 1558 092e 9307      		cpc r25,r19
 1559 0930 04F0      		brlt .+2
 1560 0932 00C0      		rjmp .L57
 200:lp_solve_5.5/lp_presolve.c ****         k = (*colnrDep) - lp->presolve_undo->orig_columns;
 1561               		.loc 2 200 0 is_stmt 1
 1562 0934 8D81      		ldd r24,Y+5
 1563 0936 9E81      		ldd r25,Y+6
 1564 0938 FC01      		movw r30,r24
 1565 093a 2081      		ld r18,Z
 1566 093c 3181      		ldd r19,Z+1
 1567 093e 8B8D      		ldd r24,Y+27
 1568 0940 9C8D      		ldd r25,Y+28
 1569 0942 8A59      		subi r24,-102
 1570 0944 9C4F      		sbci r25,-4
 1571 0946 FC01      		movw r30,r24
 1572 0948 8081      		ld r24,Z
 1573 094a 9181      		ldd r25,Z+1
 1574 094c FC01      		movw r30,r24
 1575 094e 8481      		ldd r24,Z+4
 1576 0950 9581      		ldd r25,Z+5
 1577 0952 A901      		movw r20,r18
 1578 0954 481B      		sub r20,r24
 1579 0956 590B      		sbc r21,r25
 1580 0958 CA01      		movw r24,r20
 1581 095a 9A8F      		std Y+26,r25
 1582 095c 898F      		std Y+25,r24
 201:lp_solve_5.5/lp_presolve.c ****         hold -= (*value) * slacks[k];
 1583               		.loc 2 201 0
 1584 095e 8B85      		ldd r24,Y+11
 1585 0960 9C85      		ldd r25,Y+12
 1586 0962 FC01      		movw r30,r24
 1587 0964 8081      		ld r24,Z
 1588 0966 9181      		ldd r25,Z+1
 1589 0968 A281      		ldd r26,Z+2
 1590 096a B381      		ldd r27,Z+3
 1591 096c 298D      		ldd r18,Y+25
 1592 096e 3A8D      		ldd r19,Y+26
 1593 0970 220F      		lsl r18
 1594 0972 331F      		rol r19
 1595 0974 220F      		lsl r18
 1596 0976 331F      		rol r19
 1597 0978 4F85      		ldd r20,Y+15
 1598 097a 5889      		ldd r21,Y+16
 1599 097c 240F      		add r18,r20
 1600 097e 351F      		adc r19,r21
 1601 0980 F901      		movw r30,r18
 1602 0982 2081      		ld r18,Z
 1603 0984 3181      		ldd r19,Z+1
 1604 0986 4281      		ldd r20,Z+2
 1605 0988 5381      		ldd r21,Z+3
 1606 098a BC01      		movw r22,r24
 1607 098c CD01      		movw r24,r26
 1608 098e 0E94 0000 		call __mulsf3
 1609 0992 DC01      		movw r26,r24
 1610 0994 CB01      		movw r24,r22
 1611 0996 9C01      		movw r18,r24
 1612 0998 AD01      		movw r20,r26
 1613 099a 6F81      		ldd r22,Y+7
 1614 099c 7885      		ldd r23,Y+8
 1615 099e 8985      		ldd r24,Y+9
 1616 09a0 9A85      		ldd r25,Y+10
 1617 09a2 0E94 0000 		call __subsf3
 1618 09a6 DC01      		movw r26,r24
 1619 09a8 CB01      		movw r24,r22
 1620 09aa 8F83      		std Y+7,r24
 1621 09ac 9887      		std Y+8,r25
 1622 09ae A987      		std Y+9,r26
 1623 09b0 BA87      		std Y+10,r27
 202:lp_solve_5.5/lp_presolve.c ****         slacks[k] = 0;
 1624               		.loc 2 202 0
 1625 09b2 898D      		ldd r24,Y+25
 1626 09b4 9A8D      		ldd r25,Y+26
 1627 09b6 880F      		lsl r24
 1628 09b8 991F      		rol r25
 1629 09ba 880F      		lsl r24
 1630 09bc 991F      		rol r25
 1631 09be 2F85      		ldd r18,Y+15
 1632 09c0 3889      		ldd r19,Y+16
 1633 09c2 820F      		add r24,r18
 1634 09c4 931F      		adc r25,r19
 1635 09c6 FC01      		movw r30,r24
 1636 09c8 1082      		st Z,__zero_reg__
 1637 09ca 1182      		std Z+1,__zero_reg__
 1638 09cc 1282      		std Z+2,__zero_reg__
 1639 09ce 1382      		std Z+3,__zero_reg__
 1640 09d0 00C0      		rjmp .L56
 1641               	.L57:
 203:lp_solve_5.5/lp_presolve.c ****       }
 204:lp_solve_5.5/lp_presolve.c ****       else if(!isprimal && (*colnrDep > lp->presolve_undo->orig_rows)) {
 1642               		.loc 2 204 0
 1643 09d2 8D8D      		ldd r24,Y+29
 1644 09d4 8823      		tst r24
 1645 09d6 01F0      		breq .+2
 1646 09d8 00C0      		rjmp .L58
 1647               		.loc 2 204 0 is_stmt 0 discriminator 1
 1648 09da 8D81      		ldd r24,Y+5
 1649 09dc 9E81      		ldd r25,Y+6
 1650 09de FC01      		movw r30,r24
 1651 09e0 2081      		ld r18,Z
 1652 09e2 3181      		ldd r19,Z+1
 1653 09e4 8B8D      		ldd r24,Y+27
 1654 09e6 9C8D      		ldd r25,Y+28
 1655 09e8 8A59      		subi r24,-102
 1656 09ea 9C4F      		sbci r25,-4
 1657 09ec FC01      		movw r30,r24
 1658 09ee 8081      		ld r24,Z
 1659 09f0 9181      		ldd r25,Z+1
 1660 09f2 FC01      		movw r30,r24
 1661 09f4 8281      		ldd r24,Z+2
 1662 09f6 9381      		ldd r25,Z+3
 1663 09f8 8217      		cp r24,r18
 1664 09fa 9307      		cpc r25,r19
 1665 09fc 04F0      		brlt .+2
 1666 09fe 00C0      		rjmp .L58
 205:lp_solve_5.5/lp_presolve.c ****         k = (*colnrDep) - lp->presolve_undo->orig_rows;
 1667               		.loc 2 205 0 is_stmt 1
 1668 0a00 8D81      		ldd r24,Y+5
 1669 0a02 9E81      		ldd r25,Y+6
 1670 0a04 FC01      		movw r30,r24
 1671 0a06 2081      		ld r18,Z
 1672 0a08 3181      		ldd r19,Z+1
 1673 0a0a 8B8D      		ldd r24,Y+27
 1674 0a0c 9C8D      		ldd r25,Y+28
 1675 0a0e 8A59      		subi r24,-102
 1676 0a10 9C4F      		sbci r25,-4
 1677 0a12 FC01      		movw r30,r24
 1678 0a14 8081      		ld r24,Z
 1679 0a16 9181      		ldd r25,Z+1
 1680 0a18 FC01      		movw r30,r24
 1681 0a1a 8281      		ldd r24,Z+2
 1682 0a1c 9381      		ldd r25,Z+3
 1683 0a1e A901      		movw r20,r18
 1684 0a20 481B      		sub r20,r24
 1685 0a22 590B      		sbc r21,r25
 1686 0a24 CA01      		movw r24,r20
 1687 0a26 9A8F      		std Y+26,r25
 1688 0a28 898F      		std Y+25,r24
 206:lp_solve_5.5/lp_presolve.c ****         hold -= (*value) * slacks[k];
 1689               		.loc 2 206 0
 1690 0a2a 8B85      		ldd r24,Y+11
 1691 0a2c 9C85      		ldd r25,Y+12
 1692 0a2e FC01      		movw r30,r24
 1693 0a30 8081      		ld r24,Z
 1694 0a32 9181      		ldd r25,Z+1
 1695 0a34 A281      		ldd r26,Z+2
 1696 0a36 B381      		ldd r27,Z+3
 1697 0a38 298D      		ldd r18,Y+25
 1698 0a3a 3A8D      		ldd r19,Y+26
 1699 0a3c 220F      		lsl r18
 1700 0a3e 331F      		rol r19
 1701 0a40 220F      		lsl r18
 1702 0a42 331F      		rol r19
 1703 0a44 4F85      		ldd r20,Y+15
 1704 0a46 5889      		ldd r21,Y+16
 1705 0a48 240F      		add r18,r20
 1706 0a4a 351F      		adc r19,r21
 1707 0a4c F901      		movw r30,r18
 1708 0a4e 2081      		ld r18,Z
 1709 0a50 3181      		ldd r19,Z+1
 1710 0a52 4281      		ldd r20,Z+2
 1711 0a54 5381      		ldd r21,Z+3
 1712 0a56 BC01      		movw r22,r24
 1713 0a58 CD01      		movw r24,r26
 1714 0a5a 0E94 0000 		call __mulsf3
 1715 0a5e DC01      		movw r26,r24
 1716 0a60 CB01      		movw r24,r22
 1717 0a62 9C01      		movw r18,r24
 1718 0a64 AD01      		movw r20,r26
 1719 0a66 6F81      		ldd r22,Y+7
 1720 0a68 7885      		ldd r23,Y+8
 1721 0a6a 8985      		ldd r24,Y+9
 1722 0a6c 9A85      		ldd r25,Y+10
 1723 0a6e 0E94 0000 		call __subsf3
 1724 0a72 DC01      		movw r26,r24
 1725 0a74 CB01      		movw r24,r22
 1726 0a76 8F83      		std Y+7,r24
 1727 0a78 9887      		std Y+8,r25
 1728 0a7a A987      		std Y+9,r26
 1729 0a7c BA87      		std Y+10,r27
 207:lp_solve_5.5/lp_presolve.c ****         slacks[k] = 0;
 1730               		.loc 2 207 0
 1731 0a7e 898D      		ldd r24,Y+25
 1732 0a80 9A8D      		ldd r25,Y+26
 1733 0a82 880F      		lsl r24
 1734 0a84 991F      		rol r25
 1735 0a86 880F      		lsl r24
 1736 0a88 991F      		rol r25
 1737 0a8a 2F85      		ldd r18,Y+15
 1738 0a8c 3889      		ldd r19,Y+16
 1739 0a8e 820F      		add r24,r18
 1740 0a90 931F      		adc r25,r19
 1741 0a92 FC01      		movw r30,r24
 1742 0a94 1082      		st Z,__zero_reg__
 1743 0a96 1182      		std Z+1,__zero_reg__
 1744 0a98 1282      		std Z+2,__zero_reg__
 1745 0a9a 1382      		std Z+3,__zero_reg__
 1746 0a9c 00C0      		rjmp .L56
 1747               	.L58:
 208:lp_solve_5.5/lp_presolve.c ****       }
 209:lp_solve_5.5/lp_presolve.c **** 
 210:lp_solve_5.5/lp_presolve.c ****       /* Dependence on other user variable */
 211:lp_solve_5.5/lp_presolve.c ****       else
 212:lp_solve_5.5/lp_presolve.c ****         hold -= (*value) * solution[*colnrDep];
 1748               		.loc 2 212 0
 1749 0a9e 8B85      		ldd r24,Y+11
 1750 0aa0 9C85      		ldd r25,Y+12
 1751 0aa2 FC01      		movw r30,r24
 1752 0aa4 8081      		ld r24,Z
 1753 0aa6 9181      		ldd r25,Z+1
 1754 0aa8 A281      		ldd r26,Z+2
 1755 0aaa B381      		ldd r27,Z+3
 1756 0aac 2D81      		ldd r18,Y+5
 1757 0aae 3E81      		ldd r19,Y+6
 1758 0ab0 F901      		movw r30,r18
 1759 0ab2 2081      		ld r18,Z
 1760 0ab4 3181      		ldd r19,Z+1
 1761 0ab6 220F      		lsl r18
 1762 0ab8 331F      		rol r19
 1763 0aba 220F      		lsl r18
 1764 0abc 331F      		rol r19
 1765 0abe 4D85      		ldd r20,Y+13
 1766 0ac0 5E85      		ldd r21,Y+14
 1767 0ac2 240F      		add r18,r20
 1768 0ac4 351F      		adc r19,r21
 1769 0ac6 F901      		movw r30,r18
 1770 0ac8 2081      		ld r18,Z
 1771 0aca 3181      		ldd r19,Z+1
 1772 0acc 4281      		ldd r20,Z+2
 1773 0ace 5381      		ldd r21,Z+3
 1774 0ad0 BC01      		movw r22,r24
 1775 0ad2 CD01      		movw r24,r26
 1776 0ad4 0E94 0000 		call __mulsf3
 1777 0ad8 DC01      		movw r26,r24
 1778 0ada CB01      		movw r24,r22
 1779 0adc 9C01      		movw r18,r24
 1780 0ade AD01      		movw r20,r26
 1781 0ae0 6F81      		ldd r22,Y+7
 1782 0ae2 7885      		ldd r23,Y+8
 1783 0ae4 8985      		ldd r24,Y+9
 1784 0ae6 9A85      		ldd r25,Y+10
 1785 0ae8 0E94 0000 		call __subsf3
 1786 0aec DC01      		movw r26,r24
 1787 0aee CB01      		movw r24,r22
 1788 0af0 8F83      		std Y+7,r24
 1789 0af2 9887      		std Y+8,r25
 1790 0af4 A987      		std Y+9,r26
 1791 0af6 BA87      		std Y+10,r27
 1792               	.L56:
 213:lp_solve_5.5/lp_presolve.c **** 
 214:lp_solve_5.5/lp_presolve.c ****       *value = 0;
 1793               		.loc 2 214 0
 1794 0af8 8B85      		ldd r24,Y+11
 1795 0afa 9C85      		ldd r25,Y+12
 1796 0afc FC01      		movw r30,r24
 1797 0afe 1082      		st Z,__zero_reg__
 1798 0b00 1182      		std Z+1,__zero_reg__
 1799 0b02 1282      		std Z+2,__zero_reg__
 1800 0b04 1382      		std Z+3,__zero_reg__
 192:lp_solve_5.5/lp_presolve.c **** 
 1801               		.loc 2 192 0
 1802 0b06 8981      		ldd r24,Y+1
 1803 0b08 9A81      		ldd r25,Y+2
 1804 0b0a 0196      		adiw r24,1
 1805 0b0c 9A83      		std Y+2,r25
 1806 0b0e 8983      		std Y+1,r24
 1807 0b10 8D81      		ldd r24,Y+5
 1808 0b12 9E81      		ldd r25,Y+6
 1809 0b14 0296      		adiw r24,2
 1810 0b16 9E83      		std Y+6,r25
 1811 0b18 8D83      		std Y+5,r24
 1812 0b1a 8B85      		ldd r24,Y+11
 1813 0b1c 9C85      		ldd r25,Y+12
 1814 0b1e 0496      		adiw r24,4
 1815 0b20 9C87      		std Y+12,r25
 1816 0b22 8B87      		std Y+11,r24
 1817               	.L54:
 192:lp_solve_5.5/lp_presolve.c **** 
 1818               		.loc 2 192 0 is_stmt 0 discriminator 1
 1819 0b24 2981      		ldd r18,Y+1
 1820 0b26 3A81      		ldd r19,Y+2
 1821 0b28 8F89      		ldd r24,Y+23
 1822 0b2a 988D      		ldd r25,Y+24
 1823 0b2c 2817      		cp r18,r24
 1824 0b2e 3907      		cpc r19,r25
 1825 0b30 04F4      		brge .+2
 1826 0b32 00C0      		rjmp .L59
 215:lp_solve_5.5/lp_presolve.c ****     }
 216:lp_solve_5.5/lp_presolve.c ****     if(fabs(hold) > lp->epsvalue)
 1827               		.loc 2 216 0 is_stmt 1
 1828 0b34 8F81      		ldd r24,Y+7
 1829 0b36 9885      		ldd r25,Y+8
 1830 0b38 A985      		ldd r26,Y+9
 1831 0b3a BA85      		ldd r27,Y+10
 1832 0b3c BF77      		andi r27,0x7f
 1833 0b3e 2B8D      		ldd r18,Y+27
 1834 0b40 3C8D      		ldd r19,Y+28
 1835 0b42 2A5E      		subi r18,-22
 1836 0b44 3C4F      		sbci r19,-4
 1837 0b46 F901      		movw r30,r18
 1838 0b48 2081      		ld r18,Z
 1839 0b4a 3181      		ldd r19,Z+1
 1840 0b4c 4281      		ldd r20,Z+2
 1841 0b4e 5381      		ldd r21,Z+3
 1842 0b50 BC01      		movw r22,r24
 1843 0b52 CD01      		movw r24,r26
 1844 0b54 0E94 0000 		call __gtsf2
 1845 0b58 1816      		cp __zero_reg__,r24
 1846 0b5a 04F4      		brge .L60
 217:lp_solve_5.5/lp_presolve.c ****       solution[ix] = hold;
 1847               		.loc 2 217 0
 1848 0b5c 8D89      		ldd r24,Y+21
 1849 0b5e 9E89      		ldd r25,Y+22
 1850 0b60 880F      		lsl r24
 1851 0b62 991F      		rol r25
 1852 0b64 880F      		lsl r24
 1853 0b66 991F      		rol r25
 1854 0b68 2D85      		ldd r18,Y+13
 1855 0b6a 3E85      		ldd r19,Y+14
 1856 0b6c 280F      		add r18,r24
 1857 0b6e 391F      		adc r19,r25
 1858 0b70 8F81      		ldd r24,Y+7
 1859 0b72 9885      		ldd r25,Y+8
 1860 0b74 A985      		ldd r26,Y+9
 1861 0b76 BA85      		ldd r27,Y+10
 1862 0b78 F901      		movw r30,r18
 1863 0b7a 8083      		st Z,r24
 1864 0b7c 9183      		std Z+1,r25
 1865 0b7e A283      		std Z+2,r26
 1866 0b80 B383      		std Z+3,r27
 1867               	.L60:
 184:lp_solve_5.5/lp_presolve.c ****     ix = mat->col_tag[j];
 1868               		.loc 2 184 0 discriminator 2
 1869 0b82 8B81      		ldd r24,Y+3
 1870 0b84 9C81      		ldd r25,Y+4
 1871 0b86 0197      		sbiw r24,1
 1872 0b88 9C83      		std Y+4,r25
 1873 0b8a 8B83      		std Y+3,r24
 1874               	.L53:
 184:lp_solve_5.5/lp_presolve.c ****     ix = mat->col_tag[j];
 1875               		.loc 2 184 0 is_stmt 0 discriminator 1
 1876 0b8c 8B81      		ldd r24,Y+3
 1877 0b8e 9C81      		ldd r25,Y+4
 1878 0b90 1816      		cp __zero_reg__,r24
 1879 0b92 1906      		cpc __zero_reg__,r25
 1880 0b94 04F4      		brge .+2
 1881 0b96 00C0      		rjmp .L62
 218:lp_solve_5.5/lp_presolve.c ****   }
 219:lp_solve_5.5/lp_presolve.c **** 
 220:lp_solve_5.5/lp_presolve.c ****   return( TRUE );
 1882               		.loc 2 220 0 is_stmt 1
 1883 0b98 81E0      		ldi r24,lo8(1)
 1884               	.L52:
 1885               	/* epilogue start */
 221:lp_solve_5.5/lp_presolve.c **** }
 1886               		.loc 2 221 0
 1887 0b9a 6D96      		adiw r28,29
 1888 0b9c 0FB6      		in __tmp_reg__,__SREG__
 1889 0b9e F894      		cli
 1890 0ba0 DEBF      		out __SP_H__,r29
 1891 0ba2 0FBE      		out __SREG__,__tmp_reg__
 1892 0ba4 CDBF      		out __SP_L__,r28
 1893 0ba6 DF91      		pop r29
 1894 0ba8 CF91      		pop r28
 1895 0baa 0895      		ret
 1896               		.cfi_endproc
 1897               	.LFE15:
 1899               	.global	presolve_freeUndo
 1901               	presolve_freeUndo:
 1902               	.LFB16:
 222:lp_solve_5.5/lp_presolve.c **** STATIC MYBOOL presolve_freeUndo(lprec *lp)
 223:lp_solve_5.5/lp_presolve.c **** {
 1903               		.loc 2 223 0
 1904               		.cfi_startproc
 1905 0bac CF93      		push r28
 1906               	.LCFI36:
 1907               		.cfi_def_cfa_offset 3
 1908               		.cfi_offset 28, -2
 1909 0bae DF93      		push r29
 1910               	.LCFI37:
 1911               		.cfi_def_cfa_offset 4
 1912               		.cfi_offset 29, -3
 1913 0bb0 00D0      		rcall .
 1914 0bb2 00D0      		rcall .
 1915               	.LCFI38:
 1916               		.cfi_def_cfa_offset 8
 1917 0bb4 CDB7      		in r28,__SP_L__
 1918 0bb6 DEB7      		in r29,__SP_H__
 1919               	.LCFI39:
 1920               		.cfi_def_cfa_register 28
 1921               	/* prologue: function */
 1922               	/* frame size = 4 */
 1923               	/* stack size = 6 */
 1924               	.L__stack_usage = 6
 1925 0bb8 9C83      		std Y+4,r25
 1926 0bba 8B83      		std Y+3,r24
 224:lp_solve_5.5/lp_presolve.c ****   presolveundorec *psundo = lp->presolve_undo;
 1927               		.loc 2 224 0
 1928 0bbc 8B81      		ldd r24,Y+3
 1929 0bbe 9C81      		ldd r25,Y+4
 1930 0bc0 8A59      		subi r24,-102
 1931 0bc2 9C4F      		sbci r25,-4
 1932 0bc4 FC01      		movw r30,r24
 1933 0bc6 8081      		ld r24,Z
 1934 0bc8 9181      		ldd r25,Z+1
 1935 0bca 9A83      		std Y+2,r25
 1936 0bcc 8983      		std Y+1,r24
 225:lp_solve_5.5/lp_presolve.c **** 
 226:lp_solve_5.5/lp_presolve.c ****   if(psundo == NULL)
 1937               		.loc 2 226 0
 1938 0bce 8981      		ldd r24,Y+1
 1939 0bd0 9A81      		ldd r25,Y+2
 1940 0bd2 892B      		or r24,r25
 1941 0bd4 01F4      		brne .L65
 227:lp_solve_5.5/lp_presolve.c ****     return( FALSE );
 1942               		.loc 2 227 0
 1943 0bd6 80E0      		ldi r24,0
 1944 0bd8 00C0      		rjmp .L66
 1945               	.L65:
 228:lp_solve_5.5/lp_presolve.c ****   FREE(psundo->orig_to_var);
 1946               		.loc 2 228 0
 1947 0bda 8981      		ldd r24,Y+1
 1948 0bdc 9A81      		ldd r25,Y+2
 1949 0bde FC01      		movw r30,r24
 1950 0be0 8285      		ldd r24,Z+10
 1951 0be2 9385      		ldd r25,Z+11
 1952 0be4 892B      		or r24,r25
 1953 0be6 01F0      		breq .L67
 1954               		.loc 2 228 0 is_stmt 0 discriminator 1
 1955 0be8 8981      		ldd r24,Y+1
 1956 0bea 9A81      		ldd r25,Y+2
 1957 0bec FC01      		movw r30,r24
 1958 0bee 8285      		ldd r24,Z+10
 1959 0bf0 9385      		ldd r25,Z+11
 1960 0bf2 0E94 0000 		call free
 1961 0bf6 8981      		ldd r24,Y+1
 1962 0bf8 9A81      		ldd r25,Y+2
 1963 0bfa FC01      		movw r30,r24
 1964 0bfc 1386      		std Z+11,__zero_reg__
 1965 0bfe 1286      		std Z+10,__zero_reg__
 1966               	.L67:
 229:lp_solve_5.5/lp_presolve.c ****   FREE(psundo->var_to_orig);
 1967               		.loc 2 229 0 is_stmt 1
 1968 0c00 8981      		ldd r24,Y+1
 1969 0c02 9A81      		ldd r25,Y+2
 1970 0c04 FC01      		movw r30,r24
 1971 0c06 8085      		ldd r24,Z+8
 1972 0c08 9185      		ldd r25,Z+9
 1973 0c0a 892B      		or r24,r25
 1974 0c0c 01F0      		breq .L68
 1975               		.loc 2 229 0 is_stmt 0 discriminator 1
 1976 0c0e 8981      		ldd r24,Y+1
 1977 0c10 9A81      		ldd r25,Y+2
 1978 0c12 FC01      		movw r30,r24
 1979 0c14 8085      		ldd r24,Z+8
 1980 0c16 9185      		ldd r25,Z+9
 1981 0c18 0E94 0000 		call free
 1982 0c1c 8981      		ldd r24,Y+1
 1983 0c1e 9A81      		ldd r25,Y+2
 1984 0c20 FC01      		movw r30,r24
 1985 0c22 1186      		std Z+9,__zero_reg__
 1986 0c24 1086      		std Z+8,__zero_reg__
 1987               	.L68:
 230:lp_solve_5.5/lp_presolve.c ****   FREE(psundo->fixed_rhs);
 1988               		.loc 2 230 0 is_stmt 1
 1989 0c26 8981      		ldd r24,Y+1
 1990 0c28 9A81      		ldd r25,Y+2
 1991 0c2a FC01      		movw r30,r24
 1992 0c2c 8485      		ldd r24,Z+12
 1993 0c2e 9585      		ldd r25,Z+13
 1994 0c30 892B      		or r24,r25
 1995 0c32 01F0      		breq .L69
 1996               		.loc 2 230 0 is_stmt 0 discriminator 1
 1997 0c34 8981      		ldd r24,Y+1
 1998 0c36 9A81      		ldd r25,Y+2
 1999 0c38 FC01      		movw r30,r24
 2000 0c3a 8485      		ldd r24,Z+12
 2001 0c3c 9585      		ldd r25,Z+13
 2002 0c3e 0E94 0000 		call free
 2003 0c42 8981      		ldd r24,Y+1
 2004 0c44 9A81      		ldd r25,Y+2
 2005 0c46 FC01      		movw r30,r24
 2006 0c48 1586      		std Z+13,__zero_reg__
 2007 0c4a 1486      		std Z+12,__zero_reg__
 2008               	.L69:
 231:lp_solve_5.5/lp_presolve.c ****   FREE(psundo->fixed_obj);
 2009               		.loc 2 231 0 is_stmt 1
 2010 0c4c 8981      		ldd r24,Y+1
 2011 0c4e 9A81      		ldd r25,Y+2
 2012 0c50 FC01      		movw r30,r24
 2013 0c52 8685      		ldd r24,Z+14
 2014 0c54 9785      		ldd r25,Z+15
 2015 0c56 892B      		or r24,r25
 2016 0c58 01F0      		breq .L70
 2017               		.loc 2 231 0 is_stmt 0 discriminator 1
 2018 0c5a 8981      		ldd r24,Y+1
 2019 0c5c 9A81      		ldd r25,Y+2
 2020 0c5e FC01      		movw r30,r24
 2021 0c60 8685      		ldd r24,Z+14
 2022 0c62 9785      		ldd r25,Z+15
 2023 0c64 0E94 0000 		call free
 2024 0c68 8981      		ldd r24,Y+1
 2025 0c6a 9A81      		ldd r25,Y+2
 2026 0c6c FC01      		movw r30,r24
 2027 0c6e 1786      		std Z+15,__zero_reg__
 2028 0c70 1686      		std Z+14,__zero_reg__
 2029               	.L70:
 232:lp_solve_5.5/lp_presolve.c ****   if(psundo->deletedA != NULL)
 2030               		.loc 2 232 0 is_stmt 1
 2031 0c72 8981      		ldd r24,Y+1
 2032 0c74 9A81      		ldd r25,Y+2
 2033 0c76 FC01      		movw r30,r24
 2034 0c78 8089      		ldd r24,Z+16
 2035 0c7a 9189      		ldd r25,Z+17
 2036 0c7c 892B      		or r24,r25
 2037 0c7e 01F0      		breq .L71
 233:lp_solve_5.5/lp_presolve.c ****     freeUndoLadder(&(psundo->deletedA));
 2038               		.loc 2 233 0
 2039 0c80 8981      		ldd r24,Y+1
 2040 0c82 9A81      		ldd r25,Y+2
 2041 0c84 4096      		adiw r24,16
 2042 0c86 0E94 0000 		call freeUndoLadder
 2043               	.L71:
 234:lp_solve_5.5/lp_presolve.c ****   if(psundo->primalundo != NULL)
 2044               		.loc 2 234 0
 2045 0c8a 8981      		ldd r24,Y+1
 2046 0c8c 9A81      		ldd r25,Y+2
 2047 0c8e FC01      		movw r30,r24
 2048 0c90 8289      		ldd r24,Z+18
 2049 0c92 9389      		ldd r25,Z+19
 2050 0c94 892B      		or r24,r25
 2051 0c96 01F0      		breq .L72
 235:lp_solve_5.5/lp_presolve.c ****     freeUndoLadder(&(psundo->primalundo));
 2052               		.loc 2 235 0
 2053 0c98 8981      		ldd r24,Y+1
 2054 0c9a 9A81      		ldd r25,Y+2
 2055 0c9c 4296      		adiw r24,18
 2056 0c9e 0E94 0000 		call freeUndoLadder
 2057               	.L72:
 236:lp_solve_5.5/lp_presolve.c ****   if(psundo->dualundo != NULL)
 2058               		.loc 2 236 0
 2059 0ca2 8981      		ldd r24,Y+1
 2060 0ca4 9A81      		ldd r25,Y+2
 2061 0ca6 FC01      		movw r30,r24
 2062 0ca8 8489      		ldd r24,Z+20
 2063 0caa 9589      		ldd r25,Z+21
 2064 0cac 892B      		or r24,r25
 2065 0cae 01F0      		breq .L73
 237:lp_solve_5.5/lp_presolve.c ****     freeUndoLadder(&(psundo->dualundo));
 2066               		.loc 2 237 0
 2067 0cb0 8981      		ldd r24,Y+1
 2068 0cb2 9A81      		ldd r25,Y+2
 2069 0cb4 4496      		adiw r24,20
 2070 0cb6 0E94 0000 		call freeUndoLadder
 2071               	.L73:
 238:lp_solve_5.5/lp_presolve.c ****   FREE(lp->presolve_undo);
 2072               		.loc 2 238 0
 2073 0cba 8B81      		ldd r24,Y+3
 2074 0cbc 9C81      		ldd r25,Y+4
 2075 0cbe 8A59      		subi r24,-102
 2076 0cc0 9C4F      		sbci r25,-4
 2077 0cc2 FC01      		movw r30,r24
 2078 0cc4 8081      		ld r24,Z
 2079 0cc6 9181      		ldd r25,Z+1
 2080 0cc8 892B      		or r24,r25
 2081 0cca 01F0      		breq .L74
 2082               		.loc 2 238 0 is_stmt 0 discriminator 1
 2083 0ccc 8B81      		ldd r24,Y+3
 2084 0cce 9C81      		ldd r25,Y+4
 2085 0cd0 8A59      		subi r24,-102
 2086 0cd2 9C4F      		sbci r25,-4
 2087 0cd4 FC01      		movw r30,r24
 2088 0cd6 8081      		ld r24,Z
 2089 0cd8 9181      		ldd r25,Z+1
 2090 0cda 0E94 0000 		call free
 2091 0cde 8B81      		ldd r24,Y+3
 2092 0ce0 9C81      		ldd r25,Y+4
 2093 0ce2 8A59      		subi r24,-102
 2094 0ce4 9C4F      		sbci r25,-4
 2095 0ce6 FC01      		movw r30,r24
 2096 0ce8 1182      		std Z+1,__zero_reg__
 2097 0cea 1082      		st Z,__zero_reg__
 2098               	.L74:
 239:lp_solve_5.5/lp_presolve.c ****   return( TRUE );
 2099               		.loc 2 239 0 is_stmt 1
 2100 0cec 81E0      		ldi r24,lo8(1)
 2101               	.L66:
 2102               	/* epilogue start */
 240:lp_solve_5.5/lp_presolve.c **** }
 2103               		.loc 2 240 0
 2104 0cee 0F90      		pop __tmp_reg__
 2105 0cf0 0F90      		pop __tmp_reg__
 2106 0cf2 0F90      		pop __tmp_reg__
 2107 0cf4 0F90      		pop __tmp_reg__
 2108 0cf6 DF91      		pop r29
 2109 0cf8 CF91      		pop r28
 2110 0cfa 0895      		ret
 2111               		.cfi_endproc
 2112               	.LFE16:
 2114               	.global	__divsf3
 2115               	.global	presolve_storeDualUndo
 2117               	presolve_storeDualUndo:
 2118               	.LFB17:
 241:lp_solve_5.5/lp_presolve.c **** 
 242:lp_solve_5.5/lp_presolve.c **** STATIC void presolve_storeDualUndo(presolverec *psdata, int rownr, int colnr)
 243:lp_solve_5.5/lp_presolve.c **** {
 2119               		.loc 2 243 0
 2120               		.cfi_startproc
 2121 0cfc 6F92      		push r6
 2122               	.LCFI40:
 2123               		.cfi_def_cfa_offset 3
 2124               		.cfi_offset 6, -2
 2125 0cfe 7F92      		push r7
 2126               	.LCFI41:
 2127               		.cfi_def_cfa_offset 4
 2128               		.cfi_offset 7, -3
 2129 0d00 8F92      		push r8
 2130               	.LCFI42:
 2131               		.cfi_def_cfa_offset 5
 2132               		.cfi_offset 8, -4
 2133 0d02 9F92      		push r9
 2134               	.LCFI43:
 2135               		.cfi_def_cfa_offset 6
 2136               		.cfi_offset 9, -5
 2137 0d04 AF92      		push r10
 2138               	.LCFI44:
 2139               		.cfi_def_cfa_offset 7
 2140               		.cfi_offset 10, -6
 2141 0d06 BF92      		push r11
 2142               	.LCFI45:
 2143               		.cfi_def_cfa_offset 8
 2144               		.cfi_offset 11, -7
 2145 0d08 CF92      		push r12
 2146               	.LCFI46:
 2147               		.cfi_def_cfa_offset 9
 2148               		.cfi_offset 12, -8
 2149 0d0a DF92      		push r13
 2150               	.LCFI47:
 2151               		.cfi_def_cfa_offset 10
 2152               		.cfi_offset 13, -9
 2153 0d0c EF92      		push r14
 2154               	.LCFI48:
 2155               		.cfi_def_cfa_offset 11
 2156               		.cfi_offset 14, -10
 2157 0d0e FF92      		push r15
 2158               	.LCFI49:
 2159               		.cfi_def_cfa_offset 12
 2160               		.cfi_offset 15, -11
 2161 0d10 0F93      		push r16
 2162               	.LCFI50:
 2163               		.cfi_def_cfa_offset 13
 2164               		.cfi_offset 16, -12
 2165 0d12 1F93      		push r17
 2166               	.LCFI51:
 2167               		.cfi_def_cfa_offset 14
 2168               		.cfi_offset 17, -13
 2169 0d14 CF93      		push r28
 2170               	.LCFI52:
 2171               		.cfi_def_cfa_offset 15
 2172               		.cfi_offset 28, -14
 2173 0d16 DF93      		push r29
 2174               	.LCFI53:
 2175               		.cfi_def_cfa_offset 16
 2176               		.cfi_offset 29, -15
 2177 0d18 CDB7      		in r28,__SP_L__
 2178 0d1a DEB7      		in r29,__SP_H__
 2179               	.LCFI54:
 2180               		.cfi_def_cfa_register 28
 2181 0d1c 6597      		sbiw r28,21
 2182               	.LCFI55:
 2183               		.cfi_def_cfa_offset 37
 2184 0d1e 0FB6      		in __tmp_reg__,__SREG__
 2185 0d20 F894      		cli
 2186 0d22 DEBF      		out __SP_H__,r29
 2187 0d24 0FBE      		out __SREG__,__tmp_reg__
 2188 0d26 CDBF      		out __SP_L__,r28
 2189               	/* prologue: function */
 2190               	/* frame size = 21 */
 2191               	/* stack size = 35 */
 2192               	.L__stack_usage = 35
 2193 0d28 998B      		std Y+17,r25
 2194 0d2a 888B      		std Y+16,r24
 2195 0d2c 7B8B      		std Y+19,r23
 2196 0d2e 6A8B      		std Y+18,r22
 2197 0d30 5D8B      		std Y+21,r21
 2198 0d32 4C8B      		std Y+20,r20
 244:lp_solve_5.5/lp_presolve.c ****   lprec    *lp = psdata->lp;
 2199               		.loc 2 244 0
 2200 0d34 8889      		ldd r24,Y+16
 2201 0d36 9989      		ldd r25,Y+17
 2202 0d38 FC01      		movw r30,r24
 2203 0d3a 8289      		ldd r24,Z+18
 2204 0d3c 9389      		ldd r25,Z+19
 2205 0d3e 9D83      		std Y+5,r25
 2206 0d40 8C83      		std Y+4,r24
 245:lp_solve_5.5/lp_presolve.c ****   MYBOOL   firstdone = FALSE;
 2207               		.loc 2 245 0
 2208 0d42 1982      		std Y+1,__zero_reg__
 246:lp_solve_5.5/lp_presolve.c ****   int      ix, iix, item;
 247:lp_solve_5.5/lp_presolve.c ****   REAL     Aij = get_mat(lp, rownr, colnr);
 2209               		.loc 2 247 0
 2210 0d44 4C89      		ldd r20,Y+20
 2211 0d46 5D89      		ldd r21,Y+21
 2212 0d48 2A89      		ldd r18,Y+18
 2213 0d4a 3B89      		ldd r19,Y+19
 2214 0d4c 8C81      		ldd r24,Y+4
 2215 0d4e 9D81      		ldd r25,Y+5
 2216 0d50 B901      		movw r22,r18
 2217 0d52 0E94 0000 		call get_mat
 2218 0d56 DC01      		movw r26,r24
 2219 0d58 CB01      		movw r24,r22
 2220 0d5a 8E83      		std Y+6,r24
 2221 0d5c 9F83      		std Y+7,r25
 2222 0d5e A887      		std Y+8,r26
 2223 0d60 B987      		std Y+9,r27
 248:lp_solve_5.5/lp_presolve.c ****   MATrec   *mat = lp->matA;
 2224               		.loc 2 248 0
 2225 0d62 8C81      		ldd r24,Y+4
 2226 0d64 9D81      		ldd r25,Y+5
 2227 0d66 8A54      		subi r24,74
 2228 0d68 9D4F      		sbci r25,-3
 2229 0d6a FC01      		movw r30,r24
 2230 0d6c 8081      		ld r24,Z
 2231 0d6e 9181      		ldd r25,Z+1
 2232 0d70 9B87      		std Y+11,r25
 2233 0d72 8A87      		std Y+10,r24
 249:lp_solve_5.5/lp_presolve.c **** 
 250:lp_solve_5.5/lp_presolve.c ****   if(presolve_collength(psdata, colnr) == 0)
 2234               		.loc 2 250 0
 2235 0d74 2C89      		ldd r18,Y+20
 2236 0d76 3D89      		ldd r19,Y+21
 2237 0d78 8889      		ldd r24,Y+16
 2238 0d7a 9989      		ldd r25,Y+17
 2239 0d7c B901      		movw r22,r18
 2240 0d7e 0E94 0000 		call presolve_collength
 2241 0d82 892B      		or r24,r25
 2242 0d84 01F4      		brne .+2
 2243 0d86 00C0      		rjmp .L83
 251:lp_solve_5.5/lp_presolve.c ****     return;
 252:lp_solve_5.5/lp_presolve.c **** 
 253:lp_solve_5.5/lp_presolve.c ****   /* Add undo information for the dual of the deleted constraint */
 254:lp_solve_5.5/lp_presolve.c ****   item = 0;
 2244               		.loc 2 254 0
 2245 0d88 1F86      		std Y+15,__zero_reg__
 2246 0d8a 1E86      		std Y+14,__zero_reg__
 255:lp_solve_5.5/lp_presolve.c ****   for(ix = presolve_nextrow(psdata, colnr, &item); ix >= 0;
 2247               		.loc 2 255 0
 2248 0d8c AE01      		movw r20,r28
 2249 0d8e 425F      		subi r20,-14
 2250 0d90 5F4F      		sbci r21,-1
 2251 0d92 2C89      		ldd r18,Y+20
 2252 0d94 3D89      		ldd r19,Y+21
 2253 0d96 8889      		ldd r24,Y+16
 2254 0d98 9989      		ldd r25,Y+17
 2255 0d9a B901      		movw r22,r18
 2256 0d9c 0E94 0000 		call presolve_nextrow
 2257 0da0 9B83      		std Y+3,r25
 2258 0da2 8A83      		std Y+2,r24
 2259 0da4 00C0      		rjmp .L78
 2260               	.L82:
 256:lp_solve_5.5/lp_presolve.c ****       ix = presolve_nextrow(psdata, colnr, &item)) {
 257:lp_solve_5.5/lp_presolve.c ****     iix = COL_MAT_ROWNR(ix);
 2261               		.loc 2 257 0
 2262 0da6 8A85      		ldd r24,Y+10
 2263 0da8 9B85      		ldd r25,Y+11
 2264 0daa FC01      		movw r30,r24
 2265 0dac 2685      		ldd r18,Z+14
 2266 0dae 3785      		ldd r19,Z+15
 2267 0db0 8A81      		ldd r24,Y+2
 2268 0db2 9B81      		ldd r25,Y+3
 2269 0db4 880F      		lsl r24
 2270 0db6 991F      		rol r25
 2271 0db8 820F      		add r24,r18
 2272 0dba 931F      		adc r25,r19
 2273 0dbc FC01      		movw r30,r24
 2274 0dbe 8081      		ld r24,Z
 2275 0dc0 9181      		ldd r25,Z+1
 2276 0dc2 9D87      		std Y+13,r25
 2277 0dc4 8C87      		std Y+12,r24
 258:lp_solve_5.5/lp_presolve.c ****     if(iix == rownr)
 2278               		.loc 2 258 0
 2279 0dc6 2C85      		ldd r18,Y+12
 2280 0dc8 3D85      		ldd r19,Y+13
 2281 0dca 8A89      		ldd r24,Y+18
 2282 0dcc 9B89      		ldd r25,Y+19
 2283 0dce 2817      		cp r18,r24
 2284 0dd0 3907      		cpc r19,r25
 2285 0dd2 01F4      		brne .+2
 2286 0dd4 00C0      		rjmp .L84
 259:lp_solve_5.5/lp_presolve.c ****       continue;
 260:lp_solve_5.5/lp_presolve.c ****     if(!firstdone)
 2287               		.loc 2 260 0
 2288 0dd6 8981      		ldd r24,Y+1
 2289 0dd8 8823      		tst r24
 2290 0dda 01F4      		brne .L81
 261:lp_solve_5.5/lp_presolve.c ****       firstdone = addUndoPresolve(lp, FALSE, rownr, get_mat(lp, 0, colnr)/Aij,
 262:lp_solve_5.5/lp_presolve.c ****                                                     get_mat_byindex(lp, ix, FALSE, TRUE)/Aij, iix);
 2291               		.loc 2 262 0
 2292 0ddc 6A81      		ldd r22,Y+2
 2293 0dde 7B81      		ldd r23,Y+3
 2294 0de0 8C81      		ldd r24,Y+4
 2295 0de2 9D81      		ldd r25,Y+5
 2296 0de4 21E0      		ldi r18,lo8(1)
 2297 0de6 40E0      		ldi r20,0
 2298 0de8 0E94 0000 		call get_mat_byindex
 2299 0dec DC01      		movw r26,r24
 2300 0dee CB01      		movw r24,r22
 261:lp_solve_5.5/lp_presolve.c ****       firstdone = addUndoPresolve(lp, FALSE, rownr, get_mat(lp, 0, colnr)/Aij,
 2301               		.loc 2 261 0
 2302 0df0 2E81      		ldd r18,Y+6
 2303 0df2 3F81      		ldd r19,Y+7
 2304 0df4 4885      		ldd r20,Y+8
 2305 0df6 5985      		ldd r21,Y+9
 2306 0df8 BC01      		movw r22,r24
 2307 0dfa CD01      		movw r24,r26
 2308 0dfc 0E94 0000 		call __divsf3
 2309 0e00 DC01      		movw r26,r24
 2310 0e02 CB01      		movw r24,r22
 2311 0e04 6C01      		movw r12,r24
 2312 0e06 7D01      		movw r14,r26
 2313 0e08 2C89      		ldd r18,Y+20
 2314 0e0a 3D89      		ldd r19,Y+21
 2315 0e0c 8C81      		ldd r24,Y+4
 2316 0e0e 9D81      		ldd r25,Y+5
 2317 0e10 A901      		movw r20,r18
 2318 0e12 60E0      		ldi r22,0
 2319 0e14 70E0      		ldi r23,0
 2320 0e16 0E94 0000 		call get_mat
 2321 0e1a DC01      		movw r26,r24
 2322 0e1c CB01      		movw r24,r22
 2323 0e1e 2E81      		ldd r18,Y+6
 2324 0e20 3F81      		ldd r19,Y+7
 2325 0e22 4885      		ldd r20,Y+8
 2326 0e24 5985      		ldd r21,Y+9
 2327 0e26 BC01      		movw r22,r24
 2328 0e28 CD01      		movw r24,r26
 2329 0e2a 0E94 0000 		call __divsf3
 2330 0e2e DC01      		movw r26,r24
 2331 0e30 CB01      		movw r24,r22
 2332 0e32 3C01      		movw r6,r24
 2333 0e34 4D01      		movw r8,r26
 2334 0e36 2C85      		ldd r18,Y+12
 2335 0e38 3D85      		ldd r19,Y+13
 2336 0e3a 4A89      		ldd r20,Y+18
 2337 0e3c 5B89      		ldd r21,Y+19
 2338 0e3e 8C81      		ldd r24,Y+4
 2339 0e40 9D81      		ldd r25,Y+5
 2340 0e42 5901      		movw r10,r18
 2341 0e44 9401      		movw r18,r8
 2342 0e46 8301      		movw r16,r6
 2343 0e48 60E0      		ldi r22,0
 2344 0e4a 0E94 0000 		call addUndoPresolve
 2345 0e4e 8983      		std Y+1,r24
 2346 0e50 00C0      		rjmp .L80
 2347               	.L81:
 263:lp_solve_5.5/lp_presolve.c ****     else
 264:lp_solve_5.5/lp_presolve.c ****       appendUndoPresolve(lp, FALSE, get_mat_byindex(lp, ix, FALSE, TRUE)/Aij, iix);
 2348               		.loc 2 264 0
 2349 0e52 6A81      		ldd r22,Y+2
 2350 0e54 7B81      		ldd r23,Y+3
 2351 0e56 8C81      		ldd r24,Y+4
 2352 0e58 9D81      		ldd r25,Y+5
 2353 0e5a 21E0      		ldi r18,lo8(1)
 2354 0e5c 40E0      		ldi r20,0
 2355 0e5e 0E94 0000 		call get_mat_byindex
 2356 0e62 DC01      		movw r26,r24
 2357 0e64 CB01      		movw r24,r22
 2358 0e66 2E81      		ldd r18,Y+6
 2359 0e68 3F81      		ldd r19,Y+7
 2360 0e6a 4885      		ldd r20,Y+8
 2361 0e6c 5985      		ldd r21,Y+9
 2362 0e6e BC01      		movw r22,r24
 2363 0e70 CD01      		movw r24,r26
 2364 0e72 0E94 0000 		call __divsf3
 2365 0e76 DC01      		movw r26,r24
 2366 0e78 CB01      		movw r24,r22
 2367 0e7a AC01      		movw r20,r24
 2368 0e7c BD01      		movw r22,r26
 2369 0e7e 2C85      		ldd r18,Y+12
 2370 0e80 3D85      		ldd r19,Y+13
 2371 0e82 8C81      		ldd r24,Y+4
 2372 0e84 9D81      		ldd r25,Y+5
 2373 0e86 8901      		movw r16,r18
 2374 0e88 9A01      		movw r18,r20
 2375 0e8a AB01      		movw r20,r22
 2376 0e8c 60E0      		ldi r22,0
 2377 0e8e 0E94 0000 		call appendUndoPresolve
 2378 0e92 00C0      		rjmp .L80
 2379               	.L84:
 259:lp_solve_5.5/lp_presolve.c ****     if(!firstdone)
 2380               		.loc 2 259 0
 2381 0e94 0000      		nop
 2382               	.L80:
 256:lp_solve_5.5/lp_presolve.c ****     iix = COL_MAT_ROWNR(ix);
 2383               		.loc 2 256 0
 2384 0e96 AE01      		movw r20,r28
 2385 0e98 425F      		subi r20,-14
 2386 0e9a 5F4F      		sbci r21,-1
 2387 0e9c 2C89      		ldd r18,Y+20
 2388 0e9e 3D89      		ldd r19,Y+21
 2389 0ea0 8889      		ldd r24,Y+16
 2390 0ea2 9989      		ldd r25,Y+17
 2391 0ea4 B901      		movw r22,r18
 2392 0ea6 0E94 0000 		call presolve_nextrow
 2393 0eaa 9B83      		std Y+3,r25
 2394 0eac 8A83      		std Y+2,r24
 2395               	.L78:
 255:lp_solve_5.5/lp_presolve.c ****       ix = presolve_nextrow(psdata, colnr, &item)) {
 2396               		.loc 2 255 0 discriminator 1
 2397 0eae 8A81      		ldd r24,Y+2
 2398 0eb0 9B81      		ldd r25,Y+3
 2399 0eb2 9923      		tst r25
 2400 0eb4 04F0      		brlt .+2
 2401 0eb6 00C0      		rjmp .L82
 2402 0eb8 00C0      		rjmp .L75
 2403               	.L83:
 251:lp_solve_5.5/lp_presolve.c **** 
 2404               		.loc 2 251 0
 2405 0eba 0000      		nop
 2406               	.L75:
 2407               	/* epilogue start */
 265:lp_solve_5.5/lp_presolve.c ****   }
 266:lp_solve_5.5/lp_presolve.c **** }
 2408               		.loc 2 266 0
 2409 0ebc 6596      		adiw r28,21
 2410 0ebe 0FB6      		in __tmp_reg__,__SREG__
 2411 0ec0 F894      		cli
 2412 0ec2 DEBF      		out __SP_H__,r29
 2413 0ec4 0FBE      		out __SREG__,__tmp_reg__
 2414 0ec6 CDBF      		out __SP_L__,r28
 2415 0ec8 DF91      		pop r29
 2416 0eca CF91      		pop r28
 2417 0ecc 1F91      		pop r17
 2418 0ece 0F91      		pop r16
 2419 0ed0 FF90      		pop r15
 2420 0ed2 EF90      		pop r14
 2421 0ed4 DF90      		pop r13
 2422 0ed6 CF90      		pop r12
 2423 0ed8 BF90      		pop r11
 2424 0eda AF90      		pop r10
 2425 0edc 9F90      		pop r9
 2426 0ede 8F90      		pop r8
 2427 0ee0 7F90      		pop r7
 2428 0ee2 6F90      		pop r6
 2429 0ee4 0895      		ret
 2430               		.cfi_endproc
 2431               	.LFE17:
 2433               		.section	.rodata
 2434               	.LC4:
 2435 0060 7072 6573 		.string	"presolve_SOScheck: A - Column index %d is outside of valid range\n"
 2435      6F6C 7665 
 2435      5F53 4F53 
 2435      6368 6563 
 2435      6B3A 2041 
 2436               	.LC5:
 2437 00a2 7072 6573 		.string	"presolve_SOScheck: B - Column index %d has been marked for deletion\n"
 2437      6F6C 7665 
 2437      5F53 4F53 
 2437      6368 6563 
 2437      6B3A 2042 
 2438               	.LC6:
 2439 00e7 7072 6573 		.string	"presolve_SOScheck: C - Column index %d not found in fast search array\n"
 2439      6F6C 7665 
 2439      5F53 4F53 
 2439      6368 6563 
 2439      6B3A 2043 
 2440               	.LC7:
 2441 012e 7072 6573 		.string	"presolve_SOScheck: D - Column index %d was not found in sparse array\n"
 2441      6F6C 7665 
 2441      5F53 4F53 
 2441      6368 6563 
 2441      6B3A 2044 
 2442               	.LC8:
 2443 0174 7072 6573 		.string	"presolve_SOScheck: E - Sparse array did not indicate column index %d as member of SOS %d\
 2443      6F6C 7665 
 2443      5F53 4F53 
 2443      6368 6563 
 2443      6B3A 2045 
 2444               	.LC9:
 2445 01ce 7072 6573 		.string	"presolve_SOScheck: There were %d errors\n"
 2445      6F6C 7665 
 2445      5F53 4F53 
 2445      6368 6563 
 2445      6B3A 2054 
 2446               		.text
 2447               	.global	presolve_SOScheck
 2449               	presolve_SOScheck:
 2450               	.LFB18:
 267:lp_solve_5.5/lp_presolve.c **** 
 268:lp_solve_5.5/lp_presolve.c **** /* ----------------------------------------------------------------------------- */
 269:lp_solve_5.5/lp_presolve.c **** /* Presolve debugging routines                                                   */
 270:lp_solve_5.5/lp_presolve.c **** /* ----------------------------------------------------------------------------- */
 271:lp_solve_5.5/lp_presolve.c **** STATIC MYBOOL presolve_SOScheck(presolverec *psdata)
 272:lp_solve_5.5/lp_presolve.c **** {
 2451               		.loc 2 272 0
 2452               		.cfi_startproc
 2453 0ee6 CF93      		push r28
 2454               	.LCFI56:
 2455               		.cfi_def_cfa_offset 3
 2456               		.cfi_offset 28, -2
 2457 0ee8 DF93      		push r29
 2458               	.LCFI57:
 2459               		.cfi_def_cfa_offset 4
 2460               		.cfi_offset 29, -3
 2461 0eea CDB7      		in r28,__SP_L__
 2462 0eec DEB7      		in r29,__SP_H__
 2463               	.LCFI58:
 2464               		.cfi_def_cfa_register 28
 2465 0eee 6997      		sbiw r28,25
 2466               	.LCFI59:
 2467               		.cfi_def_cfa_offset 29
 2468 0ef0 0FB6      		in __tmp_reg__,__SREG__
 2469 0ef2 F894      		cli
 2470 0ef4 DEBF      		out __SP_H__,r29
 2471 0ef6 0FBE      		out __SREG__,__tmp_reg__
 2472 0ef8 CDBF      		out __SP_L__,r28
 2473               	/* prologue: function */
 2474               	/* frame size = 25 */
 2475               	/* stack size = 27 */
 2476               	.L__stack_usage = 27
 2477 0efa 998F      		std Y+25,r25
 2478 0efc 888F      		std Y+24,r24
 273:lp_solve_5.5/lp_presolve.c ****   MYBOOL status = TRUE;
 2479               		.loc 2 273 0
 2480 0efe 81E0      		ldi r24,lo8(1)
 2481 0f00 8B87      		std Y+11,r24
 274:lp_solve_5.5/lp_presolve.c ****   lprec  *lp = psdata->lp;
 2482               		.loc 2 274 0
 2483 0f02 888D      		ldd r24,Y+24
 2484 0f04 998D      		ldd r25,Y+25
 2485 0f06 FC01      		movw r30,r24
 2486 0f08 8289      		ldd r24,Z+18
 2487 0f0a 9389      		ldd r25,Z+19
 2488 0f0c 9D87      		std Y+13,r25
 2489 0f0e 8C87      		std Y+12,r24
 275:lp_solve_5.5/lp_presolve.c ****   int    *list, i, j, n, k, nk, colnr, nSOS = SOS_count(lp), nerr = 0;
 2490               		.loc 2 275 0
 2491 0f10 8C85      		ldd r24,Y+12
 2492 0f12 9D85      		ldd r25,Y+13
 2493 0f14 0E94 0000 		call SOS_count
 2494 0f18 9F87      		std Y+15,r25
 2495 0f1a 8E87      		std Y+14,r24
 2496 0f1c 1A86      		std Y+10,__zero_reg__
 2497 0f1e 1986      		std Y+9,__zero_reg__
 276:lp_solve_5.5/lp_presolve.c ****   SOSrec *SOS;
 277:lp_solve_5.5/lp_presolve.c **** 
 278:lp_solve_5.5/lp_presolve.c ****   if(nSOS == 0)
 2498               		.loc 2 278 0
 2499 0f20 8E85      		ldd r24,Y+14
 2500 0f22 9F85      		ldd r25,Y+15
 2501 0f24 892B      		or r24,r25
 2502 0f26 01F4      		brne .L86
 279:lp_solve_5.5/lp_presolve.c ****     return( status );
 2503               		.loc 2 279 0
 2504 0f28 8B85      		ldd r24,Y+11
 2505 0f2a 00C0      		rjmp .L87
 2506               	.L86:
 280:lp_solve_5.5/lp_presolve.c **** 
 281:lp_solve_5.5/lp_presolve.c ****   /* For each SOS and each member check validity */
 282:lp_solve_5.5/lp_presolve.c ****   for(i = 1; i<= nSOS; i++) {
 2507               		.loc 2 282 0
 2508 0f2c 81E0      		ldi r24,lo8(1)
 2509 0f2e 90E0      		ldi r25,0
 2510 0f30 9A83      		std Y+2,r25
 2511 0f32 8983      		std Y+1,r24
 2512 0f34 00C0      		rjmp .L88
 2513               	.L99:
 283:lp_solve_5.5/lp_presolve.c ****     SOS = lp->SOS->sos_list[i-1];
 2514               		.loc 2 283 0
 2515 0f36 8C85      		ldd r24,Y+12
 2516 0f38 9D85      		ldd r25,Y+13
 2517 0f3a 8256      		subi r24,98
 2518 0f3c 9D4F      		sbci r25,-3
 2519 0f3e FC01      		movw r30,r24
 2520 0f40 8081      		ld r24,Z
 2521 0f42 9181      		ldd r25,Z+1
 2522 0f44 FC01      		movw r30,r24
 2523 0f46 2281      		ldd r18,Z+2
 2524 0f48 3381      		ldd r19,Z+3
 2525 0f4a 8981      		ldd r24,Y+1
 2526 0f4c 9A81      		ldd r25,Y+2
 2527 0f4e 8150      		subi r24,1
 2528 0f50 9048      		sbci r25,-128
 2529 0f52 880F      		lsl r24
 2530 0f54 991F      		rol r25
 2531 0f56 820F      		add r24,r18
 2532 0f58 931F      		adc r25,r19
 2533 0f5a FC01      		movw r30,r24
 2534 0f5c 8081      		ld r24,Z
 2535 0f5e 9181      		ldd r25,Z+1
 2536 0f60 998B      		std Y+17,r25
 2537 0f62 888B      		std Y+16,r24
 284:lp_solve_5.5/lp_presolve.c ****     list = SOS->members;
 2538               		.loc 2 284 0
 2539 0f64 8889      		ldd r24,Y+16
 2540 0f66 9989      		ldd r25,Y+17
 2541 0f68 FC01      		movw r30,r24
 2542 0f6a 8585      		ldd r24,Z+13
 2543 0f6c 9685      		ldd r25,Z+14
 2544 0f6e 9B8B      		std Y+19,r25
 2545 0f70 8A8B      		std Y+18,r24
 285:lp_solve_5.5/lp_presolve.c ****     n = list[0];
 2546               		.loc 2 285 0
 2547 0f72 8A89      		ldd r24,Y+18
 2548 0f74 9B89      		ldd r25,Y+19
 2549 0f76 FC01      		movw r30,r24
 2550 0f78 8081      		ld r24,Z
 2551 0f7a 9181      		ldd r25,Z+1
 2552 0f7c 9D8B      		std Y+21,r25
 2553 0f7e 8C8B      		std Y+20,r24
 286:lp_solve_5.5/lp_presolve.c ****     for(j = 1; j<= n; j++) {
 2554               		.loc 2 286 0
 2555 0f80 81E0      		ldi r24,lo8(1)
 2556 0f82 90E0      		ldi r25,0
 2557 0f84 9C83      		std Y+4,r25
 2558 0f86 8B83      		std Y+3,r24
 2559 0f88 00C0      		rjmp .L89
 2560               	.L98:
 287:lp_solve_5.5/lp_presolve.c ****       colnr = list[j];
 2561               		.loc 2 287 0
 2562 0f8a 8B81      		ldd r24,Y+3
 2563 0f8c 9C81      		ldd r25,Y+4
 2564 0f8e 880F      		lsl r24
 2565 0f90 991F      		rol r25
 2566 0f92 2A89      		ldd r18,Y+18
 2567 0f94 3B89      		ldd r19,Y+19
 2568 0f96 820F      		add r24,r18
 2569 0f98 931F      		adc r25,r19
 2570 0f9a FC01      		movw r30,r24
 2571 0f9c 8081      		ld r24,Z
 2572 0f9e 9181      		ldd r25,Z+1
 2573 0fa0 9887      		std Y+8,r25
 2574 0fa2 8F83      		std Y+7,r24
 288:lp_solve_5.5/lp_presolve.c ****       /* Check valid range */
 289:lp_solve_5.5/lp_presolve.c ****       if((colnr < 1) || (colnr > lp->columns)) {
 2575               		.loc 2 289 0
 2576 0fa4 8F81      		ldd r24,Y+7
 2577 0fa6 9885      		ldd r25,Y+8
 2578 0fa8 1816      		cp __zero_reg__,r24
 2579 0faa 1906      		cpc __zero_reg__,r25
 2580 0fac 04F4      		brge .L90
 2581               		.loc 2 289 0 is_stmt 0 discriminator 1
 2582 0fae 8C85      		ldd r24,Y+12
 2583 0fb0 9D85      		ldd r25,Y+13
 2584 0fb2 8451      		subi r24,20
 2585 0fb4 9E4F      		sbci r25,-2
 2586 0fb6 FC01      		movw r30,r24
 2587 0fb8 2081      		ld r18,Z
 2588 0fba 3181      		ldd r19,Z+1
 2589 0fbc 8F81      		ldd r24,Y+7
 2590 0fbe 9885      		ldd r25,Y+8
 2591 0fc0 2817      		cp r18,r24
 2592 0fc2 3907      		cpc r19,r25
 2593 0fc4 04F4      		brge .L91
 2594               	.L90:
 290:lp_solve_5.5/lp_presolve.c ****         nerr++;
 2595               		.loc 2 290 0 is_stmt 1
 2596 0fc6 8985      		ldd r24,Y+9
 2597 0fc8 9A85      		ldd r25,Y+10
 2598 0fca 0196      		adiw r24,1
 2599 0fcc 9A87      		std Y+10,r25
 2600 0fce 8987      		std Y+9,r24
 291:lp_solve_5.5/lp_presolve.c ****         report(lp, IMPORTANT, "presolve_SOScheck: A - Column index %d is outside of valid range\n",
 2601               		.loc 2 291 0
 2602 0fd0 8885      		ldd r24,Y+8
 2603 0fd2 8F93      		push r24
 2604 0fd4 8F81      		ldd r24,Y+7
 2605 0fd6 8F93      		push r24
 2606 0fd8 80E0      		ldi r24,lo8(.LC4)
 2607 0fda 90E0      		ldi r25,hi8(.LC4)
 2608 0fdc 892F      		mov r24,r25
 2609 0fde 8F93      		push r24
 2610 0fe0 80E0      		ldi r24,lo8(.LC4)
 2611 0fe2 90E0      		ldi r25,hi8(.LC4)
 2612 0fe4 8F93      		push r24
 2613 0fe6 1F92      		push __zero_reg__
 2614 0fe8 83E0      		ldi r24,lo8(3)
 2615 0fea 8F93      		push r24
 2616 0fec 8D85      		ldd r24,Y+13
 2617 0fee 8F93      		push r24
 2618 0ff0 8C85      		ldd r24,Y+12
 2619 0ff2 8F93      		push r24
 2620 0ff4 0E94 0000 		call report
 2621 0ff8 8DB7      		in r24,__SP_L__
 2622 0ffa 9EB7      		in r25,__SP_H__
 2623 0ffc 0896      		adiw r24,8
 2624 0ffe 0FB6      		in __tmp_reg__,__SREG__
 2625 1000 F894      		cli
 2626 1002 DEBF      		out __SP_H__,r29
 2627 1004 0FBE      		out __SREG__,__tmp_reg__
 2628 1006 CDBF      		out __SP_L__,r28
 2629               	.L91:
 292:lp_solve_5.5/lp_presolve.c ****                               colnr);
 293:lp_solve_5.5/lp_presolve.c ****       }
 294:lp_solve_5.5/lp_presolve.c ****       /* Check for deletion */
 295:lp_solve_5.5/lp_presolve.c ****       if(!isActiveLink(psdata->cols->varmap, colnr)) {
 2630               		.loc 2 295 0
 2631 1008 888D      		ldd r24,Y+24
 2632 100a 998D      		ldd r25,Y+25
 2633 100c FC01      		movw r30,r24
 2634 100e 8281      		ldd r24,Z+2
 2635 1010 9381      		ldd r25,Z+3
 2636 1012 FC01      		movw r30,r24
 2637 1014 8081      		ld r24,Z
 2638 1016 9181      		ldd r25,Z+1
 2639 1018 2F81      		ldd r18,Y+7
 2640 101a 3885      		ldd r19,Y+8
 2641 101c B901      		movw r22,r18
 2642 101e 0E94 0000 		call isActiveLink
 2643 1022 8823      		tst r24
 2644 1024 01F4      		brne .L92
 296:lp_solve_5.5/lp_presolve.c ****         nerr++;
 2645               		.loc 2 296 0
 2646 1026 8985      		ldd r24,Y+9
 2647 1028 9A85      		ldd r25,Y+10
 2648 102a 0196      		adiw r24,1
 2649 102c 9A87      		std Y+10,r25
 2650 102e 8987      		std Y+9,r24
 297:lp_solve_5.5/lp_presolve.c ****         report(lp, IMPORTANT, "presolve_SOScheck: B - Column index %d has been marked for deletion\
 2651               		.loc 2 297 0
 2652 1030 8885      		ldd r24,Y+8
 2653 1032 8F93      		push r24
 2654 1034 8F81      		ldd r24,Y+7
 2655 1036 8F93      		push r24
 2656 1038 80E0      		ldi r24,lo8(.LC5)
 2657 103a 90E0      		ldi r25,hi8(.LC5)
 2658 103c 892F      		mov r24,r25
 2659 103e 8F93      		push r24
 2660 1040 80E0      		ldi r24,lo8(.LC5)
 2661 1042 90E0      		ldi r25,hi8(.LC5)
 2662 1044 8F93      		push r24
 2663 1046 1F92      		push __zero_reg__
 2664 1048 83E0      		ldi r24,lo8(3)
 2665 104a 8F93      		push r24
 2666 104c 8D85      		ldd r24,Y+13
 2667 104e 8F93      		push r24
 2668 1050 8C85      		ldd r24,Y+12
 2669 1052 8F93      		push r24
 2670 1054 0E94 0000 		call report
 2671 1058 8DB7      		in r24,__SP_L__
 2672 105a 9EB7      		in r25,__SP_H__
 2673 105c 0896      		adiw r24,8
 2674 105e 0FB6      		in __tmp_reg__,__SREG__
 2675 1060 F894      		cli
 2676 1062 DEBF      		out __SP_H__,r29
 2677 1064 0FBE      		out __SREG__,__tmp_reg__
 2678 1066 CDBF      		out __SP_L__,r28
 2679               	.L92:
 298:lp_solve_5.5/lp_presolve.c ****                               colnr);
 299:lp_solve_5.5/lp_presolve.c ****       }
 300:lp_solve_5.5/lp_presolve.c ****       /* Check if sorted member array is Ok */
 301:lp_solve_5.5/lp_presolve.c ****       if(SOS_member_index(lp->SOS, i, colnr) != j) {
 2680               		.loc 2 301 0
 2681 1068 8C85      		ldd r24,Y+12
 2682 106a 9D85      		ldd r25,Y+13
 2683 106c 8256      		subi r24,98
 2684 106e 9D4F      		sbci r25,-3
 2685 1070 FC01      		movw r30,r24
 2686 1072 8081      		ld r24,Z
 2687 1074 9181      		ldd r25,Z+1
 2688 1076 4F81      		ldd r20,Y+7
 2689 1078 5885      		ldd r21,Y+8
 2690 107a 2981      		ldd r18,Y+1
 2691 107c 3A81      		ldd r19,Y+2
 2692 107e B901      		movw r22,r18
 2693 1080 0E94 0000 		call SOS_member_index
 2694 1084 9C01      		movw r18,r24
 2695 1086 8B81      		ldd r24,Y+3
 2696 1088 9C81      		ldd r25,Y+4
 2697 108a 2817      		cp r18,r24
 2698 108c 3907      		cpc r19,r25
 2699 108e 01F0      		breq .L93
 302:lp_solve_5.5/lp_presolve.c ****         nerr++;
 2700               		.loc 2 302 0
 2701 1090 8985      		ldd r24,Y+9
 2702 1092 9A85      		ldd r25,Y+10
 2703 1094 0196      		adiw r24,1
 2704 1096 9A87      		std Y+10,r25
 2705 1098 8987      		std Y+9,r24
 303:lp_solve_5.5/lp_presolve.c ****         report(lp, IMPORTANT, "presolve_SOScheck: C - Column index %d not found in fast search arra
 2706               		.loc 2 303 0
 2707 109a 8885      		ldd r24,Y+8
 2708 109c 8F93      		push r24
 2709 109e 8F81      		ldd r24,Y+7
 2710 10a0 8F93      		push r24
 2711 10a2 80E0      		ldi r24,lo8(.LC6)
 2712 10a4 90E0      		ldi r25,hi8(.LC6)
 2713 10a6 892F      		mov r24,r25
 2714 10a8 8F93      		push r24
 2715 10aa 80E0      		ldi r24,lo8(.LC6)
 2716 10ac 90E0      		ldi r25,hi8(.LC6)
 2717 10ae 8F93      		push r24
 2718 10b0 1F92      		push __zero_reg__
 2719 10b2 83E0      		ldi r24,lo8(3)
 2720 10b4 8F93      		push r24
 2721 10b6 8D85      		ldd r24,Y+13
 2722 10b8 8F93      		push r24
 2723 10ba 8C85      		ldd r24,Y+12
 2724 10bc 8F93      		push r24
 2725 10be 0E94 0000 		call report
 2726 10c2 8DB7      		in r24,__SP_L__
 2727 10c4 9EB7      		in r25,__SP_H__
 2728 10c6 0896      		adiw r24,8
 2729 10c8 0FB6      		in __tmp_reg__,__SREG__
 2730 10ca F894      		cli
 2731 10cc DEBF      		out __SP_H__,r29
 2732 10ce 0FBE      		out __SREG__,__tmp_reg__
 2733 10d0 CDBF      		out __SP_L__,r28
 2734               	.L93:
 304:lp_solve_5.5/lp_presolve.c ****                               colnr);
 305:lp_solve_5.5/lp_presolve.c ****       }
 306:lp_solve_5.5/lp_presolve.c ****       /* Check for variable membership in this SOS record of the sparse storage */
 307:lp_solve_5.5/lp_presolve.c ****       k = lp->SOS->memberpos[colnr-1];
 2735               		.loc 2 307 0
 2736 10d2 8C85      		ldd r24,Y+12
 2737 10d4 9D85      		ldd r25,Y+13
 2738 10d6 8256      		subi r24,98
 2739 10d8 9D4F      		sbci r25,-3
 2740 10da FC01      		movw r30,r24
 2741 10dc 8081      		ld r24,Z
 2742 10de 9181      		ldd r25,Z+1
 2743 10e0 FC01      		movw r30,r24
 2744 10e2 2685      		ldd r18,Z+14
 2745 10e4 3785      		ldd r19,Z+15
 2746 10e6 8F81      		ldd r24,Y+7
 2747 10e8 9885      		ldd r25,Y+8
 2748 10ea 8150      		subi r24,1
 2749 10ec 9048      		sbci r25,-128
 2750 10ee 880F      		lsl r24
 2751 10f0 991F      		rol r25
 2752 10f2 820F      		add r24,r18
 2753 10f4 931F      		adc r25,r19
 2754 10f6 FC01      		movw r30,r24
 2755 10f8 8081      		ld r24,Z
 2756 10fa 9181      		ldd r25,Z+1
 2757 10fc 9E83      		std Y+6,r25
 2758 10fe 8D83      		std Y+5,r24
 308:lp_solve_5.5/lp_presolve.c ****       nk = lp->SOS->memberpos[colnr];
 2759               		.loc 2 308 0
 2760 1100 8C85      		ldd r24,Y+12
 2761 1102 9D85      		ldd r25,Y+13
 2762 1104 8256      		subi r24,98
 2763 1106 9D4F      		sbci r25,-3
 2764 1108 FC01      		movw r30,r24
 2765 110a 8081      		ld r24,Z
 2766 110c 9181      		ldd r25,Z+1
 2767 110e FC01      		movw r30,r24
 2768 1110 2685      		ldd r18,Z+14
 2769 1112 3785      		ldd r19,Z+15
 2770 1114 8F81      		ldd r24,Y+7
 2771 1116 9885      		ldd r25,Y+8
 2772 1118 880F      		lsl r24
 2773 111a 991F      		rol r25
 2774 111c 820F      		add r24,r18
 2775 111e 931F      		adc r25,r19
 2776 1120 FC01      		movw r30,r24
 2777 1122 8081      		ld r24,Z
 2778 1124 9181      		ldd r25,Z+1
 2779 1126 9F8B      		std Y+23,r25
 2780 1128 8E8B      		std Y+22,r24
 309:lp_solve_5.5/lp_presolve.c ****       while((k < nk) && (lp->SOS->membership[k] != i))
 2781               		.loc 2 309 0
 2782 112a 00C0      		rjmp .L94
 2783               	.L96:
 310:lp_solve_5.5/lp_presolve.c ****         k++;
 2784               		.loc 2 310 0
 2785 112c 8D81      		ldd r24,Y+5
 2786 112e 9E81      		ldd r25,Y+6
 2787 1130 0196      		adiw r24,1
 2788 1132 9E83      		std Y+6,r25
 2789 1134 8D83      		std Y+5,r24
 2790               	.L94:
 309:lp_solve_5.5/lp_presolve.c ****       while((k < nk) && (lp->SOS->membership[k] != i))
 2791               		.loc 2 309 0
 2792 1136 2D81      		ldd r18,Y+5
 2793 1138 3E81      		ldd r19,Y+6
 2794 113a 8E89      		ldd r24,Y+22
 2795 113c 9F89      		ldd r25,Y+23
 2796 113e 2817      		cp r18,r24
 2797 1140 3907      		cpc r19,r25
 2798 1142 04F4      		brge .L95
 309:lp_solve_5.5/lp_presolve.c ****       while((k < nk) && (lp->SOS->membership[k] != i))
 2799               		.loc 2 309 0 is_stmt 0 discriminator 1
 2800 1144 8C85      		ldd r24,Y+12
 2801 1146 9D85      		ldd r25,Y+13
 2802 1148 8256      		subi r24,98
 2803 114a 9D4F      		sbci r25,-3
 2804 114c FC01      		movw r30,r24
 2805 114e 8081      		ld r24,Z
 2806 1150 9181      		ldd r25,Z+1
 2807 1152 FC01      		movw r30,r24
 2808 1154 2485      		ldd r18,Z+12
 2809 1156 3585      		ldd r19,Z+13
 2810 1158 8D81      		ldd r24,Y+5
 2811 115a 9E81      		ldd r25,Y+6
 2812 115c 880F      		lsl r24
 2813 115e 991F      		rol r25
 2814 1160 820F      		add r24,r18
 2815 1162 931F      		adc r25,r19
 2816 1164 FC01      		movw r30,r24
 2817 1166 2081      		ld r18,Z
 2818 1168 3181      		ldd r19,Z+1
 2819 116a 8981      		ldd r24,Y+1
 2820 116c 9A81      		ldd r25,Y+2
 2821 116e 2817      		cp r18,r24
 2822 1170 3907      		cpc r19,r25
 2823 1172 01F4      		brne .L96
 2824               	.L95:
 311:lp_solve_5.5/lp_presolve.c ****       if(k >= nk) {
 2825               		.loc 2 311 0 is_stmt 1
 2826 1174 2D81      		ldd r18,Y+5
 2827 1176 3E81      		ldd r19,Y+6
 2828 1178 8E89      		ldd r24,Y+22
 2829 117a 9F89      		ldd r25,Y+23
 2830 117c 2817      		cp r18,r24
 2831 117e 3907      		cpc r19,r25
 2832 1180 04F0      		brlt .L97
 312:lp_solve_5.5/lp_presolve.c ****         nerr++;
 2833               		.loc 2 312 0
 2834 1182 8985      		ldd r24,Y+9
 2835 1184 9A85      		ldd r25,Y+10
 2836 1186 0196      		adiw r24,1
 2837 1188 9A87      		std Y+10,r25
 2838 118a 8987      		std Y+9,r24
 313:lp_solve_5.5/lp_presolve.c ****         report(lp, IMPORTANT, "presolve_SOScheck: D - Column index %d was not found in sparse array
 2839               		.loc 2 313 0
 2840 118c 8885      		ldd r24,Y+8
 2841 118e 8F93      		push r24
 2842 1190 8F81      		ldd r24,Y+7
 2843 1192 8F93      		push r24
 2844 1194 80E0      		ldi r24,lo8(.LC7)
 2845 1196 90E0      		ldi r25,hi8(.LC7)
 2846 1198 892F      		mov r24,r25
 2847 119a 8F93      		push r24
 2848 119c 80E0      		ldi r24,lo8(.LC7)
 2849 119e 90E0      		ldi r25,hi8(.LC7)
 2850 11a0 8F93      		push r24
 2851 11a2 1F92      		push __zero_reg__
 2852 11a4 83E0      		ldi r24,lo8(3)
 2853 11a6 8F93      		push r24
 2854 11a8 8D85      		ldd r24,Y+13
 2855 11aa 8F93      		push r24
 2856 11ac 8C85      		ldd r24,Y+12
 2857 11ae 8F93      		push r24
 2858 11b0 0E94 0000 		call report
 2859 11b4 8DB7      		in r24,__SP_L__
 2860 11b6 9EB7      		in r25,__SP_H__
 2861 11b8 0896      		adiw r24,8
 2862 11ba 0FB6      		in __tmp_reg__,__SREG__
 2863 11bc F894      		cli
 2864 11be DEBF      		out __SP_H__,r29
 2865 11c0 0FBE      		out __SREG__,__tmp_reg__
 2866 11c2 CDBF      		out __SP_L__,r28
 2867               	.L97:
 286:lp_solve_5.5/lp_presolve.c ****       colnr = list[j];
 2868               		.loc 2 286 0 discriminator 2
 2869 11c4 8B81      		ldd r24,Y+3
 2870 11c6 9C81      		ldd r25,Y+4
 2871 11c8 0196      		adiw r24,1
 2872 11ca 9C83      		std Y+4,r25
 2873 11cc 8B83      		std Y+3,r24
 2874               	.L89:
 286:lp_solve_5.5/lp_presolve.c ****       colnr = list[j];
 2875               		.loc 2 286 0 is_stmt 0 discriminator 1
 2876 11ce 2B81      		ldd r18,Y+3
 2877 11d0 3C81      		ldd r19,Y+4
 2878 11d2 8C89      		ldd r24,Y+20
 2879 11d4 9D89      		ldd r25,Y+21
 2880 11d6 8217      		cp r24,r18
 2881 11d8 9307      		cpc r25,r19
 2882 11da 04F0      		brlt .+2
 2883 11dc 00C0      		rjmp .L98
 282:lp_solve_5.5/lp_presolve.c ****     SOS = lp->SOS->sos_list[i-1];
 2884               		.loc 2 282 0 is_stmt 1 discriminator 2
 2885 11de 8981      		ldd r24,Y+1
 2886 11e0 9A81      		ldd r25,Y+2
 2887 11e2 0196      		adiw r24,1
 2888 11e4 9A83      		std Y+2,r25
 2889 11e6 8983      		std Y+1,r24
 2890               	.L88:
 282:lp_solve_5.5/lp_presolve.c ****     SOS = lp->SOS->sos_list[i-1];
 2891               		.loc 2 282 0 is_stmt 0 discriminator 1
 2892 11e8 2981      		ldd r18,Y+1
 2893 11ea 3A81      		ldd r19,Y+2
 2894 11ec 8E85      		ldd r24,Y+14
 2895 11ee 9F85      		ldd r25,Y+15
 2896 11f0 8217      		cp r24,r18
 2897 11f2 9307      		cpc r25,r19
 2898 11f4 04F0      		brlt .+2
 2899 11f6 00C0      		rjmp .L99
 314:lp_solve_5.5/lp_presolve.c ****                               colnr);
 315:lp_solve_5.5/lp_presolve.c ****       }
 316:lp_solve_5.5/lp_presolve.c ****     }
 317:lp_solve_5.5/lp_presolve.c ****   }
 318:lp_solve_5.5/lp_presolve.c **** 
 319:lp_solve_5.5/lp_presolve.c ****   /* Check that all members in the sparse array can be validated as SOS members */
 320:lp_solve_5.5/lp_presolve.c ****   for(colnr = 1; colnr <= lp->columns; colnr++) {
 2900               		.loc 2 320 0 is_stmt 1
 2901 11f8 81E0      		ldi r24,lo8(1)
 2902 11fa 90E0      		ldi r25,0
 2903 11fc 9887      		std Y+8,r25
 2904 11fe 8F83      		std Y+7,r24
 2905 1200 00C0      		rjmp .L100
 2906               	.L104:
 321:lp_solve_5.5/lp_presolve.c ****     k = lp->SOS->memberpos[colnr-1];
 2907               		.loc 2 321 0
 2908 1202 8C85      		ldd r24,Y+12
 2909 1204 9D85      		ldd r25,Y+13
 2910 1206 8256      		subi r24,98
 2911 1208 9D4F      		sbci r25,-3
 2912 120a FC01      		movw r30,r24
 2913 120c 8081      		ld r24,Z
 2914 120e 9181      		ldd r25,Z+1
 2915 1210 FC01      		movw r30,r24
 2916 1212 2685      		ldd r18,Z+14
 2917 1214 3785      		ldd r19,Z+15
 2918 1216 8F81      		ldd r24,Y+7
 2919 1218 9885      		ldd r25,Y+8
 2920 121a 8150      		subi r24,1
 2921 121c 9048      		sbci r25,-128
 2922 121e 880F      		lsl r24
 2923 1220 991F      		rol r25
 2924 1222 820F      		add r24,r18
 2925 1224 931F      		adc r25,r19
 2926 1226 FC01      		movw r30,r24
 2927 1228 8081      		ld r24,Z
 2928 122a 9181      		ldd r25,Z+1
 2929 122c 9E83      		std Y+6,r25
 2930 122e 8D83      		std Y+5,r24
 322:lp_solve_5.5/lp_presolve.c ****     nk = lp->SOS->memberpos[colnr];
 2931               		.loc 2 322 0
 2932 1230 8C85      		ldd r24,Y+12
 2933 1232 9D85      		ldd r25,Y+13
 2934 1234 8256      		subi r24,98
 2935 1236 9D4F      		sbci r25,-3
 2936 1238 FC01      		movw r30,r24
 2937 123a 8081      		ld r24,Z
 2938 123c 9181      		ldd r25,Z+1
 2939 123e FC01      		movw r30,r24
 2940 1240 2685      		ldd r18,Z+14
 2941 1242 3785      		ldd r19,Z+15
 2942 1244 8F81      		ldd r24,Y+7
 2943 1246 9885      		ldd r25,Y+8
 2944 1248 880F      		lsl r24
 2945 124a 991F      		rol r25
 2946 124c 820F      		add r24,r18
 2947 124e 931F      		adc r25,r19
 2948 1250 FC01      		movw r30,r24
 2949 1252 8081      		ld r24,Z
 2950 1254 9181      		ldd r25,Z+1
 2951 1256 9F8B      		std Y+23,r25
 2952 1258 8E8B      		std Y+22,r24
 323:lp_solve_5.5/lp_presolve.c ****     for(; k < nk; k++) {
 2953               		.loc 2 323 0
 2954 125a 00C0      		rjmp .L101
 2955               	.L103:
 324:lp_solve_5.5/lp_presolve.c ****       if(!SOS_is_member(lp->SOS, lp->SOS->membership[k], colnr)) {
 2956               		.loc 2 324 0
 2957 125c 8C85      		ldd r24,Y+12
 2958 125e 9D85      		ldd r25,Y+13
 2959 1260 8256      		subi r24,98
 2960 1262 9D4F      		sbci r25,-3
 2961 1264 FC01      		movw r30,r24
 2962 1266 8081      		ld r24,Z
 2963 1268 9181      		ldd r25,Z+1
 2964 126a FC01      		movw r30,r24
 2965 126c 2485      		ldd r18,Z+12
 2966 126e 3585      		ldd r19,Z+13
 2967 1270 8D81      		ldd r24,Y+5
 2968 1272 9E81      		ldd r25,Y+6
 2969 1274 880F      		lsl r24
 2970 1276 991F      		rol r25
 2971 1278 820F      		add r24,r18
 2972 127a 931F      		adc r25,r19
 2973 127c FC01      		movw r30,r24
 2974 127e 2081      		ld r18,Z
 2975 1280 3181      		ldd r19,Z+1
 2976 1282 8C85      		ldd r24,Y+12
 2977 1284 9D85      		ldd r25,Y+13
 2978 1286 8256      		subi r24,98
 2979 1288 9D4F      		sbci r25,-3
 2980 128a FC01      		movw r30,r24
 2981 128c 8081      		ld r24,Z
 2982 128e 9181      		ldd r25,Z+1
 2983 1290 4F81      		ldd r20,Y+7
 2984 1292 5885      		ldd r21,Y+8
 2985 1294 B901      		movw r22,r18
 2986 1296 0E94 0000 		call SOS_is_member
 2987 129a 892B      		or r24,r25
 2988 129c 01F4      		brne .L102
 325:lp_solve_5.5/lp_presolve.c ****         nerr++;
 2989               		.loc 2 325 0
 2990 129e 8985      		ldd r24,Y+9
 2991 12a0 9A85      		ldd r25,Y+10
 2992 12a2 0196      		adiw r24,1
 2993 12a4 9A87      		std Y+10,r25
 2994 12a6 8987      		std Y+9,r24
 326:lp_solve_5.5/lp_presolve.c ****         report(lp, IMPORTANT, "presolve_SOScheck: E - Sparse array did not indicate column index %d
 327:lp_solve_5.5/lp_presolve.c ****                               colnr, lp->SOS->membership[k]);
 2995               		.loc 2 327 0
 2996 12a8 8C85      		ldd r24,Y+12
 2997 12aa 9D85      		ldd r25,Y+13
 2998 12ac 8256      		subi r24,98
 2999 12ae 9D4F      		sbci r25,-3
 3000 12b0 FC01      		movw r30,r24
 3001 12b2 8081      		ld r24,Z
 3002 12b4 9181      		ldd r25,Z+1
 3003 12b6 FC01      		movw r30,r24
 3004 12b8 2485      		ldd r18,Z+12
 3005 12ba 3585      		ldd r19,Z+13
 3006 12bc 8D81      		ldd r24,Y+5
 3007 12be 9E81      		ldd r25,Y+6
 3008 12c0 880F      		lsl r24
 3009 12c2 991F      		rol r25
 3010 12c4 820F      		add r24,r18
 3011 12c6 931F      		adc r25,r19
 326:lp_solve_5.5/lp_presolve.c ****         report(lp, IMPORTANT, "presolve_SOScheck: E - Sparse array did not indicate column index %d
 3012               		.loc 2 326 0
 3013 12c8 FC01      		movw r30,r24
 3014 12ca 8081      		ld r24,Z
 3015 12cc 9181      		ldd r25,Z+1
 3016 12ce 292F      		mov r18,r25
 3017 12d0 2F93      		push r18
 3018 12d2 8F93      		push r24
 3019 12d4 8885      		ldd r24,Y+8
 3020 12d6 8F93      		push r24
 3021 12d8 8F81      		ldd r24,Y+7
 3022 12da 8F93      		push r24
 3023 12dc 80E0      		ldi r24,lo8(.LC8)
 3024 12de 90E0      		ldi r25,hi8(.LC8)
 3025 12e0 892F      		mov r24,r25
 3026 12e2 8F93      		push r24
 3027 12e4 80E0      		ldi r24,lo8(.LC8)
 3028 12e6 90E0      		ldi r25,hi8(.LC8)
 3029 12e8 8F93      		push r24
 3030 12ea 1F92      		push __zero_reg__
 3031 12ec 83E0      		ldi r24,lo8(3)
 3032 12ee 8F93      		push r24
 3033 12f0 8D85      		ldd r24,Y+13
 3034 12f2 8F93      		push r24
 3035 12f4 8C85      		ldd r24,Y+12
 3036 12f6 8F93      		push r24
 3037 12f8 0E94 0000 		call report
 3038 12fc 8DB7      		in r24,__SP_L__
 3039 12fe 9EB7      		in r25,__SP_H__
 3040 1300 0A96      		adiw r24,10
 3041 1302 0FB6      		in __tmp_reg__,__SREG__
 3042 1304 F894      		cli
 3043 1306 DEBF      		out __SP_H__,r29
 3044 1308 0FBE      		out __SREG__,__tmp_reg__
 3045 130a CDBF      		out __SP_L__,r28
 3046               	.L102:
 323:lp_solve_5.5/lp_presolve.c ****       if(!SOS_is_member(lp->SOS, lp->SOS->membership[k], colnr)) {
 3047               		.loc 2 323 0
 3048 130c 8D81      		ldd r24,Y+5
 3049 130e 9E81      		ldd r25,Y+6
 3050 1310 0196      		adiw r24,1
 3051 1312 9E83      		std Y+6,r25
 3052 1314 8D83      		std Y+5,r24
 3053               	.L101:
 323:lp_solve_5.5/lp_presolve.c ****       if(!SOS_is_member(lp->SOS, lp->SOS->membership[k], colnr)) {
 3054               		.loc 2 323 0 is_stmt 0 discriminator 1
 3055 1316 2D81      		ldd r18,Y+5
 3056 1318 3E81      		ldd r19,Y+6
 3057 131a 8E89      		ldd r24,Y+22
 3058 131c 9F89      		ldd r25,Y+23
 3059 131e 2817      		cp r18,r24
 3060 1320 3907      		cpc r19,r25
 3061 1322 04F4      		brge .+2
 3062 1324 00C0      		rjmp .L103
 320:lp_solve_5.5/lp_presolve.c ****     k = lp->SOS->memberpos[colnr-1];
 3063               		.loc 2 320 0 is_stmt 1 discriminator 2
 3064 1326 8F81      		ldd r24,Y+7
 3065 1328 9885      		ldd r25,Y+8
 3066 132a 0196      		adiw r24,1
 3067 132c 9887      		std Y+8,r25
 3068 132e 8F83      		std Y+7,r24
 3069               	.L100:
 320:lp_solve_5.5/lp_presolve.c ****     k = lp->SOS->memberpos[colnr-1];
 3070               		.loc 2 320 0 is_stmt 0 discriminator 1
 3071 1330 8C85      		ldd r24,Y+12
 3072 1332 9D85      		ldd r25,Y+13
 3073 1334 8451      		subi r24,20
 3074 1336 9E4F      		sbci r25,-2
 3075 1338 FC01      		movw r30,r24
 3076 133a 2081      		ld r18,Z
 3077 133c 3181      		ldd r19,Z+1
 3078 133e 8F81      		ldd r24,Y+7
 3079 1340 9885      		ldd r25,Y+8
 3080 1342 2817      		cp r18,r24
 3081 1344 3907      		cpc r19,r25
 3082 1346 04F0      		brlt .+2
 3083 1348 00C0      		rjmp .L104
 328:lp_solve_5.5/lp_presolve.c ****       }
 329:lp_solve_5.5/lp_presolve.c ****     }
 330:lp_solve_5.5/lp_presolve.c ****   }
 331:lp_solve_5.5/lp_presolve.c ****   status = (MYBOOL) (nerr == 0);
 3084               		.loc 2 331 0 is_stmt 1
 3085 134a 21E0      		ldi r18,lo8(1)
 3086 134c 8985      		ldd r24,Y+9
 3087 134e 9A85      		ldd r25,Y+10
 3088 1350 892B      		or r24,r25
 3089 1352 01F0      		breq .L105
 3090 1354 20E0      		ldi r18,0
 3091               	.L105:
 3092 1356 2B87      		std Y+11,r18
 332:lp_solve_5.5/lp_presolve.c ****   if(!status)
 3093               		.loc 2 332 0
 3094 1358 8B85      		ldd r24,Y+11
 3095 135a 8823      		tst r24
 3096 135c 01F4      		brne .L106
 333:lp_solve_5.5/lp_presolve.c ****     report(lp, IMPORTANT, "presolve_SOScheck: There were %d errors\n",
 3097               		.loc 2 333 0
 3098 135e 8A85      		ldd r24,Y+10
 3099 1360 8F93      		push r24
 3100 1362 8985      		ldd r24,Y+9
 3101 1364 8F93      		push r24
 3102 1366 80E0      		ldi r24,lo8(.LC9)
 3103 1368 90E0      		ldi r25,hi8(.LC9)
 3104 136a 892F      		mov r24,r25
 3105 136c 8F93      		push r24
 3106 136e 80E0      		ldi r24,lo8(.LC9)
 3107 1370 90E0      		ldi r25,hi8(.LC9)
 3108 1372 8F93      		push r24
 3109 1374 1F92      		push __zero_reg__
 3110 1376 83E0      		ldi r24,lo8(3)
 3111 1378 8F93      		push r24
 3112 137a 8D85      		ldd r24,Y+13
 3113 137c 8F93      		push r24
 3114 137e 8C85      		ldd r24,Y+12
 3115 1380 8F93      		push r24
 3116 1382 0E94 0000 		call report
 3117 1386 8DB7      		in r24,__SP_L__
 3118 1388 9EB7      		in r25,__SP_H__
 3119 138a 0896      		adiw r24,8
 3120 138c 0FB6      		in __tmp_reg__,__SREG__
 3121 138e F894      		cli
 3122 1390 DEBF      		out __SP_H__,r29
 3123 1392 0FBE      		out __SREG__,__tmp_reg__
 3124 1394 CDBF      		out __SP_L__,r28
 3125               	.L106:
 334:lp_solve_5.5/lp_presolve.c ****                            nerr);
 335:lp_solve_5.5/lp_presolve.c **** 
 336:lp_solve_5.5/lp_presolve.c **** 
 337:lp_solve_5.5/lp_presolve.c ****   return( status );
 3126               		.loc 2 337 0
 3127 1396 8B85      		ldd r24,Y+11
 3128               	.L87:
 3129               	/* epilogue start */
 338:lp_solve_5.5/lp_presolve.c **** }
 3130               		.loc 2 338 0
 3131 1398 6996      		adiw r28,25
 3132 139a 0FB6      		in __tmp_reg__,__SREG__
 3133 139c F894      		cli
 3134 139e DEBF      		out __SP_H__,r29
 3135 13a0 0FBE      		out __SREG__,__tmp_reg__
 3136 13a2 CDBF      		out __SP_L__,r28
 3137 13a4 DF91      		pop r29
 3138 13a6 CF91      		pop r28
 3139 13a8 0895      		ret
 3140               		.cfi_endproc
 3141               	.LFE18:
 3143               	.global	__nesf2
 3144               	.global	__ltsf2
 3146               	presolve_roundrhs:
 3147               	.LFB19:
 339:lp_solve_5.5/lp_presolve.c **** 
 340:lp_solve_5.5/lp_presolve.c **** /* ----------------------------------------------------------------------------- */
 341:lp_solve_5.5/lp_presolve.c **** /* Presolve routines for tightening the model                                    */
 342:lp_solve_5.5/lp_presolve.c **** /* ----------------------------------------------------------------------------- */
 343:lp_solve_5.5/lp_presolve.c **** 
 344:lp_solve_5.5/lp_presolve.c **** INLINE REAL presolve_roundrhs(lprec *lp, REAL value, MYBOOL isGE)
 345:lp_solve_5.5/lp_presolve.c **** {
 3148               		.loc 2 345 0
 3149               		.cfi_startproc
 3150 13aa 1F93      		push r17
 3151               	.LCFI60:
 3152               		.cfi_def_cfa_offset 3
 3153               		.cfi_offset 17, -2
 3154 13ac CF93      		push r28
 3155               	.LCFI61:
 3156               		.cfi_def_cfa_offset 4
 3157               		.cfi_offset 28, -3
 3158 13ae DF93      		push r29
 3159               	.LCFI62:
 3160               		.cfi_def_cfa_offset 5
 3161               		.cfi_offset 29, -4
 3162 13b0 CDB7      		in r28,__SP_L__
 3163 13b2 DEB7      		in r29,__SP_H__
 3164               	.LCFI63:
 3165               		.cfi_def_cfa_register 28
 3166 13b4 2F97      		sbiw r28,15
 3167               	.LCFI64:
 3168               		.cfi_def_cfa_offset 20
 3169 13b6 0FB6      		in __tmp_reg__,__SREG__
 3170 13b8 F894      		cli
 3171 13ba DEBF      		out __SP_H__,r29
 3172 13bc 0FBE      		out __SREG__,__tmp_reg__
 3173 13be CDBF      		out __SP_L__,r28
 3174               	/* prologue: function */
 3175               	/* frame size = 15 */
 3176               	/* stack size = 18 */
 3177               	.L__stack_usage = 18
 3178 13c0 9A87      		std Y+10,r25
 3179 13c2 8987      		std Y+9,r24
 3180 13c4 4B87      		std Y+11,r20
 3181 13c6 5C87      		std Y+12,r21
 3182 13c8 6D87      		std Y+13,r22
 3183 13ca 7E87      		std Y+14,r23
 3184 13cc 2F87      		std Y+15,r18
 346:lp_solve_5.5/lp_presolve.c **** #ifdef DoPresolveRounding
 347:lp_solve_5.5/lp_presolve.c ****   REAL eps = PRESOLVE_EPSVALUE*1000,
 3185               		.loc 2 347 0
 3186 13ce 8985      		ldd r24,Y+9
 3187 13d0 9A85      		ldd r25,Y+10
 3188 13d2 865E      		subi r24,-26
 3189 13d4 9C4F      		sbci r25,-4
 3190 13d6 FC01      		movw r30,r24
 3191 13d8 8081      		ld r24,Z
 3192 13da 9181      		ldd r25,Z+1
 3193 13dc A281      		ldd r26,Z+2
 3194 13de B381      		ldd r27,Z+3
 3195 13e0 2DEC      		ldi r18,lo8(-51)
 3196 13e2 3CEC      		ldi r19,lo8(-52)
 3197 13e4 4CEC      		ldi r20,lo8(-52)
 3198 13e6 5DE3      		ldi r21,lo8(61)
 3199 13e8 BC01      		movw r22,r24
 3200 13ea CD01      		movw r24,r26
 3201 13ec 0E94 0000 		call __mulsf3
 3202 13f0 DC01      		movw r26,r24
 3203 13f2 CB01      		movw r24,r22
 3204 13f4 20E0      		ldi r18,0
 3205 13f6 30E0      		ldi r19,0
 3206 13f8 4AE7      		ldi r20,lo8(122)
 3207 13fa 54E4      		ldi r21,lo8(68)
 3208 13fc BC01      		movw r22,r24
 3209 13fe CD01      		movw r24,r26
 3210 1400 0E94 0000 		call __mulsf3
 3211 1404 DC01      		movw r26,r24
 3212 1406 CB01      		movw r24,r22
 3213 1408 8983      		std Y+1,r24
 3214 140a 9A83      		std Y+2,r25
 3215 140c AB83      		std Y+3,r26
 3216 140e BC83      		std Y+4,r27
 348:lp_solve_5.5/lp_presolve.c ****   /* REAL eps = PRESOLVE_EPSVALUE*pow(10.0,MAX(0,log10(1+fabs(value)))), */
 349:lp_solve_5.5/lp_presolve.c ****   testout = my_precision(value, eps);
 3217               		.loc 2 349 0
 3218 1410 2981      		ldd r18,Y+1
 3219 1412 3A81      		ldd r19,Y+2
 3220 1414 4B81      		ldd r20,Y+3
 3221 1416 5C81      		ldd r21,Y+4
 3222 1418 8B85      		ldd r24,Y+11
 3223 141a 9C85      		ldd r25,Y+12
 3224 141c AD85      		ldd r26,Y+13
 3225 141e BE85      		ldd r27,Y+14
 3226 1420 BC01      		movw r22,r24
 3227 1422 CD01      		movw r24,r26
 3228 1424 0E94 0000 		call restoreINT
 3229 1428 DC01      		movw r26,r24
 3230 142a CB01      		movw r24,r22
 3231 142c 8D83      		std Y+5,r24
 3232 142e 9E83      		std Y+6,r25
 3233 1430 AF83      		std Y+7,r26
 3234 1432 B887      		std Y+8,r27
 350:lp_solve_5.5/lp_presolve.c **** #if 1
 351:lp_solve_5.5/lp_presolve.c ****   if(my_chsign(isGE, value-testout) < 0)
 3235               		.loc 2 351 0
 3236 1434 8F85      		ldd r24,Y+15
 3237 1436 8823      		tst r24
 3238 1438 01F0      		breq .L108
 3239               		.loc 2 351 0 is_stmt 0 discriminator 1
 3240 143a 2D81      		ldd r18,Y+5
 3241 143c 3E81      		ldd r19,Y+6
 3242 143e 4F81      		ldd r20,Y+7
 3243 1440 5885      		ldd r21,Y+8
 3244 1442 6B85      		ldd r22,Y+11
 3245 1444 7C85      		ldd r23,Y+12
 3246 1446 8D85      		ldd r24,Y+13
 3247 1448 9E85      		ldd r25,Y+14
 3248 144a 0E94 0000 		call __subsf3
 3249 144e DC01      		movw r26,r24
 3250 1450 CB01      		movw r24,r22
 3251 1452 20E0      		ldi r18,0
 3252 1454 30E0      		ldi r19,0
 3253 1456 A901      		movw r20,r18
 3254 1458 BC01      		movw r22,r24
 3255 145a CD01      		movw r24,r26
 3256 145c 0E94 0000 		call __nesf2
 3257 1460 8823      		tst r24
 3258 1462 01F0      		breq .L108
 3259               		.loc 2 351 0 discriminator 3
 3260 1464 2D81      		ldd r18,Y+5
 3261 1466 3E81      		ldd r19,Y+6
 3262 1468 4F81      		ldd r20,Y+7
 3263 146a 5885      		ldd r21,Y+8
 3264 146c 6B85      		ldd r22,Y+11
 3265 146e 7C85      		ldd r23,Y+12
 3266 1470 8D85      		ldd r24,Y+13
 3267 1472 9E85      		ldd r25,Y+14
 3268 1474 0E94 0000 		call __subsf3
 3269 1478 DC01      		movw r26,r24
 3270 147a CB01      		movw r24,r22
 3271 147c 11E0      		ldi r17,lo8(1)
 3272 147e 20E0      		ldi r18,0
 3273 1480 30E0      		ldi r19,0
 3274 1482 A901      		movw r20,r18
 3275 1484 BC01      		movw r22,r24
 3276 1486 CD01      		movw r24,r26
 3277 1488 0E94 0000 		call __gtsf2
 3278 148c 1816      		cp __zero_reg__,r24
 3279 148e 04F0      		brlt .L111
 3280 1490 10E0      		ldi r17,0
 3281 1492 00C0      		rjmp .L111
 3282               	.L108:
 3283               		.loc 2 351 0 discriminator 4
 3284 1494 2D81      		ldd r18,Y+5
 3285 1496 3E81      		ldd r19,Y+6
 3286 1498 4F81      		ldd r20,Y+7
 3287 149a 5885      		ldd r21,Y+8
 3288 149c 6B85      		ldd r22,Y+11
 3289 149e 7C85      		ldd r23,Y+12
 3290 14a0 8D85      		ldd r24,Y+13
 3291 14a2 9E85      		ldd r25,Y+14
 3292 14a4 0E94 0000 		call __subsf3
 3293 14a8 DC01      		movw r26,r24
 3294 14aa CB01      		movw r24,r22
 3295 14ac 11E0      		ldi r17,lo8(1)
 3296 14ae 20E0      		ldi r18,0
 3297 14b0 30E0      		ldi r19,0
 3298 14b2 A901      		movw r20,r18
 3299 14b4 BC01      		movw r22,r24
 3300 14b6 CD01      		movw r24,r26
 3301 14b8 0E94 0000 		call __ltsf2
 3302 14bc 8823      		tst r24
 3303 14be 04F0      		brlt .L111
 3304 14c0 10E0      		ldi r17,0
 3305               	.L111:
 3306               		.loc 2 351 0 discriminator 6
 3307 14c2 1123      		tst r17
 3308 14c4 01F0      		breq .L113
 352:lp_solve_5.5/lp_presolve.c ****     value = testout;
 3309               		.loc 2 352 0 is_stmt 1
 3310 14c6 8D81      		ldd r24,Y+5
 3311 14c8 9E81      		ldd r25,Y+6
 3312 14ca AF81      		ldd r26,Y+7
 3313 14cc B885      		ldd r27,Y+8
 3314 14ce 8B87      		std Y+11,r24
 3315 14d0 9C87      		std Y+12,r25
 3316 14d2 AD87      		std Y+13,r26
 3317 14d4 BE87      		std Y+14,r27
 3318               	.L113:
 353:lp_solve_5.5/lp_presolve.c **** #elif 0
 354:lp_solve_5.5/lp_presolve.c ****   if(my_chsign(isGE, value-testout) < 0)
 355:lp_solve_5.5/lp_presolve.c ****     value = testout;
 356:lp_solve_5.5/lp_presolve.c ****   else if(value != testout)
 357:lp_solve_5.5/lp_presolve.c ****     value += my_chsign(isGE, (value-testout)/2);
 358:lp_solve_5.5/lp_presolve.c ****     /* value = testout + my_chsign(isGE, (value-testout)/2); */
 359:lp_solve_5.5/lp_presolve.c **** #else
 360:lp_solve_5.5/lp_presolve.c ****   if(testout != value)
 361:lp_solve_5.5/lp_presolve.c ****     value += my_chsign(isGE, eps*1000);              /* BASE OPTION */
 362:lp_solve_5.5/lp_presolve.c **** #endif
 363:lp_solve_5.5/lp_presolve.c **** 
 364:lp_solve_5.5/lp_presolve.c **** #endif
 365:lp_solve_5.5/lp_presolve.c ****   return( value );
 3319               		.loc 2 365 0
 3320 14d6 8B85      		ldd r24,Y+11
 3321 14d8 9C85      		ldd r25,Y+12
 3322 14da AD85      		ldd r26,Y+13
 3323 14dc BE85      		ldd r27,Y+14
 366:lp_solve_5.5/lp_presolve.c **** }
 3324               		.loc 2 366 0
 3325 14de BC01      		movw r22,r24
 3326 14e0 CD01      		movw r24,r26
 3327               	/* epilogue start */
 3328 14e2 2F96      		adiw r28,15
 3329 14e4 0FB6      		in __tmp_reg__,__SREG__
 3330 14e6 F894      		cli
 3331 14e8 DEBF      		out __SP_H__,r29
 3332 14ea 0FBE      		out __SREG__,__tmp_reg__
 3333 14ec CDBF      		out __SP_L__,r28
 3334 14ee DF91      		pop r29
 3335 14f0 CF91      		pop r28
 3336 14f2 1F91      		pop r17
 3337 14f4 0895      		ret
 3338               		.cfi_endproc
 3339               	.LFE19:
 3342               	presolve_roundval:
 3343               	.LFB20:
 367:lp_solve_5.5/lp_presolve.c **** 
 368:lp_solve_5.5/lp_presolve.c **** INLINE REAL presolve_roundval(lprec *lp, REAL value)
 369:lp_solve_5.5/lp_presolve.c **** {
 3344               		.loc 2 369 0
 3345               		.cfi_startproc
 3346 14f6 CF93      		push r28
 3347               	.LCFI65:
 3348               		.cfi_def_cfa_offset 3
 3349               		.cfi_offset 28, -2
 3350 14f8 DF93      		push r29
 3351               	.LCFI66:
 3352               		.cfi_def_cfa_offset 4
 3353               		.cfi_offset 29, -3
 3354 14fa 00D0      		rcall .
 3355 14fc 00D0      		rcall .
 3356 14fe 00D0      		rcall .
 3357               	.LCFI67:
 3358               		.cfi_def_cfa_offset 10
 3359 1500 CDB7      		in r28,__SP_L__
 3360 1502 DEB7      		in r29,__SP_H__
 3361               	.LCFI68:
 3362               		.cfi_def_cfa_register 28
 3363               	/* prologue: function */
 3364               	/* frame size = 6 */
 3365               	/* stack size = 8 */
 3366               	.L__stack_usage = 8
 3367 1504 9A83      		std Y+2,r25
 3368 1506 8983      		std Y+1,r24
 3369 1508 4B83      		std Y+3,r20
 3370 150a 5C83      		std Y+4,r21
 3371 150c 6D83      		std Y+5,r22
 3372 150e 7E83      		std Y+6,r23
 370:lp_solve_5.5/lp_presolve.c **** #ifdef DoPresolveRounding
 371:lp_solve_5.5/lp_presolve.c ****   /* value = my_precision(value, PRESOLVE_EPSVALUE*MAX(1,log10(1+fabs(value)))); */
 372:lp_solve_5.5/lp_presolve.c ****   value = my_precision(value, PRESOLVE_EPSVALUE);    /* BASE OPTION */
 3373               		.loc 2 372 0
 3374 1510 8981      		ldd r24,Y+1
 3375 1512 9A81      		ldd r25,Y+2
 3376 1514 865E      		subi r24,-26
 3377 1516 9C4F      		sbci r25,-4
 3378 1518 FC01      		movw r30,r24
 3379 151a 8081      		ld r24,Z
 3380 151c 9181      		ldd r25,Z+1
 3381 151e A281      		ldd r26,Z+2
 3382 1520 B381      		ldd r27,Z+3
 3383 1522 2DEC      		ldi r18,lo8(-51)
 3384 1524 3CEC      		ldi r19,lo8(-52)
 3385 1526 4CEC      		ldi r20,lo8(-52)
 3386 1528 5DE3      		ldi r21,lo8(61)
 3387 152a BC01      		movw r22,r24
 3388 152c CD01      		movw r24,r26
 3389 152e 0E94 0000 		call __mulsf3
 3390 1532 DC01      		movw r26,r24
 3391 1534 CB01      		movw r24,r22
 3392 1536 9C01      		movw r18,r24
 3393 1538 AD01      		movw r20,r26
 3394 153a 8B81      		ldd r24,Y+3
 3395 153c 9C81      		ldd r25,Y+4
 3396 153e AD81      		ldd r26,Y+5
 3397 1540 BE81      		ldd r27,Y+6
 3398 1542 BC01      		movw r22,r24
 3399 1544 CD01      		movw r24,r26
 3400 1546 0E94 0000 		call restoreINT
 3401 154a DC01      		movw r26,r24
 3402 154c CB01      		movw r24,r22
 3403 154e 8B83      		std Y+3,r24
 3404 1550 9C83      		std Y+4,r25
 3405 1552 AD83      		std Y+5,r26
 3406 1554 BE83      		std Y+6,r27
 373:lp_solve_5.5/lp_presolve.c **** #endif
 374:lp_solve_5.5/lp_presolve.c ****   return( value );
 3407               		.loc 2 374 0
 3408 1556 8B81      		ldd r24,Y+3
 3409 1558 9C81      		ldd r25,Y+4
 3410 155a AD81      		ldd r26,Y+5
 3411 155c BE81      		ldd r27,Y+6
 375:lp_solve_5.5/lp_presolve.c **** }
 3412               		.loc 2 375 0
 3413 155e BC01      		movw r22,r24
 3414 1560 CD01      		movw r24,r26
 3415               	/* epilogue start */
 3416 1562 2696      		adiw r28,6
 3417 1564 0FB6      		in __tmp_reg__,__SREG__
 3418 1566 F894      		cli
 3419 1568 DEBF      		out __SP_H__,r29
 3420 156a 0FBE      		out __SREG__,__tmp_reg__
 3421 156c CDBF      		out __SP_L__,r28
 3422 156e DF91      		pop r29
 3423 1570 CF91      		pop r28
 3424 1572 0895      		ret
 3425               		.cfi_endproc
 3426               	.LFE20:
 3428               	.global	__gesf2
 3430               	presolve_mustupdate:
 3431               	.LFB21:
 376:lp_solve_5.5/lp_presolve.c **** 
 377:lp_solve_5.5/lp_presolve.c **** INLINE MYBOOL presolve_mustupdate(lprec *lp, int colnr)
 378:lp_solve_5.5/lp_presolve.c **** {
 3432               		.loc 2 378 0
 3433               		.cfi_startproc
 3434 1574 CF93      		push r28
 3435               	.LCFI69:
 3436               		.cfi_def_cfa_offset 3
 3437               		.cfi_offset 28, -2
 3438 1576 DF93      		push r29
 3439               	.LCFI70:
 3440               		.cfi_def_cfa_offset 4
 3441               		.cfi_offset 29, -3
 3442 1578 00D0      		rcall .
 3443 157a 00D0      		rcall .
 3444               	.LCFI71:
 3445               		.cfi_def_cfa_offset 8
 3446 157c CDB7      		in r28,__SP_L__
 3447 157e DEB7      		in r29,__SP_H__
 3448               	.LCFI72:
 3449               		.cfi_def_cfa_register 28
 3450               	/* prologue: function */
 3451               	/* frame size = 4 */
 3452               	/* stack size = 6 */
 3453               	.L__stack_usage = 6
 3454 1580 9A83      		std Y+2,r25
 3455 1582 8983      		std Y+1,r24
 3456 1584 7C83      		std Y+4,r23
 3457 1586 6B83      		std Y+3,r22
 379:lp_solve_5.5/lp_presolve.c **** #if 0
 380:lp_solve_5.5/lp_presolve.c ****   return( my_infinite(lp, get_lowbo(lp, colnr)) ||
 381:lp_solve_5.5/lp_presolve.c ****           my_infinite(lp, get_upbo(lp, colnr)) );
 382:lp_solve_5.5/lp_presolve.c **** #else
 383:lp_solve_5.5/lp_presolve.c ****   return( my_infinite(lp, lp->orig_lowbo[lp->rows+colnr]) ||
 3458               		.loc 2 383 0
 3459 1588 8981      		ldd r24,Y+1
 3460 158a 9A81      		ldd r25,Y+2
 3461 158c 8E54      		subi r24,78
 3462 158e 9D4F      		sbci r25,-3
 3463 1590 FC01      		movw r30,r24
 3464 1592 2081      		ld r18,Z
 3465 1594 3181      		ldd r19,Z+1
 3466 1596 8981      		ldd r24,Y+1
 3467 1598 9A81      		ldd r25,Y+2
 3468 159a 8651      		subi r24,22
 3469 159c 9E4F      		sbci r25,-2
 3470 159e FC01      		movw r30,r24
 3471 15a0 4081      		ld r20,Z
 3472 15a2 5181      		ldd r21,Z+1
 3473 15a4 8B81      		ldd r24,Y+3
 3474 15a6 9C81      		ldd r25,Y+4
 3475 15a8 840F      		add r24,r20
 3476 15aa 951F      		adc r25,r21
 3477 15ac 880F      		lsl r24
 3478 15ae 991F      		rol r25
 3479 15b0 880F      		lsl r24
 3480 15b2 991F      		rol r25
 3481 15b4 820F      		add r24,r18
 3482 15b6 931F      		adc r25,r19
 3483 15b8 FC01      		movw r30,r24
 3484 15ba 8081      		ld r24,Z
 3485 15bc 9181      		ldd r25,Z+1
 3486 15be A281      		ldd r26,Z+2
 3487 15c0 B381      		ldd r27,Z+3
 3488 15c2 BF77      		andi r27,0x7f
 3489 15c4 2981      		ldd r18,Y+1
 3490 15c6 3A81      		ldd r19,Y+2
 3491 15c8 265F      		subi r18,-10
 3492 15ca 3C4F      		sbci r19,-4
 3493 15cc F901      		movw r30,r18
 3494 15ce 2081      		ld r18,Z
 3495 15d0 3181      		ldd r19,Z+1
 3496 15d2 4281      		ldd r20,Z+2
 3497 15d4 5381      		ldd r21,Z+3
 3498 15d6 BC01      		movw r22,r24
 3499 15d8 CD01      		movw r24,r26
 3500 15da 0E94 0000 		call __gesf2
 3501 15de 8823      		tst r24
 3502 15e0 04F4      		brge .L119
 384:lp_solve_5.5/lp_presolve.c ****           my_infinite(lp, lp->orig_upbo[lp->rows+colnr]) );
 3503               		.loc 2 384 0 discriminator 2
 3504 15e2 8981      		ldd r24,Y+1
 3505 15e4 9A81      		ldd r25,Y+2
 3506 15e6 8255      		subi r24,82
 3507 15e8 9D4F      		sbci r25,-3
 3508 15ea FC01      		movw r30,r24
 3509 15ec 2081      		ld r18,Z
 3510 15ee 3181      		ldd r19,Z+1
 3511 15f0 8981      		ldd r24,Y+1
 3512 15f2 9A81      		ldd r25,Y+2
 3513 15f4 8651      		subi r24,22
 3514 15f6 9E4F      		sbci r25,-2
 3515 15f8 FC01      		movw r30,r24
 3516 15fa 4081      		ld r20,Z
 3517 15fc 5181      		ldd r21,Z+1
 3518 15fe 8B81      		ldd r24,Y+3
 3519 1600 9C81      		ldd r25,Y+4
 3520 1602 840F      		add r24,r20
 3521 1604 951F      		adc r25,r21
 3522 1606 880F      		lsl r24
 3523 1608 991F      		rol r25
 3524 160a 880F      		lsl r24
 3525 160c 991F      		rol r25
 3526 160e 820F      		add r24,r18
 3527 1610 931F      		adc r25,r19
 3528 1612 FC01      		movw r30,r24
 3529 1614 8081      		ld r24,Z
 3530 1616 9181      		ldd r25,Z+1
 3531 1618 A281      		ldd r26,Z+2
 3532 161a B381      		ldd r27,Z+3
 3533 161c BF77      		andi r27,0x7f
 3534 161e 2981      		ldd r18,Y+1
 3535 1620 3A81      		ldd r19,Y+2
 3536 1622 265F      		subi r18,-10
 3537 1624 3C4F      		sbci r19,-4
 3538 1626 F901      		movw r30,r18
 3539 1628 2081      		ld r18,Z
 3540 162a 3181      		ldd r19,Z+1
 3541 162c 4281      		ldd r20,Z+2
 3542 162e 5381      		ldd r21,Z+3
 383:lp_solve_5.5/lp_presolve.c ****           my_infinite(lp, lp->orig_upbo[lp->rows+colnr]) );
 3543               		.loc 2 383 0 discriminator 2
 3544 1630 BC01      		movw r22,r24
 3545 1632 CD01      		movw r24,r26
 3546 1634 0E94 0000 		call __gesf2
 3547 1638 8823      		tst r24
 3548 163a 04F0      		brlt .L124
 3549               	.L119:
 383:lp_solve_5.5/lp_presolve.c ****           my_infinite(lp, lp->orig_upbo[lp->rows+colnr]) );
 3550               		.loc 2 383 0 is_stmt 0 discriminator 3
 3551 163c 81E0      		ldi r24,lo8(1)
 3552 163e 90E0      		ldi r25,0
 3553 1640 00C0      		rjmp .L122
 3554               	.L124:
 383:lp_solve_5.5/lp_presolve.c ****           my_infinite(lp, lp->orig_upbo[lp->rows+colnr]) );
 3555               		.loc 2 383 0 discriminator 4
 3556 1642 80E0      		ldi r24,0
 3557 1644 90E0      		ldi r25,0
 3558               	.L122:
 3559               	/* epilogue start */
 385:lp_solve_5.5/lp_presolve.c **** #endif
 386:lp_solve_5.5/lp_presolve.c **** }
 3560               		.loc 2 386 0 is_stmt 1 discriminator 6
 3561 1646 0F90      		pop __tmp_reg__
 3562 1648 0F90      		pop __tmp_reg__
 3563 164a 0F90      		pop __tmp_reg__
 3564 164c 0F90      		pop __tmp_reg__
 3565 164e DF91      		pop r29
 3566 1650 CF91      		pop r28
 3567 1652 0895      		ret
 3568               		.cfi_endproc
 3569               	.LFE21:
 3572               	presolve_sumplumin:
 3573               	.LFB22:
 387:lp_solve_5.5/lp_presolve.c **** 
 388:lp_solve_5.5/lp_presolve.c **** INLINE REAL presolve_sumplumin(lprec *lp, int item, psrec *ps, MYBOOL doUpper)
 389:lp_solve_5.5/lp_presolve.c **** {
 3574               		.loc 2 389 0
 3575               		.cfi_startproc
 3576 1654 CF93      		push r28
 3577               	.LCFI73:
 3578               		.cfi_def_cfa_offset 3
 3579               		.cfi_offset 28, -2
 3580 1656 DF93      		push r29
 3581               	.LCFI74:
 3582               		.cfi_def_cfa_offset 4
 3583               		.cfi_offset 29, -3
 3584 1658 CDB7      		in r28,__SP_L__
 3585 165a DEB7      		in r29,__SP_H__
 3586               	.LCFI75:
 3587               		.cfi_def_cfa_register 28
 3588 165c 2B97      		sbiw r28,11
 3589               	.LCFI76:
 3590               		.cfi_def_cfa_offset 15
 3591 165e 0FB6      		in __tmp_reg__,__SREG__
 3592 1660 F894      		cli
 3593 1662 DEBF      		out __SP_H__,r29
 3594 1664 0FBE      		out __SREG__,__tmp_reg__
 3595 1666 CDBF      		out __SP_L__,r28
 3596               	/* prologue: function */
 3597               	/* frame size = 11 */
 3598               	/* stack size = 13 */
 3599               	.L__stack_usage = 13
 3600 1668 9E83      		std Y+6,r25
 3601 166a 8D83      		std Y+5,r24
 3602 166c 7887      		std Y+8,r23
 3603 166e 6F83      		std Y+7,r22
 3604 1670 5A87      		std Y+10,r21
 3605 1672 4987      		std Y+9,r20
 3606 1674 2B87      		std Y+11,r18
 390:lp_solve_5.5/lp_presolve.c ****   REAL *plu = (doUpper ? ps->pluupper : ps->plulower),
 3607               		.loc 2 390 0
 3608 1676 8B85      		ldd r24,Y+11
 3609 1678 8823      		tst r24
 3610 167a 01F0      		breq .L126
 3611               		.loc 2 390 0 is_stmt 0 discriminator 1
 3612 167c 8985      		ldd r24,Y+9
 3613 167e 9A85      		ldd r25,Y+10
 3614 1680 FC01      		movw r30,r24
 3615 1682 8289      		ldd r24,Z+18
 3616 1684 9389      		ldd r25,Z+19
 3617 1686 00C0      		rjmp .L127
 3618               	.L126:
 3619               		.loc 2 390 0 discriminator 2
 3620 1688 8985      		ldd r24,Y+9
 3621 168a 9A85      		ldd r25,Y+10
 3622 168c FC01      		movw r30,r24
 3623 168e 8685      		ldd r24,Z+14
 3624 1690 9785      		ldd r25,Z+15
 3625               	.L127:
 3626               		.loc 2 390 0 discriminator 4
 3627 1692 9A83      		std Y+2,r25
 3628 1694 8983      		std Y+1,r24
 391:lp_solve_5.5/lp_presolve.c ****        *neg = (doUpper ? ps->negupper : ps->neglower);
 3629               		.loc 2 391 0 is_stmt 1 discriminator 4
 3630 1696 8B85      		ldd r24,Y+11
 3631 1698 8823      		tst r24
 3632 169a 01F0      		breq .L128
 3633               		.loc 2 391 0 is_stmt 0 discriminator 1
 3634 169c 8985      		ldd r24,Y+9
 3635 169e 9A85      		ldd r25,Y+10
 3636 16a0 FC01      		movw r30,r24
 3637 16a2 8489      		ldd r24,Z+20
 3638 16a4 9589      		ldd r25,Z+21
 3639 16a6 00C0      		rjmp .L129
 3640               	.L128:
 3641               		.loc 2 391 0 discriminator 2
 3642 16a8 8985      		ldd r24,Y+9
 3643 16aa 9A85      		ldd r25,Y+10
 3644 16ac FC01      		movw r30,r24
 3645 16ae 8089      		ldd r24,Z+16
 3646 16b0 9189      		ldd r25,Z+17
 3647               	.L129:
 3648               		.loc 2 391 0 discriminator 4
 3649 16b2 9C83      		std Y+4,r25
 3650 16b4 8B83      		std Y+3,r24
 392:lp_solve_5.5/lp_presolve.c **** 
 393:lp_solve_5.5/lp_presolve.c ****   if(fabs(plu[item]) >= lp->infinite)
 3651               		.loc 2 393 0 is_stmt 1 discriminator 4
 3652 16b6 8F81      		ldd r24,Y+7
 3653 16b8 9885      		ldd r25,Y+8
 3654 16ba 880F      		lsl r24
 3655 16bc 991F      		rol r25
 3656 16be 880F      		lsl r24
 3657 16c0 991F      		rol r25
 3658 16c2 2981      		ldd r18,Y+1
 3659 16c4 3A81      		ldd r19,Y+2
 3660 16c6 820F      		add r24,r18
 3661 16c8 931F      		adc r25,r19
 3662 16ca FC01      		movw r30,r24
 3663 16cc 8081      		ld r24,Z
 3664 16ce 9181      		ldd r25,Z+1
 3665 16d0 A281      		ldd r26,Z+2
 3666 16d2 B381      		ldd r27,Z+3
 3667 16d4 BF77      		andi r27,0x7f
 3668 16d6 2D81      		ldd r18,Y+5
 3669 16d8 3E81      		ldd r19,Y+6
 3670 16da 265F      		subi r18,-10
 3671 16dc 3C4F      		sbci r19,-4
 3672 16de F901      		movw r30,r18
 3673 16e0 2081      		ld r18,Z
 3674 16e2 3181      		ldd r19,Z+1
 3675 16e4 4281      		ldd r20,Z+2
 3676 16e6 5381      		ldd r21,Z+3
 3677 16e8 BC01      		movw r22,r24
 3678 16ea CD01      		movw r24,r26
 3679 16ec 0E94 0000 		call __gesf2
 3680 16f0 8823      		tst r24
 3681 16f2 04F0      		brlt .L137
 394:lp_solve_5.5/lp_presolve.c ****     return( plu[item] );
 3682               		.loc 2 394 0
 3683 16f4 8F81      		ldd r24,Y+7
 3684 16f6 9885      		ldd r25,Y+8
 3685 16f8 880F      		lsl r24
 3686 16fa 991F      		rol r25
 3687 16fc 880F      		lsl r24
 3688 16fe 991F      		rol r25
 3689 1700 2981      		ldd r18,Y+1
 3690 1702 3A81      		ldd r19,Y+2
 3691 1704 820F      		add r24,r18
 3692 1706 931F      		adc r25,r19
 3693 1708 FC01      		movw r30,r24
 3694 170a 8081      		ld r24,Z
 3695 170c 9181      		ldd r25,Z+1
 3696 170e A281      		ldd r26,Z+2
 3697 1710 B381      		ldd r27,Z+3
 3698 1712 00C0      		rjmp .L132
 3699               	.L137:
 395:lp_solve_5.5/lp_presolve.c ****   else if(fabs(neg[item]) >= lp->infinite)
 3700               		.loc 2 395 0
 3701 1714 8F81      		ldd r24,Y+7
 3702 1716 9885      		ldd r25,Y+8
 3703 1718 880F      		lsl r24
 3704 171a 991F      		rol r25
 3705 171c 880F      		lsl r24
 3706 171e 991F      		rol r25
 3707 1720 2B81      		ldd r18,Y+3
 3708 1722 3C81      		ldd r19,Y+4
 3709 1724 820F      		add r24,r18
 3710 1726 931F      		adc r25,r19
 3711 1728 FC01      		movw r30,r24
 3712 172a 8081      		ld r24,Z
 3713 172c 9181      		ldd r25,Z+1
 3714 172e A281      		ldd r26,Z+2
 3715 1730 B381      		ldd r27,Z+3
 3716 1732 BF77      		andi r27,0x7f
 3717 1734 2D81      		ldd r18,Y+5
 3718 1736 3E81      		ldd r19,Y+6
 3719 1738 265F      		subi r18,-10
 3720 173a 3C4F      		sbci r19,-4
 3721 173c F901      		movw r30,r18
 3722 173e 2081      		ld r18,Z
 3723 1740 3181      		ldd r19,Z+1
 3724 1742 4281      		ldd r20,Z+2
 3725 1744 5381      		ldd r21,Z+3
 3726 1746 BC01      		movw r22,r24
 3727 1748 CD01      		movw r24,r26
 3728 174a 0E94 0000 		call __gesf2
 3729 174e 8823      		tst r24
 3730 1750 04F0      		brlt .L138
 396:lp_solve_5.5/lp_presolve.c ****     return( neg[item] );
 3731               		.loc 2 396 0
 3732 1752 8F81      		ldd r24,Y+7
 3733 1754 9885      		ldd r25,Y+8
 3734 1756 880F      		lsl r24
 3735 1758 991F      		rol r25
 3736 175a 880F      		lsl r24
 3737 175c 991F      		rol r25
 3738 175e 2B81      		ldd r18,Y+3
 3739 1760 3C81      		ldd r19,Y+4
 3740 1762 820F      		add r24,r18
 3741 1764 931F      		adc r25,r19
 3742 1766 FC01      		movw r30,r24
 3743 1768 8081      		ld r24,Z
 3744 176a 9181      		ldd r25,Z+1
 3745 176c A281      		ldd r26,Z+2
 3746 176e B381      		ldd r27,Z+3
 3747 1770 00C0      		rjmp .L132
 3748               	.L138:
 397:lp_solve_5.5/lp_presolve.c ****   else
 398:lp_solve_5.5/lp_presolve.c ****     return( plu[item]+neg[item] );
 3749               		.loc 2 398 0
 3750 1772 8F81      		ldd r24,Y+7
 3751 1774 9885      		ldd r25,Y+8
 3752 1776 880F      		lsl r24
 3753 1778 991F      		rol r25
 3754 177a 880F      		lsl r24
 3755 177c 991F      		rol r25
 3756 177e 2981      		ldd r18,Y+1
 3757 1780 3A81      		ldd r19,Y+2
 3758 1782 820F      		add r24,r18
 3759 1784 931F      		adc r25,r19
 3760 1786 FC01      		movw r30,r24
 3761 1788 8081      		ld r24,Z
 3762 178a 9181      		ldd r25,Z+1
 3763 178c A281      		ldd r26,Z+2
 3764 178e B381      		ldd r27,Z+3
 3765 1790 2F81      		ldd r18,Y+7
 3766 1792 3885      		ldd r19,Y+8
 3767 1794 220F      		lsl r18
 3768 1796 331F      		rol r19
 3769 1798 220F      		lsl r18
 3770 179a 331F      		rol r19
 3771 179c 4B81      		ldd r20,Y+3
 3772 179e 5C81      		ldd r21,Y+4
 3773 17a0 240F      		add r18,r20
 3774 17a2 351F      		adc r19,r21
 3775 17a4 F901      		movw r30,r18
 3776 17a6 2081      		ld r18,Z
 3777 17a8 3181      		ldd r19,Z+1
 3778 17aa 4281      		ldd r20,Z+2
 3779 17ac 5381      		ldd r21,Z+3
 3780 17ae BC01      		movw r22,r24
 3781 17b0 CD01      		movw r24,r26
 3782 17b2 0E94 0000 		call __addsf3
 3783 17b6 DC01      		movw r26,r24
 3784 17b8 CB01      		movw r24,r22
 3785               	.L132:
 399:lp_solve_5.5/lp_presolve.c **** }
 3786               		.loc 2 399 0
 3787 17ba BC01      		movw r22,r24
 3788 17bc CD01      		movw r24,r26
 3789               	/* epilogue start */
 3790 17be 2B96      		adiw r28,11
 3791 17c0 0FB6      		in __tmp_reg__,__SREG__
 3792 17c2 F894      		cli
 3793 17c4 DEBF      		out __SP_H__,r29
 3794 17c6 0FBE      		out __SREG__,__tmp_reg__
 3795 17c8 CDBF      		out __SP_L__,r28
 3796 17ca DF91      		pop r29
 3797 17cc CF91      		pop r28
 3798 17ce 0895      		ret
 3799               		.cfi_endproc
 3800               	.LFE22:
 3803               	presolve_range:
 3804               	.LFB23:
 400:lp_solve_5.5/lp_presolve.c **** 
 401:lp_solve_5.5/lp_presolve.c **** INLINE void presolve_range(lprec *lp, int rownr, psrec *ps, REAL *loValue, REAL *hiValue)
 402:lp_solve_5.5/lp_presolve.c **** {
 3805               		.loc 2 402 0
 3806               		.cfi_startproc
 3807 17d0 0F93      		push r16
 3808               	.LCFI77:
 3809               		.cfi_def_cfa_offset 3
 3810               		.cfi_offset 16, -2
 3811 17d2 1F93      		push r17
 3812               	.LCFI78:
 3813               		.cfi_def_cfa_offset 4
 3814               		.cfi_offset 17, -3
 3815 17d4 CF93      		push r28
 3816               	.LCFI79:
 3817               		.cfi_def_cfa_offset 5
 3818               		.cfi_offset 28, -4
 3819 17d6 DF93      		push r29
 3820               	.LCFI80:
 3821               		.cfi_def_cfa_offset 6
 3822               		.cfi_offset 29, -5
 3823 17d8 CDB7      		in r28,__SP_L__
 3824 17da DEB7      		in r29,__SP_H__
 3825               	.LCFI81:
 3826               		.cfi_def_cfa_register 28
 3827 17dc 2A97      		sbiw r28,10
 3828               	.LCFI82:
 3829               		.cfi_def_cfa_offset 16
 3830 17de 0FB6      		in __tmp_reg__,__SREG__
 3831 17e0 F894      		cli
 3832 17e2 DEBF      		out __SP_H__,r29
 3833 17e4 0FBE      		out __SREG__,__tmp_reg__
 3834 17e6 CDBF      		out __SP_L__,r28
 3835               	/* prologue: function */
 3836               	/* frame size = 10 */
 3837               	/* stack size = 14 */
 3838               	.L__stack_usage = 14
 3839 17e8 9A83      		std Y+2,r25
 3840 17ea 8983      		std Y+1,r24
 3841 17ec 7C83      		std Y+4,r23
 3842 17ee 6B83      		std Y+3,r22
 3843 17f0 5E83      		std Y+6,r21
 3844 17f2 4D83      		std Y+5,r20
 3845 17f4 3887      		std Y+8,r19
 3846 17f6 2F83      		std Y+7,r18
 3847 17f8 1A87      		std Y+10,r17
 3848 17fa 0987      		std Y+9,r16
 403:lp_solve_5.5/lp_presolve.c ****   *loValue = presolve_sumplumin(lp, rownr,   ps, FALSE);
 3849               		.loc 2 403 0
 3850 17fc 4D81      		ldd r20,Y+5
 3851 17fe 5E81      		ldd r21,Y+6
 3852 1800 6B81      		ldd r22,Y+3
 3853 1802 7C81      		ldd r23,Y+4
 3854 1804 8981      		ldd r24,Y+1
 3855 1806 9A81      		ldd r25,Y+2
 3856 1808 20E0      		ldi r18,0
 3857 180a 0E94 0000 		call presolve_sumplumin
 3858 180e DC01      		movw r26,r24
 3859 1810 CB01      		movw r24,r22
 3860 1812 2F81      		ldd r18,Y+7
 3861 1814 3885      		ldd r19,Y+8
 3862 1816 F901      		movw r30,r18
 3863 1818 8083      		st Z,r24
 3864 181a 9183      		std Z+1,r25
 3865 181c A283      		std Z+2,r26
 3866 181e B383      		std Z+3,r27
 404:lp_solve_5.5/lp_presolve.c ****   *hiValue = presolve_sumplumin(lp, rownr,   ps, TRUE);
 3867               		.loc 2 404 0
 3868 1820 4D81      		ldd r20,Y+5
 3869 1822 5E81      		ldd r21,Y+6
 3870 1824 6B81      		ldd r22,Y+3
 3871 1826 7C81      		ldd r23,Y+4
 3872 1828 8981      		ldd r24,Y+1
 3873 182a 9A81      		ldd r25,Y+2
 3874 182c 21E0      		ldi r18,lo8(1)
 3875 182e 0E94 0000 		call presolve_sumplumin
 3876 1832 DC01      		movw r26,r24
 3877 1834 CB01      		movw r24,r22
 3878 1836 2985      		ldd r18,Y+9
 3879 1838 3A85      		ldd r19,Y+10
 3880 183a F901      		movw r30,r18
 3881 183c 8083      		st Z,r24
 3882 183e 9183      		std Z+1,r25
 3883 1840 A283      		std Z+2,r26
 3884 1842 B383      		std Z+3,r27
 405:lp_solve_5.5/lp_presolve.c **** }
 3885               		.loc 2 405 0
 3886 1844 0000      		nop
 3887               	/* epilogue start */
 3888 1846 2A96      		adiw r28,10
 3889 1848 0FB6      		in __tmp_reg__,__SREG__
 3890 184a F894      		cli
 3891 184c DEBF      		out __SP_H__,r29
 3892 184e 0FBE      		out __SREG__,__tmp_reg__
 3893 1850 CDBF      		out __SP_L__,r28
 3894 1852 DF91      		pop r29
 3895 1854 CF91      		pop r28
 3896 1856 1F91      		pop r17
 3897 1858 0F91      		pop r16
 3898 185a 0895      		ret
 3899               		.cfi_endproc
 3900               	.LFE23:
 3902               	.global	presolve_rangeorig
 3904               	presolve_rangeorig:
 3905               	.LFB24:
 406:lp_solve_5.5/lp_presolve.c **** 
 407:lp_solve_5.5/lp_presolve.c **** STATIC void presolve_rangeorig(lprec *lp, int rownr, psrec *ps, REAL *loValue, REAL *hiValue, REAL 
 408:lp_solve_5.5/lp_presolve.c **** {
 3906               		.loc 2 408 0
 3907               		.cfi_startproc
 3908 185c CF92      		push r12
 3909               	.LCFI83:
 3910               		.cfi_def_cfa_offset 3
 3911               		.cfi_offset 12, -2
 3912 185e DF92      		push r13
 3913               	.LCFI84:
 3914               		.cfi_def_cfa_offset 4
 3915               		.cfi_offset 13, -3
 3916 1860 EF92      		push r14
 3917               	.LCFI85:
 3918               		.cfi_def_cfa_offset 5
 3919               		.cfi_offset 14, -4
 3920 1862 FF92      		push r15
 3921               	.LCFI86:
 3922               		.cfi_def_cfa_offset 6
 3923               		.cfi_offset 15, -5
 3924 1864 0F93      		push r16
 3925               	.LCFI87:
 3926               		.cfi_def_cfa_offset 7
 3927               		.cfi_offset 16, -6
 3928 1866 1F93      		push r17
 3929               	.LCFI88:
 3930               		.cfi_def_cfa_offset 8
 3931               		.cfi_offset 17, -7
 3932 1868 CF93      		push r28
 3933               	.LCFI89:
 3934               		.cfi_def_cfa_offset 9
 3935               		.cfi_offset 28, -8
 3936 186a DF93      		push r29
 3937               	.LCFI90:
 3938               		.cfi_def_cfa_offset 10
 3939               		.cfi_offset 29, -9
 3940 186c CDB7      		in r28,__SP_L__
 3941 186e DEB7      		in r29,__SP_H__
 3942               	.LCFI91:
 3943               		.cfi_def_cfa_register 28
 3944 1870 2E97      		sbiw r28,14
 3945               	.LCFI92:
 3946               		.cfi_def_cfa_offset 24
 3947 1872 0FB6      		in __tmp_reg__,__SREG__
 3948 1874 F894      		cli
 3949 1876 DEBF      		out __SP_H__,r29
 3950 1878 0FBE      		out __SREG__,__tmp_reg__
 3951 187a CDBF      		out __SP_L__,r28
 3952               	/* prologue: function */
 3953               	/* frame size = 14 */
 3954               	/* stack size = 22 */
 3955               	.L__stack_usage = 22
 3956 187c 9A83      		std Y+2,r25
 3957 187e 8983      		std Y+1,r24
 3958 1880 7C83      		std Y+4,r23
 3959 1882 6B83      		std Y+3,r22
 3960 1884 5E83      		std Y+6,r21
 3961 1886 4D83      		std Y+5,r20
 3962 1888 3887      		std Y+8,r19
 3963 188a 2F83      		std Y+7,r18
 3964 188c 1A87      		std Y+10,r17
 3965 188e 0987      		std Y+9,r16
 3966 1890 CB86      		std Y+11,r12
 3967 1892 DC86      		std Y+12,r13
 3968 1894 ED86      		std Y+13,r14
 3969 1896 FE86      		std Y+14,r15
 409:lp_solve_5.5/lp_presolve.c ****   delta = my_chsign(is_chsign(lp, rownr), lp->presolve_undo->fixed_rhs[rownr] + delta);
 3970               		.loc 2 409 0
 3971 1898 2B81      		ldd r18,Y+3
 3972 189a 3C81      		ldd r19,Y+4
 3973 189c 8981      		ldd r24,Y+1
 3974 189e 9A81      		ldd r25,Y+2
 3975 18a0 B901      		movw r22,r18
 3976 18a2 0E94 0000 		call is_chsign
 3977 18a6 8823      		tst r24
 3978 18a8 01F4      		brne .+2
 3979 18aa 00C0      		rjmp .L141
 3980               		.loc 2 409 0 is_stmt 0 discriminator 1
 3981 18ac 8981      		ldd r24,Y+1
 3982 18ae 9A81      		ldd r25,Y+2
 3983 18b0 8A59      		subi r24,-102
 3984 18b2 9C4F      		sbci r25,-4
 3985 18b4 FC01      		movw r30,r24
 3986 18b6 8081      		ld r24,Z
 3987 18b8 9181      		ldd r25,Z+1
 3988 18ba FC01      		movw r30,r24
 3989 18bc 2485      		ldd r18,Z+12
 3990 18be 3585      		ldd r19,Z+13
 3991 18c0 8B81      		ldd r24,Y+3
 3992 18c2 9C81      		ldd r25,Y+4
 3993 18c4 880F      		lsl r24
 3994 18c6 991F      		rol r25
 3995 18c8 880F      		lsl r24
 3996 18ca 991F      		rol r25
 3997 18cc 820F      		add r24,r18
 3998 18ce 931F      		adc r25,r19
 3999 18d0 FC01      		movw r30,r24
 4000 18d2 8081      		ld r24,Z
 4001 18d4 9181      		ldd r25,Z+1
 4002 18d6 A281      		ldd r26,Z+2
 4003 18d8 B381      		ldd r27,Z+3
 4004 18da 2B85      		ldd r18,Y+11
 4005 18dc 3C85      		ldd r19,Y+12
 4006 18de 4D85      		ldd r20,Y+13
 4007 18e0 5E85      		ldd r21,Y+14
 4008 18e2 BC01      		movw r22,r24
 4009 18e4 CD01      		movw r24,r26
 4010 18e6 0E94 0000 		call __addsf3
 4011 18ea DC01      		movw r26,r24
 4012 18ec CB01      		movw r24,r22
 4013 18ee 20E0      		ldi r18,0
 4014 18f0 30E0      		ldi r19,0
 4015 18f2 A901      		movw r20,r18
 4016 18f4 BC01      		movw r22,r24
 4017 18f6 CD01      		movw r24,r26
 4018 18f8 0E94 0000 		call __nesf2
 4019 18fc 8823      		tst r24
 4020 18fe 01F0      		breq .L141
 4021               		.loc 2 409 0 discriminator 3
 4022 1900 8981      		ldd r24,Y+1
 4023 1902 9A81      		ldd r25,Y+2
 4024 1904 8A59      		subi r24,-102
 4025 1906 9C4F      		sbci r25,-4
 4026 1908 FC01      		movw r30,r24
 4027 190a 8081      		ld r24,Z
 4028 190c 9181      		ldd r25,Z+1
 4029 190e FC01      		movw r30,r24
 4030 1910 2485      		ldd r18,Z+12
 4031 1912 3585      		ldd r19,Z+13
 4032 1914 8B81      		ldd r24,Y+3
 4033 1916 9C81      		ldd r25,Y+4
 4034 1918 880F      		lsl r24
 4035 191a 991F      		rol r25
 4036 191c 880F      		lsl r24
 4037 191e 991F      		rol r25
 4038 1920 820F      		add r24,r18
 4039 1922 931F      		adc r25,r19
 4040 1924 FC01      		movw r30,r24
 4041 1926 8081      		ld r24,Z
 4042 1928 9181      		ldd r25,Z+1
 4043 192a A281      		ldd r26,Z+2
 4044 192c B381      		ldd r27,Z+3
 4045 192e 2B85      		ldd r18,Y+11
 4046 1930 3C85      		ldd r19,Y+12
 4047 1932 4D85      		ldd r20,Y+13
 4048 1934 5E85      		ldd r21,Y+14
 4049 1936 BC01      		movw r22,r24
 4050 1938 CD01      		movw r24,r26
 4051 193a 0E94 0000 		call __addsf3
 4052 193e DC01      		movw r26,r24
 4053 1940 CB01      		movw r24,r22
 4054 1942 B058      		subi r27,0x80
 4055 1944 00C0      		rjmp .L143
 4056               	.L141:
 4057               		.loc 2 409 0 discriminator 4
 4058 1946 8981      		ldd r24,Y+1
 4059 1948 9A81      		ldd r25,Y+2
 4060 194a 8A59      		subi r24,-102
 4061 194c 9C4F      		sbci r25,-4
 4062 194e FC01      		movw r30,r24
 4063 1950 8081      		ld r24,Z
 4064 1952 9181      		ldd r25,Z+1
 4065 1954 FC01      		movw r30,r24
 4066 1956 2485      		ldd r18,Z+12
 4067 1958 3585      		ldd r19,Z+13
 4068 195a 8B81      		ldd r24,Y+3
 4069 195c 9C81      		ldd r25,Y+4
 4070 195e 880F      		lsl r24
 4071 1960 991F      		rol r25
 4072 1962 880F      		lsl r24
 4073 1964 991F      		rol r25
 4074 1966 820F      		add r24,r18
 4075 1968 931F      		adc r25,r19
 4076 196a FC01      		movw r30,r24
 4077 196c 8081      		ld r24,Z
 4078 196e 9181      		ldd r25,Z+1
 4079 1970 A281      		ldd r26,Z+2
 4080 1972 B381      		ldd r27,Z+3
 4081 1974 2B85      		ldd r18,Y+11
 4082 1976 3C85      		ldd r19,Y+12
 4083 1978 4D85      		ldd r20,Y+13
 4084 197a 5E85      		ldd r21,Y+14
 4085 197c BC01      		movw r22,r24
 4086 197e CD01      		movw r24,r26
 4087 1980 0E94 0000 		call __addsf3
 4088 1984 DC01      		movw r26,r24
 4089 1986 CB01      		movw r24,r22
 4090               	.L143:
 4091               		.loc 2 409 0 discriminator 6
 4092 1988 8B87      		std Y+11,r24
 4093 198a 9C87      		std Y+12,r25
 4094 198c AD87      		std Y+13,r26
 4095 198e BE87      		std Y+14,r27
 410:lp_solve_5.5/lp_presolve.c ****   *loValue = presolve_sumplumin(lp, rownr,   ps, FALSE) + delta;
 4096               		.loc 2 410 0 is_stmt 1 discriminator 6
 4097 1990 4D81      		ldd r20,Y+5
 4098 1992 5E81      		ldd r21,Y+6
 4099 1994 6B81      		ldd r22,Y+3
 4100 1996 7C81      		ldd r23,Y+4
 4101 1998 8981      		ldd r24,Y+1
 4102 199a 9A81      		ldd r25,Y+2
 4103 199c 20E0      		ldi r18,0
 4104 199e 0E94 0000 		call presolve_sumplumin
 4105 19a2 DC01      		movw r26,r24
 4106 19a4 CB01      		movw r24,r22
 4107 19a6 2B85      		ldd r18,Y+11
 4108 19a8 3C85      		ldd r19,Y+12
 4109 19aa 4D85      		ldd r20,Y+13
 4110 19ac 5E85      		ldd r21,Y+14
 4111 19ae BC01      		movw r22,r24
 4112 19b0 CD01      		movw r24,r26
 4113 19b2 0E94 0000 		call __addsf3
 4114 19b6 DC01      		movw r26,r24
 4115 19b8 CB01      		movw r24,r22
 4116 19ba 2F81      		ldd r18,Y+7
 4117 19bc 3885      		ldd r19,Y+8
 4118 19be F901      		movw r30,r18
 4119 19c0 8083      		st Z,r24
 4120 19c2 9183      		std Z+1,r25
 4121 19c4 A283      		std Z+2,r26
 4122 19c6 B383      		std Z+3,r27
 411:lp_solve_5.5/lp_presolve.c ****   *hiValue = presolve_sumplumin(lp, rownr,   ps, TRUE) + delta;
 4123               		.loc 2 411 0 discriminator 6
 4124 19c8 4D81      		ldd r20,Y+5
 4125 19ca 5E81      		ldd r21,Y+6
 4126 19cc 6B81      		ldd r22,Y+3
 4127 19ce 7C81      		ldd r23,Y+4
 4128 19d0 8981      		ldd r24,Y+1
 4129 19d2 9A81      		ldd r25,Y+2
 4130 19d4 21E0      		ldi r18,lo8(1)
 4131 19d6 0E94 0000 		call presolve_sumplumin
 4132 19da DC01      		movw r26,r24
 4133 19dc CB01      		movw r24,r22
 4134 19de 2B85      		ldd r18,Y+11
 4135 19e0 3C85      		ldd r19,Y+12
 4136 19e2 4D85      		ldd r20,Y+13
 4137 19e4 5E85      		ldd r21,Y+14
 4138 19e6 BC01      		movw r22,r24
 4139 19e8 CD01      		movw r24,r26
 4140 19ea 0E94 0000 		call __addsf3
 4141 19ee DC01      		movw r26,r24
 4142 19f0 CB01      		movw r24,r22
 4143 19f2 2985      		ldd r18,Y+9
 4144 19f4 3A85      		ldd r19,Y+10
 4145 19f6 F901      		movw r30,r18
 4146 19f8 8083      		st Z,r24
 4147 19fa 9183      		std Z+1,r25
 4148 19fc A283      		std Z+2,r26
 4149 19fe B383      		std Z+3,r27
 412:lp_solve_5.5/lp_presolve.c **** }
 4150               		.loc 2 412 0 discriminator 6
 4151 1a00 0000      		nop
 4152               	/* epilogue start */
 4153 1a02 2E96      		adiw r28,14
 4154 1a04 0FB6      		in __tmp_reg__,__SREG__
 4155 1a06 F894      		cli
 4156 1a08 DEBF      		out __SP_H__,r29
 4157 1a0a 0FBE      		out __SREG__,__tmp_reg__
 4158 1a0c CDBF      		out __SP_L__,r28
 4159 1a0e DF91      		pop r29
 4160 1a10 CF91      		pop r28
 4161 1a12 1F91      		pop r17
 4162 1a14 0F91      		pop r16
 4163 1a16 FF90      		pop r15
 4164 1a18 EF90      		pop r14
 4165 1a1a DF90      		pop r13
 4166 1a1c CF90      		pop r12
 4167 1a1e 0895      		ret
 4168               		.cfi_endproc
 4169               	.LFE24:
 4171               		.section	.rodata
 4172               	.LC10:
 4173 01f7 7072 6573 		.string	"presolve_rowfeasible: Lower bound infeasibility in %s row %s (%g << %g)\n"
 4173      6F6C 7665 
 4173      5F72 6F77 
 4173      6665 6173 
 4173      6962 6C65 
 4174               	.LC11:
 4175 0240 2020 2020 		.string	"        ...           Input row base used for testing was %s\n"
 4175      2020 2020 
 4175      2E2E 2E20 
 4175      2020 2020 
 4175      2020 2020 
 4176               	.LC12:
 4177 027e 7072 6573 		.string	"presolve_rowfeasible: Upper bound infeasibility in %s row %s (%g >> %g)\n"
 4177      6F6C 7665 
 4177      5F72 6F77 
 4177      6665 6173 
 4177      6962 6C65 
 4178               		.text
 4179               	.global	presolve_rowfeasible
 4181               	presolve_rowfeasible:
 4182               	.LFB25:
 413:lp_solve_5.5/lp_presolve.c **** 
 414:lp_solve_5.5/lp_presolve.c **** STATIC MYBOOL presolve_rowfeasible(presolverec *psdata, int rownr, MYBOOL userowmap)
 415:lp_solve_5.5/lp_presolve.c **** {
 4183               		.loc 2 415 0
 4184               		.cfi_startproc
 4185 1a20 0F93      		push r16
 4186               	.LCFI93:
 4187               		.cfi_def_cfa_offset 3
 4188               		.cfi_offset 16, -2
 4189 1a22 1F93      		push r17
 4190               	.LCFI94:
 4191               		.cfi_def_cfa_offset 4
 4192               		.cfi_offset 17, -3
 4193 1a24 CF93      		push r28
 4194               	.LCFI95:
 4195               		.cfi_def_cfa_offset 5
 4196               		.cfi_offset 28, -4
 4197 1a26 DF93      		push r29
 4198               	.LCFI96:
 4199               		.cfi_def_cfa_offset 6
 4200               		.cfi_offset 29, -5
 4201 1a28 CDB7      		in r28,__SP_L__
 4202 1a2a DEB7      		in r29,__SP_H__
 4203               	.LCFI97:
 4204               		.cfi_def_cfa_register 28
 4205 1a2c 6897      		sbiw r28,24
 4206               	.LCFI98:
 4207               		.cfi_def_cfa_offset 30
 4208 1a2e 0FB6      		in __tmp_reg__,__SREG__
 4209 1a30 F894      		cli
 4210 1a32 DEBF      		out __SP_H__,r29
 4211 1a34 0FBE      		out __SREG__,__tmp_reg__
 4212 1a36 CDBF      		out __SP_L__,r28
 4213               	/* prologue: function */
 4214               	/* frame size = 24 */
 4215               	/* stack size = 28 */
 4216               	.L__stack_usage = 28
 4217 1a38 9D8B      		std Y+21,r25
 4218 1a3a 8C8B      		std Y+20,r24
 4219 1a3c 7F8B      		std Y+23,r23
 4220 1a3e 6E8B      		std Y+22,r22
 4221 1a40 488F      		std Y+24,r20
 416:lp_solve_5.5/lp_presolve.c ****   lprec    *lp = psdata->lp;
 4222               		.loc 2 416 0
 4223 1a42 8C89      		ldd r24,Y+20
 4224 1a44 9D89      		ldd r25,Y+21
 4225 1a46 FC01      		movw r30,r24
 4226 1a48 8289      		ldd r24,Z+18
 4227 1a4a 9389      		ldd r25,Z+19
 4228 1a4c 9B83      		std Y+3,r25
 4229 1a4e 8A83      		std Y+2,r24
 417:lp_solve_5.5/lp_presolve.c ****   MYBOOL   status = TRUE;
 4230               		.loc 2 417 0
 4231 1a50 81E0      		ldi r24,lo8(1)
 4232 1a52 8983      		std Y+1,r24
 418:lp_solve_5.5/lp_presolve.c ****   int      contype, origrownr = rownr;
 4233               		.loc 2 418 0
 4234 1a54 8E89      		ldd r24,Y+22
 4235 1a56 9F89      		ldd r25,Y+23
 4236 1a58 9D83      		std Y+5,r25
 4237 1a5a 8C83      		std Y+4,r24
 419:lp_solve_5.5/lp_presolve.c ****   REAL     LHS, RHS, value;
 420:lp_solve_5.5/lp_presolve.c **** 
 421:lp_solve_5.5/lp_presolve.c ****   /* Optionally loop across all active rows in the provided map (debugging) */
 422:lp_solve_5.5/lp_presolve.c ****   if(userowmap)
 4238               		.loc 2 422 0
 4239 1a5c 888D      		ldd r24,Y+24
 4240 1a5e 8823      		tst r24
 4241 1a60 01F4      		brne .+2
 4242 1a62 00C0      		rjmp .L147
 423:lp_solve_5.5/lp_presolve.c ****     rownr = firstActiveLink(psdata->rows->varmap);
 4243               		.loc 2 423 0
 4244 1a64 8C89      		ldd r24,Y+20
 4245 1a66 9D89      		ldd r25,Y+21
 4246 1a68 FC01      		movw r30,r24
 4247 1a6a 8081      		ld r24,Z
 4248 1a6c 9181      		ldd r25,Z+1
 4249 1a6e FC01      		movw r30,r24
 4250 1a70 8081      		ld r24,Z
 4251 1a72 9181      		ldd r25,Z+1
 4252 1a74 0E94 0000 		call firstActiveLink
 4253 1a78 9F8B      		std Y+23,r25
 4254 1a7a 8E8B      		std Y+22,r24
 424:lp_solve_5.5/lp_presolve.c **** 
 425:lp_solve_5.5/lp_presolve.c ****   /* Now do once for ingoing rownr or loop across rowmap */
 426:lp_solve_5.5/lp_presolve.c ****   while((status == TRUE) && (rownr != 0)) {
 4255               		.loc 2 426 0
 4256 1a7c 00C0      		rjmp .L147
 4257               	.L155:
 427:lp_solve_5.5/lp_presolve.c **** 
 428:lp_solve_5.5/lp_presolve.c ****     /* Check the lower bound */
 429:lp_solve_5.5/lp_presolve.c ****     value = presolve_sumplumin(lp, rownr, psdata->rows, TRUE);
 4258               		.loc 2 429 0
 4259 1a7e 8C89      		ldd r24,Y+20
 4260 1a80 9D89      		ldd r25,Y+21
 4261 1a82 FC01      		movw r30,r24
 4262 1a84 4081      		ld r20,Z
 4263 1a86 5181      		ldd r21,Z+1
 4264 1a88 6E89      		ldd r22,Y+22
 4265 1a8a 7F89      		ldd r23,Y+23
 4266 1a8c 8A81      		ldd r24,Y+2
 4267 1a8e 9B81      		ldd r25,Y+3
 4268 1a90 21E0      		ldi r18,lo8(1)
 4269 1a92 0E94 0000 		call presolve_sumplumin
 4270 1a96 DC01      		movw r26,r24
 4271 1a98 CB01      		movw r24,r22
 4272 1a9a 8E83      		std Y+6,r24
 4273 1a9c 9F83      		std Y+7,r25
 4274 1a9e A887      		std Y+8,r26
 4275 1aa0 B987      		std Y+9,r27
 430:lp_solve_5.5/lp_presolve.c ****     LHS = get_rh_lower(lp, rownr);
 4276               		.loc 2 430 0
 4277 1aa2 2E89      		ldd r18,Y+22
 4278 1aa4 3F89      		ldd r19,Y+23
 4279 1aa6 8A81      		ldd r24,Y+2
 4280 1aa8 9B81      		ldd r25,Y+3
 4281 1aaa B901      		movw r22,r18
 4282 1aac 0E94 0000 		call get_rh_lower
 4283 1ab0 DC01      		movw r26,r24
 4284 1ab2 CB01      		movw r24,r22
 4285 1ab4 8A87      		std Y+10,r24
 4286 1ab6 9B87      		std Y+11,r25
 4287 1ab8 AC87      		std Y+12,r26
 4288 1aba BD87      		std Y+13,r27
 431:lp_solve_5.5/lp_presolve.c ****     if(value < LHS-lp->epssolution) {
 4289               		.loc 2 431 0
 4290 1abc 8A81      		ldd r24,Y+2
 4291 1abe 9B81      		ldd r25,Y+3
 4292 1ac0 865D      		subi r24,-42
 4293 1ac2 9C4F      		sbci r25,-4
 4294 1ac4 FC01      		movw r30,r24
 4295 1ac6 8081      		ld r24,Z
 4296 1ac8 9181      		ldd r25,Z+1
 4297 1aca A281      		ldd r26,Z+2
 4298 1acc B381      		ldd r27,Z+3
 4299 1ace 9C01      		movw r18,r24
 4300 1ad0 AD01      		movw r20,r26
 4301 1ad2 6A85      		ldd r22,Y+10
 4302 1ad4 7B85      		ldd r23,Y+11
 4303 1ad6 8C85      		ldd r24,Y+12
 4304 1ad8 9D85      		ldd r25,Y+13
 4305 1ada 0E94 0000 		call __subsf3
 4306 1ade DC01      		movw r26,r24
 4307 1ae0 CB01      		movw r24,r22
 4308 1ae2 2E81      		ldd r18,Y+6
 4309 1ae4 3F81      		ldd r19,Y+7
 4310 1ae6 4885      		ldd r20,Y+8
 4311 1ae8 5985      		ldd r21,Y+9
 4312 1aea BC01      		movw r22,r24
 4313 1aec CD01      		movw r24,r26
 4314 1aee 0E94 0000 		call __gtsf2
 4315 1af2 1816      		cp __zero_reg__,r24
 4316 1af4 04F0      		brlt .+2
 4317 1af6 00C0      		rjmp .L148
 432:lp_solve_5.5/lp_presolve.c ****       contype = get_constr_type(lp, rownr);
 4318               		.loc 2 432 0
 4319 1af8 2E89      		ldd r18,Y+22
 4320 1afa 3F89      		ldd r19,Y+23
 4321 1afc 8A81      		ldd r24,Y+2
 4322 1afe 9B81      		ldd r25,Y+3
 4323 1b00 B901      		movw r22,r18
 4324 1b02 0E94 0000 		call get_constr_type
 4325 1b06 9F87      		std Y+15,r25
 4326 1b08 8E87      		std Y+14,r24
 433:lp_solve_5.5/lp_presolve.c ****       report(lp, NORMAL, "presolve_rowfeasible: Lower bound infeasibility in %s row %s (%g << %g)\n
 4327               		.loc 2 433 0
 4328 1b0a 2E89      		ldd r18,Y+22
 4329 1b0c 3F89      		ldd r19,Y+23
 4330 1b0e 8A81      		ldd r24,Y+2
 4331 1b10 9B81      		ldd r25,Y+3
 4332 1b12 B901      		movw r22,r18
 4333 1b14 0E94 0000 		call get_row_name
 4334 1b18 8C01      		movw r16,r24
 4335 1b1a 2E85      		ldd r18,Y+14
 4336 1b1c 3F85      		ldd r19,Y+15
 4337 1b1e 8A81      		ldd r24,Y+2
 4338 1b20 9B81      		ldd r25,Y+3
 4339 1b22 B901      		movw r22,r18
 4340 1b24 0E94 0000 		call get_str_constr_type
 4341 1b28 2D85      		ldd r18,Y+13
 4342 1b2a 2F93      		push r18
 4343 1b2c 2C85      		ldd r18,Y+12
 4344 1b2e 2F93      		push r18
 4345 1b30 2B85      		ldd r18,Y+11
 4346 1b32 2F93      		push r18
 4347 1b34 2A85      		ldd r18,Y+10
 4348 1b36 2F93      		push r18
 4349 1b38 2985      		ldd r18,Y+9
 4350 1b3a 2F93      		push r18
 4351 1b3c 2885      		ldd r18,Y+8
 4352 1b3e 2F93      		push r18
 4353 1b40 2F81      		ldd r18,Y+7
 4354 1b42 2F93      		push r18
 4355 1b44 2E81      		ldd r18,Y+6
 4356 1b46 2F93      		push r18
 4357 1b48 212F      		mov r18,r17
 4358 1b4a 2F93      		push r18
 4359 1b4c 202F      		mov r18,r16
 4360 1b4e 2F93      		push r18
 4361 1b50 292F      		mov r18,r25
 4362 1b52 2F93      		push r18
 4363 1b54 8F93      		push r24
 4364 1b56 80E0      		ldi r24,lo8(.LC10)
 4365 1b58 90E0      		ldi r25,hi8(.LC10)
 4366 1b5a 892F      		mov r24,r25
 4367 1b5c 8F93      		push r24
 4368 1b5e 80E0      		ldi r24,lo8(.LC10)
 4369 1b60 90E0      		ldi r25,hi8(.LC10)
 4370 1b62 8F93      		push r24
 4371 1b64 1F92      		push __zero_reg__
 4372 1b66 84E0      		ldi r24,lo8(4)
 4373 1b68 8F93      		push r24
 4374 1b6a 8B81      		ldd r24,Y+3
 4375 1b6c 8F93      		push r24
 4376 1b6e 8A81      		ldd r24,Y+2
 4377 1b70 8F93      		push r24
 4378 1b72 0E94 0000 		call report
 4379 1b76 8DB7      		in r24,__SP_L__
 4380 1b78 9EB7      		in r25,__SP_H__
 4381 1b7a 4296      		adiw r24,18
 4382 1b7c 0FB6      		in __tmp_reg__,__SREG__
 4383 1b7e F894      		cli
 4384 1b80 DEBF      		out __SP_H__,r29
 4385 1b82 0FBE      		out __SREG__,__tmp_reg__
 4386 1b84 CDBF      		out __SP_L__,r28
 434:lp_solve_5.5/lp_presolve.c ****                           get_str_constr_type(lp, contype), get_row_name(lp, rownr), value, LHS);
 435:lp_solve_5.5/lp_presolve.c ****       if(rownr != origrownr)
 4387               		.loc 2 435 0
 4388 1b86 2E89      		ldd r18,Y+22
 4389 1b88 3F89      		ldd r19,Y+23
 4390 1b8a 8C81      		ldd r24,Y+4
 4391 1b8c 9D81      		ldd r25,Y+5
 4392 1b8e 2817      		cp r18,r24
 4393 1b90 3907      		cpc r19,r25
 4394 1b92 01F0      		breq .L150
 436:lp_solve_5.5/lp_presolve.c ****       report(lp, NORMAL, "        ...           Input row base used for testing was %s\n",
 4395               		.loc 2 436 0
 4396 1b94 2C81      		ldd r18,Y+4
 4397 1b96 3D81      		ldd r19,Y+5
 4398 1b98 8A81      		ldd r24,Y+2
 4399 1b9a 9B81      		ldd r25,Y+3
 4400 1b9c B901      		movw r22,r18
 4401 1b9e 0E94 0000 		call get_row_name
 4402 1ba2 292F      		mov r18,r25
 4403 1ba4 2F93      		push r18
 4404 1ba6 8F93      		push r24
 4405 1ba8 80E0      		ldi r24,lo8(.LC11)
 4406 1baa 90E0      		ldi r25,hi8(.LC11)
 4407 1bac 892F      		mov r24,r25
 4408 1bae 8F93      		push r24
 4409 1bb0 80E0      		ldi r24,lo8(.LC11)
 4410 1bb2 90E0      		ldi r25,hi8(.LC11)
 4411 1bb4 8F93      		push r24
 4412 1bb6 1F92      		push __zero_reg__
 4413 1bb8 84E0      		ldi r24,lo8(4)
 4414 1bba 8F93      		push r24
 4415 1bbc 8B81      		ldd r24,Y+3
 4416 1bbe 8F93      		push r24
 4417 1bc0 8A81      		ldd r24,Y+2
 4418 1bc2 8F93      		push r24
 4419 1bc4 0E94 0000 		call report
 4420 1bc8 EDB7      		in r30,__SP_L__
 4421 1bca FEB7      		in r31,__SP_H__
 4422 1bcc 3896      		adiw r30,8
 4423 1bce 0FB6      		in __tmp_reg__,__SREG__
 4424 1bd0 F894      		cli
 4425 1bd2 DEBF      		out __SP_H__,r29
 4426 1bd4 0FBE      		out __SREG__,__tmp_reg__
 4427 1bd6 CDBF      		out __SP_L__,r28
 4428               	.L150:
 437:lp_solve_5.5/lp_presolve.c ****                                                     get_row_name(lp, origrownr));
 438:lp_solve_5.5/lp_presolve.c ****       status = FALSE;
 4429               		.loc 2 438 0
 4430 1bd8 1982      		std Y+1,__zero_reg__
 4431               	.L148:
 439:lp_solve_5.5/lp_presolve.c ****     }
 440:lp_solve_5.5/lp_presolve.c **** 
 441:lp_solve_5.5/lp_presolve.c ****     /* Check the upper bound */
 442:lp_solve_5.5/lp_presolve.c ****     value = presolve_sumplumin(lp, rownr, psdata->rows, FALSE);
 4432               		.loc 2 442 0
 4433 1bda 8C89      		ldd r24,Y+20
 4434 1bdc 9D89      		ldd r25,Y+21
 4435 1bde FC01      		movw r30,r24
 4436 1be0 4081      		ld r20,Z
 4437 1be2 5181      		ldd r21,Z+1
 4438 1be4 6E89      		ldd r22,Y+22
 4439 1be6 7F89      		ldd r23,Y+23
 4440 1be8 8A81      		ldd r24,Y+2
 4441 1bea 9B81      		ldd r25,Y+3
 4442 1bec 20E0      		ldi r18,0
 4443 1bee 0E94 0000 		call presolve_sumplumin
 4444 1bf2 DC01      		movw r26,r24
 4445 1bf4 CB01      		movw r24,r22
 4446 1bf6 8E83      		std Y+6,r24
 4447 1bf8 9F83      		std Y+7,r25
 4448 1bfa A887      		std Y+8,r26
 4449 1bfc B987      		std Y+9,r27
 443:lp_solve_5.5/lp_presolve.c ****     RHS = get_rh_upper(lp, rownr);
 4450               		.loc 2 443 0
 4451 1bfe 2E89      		ldd r18,Y+22
 4452 1c00 3F89      		ldd r19,Y+23
 4453 1c02 8A81      		ldd r24,Y+2
 4454 1c04 9B81      		ldd r25,Y+3
 4455 1c06 B901      		movw r22,r18
 4456 1c08 0E94 0000 		call get_rh_upper
 4457 1c0c DC01      		movw r26,r24
 4458 1c0e CB01      		movw r24,r22
 4459 1c10 888B      		std Y+16,r24
 4460 1c12 998B      		std Y+17,r25
 4461 1c14 AA8B      		std Y+18,r26
 4462 1c16 BB8B      		std Y+19,r27
 444:lp_solve_5.5/lp_presolve.c ****     if(value > RHS+lp->epssolution) {
 4463               		.loc 2 444 0
 4464 1c18 8A81      		ldd r24,Y+2
 4465 1c1a 9B81      		ldd r25,Y+3
 4466 1c1c 865D      		subi r24,-42
 4467 1c1e 9C4F      		sbci r25,-4
 4468 1c20 FC01      		movw r30,r24
 4469 1c22 8081      		ld r24,Z
 4470 1c24 9181      		ldd r25,Z+1
 4471 1c26 A281      		ldd r26,Z+2
 4472 1c28 B381      		ldd r27,Z+3
 4473 1c2a 2889      		ldd r18,Y+16
 4474 1c2c 3989      		ldd r19,Y+17
 4475 1c2e 4A89      		ldd r20,Y+18
 4476 1c30 5B89      		ldd r21,Y+19
 4477 1c32 BC01      		movw r22,r24
 4478 1c34 CD01      		movw r24,r26
 4479 1c36 0E94 0000 		call __addsf3
 4480 1c3a DC01      		movw r26,r24
 4481 1c3c CB01      		movw r24,r22
 4482 1c3e 2E81      		ldd r18,Y+6
 4483 1c40 3F81      		ldd r19,Y+7
 4484 1c42 4885      		ldd r20,Y+8
 4485 1c44 5985      		ldd r21,Y+9
 4486 1c46 BC01      		movw r22,r24
 4487 1c48 CD01      		movw r24,r26
 4488 1c4a 0E94 0000 		call __ltsf2
 4489 1c4e 8823      		tst r24
 4490 1c50 04F0      		brlt .+2
 4491 1c52 00C0      		rjmp .L151
 445:lp_solve_5.5/lp_presolve.c ****       contype = get_constr_type(lp, rownr);
 4492               		.loc 2 445 0
 4493 1c54 2E89      		ldd r18,Y+22
 4494 1c56 3F89      		ldd r19,Y+23
 4495 1c58 8A81      		ldd r24,Y+2
 4496 1c5a 9B81      		ldd r25,Y+3
 4497 1c5c B901      		movw r22,r18
 4498 1c5e 0E94 0000 		call get_constr_type
 4499 1c62 9F87      		std Y+15,r25
 4500 1c64 8E87      		std Y+14,r24
 446:lp_solve_5.5/lp_presolve.c ****       report(lp, NORMAL, "presolve_rowfeasible: Upper bound infeasibility in %s row %s (%g >> %g)\n
 4501               		.loc 2 446 0
 4502 1c66 2E89      		ldd r18,Y+22
 4503 1c68 3F89      		ldd r19,Y+23
 4504 1c6a 8A81      		ldd r24,Y+2
 4505 1c6c 9B81      		ldd r25,Y+3
 4506 1c6e B901      		movw r22,r18
 4507 1c70 0E94 0000 		call get_row_name
 4508 1c74 8C01      		movw r16,r24
 4509 1c76 2E85      		ldd r18,Y+14
 4510 1c78 3F85      		ldd r19,Y+15
 4511 1c7a 8A81      		ldd r24,Y+2
 4512 1c7c 9B81      		ldd r25,Y+3
 4513 1c7e B901      		movw r22,r18
 4514 1c80 0E94 0000 		call get_str_constr_type
 4515 1c84 2B89      		ldd r18,Y+19
 4516 1c86 2F93      		push r18
 4517 1c88 2A89      		ldd r18,Y+18
 4518 1c8a 2F93      		push r18
 4519 1c8c 2989      		ldd r18,Y+17
 4520 1c8e 2F93      		push r18
 4521 1c90 2889      		ldd r18,Y+16
 4522 1c92 2F93      		push r18
 4523 1c94 2985      		ldd r18,Y+9
 4524 1c96 2F93      		push r18
 4525 1c98 2885      		ldd r18,Y+8
 4526 1c9a 2F93      		push r18
 4527 1c9c 2F81      		ldd r18,Y+7
 4528 1c9e 2F93      		push r18
 4529 1ca0 2E81      		ldd r18,Y+6
 4530 1ca2 2F93      		push r18
 4531 1ca4 212F      		mov r18,r17
 4532 1ca6 2F93      		push r18
 4533 1ca8 202F      		mov r18,r16
 4534 1caa 2F93      		push r18
 4535 1cac 292F      		mov r18,r25
 4536 1cae 2F93      		push r18
 4537 1cb0 8F93      		push r24
 4538 1cb2 80E0      		ldi r24,lo8(.LC12)
 4539 1cb4 90E0      		ldi r25,hi8(.LC12)
 4540 1cb6 892F      		mov r24,r25
 4541 1cb8 8F93      		push r24
 4542 1cba 80E0      		ldi r24,lo8(.LC12)
 4543 1cbc 90E0      		ldi r25,hi8(.LC12)
 4544 1cbe 8F93      		push r24
 4545 1cc0 1F92      		push __zero_reg__
 4546 1cc2 84E0      		ldi r24,lo8(4)
 4547 1cc4 8F93      		push r24
 4548 1cc6 8B81      		ldd r24,Y+3
 4549 1cc8 8F93      		push r24
 4550 1cca 8A81      		ldd r24,Y+2
 4551 1ccc 8F93      		push r24
 4552 1cce 0E94 0000 		call report
 4553 1cd2 8DB7      		in r24,__SP_L__
 4554 1cd4 9EB7      		in r25,__SP_H__
 4555 1cd6 4296      		adiw r24,18
 4556 1cd8 0FB6      		in __tmp_reg__,__SREG__
 4557 1cda F894      		cli
 4558 1cdc DEBF      		out __SP_H__,r29
 4559 1cde 0FBE      		out __SREG__,__tmp_reg__
 4560 1ce0 CDBF      		out __SP_L__,r28
 447:lp_solve_5.5/lp_presolve.c ****                           get_str_constr_type(lp, contype), get_row_name(lp, rownr), value, RHS);
 448:lp_solve_5.5/lp_presolve.c ****       status = FALSE;
 4561               		.loc 2 448 0
 4562 1ce2 1982      		std Y+1,__zero_reg__
 4563               	.L151:
 449:lp_solve_5.5/lp_presolve.c ****     }
 450:lp_solve_5.5/lp_presolve.c ****     if(userowmap)
 4564               		.loc 2 450 0
 4565 1ce4 888D      		ldd r24,Y+24
 4566 1ce6 8823      		tst r24
 4567 1ce8 01F0      		breq .L153
 451:lp_solve_5.5/lp_presolve.c ****       rownr = nextActiveLink(psdata->rows->varmap, rownr);
 4568               		.loc 2 451 0
 4569 1cea 8C89      		ldd r24,Y+20
 4570 1cec 9D89      		ldd r25,Y+21
 4571 1cee FC01      		movw r30,r24
 4572 1cf0 8081      		ld r24,Z
 4573 1cf2 9181      		ldd r25,Z+1
 4574 1cf4 FC01      		movw r30,r24
 4575 1cf6 8081      		ld r24,Z
 4576 1cf8 9181      		ldd r25,Z+1
 4577 1cfa 2E89      		ldd r18,Y+22
 4578 1cfc 3F89      		ldd r19,Y+23
 4579 1cfe B901      		movw r22,r18
 4580 1d00 0E94 0000 		call nextActiveLink
 4581 1d04 9F8B      		std Y+23,r25
 4582 1d06 8E8B      		std Y+22,r24
 4583 1d08 00C0      		rjmp .L147
 4584               	.L153:
 452:lp_solve_5.5/lp_presolve.c ****     else
 453:lp_solve_5.5/lp_presolve.c ****       rownr = 0;
 4585               		.loc 2 453 0
 4586 1d0a 1F8A      		std Y+23,__zero_reg__
 4587 1d0c 1E8A      		std Y+22,__zero_reg__
 4588               	.L147:
 426:lp_solve_5.5/lp_presolve.c **** 
 4589               		.loc 2 426 0
 4590 1d0e 8981      		ldd r24,Y+1
 4591 1d10 8130      		cpi r24,lo8(1)
 4592 1d12 01F4      		brne .L154
 426:lp_solve_5.5/lp_presolve.c **** 
 4593               		.loc 2 426 0 is_stmt 0 discriminator 1
 4594 1d14 8E89      		ldd r24,Y+22
 4595 1d16 9F89      		ldd r25,Y+23
 4596 1d18 892B      		or r24,r25
 4597 1d1a 01F0      		breq .+2
 4598 1d1c 00C0      		rjmp .L155
 4599               	.L154:
 454:lp_solve_5.5/lp_presolve.c ****   }
 455:lp_solve_5.5/lp_presolve.c ****   return( status );
 4600               		.loc 2 455 0 is_stmt 1
 4601 1d1e 8981      		ldd r24,Y+1
 4602               	/* epilogue start */
 456:lp_solve_5.5/lp_presolve.c **** }
 4603               		.loc 2 456 0
 4604 1d20 6896      		adiw r28,24
 4605 1d22 0FB6      		in __tmp_reg__,__SREG__
 4606 1d24 F894      		cli
 4607 1d26 DEBF      		out __SP_H__,r29
 4608 1d28 0FBE      		out __SREG__,__tmp_reg__
 4609 1d2a CDBF      		out __SP_L__,r28
 4610 1d2c DF91      		pop r29
 4611 1d2e CF91      		pop r28
 4612 1d30 1F91      		pop r17
 4613 1d32 0F91      		pop r16
 4614 1d34 0895      		ret
 4615               		.cfi_endproc
 4616               	.LFE25:
 4618               		.section	.rodata
 4619               	.LC13:
 4620 02c7 7072 6573 		.string	"presolve_debugmap: Inactive column %d is non-empty\n"
 4620      6F6C 7665 
 4620      5F64 6562 
 4620      7567 6D61 
 4620      703A 2049 
 4621               	.LC14:
 4622 02fb 7072 6573 		.string	"presolve_debugmap: Active column %d is empty\n"
 4622      6F6C 7665 
 4622      5F64 6562 
 4622      7567 6D61 
 4622      703A 2041 
 4623               	.LC15:
 4624 0329 7072 6573 		.string	"presolve_debugmap: NZ index %d for column %d out of range (index %d<=%d)\n"
 4624      6F6C 7665 
 4624      5F64 6562 
 4624      7567 6D61 
 4624      703A 204E 
 4625               	.LC16:
 4626 0373 7072 6573 		.string	"presolve_debugmap: NZ index %d for column %d to row %d out of range\n"
 4626      6F6C 7665 
 4626      5F64 6562 
 4626      7567 6D61 
 4626      703A 204E 
 4627               	.LC17:
 4628 03b8 2E2E 2E63 		.string	"...caller was '%s'\n"
 4628      616C 6C65 
 4628      7220 7761 
 4628      7320 2725 
 4628      7327 0A00 
 4629               		.text
 4630               	.global	presolve_debugmap
 4632               	presolve_debugmap:
 4633               	.LFB26:
 457:lp_solve_5.5/lp_presolve.c **** 
 458:lp_solve_5.5/lp_presolve.c **** STATIC MYBOOL presolve_debugmap(presolverec *psdata, char *caption)
 459:lp_solve_5.5/lp_presolve.c **** {
 4634               		.loc 2 459 0
 4635               		.cfi_startproc
 4636 1d36 CF93      		push r28
 4637               	.LCFI99:
 4638               		.cfi_def_cfa_offset 3
 4639               		.cfi_offset 28, -2
 4640 1d38 DF93      		push r29
 4641               	.LCFI100:
 4642               		.cfi_def_cfa_offset 4
 4643               		.cfi_offset 29, -3
 4644 1d3a CDB7      		in r28,__SP_L__
 4645 1d3c DEB7      		in r29,__SP_H__
 4646               	.LCFI101:
 4647               		.cfi_def_cfa_register 28
 4648 1d3e 6D97      		sbiw r28,29
 4649               	.LCFI102:
 4650               		.cfi_def_cfa_offset 33
 4651 1d40 0FB6      		in __tmp_reg__,__SREG__
 4652 1d42 F894      		cli
 4653 1d44 DEBF      		out __SP_H__,r29
 4654 1d46 0FBE      		out __SREG__,__tmp_reg__
 4655 1d48 CDBF      		out __SP_L__,r28
 4656               	/* prologue: function */
 4657               	/* frame size = 29 */
 4658               	/* stack size = 31 */
 4659               	.L__stack_usage = 31
 4660 1d4a 9B8F      		std Y+27,r25
 4661 1d4c 8A8F      		std Y+26,r24
 4662 1d4e 7D8F      		std Y+29,r23
 4663 1d50 6C8F      		std Y+28,r22
 460:lp_solve_5.5/lp_presolve.c ****   lprec *lp = psdata->lp;
 4664               		.loc 2 460 0
 4665 1d52 8A8D      		ldd r24,Y+26
 4666 1d54 9B8D      		ldd r25,Y+27
 4667 1d56 FC01      		movw r30,r24
 4668 1d58 8289      		ldd r24,Z+18
 4669 1d5a 9389      		ldd r25,Z+19
 4670 1d5c 9B87      		std Y+11,r25
 4671 1d5e 8A87      		std Y+10,r24
 461:lp_solve_5.5/lp_presolve.c ****   MATrec *mat = lp->matA;
 4672               		.loc 2 461 0
 4673 1d60 8A85      		ldd r24,Y+10
 4674 1d62 9B85      		ldd r25,Y+11
 4675 1d64 8A54      		subi r24,74
 4676 1d66 9D4F      		sbci r25,-3
 4677 1d68 FC01      		movw r30,r24
 4678 1d6a 8081      		ld r24,Z
 4679 1d6c 9181      		ldd r25,Z+1
 4680 1d6e 9D87      		std Y+13,r25
 4681 1d70 8C87      		std Y+12,r24
 462:lp_solve_5.5/lp_presolve.c ****   int    colnr, ix, ie, nx, jx, je, *cols, *rows, n;
 463:lp_solve_5.5/lp_presolve.c ****   int    nz = mat->col_end[lp->columns] - 1;
 4682               		.loc 2 463 0
 4683 1d72 8C85      		ldd r24,Y+12
 4684 1d74 9D85      		ldd r25,Y+13
 4685 1d76 FC01      		movw r30,r24
 4686 1d78 2289      		ldd r18,Z+18
 4687 1d7a 3389      		ldd r19,Z+19
 4688 1d7c 8A85      		ldd r24,Y+10
 4689 1d7e 9B85      		ldd r25,Y+11
 4690 1d80 8451      		subi r24,20
 4691 1d82 9E4F      		sbci r25,-2
 4692 1d84 FC01      		movw r30,r24
 4693 1d86 8081      		ld r24,Z
 4694 1d88 9181      		ldd r25,Z+1
 4695 1d8a 880F      		lsl r24
 4696 1d8c 991F      		rol r25
 4697 1d8e 820F      		add r24,r18
 4698 1d90 931F      		adc r25,r19
 4699 1d92 FC01      		movw r30,r24
 4700 1d94 8081      		ld r24,Z
 4701 1d96 9181      		ldd r25,Z+1
 4702 1d98 0197      		sbiw r24,1
 4703 1d9a 9F87      		std Y+15,r25
 4704 1d9c 8E87      		std Y+14,r24
 464:lp_solve_5.5/lp_presolve.c ****   MYBOOL status = FALSE;
 4705               		.loc 2 464 0
 4706 1d9e 1986      		std Y+9,__zero_reg__
 465:lp_solve_5.5/lp_presolve.c **** 
 466:lp_solve_5.5/lp_presolve.c ****   for(colnr = 1; colnr <= lp->columns; colnr++) {
 4707               		.loc 2 466 0
 4708 1da0 81E0      		ldi r24,lo8(1)
 4709 1da2 90E0      		ldi r25,0
 4710 1da4 9A83      		std Y+2,r25
 4711 1da6 8983      		std Y+1,r24
 4712 1da8 00C0      		rjmp .L160
 4713               	.L174:
 467:lp_solve_5.5/lp_presolve.c ****     rows = psdata->cols->next[colnr];
 4714               		.loc 2 467 0
 4715 1daa 8A8D      		ldd r24,Y+26
 4716 1dac 9B8D      		ldd r25,Y+27
 4717 1dae FC01      		movw r30,r24
 4718 1db0 8281      		ldd r24,Z+2
 4719 1db2 9381      		ldd r25,Z+3
 4720 1db4 FC01      		movw r30,r24
 4721 1db6 2281      		ldd r18,Z+2
 4722 1db8 3381      		ldd r19,Z+3
 4723 1dba 8981      		ldd r24,Y+1
 4724 1dbc 9A81      		ldd r25,Y+2
 4725 1dbe 880F      		lsl r24
 4726 1dc0 991F      		rol r25
 4727 1dc2 820F      		add r24,r18
 4728 1dc4 931F      		adc r25,r19
 4729 1dc6 FC01      		movw r30,r24
 4730 1dc8 8081      		ld r24,Z
 4731 1dca 9181      		ldd r25,Z+1
 4732 1dcc 9887      		std Y+8,r25
 4733 1dce 8F83      		std Y+7,r24
 468:lp_solve_5.5/lp_presolve.c ****     if(!isActiveLink(psdata->cols->varmap, colnr)) {
 4734               		.loc 2 468 0
 4735 1dd0 8A8D      		ldd r24,Y+26
 4736 1dd2 9B8D      		ldd r25,Y+27
 4737 1dd4 FC01      		movw r30,r24
 4738 1dd6 8281      		ldd r24,Z+2
 4739 1dd8 9381      		ldd r25,Z+3
 4740 1dda FC01      		movw r30,r24
 4741 1ddc 8081      		ld r24,Z
 4742 1dde 9181      		ldd r25,Z+1
 4743 1de0 2981      		ldd r18,Y+1
 4744 1de2 3A81      		ldd r19,Y+2
 4745 1de4 B901      		movw r22,r18
 4746 1de6 0E94 0000 		call isActiveLink
 4747 1dea 8823      		tst r24
 4748 1dec 01F4      		brne .L161
 469:lp_solve_5.5/lp_presolve.c ****       if(rows != NULL) {
 4749               		.loc 2 469 0
 4750 1dee 8F81      		ldd r24,Y+7
 4751 1df0 9885      		ldd r25,Y+8
 4752 1df2 892B      		or r24,r25
 4753 1df4 01F4      		brne .+2
 4754 1df6 00C0      		rjmp .L177
 470:lp_solve_5.5/lp_presolve.c ****         report(lp, SEVERE, "presolve_debugmap: Inactive column %d is non-empty\n",
 4755               		.loc 2 470 0
 4756 1df8 8A81      		ldd r24,Y+2
 4757 1dfa 8F93      		push r24
 4758 1dfc 8981      		ldd r24,Y+1
 4759 1dfe 8F93      		push r24
 4760 1e00 80E0      		ldi r24,lo8(.LC13)
 4761 1e02 90E0      		ldi r25,hi8(.LC13)
 4762 1e04 892F      		mov r24,r25
 4763 1e06 8F93      		push r24
 4764 1e08 80E0      		ldi r24,lo8(.LC13)
 4765 1e0a 90E0      		ldi r25,hi8(.LC13)
 4766 1e0c 8F93      		push r24
 4767 1e0e 1F92      		push __zero_reg__
 4768 1e10 82E0      		ldi r24,lo8(2)
 4769 1e12 8F93      		push r24
 4770 1e14 8B85      		ldd r24,Y+11
 4771 1e16 8F93      		push r24
 4772 1e18 8A85      		ldd r24,Y+10
 4773 1e1a 8F93      		push r24
 4774 1e1c 0E94 0000 		call report
 4775 1e20 8DB7      		in r24,__SP_L__
 4776 1e22 9EB7      		in r25,__SP_H__
 4777 1e24 0896      		adiw r24,8
 4778 1e26 0FB6      		in __tmp_reg__,__SREG__
 4779 1e28 F894      		cli
 4780 1e2a DEBF      		out __SP_H__,r29
 4781 1e2c 0FBE      		out __SREG__,__tmp_reg__
 4782 1e2e CDBF      		out __SP_L__,r28
 471:lp_solve_5.5/lp_presolve.c ****                            colnr);
 472:lp_solve_5.5/lp_presolve.c ****         goto Done;
 4783               		.loc 2 472 0
 4784 1e30 00C0      		rjmp .L163
 4785               	.L161:
 473:lp_solve_5.5/lp_presolve.c ****       }
 474:lp_solve_5.5/lp_presolve.c ****       else
 475:lp_solve_5.5/lp_presolve.c ****         continue;
 476:lp_solve_5.5/lp_presolve.c ****     }
 477:lp_solve_5.5/lp_presolve.c ****     if(rows == NULL)
 4786               		.loc 2 477 0
 4787 1e32 8F81      		ldd r24,Y+7
 4788 1e34 9885      		ldd r25,Y+8
 4789 1e36 892B      		or r24,r25
 4790 1e38 01F4      		brne .L165
 478:lp_solve_5.5/lp_presolve.c ****       report(lp, SEVERE, "presolve_debugmap: Active column %d is empty\n",
 4791               		.loc 2 478 0
 4792 1e3a 8A81      		ldd r24,Y+2
 4793 1e3c 8F93      		push r24
 4794 1e3e 8981      		ldd r24,Y+1
 4795 1e40 8F93      		push r24
 4796 1e42 80E0      		ldi r24,lo8(.LC14)
 4797 1e44 90E0      		ldi r25,hi8(.LC14)
 4798 1e46 892F      		mov r24,r25
 4799 1e48 8F93      		push r24
 4800 1e4a 80E0      		ldi r24,lo8(.LC14)
 4801 1e4c 90E0      		ldi r25,hi8(.LC14)
 4802 1e4e 8F93      		push r24
 4803 1e50 1F92      		push __zero_reg__
 4804 1e52 82E0      		ldi r24,lo8(2)
 4805 1e54 8F93      		push r24
 4806 1e56 8B85      		ldd r24,Y+11
 4807 1e58 8F93      		push r24
 4808 1e5a 8A85      		ldd r24,Y+10
 4809 1e5c 8F93      		push r24
 4810 1e5e 0E94 0000 		call report
 4811 1e62 EDB7      		in r30,__SP_L__
 4812 1e64 FEB7      		in r31,__SP_H__
 4813 1e66 3896      		adiw r30,8
 4814 1e68 0FB6      		in __tmp_reg__,__SREG__
 4815 1e6a F894      		cli
 4816 1e6c DEBF      		out __SP_H__,r29
 4817 1e6e 0FBE      		out __SREG__,__tmp_reg__
 4818 1e70 CDBF      		out __SP_L__,r28
 4819               	.L165:
 479:lp_solve_5.5/lp_presolve.c ****                          colnr);
 480:lp_solve_5.5/lp_presolve.c ****     je = *rows;
 4820               		.loc 2 480 0
 4821 1e72 8F81      		ldd r24,Y+7
 4822 1e74 9885      		ldd r25,Y+8
 4823 1e76 FC01      		movw r30,r24
 4824 1e78 8081      		ld r24,Z
 4825 1e7a 9181      		ldd r25,Z+1
 4826 1e7c 998B      		std Y+17,r25
 4827 1e7e 888B      		std Y+16,r24
 481:lp_solve_5.5/lp_presolve.c ****     rows++;
 4828               		.loc 2 481 0
 4829 1e80 8F81      		ldd r24,Y+7
 4830 1e82 9885      		ldd r25,Y+8
 4831 1e84 0296      		adiw r24,2
 4832 1e86 9887      		std Y+8,r25
 4833 1e88 8F83      		std Y+7,r24
 482:lp_solve_5.5/lp_presolve.c ****     for(jx = 1; jx <= je; jx++, rows++) {
 4834               		.loc 2 482 0
 4835 1e8a 81E0      		ldi r24,lo8(1)
 4836 1e8c 90E0      		ldi r25,0
 4837 1e8e 9E83      		std Y+6,r25
 4838 1e90 8D83      		std Y+5,r24
 4839 1e92 00C0      		rjmp .L166
 4840               	.L173:
 483:lp_solve_5.5/lp_presolve.c ****       if((*rows < 0) || (*rows > nz)) {
 4841               		.loc 2 483 0
 4842 1e94 8F81      		ldd r24,Y+7
 4843 1e96 9885      		ldd r25,Y+8
 4844 1e98 FC01      		movw r30,r24
 4845 1e9a 8081      		ld r24,Z
 4846 1e9c 9181      		ldd r25,Z+1
 4847 1e9e 9923      		tst r25
 4848 1ea0 04F0      		brlt .L167
 4849               		.loc 2 483 0 is_stmt 0 discriminator 1
 4850 1ea2 8F81      		ldd r24,Y+7
 4851 1ea4 9885      		ldd r25,Y+8
 4852 1ea6 FC01      		movw r30,r24
 4853 1ea8 2081      		ld r18,Z
 4854 1eaa 3181      		ldd r19,Z+1
 4855 1eac 8E85      		ldd r24,Y+14
 4856 1eae 9F85      		ldd r25,Y+15
 4857 1eb0 8217      		cp r24,r18
 4858 1eb2 9307      		cpc r25,r19
 4859 1eb4 04F4      		brge .L168
 4860               	.L167:
 484:lp_solve_5.5/lp_presolve.c ****         report(lp, SEVERE, "presolve_debugmap: NZ index %d for column %d out of range (index %d<=%d
 4861               		.loc 2 484 0 is_stmt 1
 4862 1eb6 8F81      		ldd r24,Y+7
 4863 1eb8 9885      		ldd r25,Y+8
 4864 1eba FC01      		movw r30,r24
 4865 1ebc 8081      		ld r24,Z
 4866 1ebe 9181      		ldd r25,Z+1
 4867 1ec0 2989      		ldd r18,Y+17
 4868 1ec2 2F93      		push r18
 4869 1ec4 2889      		ldd r18,Y+16
 4870 1ec6 2F93      		push r18
 4871 1ec8 2E81      		ldd r18,Y+6
 4872 1eca 2F93      		push r18
 4873 1ecc 2D81      		ldd r18,Y+5
 4874 1ece 2F93      		push r18
 4875 1ed0 2A81      		ldd r18,Y+2
 4876 1ed2 2F93      		push r18
 4877 1ed4 2981      		ldd r18,Y+1
 4878 1ed6 2F93      		push r18
 4879 1ed8 292F      		mov r18,r25
 4880 1eda 2F93      		push r18
 4881 1edc 8F93      		push r24
 4882 1ede 80E0      		ldi r24,lo8(.LC15)
 4883 1ee0 90E0      		ldi r25,hi8(.LC15)
 4884 1ee2 892F      		mov r24,r25
 4885 1ee4 8F93      		push r24
 4886 1ee6 80E0      		ldi r24,lo8(.LC15)
 4887 1ee8 90E0      		ldi r25,hi8(.LC15)
 4888 1eea 8F93      		push r24
 4889 1eec 1F92      		push __zero_reg__
 4890 1eee 82E0      		ldi r24,lo8(2)
 4891 1ef0 8F93      		push r24
 4892 1ef2 8B85      		ldd r24,Y+11
 4893 1ef4 8F93      		push r24
 4894 1ef6 8A85      		ldd r24,Y+10
 4895 1ef8 8F93      		push r24
 4896 1efa 0E94 0000 		call report
 4897 1efe 8DB7      		in r24,__SP_L__
 4898 1f00 9EB7      		in r25,__SP_H__
 4899 1f02 0E96      		adiw r24,14
 4900 1f04 0FB6      		in __tmp_reg__,__SREG__
 4901 1f06 F894      		cli
 4902 1f08 DEBF      		out __SP_H__,r29
 4903 1f0a 0FBE      		out __SREG__,__tmp_reg__
 4904 1f0c CDBF      		out __SP_L__,r28
 485:lp_solve_5.5/lp_presolve.c ****                            *rows, colnr, jx, je);
 486:lp_solve_5.5/lp_presolve.c ****         goto Done;
 4905               		.loc 2 486 0
 4906 1f0e 00C0      		rjmp .L163
 4907               	.L168:
 487:lp_solve_5.5/lp_presolve.c ****       }
 488:lp_solve_5.5/lp_presolve.c ****       cols = psdata->rows->next[COL_MAT_ROWNR(*rows)];
 4908               		.loc 2 488 0
 4909 1f10 8A8D      		ldd r24,Y+26
 4910 1f12 9B8D      		ldd r25,Y+27
 4911 1f14 FC01      		movw r30,r24
 4912 1f16 8081      		ld r24,Z
 4913 1f18 9181      		ldd r25,Z+1
 4914 1f1a FC01      		movw r30,r24
 4915 1f1c 2281      		ldd r18,Z+2
 4916 1f1e 3381      		ldd r19,Z+3
 4917 1f20 8C85      		ldd r24,Y+12
 4918 1f22 9D85      		ldd r25,Y+13
 4919 1f24 FC01      		movw r30,r24
 4920 1f26 4685      		ldd r20,Z+14
 4921 1f28 5785      		ldd r21,Z+15
 4922 1f2a 8F81      		ldd r24,Y+7
 4923 1f2c 9885      		ldd r25,Y+8
 4924 1f2e FC01      		movw r30,r24
 4925 1f30 8081      		ld r24,Z
 4926 1f32 9181      		ldd r25,Z+1
 4927 1f34 880F      		lsl r24
 4928 1f36 991F      		rol r25
 4929 1f38 840F      		add r24,r20
 4930 1f3a 951F      		adc r25,r21
 4931 1f3c FC01      		movw r30,r24
 4932 1f3e 8081      		ld r24,Z
 4933 1f40 9181      		ldd r25,Z+1
 4934 1f42 880F      		lsl r24
 4935 1f44 991F      		rol r25
 4936 1f46 820F      		add r24,r18
 4937 1f48 931F      		adc r25,r19
 4938 1f4a FC01      		movw r30,r24
 4939 1f4c 8081      		ld r24,Z
 4940 1f4e 9181      		ldd r25,Z+1
 4941 1f50 9B8B      		std Y+19,r25
 4942 1f52 8A8B      		std Y+18,r24
 489:lp_solve_5.5/lp_presolve.c ****       ie = cols[0];
 4943               		.loc 2 489 0
 4944 1f54 8A89      		ldd r24,Y+18
 4945 1f56 9B89      		ldd r25,Y+19
 4946 1f58 FC01      		movw r30,r24
 4947 1f5a 8081      		ld r24,Z
 4948 1f5c 9181      		ldd r25,Z+1
 4949 1f5e 9D8B      		std Y+21,r25
 4950 1f60 8C8B      		std Y+20,r24
 490:lp_solve_5.5/lp_presolve.c ****       n = 0;
 4951               		.loc 2 490 0
 4952 1f62 1F8A      		std Y+23,__zero_reg__
 4953 1f64 1E8A      		std Y+22,__zero_reg__
 491:lp_solve_5.5/lp_presolve.c ****       for(ix = 1; ix <= ie; ix++) {
 4954               		.loc 2 491 0
 4955 1f66 81E0      		ldi r24,lo8(1)
 4956 1f68 90E0      		ldi r25,0
 4957 1f6a 9C83      		std Y+4,r25
 4958 1f6c 8B83      		std Y+3,r24
 4959 1f6e 00C0      		rjmp .L169
 4960               	.L172:
 492:lp_solve_5.5/lp_presolve.c ****         nx = cols[ix];
 4961               		.loc 2 492 0
 4962 1f70 8B81      		ldd r24,Y+3
 4963 1f72 9C81      		ldd r25,Y+4
 4964 1f74 880F      		lsl r24
 4965 1f76 991F      		rol r25
 4966 1f78 2A89      		ldd r18,Y+18
 4967 1f7a 3B89      		ldd r19,Y+19
 4968 1f7c 820F      		add r24,r18
 4969 1f7e 931F      		adc r25,r19
 4970 1f80 FC01      		movw r30,r24
 4971 1f82 8081      		ld r24,Z
 4972 1f84 9181      		ldd r25,Z+1
 4973 1f86 998F      		std Y+25,r25
 4974 1f88 888F      		std Y+24,r24
 493:lp_solve_5.5/lp_presolve.c ****         if((nx < 0) || (nx > nz)) {
 4975               		.loc 2 493 0
 4976 1f8a 888D      		ldd r24,Y+24
 4977 1f8c 998D      		ldd r25,Y+25
 4978 1f8e 9923      		tst r25
 4979 1f90 04F0      		brlt .L170
 4980               		.loc 2 493 0 is_stmt 0 discriminator 1
 4981 1f92 288D      		ldd r18,Y+24
 4982 1f94 398D      		ldd r19,Y+25
 4983 1f96 8E85      		ldd r24,Y+14
 4984 1f98 9F85      		ldd r25,Y+15
 4985 1f9a 8217      		cp r24,r18
 4986 1f9c 9307      		cpc r25,r19
 4987 1f9e 04F4      		brge .L171
 4988               	.L170:
 494:lp_solve_5.5/lp_presolve.c ****           report(lp, SEVERE, "presolve_debugmap: NZ index %d for column %d to row %d out of range\n
 4989               		.loc 2 494 0 is_stmt 1
 4990 1fa0 8E81      		ldd r24,Y+6
 4991 1fa2 8F93      		push r24
 4992 1fa4 8D81      		ldd r24,Y+5
 4993 1fa6 8F93      		push r24
 4994 1fa8 8A81      		ldd r24,Y+2
 4995 1faa 8F93      		push r24
 4996 1fac 8981      		ldd r24,Y+1
 4997 1fae 8F93      		push r24
 4998 1fb0 898D      		ldd r24,Y+25
 4999 1fb2 8F93      		push r24
 5000 1fb4 888D      		ldd r24,Y+24
 5001 1fb6 8F93      		push r24
 5002 1fb8 80E0      		ldi r24,lo8(.LC16)
 5003 1fba 90E0      		ldi r25,hi8(.LC16)
 5004 1fbc 892F      		mov r24,r25
 5005 1fbe 8F93      		push r24
 5006 1fc0 80E0      		ldi r24,lo8(.LC16)
 5007 1fc2 90E0      		ldi r25,hi8(.LC16)
 5008 1fc4 8F93      		push r24
 5009 1fc6 1F92      		push __zero_reg__
 5010 1fc8 82E0      		ldi r24,lo8(2)
 5011 1fca 8F93      		push r24
 5012 1fcc 8B85      		ldd r24,Y+11
 5013 1fce 8F93      		push r24
 5014 1fd0 8A85      		ldd r24,Y+10
 5015 1fd2 8F93      		push r24
 5016 1fd4 0E94 0000 		call report
 5017 1fd8 8DB7      		in r24,__SP_L__
 5018 1fda 9EB7      		in r25,__SP_H__
 5019 1fdc 0C96      		adiw r24,12
 5020 1fde 0FB6      		in __tmp_reg__,__SREG__
 5021 1fe0 F894      		cli
 5022 1fe2 DEBF      		out __SP_H__,r29
 5023 1fe4 0FBE      		out __SREG__,__tmp_reg__
 5024 1fe6 CDBF      		out __SP_L__,r28
 495:lp_solve_5.5/lp_presolve.c ****                              nx, colnr, jx);
 496:lp_solve_5.5/lp_presolve.c ****           goto Done;
 5025               		.loc 2 496 0
 5026 1fe8 00C0      		rjmp .L163
 5027               	.L171:
 491:lp_solve_5.5/lp_presolve.c ****         nx = cols[ix];
 5028               		.loc 2 491 0 discriminator 2
 5029 1fea 8B81      		ldd r24,Y+3
 5030 1fec 9C81      		ldd r25,Y+4
 5031 1fee 0196      		adiw r24,1
 5032 1ff0 9C83      		std Y+4,r25
 5033 1ff2 8B83      		std Y+3,r24
 5034               	.L169:
 491:lp_solve_5.5/lp_presolve.c ****         nx = cols[ix];
 5035               		.loc 2 491 0 is_stmt 0 discriminator 1
 5036 1ff4 2B81      		ldd r18,Y+3
 5037 1ff6 3C81      		ldd r19,Y+4
 5038 1ff8 8C89      		ldd r24,Y+20
 5039 1ffa 9D89      		ldd r25,Y+21
 5040 1ffc 8217      		cp r24,r18
 5041 1ffe 9307      		cpc r25,r19
 5042 2000 04F0      		brlt .+2
 5043 2002 00C0      		rjmp .L172
 482:lp_solve_5.5/lp_presolve.c ****       if((*rows < 0) || (*rows > nz)) {
 5044               		.loc 2 482 0 is_stmt 1 discriminator 2
 5045 2004 8D81      		ldd r24,Y+5
 5046 2006 9E81      		ldd r25,Y+6
 5047 2008 0196      		adiw r24,1
 5048 200a 9E83      		std Y+6,r25
 5049 200c 8D83      		std Y+5,r24
 5050 200e 8F81      		ldd r24,Y+7
 5051 2010 9885      		ldd r25,Y+8
 5052 2012 0296      		adiw r24,2
 5053 2014 9887      		std Y+8,r25
 5054 2016 8F83      		std Y+7,r24
 5055               	.L166:
 482:lp_solve_5.5/lp_presolve.c ****       if((*rows < 0) || (*rows > nz)) {
 5056               		.loc 2 482 0 is_stmt 0 discriminator 1
 5057 2018 2D81      		ldd r18,Y+5
 5058 201a 3E81      		ldd r19,Y+6
 5059 201c 8889      		ldd r24,Y+16
 5060 201e 9989      		ldd r25,Y+17
 5061 2020 8217      		cp r24,r18
 5062 2022 9307      		cpc r25,r19
 5063 2024 04F0      		brlt .+2
 5064 2026 00C0      		rjmp .L173
 5065 2028 00C0      		rjmp .L164
 5066               	.L177:
 475:lp_solve_5.5/lp_presolve.c ****     }
 5067               		.loc 2 475 0 is_stmt 1
 5068 202a 0000      		nop
 5069               	.L164:
 466:lp_solve_5.5/lp_presolve.c ****     rows = psdata->cols->next[colnr];
 5070               		.loc 2 466 0 discriminator 2
 5071 202c 8981      		ldd r24,Y+1
 5072 202e 9A81      		ldd r25,Y+2
 5073 2030 0196      		adiw r24,1
 5074 2032 9A83      		std Y+2,r25
 5075 2034 8983      		std Y+1,r24
 5076               	.L160:
 466:lp_solve_5.5/lp_presolve.c ****     rows = psdata->cols->next[colnr];
 5077               		.loc 2 466 0 is_stmt 0 discriminator 1
 5078 2036 8A85      		ldd r24,Y+10
 5079 2038 9B85      		ldd r25,Y+11
 5080 203a 8451      		subi r24,20
 5081 203c 9E4F      		sbci r25,-2
 5082 203e FC01      		movw r30,r24
 5083 2040 2081      		ld r18,Z
 5084 2042 3181      		ldd r19,Z+1
 5085 2044 8981      		ldd r24,Y+1
 5086 2046 9A81      		ldd r25,Y+2
 5087 2048 2817      		cp r18,r24
 5088 204a 3907      		cpc r19,r25
 5089 204c 04F0      		brlt .+2
 5090 204e 00C0      		rjmp .L174
 497:lp_solve_5.5/lp_presolve.c ****         }
 498:lp_solve_5.5/lp_presolve.c ****       }
 499:lp_solve_5.5/lp_presolve.c ****     }
 500:lp_solve_5.5/lp_presolve.c ****   }
 501:lp_solve_5.5/lp_presolve.c ****   status = TRUE;
 5091               		.loc 2 501 0 is_stmt 1
 5092 2050 81E0      		ldi r24,lo8(1)
 5093 2052 8987      		std Y+9,r24
 5094               	.L163:
 502:lp_solve_5.5/lp_presolve.c **** Done:
 503:lp_solve_5.5/lp_presolve.c ****   if(!status && (caption != NULL))
 5095               		.loc 2 503 0
 5096 2054 8985      		ldd r24,Y+9
 5097 2056 8823      		tst r24
 5098 2058 01F4      		brne .L175
 5099               		.loc 2 503 0 is_stmt 0 discriminator 1
 5100 205a 8C8D      		ldd r24,Y+28
 5101 205c 9D8D      		ldd r25,Y+29
 5102 205e 892B      		or r24,r25
 5103 2060 01F0      		breq .L175
 504:lp_solve_5.5/lp_presolve.c ****     report(lp, SEVERE, "...caller was '%s'\n", caption);
 5104               		.loc 2 504 0 is_stmt 1
 5105 2062 8D8D      		ldd r24,Y+29
 5106 2064 8F93      		push r24
 5107 2066 8C8D      		ldd r24,Y+28
 5108 2068 8F93      		push r24
 5109 206a 80E0      		ldi r24,lo8(.LC17)
 5110 206c 90E0      		ldi r25,hi8(.LC17)
 5111 206e 892F      		mov r24,r25
 5112 2070 8F93      		push r24
 5113 2072 80E0      		ldi r24,lo8(.LC17)
 5114 2074 90E0      		ldi r25,hi8(.LC17)
 5115 2076 8F93      		push r24
 5116 2078 1F92      		push __zero_reg__
 5117 207a 82E0      		ldi r24,lo8(2)
 5118 207c 8F93      		push r24
 5119 207e 8B85      		ldd r24,Y+11
 5120 2080 8F93      		push r24
 5121 2082 8A85      		ldd r24,Y+10
 5122 2084 8F93      		push r24
 5123 2086 0E94 0000 		call report
 5124 208a 8DB7      		in r24,__SP_L__
 5125 208c 9EB7      		in r25,__SP_H__
 5126 208e 0896      		adiw r24,8
 5127 2090 0FB6      		in __tmp_reg__,__SREG__
 5128 2092 F894      		cli
 5129 2094 DEBF      		out __SP_H__,r29
 5130 2096 0FBE      		out __SREG__,__tmp_reg__
 5131 2098 CDBF      		out __SP_L__,r28
 5132               	.L175:
 505:lp_solve_5.5/lp_presolve.c ****   return( status );
 5133               		.loc 2 505 0
 5134 209a 8985      		ldd r24,Y+9
 5135               	/* epilogue start */
 506:lp_solve_5.5/lp_presolve.c **** }
 5136               		.loc 2 506 0
 5137 209c 6D96      		adiw r28,29
 5138 209e 0FB6      		in __tmp_reg__,__SREG__
 5139 20a0 F894      		cli
 5140 20a2 DEBF      		out __SP_H__,r29
 5141 20a4 0FBE      		out __SREG__,__tmp_reg__
 5142 20a6 CDBF      		out __SP_L__,r28
 5143 20a8 DF91      		pop r29
 5144 20aa CF91      		pop r28
 5145 20ac 0895      		ret
 5146               		.cfi_endproc
 5147               	.LFE26:
 5149               	.global	presolve_validate
 5151               	presolve_validate:
 5152               	.LFB27:
 507:lp_solve_5.5/lp_presolve.c **** 
 508:lp_solve_5.5/lp_presolve.c **** STATIC MYBOOL presolve_validate(presolverec *psdata, MYBOOL forceupdate)
 509:lp_solve_5.5/lp_presolve.c **** {
 5153               		.loc 2 509 0
 5154               		.cfi_startproc
 5155 20ae 1F93      		push r17
 5156               	.LCFI103:
 5157               		.cfi_def_cfa_offset 3
 5158               		.cfi_offset 17, -2
 5159 20b0 CF93      		push r28
 5160               	.LCFI104:
 5161               		.cfi_def_cfa_offset 4
 5162               		.cfi_offset 28, -3
 5163 20b2 DF93      		push r29
 5164               	.LCFI105:
 5165               		.cfi_def_cfa_offset 5
 5166               		.cfi_offset 29, -4
 5167 20b4 CDB7      		in r28,__SP_L__
 5168 20b6 DEB7      		in r29,__SP_H__
 5169               	.LCFI106:
 5170               		.cfi_def_cfa_register 28
 5171 20b8 A297      		sbiw r28,34
 5172               	.LCFI107:
 5173               		.cfi_def_cfa_offset 39
 5174 20ba 0FB6      		in __tmp_reg__,__SREG__
 5175 20bc F894      		cli
 5176 20be DEBF      		out __SP_H__,r29
 5177 20c0 0FBE      		out __SREG__,__tmp_reg__
 5178 20c2 CDBF      		out __SP_L__,r28
 5179               	/* prologue: function */
 5180               	/* frame size = 34 */
 5181               	/* stack size = 37 */
 5182               	.L__stack_usage = 37
 5183 20c4 99A3      		std Y+33,r25
 5184 20c6 88A3      		std Y+32,r24
 5185 20c8 6AA3      		std Y+34,r22
 510:lp_solve_5.5/lp_presolve.c ****   int    i, ie, j, je, k, rownr, *items;
 511:lp_solve_5.5/lp_presolve.c ****   REAL   upbound, lobound, value;
 512:lp_solve_5.5/lp_presolve.c ****   lprec  *lp = psdata->lp;
 5186               		.loc 2 512 0
 5187 20ca 88A1      		ldd r24,Y+32
 5188 20cc 99A1      		ldd r25,Y+33
 5189 20ce FC01      		movw r30,r24
 5190 20d0 8289      		ldd r24,Z+18
 5191 20d2 9389      		ldd r25,Z+19
 5192 20d4 998B      		std Y+17,r25
 5193 20d6 888B      		std Y+16,r24
 513:lp_solve_5.5/lp_presolve.c ****   MATrec *mat = lp->matA;
 5194               		.loc 2 513 0
 5195 20d8 8889      		ldd r24,Y+16
 5196 20da 9989      		ldd r25,Y+17
 5197 20dc 8A54      		subi r24,74
 5198 20de 9D4F      		sbci r25,-3
 5199 20e0 FC01      		movw r30,r24
 5200 20e2 8081      		ld r24,Z
 5201 20e4 9181      		ldd r25,Z+1
 5202 20e6 9B8B      		std Y+19,r25
 5203 20e8 8A8B      		std Y+18,r24
 514:lp_solve_5.5/lp_presolve.c ****   MYBOOL status = mat->row_end_valid && !forceupdate;
 5204               		.loc 2 514 0
 5205 20ea 8A89      		ldd r24,Y+18
 5206 20ec 9B89      		ldd r25,Y+19
 5207 20ee FC01      		movw r30,r24
 5208 20f0 84A5      		ldd r24,Z+44
 5209 20f2 8823      		tst r24
 5210 20f4 01F0      		breq .L179
 5211               		.loc 2 514 0 is_stmt 0 discriminator 1
 5212 20f6 8AA1      		ldd r24,Y+34
 5213 20f8 8823      		tst r24
 5214 20fa 01F4      		brne .L179
 5215               		.loc 2 514 0 discriminator 3
 5216 20fc 81E0      		ldi r24,lo8(1)
 5217 20fe 90E0      		ldi r25,0
 5218 2100 00C0      		rjmp .L180
 5219               	.L179:
 5220               		.loc 2 514 0 discriminator 4
 5221 2102 80E0      		ldi r24,0
 5222 2104 90E0      		ldi r25,0
 5223               	.L180:
 5224               		.loc 2 514 0 discriminator 6
 5225 2106 8F87      		std Y+15,r24
 515:lp_solve_5.5/lp_presolve.c **** 
 516:lp_solve_5.5/lp_presolve.c ****   if(status)
 5226               		.loc 2 516 0 is_stmt 1 discriminator 6
 5227 2108 8F85      		ldd r24,Y+15
 5228 210a 8823      		tst r24
 5229 210c 01F0      		breq .L181
 517:lp_solve_5.5/lp_presolve.c ****     return( status );
 5230               		.loc 2 517 0
 5231 210e 8F85      		ldd r24,Y+15
 5232 2110 00C0      		rjmp .L182
 5233               	.L181:
 518:lp_solve_5.5/lp_presolve.c ****   else if(!mat->row_end_valid)
 5234               		.loc 2 518 0
 5235 2112 8A89      		ldd r24,Y+18
 5236 2114 9B89      		ldd r25,Y+19
 5237 2116 FC01      		movw r30,r24
 5238 2118 84A5      		ldd r24,Z+44
 5239 211a 8823      		tst r24
 5240 211c 01F4      		brne .L183
 519:lp_solve_5.5/lp_presolve.c ****     status = mat_validate(mat);
 5241               		.loc 2 519 0
 5242 211e 8A89      		ldd r24,Y+18
 5243 2120 9B89      		ldd r25,Y+19
 5244 2122 0E94 0000 		call mat_validate
 5245 2126 8F87      		std Y+15,r24
 5246 2128 00C0      		rjmp .L184
 5247               	.L183:
 520:lp_solve_5.5/lp_presolve.c ****   else
 521:lp_solve_5.5/lp_presolve.c ****     status = forceupdate;
 5248               		.loc 2 521 0
 5249 212a 8AA1      		ldd r24,Y+34
 5250 212c 8F87      		std Y+15,r24
 5251               	.L184:
 522:lp_solve_5.5/lp_presolve.c ****   if(status) {
 5252               		.loc 2 522 0
 5253 212e 8F85      		ldd r24,Y+15
 5254 2130 8823      		tst r24
 5255 2132 01F4      		brne .+2
 5256 2134 00C0      		rjmp .L185
 523:lp_solve_5.5/lp_presolve.c **** 
 524:lp_solve_5.5/lp_presolve.c ****     /* First update rows... */
 525:lp_solve_5.5/lp_presolve.c ****     for(i = 1; i <= lp->rows; i++) {
 5257               		.loc 2 525 0
 5258 2136 81E0      		ldi r24,lo8(1)
 5259 2138 90E0      		ldi r25,0
 5260 213a 9A83      		std Y+2,r25
 5261 213c 8983      		std Y+1,r24
 5262 213e 00C0      		rjmp .L186
 5263               	.L193:
 526:lp_solve_5.5/lp_presolve.c **** 
 527:lp_solve_5.5/lp_presolve.c ****       psdata->rows->plucount[i] = 0;
 5264               		.loc 2 527 0
 5265 2140 88A1      		ldd r24,Y+32
 5266 2142 99A1      		ldd r25,Y+33
 5267 2144 FC01      		movw r30,r24
 5268 2146 8081      		ld r24,Z
 5269 2148 9181      		ldd r25,Z+1
 5270 214a FC01      		movw r30,r24
 5271 214c 2681      		ldd r18,Z+6
 5272 214e 3781      		ldd r19,Z+7
 5273 2150 8981      		ldd r24,Y+1
 5274 2152 9A81      		ldd r25,Y+2
 5275 2154 880F      		lsl r24
 5276 2156 991F      		rol r25
 5277 2158 820F      		add r24,r18
 5278 215a 931F      		adc r25,r19
 5279 215c FC01      		movw r30,r24
 5280 215e 1182      		std Z+1,__zero_reg__
 5281 2160 1082      		st Z,__zero_reg__
 528:lp_solve_5.5/lp_presolve.c ****       psdata->rows->negcount[i] = 0;
 5282               		.loc 2 528 0
 5283 2162 88A1      		ldd r24,Y+32
 5284 2164 99A1      		ldd r25,Y+33
 5285 2166 FC01      		movw r30,r24
 5286 2168 8081      		ld r24,Z
 5287 216a 9181      		ldd r25,Z+1
 5288 216c FC01      		movw r30,r24
 5289 216e 2085      		ldd r18,Z+8
 5290 2170 3185      		ldd r19,Z+9
 5291 2172 8981      		ldd r24,Y+1
 5292 2174 9A81      		ldd r25,Y+2
 5293 2176 880F      		lsl r24
 5294 2178 991F      		rol r25
 5295 217a 820F      		add r24,r18
 5296 217c 931F      		adc r25,r19
 5297 217e FC01      		movw r30,r24
 5298 2180 1182      		std Z+1,__zero_reg__
 5299 2182 1082      		st Z,__zero_reg__
 529:lp_solve_5.5/lp_presolve.c ****       psdata->rows->pluneg[i]   = 0;
 5300               		.loc 2 529 0
 5301 2184 88A1      		ldd r24,Y+32
 5302 2186 99A1      		ldd r25,Y+33
 5303 2188 FC01      		movw r30,r24
 5304 218a 8081      		ld r24,Z
 5305 218c 9181      		ldd r25,Z+1
 5306 218e FC01      		movw r30,r24
 5307 2190 2285      		ldd r18,Z+10
 5308 2192 3385      		ldd r19,Z+11
 5309 2194 8981      		ldd r24,Y+1
 5310 2196 9A81      		ldd r25,Y+2
 5311 2198 880F      		lsl r24
 5312 219a 991F      		rol r25
 5313 219c 820F      		add r24,r18
 5314 219e 931F      		adc r25,r19
 5315 21a0 FC01      		movw r30,r24
 5316 21a2 1182      		std Z+1,__zero_reg__
 5317 21a4 1082      		st Z,__zero_reg__
 530:lp_solve_5.5/lp_presolve.c **** 
 531:lp_solve_5.5/lp_presolve.c ****       if(!isActiveLink(psdata->rows->varmap, i)) {
 5318               		.loc 2 531 0
 5319 21a6 88A1      		ldd r24,Y+32
 5320 21a8 99A1      		ldd r25,Y+33
 5321 21aa FC01      		movw r30,r24
 5322 21ac 8081      		ld r24,Z
 5323 21ae 9181      		ldd r25,Z+1
 5324 21b0 FC01      		movw r30,r24
 5325 21b2 8081      		ld r24,Z
 5326 21b4 9181      		ldd r25,Z+1
 5327 21b6 2981      		ldd r18,Y+1
 5328 21b8 3A81      		ldd r19,Y+2
 5329 21ba B901      		movw r22,r18
 5330 21bc 0E94 0000 		call isActiveLink
 5331 21c0 8823      		tst r24
 5332 21c2 01F4      		brne .L187
 532:lp_solve_5.5/lp_presolve.c ****         FREE(psdata->rows->next[i]);
 5333               		.loc 2 532 0
 5334 21c4 88A1      		ldd r24,Y+32
 5335 21c6 99A1      		ldd r25,Y+33
 5336 21c8 FC01      		movw r30,r24
 5337 21ca 8081      		ld r24,Z
 5338 21cc 9181      		ldd r25,Z+1
 5339 21ce FC01      		movw r30,r24
 5340 21d0 2281      		ldd r18,Z+2
 5341 21d2 3381      		ldd r19,Z+3
 5342 21d4 8981      		ldd r24,Y+1
 5343 21d6 9A81      		ldd r25,Y+2
 5344 21d8 880F      		lsl r24
 5345 21da 991F      		rol r25
 5346 21dc 820F      		add r24,r18
 5347 21de 931F      		adc r25,r19
 5348 21e0 FC01      		movw r30,r24
 5349 21e2 8081      		ld r24,Z
 5350 21e4 9181      		ldd r25,Z+1
 5351 21e6 892B      		or r24,r25
 5352 21e8 01F4      		brne .+2
 5353 21ea 00C0      		rjmp .L189
 5354               		.loc 2 532 0 is_stmt 0 discriminator 1
 5355 21ec 88A1      		ldd r24,Y+32
 5356 21ee 99A1      		ldd r25,Y+33
 5357 21f0 FC01      		movw r30,r24
 5358 21f2 8081      		ld r24,Z
 5359 21f4 9181      		ldd r25,Z+1
 5360 21f6 FC01      		movw r30,r24
 5361 21f8 2281      		ldd r18,Z+2
 5362 21fa 3381      		ldd r19,Z+3
 5363 21fc 8981      		ldd r24,Y+1
 5364 21fe 9A81      		ldd r25,Y+2
 5365 2200 880F      		lsl r24
 5366 2202 991F      		rol r25
 5367 2204 820F      		add r24,r18
 5368 2206 931F      		adc r25,r19
 5369 2208 FC01      		movw r30,r24
 5370 220a 8081      		ld r24,Z
 5371 220c 9181      		ldd r25,Z+1
 5372 220e 0E94 0000 		call free
 5373 2212 88A1      		ldd r24,Y+32
 5374 2214 99A1      		ldd r25,Y+33
 5375 2216 FC01      		movw r30,r24
 5376 2218 8081      		ld r24,Z
 5377 221a 9181      		ldd r25,Z+1
 5378 221c FC01      		movw r30,r24
 5379 221e 2281      		ldd r18,Z+2
 5380 2220 3381      		ldd r19,Z+3
 5381 2222 8981      		ldd r24,Y+1
 5382 2224 9A81      		ldd r25,Y+2
 5383 2226 880F      		lsl r24
 5384 2228 991F      		rol r25
 5385 222a 820F      		add r24,r18
 5386 222c 931F      		adc r25,r19
 5387 222e FC01      		movw r30,r24
 5388 2230 1182      		std Z+1,__zero_reg__
 5389 2232 1082      		st Z,__zero_reg__
 5390 2234 00C0      		rjmp .L189
 5391               	.L187:
 533:lp_solve_5.5/lp_presolve.c ****       }
 534:lp_solve_5.5/lp_presolve.c ****       else {
 535:lp_solve_5.5/lp_presolve.c ****         /* Create next column pointers by row */
 536:lp_solve_5.5/lp_presolve.c ****         k = mat_rowlength(mat, i);
 5392               		.loc 2 536 0 is_stmt 1
 5393 2236 2981      		ldd r18,Y+1
 5394 2238 3A81      		ldd r19,Y+2
 5395 223a 8A89      		ldd r24,Y+18
 5396 223c 9B89      		ldd r25,Y+19
 5397 223e B901      		movw r22,r18
 5398 2240 0E94 0000 		call mat_rowlength
 5399 2244 9E83      		std Y+6,r25
 5400 2246 8D83      		std Y+5,r24
 537:lp_solve_5.5/lp_presolve.c ****         allocINT(lp, &(psdata->rows->next[i]), k+1, AUTOMATIC);
 5401               		.loc 2 537 0
 5402 2248 8D81      		ldd r24,Y+5
 5403 224a 9E81      		ldd r25,Y+6
 5404 224c AC01      		movw r20,r24
 5405 224e 4F5F      		subi r20,-1
 5406 2250 5F4F      		sbci r21,-1
 5407 2252 88A1      		ldd r24,Y+32
 5408 2254 99A1      		ldd r25,Y+33
 5409 2256 FC01      		movw r30,r24
 5410 2258 8081      		ld r24,Z
 5411 225a 9181      		ldd r25,Z+1
 5412 225c FC01      		movw r30,r24
 5413 225e 2281      		ldd r18,Z+2
 5414 2260 3381      		ldd r19,Z+3
 5415 2262 8981      		ldd r24,Y+1
 5416 2264 9A81      		ldd r25,Y+2
 5417 2266 880F      		lsl r24
 5418 2268 991F      		rol r25
 5419 226a B901      		movw r22,r18
 5420 226c 680F      		add r22,r24
 5421 226e 791F      		adc r23,r25
 5422 2270 8889      		ldd r24,Y+16
 5423 2272 9989      		ldd r25,Y+17
 5424 2274 22E0      		ldi r18,lo8(2)
 5425 2276 0E94 0000 		call allocINT
 538:lp_solve_5.5/lp_presolve.c ****         items = psdata->rows->next[i];
 5426               		.loc 2 538 0
 5427 227a 88A1      		ldd r24,Y+32
 5428 227c 99A1      		ldd r25,Y+33
 5429 227e FC01      		movw r30,r24
 5430 2280 8081      		ld r24,Z
 5431 2282 9181      		ldd r25,Z+1
 5432 2284 FC01      		movw r30,r24
 5433 2286 2281      		ldd r18,Z+2
 5434 2288 3381      		ldd r19,Z+3
 5435 228a 8981      		ldd r24,Y+1
 5436 228c 9A81      		ldd r25,Y+2
 5437 228e 880F      		lsl r24
 5438 2290 991F      		rol r25
 5439 2292 820F      		add r24,r18
 5440 2294 931F      		adc r25,r19
 5441 2296 FC01      		movw r30,r24
 5442 2298 8081      		ld r24,Z
 5443 229a 9181      		ldd r25,Z+1
 5444 229c 9D8B      		std Y+21,r25
 5445 229e 8C8B      		std Y+20,r24
 539:lp_solve_5.5/lp_presolve.c ****         je = mat->row_end[i];
 5446               		.loc 2 539 0
 5447 22a0 8A89      		ldd r24,Y+18
 5448 22a2 9B89      		ldd r25,Y+19
 5449 22a4 FC01      		movw r30,r24
 5450 22a6 208D      		ldd r18,Z+24
 5451 22a8 318D      		ldd r19,Z+25
 5452 22aa 8981      		ldd r24,Y+1
 5453 22ac 9A81      		ldd r25,Y+2
 5454 22ae 880F      		lsl r24
 5455 22b0 991F      		rol r25
 5456 22b2 820F      		add r24,r18
 5457 22b4 931F      		adc r25,r19
 5458 22b6 FC01      		movw r30,r24
 5459 22b8 8081      		ld r24,Z
 5460 22ba 9181      		ldd r25,Z+1
 5461 22bc 9F8B      		std Y+23,r25
 5462 22be 8E8B      		std Y+22,r24
 540:lp_solve_5.5/lp_presolve.c ****         k = 0;
 5463               		.loc 2 540 0
 5464 22c0 1E82      		std Y+6,__zero_reg__
 5465 22c2 1D82      		std Y+5,__zero_reg__
 541:lp_solve_5.5/lp_presolve.c ****         for(j = mat->row_end[i-1]; j < je; j++)
 5466               		.loc 2 541 0
 5467 22c4 8A89      		ldd r24,Y+18
 5468 22c6 9B89      		ldd r25,Y+19
 5469 22c8 FC01      		movw r30,r24
 5470 22ca 208D      		ldd r18,Z+24
 5471 22cc 318D      		ldd r19,Z+25
 5472 22ce 8981      		ldd r24,Y+1
 5473 22d0 9A81      		ldd r25,Y+2
 5474 22d2 8150      		subi r24,1
 5475 22d4 9048      		sbci r25,-128
 5476 22d6 880F      		lsl r24
 5477 22d8 991F      		rol r25
 5478 22da 820F      		add r24,r18
 5479 22dc 931F      		adc r25,r19
 5480 22de FC01      		movw r30,r24
 5481 22e0 8081      		ld r24,Z
 5482 22e2 9181      		ldd r25,Z+1
 5483 22e4 9C83      		std Y+4,r25
 5484 22e6 8B83      		std Y+3,r24
 5485 22e8 00C0      		rjmp .L190
 5486               	.L192:
 542:lp_solve_5.5/lp_presolve.c ****           if(isActiveLink(psdata->cols->varmap, ROW_MAT_COLNR(j))) {
 5487               		.loc 2 542 0
 5488 22ea 8A89      		ldd r24,Y+18
 5489 22ec 9B89      		ldd r25,Y+19
 5490 22ee FC01      		movw r30,r24
 5491 22f0 2485      		ldd r18,Z+12
 5492 22f2 3585      		ldd r19,Z+13
 5493 22f4 8A89      		ldd r24,Y+18
 5494 22f6 9B89      		ldd r25,Y+19
 5495 22f8 FC01      		movw r30,r24
 5496 22fa 4689      		ldd r20,Z+22
 5497 22fc 5789      		ldd r21,Z+23
 5498 22fe 8B81      		ldd r24,Y+3
 5499 2300 9C81      		ldd r25,Y+4
 5500 2302 880F      		lsl r24
 5501 2304 991F      		rol r25
 5502 2306 840F      		add r24,r20
 5503 2308 951F      		adc r25,r21
 5504 230a FC01      		movw r30,r24
 5505 230c 8081      		ld r24,Z
 5506 230e 9181      		ldd r25,Z+1
 5507 2310 880F      		lsl r24
 5508 2312 991F      		rol r25
 5509 2314 820F      		add r24,r18
 5510 2316 931F      		adc r25,r19
 5511 2318 FC01      		movw r30,r24
 5512 231a 2081      		ld r18,Z
 5513 231c 3181      		ldd r19,Z+1
 5514 231e 88A1      		ldd r24,Y+32
 5515 2320 99A1      		ldd r25,Y+33
 5516 2322 FC01      		movw r30,r24
 5517 2324 8281      		ldd r24,Z+2
 5518 2326 9381      		ldd r25,Z+3
 5519 2328 FC01      		movw r30,r24
 5520 232a 8081      		ld r24,Z
 5521 232c 9181      		ldd r25,Z+1
 5522 232e B901      		movw r22,r18
 5523 2330 0E94 0000 		call isActiveLink
 5524 2334 8823      		tst r24
 5525 2336 01F0      		breq .L191
 543:lp_solve_5.5/lp_presolve.c ****             k++;
 5526               		.loc 2 543 0
 5527 2338 8D81      		ldd r24,Y+5
 5528 233a 9E81      		ldd r25,Y+6
 5529 233c 0196      		adiw r24,1
 5530 233e 9E83      		std Y+6,r25
 5531 2340 8D83      		std Y+5,r24
 544:lp_solve_5.5/lp_presolve.c ****             items[k] = j;
 5532               		.loc 2 544 0
 5533 2342 8D81      		ldd r24,Y+5
 5534 2344 9E81      		ldd r25,Y+6
 5535 2346 880F      		lsl r24
 5536 2348 991F      		rol r25
 5537 234a 2C89      		ldd r18,Y+20
 5538 234c 3D89      		ldd r19,Y+21
 5539 234e 820F      		add r24,r18
 5540 2350 931F      		adc r25,r19
 5541 2352 2B81      		ldd r18,Y+3
 5542 2354 3C81      		ldd r19,Y+4
 5543 2356 FC01      		movw r30,r24
 5544 2358 3183      		std Z+1,r19
 5545 235a 2083      		st Z,r18
 5546               	.L191:
 541:lp_solve_5.5/lp_presolve.c ****           if(isActiveLink(psdata->cols->varmap, ROW_MAT_COLNR(j))) {
 5547               		.loc 2 541 0 discriminator 2
 5548 235c 8B81      		ldd r24,Y+3
 5549 235e 9C81      		ldd r25,Y+4
 5550 2360 0196      		adiw r24,1
 5551 2362 9C83      		std Y+4,r25
 5552 2364 8B83      		std Y+3,r24
 5553               	.L190:
 541:lp_solve_5.5/lp_presolve.c ****           if(isActiveLink(psdata->cols->varmap, ROW_MAT_COLNR(j))) {
 5554               		.loc 2 541 0 is_stmt 0 discriminator 1
 5555 2366 2B81      		ldd r18,Y+3
 5556 2368 3C81      		ldd r19,Y+4
 5557 236a 8E89      		ldd r24,Y+22
 5558 236c 9F89      		ldd r25,Y+23
 5559 236e 2817      		cp r18,r24
 5560 2370 3907      		cpc r19,r25
 5561 2372 04F4      		brge .+2
 5562 2374 00C0      		rjmp .L192
 545:lp_solve_5.5/lp_presolve.c ****           }
 546:lp_solve_5.5/lp_presolve.c ****         items[0] = k;
 5563               		.loc 2 546 0 is_stmt 1
 5564 2376 8C89      		ldd r24,Y+20
 5565 2378 9D89      		ldd r25,Y+21
 5566 237a 2D81      		ldd r18,Y+5
 5567 237c 3E81      		ldd r19,Y+6
 5568 237e FC01      		movw r30,r24
 5569 2380 3183      		std Z+1,r19
 5570 2382 2083      		st Z,r18
 5571               	.L189:
 525:lp_solve_5.5/lp_presolve.c **** 
 5572               		.loc 2 525 0 discriminator 2
 5573 2384 8981      		ldd r24,Y+1
 5574 2386 9A81      		ldd r25,Y+2
 5575 2388 0196      		adiw r24,1
 5576 238a 9A83      		std Y+2,r25
 5577 238c 8983      		std Y+1,r24
 5578               	.L186:
 525:lp_solve_5.5/lp_presolve.c **** 
 5579               		.loc 2 525 0 is_stmt 0 discriminator 1
 5580 238e 8889      		ldd r24,Y+16
 5581 2390 9989      		ldd r25,Y+17
 5582 2392 8651      		subi r24,22
 5583 2394 9E4F      		sbci r25,-2
 5584 2396 FC01      		movw r30,r24
 5585 2398 2081      		ld r18,Z
 5586 239a 3181      		ldd r19,Z+1
 5587 239c 8981      		ldd r24,Y+1
 5588 239e 9A81      		ldd r25,Y+2
 5589 23a0 2817      		cp r18,r24
 5590 23a2 3907      		cpc r19,r25
 5591 23a4 04F0      		brlt .+2
 5592 23a6 00C0      		rjmp .L193
 547:lp_solve_5.5/lp_presolve.c ****       }
 548:lp_solve_5.5/lp_presolve.c ****     }
 549:lp_solve_5.5/lp_presolve.c **** 
 550:lp_solve_5.5/lp_presolve.c ****     /* ...then update columns */
 551:lp_solve_5.5/lp_presolve.c ****     for(j = 1; j <= lp->columns; j++) {
 5593               		.loc 2 551 0 is_stmt 1
 5594 23a8 81E0      		ldi r24,lo8(1)
 5595 23aa 90E0      		ldi r25,0
 5596 23ac 9C83      		std Y+4,r25
 5597 23ae 8B83      		std Y+3,r24
 5598 23b0 00C0      		rjmp .L194
 5599               	.L215:
 552:lp_solve_5.5/lp_presolve.c **** 
