   1               		.file	"lp_report.c"
   2               	__SP_H__ = 0x3e
   3               	__SP_L__ = 0x3d
   4               	__SREG__ = 0x3f
   5               	__RAMPZ__ = 0x3b
   6               	__tmp_reg__ = 0
   7               	__zero_reg__ = 1
   8               		.text
   9               	.Ltext0:
  10               		.cfi_sections	.debug_frame
  12               	fflush:
  13               	.LFB0:
  14               		.file 1 "c:\\program files (x86)\\atmel\\studio\\7.0\\toolchain\\avr8\\avr8-gnu-toolchain\\avr\\in
   1:c:\program files (x86)\atmel\studio\7.0\toolchain\avr8\avr8-gnu-toolchain\avr\include\stdio.h **** /* Copyright (c) 2002, 2005, 2007 Joerg Wunsch
   2:c:\program files (x86)\atmel\studio\7.0\toolchain\avr8\avr8-gnu-toolchain\avr\include\stdio.h ****    All rights reserved.
   3:c:\program files (x86)\atmel\studio\7.0\toolchain\avr8\avr8-gnu-toolchain\avr\include\stdio.h **** 
   4:c:\program files (x86)\atmel\studio\7.0\toolchain\avr8\avr8-gnu-toolchain\avr\include\stdio.h ****    Portions of documentation Copyright (c) 1990, 1991, 1993
   5:c:\program files (x86)\atmel\studio\7.0\toolchain\avr8\avr8-gnu-toolchain\avr\include\stdio.h ****    The Regents of the University of California.
   6:c:\program files (x86)\atmel\studio\7.0\toolchain\avr8\avr8-gnu-toolchain\avr\include\stdio.h **** 
   7:c:\program files (x86)\atmel\studio\7.0\toolchain\avr8\avr8-gnu-toolchain\avr\include\stdio.h ****    All rights reserved.
   8:c:\program files (x86)\atmel\studio\7.0\toolchain\avr8\avr8-gnu-toolchain\avr\include\stdio.h **** 
   9:c:\program files (x86)\atmel\studio\7.0\toolchain\avr8\avr8-gnu-toolchain\avr\include\stdio.h ****    Redistribution and use in source and binary forms, with or without
  10:c:\program files (x86)\atmel\studio\7.0\toolchain\avr8\avr8-gnu-toolchain\avr\include\stdio.h ****    modification, are permitted provided that the following conditions are met:
  11:c:\program files (x86)\atmel\studio\7.0\toolchain\avr8\avr8-gnu-toolchain\avr\include\stdio.h **** 
  12:c:\program files (x86)\atmel\studio\7.0\toolchain\avr8\avr8-gnu-toolchain\avr\include\stdio.h ****    * Redistributions of source code must retain the above copyright
  13:c:\program files (x86)\atmel\studio\7.0\toolchain\avr8\avr8-gnu-toolchain\avr\include\stdio.h ****      notice, this list of conditions and the following disclaimer.
  14:c:\program files (x86)\atmel\studio\7.0\toolchain\avr8\avr8-gnu-toolchain\avr\include\stdio.h **** 
  15:c:\program files (x86)\atmel\studio\7.0\toolchain\avr8\avr8-gnu-toolchain\avr\include\stdio.h ****    * Redistributions in binary form must reproduce the above copyright
  16:c:\program files (x86)\atmel\studio\7.0\toolchain\avr8\avr8-gnu-toolchain\avr\include\stdio.h ****      notice, this list of conditions and the following disclaimer in
  17:c:\program files (x86)\atmel\studio\7.0\toolchain\avr8\avr8-gnu-toolchain\avr\include\stdio.h ****      the documentation and/or other materials provided with the
  18:c:\program files (x86)\atmel\studio\7.0\toolchain\avr8\avr8-gnu-toolchain\avr\include\stdio.h ****      distribution.
  19:c:\program files (x86)\atmel\studio\7.0\toolchain\avr8\avr8-gnu-toolchain\avr\include\stdio.h **** 
  20:c:\program files (x86)\atmel\studio\7.0\toolchain\avr8\avr8-gnu-toolchain\avr\include\stdio.h ****    * Neither the name of the copyright holders nor the names of
  21:c:\program files (x86)\atmel\studio\7.0\toolchain\avr8\avr8-gnu-toolchain\avr\include\stdio.h ****      contributors may be used to endorse or promote products derived
  22:c:\program files (x86)\atmel\studio\7.0\toolchain\avr8\avr8-gnu-toolchain\avr\include\stdio.h ****      from this software without specific prior written permission.
  23:c:\program files (x86)\atmel\studio\7.0\toolchain\avr8\avr8-gnu-toolchain\avr\include\stdio.h **** 
  24:c:\program files (x86)\atmel\studio\7.0\toolchain\avr8\avr8-gnu-toolchain\avr\include\stdio.h ****   THIS SOFTWARE IS PROVIDED BY THE COPYRIGHT HOLDERS AND CONTRIBUTORS "AS IS"
  25:c:\program files (x86)\atmel\studio\7.0\toolchain\avr8\avr8-gnu-toolchain\avr\include\stdio.h ****   AND ANY EXPRESS OR IMPLIED WARRANTIES, INCLUDING, BUT NOT LIMITED TO, THE
  26:c:\program files (x86)\atmel\studio\7.0\toolchain\avr8\avr8-gnu-toolchain\avr\include\stdio.h ****   IMPLIED WARRANTIES OF MERCHANTABILITY AND FITNESS FOR A PARTICULAR PURPOSE
  27:c:\program files (x86)\atmel\studio\7.0\toolchain\avr8\avr8-gnu-toolchain\avr\include\stdio.h ****   ARE DISCLAIMED. IN NO EVENT SHALL THE COPYRIGHT OWNER OR CONTRIBUTORS BE
  28:c:\program files (x86)\atmel\studio\7.0\toolchain\avr8\avr8-gnu-toolchain\avr\include\stdio.h ****   LIABLE FOR ANY DIRECT, INDIRECT, INCIDENTAL, SPECIAL, EXEMPLARY, OR
  29:c:\program files (x86)\atmel\studio\7.0\toolchain\avr8\avr8-gnu-toolchain\avr\include\stdio.h ****   CONSEQUENTIAL DAMAGES (INCLUDING, BUT NOT LIMITED TO, PROCUREMENT OF
  30:c:\program files (x86)\atmel\studio\7.0\toolchain\avr8\avr8-gnu-toolchain\avr\include\stdio.h ****   SUBSTITUTE GOODS OR SERVICES; LOSS OF USE, DATA, OR PROFITS; OR BUSINESS
  31:c:\program files (x86)\atmel\studio\7.0\toolchain\avr8\avr8-gnu-toolchain\avr\include\stdio.h ****   INTERRUPTION) HOWEVER CAUSED AND ON ANY THEORY OF LIABILITY, WHETHER IN
  32:c:\program files (x86)\atmel\studio\7.0\toolchain\avr8\avr8-gnu-toolchain\avr\include\stdio.h ****   CONTRACT, STRICT LIABILITY, OR TORT (INCLUDING NEGLIGENCE OR OTHERWISE)
  33:c:\program files (x86)\atmel\studio\7.0\toolchain\avr8\avr8-gnu-toolchain\avr\include\stdio.h ****   ARISING IN ANY WAY OUT OF THE USE OF THIS SOFTWARE, EVEN IF ADVISED OF THE
  34:c:\program files (x86)\atmel\studio\7.0\toolchain\avr8\avr8-gnu-toolchain\avr\include\stdio.h ****   POSSIBILITY OF SUCH DAMAGE.
  35:c:\program files (x86)\atmel\studio\7.0\toolchain\avr8\avr8-gnu-toolchain\avr\include\stdio.h **** 
  36:c:\program files (x86)\atmel\studio\7.0\toolchain\avr8\avr8-gnu-toolchain\avr\include\stdio.h ****   $Id$
  37:c:\program files (x86)\atmel\studio\7.0\toolchain\avr8\avr8-gnu-toolchain\avr\include\stdio.h **** */
  38:c:\program files (x86)\atmel\studio\7.0\toolchain\avr8\avr8-gnu-toolchain\avr\include\stdio.h **** 
  39:c:\program files (x86)\atmel\studio\7.0\toolchain\avr8\avr8-gnu-toolchain\avr\include\stdio.h **** #ifndef _STDIO_H_
  40:c:\program files (x86)\atmel\studio\7.0\toolchain\avr8\avr8-gnu-toolchain\avr\include\stdio.h **** #define	_STDIO_H_ 1
  41:c:\program files (x86)\atmel\studio\7.0\toolchain\avr8\avr8-gnu-toolchain\avr\include\stdio.h **** 
  42:c:\program files (x86)\atmel\studio\7.0\toolchain\avr8\avr8-gnu-toolchain\avr\include\stdio.h **** #ifndef __ASSEMBLER__
  43:c:\program files (x86)\atmel\studio\7.0\toolchain\avr8\avr8-gnu-toolchain\avr\include\stdio.h **** 
  44:c:\program files (x86)\atmel\studio\7.0\toolchain\avr8\avr8-gnu-toolchain\avr\include\stdio.h **** #include <inttypes.h>
  45:c:\program files (x86)\atmel\studio\7.0\toolchain\avr8\avr8-gnu-toolchain\avr\include\stdio.h **** #include <stdarg.h>
  46:c:\program files (x86)\atmel\studio\7.0\toolchain\avr8\avr8-gnu-toolchain\avr\include\stdio.h **** 
  47:c:\program files (x86)\atmel\studio\7.0\toolchain\avr8\avr8-gnu-toolchain\avr\include\stdio.h **** #ifndef __DOXYGEN__
  48:c:\program files (x86)\atmel\studio\7.0\toolchain\avr8\avr8-gnu-toolchain\avr\include\stdio.h **** #define __need_NULL
  49:c:\program files (x86)\atmel\studio\7.0\toolchain\avr8\avr8-gnu-toolchain\avr\include\stdio.h **** #define __need_size_t
  50:c:\program files (x86)\atmel\studio\7.0\toolchain\avr8\avr8-gnu-toolchain\avr\include\stdio.h **** #include <stddef.h>
  51:c:\program files (x86)\atmel\studio\7.0\toolchain\avr8\avr8-gnu-toolchain\avr\include\stdio.h **** #endif	/* !__DOXYGEN__ */
  52:c:\program files (x86)\atmel\studio\7.0\toolchain\avr8\avr8-gnu-toolchain\avr\include\stdio.h **** 
  53:c:\program files (x86)\atmel\studio\7.0\toolchain\avr8\avr8-gnu-toolchain\avr\include\stdio.h **** /** \file */
  54:c:\program files (x86)\atmel\studio\7.0\toolchain\avr8\avr8-gnu-toolchain\avr\include\stdio.h **** /** \defgroup avr_stdio <stdio.h>: Standard IO facilities
  55:c:\program files (x86)\atmel\studio\7.0\toolchain\avr8\avr8-gnu-toolchain\avr\include\stdio.h ****     \code #include <stdio.h> \endcode
  56:c:\program files (x86)\atmel\studio\7.0\toolchain\avr8\avr8-gnu-toolchain\avr\include\stdio.h **** 
  57:c:\program files (x86)\atmel\studio\7.0\toolchain\avr8\avr8-gnu-toolchain\avr\include\stdio.h ****     <h3>Introduction to the Standard IO facilities</h3>
  58:c:\program files (x86)\atmel\studio\7.0\toolchain\avr8\avr8-gnu-toolchain\avr\include\stdio.h **** 
  59:c:\program files (x86)\atmel\studio\7.0\toolchain\avr8\avr8-gnu-toolchain\avr\include\stdio.h ****     This file declares the standard IO facilities that are implemented
  60:c:\program files (x86)\atmel\studio\7.0\toolchain\avr8\avr8-gnu-toolchain\avr\include\stdio.h ****     in \c avr-libc.  Due to the nature of the underlying hardware,
  61:c:\program files (x86)\atmel\studio\7.0\toolchain\avr8\avr8-gnu-toolchain\avr\include\stdio.h ****     only a limited subset of standard IO is implemented.  There is no
  62:c:\program files (x86)\atmel\studio\7.0\toolchain\avr8\avr8-gnu-toolchain\avr\include\stdio.h ****     actual file implementation available, so only device IO can be
  63:c:\program files (x86)\atmel\studio\7.0\toolchain\avr8\avr8-gnu-toolchain\avr\include\stdio.h ****     performed.  Since there's no operating system, the application
  64:c:\program files (x86)\atmel\studio\7.0\toolchain\avr8\avr8-gnu-toolchain\avr\include\stdio.h ****     needs to provide enough details about their devices in order to
  65:c:\program files (x86)\atmel\studio\7.0\toolchain\avr8\avr8-gnu-toolchain\avr\include\stdio.h ****     make them usable by the standard IO facilities.
  66:c:\program files (x86)\atmel\studio\7.0\toolchain\avr8\avr8-gnu-toolchain\avr\include\stdio.h **** 
  67:c:\program files (x86)\atmel\studio\7.0\toolchain\avr8\avr8-gnu-toolchain\avr\include\stdio.h ****     Due to space constraints, some functionality has not been
  68:c:\program files (x86)\atmel\studio\7.0\toolchain\avr8\avr8-gnu-toolchain\avr\include\stdio.h ****     implemented at all (like some of the \c printf conversions that
  69:c:\program files (x86)\atmel\studio\7.0\toolchain\avr8\avr8-gnu-toolchain\avr\include\stdio.h ****     have been left out).  Nevertheless, potential users of this
  70:c:\program files (x86)\atmel\studio\7.0\toolchain\avr8\avr8-gnu-toolchain\avr\include\stdio.h ****     implementation should be warned: the \c printf and \c scanf families of functions, although
  71:c:\program files (x86)\atmel\studio\7.0\toolchain\avr8\avr8-gnu-toolchain\avr\include\stdio.h ****     usually associated with presumably simple things like the
  72:c:\program files (x86)\atmel\studio\7.0\toolchain\avr8\avr8-gnu-toolchain\avr\include\stdio.h ****     famous "Hello, world!" program, are actually fairly complex
  73:c:\program files (x86)\atmel\studio\7.0\toolchain\avr8\avr8-gnu-toolchain\avr\include\stdio.h ****     which causes their inclusion to eat up a fair amount of code space.
  74:c:\program files (x86)\atmel\studio\7.0\toolchain\avr8\avr8-gnu-toolchain\avr\include\stdio.h ****     Also, they are not fast due to the nature of interpreting the
  75:c:\program files (x86)\atmel\studio\7.0\toolchain\avr8\avr8-gnu-toolchain\avr\include\stdio.h ****     format string at run-time.  Whenever possible, resorting to the
  76:c:\program files (x86)\atmel\studio\7.0\toolchain\avr8\avr8-gnu-toolchain\avr\include\stdio.h ****     (sometimes non-standard) predetermined conversion facilities that are
  77:c:\program files (x86)\atmel\studio\7.0\toolchain\avr8\avr8-gnu-toolchain\avr\include\stdio.h ****     offered by avr-libc will usually cost much less in terms of speed
  78:c:\program files (x86)\atmel\studio\7.0\toolchain\avr8\avr8-gnu-toolchain\avr\include\stdio.h ****     and code size.
  79:c:\program files (x86)\atmel\studio\7.0\toolchain\avr8\avr8-gnu-toolchain\avr\include\stdio.h **** 
  80:c:\program files (x86)\atmel\studio\7.0\toolchain\avr8\avr8-gnu-toolchain\avr\include\stdio.h ****     <h3>Tunable options for code size vs. feature set</h3>
  81:c:\program files (x86)\atmel\studio\7.0\toolchain\avr8\avr8-gnu-toolchain\avr\include\stdio.h **** 
  82:c:\program files (x86)\atmel\studio\7.0\toolchain\avr8\avr8-gnu-toolchain\avr\include\stdio.h ****     In order to allow programmers a code size vs. functionality tradeoff,
  83:c:\program files (x86)\atmel\studio\7.0\toolchain\avr8\avr8-gnu-toolchain\avr\include\stdio.h ****     the function vfprintf() which is the heart of the printf family can be
  84:c:\program files (x86)\atmel\studio\7.0\toolchain\avr8\avr8-gnu-toolchain\avr\include\stdio.h ****     selected in different flavours using linker options.  See the
  85:c:\program files (x86)\atmel\studio\7.0\toolchain\avr8\avr8-gnu-toolchain\avr\include\stdio.h ****     documentation of vfprintf() for a detailed description.  The same
  86:c:\program files (x86)\atmel\studio\7.0\toolchain\avr8\avr8-gnu-toolchain\avr\include\stdio.h ****     applies to vfscanf() and the \c scanf family of functions.
  87:c:\program files (x86)\atmel\studio\7.0\toolchain\avr8\avr8-gnu-toolchain\avr\include\stdio.h **** 
  88:c:\program files (x86)\atmel\studio\7.0\toolchain\avr8\avr8-gnu-toolchain\avr\include\stdio.h ****     <h3>Outline of the chosen API</h3>
  89:c:\program files (x86)\atmel\studio\7.0\toolchain\avr8\avr8-gnu-toolchain\avr\include\stdio.h **** 
  90:c:\program files (x86)\atmel\studio\7.0\toolchain\avr8\avr8-gnu-toolchain\avr\include\stdio.h ****     The standard streams \c stdin, \c stdout, and \c stderr are
  91:c:\program files (x86)\atmel\studio\7.0\toolchain\avr8\avr8-gnu-toolchain\avr\include\stdio.h ****     provided, but contrary to the C standard, since avr-libc has no
  92:c:\program files (x86)\atmel\studio\7.0\toolchain\avr8\avr8-gnu-toolchain\avr\include\stdio.h ****     knowledge about applicable devices, these streams are not already
  93:c:\program files (x86)\atmel\studio\7.0\toolchain\avr8\avr8-gnu-toolchain\avr\include\stdio.h ****     pre-initialized at application startup.  Also, since there is no
  94:c:\program files (x86)\atmel\studio\7.0\toolchain\avr8\avr8-gnu-toolchain\avr\include\stdio.h ****     notion of "file" whatsoever to avr-libc, there is no function
  95:c:\program files (x86)\atmel\studio\7.0\toolchain\avr8\avr8-gnu-toolchain\avr\include\stdio.h ****     \c fopen() that could be used to associate a stream to some device.
  96:c:\program files (x86)\atmel\studio\7.0\toolchain\avr8\avr8-gnu-toolchain\avr\include\stdio.h ****     (See \ref stdio_note1 "note 1".)  Instead, the function \c fdevopen()
  97:c:\program files (x86)\atmel\studio\7.0\toolchain\avr8\avr8-gnu-toolchain\avr\include\stdio.h ****     is provided to associate a stream to a device, where the device
  98:c:\program files (x86)\atmel\studio\7.0\toolchain\avr8\avr8-gnu-toolchain\avr\include\stdio.h ****     needs to provide a function to send a character, to receive a
  99:c:\program files (x86)\atmel\studio\7.0\toolchain\avr8\avr8-gnu-toolchain\avr\include\stdio.h ****     character, or both.  There is no differentiation between "text" and
 100:c:\program files (x86)\atmel\studio\7.0\toolchain\avr8\avr8-gnu-toolchain\avr\include\stdio.h ****     "binary" streams inside avr-libc.  Character \c \\n is sent
 101:c:\program files (x86)\atmel\studio\7.0\toolchain\avr8\avr8-gnu-toolchain\avr\include\stdio.h ****     literally down to the device's \c put() function.  If the device
 102:c:\program files (x86)\atmel\studio\7.0\toolchain\avr8\avr8-gnu-toolchain\avr\include\stdio.h ****     requires a carriage return (\c \\r) character to be sent before
 103:c:\program files (x86)\atmel\studio\7.0\toolchain\avr8\avr8-gnu-toolchain\avr\include\stdio.h ****     the linefeed, its \c put() routine must implement this (see
 104:c:\program files (x86)\atmel\studio\7.0\toolchain\avr8\avr8-gnu-toolchain\avr\include\stdio.h ****     \ref stdio_note2 "note 2").
 105:c:\program files (x86)\atmel\studio\7.0\toolchain\avr8\avr8-gnu-toolchain\avr\include\stdio.h **** 
 106:c:\program files (x86)\atmel\studio\7.0\toolchain\avr8\avr8-gnu-toolchain\avr\include\stdio.h ****     As an alternative method to fdevopen(), the macro
 107:c:\program files (x86)\atmel\studio\7.0\toolchain\avr8\avr8-gnu-toolchain\avr\include\stdio.h ****     fdev_setup_stream() might be used to setup a user-supplied FILE
 108:c:\program files (x86)\atmel\studio\7.0\toolchain\avr8\avr8-gnu-toolchain\avr\include\stdio.h ****     structure.
 109:c:\program files (x86)\atmel\studio\7.0\toolchain\avr8\avr8-gnu-toolchain\avr\include\stdio.h **** 
 110:c:\program files (x86)\atmel\studio\7.0\toolchain\avr8\avr8-gnu-toolchain\avr\include\stdio.h ****     It should be noted that the automatic conversion of a newline
 111:c:\program files (x86)\atmel\studio\7.0\toolchain\avr8\avr8-gnu-toolchain\avr\include\stdio.h ****     character into a carriage return - newline sequence breaks binary
 112:c:\program files (x86)\atmel\studio\7.0\toolchain\avr8\avr8-gnu-toolchain\avr\include\stdio.h ****     transfers.  If binary transfers are desired, no automatic
 113:c:\program files (x86)\atmel\studio\7.0\toolchain\avr8\avr8-gnu-toolchain\avr\include\stdio.h ****     conversion should be performed, but instead any string that aims
 114:c:\program files (x86)\atmel\studio\7.0\toolchain\avr8\avr8-gnu-toolchain\avr\include\stdio.h ****     to issue a CR-LF sequence must use <tt>"\r\n"</tt> explicitly.
 115:c:\program files (x86)\atmel\studio\7.0\toolchain\avr8\avr8-gnu-toolchain\avr\include\stdio.h **** 
 116:c:\program files (x86)\atmel\studio\7.0\toolchain\avr8\avr8-gnu-toolchain\avr\include\stdio.h ****     For convenience, the first call to \c fdevopen() that opens a
 117:c:\program files (x86)\atmel\studio\7.0\toolchain\avr8\avr8-gnu-toolchain\avr\include\stdio.h ****     stream for reading will cause the resulting stream to be aliased
 118:c:\program files (x86)\atmel\studio\7.0\toolchain\avr8\avr8-gnu-toolchain\avr\include\stdio.h ****     to \c stdin.  Likewise, the first call to \c fdevopen() that opens
 119:c:\program files (x86)\atmel\studio\7.0\toolchain\avr8\avr8-gnu-toolchain\avr\include\stdio.h ****     a stream for writing will cause the resulting stream to be aliased
 120:c:\program files (x86)\atmel\studio\7.0\toolchain\avr8\avr8-gnu-toolchain\avr\include\stdio.h ****     to both, \c stdout, and \c stderr.  Thus, if the open was done
 121:c:\program files (x86)\atmel\studio\7.0\toolchain\avr8\avr8-gnu-toolchain\avr\include\stdio.h ****     with both, read and write intent, all three standard streams will
 122:c:\program files (x86)\atmel\studio\7.0\toolchain\avr8\avr8-gnu-toolchain\avr\include\stdio.h ****     be identical.  Note that these aliases are indistinguishable from
 123:c:\program files (x86)\atmel\studio\7.0\toolchain\avr8\avr8-gnu-toolchain\avr\include\stdio.h ****     each other, thus calling \c fclose() on such a stream will also
 124:c:\program files (x86)\atmel\studio\7.0\toolchain\avr8\avr8-gnu-toolchain\avr\include\stdio.h ****     effectively close all of its aliases (\ref stdio_note3 "note 3").
 125:c:\program files (x86)\atmel\studio\7.0\toolchain\avr8\avr8-gnu-toolchain\avr\include\stdio.h **** 
 126:c:\program files (x86)\atmel\studio\7.0\toolchain\avr8\avr8-gnu-toolchain\avr\include\stdio.h ****     It is possible to tie additional user data to a stream, using
 127:c:\program files (x86)\atmel\studio\7.0\toolchain\avr8\avr8-gnu-toolchain\avr\include\stdio.h ****     fdev_set_udata().  The backend put and get functions can then
 128:c:\program files (x86)\atmel\studio\7.0\toolchain\avr8\avr8-gnu-toolchain\avr\include\stdio.h ****     extract this user data using fdev_get_udata(), and act
 129:c:\program files (x86)\atmel\studio\7.0\toolchain\avr8\avr8-gnu-toolchain\avr\include\stdio.h ****     appropriately.  For example, a single put function could be used
 130:c:\program files (x86)\atmel\studio\7.0\toolchain\avr8\avr8-gnu-toolchain\avr\include\stdio.h ****     to talk to two different UARTs that way, or the put and get
 131:c:\program files (x86)\atmel\studio\7.0\toolchain\avr8\avr8-gnu-toolchain\avr\include\stdio.h ****     functions could keep internal state between calls there.
 132:c:\program files (x86)\atmel\studio\7.0\toolchain\avr8\avr8-gnu-toolchain\avr\include\stdio.h **** 
 133:c:\program files (x86)\atmel\studio\7.0\toolchain\avr8\avr8-gnu-toolchain\avr\include\stdio.h ****     <h3>Format strings in flash ROM</h3>
 134:c:\program files (x86)\atmel\studio\7.0\toolchain\avr8\avr8-gnu-toolchain\avr\include\stdio.h **** 
 135:c:\program files (x86)\atmel\studio\7.0\toolchain\avr8\avr8-gnu-toolchain\avr\include\stdio.h ****     All the \c printf and \c scanf family functions come in two flavours: the
 136:c:\program files (x86)\atmel\studio\7.0\toolchain\avr8\avr8-gnu-toolchain\avr\include\stdio.h ****     standard name, where the format string is expected to be in
 137:c:\program files (x86)\atmel\studio\7.0\toolchain\avr8\avr8-gnu-toolchain\avr\include\stdio.h ****     SRAM, as well as a version with the suffix "_P" where the format
 138:c:\program files (x86)\atmel\studio\7.0\toolchain\avr8\avr8-gnu-toolchain\avr\include\stdio.h ****     string is expected to reside in the flash ROM.  The macro
 139:c:\program files (x86)\atmel\studio\7.0\toolchain\avr8\avr8-gnu-toolchain\avr\include\stdio.h ****     \c PSTR (explained in \ref avr_pgmspace) becomes very handy
 140:c:\program files (x86)\atmel\studio\7.0\toolchain\avr8\avr8-gnu-toolchain\avr\include\stdio.h ****     for declaring these format strings.
 141:c:\program files (x86)\atmel\studio\7.0\toolchain\avr8\avr8-gnu-toolchain\avr\include\stdio.h **** 
 142:c:\program files (x86)\atmel\studio\7.0\toolchain\avr8\avr8-gnu-toolchain\avr\include\stdio.h ****     \anchor stdio_without_malloc
 143:c:\program files (x86)\atmel\studio\7.0\toolchain\avr8\avr8-gnu-toolchain\avr\include\stdio.h ****     <h3>Running stdio without malloc()</h3>
 144:c:\program files (x86)\atmel\studio\7.0\toolchain\avr8\avr8-gnu-toolchain\avr\include\stdio.h **** 
 145:c:\program files (x86)\atmel\studio\7.0\toolchain\avr8\avr8-gnu-toolchain\avr\include\stdio.h ****     By default, fdevopen() requires malloc().  As this is often
 146:c:\program files (x86)\atmel\studio\7.0\toolchain\avr8\avr8-gnu-toolchain\avr\include\stdio.h ****     not desired in the limited environment of a microcontroller, an
 147:c:\program files (x86)\atmel\studio\7.0\toolchain\avr8\avr8-gnu-toolchain\avr\include\stdio.h ****     alternative option is provided to run completely without malloc().
 148:c:\program files (x86)\atmel\studio\7.0\toolchain\avr8\avr8-gnu-toolchain\avr\include\stdio.h **** 
 149:c:\program files (x86)\atmel\studio\7.0\toolchain\avr8\avr8-gnu-toolchain\avr\include\stdio.h ****     The macro fdev_setup_stream() is provided to prepare a
 150:c:\program files (x86)\atmel\studio\7.0\toolchain\avr8\avr8-gnu-toolchain\avr\include\stdio.h ****     user-supplied FILE buffer for operation with stdio.
 151:c:\program files (x86)\atmel\studio\7.0\toolchain\avr8\avr8-gnu-toolchain\avr\include\stdio.h **** 
 152:c:\program files (x86)\atmel\studio\7.0\toolchain\avr8\avr8-gnu-toolchain\avr\include\stdio.h ****     <h4>Example</h4>
 153:c:\program files (x86)\atmel\studio\7.0\toolchain\avr8\avr8-gnu-toolchain\avr\include\stdio.h **** 
 154:c:\program files (x86)\atmel\studio\7.0\toolchain\avr8\avr8-gnu-toolchain\avr\include\stdio.h ****     \code
 155:c:\program files (x86)\atmel\studio\7.0\toolchain\avr8\avr8-gnu-toolchain\avr\include\stdio.h ****     #include <stdio.h>
 156:c:\program files (x86)\atmel\studio\7.0\toolchain\avr8\avr8-gnu-toolchain\avr\include\stdio.h **** 
 157:c:\program files (x86)\atmel\studio\7.0\toolchain\avr8\avr8-gnu-toolchain\avr\include\stdio.h ****     static int uart_putchar(char c, FILE *stream);
 158:c:\program files (x86)\atmel\studio\7.0\toolchain\avr8\avr8-gnu-toolchain\avr\include\stdio.h **** 
 159:c:\program files (x86)\atmel\studio\7.0\toolchain\avr8\avr8-gnu-toolchain\avr\include\stdio.h ****     static FILE mystdout = FDEV_SETUP_STREAM(uart_putchar, NULL,
 160:c:\program files (x86)\atmel\studio\7.0\toolchain\avr8\avr8-gnu-toolchain\avr\include\stdio.h ****                                              _FDEV_SETUP_WRITE);
 161:c:\program files (x86)\atmel\studio\7.0\toolchain\avr8\avr8-gnu-toolchain\avr\include\stdio.h **** 
 162:c:\program files (x86)\atmel\studio\7.0\toolchain\avr8\avr8-gnu-toolchain\avr\include\stdio.h ****     static int
 163:c:\program files (x86)\atmel\studio\7.0\toolchain\avr8\avr8-gnu-toolchain\avr\include\stdio.h ****     uart_putchar(char c, FILE *stream)
 164:c:\program files (x86)\atmel\studio\7.0\toolchain\avr8\avr8-gnu-toolchain\avr\include\stdio.h ****     {
 165:c:\program files (x86)\atmel\studio\7.0\toolchain\avr8\avr8-gnu-toolchain\avr\include\stdio.h **** 
 166:c:\program files (x86)\atmel\studio\7.0\toolchain\avr8\avr8-gnu-toolchain\avr\include\stdio.h ****       if (c == '\n')
 167:c:\program files (x86)\atmel\studio\7.0\toolchain\avr8\avr8-gnu-toolchain\avr\include\stdio.h ****         uart_putchar('\r', stream);
 168:c:\program files (x86)\atmel\studio\7.0\toolchain\avr8\avr8-gnu-toolchain\avr\include\stdio.h ****       loop_until_bit_is_set(UCSRA, UDRE);
 169:c:\program files (x86)\atmel\studio\7.0\toolchain\avr8\avr8-gnu-toolchain\avr\include\stdio.h ****       UDR = c;
 170:c:\program files (x86)\atmel\studio\7.0\toolchain\avr8\avr8-gnu-toolchain\avr\include\stdio.h ****       return 0;
 171:c:\program files (x86)\atmel\studio\7.0\toolchain\avr8\avr8-gnu-toolchain\avr\include\stdio.h ****     }
 172:c:\program files (x86)\atmel\studio\7.0\toolchain\avr8\avr8-gnu-toolchain\avr\include\stdio.h **** 
 173:c:\program files (x86)\atmel\studio\7.0\toolchain\avr8\avr8-gnu-toolchain\avr\include\stdio.h ****     int
 174:c:\program files (x86)\atmel\studio\7.0\toolchain\avr8\avr8-gnu-toolchain\avr\include\stdio.h ****     main(void)
 175:c:\program files (x86)\atmel\studio\7.0\toolchain\avr8\avr8-gnu-toolchain\avr\include\stdio.h ****     {
 176:c:\program files (x86)\atmel\studio\7.0\toolchain\avr8\avr8-gnu-toolchain\avr\include\stdio.h ****       init_uart();
 177:c:\program files (x86)\atmel\studio\7.0\toolchain\avr8\avr8-gnu-toolchain\avr\include\stdio.h ****       stdout = &mystdout;
 178:c:\program files (x86)\atmel\studio\7.0\toolchain\avr8\avr8-gnu-toolchain\avr\include\stdio.h ****       printf("Hello, world!\n");
 179:c:\program files (x86)\atmel\studio\7.0\toolchain\avr8\avr8-gnu-toolchain\avr\include\stdio.h **** 
 180:c:\program files (x86)\atmel\studio\7.0\toolchain\avr8\avr8-gnu-toolchain\avr\include\stdio.h ****       return 0;
 181:c:\program files (x86)\atmel\studio\7.0\toolchain\avr8\avr8-gnu-toolchain\avr\include\stdio.h ****     }
 182:c:\program files (x86)\atmel\studio\7.0\toolchain\avr8\avr8-gnu-toolchain\avr\include\stdio.h ****     \endcode
 183:c:\program files (x86)\atmel\studio\7.0\toolchain\avr8\avr8-gnu-toolchain\avr\include\stdio.h **** 
 184:c:\program files (x86)\atmel\studio\7.0\toolchain\avr8\avr8-gnu-toolchain\avr\include\stdio.h ****     This example uses the initializer form FDEV_SETUP_STREAM() rather
 185:c:\program files (x86)\atmel\studio\7.0\toolchain\avr8\avr8-gnu-toolchain\avr\include\stdio.h ****     than the function-like fdev_setup_stream(), so all data
 186:c:\program files (x86)\atmel\studio\7.0\toolchain\avr8\avr8-gnu-toolchain\avr\include\stdio.h ****     initialization happens during C start-up.
 187:c:\program files (x86)\atmel\studio\7.0\toolchain\avr8\avr8-gnu-toolchain\avr\include\stdio.h **** 
 188:c:\program files (x86)\atmel\studio\7.0\toolchain\avr8\avr8-gnu-toolchain\avr\include\stdio.h ****     If streams initialized that way are no longer needed, they can be
 189:c:\program files (x86)\atmel\studio\7.0\toolchain\avr8\avr8-gnu-toolchain\avr\include\stdio.h ****     destroyed by first calling the macro fdev_close(), and then
 190:c:\program files (x86)\atmel\studio\7.0\toolchain\avr8\avr8-gnu-toolchain\avr\include\stdio.h ****     destroying the object itself.  No call to fclose() should be
 191:c:\program files (x86)\atmel\studio\7.0\toolchain\avr8\avr8-gnu-toolchain\avr\include\stdio.h ****     issued for these streams.  While calling fclose() itself is
 192:c:\program files (x86)\atmel\studio\7.0\toolchain\avr8\avr8-gnu-toolchain\avr\include\stdio.h ****     harmless, it will cause an undefined reference to free() and thus
 193:c:\program files (x86)\atmel\studio\7.0\toolchain\avr8\avr8-gnu-toolchain\avr\include\stdio.h ****     cause the linker to link the malloc module into the application.
 194:c:\program files (x86)\atmel\studio\7.0\toolchain\avr8\avr8-gnu-toolchain\avr\include\stdio.h **** 
 195:c:\program files (x86)\atmel\studio\7.0\toolchain\avr8\avr8-gnu-toolchain\avr\include\stdio.h ****     <h3>Notes</h3>
 196:c:\program files (x86)\atmel\studio\7.0\toolchain\avr8\avr8-gnu-toolchain\avr\include\stdio.h **** 
 197:c:\program files (x86)\atmel\studio\7.0\toolchain\avr8\avr8-gnu-toolchain\avr\include\stdio.h ****     \anchor stdio_note1 \par Note 1:
 198:c:\program files (x86)\atmel\studio\7.0\toolchain\avr8\avr8-gnu-toolchain\avr\include\stdio.h ****     It might have been possible to implement a device abstraction that
 199:c:\program files (x86)\atmel\studio\7.0\toolchain\avr8\avr8-gnu-toolchain\avr\include\stdio.h ****     is compatible with \c fopen() but since this would have required
 200:c:\program files (x86)\atmel\studio\7.0\toolchain\avr8\avr8-gnu-toolchain\avr\include\stdio.h ****     to parse a string, and to take all the information needed either
 201:c:\program files (x86)\atmel\studio\7.0\toolchain\avr8\avr8-gnu-toolchain\avr\include\stdio.h ****     out of this string, or out of an additional table that would need to be
 202:c:\program files (x86)\atmel\studio\7.0\toolchain\avr8\avr8-gnu-toolchain\avr\include\stdio.h ****     provided by the application, this approach was not taken.
 203:c:\program files (x86)\atmel\studio\7.0\toolchain\avr8\avr8-gnu-toolchain\avr\include\stdio.h **** 
 204:c:\program files (x86)\atmel\studio\7.0\toolchain\avr8\avr8-gnu-toolchain\avr\include\stdio.h ****     \anchor stdio_note2 \par Note 2:
 205:c:\program files (x86)\atmel\studio\7.0\toolchain\avr8\avr8-gnu-toolchain\avr\include\stdio.h ****     This basically follows the Unix approach: if a device such as a
 206:c:\program files (x86)\atmel\studio\7.0\toolchain\avr8\avr8-gnu-toolchain\avr\include\stdio.h ****     terminal needs special handling, it is in the domain of the
 207:c:\program files (x86)\atmel\studio\7.0\toolchain\avr8\avr8-gnu-toolchain\avr\include\stdio.h ****     terminal device driver to provide this functionality.  Thus, a
 208:c:\program files (x86)\atmel\studio\7.0\toolchain\avr8\avr8-gnu-toolchain\avr\include\stdio.h ****     simple function suitable as \c put() for \c fdevopen() that talks
 209:c:\program files (x86)\atmel\studio\7.0\toolchain\avr8\avr8-gnu-toolchain\avr\include\stdio.h ****     to a UART interface might look like this:
 210:c:\program files (x86)\atmel\studio\7.0\toolchain\avr8\avr8-gnu-toolchain\avr\include\stdio.h **** 
 211:c:\program files (x86)\atmel\studio\7.0\toolchain\avr8\avr8-gnu-toolchain\avr\include\stdio.h ****     \code
 212:c:\program files (x86)\atmel\studio\7.0\toolchain\avr8\avr8-gnu-toolchain\avr\include\stdio.h ****     int
 213:c:\program files (x86)\atmel\studio\7.0\toolchain\avr8\avr8-gnu-toolchain\avr\include\stdio.h ****     uart_putchar(char c, FILE *stream)
 214:c:\program files (x86)\atmel\studio\7.0\toolchain\avr8\avr8-gnu-toolchain\avr\include\stdio.h ****     {
 215:c:\program files (x86)\atmel\studio\7.0\toolchain\avr8\avr8-gnu-toolchain\avr\include\stdio.h **** 
 216:c:\program files (x86)\atmel\studio\7.0\toolchain\avr8\avr8-gnu-toolchain\avr\include\stdio.h ****       if (c == '\n')
 217:c:\program files (x86)\atmel\studio\7.0\toolchain\avr8\avr8-gnu-toolchain\avr\include\stdio.h ****         uart_putchar('\r');
 218:c:\program files (x86)\atmel\studio\7.0\toolchain\avr8\avr8-gnu-toolchain\avr\include\stdio.h ****       loop_until_bit_is_set(UCSRA, UDRE);
 219:c:\program files (x86)\atmel\studio\7.0\toolchain\avr8\avr8-gnu-toolchain\avr\include\stdio.h ****       UDR = c;
 220:c:\program files (x86)\atmel\studio\7.0\toolchain\avr8\avr8-gnu-toolchain\avr\include\stdio.h ****       return 0;
 221:c:\program files (x86)\atmel\studio\7.0\toolchain\avr8\avr8-gnu-toolchain\avr\include\stdio.h ****     }
 222:c:\program files (x86)\atmel\studio\7.0\toolchain\avr8\avr8-gnu-toolchain\avr\include\stdio.h ****     \endcode
 223:c:\program files (x86)\atmel\studio\7.0\toolchain\avr8\avr8-gnu-toolchain\avr\include\stdio.h **** 
 224:c:\program files (x86)\atmel\studio\7.0\toolchain\avr8\avr8-gnu-toolchain\avr\include\stdio.h ****     \anchor stdio_note3 \par Note 3:
 225:c:\program files (x86)\atmel\studio\7.0\toolchain\avr8\avr8-gnu-toolchain\avr\include\stdio.h ****     This implementation has been chosen because the cost of maintaining
 226:c:\program files (x86)\atmel\studio\7.0\toolchain\avr8\avr8-gnu-toolchain\avr\include\stdio.h ****     an alias is considerably smaller than the cost of maintaining full
 227:c:\program files (x86)\atmel\studio\7.0\toolchain\avr8\avr8-gnu-toolchain\avr\include\stdio.h ****     copies of each stream.  Yet, providing an implementation that offers
 228:c:\program files (x86)\atmel\studio\7.0\toolchain\avr8\avr8-gnu-toolchain\avr\include\stdio.h ****     the complete set of standard streams was deemed to be useful.  Not
 229:c:\program files (x86)\atmel\studio\7.0\toolchain\avr8\avr8-gnu-toolchain\avr\include\stdio.h ****     only that writing \c printf() instead of <tt>fprintf(mystream, ...)</tt>
 230:c:\program files (x86)\atmel\studio\7.0\toolchain\avr8\avr8-gnu-toolchain\avr\include\stdio.h ****     saves typing work, but since avr-gcc needs to resort to pass all
 231:c:\program files (x86)\atmel\studio\7.0\toolchain\avr8\avr8-gnu-toolchain\avr\include\stdio.h ****     arguments of variadic functions on the stack (as opposed to passing
 232:c:\program files (x86)\atmel\studio\7.0\toolchain\avr8\avr8-gnu-toolchain\avr\include\stdio.h ****     them in registers for functions that take a fixed number of
 233:c:\program files (x86)\atmel\studio\7.0\toolchain\avr8\avr8-gnu-toolchain\avr\include\stdio.h ****     parameters), the ability to pass one parameter less by implying
 234:c:\program files (x86)\atmel\studio\7.0\toolchain\avr8\avr8-gnu-toolchain\avr\include\stdio.h ****     \c stdin or stdout will also save some execution time.
 235:c:\program files (x86)\atmel\studio\7.0\toolchain\avr8\avr8-gnu-toolchain\avr\include\stdio.h **** */
 236:c:\program files (x86)\atmel\studio\7.0\toolchain\avr8\avr8-gnu-toolchain\avr\include\stdio.h **** 
 237:c:\program files (x86)\atmel\studio\7.0\toolchain\avr8\avr8-gnu-toolchain\avr\include\stdio.h **** #if !defined(__DOXYGEN__)
 238:c:\program files (x86)\atmel\studio\7.0\toolchain\avr8\avr8-gnu-toolchain\avr\include\stdio.h **** 
 239:c:\program files (x86)\atmel\studio\7.0\toolchain\avr8\avr8-gnu-toolchain\avr\include\stdio.h **** /*
 240:c:\program files (x86)\atmel\studio\7.0\toolchain\avr8\avr8-gnu-toolchain\avr\include\stdio.h ****  * This is an internal structure of the library that is subject to be
 241:c:\program files (x86)\atmel\studio\7.0\toolchain\avr8\avr8-gnu-toolchain\avr\include\stdio.h ****  * changed without warnings at any time.  Please do *never* reference
 242:c:\program files (x86)\atmel\studio\7.0\toolchain\avr8\avr8-gnu-toolchain\avr\include\stdio.h ****  * elements of it beyond by using the official interfaces provided.
 243:c:\program files (x86)\atmel\studio\7.0\toolchain\avr8\avr8-gnu-toolchain\avr\include\stdio.h ****  */
 244:c:\program files (x86)\atmel\studio\7.0\toolchain\avr8\avr8-gnu-toolchain\avr\include\stdio.h **** struct __file {
 245:c:\program files (x86)\atmel\studio\7.0\toolchain\avr8\avr8-gnu-toolchain\avr\include\stdio.h **** 	char	*buf;		/* buffer pointer */
 246:c:\program files (x86)\atmel\studio\7.0\toolchain\avr8\avr8-gnu-toolchain\avr\include\stdio.h **** 	unsigned char unget;	/* ungetc() buffer */
 247:c:\program files (x86)\atmel\studio\7.0\toolchain\avr8\avr8-gnu-toolchain\avr\include\stdio.h **** 	uint8_t	flags;		/* flags, see below */
 248:c:\program files (x86)\atmel\studio\7.0\toolchain\avr8\avr8-gnu-toolchain\avr\include\stdio.h **** #define __SRD	0x0001		/* OK to read */
 249:c:\program files (x86)\atmel\studio\7.0\toolchain\avr8\avr8-gnu-toolchain\avr\include\stdio.h **** #define __SWR	0x0002		/* OK to write */
 250:c:\program files (x86)\atmel\studio\7.0\toolchain\avr8\avr8-gnu-toolchain\avr\include\stdio.h **** #define __SSTR	0x0004		/* this is an sprintf/snprintf string */
 251:c:\program files (x86)\atmel\studio\7.0\toolchain\avr8\avr8-gnu-toolchain\avr\include\stdio.h **** #define __SPGM	0x0008		/* fmt string is in progmem */
 252:c:\program files (x86)\atmel\studio\7.0\toolchain\avr8\avr8-gnu-toolchain\avr\include\stdio.h **** #define __SERR	0x0010		/* found error */
 253:c:\program files (x86)\atmel\studio\7.0\toolchain\avr8\avr8-gnu-toolchain\avr\include\stdio.h **** #define __SEOF	0x0020		/* found EOF */
 254:c:\program files (x86)\atmel\studio\7.0\toolchain\avr8\avr8-gnu-toolchain\avr\include\stdio.h **** #define __SUNGET 0x040		/* ungetc() happened */
 255:c:\program files (x86)\atmel\studio\7.0\toolchain\avr8\avr8-gnu-toolchain\avr\include\stdio.h **** #define __SMALLOC 0x80		/* handle is malloc()ed */
 256:c:\program files (x86)\atmel\studio\7.0\toolchain\avr8\avr8-gnu-toolchain\avr\include\stdio.h **** #if 0
 257:c:\program files (x86)\atmel\studio\7.0\toolchain\avr8\avr8-gnu-toolchain\avr\include\stdio.h **** /* possible future extensions, will require uint16_t flags */
 258:c:\program files (x86)\atmel\studio\7.0\toolchain\avr8\avr8-gnu-toolchain\avr\include\stdio.h **** #define __SRW	0x0100		/* open for reading & writing */
 259:c:\program files (x86)\atmel\studio\7.0\toolchain\avr8\avr8-gnu-toolchain\avr\include\stdio.h **** #define __SLBF	0x0200		/* line buffered */
 260:c:\program files (x86)\atmel\studio\7.0\toolchain\avr8\avr8-gnu-toolchain\avr\include\stdio.h **** #define __SNBF	0x0400		/* unbuffered */
 261:c:\program files (x86)\atmel\studio\7.0\toolchain\avr8\avr8-gnu-toolchain\avr\include\stdio.h **** #define __SMBF	0x0800		/* buf is from malloc */
 262:c:\program files (x86)\atmel\studio\7.0\toolchain\avr8\avr8-gnu-toolchain\avr\include\stdio.h **** #endif
 263:c:\program files (x86)\atmel\studio\7.0\toolchain\avr8\avr8-gnu-toolchain\avr\include\stdio.h **** 	int	size;		/* size of buffer */
 264:c:\program files (x86)\atmel\studio\7.0\toolchain\avr8\avr8-gnu-toolchain\avr\include\stdio.h **** 	int	len;		/* characters read or written so far */
 265:c:\program files (x86)\atmel\studio\7.0\toolchain\avr8\avr8-gnu-toolchain\avr\include\stdio.h **** 	int	(*put)(char, struct __file *);	/* function to write one char to device */
 266:c:\program files (x86)\atmel\studio\7.0\toolchain\avr8\avr8-gnu-toolchain\avr\include\stdio.h **** 	int	(*get)(struct __file *);	/* function to read one char from device */
 267:c:\program files (x86)\atmel\studio\7.0\toolchain\avr8\avr8-gnu-toolchain\avr\include\stdio.h **** 	void	*udata;		/* User defined and accessible data. */
 268:c:\program files (x86)\atmel\studio\7.0\toolchain\avr8\avr8-gnu-toolchain\avr\include\stdio.h **** };
 269:c:\program files (x86)\atmel\studio\7.0\toolchain\avr8\avr8-gnu-toolchain\avr\include\stdio.h **** 
 270:c:\program files (x86)\atmel\studio\7.0\toolchain\avr8\avr8-gnu-toolchain\avr\include\stdio.h **** #endif /* not __DOXYGEN__ */
 271:c:\program files (x86)\atmel\studio\7.0\toolchain\avr8\avr8-gnu-toolchain\avr\include\stdio.h **** 
 272:c:\program files (x86)\atmel\studio\7.0\toolchain\avr8\avr8-gnu-toolchain\avr\include\stdio.h **** /*@{*/
 273:c:\program files (x86)\atmel\studio\7.0\toolchain\avr8\avr8-gnu-toolchain\avr\include\stdio.h **** /**
 274:c:\program files (x86)\atmel\studio\7.0\toolchain\avr8\avr8-gnu-toolchain\avr\include\stdio.h ****    \c FILE is the opaque structure that is passed around between the
 275:c:\program files (x86)\atmel\studio\7.0\toolchain\avr8\avr8-gnu-toolchain\avr\include\stdio.h ****    various standard IO functions.
 276:c:\program files (x86)\atmel\studio\7.0\toolchain\avr8\avr8-gnu-toolchain\avr\include\stdio.h **** */
 277:c:\program files (x86)\atmel\studio\7.0\toolchain\avr8\avr8-gnu-toolchain\avr\include\stdio.h **** typedef struct __file FILE;
 278:c:\program files (x86)\atmel\studio\7.0\toolchain\avr8\avr8-gnu-toolchain\avr\include\stdio.h **** 
 279:c:\program files (x86)\atmel\studio\7.0\toolchain\avr8\avr8-gnu-toolchain\avr\include\stdio.h **** /**
 280:c:\program files (x86)\atmel\studio\7.0\toolchain\avr8\avr8-gnu-toolchain\avr\include\stdio.h ****    Stream that will be used as an input stream by the simplified
 281:c:\program files (x86)\atmel\studio\7.0\toolchain\avr8\avr8-gnu-toolchain\avr\include\stdio.h ****    functions that don't take a \c stream argument.
 282:c:\program files (x86)\atmel\studio\7.0\toolchain\avr8\avr8-gnu-toolchain\avr\include\stdio.h **** 
 283:c:\program files (x86)\atmel\studio\7.0\toolchain\avr8\avr8-gnu-toolchain\avr\include\stdio.h ****    The first stream opened with read intent using \c fdevopen()
 284:c:\program files (x86)\atmel\studio\7.0\toolchain\avr8\avr8-gnu-toolchain\avr\include\stdio.h ****    will be assigned to \c stdin.
 285:c:\program files (x86)\atmel\studio\7.0\toolchain\avr8\avr8-gnu-toolchain\avr\include\stdio.h **** */
 286:c:\program files (x86)\atmel\studio\7.0\toolchain\avr8\avr8-gnu-toolchain\avr\include\stdio.h **** #define stdin (__iob[0])
 287:c:\program files (x86)\atmel\studio\7.0\toolchain\avr8\avr8-gnu-toolchain\avr\include\stdio.h **** 
 288:c:\program files (x86)\atmel\studio\7.0\toolchain\avr8\avr8-gnu-toolchain\avr\include\stdio.h **** /**
 289:c:\program files (x86)\atmel\studio\7.0\toolchain\avr8\avr8-gnu-toolchain\avr\include\stdio.h ****    Stream that will be used as an output stream by the simplified
 290:c:\program files (x86)\atmel\studio\7.0\toolchain\avr8\avr8-gnu-toolchain\avr\include\stdio.h ****    functions that don't take a \c stream argument.
 291:c:\program files (x86)\atmel\studio\7.0\toolchain\avr8\avr8-gnu-toolchain\avr\include\stdio.h **** 
 292:c:\program files (x86)\atmel\studio\7.0\toolchain\avr8\avr8-gnu-toolchain\avr\include\stdio.h ****    The first stream opened with write intent using \c fdevopen()
 293:c:\program files (x86)\atmel\studio\7.0\toolchain\avr8\avr8-gnu-toolchain\avr\include\stdio.h ****    will be assigned to both, \c stdin, and \c stderr.
 294:c:\program files (x86)\atmel\studio\7.0\toolchain\avr8\avr8-gnu-toolchain\avr\include\stdio.h **** */
 295:c:\program files (x86)\atmel\studio\7.0\toolchain\avr8\avr8-gnu-toolchain\avr\include\stdio.h **** #define stdout (__iob[1])
 296:c:\program files (x86)\atmel\studio\7.0\toolchain\avr8\avr8-gnu-toolchain\avr\include\stdio.h **** 
 297:c:\program files (x86)\atmel\studio\7.0\toolchain\avr8\avr8-gnu-toolchain\avr\include\stdio.h **** /**
 298:c:\program files (x86)\atmel\studio\7.0\toolchain\avr8\avr8-gnu-toolchain\avr\include\stdio.h ****    Stream destined for error output.  Unless specifically assigned,
 299:c:\program files (x86)\atmel\studio\7.0\toolchain\avr8\avr8-gnu-toolchain\avr\include\stdio.h ****    identical to \c stdout.
 300:c:\program files (x86)\atmel\studio\7.0\toolchain\avr8\avr8-gnu-toolchain\avr\include\stdio.h **** 
 301:c:\program files (x86)\atmel\studio\7.0\toolchain\avr8\avr8-gnu-toolchain\avr\include\stdio.h ****    If \c stderr should point to another stream, the result of
 302:c:\program files (x86)\atmel\studio\7.0\toolchain\avr8\avr8-gnu-toolchain\avr\include\stdio.h ****    another \c fdevopen() must be explicitly assigned to it without
 303:c:\program files (x86)\atmel\studio\7.0\toolchain\avr8\avr8-gnu-toolchain\avr\include\stdio.h ****    closing the previous \c stderr (since this would also close
 304:c:\program files (x86)\atmel\studio\7.0\toolchain\avr8\avr8-gnu-toolchain\avr\include\stdio.h ****    \c stdout).
 305:c:\program files (x86)\atmel\studio\7.0\toolchain\avr8\avr8-gnu-toolchain\avr\include\stdio.h **** */
 306:c:\program files (x86)\atmel\studio\7.0\toolchain\avr8\avr8-gnu-toolchain\avr\include\stdio.h **** #define stderr (__iob[2])
 307:c:\program files (x86)\atmel\studio\7.0\toolchain\avr8\avr8-gnu-toolchain\avr\include\stdio.h **** 
 308:c:\program files (x86)\atmel\studio\7.0\toolchain\avr8\avr8-gnu-toolchain\avr\include\stdio.h **** /**
 309:c:\program files (x86)\atmel\studio\7.0\toolchain\avr8\avr8-gnu-toolchain\avr\include\stdio.h ****    \c EOF declares the value that is returned by various standard IO
 310:c:\program files (x86)\atmel\studio\7.0\toolchain\avr8\avr8-gnu-toolchain\avr\include\stdio.h ****    functions in case of an error.  Since the AVR platform (currently)
 311:c:\program files (x86)\atmel\studio\7.0\toolchain\avr8\avr8-gnu-toolchain\avr\include\stdio.h ****    doesn't contain an abstraction for actual files, its origin as
 312:c:\program files (x86)\atmel\studio\7.0\toolchain\avr8\avr8-gnu-toolchain\avr\include\stdio.h ****    "end of file" is somewhat meaningless here.
 313:c:\program files (x86)\atmel\studio\7.0\toolchain\avr8\avr8-gnu-toolchain\avr\include\stdio.h **** */
 314:c:\program files (x86)\atmel\studio\7.0\toolchain\avr8\avr8-gnu-toolchain\avr\include\stdio.h **** #define EOF	(-1)
 315:c:\program files (x86)\atmel\studio\7.0\toolchain\avr8\avr8-gnu-toolchain\avr\include\stdio.h **** 
 316:c:\program files (x86)\atmel\studio\7.0\toolchain\avr8\avr8-gnu-toolchain\avr\include\stdio.h **** /** This macro inserts a pointer to user defined data into a FILE
 317:c:\program files (x86)\atmel\studio\7.0\toolchain\avr8\avr8-gnu-toolchain\avr\include\stdio.h ****     stream object.
 318:c:\program files (x86)\atmel\studio\7.0\toolchain\avr8\avr8-gnu-toolchain\avr\include\stdio.h **** 
 319:c:\program files (x86)\atmel\studio\7.0\toolchain\avr8\avr8-gnu-toolchain\avr\include\stdio.h ****     The user data can be useful for tracking state in the put and get
 320:c:\program files (x86)\atmel\studio\7.0\toolchain\avr8\avr8-gnu-toolchain\avr\include\stdio.h ****     functions supplied to the fdevopen() function. */
 321:c:\program files (x86)\atmel\studio\7.0\toolchain\avr8\avr8-gnu-toolchain\avr\include\stdio.h **** #define fdev_set_udata(stream, u) do { (stream)->udata = u; } while(0)
 322:c:\program files (x86)\atmel\studio\7.0\toolchain\avr8\avr8-gnu-toolchain\avr\include\stdio.h **** 
 323:c:\program files (x86)\atmel\studio\7.0\toolchain\avr8\avr8-gnu-toolchain\avr\include\stdio.h **** /** This macro retrieves a pointer to user defined data from a FILE
 324:c:\program files (x86)\atmel\studio\7.0\toolchain\avr8\avr8-gnu-toolchain\avr\include\stdio.h ****     stream object. */
 325:c:\program files (x86)\atmel\studio\7.0\toolchain\avr8\avr8-gnu-toolchain\avr\include\stdio.h **** #define fdev_get_udata(stream) ((stream)->udata)
 326:c:\program files (x86)\atmel\studio\7.0\toolchain\avr8\avr8-gnu-toolchain\avr\include\stdio.h **** 
 327:c:\program files (x86)\atmel\studio\7.0\toolchain\avr8\avr8-gnu-toolchain\avr\include\stdio.h **** #if defined(__DOXYGEN__)
 328:c:\program files (x86)\atmel\studio\7.0\toolchain\avr8\avr8-gnu-toolchain\avr\include\stdio.h **** /**
 329:c:\program files (x86)\atmel\studio\7.0\toolchain\avr8\avr8-gnu-toolchain\avr\include\stdio.h ****    \brief Setup a user-supplied buffer as an stdio stream
 330:c:\program files (x86)\atmel\studio\7.0\toolchain\avr8\avr8-gnu-toolchain\avr\include\stdio.h **** 
 331:c:\program files (x86)\atmel\studio\7.0\toolchain\avr8\avr8-gnu-toolchain\avr\include\stdio.h ****    This macro takes a user-supplied buffer \c stream, and sets it up
 332:c:\program files (x86)\atmel\studio\7.0\toolchain\avr8\avr8-gnu-toolchain\avr\include\stdio.h ****    as a stream that is valid for stdio operations, similar to one that
 333:c:\program files (x86)\atmel\studio\7.0\toolchain\avr8\avr8-gnu-toolchain\avr\include\stdio.h ****    has been obtained dynamically from fdevopen(). The buffer to setup
 334:c:\program files (x86)\atmel\studio\7.0\toolchain\avr8\avr8-gnu-toolchain\avr\include\stdio.h ****    must be of type FILE.
 335:c:\program files (x86)\atmel\studio\7.0\toolchain\avr8\avr8-gnu-toolchain\avr\include\stdio.h **** 
 336:c:\program files (x86)\atmel\studio\7.0\toolchain\avr8\avr8-gnu-toolchain\avr\include\stdio.h ****    The arguments \c put and \c get are identical to those that need to
 337:c:\program files (x86)\atmel\studio\7.0\toolchain\avr8\avr8-gnu-toolchain\avr\include\stdio.h ****    be passed to fdevopen().
 338:c:\program files (x86)\atmel\studio\7.0\toolchain\avr8\avr8-gnu-toolchain\avr\include\stdio.h **** 
 339:c:\program files (x86)\atmel\studio\7.0\toolchain\avr8\avr8-gnu-toolchain\avr\include\stdio.h ****    The \c rwflag argument can take one of the values _FDEV_SETUP_READ,
 340:c:\program files (x86)\atmel\studio\7.0\toolchain\avr8\avr8-gnu-toolchain\avr\include\stdio.h ****    _FDEV_SETUP_WRITE, or _FDEV_SETUP_RW, for read, write, or read/write
 341:c:\program files (x86)\atmel\studio\7.0\toolchain\avr8\avr8-gnu-toolchain\avr\include\stdio.h ****    intent, respectively.
 342:c:\program files (x86)\atmel\studio\7.0\toolchain\avr8\avr8-gnu-toolchain\avr\include\stdio.h **** 
 343:c:\program files (x86)\atmel\studio\7.0\toolchain\avr8\avr8-gnu-toolchain\avr\include\stdio.h ****    \note No assignments to the standard streams will be performed by
 344:c:\program files (x86)\atmel\studio\7.0\toolchain\avr8\avr8-gnu-toolchain\avr\include\stdio.h ****    fdev_setup_stream().  If standard streams are to be used, these
 345:c:\program files (x86)\atmel\studio\7.0\toolchain\avr8\avr8-gnu-toolchain\avr\include\stdio.h ****    need to be assigned by the user.  See also under
 346:c:\program files (x86)\atmel\studio\7.0\toolchain\avr8\avr8-gnu-toolchain\avr\include\stdio.h ****    \ref stdio_without_malloc "Running stdio without malloc()".
 347:c:\program files (x86)\atmel\studio\7.0\toolchain\avr8\avr8-gnu-toolchain\avr\include\stdio.h ****  */
 348:c:\program files (x86)\atmel\studio\7.0\toolchain\avr8\avr8-gnu-toolchain\avr\include\stdio.h **** #define fdev_setup_stream(stream, put, get, rwflag)
 349:c:\program files (x86)\atmel\studio\7.0\toolchain\avr8\avr8-gnu-toolchain\avr\include\stdio.h **** #else  /* !DOXYGEN */
 350:c:\program files (x86)\atmel\studio\7.0\toolchain\avr8\avr8-gnu-toolchain\avr\include\stdio.h **** #define fdev_setup_stream(stream, p, g, f) \
 351:c:\program files (x86)\atmel\studio\7.0\toolchain\avr8\avr8-gnu-toolchain\avr\include\stdio.h **** 	do { \
 352:c:\program files (x86)\atmel\studio\7.0\toolchain\avr8\avr8-gnu-toolchain\avr\include\stdio.h **** 		(stream)->put = p; \
 353:c:\program files (x86)\atmel\studio\7.0\toolchain\avr8\avr8-gnu-toolchain\avr\include\stdio.h **** 		(stream)->get = g; \
 354:c:\program files (x86)\atmel\studio\7.0\toolchain\avr8\avr8-gnu-toolchain\avr\include\stdio.h **** 		(stream)->flags = f; \
 355:c:\program files (x86)\atmel\studio\7.0\toolchain\avr8\avr8-gnu-toolchain\avr\include\stdio.h **** 		(stream)->udata = 0; \
 356:c:\program files (x86)\atmel\studio\7.0\toolchain\avr8\avr8-gnu-toolchain\avr\include\stdio.h **** 	} while(0)
 357:c:\program files (x86)\atmel\studio\7.0\toolchain\avr8\avr8-gnu-toolchain\avr\include\stdio.h **** #endif /* DOXYGEN */
 358:c:\program files (x86)\atmel\studio\7.0\toolchain\avr8\avr8-gnu-toolchain\avr\include\stdio.h **** 
 359:c:\program files (x86)\atmel\studio\7.0\toolchain\avr8\avr8-gnu-toolchain\avr\include\stdio.h **** #define _FDEV_SETUP_READ  __SRD	/**< fdev_setup_stream() with read intent */
 360:c:\program files (x86)\atmel\studio\7.0\toolchain\avr8\avr8-gnu-toolchain\avr\include\stdio.h **** #define _FDEV_SETUP_WRITE __SWR	/**< fdev_setup_stream() with write intent */
 361:c:\program files (x86)\atmel\studio\7.0\toolchain\avr8\avr8-gnu-toolchain\avr\include\stdio.h **** #define _FDEV_SETUP_RW    (__SRD|__SWR)	/**< fdev_setup_stream() with read/write intent */
 362:c:\program files (x86)\atmel\studio\7.0\toolchain\avr8\avr8-gnu-toolchain\avr\include\stdio.h **** 
 363:c:\program files (x86)\atmel\studio\7.0\toolchain\avr8\avr8-gnu-toolchain\avr\include\stdio.h **** /**
 364:c:\program files (x86)\atmel\studio\7.0\toolchain\avr8\avr8-gnu-toolchain\avr\include\stdio.h ****  * Return code for an error condition during device read.
 365:c:\program files (x86)\atmel\studio\7.0\toolchain\avr8\avr8-gnu-toolchain\avr\include\stdio.h ****  *
 366:c:\program files (x86)\atmel\studio\7.0\toolchain\avr8\avr8-gnu-toolchain\avr\include\stdio.h ****  * To be used in the get function of fdevopen().
 367:c:\program files (x86)\atmel\studio\7.0\toolchain\avr8\avr8-gnu-toolchain\avr\include\stdio.h ****  */
 368:c:\program files (x86)\atmel\studio\7.0\toolchain\avr8\avr8-gnu-toolchain\avr\include\stdio.h **** #define _FDEV_ERR (-1)
 369:c:\program files (x86)\atmel\studio\7.0\toolchain\avr8\avr8-gnu-toolchain\avr\include\stdio.h **** 
 370:c:\program files (x86)\atmel\studio\7.0\toolchain\avr8\avr8-gnu-toolchain\avr\include\stdio.h **** /**
 371:c:\program files (x86)\atmel\studio\7.0\toolchain\avr8\avr8-gnu-toolchain\avr\include\stdio.h ****  * Return code for an end-of-file condition during device read.
 372:c:\program files (x86)\atmel\studio\7.0\toolchain\avr8\avr8-gnu-toolchain\avr\include\stdio.h ****  *
 373:c:\program files (x86)\atmel\studio\7.0\toolchain\avr8\avr8-gnu-toolchain\avr\include\stdio.h ****  * To be used in the get function of fdevopen().
 374:c:\program files (x86)\atmel\studio\7.0\toolchain\avr8\avr8-gnu-toolchain\avr\include\stdio.h ****  */
 375:c:\program files (x86)\atmel\studio\7.0\toolchain\avr8\avr8-gnu-toolchain\avr\include\stdio.h **** #define _FDEV_EOF (-2)
 376:c:\program files (x86)\atmel\studio\7.0\toolchain\avr8\avr8-gnu-toolchain\avr\include\stdio.h **** 
 377:c:\program files (x86)\atmel\studio\7.0\toolchain\avr8\avr8-gnu-toolchain\avr\include\stdio.h **** #if defined(__DOXYGEN__)
 378:c:\program files (x86)\atmel\studio\7.0\toolchain\avr8\avr8-gnu-toolchain\avr\include\stdio.h **** /**
 379:c:\program files (x86)\atmel\studio\7.0\toolchain\avr8\avr8-gnu-toolchain\avr\include\stdio.h ****    \brief Initializer for a user-supplied stdio stream
 380:c:\program files (x86)\atmel\studio\7.0\toolchain\avr8\avr8-gnu-toolchain\avr\include\stdio.h **** 
 381:c:\program files (x86)\atmel\studio\7.0\toolchain\avr8\avr8-gnu-toolchain\avr\include\stdio.h ****    This macro acts similar to fdev_setup_stream(), but it is to be
 382:c:\program files (x86)\atmel\studio\7.0\toolchain\avr8\avr8-gnu-toolchain\avr\include\stdio.h ****    used as the initializer of a variable of type FILE.
 383:c:\program files (x86)\atmel\studio\7.0\toolchain\avr8\avr8-gnu-toolchain\avr\include\stdio.h **** 
 384:c:\program files (x86)\atmel\studio\7.0\toolchain\avr8\avr8-gnu-toolchain\avr\include\stdio.h ****    The remaining arguments are to be used as explained in
 385:c:\program files (x86)\atmel\studio\7.0\toolchain\avr8\avr8-gnu-toolchain\avr\include\stdio.h ****    fdev_setup_stream().
 386:c:\program files (x86)\atmel\studio\7.0\toolchain\avr8\avr8-gnu-toolchain\avr\include\stdio.h ****  */
 387:c:\program files (x86)\atmel\studio\7.0\toolchain\avr8\avr8-gnu-toolchain\avr\include\stdio.h **** #define FDEV_SETUP_STREAM(put, get, rwflag)
 388:c:\program files (x86)\atmel\studio\7.0\toolchain\avr8\avr8-gnu-toolchain\avr\include\stdio.h **** #else  /* !DOXYGEN */
 389:c:\program files (x86)\atmel\studio\7.0\toolchain\avr8\avr8-gnu-toolchain\avr\include\stdio.h **** #define FDEV_SETUP_STREAM(p, g, f) \
 390:c:\program files (x86)\atmel\studio\7.0\toolchain\avr8\avr8-gnu-toolchain\avr\include\stdio.h **** 	{ \
 391:c:\program files (x86)\atmel\studio\7.0\toolchain\avr8\avr8-gnu-toolchain\avr\include\stdio.h **** 		.put = p, \
 392:c:\program files (x86)\atmel\studio\7.0\toolchain\avr8\avr8-gnu-toolchain\avr\include\stdio.h **** 		.get = g, \
 393:c:\program files (x86)\atmel\studio\7.0\toolchain\avr8\avr8-gnu-toolchain\avr\include\stdio.h **** 		.flags = f, \
 394:c:\program files (x86)\atmel\studio\7.0\toolchain\avr8\avr8-gnu-toolchain\avr\include\stdio.h **** 		.udata = 0, \
 395:c:\program files (x86)\atmel\studio\7.0\toolchain\avr8\avr8-gnu-toolchain\avr\include\stdio.h **** 	}
 396:c:\program files (x86)\atmel\studio\7.0\toolchain\avr8\avr8-gnu-toolchain\avr\include\stdio.h **** #endif /* DOXYGEN */
 397:c:\program files (x86)\atmel\studio\7.0\toolchain\avr8\avr8-gnu-toolchain\avr\include\stdio.h **** 
 398:c:\program files (x86)\atmel\studio\7.0\toolchain\avr8\avr8-gnu-toolchain\avr\include\stdio.h **** #ifdef __cplusplus
 399:c:\program files (x86)\atmel\studio\7.0\toolchain\avr8\avr8-gnu-toolchain\avr\include\stdio.h **** extern "C" {
 400:c:\program files (x86)\atmel\studio\7.0\toolchain\avr8\avr8-gnu-toolchain\avr\include\stdio.h **** #endif
 401:c:\program files (x86)\atmel\studio\7.0\toolchain\avr8\avr8-gnu-toolchain\avr\include\stdio.h **** 
 402:c:\program files (x86)\atmel\studio\7.0\toolchain\avr8\avr8-gnu-toolchain\avr\include\stdio.h **** #if !defined(__DOXYGEN__)
 403:c:\program files (x86)\atmel\studio\7.0\toolchain\avr8\avr8-gnu-toolchain\avr\include\stdio.h **** /*
 404:c:\program files (x86)\atmel\studio\7.0\toolchain\avr8\avr8-gnu-toolchain\avr\include\stdio.h ****  * Doxygen documentation can be found in fdevopen.c.
 405:c:\program files (x86)\atmel\studio\7.0\toolchain\avr8\avr8-gnu-toolchain\avr\include\stdio.h ****  */
 406:c:\program files (x86)\atmel\studio\7.0\toolchain\avr8\avr8-gnu-toolchain\avr\include\stdio.h **** 
 407:c:\program files (x86)\atmel\studio\7.0\toolchain\avr8\avr8-gnu-toolchain\avr\include\stdio.h **** extern struct __file *__iob[];
 408:c:\program files (x86)\atmel\studio\7.0\toolchain\avr8\avr8-gnu-toolchain\avr\include\stdio.h **** 
 409:c:\program files (x86)\atmel\studio\7.0\toolchain\avr8\avr8-gnu-toolchain\avr\include\stdio.h **** #if defined(__STDIO_FDEVOPEN_COMPAT_12)
 410:c:\program files (x86)\atmel\studio\7.0\toolchain\avr8\avr8-gnu-toolchain\avr\include\stdio.h **** /*
 411:c:\program files (x86)\atmel\studio\7.0\toolchain\avr8\avr8-gnu-toolchain\avr\include\stdio.h ****  * Declare prototype for the discontinued version of fdevopen() that
 412:c:\program files (x86)\atmel\studio\7.0\toolchain\avr8\avr8-gnu-toolchain\avr\include\stdio.h ****  * has been in use up to avr-libc 1.2.x.  The new implementation has
 413:c:\program files (x86)\atmel\studio\7.0\toolchain\avr8\avr8-gnu-toolchain\avr\include\stdio.h ****  * some backwards compatibility with the old version.
 414:c:\program files (x86)\atmel\studio\7.0\toolchain\avr8\avr8-gnu-toolchain\avr\include\stdio.h ****  */
 415:c:\program files (x86)\atmel\studio\7.0\toolchain\avr8\avr8-gnu-toolchain\avr\include\stdio.h **** extern FILE *fdevopen(int (*__put)(char), int (*__get)(void),
 416:c:\program files (x86)\atmel\studio\7.0\toolchain\avr8\avr8-gnu-toolchain\avr\include\stdio.h ****                       int __opts __attribute__((unused)));
 417:c:\program files (x86)\atmel\studio\7.0\toolchain\avr8\avr8-gnu-toolchain\avr\include\stdio.h **** #else  /* !defined(__STDIO_FDEVOPEN_COMPAT_12) */
 418:c:\program files (x86)\atmel\studio\7.0\toolchain\avr8\avr8-gnu-toolchain\avr\include\stdio.h **** /* New prototype for avr-libc 1.4 and above. */
 419:c:\program files (x86)\atmel\studio\7.0\toolchain\avr8\avr8-gnu-toolchain\avr\include\stdio.h **** extern FILE *fdevopen(int (*__put)(char, FILE*), int (*__get)(FILE*));
 420:c:\program files (x86)\atmel\studio\7.0\toolchain\avr8\avr8-gnu-toolchain\avr\include\stdio.h **** #endif /* defined(__STDIO_FDEVOPEN_COMPAT_12) */
 421:c:\program files (x86)\atmel\studio\7.0\toolchain\avr8\avr8-gnu-toolchain\avr\include\stdio.h **** 
 422:c:\program files (x86)\atmel\studio\7.0\toolchain\avr8\avr8-gnu-toolchain\avr\include\stdio.h **** #endif /* not __DOXYGEN__ */
 423:c:\program files (x86)\atmel\studio\7.0\toolchain\avr8\avr8-gnu-toolchain\avr\include\stdio.h **** 
 424:c:\program files (x86)\atmel\studio\7.0\toolchain\avr8\avr8-gnu-toolchain\avr\include\stdio.h **** /**
 425:c:\program files (x86)\atmel\studio\7.0\toolchain\avr8\avr8-gnu-toolchain\avr\include\stdio.h ****    This function closes \c stream, and disallows and further
 426:c:\program files (x86)\atmel\studio\7.0\toolchain\avr8\avr8-gnu-toolchain\avr\include\stdio.h ****    IO to and from it.
 427:c:\program files (x86)\atmel\studio\7.0\toolchain\avr8\avr8-gnu-toolchain\avr\include\stdio.h **** 
 428:c:\program files (x86)\atmel\studio\7.0\toolchain\avr8\avr8-gnu-toolchain\avr\include\stdio.h ****    When using fdevopen() to setup the stream, a call to fclose() is
 429:c:\program files (x86)\atmel\studio\7.0\toolchain\avr8\avr8-gnu-toolchain\avr\include\stdio.h ****    needed in order to free the internal resources allocated.
 430:c:\program files (x86)\atmel\studio\7.0\toolchain\avr8\avr8-gnu-toolchain\avr\include\stdio.h **** 
 431:c:\program files (x86)\atmel\studio\7.0\toolchain\avr8\avr8-gnu-toolchain\avr\include\stdio.h ****    If the stream has been set up using fdev_setup_stream() or
 432:c:\program files (x86)\atmel\studio\7.0\toolchain\avr8\avr8-gnu-toolchain\avr\include\stdio.h ****    FDEV_SETUP_STREAM(), use fdev_close() instead.
 433:c:\program files (x86)\atmel\studio\7.0\toolchain\avr8\avr8-gnu-toolchain\avr\include\stdio.h **** 
 434:c:\program files (x86)\atmel\studio\7.0\toolchain\avr8\avr8-gnu-toolchain\avr\include\stdio.h ****    It currently always returns 0 (for success).
 435:c:\program files (x86)\atmel\studio\7.0\toolchain\avr8\avr8-gnu-toolchain\avr\include\stdio.h **** */
 436:c:\program files (x86)\atmel\studio\7.0\toolchain\avr8\avr8-gnu-toolchain\avr\include\stdio.h **** extern int	fclose(FILE *__stream);
 437:c:\program files (x86)\atmel\studio\7.0\toolchain\avr8\avr8-gnu-toolchain\avr\include\stdio.h **** 
 438:c:\program files (x86)\atmel\studio\7.0\toolchain\avr8\avr8-gnu-toolchain\avr\include\stdio.h **** /**
 439:c:\program files (x86)\atmel\studio\7.0\toolchain\avr8\avr8-gnu-toolchain\avr\include\stdio.h ****    This macro frees up any library resources that might be associated
 440:c:\program files (x86)\atmel\studio\7.0\toolchain\avr8\avr8-gnu-toolchain\avr\include\stdio.h ****    with \c stream.  It should be called if \c stream is no longer
 441:c:\program files (x86)\atmel\studio\7.0\toolchain\avr8\avr8-gnu-toolchain\avr\include\stdio.h ****    needed, right before the application is going to destroy the
 442:c:\program files (x86)\atmel\studio\7.0\toolchain\avr8\avr8-gnu-toolchain\avr\include\stdio.h ****    \c stream object itself.
 443:c:\program files (x86)\atmel\studio\7.0\toolchain\avr8\avr8-gnu-toolchain\avr\include\stdio.h **** 
 444:c:\program files (x86)\atmel\studio\7.0\toolchain\avr8\avr8-gnu-toolchain\avr\include\stdio.h ****    (Currently, this macro evaluates to nothing, but this might change
 445:c:\program files (x86)\atmel\studio\7.0\toolchain\avr8\avr8-gnu-toolchain\avr\include\stdio.h ****    in future versions of the library.)
 446:c:\program files (x86)\atmel\studio\7.0\toolchain\avr8\avr8-gnu-toolchain\avr\include\stdio.h **** */
 447:c:\program files (x86)\atmel\studio\7.0\toolchain\avr8\avr8-gnu-toolchain\avr\include\stdio.h **** #if defined(__DOXYGEN__)
 448:c:\program files (x86)\atmel\studio\7.0\toolchain\avr8\avr8-gnu-toolchain\avr\include\stdio.h **** # define fdev_close()
 449:c:\program files (x86)\atmel\studio\7.0\toolchain\avr8\avr8-gnu-toolchain\avr\include\stdio.h **** #else
 450:c:\program files (x86)\atmel\studio\7.0\toolchain\avr8\avr8-gnu-toolchain\avr\include\stdio.h **** # define fdev_close() ((void)0)
 451:c:\program files (x86)\atmel\studio\7.0\toolchain\avr8\avr8-gnu-toolchain\avr\include\stdio.h **** #endif
 452:c:\program files (x86)\atmel\studio\7.0\toolchain\avr8\avr8-gnu-toolchain\avr\include\stdio.h **** 
 453:c:\program files (x86)\atmel\studio\7.0\toolchain\avr8\avr8-gnu-toolchain\avr\include\stdio.h **** /**
 454:c:\program files (x86)\atmel\studio\7.0\toolchain\avr8\avr8-gnu-toolchain\avr\include\stdio.h ****    \c vfprintf is the central facility of the \c printf family of
 455:c:\program files (x86)\atmel\studio\7.0\toolchain\avr8\avr8-gnu-toolchain\avr\include\stdio.h ****    functions.  It outputs values to \c stream under control of a
 456:c:\program files (x86)\atmel\studio\7.0\toolchain\avr8\avr8-gnu-toolchain\avr\include\stdio.h ****    format string passed in \c fmt.  The actual values to print are
 457:c:\program files (x86)\atmel\studio\7.0\toolchain\avr8\avr8-gnu-toolchain\avr\include\stdio.h ****    passed as a variable argument list \c ap.
 458:c:\program files (x86)\atmel\studio\7.0\toolchain\avr8\avr8-gnu-toolchain\avr\include\stdio.h **** 
 459:c:\program files (x86)\atmel\studio\7.0\toolchain\avr8\avr8-gnu-toolchain\avr\include\stdio.h ****    \c vfprintf returns the number of characters written to \c stream,
 460:c:\program files (x86)\atmel\studio\7.0\toolchain\avr8\avr8-gnu-toolchain\avr\include\stdio.h ****    or \c EOF in case of an error.  Currently, this will only happen
 461:c:\program files (x86)\atmel\studio\7.0\toolchain\avr8\avr8-gnu-toolchain\avr\include\stdio.h ****    if \c stream has not been opened with write intent.
 462:c:\program files (x86)\atmel\studio\7.0\toolchain\avr8\avr8-gnu-toolchain\avr\include\stdio.h **** 
 463:c:\program files (x86)\atmel\studio\7.0\toolchain\avr8\avr8-gnu-toolchain\avr\include\stdio.h ****    The format string is composed of zero or more directives: ordinary
 464:c:\program files (x86)\atmel\studio\7.0\toolchain\avr8\avr8-gnu-toolchain\avr\include\stdio.h ****    characters (not \c %), which are copied unchanged to the output
 465:c:\program files (x86)\atmel\studio\7.0\toolchain\avr8\avr8-gnu-toolchain\avr\include\stdio.h ****    stream; and conversion specifications, each of which results in
 466:c:\program files (x86)\atmel\studio\7.0\toolchain\avr8\avr8-gnu-toolchain\avr\include\stdio.h ****    fetching zero or more subsequent arguments.  Each conversion
 467:c:\program files (x86)\atmel\studio\7.0\toolchain\avr8\avr8-gnu-toolchain\avr\include\stdio.h ****    specification is introduced by the \c % character.  The arguments must
 468:c:\program files (x86)\atmel\studio\7.0\toolchain\avr8\avr8-gnu-toolchain\avr\include\stdio.h ****    properly correspond (after type promotion) with the conversion
 469:c:\program files (x86)\atmel\studio\7.0\toolchain\avr8\avr8-gnu-toolchain\avr\include\stdio.h ****    specifier.  After the \c %, the following appear in sequence:
 470:c:\program files (x86)\atmel\studio\7.0\toolchain\avr8\avr8-gnu-toolchain\avr\include\stdio.h **** 
 471:c:\program files (x86)\atmel\studio\7.0\toolchain\avr8\avr8-gnu-toolchain\avr\include\stdio.h ****    - Zero or more of the following flags:
 472:c:\program files (x86)\atmel\studio\7.0\toolchain\avr8\avr8-gnu-toolchain\avr\include\stdio.h ****       <ul>
 473:c:\program files (x86)\atmel\studio\7.0\toolchain\avr8\avr8-gnu-toolchain\avr\include\stdio.h ****       <li> \c # The value should be converted to an "alternate form".  For
 474:c:\program files (x86)\atmel\studio\7.0\toolchain\avr8\avr8-gnu-toolchain\avr\include\stdio.h ****             c, d, i, s, and u conversions, this option has no effect.
 475:c:\program files (x86)\atmel\studio\7.0\toolchain\avr8\avr8-gnu-toolchain\avr\include\stdio.h ****             For o conversions, the precision of the number is
 476:c:\program files (x86)\atmel\studio\7.0\toolchain\avr8\avr8-gnu-toolchain\avr\include\stdio.h ****             increased to force the first character of the output
 477:c:\program files (x86)\atmel\studio\7.0\toolchain\avr8\avr8-gnu-toolchain\avr\include\stdio.h ****             string to a zero (except if a zero value is printed with
 478:c:\program files (x86)\atmel\studio\7.0\toolchain\avr8\avr8-gnu-toolchain\avr\include\stdio.h ****             an explicit precision of zero).  For x and X conversions,
 479:c:\program files (x86)\atmel\studio\7.0\toolchain\avr8\avr8-gnu-toolchain\avr\include\stdio.h ****             a non-zero result has the string `0x' (or `0X' for X
 480:c:\program files (x86)\atmel\studio\7.0\toolchain\avr8\avr8-gnu-toolchain\avr\include\stdio.h ****             conversions) prepended to it.</li>
 481:c:\program files (x86)\atmel\studio\7.0\toolchain\avr8\avr8-gnu-toolchain\avr\include\stdio.h ****       <li> \c 0 (zero) Zero padding.  For all conversions, the converted
 482:c:\program files (x86)\atmel\studio\7.0\toolchain\avr8\avr8-gnu-toolchain\avr\include\stdio.h ****             value is padded on the left with zeros rather than blanks.
 483:c:\program files (x86)\atmel\studio\7.0\toolchain\avr8\avr8-gnu-toolchain\avr\include\stdio.h ****             If a precision is given with a numeric conversion (d, i,
 484:c:\program files (x86)\atmel\studio\7.0\toolchain\avr8\avr8-gnu-toolchain\avr\include\stdio.h ****             o, u, i, x, and X), the 0 flag is ignored.</li>
 485:c:\program files (x86)\atmel\studio\7.0\toolchain\avr8\avr8-gnu-toolchain\avr\include\stdio.h ****       <li> \c - A negative field width flag; the converted value is to be
 486:c:\program files (x86)\atmel\studio\7.0\toolchain\avr8\avr8-gnu-toolchain\avr\include\stdio.h ****             left adjusted on the field boundary.  The converted value
 487:c:\program files (x86)\atmel\studio\7.0\toolchain\avr8\avr8-gnu-toolchain\avr\include\stdio.h ****             is padded on the right with blanks, rather than on the
 488:c:\program files (x86)\atmel\studio\7.0\toolchain\avr8\avr8-gnu-toolchain\avr\include\stdio.h ****             left with blanks or zeros.  A - overrides a 0 if both are
 489:c:\program files (x86)\atmel\studio\7.0\toolchain\avr8\avr8-gnu-toolchain\avr\include\stdio.h ****             given.</li>
 490:c:\program files (x86)\atmel\studio\7.0\toolchain\avr8\avr8-gnu-toolchain\avr\include\stdio.h ****       <li> ' ' (space) A blank should be left before a positive number
 491:c:\program files (x86)\atmel\studio\7.0\toolchain\avr8\avr8-gnu-toolchain\avr\include\stdio.h ****             produced by a signed conversion (d, or i).</li>
 492:c:\program files (x86)\atmel\studio\7.0\toolchain\avr8\avr8-gnu-toolchain\avr\include\stdio.h ****       <li> \c + A sign must always be placed before a number produced by a
 493:c:\program files (x86)\atmel\studio\7.0\toolchain\avr8\avr8-gnu-toolchain\avr\include\stdio.h ****             signed conversion.  A + overrides a space if both are
 494:c:\program files (x86)\atmel\studio\7.0\toolchain\avr8\avr8-gnu-toolchain\avr\include\stdio.h ****             used.</li>
 495:c:\program files (x86)\atmel\studio\7.0\toolchain\avr8\avr8-gnu-toolchain\avr\include\stdio.h ****       </ul>
 496:c:\program files (x86)\atmel\studio\7.0\toolchain\avr8\avr8-gnu-toolchain\avr\include\stdio.h ****       
 497:c:\program files (x86)\atmel\studio\7.0\toolchain\avr8\avr8-gnu-toolchain\avr\include\stdio.h ****    -   An optional decimal digit string specifying a minimum field width.
 498:c:\program files (x86)\atmel\studio\7.0\toolchain\avr8\avr8-gnu-toolchain\avr\include\stdio.h ****        If the converted value has fewer characters than the field width, it
 499:c:\program files (x86)\atmel\studio\7.0\toolchain\avr8\avr8-gnu-toolchain\avr\include\stdio.h ****        will be padded with spaces on the left (or right, if the left-adjustment
 500:c:\program files (x86)\atmel\studio\7.0\toolchain\avr8\avr8-gnu-toolchain\avr\include\stdio.h ****        flag has been given) to fill out the field width.
 501:c:\program files (x86)\atmel\studio\7.0\toolchain\avr8\avr8-gnu-toolchain\avr\include\stdio.h ****    -   An optional precision, in the form of a period . followed by an
 502:c:\program files (x86)\atmel\studio\7.0\toolchain\avr8\avr8-gnu-toolchain\avr\include\stdio.h ****        optional digit string.  If the digit string is omitted, the
 503:c:\program files (x86)\atmel\studio\7.0\toolchain\avr8\avr8-gnu-toolchain\avr\include\stdio.h ****        precision is taken as zero.  This gives the minimum number of
 504:c:\program files (x86)\atmel\studio\7.0\toolchain\avr8\avr8-gnu-toolchain\avr\include\stdio.h ****        digits to appear for d, i, o, u, x, and X conversions, or the
 505:c:\program files (x86)\atmel\studio\7.0\toolchain\avr8\avr8-gnu-toolchain\avr\include\stdio.h ****        maximum number of characters to be printed from a string for \c s
 506:c:\program files (x86)\atmel\studio\7.0\toolchain\avr8\avr8-gnu-toolchain\avr\include\stdio.h ****        conversions.
 507:c:\program files (x86)\atmel\studio\7.0\toolchain\avr8\avr8-gnu-toolchain\avr\include\stdio.h ****    -   An optional \c l or \c h length modifier, that specifies that the
 508:c:\program files (x86)\atmel\studio\7.0\toolchain\avr8\avr8-gnu-toolchain\avr\include\stdio.h ****        argument for the d, i, o, u, x, or X conversion is a \c "long int"
 509:c:\program files (x86)\atmel\studio\7.0\toolchain\avr8\avr8-gnu-toolchain\avr\include\stdio.h ****        rather than \c int. The \c h is ignored, as \c "short int" is
 510:c:\program files (x86)\atmel\studio\7.0\toolchain\avr8\avr8-gnu-toolchain\avr\include\stdio.h ****        equivalent to \c int.
 511:c:\program files (x86)\atmel\studio\7.0\toolchain\avr8\avr8-gnu-toolchain\avr\include\stdio.h ****    -   A character that specifies the type of conversion to be applied.
 512:c:\program files (x86)\atmel\studio\7.0\toolchain\avr8\avr8-gnu-toolchain\avr\include\stdio.h **** 
 513:c:\program files (x86)\atmel\studio\7.0\toolchain\avr8\avr8-gnu-toolchain\avr\include\stdio.h ****    The conversion specifiers and their meanings are:
 514:c:\program files (x86)\atmel\studio\7.0\toolchain\avr8\avr8-gnu-toolchain\avr\include\stdio.h **** 
 515:c:\program files (x86)\atmel\studio\7.0\toolchain\avr8\avr8-gnu-toolchain\avr\include\stdio.h ****    - \c diouxX The int (or appropriate variant) argument is converted
 516:c:\program files (x86)\atmel\studio\7.0\toolchain\avr8\avr8-gnu-toolchain\avr\include\stdio.h ****            to signed decimal (d and i), unsigned octal (o), unsigned
 517:c:\program files (x86)\atmel\studio\7.0\toolchain\avr8\avr8-gnu-toolchain\avr\include\stdio.h ****            decimal (u), or unsigned hexadecimal (x and X) notation.
 518:c:\program files (x86)\atmel\studio\7.0\toolchain\avr8\avr8-gnu-toolchain\avr\include\stdio.h ****            The letters "abcdef" are used for x conversions; the
 519:c:\program files (x86)\atmel\studio\7.0\toolchain\avr8\avr8-gnu-toolchain\avr\include\stdio.h ****            letters "ABCDEF" are used for X conversions.  The
 520:c:\program files (x86)\atmel\studio\7.0\toolchain\avr8\avr8-gnu-toolchain\avr\include\stdio.h ****            precision, if any, gives the minimum number of digits that
 521:c:\program files (x86)\atmel\studio\7.0\toolchain\avr8\avr8-gnu-toolchain\avr\include\stdio.h ****            must appear; if the converted value requires fewer digits,
 522:c:\program files (x86)\atmel\studio\7.0\toolchain\avr8\avr8-gnu-toolchain\avr\include\stdio.h ****            it is padded on the left with zeros.
 523:c:\program files (x86)\atmel\studio\7.0\toolchain\avr8\avr8-gnu-toolchain\avr\include\stdio.h ****    - \c p  The <tt>void *</tt> argument is taken as an unsigned integer,
 524:c:\program files (x86)\atmel\studio\7.0\toolchain\avr8\avr8-gnu-toolchain\avr\include\stdio.h ****            and converted similarly as a <tt>%\#x</tt> command would do.
 525:c:\program files (x86)\atmel\studio\7.0\toolchain\avr8\avr8-gnu-toolchain\avr\include\stdio.h ****    - \c c  The \c int argument is converted to an \c "unsigned char", and the
 526:c:\program files (x86)\atmel\studio\7.0\toolchain\avr8\avr8-gnu-toolchain\avr\include\stdio.h ****            resulting character is written.
 527:c:\program files (x86)\atmel\studio\7.0\toolchain\avr8\avr8-gnu-toolchain\avr\include\stdio.h ****    - \c s  The \c "char *" argument is expected to be a pointer to an array
 528:c:\program files (x86)\atmel\studio\7.0\toolchain\avr8\avr8-gnu-toolchain\avr\include\stdio.h ****            of character type (pointer to a string).  Characters from
 529:c:\program files (x86)\atmel\studio\7.0\toolchain\avr8\avr8-gnu-toolchain\avr\include\stdio.h ****            the array are written up to (but not including) a
 530:c:\program files (x86)\atmel\studio\7.0\toolchain\avr8\avr8-gnu-toolchain\avr\include\stdio.h ****            terminating NUL character; if a precision is specified, no
 531:c:\program files (x86)\atmel\studio\7.0\toolchain\avr8\avr8-gnu-toolchain\avr\include\stdio.h ****            more than the number specified are written.  If a precision
 532:c:\program files (x86)\atmel\studio\7.0\toolchain\avr8\avr8-gnu-toolchain\avr\include\stdio.h ****            is given, no null character need be present; if the
 533:c:\program files (x86)\atmel\studio\7.0\toolchain\avr8\avr8-gnu-toolchain\avr\include\stdio.h ****            precision is not specified, or is greater than the size of
 534:c:\program files (x86)\atmel\studio\7.0\toolchain\avr8\avr8-gnu-toolchain\avr\include\stdio.h ****            the array, the array must contain a terminating NUL
 535:c:\program files (x86)\atmel\studio\7.0\toolchain\avr8\avr8-gnu-toolchain\avr\include\stdio.h ****            character.
 536:c:\program files (x86)\atmel\studio\7.0\toolchain\avr8\avr8-gnu-toolchain\avr\include\stdio.h ****    - \c %  A \c % is written.  No argument is converted.  The complete
 537:c:\program files (x86)\atmel\studio\7.0\toolchain\avr8\avr8-gnu-toolchain\avr\include\stdio.h ****            conversion specification is "%%".
 538:c:\program files (x86)\atmel\studio\7.0\toolchain\avr8\avr8-gnu-toolchain\avr\include\stdio.h ****    - \c eE The double argument is rounded and converted in the format
 539:c:\program files (x86)\atmel\studio\7.0\toolchain\avr8\avr8-gnu-toolchain\avr\include\stdio.h ****            \c "[-]d.dddedd" where there is one digit before the
 540:c:\program files (x86)\atmel\studio\7.0\toolchain\avr8\avr8-gnu-toolchain\avr\include\stdio.h ****            decimal-point character and the number of digits after it
 541:c:\program files (x86)\atmel\studio\7.0\toolchain\avr8\avr8-gnu-toolchain\avr\include\stdio.h ****            is equal to the precision; if the precision is missing, it
 542:c:\program files (x86)\atmel\studio\7.0\toolchain\avr8\avr8-gnu-toolchain\avr\include\stdio.h ****            is taken as 6; if the precision is zero, no decimal-point
 543:c:\program files (x86)\atmel\studio\7.0\toolchain\avr8\avr8-gnu-toolchain\avr\include\stdio.h ****            character appears.  An \e E conversion uses the letter \c 'E'
 544:c:\program files (x86)\atmel\studio\7.0\toolchain\avr8\avr8-gnu-toolchain\avr\include\stdio.h ****            (rather than \c 'e') to introduce the exponent.  The exponent
 545:c:\program files (x86)\atmel\studio\7.0\toolchain\avr8\avr8-gnu-toolchain\avr\include\stdio.h ****            always contains two digits; if the value is zero,
 546:c:\program files (x86)\atmel\studio\7.0\toolchain\avr8\avr8-gnu-toolchain\avr\include\stdio.h ****            the exponent is 00.
 547:c:\program files (x86)\atmel\studio\7.0\toolchain\avr8\avr8-gnu-toolchain\avr\include\stdio.h ****    - \c fF The double argument is rounded and converted to decimal notation
 548:c:\program files (x86)\atmel\studio\7.0\toolchain\avr8\avr8-gnu-toolchain\avr\include\stdio.h ****            in the format \c "[-]ddd.ddd", where the number of digits after the
 549:c:\program files (x86)\atmel\studio\7.0\toolchain\avr8\avr8-gnu-toolchain\avr\include\stdio.h ****            decimal-point character is equal to the precision specification.
 550:c:\program files (x86)\atmel\studio\7.0\toolchain\avr8\avr8-gnu-toolchain\avr\include\stdio.h ****            If the precision is missing, it is taken as 6; if the precision
 551:c:\program files (x86)\atmel\studio\7.0\toolchain\avr8\avr8-gnu-toolchain\avr\include\stdio.h ****            is explicitly zero, no decimal-point character appears.  If a
 552:c:\program files (x86)\atmel\studio\7.0\toolchain\avr8\avr8-gnu-toolchain\avr\include\stdio.h ****            decimal point appears, at least one digit appears before it.
 553:c:\program files (x86)\atmel\studio\7.0\toolchain\avr8\avr8-gnu-toolchain\avr\include\stdio.h ****    - \c gG The double argument is converted in style \c f or \c e (or
 554:c:\program files (x86)\atmel\studio\7.0\toolchain\avr8\avr8-gnu-toolchain\avr\include\stdio.h ****            \c F or \c E for \c G conversions).  The precision
 555:c:\program files (x86)\atmel\studio\7.0\toolchain\avr8\avr8-gnu-toolchain\avr\include\stdio.h ****            specifies the number of significant digits.  If the
 556:c:\program files (x86)\atmel\studio\7.0\toolchain\avr8\avr8-gnu-toolchain\avr\include\stdio.h ****            precision is missing, 6 digits are given; if the precision
 557:c:\program files (x86)\atmel\studio\7.0\toolchain\avr8\avr8-gnu-toolchain\avr\include\stdio.h ****            is zero, it is treated as 1.  Style \c e is used if the
 558:c:\program files (x86)\atmel\studio\7.0\toolchain\avr8\avr8-gnu-toolchain\avr\include\stdio.h ****            exponent from its conversion is less than -4 or greater
 559:c:\program files (x86)\atmel\studio\7.0\toolchain\avr8\avr8-gnu-toolchain\avr\include\stdio.h ****            than or equal to the precision.  Trailing zeros are removed
 560:c:\program files (x86)\atmel\studio\7.0\toolchain\avr8\avr8-gnu-toolchain\avr\include\stdio.h ****            from the fractional part of the result; a decimal point
 561:c:\program files (x86)\atmel\studio\7.0\toolchain\avr8\avr8-gnu-toolchain\avr\include\stdio.h ****            appears only if it is followed by at least one digit.
 562:c:\program files (x86)\atmel\studio\7.0\toolchain\avr8\avr8-gnu-toolchain\avr\include\stdio.h ****    - \c S  Similar to the \c s format, except the pointer is expected to
 563:c:\program files (x86)\atmel\studio\7.0\toolchain\avr8\avr8-gnu-toolchain\avr\include\stdio.h ****            point to a program-memory (ROM) string instead of a RAM string.
 564:c:\program files (x86)\atmel\studio\7.0\toolchain\avr8\avr8-gnu-toolchain\avr\include\stdio.h **** 
 565:c:\program files (x86)\atmel\studio\7.0\toolchain\avr8\avr8-gnu-toolchain\avr\include\stdio.h ****    In no case does a non-existent or small field width cause truncation of a
 566:c:\program files (x86)\atmel\studio\7.0\toolchain\avr8\avr8-gnu-toolchain\avr\include\stdio.h ****    numeric field; if the result of a conversion is wider than the field
 567:c:\program files (x86)\atmel\studio\7.0\toolchain\avr8\avr8-gnu-toolchain\avr\include\stdio.h ****    width, the field is expanded to contain the conversion result.
 568:c:\program files (x86)\atmel\studio\7.0\toolchain\avr8\avr8-gnu-toolchain\avr\include\stdio.h **** 
 569:c:\program files (x86)\atmel\studio\7.0\toolchain\avr8\avr8-gnu-toolchain\avr\include\stdio.h ****    Since the full implementation of all the mentioned features becomes
 570:c:\program files (x86)\atmel\studio\7.0\toolchain\avr8\avr8-gnu-toolchain\avr\include\stdio.h ****    fairly large, three different flavours of vfprintf() can be
 571:c:\program files (x86)\atmel\studio\7.0\toolchain\avr8\avr8-gnu-toolchain\avr\include\stdio.h ****    selected using linker options.  The default vfprintf() implements
 572:c:\program files (x86)\atmel\studio\7.0\toolchain\avr8\avr8-gnu-toolchain\avr\include\stdio.h ****    all the mentioned functionality except floating point conversions.
 573:c:\program files (x86)\atmel\studio\7.0\toolchain\avr8\avr8-gnu-toolchain\avr\include\stdio.h ****    A minimized version of vfprintf() is available that only implements
 574:c:\program files (x86)\atmel\studio\7.0\toolchain\avr8\avr8-gnu-toolchain\avr\include\stdio.h ****    the very basic integer and string conversion facilities, but only
 575:c:\program files (x86)\atmel\studio\7.0\toolchain\avr8\avr8-gnu-toolchain\avr\include\stdio.h ****    the \c # additional option can be specified using conversion
 576:c:\program files (x86)\atmel\studio\7.0\toolchain\avr8\avr8-gnu-toolchain\avr\include\stdio.h ****    flags (these flags are parsed correctly from the format
 577:c:\program files (x86)\atmel\studio\7.0\toolchain\avr8\avr8-gnu-toolchain\avr\include\stdio.h ****    specification, but then simply ignored).  This version can be
 578:c:\program files (x86)\atmel\studio\7.0\toolchain\avr8\avr8-gnu-toolchain\avr\include\stdio.h ****    requested using the following \ref gcc_minusW "compiler options":
 579:c:\program files (x86)\atmel\studio\7.0\toolchain\avr8\avr8-gnu-toolchain\avr\include\stdio.h **** 
 580:c:\program files (x86)\atmel\studio\7.0\toolchain\avr8\avr8-gnu-toolchain\avr\include\stdio.h ****    \code
 581:c:\program files (x86)\atmel\studio\7.0\toolchain\avr8\avr8-gnu-toolchain\avr\include\stdio.h ****    -Wl,-u,vfprintf -lprintf_min
 582:c:\program files (x86)\atmel\studio\7.0\toolchain\avr8\avr8-gnu-toolchain\avr\include\stdio.h ****    \endcode
 583:c:\program files (x86)\atmel\studio\7.0\toolchain\avr8\avr8-gnu-toolchain\avr\include\stdio.h **** 
 584:c:\program files (x86)\atmel\studio\7.0\toolchain\avr8\avr8-gnu-toolchain\avr\include\stdio.h ****    If the full functionality including the floating point conversions
 585:c:\program files (x86)\atmel\studio\7.0\toolchain\avr8\avr8-gnu-toolchain\avr\include\stdio.h ****    is required, the following options should be used:
 586:c:\program files (x86)\atmel\studio\7.0\toolchain\avr8\avr8-gnu-toolchain\avr\include\stdio.h **** 
 587:c:\program files (x86)\atmel\studio\7.0\toolchain\avr8\avr8-gnu-toolchain\avr\include\stdio.h ****    \code
 588:c:\program files (x86)\atmel\studio\7.0\toolchain\avr8\avr8-gnu-toolchain\avr\include\stdio.h ****    -Wl,-u,vfprintf -lprintf_flt -lm
 589:c:\program files (x86)\atmel\studio\7.0\toolchain\avr8\avr8-gnu-toolchain\avr\include\stdio.h ****    \endcode
 590:c:\program files (x86)\atmel\studio\7.0\toolchain\avr8\avr8-gnu-toolchain\avr\include\stdio.h **** 
 591:c:\program files (x86)\atmel\studio\7.0\toolchain\avr8\avr8-gnu-toolchain\avr\include\stdio.h ****    \par Limitations:
 592:c:\program files (x86)\atmel\studio\7.0\toolchain\avr8\avr8-gnu-toolchain\avr\include\stdio.h ****    - The specified width and precision can be at most 255.
 593:c:\program files (x86)\atmel\studio\7.0\toolchain\avr8\avr8-gnu-toolchain\avr\include\stdio.h **** 
 594:c:\program files (x86)\atmel\studio\7.0\toolchain\avr8\avr8-gnu-toolchain\avr\include\stdio.h ****    \par Notes:
 595:c:\program files (x86)\atmel\studio\7.0\toolchain\avr8\avr8-gnu-toolchain\avr\include\stdio.h ****    - For floating-point conversions, if you link default or minimized
 596:c:\program files (x86)\atmel\studio\7.0\toolchain\avr8\avr8-gnu-toolchain\avr\include\stdio.h ****      version of vfprintf(), the symbol \c ? will be output and double
 597:c:\program files (x86)\atmel\studio\7.0\toolchain\avr8\avr8-gnu-toolchain\avr\include\stdio.h ****      argument will be skiped. So you output below will not be crashed.
 598:c:\program files (x86)\atmel\studio\7.0\toolchain\avr8\avr8-gnu-toolchain\avr\include\stdio.h ****      For default version the width field and the "pad to left" ( symbol
 599:c:\program files (x86)\atmel\studio\7.0\toolchain\avr8\avr8-gnu-toolchain\avr\include\stdio.h ****      minus ) option will work in this case.
 600:c:\program files (x86)\atmel\studio\7.0\toolchain\avr8\avr8-gnu-toolchain\avr\include\stdio.h ****    - The \c hh length modifier is ignored (\c char argument is
 601:c:\program files (x86)\atmel\studio\7.0\toolchain\avr8\avr8-gnu-toolchain\avr\include\stdio.h ****      promouted to \c int). More exactly, this realization does not check
 602:c:\program files (x86)\atmel\studio\7.0\toolchain\avr8\avr8-gnu-toolchain\avr\include\stdio.h ****      the number of \c h symbols.
 603:c:\program files (x86)\atmel\studio\7.0\toolchain\avr8\avr8-gnu-toolchain\avr\include\stdio.h ****    - But the \c ll length modifier will to abort the output, as this
 604:c:\program files (x86)\atmel\studio\7.0\toolchain\avr8\avr8-gnu-toolchain\avr\include\stdio.h ****      realization does not operate \c long \c long arguments.
 605:c:\program files (x86)\atmel\studio\7.0\toolchain\avr8\avr8-gnu-toolchain\avr\include\stdio.h ****    - The variable width or precision field (an asterisk \c * symbol)
 606:c:\program files (x86)\atmel\studio\7.0\toolchain\avr8\avr8-gnu-toolchain\avr\include\stdio.h ****      is not realized and will to abort the output.
 607:c:\program files (x86)\atmel\studio\7.0\toolchain\avr8\avr8-gnu-toolchain\avr\include\stdio.h **** 
 608:c:\program files (x86)\atmel\studio\7.0\toolchain\avr8\avr8-gnu-toolchain\avr\include\stdio.h ****  */
 609:c:\program files (x86)\atmel\studio\7.0\toolchain\avr8\avr8-gnu-toolchain\avr\include\stdio.h **** 
 610:c:\program files (x86)\atmel\studio\7.0\toolchain\avr8\avr8-gnu-toolchain\avr\include\stdio.h **** extern int	vfprintf(FILE *__stream, const char *__fmt, va_list __ap);
 611:c:\program files (x86)\atmel\studio\7.0\toolchain\avr8\avr8-gnu-toolchain\avr\include\stdio.h **** 
 612:c:\program files (x86)\atmel\studio\7.0\toolchain\avr8\avr8-gnu-toolchain\avr\include\stdio.h **** /**
 613:c:\program files (x86)\atmel\studio\7.0\toolchain\avr8\avr8-gnu-toolchain\avr\include\stdio.h ****    Variant of \c vfprintf() that uses a \c fmt string that resides
 614:c:\program files (x86)\atmel\studio\7.0\toolchain\avr8\avr8-gnu-toolchain\avr\include\stdio.h ****    in program memory.
 615:c:\program files (x86)\atmel\studio\7.0\toolchain\avr8\avr8-gnu-toolchain\avr\include\stdio.h **** */
 616:c:\program files (x86)\atmel\studio\7.0\toolchain\avr8\avr8-gnu-toolchain\avr\include\stdio.h **** extern int	vfprintf_P(FILE *__stream, const char *__fmt, va_list __ap);
 617:c:\program files (x86)\atmel\studio\7.0\toolchain\avr8\avr8-gnu-toolchain\avr\include\stdio.h **** 
 618:c:\program files (x86)\atmel\studio\7.0\toolchain\avr8\avr8-gnu-toolchain\avr\include\stdio.h **** /**
 619:c:\program files (x86)\atmel\studio\7.0\toolchain\avr8\avr8-gnu-toolchain\avr\include\stdio.h ****    The function \c fputc sends the character \c c (though given as type
 620:c:\program files (x86)\atmel\studio\7.0\toolchain\avr8\avr8-gnu-toolchain\avr\include\stdio.h ****    \c int) to \c stream.  It returns the character, or \c EOF in case
 621:c:\program files (x86)\atmel\studio\7.0\toolchain\avr8\avr8-gnu-toolchain\avr\include\stdio.h ****    an error occurred.
 622:c:\program files (x86)\atmel\studio\7.0\toolchain\avr8\avr8-gnu-toolchain\avr\include\stdio.h **** */
 623:c:\program files (x86)\atmel\studio\7.0\toolchain\avr8\avr8-gnu-toolchain\avr\include\stdio.h **** extern int	fputc(int __c, FILE *__stream);
 624:c:\program files (x86)\atmel\studio\7.0\toolchain\avr8\avr8-gnu-toolchain\avr\include\stdio.h **** 
 625:c:\program files (x86)\atmel\studio\7.0\toolchain\avr8\avr8-gnu-toolchain\avr\include\stdio.h **** #if !defined(__DOXYGEN__)
 626:c:\program files (x86)\atmel\studio\7.0\toolchain\avr8\avr8-gnu-toolchain\avr\include\stdio.h **** 
 627:c:\program files (x86)\atmel\studio\7.0\toolchain\avr8\avr8-gnu-toolchain\avr\include\stdio.h **** /* putc() function implementation, required by standard */
 628:c:\program files (x86)\atmel\studio\7.0\toolchain\avr8\avr8-gnu-toolchain\avr\include\stdio.h **** extern int	putc(int __c, FILE *__stream);
 629:c:\program files (x86)\atmel\studio\7.0\toolchain\avr8\avr8-gnu-toolchain\avr\include\stdio.h **** 
 630:c:\program files (x86)\atmel\studio\7.0\toolchain\avr8\avr8-gnu-toolchain\avr\include\stdio.h **** /* putchar() function implementation, required by standard */
 631:c:\program files (x86)\atmel\studio\7.0\toolchain\avr8\avr8-gnu-toolchain\avr\include\stdio.h **** extern int	putchar(int __c);
 632:c:\program files (x86)\atmel\studio\7.0\toolchain\avr8\avr8-gnu-toolchain\avr\include\stdio.h **** 
 633:c:\program files (x86)\atmel\studio\7.0\toolchain\avr8\avr8-gnu-toolchain\avr\include\stdio.h **** #endif /* not __DOXYGEN__ */
 634:c:\program files (x86)\atmel\studio\7.0\toolchain\avr8\avr8-gnu-toolchain\avr\include\stdio.h **** 
 635:c:\program files (x86)\atmel\studio\7.0\toolchain\avr8\avr8-gnu-toolchain\avr\include\stdio.h **** /**
 636:c:\program files (x86)\atmel\studio\7.0\toolchain\avr8\avr8-gnu-toolchain\avr\include\stdio.h ****    The macro \c putc used to be a "fast" macro implementation with a
 637:c:\program files (x86)\atmel\studio\7.0\toolchain\avr8\avr8-gnu-toolchain\avr\include\stdio.h ****    functionality identical to fputc().  For space constraints, in
 638:c:\program files (x86)\atmel\studio\7.0\toolchain\avr8\avr8-gnu-toolchain\avr\include\stdio.h ****    \c avr-libc, it is just an alias for \c fputc.
 639:c:\program files (x86)\atmel\studio\7.0\toolchain\avr8\avr8-gnu-toolchain\avr\include\stdio.h **** */
 640:c:\program files (x86)\atmel\studio\7.0\toolchain\avr8\avr8-gnu-toolchain\avr\include\stdio.h **** #define putc(__c, __stream) fputc(__c, __stream)
 641:c:\program files (x86)\atmel\studio\7.0\toolchain\avr8\avr8-gnu-toolchain\avr\include\stdio.h **** 
 642:c:\program files (x86)\atmel\studio\7.0\toolchain\avr8\avr8-gnu-toolchain\avr\include\stdio.h **** /**
 643:c:\program files (x86)\atmel\studio\7.0\toolchain\avr8\avr8-gnu-toolchain\avr\include\stdio.h ****    The macro \c putchar sends character \c c to \c stdout.
 644:c:\program files (x86)\atmel\studio\7.0\toolchain\avr8\avr8-gnu-toolchain\avr\include\stdio.h **** */
 645:c:\program files (x86)\atmel\studio\7.0\toolchain\avr8\avr8-gnu-toolchain\avr\include\stdio.h **** #define putchar(__c) fputc(__c, stdout)
 646:c:\program files (x86)\atmel\studio\7.0\toolchain\avr8\avr8-gnu-toolchain\avr\include\stdio.h **** 
 647:c:\program files (x86)\atmel\studio\7.0\toolchain\avr8\avr8-gnu-toolchain\avr\include\stdio.h **** /**
 648:c:\program files (x86)\atmel\studio\7.0\toolchain\avr8\avr8-gnu-toolchain\avr\include\stdio.h ****    The function \c printf performs formatted output to stream
 649:c:\program files (x86)\atmel\studio\7.0\toolchain\avr8\avr8-gnu-toolchain\avr\include\stdio.h ****    \c stdout.  See \c vfprintf() for details.
 650:c:\program files (x86)\atmel\studio\7.0\toolchain\avr8\avr8-gnu-toolchain\avr\include\stdio.h **** */
 651:c:\program files (x86)\atmel\studio\7.0\toolchain\avr8\avr8-gnu-toolchain\avr\include\stdio.h **** extern int	printf(const char *__fmt, ...);
 652:c:\program files (x86)\atmel\studio\7.0\toolchain\avr8\avr8-gnu-toolchain\avr\include\stdio.h **** 
 653:c:\program files (x86)\atmel\studio\7.0\toolchain\avr8\avr8-gnu-toolchain\avr\include\stdio.h **** /**
 654:c:\program files (x86)\atmel\studio\7.0\toolchain\avr8\avr8-gnu-toolchain\avr\include\stdio.h ****    Variant of \c printf() that uses a \c fmt string that resides
 655:c:\program files (x86)\atmel\studio\7.0\toolchain\avr8\avr8-gnu-toolchain\avr\include\stdio.h ****    in program memory.
 656:c:\program files (x86)\atmel\studio\7.0\toolchain\avr8\avr8-gnu-toolchain\avr\include\stdio.h **** */
 657:c:\program files (x86)\atmel\studio\7.0\toolchain\avr8\avr8-gnu-toolchain\avr\include\stdio.h **** extern int	printf_P(const char *__fmt, ...);
 658:c:\program files (x86)\atmel\studio\7.0\toolchain\avr8\avr8-gnu-toolchain\avr\include\stdio.h **** 
 659:c:\program files (x86)\atmel\studio\7.0\toolchain\avr8\avr8-gnu-toolchain\avr\include\stdio.h **** /**
 660:c:\program files (x86)\atmel\studio\7.0\toolchain\avr8\avr8-gnu-toolchain\avr\include\stdio.h ****    The function \c vprintf performs formatted output to stream
 661:c:\program files (x86)\atmel\studio\7.0\toolchain\avr8\avr8-gnu-toolchain\avr\include\stdio.h ****    \c stdout, taking a variable argument list as in vfprintf().
 662:c:\program files (x86)\atmel\studio\7.0\toolchain\avr8\avr8-gnu-toolchain\avr\include\stdio.h **** 
 663:c:\program files (x86)\atmel\studio\7.0\toolchain\avr8\avr8-gnu-toolchain\avr\include\stdio.h ****    See vfprintf() for details.
 664:c:\program files (x86)\atmel\studio\7.0\toolchain\avr8\avr8-gnu-toolchain\avr\include\stdio.h **** */
 665:c:\program files (x86)\atmel\studio\7.0\toolchain\avr8\avr8-gnu-toolchain\avr\include\stdio.h **** extern int	vprintf(const char *__fmt, va_list __ap);
 666:c:\program files (x86)\atmel\studio\7.0\toolchain\avr8\avr8-gnu-toolchain\avr\include\stdio.h **** 
 667:c:\program files (x86)\atmel\studio\7.0\toolchain\avr8\avr8-gnu-toolchain\avr\include\stdio.h **** /**
 668:c:\program files (x86)\atmel\studio\7.0\toolchain\avr8\avr8-gnu-toolchain\avr\include\stdio.h ****    Variant of \c printf() that sends the formatted characters
 669:c:\program files (x86)\atmel\studio\7.0\toolchain\avr8\avr8-gnu-toolchain\avr\include\stdio.h ****    to string \c s.
 670:c:\program files (x86)\atmel\studio\7.0\toolchain\avr8\avr8-gnu-toolchain\avr\include\stdio.h **** */
 671:c:\program files (x86)\atmel\studio\7.0\toolchain\avr8\avr8-gnu-toolchain\avr\include\stdio.h **** extern int	sprintf(char *__s, const char *__fmt, ...);
 672:c:\program files (x86)\atmel\studio\7.0\toolchain\avr8\avr8-gnu-toolchain\avr\include\stdio.h **** 
 673:c:\program files (x86)\atmel\studio\7.0\toolchain\avr8\avr8-gnu-toolchain\avr\include\stdio.h **** /**
 674:c:\program files (x86)\atmel\studio\7.0\toolchain\avr8\avr8-gnu-toolchain\avr\include\stdio.h ****    Variant of \c sprintf() that uses a \c fmt string that resides
 675:c:\program files (x86)\atmel\studio\7.0\toolchain\avr8\avr8-gnu-toolchain\avr\include\stdio.h ****    in program memory.
 676:c:\program files (x86)\atmel\studio\7.0\toolchain\avr8\avr8-gnu-toolchain\avr\include\stdio.h **** */
 677:c:\program files (x86)\atmel\studio\7.0\toolchain\avr8\avr8-gnu-toolchain\avr\include\stdio.h **** extern int	sprintf_P(char *__s, const char *__fmt, ...);
 678:c:\program files (x86)\atmel\studio\7.0\toolchain\avr8\avr8-gnu-toolchain\avr\include\stdio.h **** 
 679:c:\program files (x86)\atmel\studio\7.0\toolchain\avr8\avr8-gnu-toolchain\avr\include\stdio.h **** /**
 680:c:\program files (x86)\atmel\studio\7.0\toolchain\avr8\avr8-gnu-toolchain\avr\include\stdio.h ****    Like \c sprintf(), but instead of assuming \c s to be of infinite
 681:c:\program files (x86)\atmel\studio\7.0\toolchain\avr8\avr8-gnu-toolchain\avr\include\stdio.h ****    size, no more than \c n characters (including the trailing NUL
 682:c:\program files (x86)\atmel\studio\7.0\toolchain\avr8\avr8-gnu-toolchain\avr\include\stdio.h ****    character) will be converted to \c s.
 683:c:\program files (x86)\atmel\studio\7.0\toolchain\avr8\avr8-gnu-toolchain\avr\include\stdio.h **** 
 684:c:\program files (x86)\atmel\studio\7.0\toolchain\avr8\avr8-gnu-toolchain\avr\include\stdio.h ****    Returns the number of characters that would have been written to
 685:c:\program files (x86)\atmel\studio\7.0\toolchain\avr8\avr8-gnu-toolchain\avr\include\stdio.h ****    \c s if there were enough space.
 686:c:\program files (x86)\atmel\studio\7.0\toolchain\avr8\avr8-gnu-toolchain\avr\include\stdio.h **** */
 687:c:\program files (x86)\atmel\studio\7.0\toolchain\avr8\avr8-gnu-toolchain\avr\include\stdio.h **** extern int	snprintf(char *__s, size_t __n, const char *__fmt, ...);
 688:c:\program files (x86)\atmel\studio\7.0\toolchain\avr8\avr8-gnu-toolchain\avr\include\stdio.h **** 
 689:c:\program files (x86)\atmel\studio\7.0\toolchain\avr8\avr8-gnu-toolchain\avr\include\stdio.h **** /**
 690:c:\program files (x86)\atmel\studio\7.0\toolchain\avr8\avr8-gnu-toolchain\avr\include\stdio.h ****    Variant of \c snprintf() that uses a \c fmt string that resides
 691:c:\program files (x86)\atmel\studio\7.0\toolchain\avr8\avr8-gnu-toolchain\avr\include\stdio.h ****    in program memory.
 692:c:\program files (x86)\atmel\studio\7.0\toolchain\avr8\avr8-gnu-toolchain\avr\include\stdio.h **** */
 693:c:\program files (x86)\atmel\studio\7.0\toolchain\avr8\avr8-gnu-toolchain\avr\include\stdio.h **** extern int	snprintf_P(char *__s, size_t __n, const char *__fmt, ...);
 694:c:\program files (x86)\atmel\studio\7.0\toolchain\avr8\avr8-gnu-toolchain\avr\include\stdio.h **** 
 695:c:\program files (x86)\atmel\studio\7.0\toolchain\avr8\avr8-gnu-toolchain\avr\include\stdio.h **** /**
 696:c:\program files (x86)\atmel\studio\7.0\toolchain\avr8\avr8-gnu-toolchain\avr\include\stdio.h ****    Like \c sprintf() but takes a variable argument list for the
 697:c:\program files (x86)\atmel\studio\7.0\toolchain\avr8\avr8-gnu-toolchain\avr\include\stdio.h ****    arguments.
 698:c:\program files (x86)\atmel\studio\7.0\toolchain\avr8\avr8-gnu-toolchain\avr\include\stdio.h **** */
 699:c:\program files (x86)\atmel\studio\7.0\toolchain\avr8\avr8-gnu-toolchain\avr\include\stdio.h **** extern int	vsprintf(char *__s, const char *__fmt, va_list ap);
 700:c:\program files (x86)\atmel\studio\7.0\toolchain\avr8\avr8-gnu-toolchain\avr\include\stdio.h **** 
 701:c:\program files (x86)\atmel\studio\7.0\toolchain\avr8\avr8-gnu-toolchain\avr\include\stdio.h **** /**
 702:c:\program files (x86)\atmel\studio\7.0\toolchain\avr8\avr8-gnu-toolchain\avr\include\stdio.h ****    Variant of \c vsprintf() that uses a \c fmt string that resides
 703:c:\program files (x86)\atmel\studio\7.0\toolchain\avr8\avr8-gnu-toolchain\avr\include\stdio.h ****    in program memory.
 704:c:\program files (x86)\atmel\studio\7.0\toolchain\avr8\avr8-gnu-toolchain\avr\include\stdio.h **** */
 705:c:\program files (x86)\atmel\studio\7.0\toolchain\avr8\avr8-gnu-toolchain\avr\include\stdio.h **** extern int	vsprintf_P(char *__s, const char *__fmt, va_list ap);
 706:c:\program files (x86)\atmel\studio\7.0\toolchain\avr8\avr8-gnu-toolchain\avr\include\stdio.h **** 
 707:c:\program files (x86)\atmel\studio\7.0\toolchain\avr8\avr8-gnu-toolchain\avr\include\stdio.h **** /**
 708:c:\program files (x86)\atmel\studio\7.0\toolchain\avr8\avr8-gnu-toolchain\avr\include\stdio.h ****    Like \c vsprintf(), but instead of assuming \c s to be of infinite
 709:c:\program files (x86)\atmel\studio\7.0\toolchain\avr8\avr8-gnu-toolchain\avr\include\stdio.h ****    size, no more than \c n characters (including the trailing NUL
 710:c:\program files (x86)\atmel\studio\7.0\toolchain\avr8\avr8-gnu-toolchain\avr\include\stdio.h ****    character) will be converted to \c s.
 711:c:\program files (x86)\atmel\studio\7.0\toolchain\avr8\avr8-gnu-toolchain\avr\include\stdio.h **** 
 712:c:\program files (x86)\atmel\studio\7.0\toolchain\avr8\avr8-gnu-toolchain\avr\include\stdio.h ****    Returns the number of characters that would have been written to
 713:c:\program files (x86)\atmel\studio\7.0\toolchain\avr8\avr8-gnu-toolchain\avr\include\stdio.h ****    \c s if there were enough space.
 714:c:\program files (x86)\atmel\studio\7.0\toolchain\avr8\avr8-gnu-toolchain\avr\include\stdio.h **** */
 715:c:\program files (x86)\atmel\studio\7.0\toolchain\avr8\avr8-gnu-toolchain\avr\include\stdio.h **** extern int	vsnprintf(char *__s, size_t __n, const char *__fmt, va_list ap);
 716:c:\program files (x86)\atmel\studio\7.0\toolchain\avr8\avr8-gnu-toolchain\avr\include\stdio.h **** 
 717:c:\program files (x86)\atmel\studio\7.0\toolchain\avr8\avr8-gnu-toolchain\avr\include\stdio.h **** /**
 718:c:\program files (x86)\atmel\studio\7.0\toolchain\avr8\avr8-gnu-toolchain\avr\include\stdio.h ****    Variant of \c vsnprintf() that uses a \c fmt string that resides
 719:c:\program files (x86)\atmel\studio\7.0\toolchain\avr8\avr8-gnu-toolchain\avr\include\stdio.h ****    in program memory.
 720:c:\program files (x86)\atmel\studio\7.0\toolchain\avr8\avr8-gnu-toolchain\avr\include\stdio.h **** */
 721:c:\program files (x86)\atmel\studio\7.0\toolchain\avr8\avr8-gnu-toolchain\avr\include\stdio.h **** extern int	vsnprintf_P(char *__s, size_t __n, const char *__fmt, va_list ap);
 722:c:\program files (x86)\atmel\studio\7.0\toolchain\avr8\avr8-gnu-toolchain\avr\include\stdio.h **** /**
 723:c:\program files (x86)\atmel\studio\7.0\toolchain\avr8\avr8-gnu-toolchain\avr\include\stdio.h ****    The function \c fprintf performs formatted output to \c stream.
 724:c:\program files (x86)\atmel\studio\7.0\toolchain\avr8\avr8-gnu-toolchain\avr\include\stdio.h ****    See \c vfprintf() for details.
 725:c:\program files (x86)\atmel\studio\7.0\toolchain\avr8\avr8-gnu-toolchain\avr\include\stdio.h **** */
 726:c:\program files (x86)\atmel\studio\7.0\toolchain\avr8\avr8-gnu-toolchain\avr\include\stdio.h **** extern int	fprintf(FILE *__stream, const char *__fmt, ...);
 727:c:\program files (x86)\atmel\studio\7.0\toolchain\avr8\avr8-gnu-toolchain\avr\include\stdio.h **** 
 728:c:\program files (x86)\atmel\studio\7.0\toolchain\avr8\avr8-gnu-toolchain\avr\include\stdio.h **** /**
 729:c:\program files (x86)\atmel\studio\7.0\toolchain\avr8\avr8-gnu-toolchain\avr\include\stdio.h ****    Variant of \c fprintf() that uses a \c fmt string that resides
 730:c:\program files (x86)\atmel\studio\7.0\toolchain\avr8\avr8-gnu-toolchain\avr\include\stdio.h ****    in program memory.
 731:c:\program files (x86)\atmel\studio\7.0\toolchain\avr8\avr8-gnu-toolchain\avr\include\stdio.h **** */
 732:c:\program files (x86)\atmel\studio\7.0\toolchain\avr8\avr8-gnu-toolchain\avr\include\stdio.h **** extern int	fprintf_P(FILE *__stream, const char *__fmt, ...);
 733:c:\program files (x86)\atmel\studio\7.0\toolchain\avr8\avr8-gnu-toolchain\avr\include\stdio.h **** 
 734:c:\program files (x86)\atmel\studio\7.0\toolchain\avr8\avr8-gnu-toolchain\avr\include\stdio.h **** /**
 735:c:\program files (x86)\atmel\studio\7.0\toolchain\avr8\avr8-gnu-toolchain\avr\include\stdio.h ****    Write the string pointed to by \c str to stream \c stream.
 736:c:\program files (x86)\atmel\studio\7.0\toolchain\avr8\avr8-gnu-toolchain\avr\include\stdio.h **** 
 737:c:\program files (x86)\atmel\studio\7.0\toolchain\avr8\avr8-gnu-toolchain\avr\include\stdio.h ****    Returns 0 on success and EOF on error.
 738:c:\program files (x86)\atmel\studio\7.0\toolchain\avr8\avr8-gnu-toolchain\avr\include\stdio.h **** */
 739:c:\program files (x86)\atmel\studio\7.0\toolchain\avr8\avr8-gnu-toolchain\avr\include\stdio.h **** extern int	fputs(const char *__str, FILE *__stream);
 740:c:\program files (x86)\atmel\studio\7.0\toolchain\avr8\avr8-gnu-toolchain\avr\include\stdio.h **** 
 741:c:\program files (x86)\atmel\studio\7.0\toolchain\avr8\avr8-gnu-toolchain\avr\include\stdio.h **** /**
 742:c:\program files (x86)\atmel\studio\7.0\toolchain\avr8\avr8-gnu-toolchain\avr\include\stdio.h ****    Variant of fputs() where \c str resides in program memory.
 743:c:\program files (x86)\atmel\studio\7.0\toolchain\avr8\avr8-gnu-toolchain\avr\include\stdio.h **** */
 744:c:\program files (x86)\atmel\studio\7.0\toolchain\avr8\avr8-gnu-toolchain\avr\include\stdio.h **** extern int	fputs_P(const char *__str, FILE *__stream);
 745:c:\program files (x86)\atmel\studio\7.0\toolchain\avr8\avr8-gnu-toolchain\avr\include\stdio.h **** 
 746:c:\program files (x86)\atmel\studio\7.0\toolchain\avr8\avr8-gnu-toolchain\avr\include\stdio.h **** /**
 747:c:\program files (x86)\atmel\studio\7.0\toolchain\avr8\avr8-gnu-toolchain\avr\include\stdio.h ****    Write the string pointed to by \c str, and a trailing newline
 748:c:\program files (x86)\atmel\studio\7.0\toolchain\avr8\avr8-gnu-toolchain\avr\include\stdio.h ****    character, to \c stdout.
 749:c:\program files (x86)\atmel\studio\7.0\toolchain\avr8\avr8-gnu-toolchain\avr\include\stdio.h **** */
 750:c:\program files (x86)\atmel\studio\7.0\toolchain\avr8\avr8-gnu-toolchain\avr\include\stdio.h **** extern int	puts(const char *__str);
 751:c:\program files (x86)\atmel\studio\7.0\toolchain\avr8\avr8-gnu-toolchain\avr\include\stdio.h **** 
 752:c:\program files (x86)\atmel\studio\7.0\toolchain\avr8\avr8-gnu-toolchain\avr\include\stdio.h **** /**
 753:c:\program files (x86)\atmel\studio\7.0\toolchain\avr8\avr8-gnu-toolchain\avr\include\stdio.h ****    Variant of puts() where \c str resides in program memory.
 754:c:\program files (x86)\atmel\studio\7.0\toolchain\avr8\avr8-gnu-toolchain\avr\include\stdio.h **** */
 755:c:\program files (x86)\atmel\studio\7.0\toolchain\avr8\avr8-gnu-toolchain\avr\include\stdio.h **** extern int	puts_P(const char *__str);
 756:c:\program files (x86)\atmel\studio\7.0\toolchain\avr8\avr8-gnu-toolchain\avr\include\stdio.h **** 
 757:c:\program files (x86)\atmel\studio\7.0\toolchain\avr8\avr8-gnu-toolchain\avr\include\stdio.h **** /**
 758:c:\program files (x86)\atmel\studio\7.0\toolchain\avr8\avr8-gnu-toolchain\avr\include\stdio.h ****    Write \c nmemb objects, \c size bytes each, to \c stream.
 759:c:\program files (x86)\atmel\studio\7.0\toolchain\avr8\avr8-gnu-toolchain\avr\include\stdio.h ****    The first byte of the first object is referenced by \c ptr.
 760:c:\program files (x86)\atmel\studio\7.0\toolchain\avr8\avr8-gnu-toolchain\avr\include\stdio.h **** 
 761:c:\program files (x86)\atmel\studio\7.0\toolchain\avr8\avr8-gnu-toolchain\avr\include\stdio.h ****    Returns the number of objects successfully written, i. e.
 762:c:\program files (x86)\atmel\studio\7.0\toolchain\avr8\avr8-gnu-toolchain\avr\include\stdio.h ****    \c nmemb unless an output error occured.
 763:c:\program files (x86)\atmel\studio\7.0\toolchain\avr8\avr8-gnu-toolchain\avr\include\stdio.h ****  */
 764:c:\program files (x86)\atmel\studio\7.0\toolchain\avr8\avr8-gnu-toolchain\avr\include\stdio.h **** extern size_t	fwrite(const void *__ptr, size_t __size, size_t __nmemb,
 765:c:\program files (x86)\atmel\studio\7.0\toolchain\avr8\avr8-gnu-toolchain\avr\include\stdio.h **** 		       FILE *__stream);
 766:c:\program files (x86)\atmel\studio\7.0\toolchain\avr8\avr8-gnu-toolchain\avr\include\stdio.h **** 
 767:c:\program files (x86)\atmel\studio\7.0\toolchain\avr8\avr8-gnu-toolchain\avr\include\stdio.h **** /**
 768:c:\program files (x86)\atmel\studio\7.0\toolchain\avr8\avr8-gnu-toolchain\avr\include\stdio.h ****    The function \c fgetc reads a character from \c stream.  It returns
 769:c:\program files (x86)\atmel\studio\7.0\toolchain\avr8\avr8-gnu-toolchain\avr\include\stdio.h ****    the character, or \c EOF in case end-of-file was encountered or an
 770:c:\program files (x86)\atmel\studio\7.0\toolchain\avr8\avr8-gnu-toolchain\avr\include\stdio.h ****    error occurred.  The routines feof() or ferror() must be used to
 771:c:\program files (x86)\atmel\studio\7.0\toolchain\avr8\avr8-gnu-toolchain\avr\include\stdio.h ****    distinguish between both situations.
 772:c:\program files (x86)\atmel\studio\7.0\toolchain\avr8\avr8-gnu-toolchain\avr\include\stdio.h **** */
 773:c:\program files (x86)\atmel\studio\7.0\toolchain\avr8\avr8-gnu-toolchain\avr\include\stdio.h **** extern int	fgetc(FILE *__stream);
 774:c:\program files (x86)\atmel\studio\7.0\toolchain\avr8\avr8-gnu-toolchain\avr\include\stdio.h **** 
 775:c:\program files (x86)\atmel\studio\7.0\toolchain\avr8\avr8-gnu-toolchain\avr\include\stdio.h **** #if !defined(__DOXYGEN__)
 776:c:\program files (x86)\atmel\studio\7.0\toolchain\avr8\avr8-gnu-toolchain\avr\include\stdio.h **** 
 777:c:\program files (x86)\atmel\studio\7.0\toolchain\avr8\avr8-gnu-toolchain\avr\include\stdio.h **** /* getc() function implementation, required by standard */
 778:c:\program files (x86)\atmel\studio\7.0\toolchain\avr8\avr8-gnu-toolchain\avr\include\stdio.h **** extern int	getc(FILE *__stream);
 779:c:\program files (x86)\atmel\studio\7.0\toolchain\avr8\avr8-gnu-toolchain\avr\include\stdio.h **** 
 780:c:\program files (x86)\atmel\studio\7.0\toolchain\avr8\avr8-gnu-toolchain\avr\include\stdio.h **** /* getchar() function implementation, required by standard */
 781:c:\program files (x86)\atmel\studio\7.0\toolchain\avr8\avr8-gnu-toolchain\avr\include\stdio.h **** extern int	getchar(void);
 782:c:\program files (x86)\atmel\studio\7.0\toolchain\avr8\avr8-gnu-toolchain\avr\include\stdio.h **** 
 783:c:\program files (x86)\atmel\studio\7.0\toolchain\avr8\avr8-gnu-toolchain\avr\include\stdio.h **** #endif /* not __DOXYGEN__ */
 784:c:\program files (x86)\atmel\studio\7.0\toolchain\avr8\avr8-gnu-toolchain\avr\include\stdio.h **** 
 785:c:\program files (x86)\atmel\studio\7.0\toolchain\avr8\avr8-gnu-toolchain\avr\include\stdio.h **** /**
 786:c:\program files (x86)\atmel\studio\7.0\toolchain\avr8\avr8-gnu-toolchain\avr\include\stdio.h ****    The macro \c getc used to be a "fast" macro implementation with a
 787:c:\program files (x86)\atmel\studio\7.0\toolchain\avr8\avr8-gnu-toolchain\avr\include\stdio.h ****    functionality identical to fgetc().  For space constraints, in
 788:c:\program files (x86)\atmel\studio\7.0\toolchain\avr8\avr8-gnu-toolchain\avr\include\stdio.h ****    \c avr-libc, it is just an alias for \c fgetc.
 789:c:\program files (x86)\atmel\studio\7.0\toolchain\avr8\avr8-gnu-toolchain\avr\include\stdio.h **** */
 790:c:\program files (x86)\atmel\studio\7.0\toolchain\avr8\avr8-gnu-toolchain\avr\include\stdio.h **** #define getc(__stream) fgetc(__stream)
 791:c:\program files (x86)\atmel\studio\7.0\toolchain\avr8\avr8-gnu-toolchain\avr\include\stdio.h **** 
 792:c:\program files (x86)\atmel\studio\7.0\toolchain\avr8\avr8-gnu-toolchain\avr\include\stdio.h **** /**
 793:c:\program files (x86)\atmel\studio\7.0\toolchain\avr8\avr8-gnu-toolchain\avr\include\stdio.h ****    The macro \c getchar reads a character from \c stdin.  Return
 794:c:\program files (x86)\atmel\studio\7.0\toolchain\avr8\avr8-gnu-toolchain\avr\include\stdio.h ****    values and error handling is identical to fgetc().
 795:c:\program files (x86)\atmel\studio\7.0\toolchain\avr8\avr8-gnu-toolchain\avr\include\stdio.h **** */
 796:c:\program files (x86)\atmel\studio\7.0\toolchain\avr8\avr8-gnu-toolchain\avr\include\stdio.h **** #define getchar() fgetc(stdin)
 797:c:\program files (x86)\atmel\studio\7.0\toolchain\avr8\avr8-gnu-toolchain\avr\include\stdio.h **** 
 798:c:\program files (x86)\atmel\studio\7.0\toolchain\avr8\avr8-gnu-toolchain\avr\include\stdio.h **** /**
 799:c:\program files (x86)\atmel\studio\7.0\toolchain\avr8\avr8-gnu-toolchain\avr\include\stdio.h ****    The ungetc() function pushes the character \c c (converted to an
 800:c:\program files (x86)\atmel\studio\7.0\toolchain\avr8\avr8-gnu-toolchain\avr\include\stdio.h ****    unsigned char) back onto the input stream pointed to by \c stream.
 801:c:\program files (x86)\atmel\studio\7.0\toolchain\avr8\avr8-gnu-toolchain\avr\include\stdio.h ****    The pushed-back character will be returned by a subsequent read on
 802:c:\program files (x86)\atmel\studio\7.0\toolchain\avr8\avr8-gnu-toolchain\avr\include\stdio.h ****    the stream.
 803:c:\program files (x86)\atmel\studio\7.0\toolchain\avr8\avr8-gnu-toolchain\avr\include\stdio.h **** 
 804:c:\program files (x86)\atmel\studio\7.0\toolchain\avr8\avr8-gnu-toolchain\avr\include\stdio.h ****    Currently, only a single character can be pushed back onto the
 805:c:\program files (x86)\atmel\studio\7.0\toolchain\avr8\avr8-gnu-toolchain\avr\include\stdio.h ****    stream.
 806:c:\program files (x86)\atmel\studio\7.0\toolchain\avr8\avr8-gnu-toolchain\avr\include\stdio.h ****    
 807:c:\program files (x86)\atmel\studio\7.0\toolchain\avr8\avr8-gnu-toolchain\avr\include\stdio.h ****    The ungetc() function returns the character pushed back after the
 808:c:\program files (x86)\atmel\studio\7.0\toolchain\avr8\avr8-gnu-toolchain\avr\include\stdio.h ****    conversion, or \c EOF if the operation fails.  If the value of the
 809:c:\program files (x86)\atmel\studio\7.0\toolchain\avr8\avr8-gnu-toolchain\avr\include\stdio.h ****    argument \c c character equals \c EOF, the operation will fail and
 810:c:\program files (x86)\atmel\studio\7.0\toolchain\avr8\avr8-gnu-toolchain\avr\include\stdio.h ****    the stream will remain unchanged.
 811:c:\program files (x86)\atmel\studio\7.0\toolchain\avr8\avr8-gnu-toolchain\avr\include\stdio.h **** */
 812:c:\program files (x86)\atmel\studio\7.0\toolchain\avr8\avr8-gnu-toolchain\avr\include\stdio.h **** extern int	ungetc(int __c, FILE *__stream);
 813:c:\program files (x86)\atmel\studio\7.0\toolchain\avr8\avr8-gnu-toolchain\avr\include\stdio.h **** 
 814:c:\program files (x86)\atmel\studio\7.0\toolchain\avr8\avr8-gnu-toolchain\avr\include\stdio.h **** /**
 815:c:\program files (x86)\atmel\studio\7.0\toolchain\avr8\avr8-gnu-toolchain\avr\include\stdio.h ****    Read at most <tt>size - 1</tt> bytes from \c stream, until a
 816:c:\program files (x86)\atmel\studio\7.0\toolchain\avr8\avr8-gnu-toolchain\avr\include\stdio.h ****    newline character was encountered, and store the characters in the
 817:c:\program files (x86)\atmel\studio\7.0\toolchain\avr8\avr8-gnu-toolchain\avr\include\stdio.h ****    buffer pointed to by \c str.  Unless an error was encountered while
 818:c:\program files (x86)\atmel\studio\7.0\toolchain\avr8\avr8-gnu-toolchain\avr\include\stdio.h ****    reading, the string will then be terminated with a \c NUL
 819:c:\program files (x86)\atmel\studio\7.0\toolchain\avr8\avr8-gnu-toolchain\avr\include\stdio.h ****    character.
 820:c:\program files (x86)\atmel\studio\7.0\toolchain\avr8\avr8-gnu-toolchain\avr\include\stdio.h **** 
 821:c:\program files (x86)\atmel\studio\7.0\toolchain\avr8\avr8-gnu-toolchain\avr\include\stdio.h ****    If an error was encountered, the function returns NULL and sets the
 822:c:\program files (x86)\atmel\studio\7.0\toolchain\avr8\avr8-gnu-toolchain\avr\include\stdio.h ****    error flag of \c stream, which can be tested using ferror().
 823:c:\program files (x86)\atmel\studio\7.0\toolchain\avr8\avr8-gnu-toolchain\avr\include\stdio.h ****    Otherwise, a pointer to the string will be returned.  */
 824:c:\program files (x86)\atmel\studio\7.0\toolchain\avr8\avr8-gnu-toolchain\avr\include\stdio.h **** extern char	*fgets(char *__str, int __size, FILE *__stream);
 825:c:\program files (x86)\atmel\studio\7.0\toolchain\avr8\avr8-gnu-toolchain\avr\include\stdio.h **** 
 826:c:\program files (x86)\atmel\studio\7.0\toolchain\avr8\avr8-gnu-toolchain\avr\include\stdio.h **** /**
 827:c:\program files (x86)\atmel\studio\7.0\toolchain\avr8\avr8-gnu-toolchain\avr\include\stdio.h ****    Similar to fgets() except that it will operate on stream \c stdin,
 828:c:\program files (x86)\atmel\studio\7.0\toolchain\avr8\avr8-gnu-toolchain\avr\include\stdio.h ****    and the trailing newline (if any) will not be stored in the string.
 829:c:\program files (x86)\atmel\studio\7.0\toolchain\avr8\avr8-gnu-toolchain\avr\include\stdio.h ****    It is the caller's responsibility to provide enough storage to hold
 830:c:\program files (x86)\atmel\studio\7.0\toolchain\avr8\avr8-gnu-toolchain\avr\include\stdio.h ****    the characters read.  */
 831:c:\program files (x86)\atmel\studio\7.0\toolchain\avr8\avr8-gnu-toolchain\avr\include\stdio.h **** extern char	*gets(char *__str);
 832:c:\program files (x86)\atmel\studio\7.0\toolchain\avr8\avr8-gnu-toolchain\avr\include\stdio.h **** 
 833:c:\program files (x86)\atmel\studio\7.0\toolchain\avr8\avr8-gnu-toolchain\avr\include\stdio.h **** /**
 834:c:\program files (x86)\atmel\studio\7.0\toolchain\avr8\avr8-gnu-toolchain\avr\include\stdio.h ****    Read \c nmemb objects, \c size bytes each, from \c stream,
 835:c:\program files (x86)\atmel\studio\7.0\toolchain\avr8\avr8-gnu-toolchain\avr\include\stdio.h ****    to the buffer pointed to by \c ptr.
 836:c:\program files (x86)\atmel\studio\7.0\toolchain\avr8\avr8-gnu-toolchain\avr\include\stdio.h **** 
 837:c:\program files (x86)\atmel\studio\7.0\toolchain\avr8\avr8-gnu-toolchain\avr\include\stdio.h ****    Returns the number of objects successfully read, i. e.
 838:c:\program files (x86)\atmel\studio\7.0\toolchain\avr8\avr8-gnu-toolchain\avr\include\stdio.h ****    \c nmemb unless an input error occured or end-of-file was
 839:c:\program files (x86)\atmel\studio\7.0\toolchain\avr8\avr8-gnu-toolchain\avr\include\stdio.h ****    encountered.  feof() and ferror() must be used to distinguish
 840:c:\program files (x86)\atmel\studio\7.0\toolchain\avr8\avr8-gnu-toolchain\avr\include\stdio.h ****    between these two conditions.
 841:c:\program files (x86)\atmel\studio\7.0\toolchain\avr8\avr8-gnu-toolchain\avr\include\stdio.h ****  */
 842:c:\program files (x86)\atmel\studio\7.0\toolchain\avr8\avr8-gnu-toolchain\avr\include\stdio.h **** extern size_t	fread(void *__ptr, size_t __size, size_t __nmemb,
 843:c:\program files (x86)\atmel\studio\7.0\toolchain\avr8\avr8-gnu-toolchain\avr\include\stdio.h **** 		      FILE *__stream);
 844:c:\program files (x86)\atmel\studio\7.0\toolchain\avr8\avr8-gnu-toolchain\avr\include\stdio.h **** 
 845:c:\program files (x86)\atmel\studio\7.0\toolchain\avr8\avr8-gnu-toolchain\avr\include\stdio.h **** /**
 846:c:\program files (x86)\atmel\studio\7.0\toolchain\avr8\avr8-gnu-toolchain\avr\include\stdio.h ****    Clear the error and end-of-file flags of \c stream.
 847:c:\program files (x86)\atmel\studio\7.0\toolchain\avr8\avr8-gnu-toolchain\avr\include\stdio.h ****  */
 848:c:\program files (x86)\atmel\studio\7.0\toolchain\avr8\avr8-gnu-toolchain\avr\include\stdio.h **** extern void	clearerr(FILE *__stream);
 849:c:\program files (x86)\atmel\studio\7.0\toolchain\avr8\avr8-gnu-toolchain\avr\include\stdio.h **** 
 850:c:\program files (x86)\atmel\studio\7.0\toolchain\avr8\avr8-gnu-toolchain\avr\include\stdio.h **** #if !defined(__DOXYGEN__)
 851:c:\program files (x86)\atmel\studio\7.0\toolchain\avr8\avr8-gnu-toolchain\avr\include\stdio.h **** /* fast inlined version of clearerr() */
 852:c:\program files (x86)\atmel\studio\7.0\toolchain\avr8\avr8-gnu-toolchain\avr\include\stdio.h **** #define clearerror(s) do { (s)->flags &= ~(__SERR | __SEOF); } while(0)
 853:c:\program files (x86)\atmel\studio\7.0\toolchain\avr8\avr8-gnu-toolchain\avr\include\stdio.h **** #endif /* !defined(__DOXYGEN__) */
 854:c:\program files (x86)\atmel\studio\7.0\toolchain\avr8\avr8-gnu-toolchain\avr\include\stdio.h **** 
 855:c:\program files (x86)\atmel\studio\7.0\toolchain\avr8\avr8-gnu-toolchain\avr\include\stdio.h **** /**
 856:c:\program files (x86)\atmel\studio\7.0\toolchain\avr8\avr8-gnu-toolchain\avr\include\stdio.h ****    Test the end-of-file flag of \c stream.  This flag can only be cleared
 857:c:\program files (x86)\atmel\studio\7.0\toolchain\avr8\avr8-gnu-toolchain\avr\include\stdio.h ****    by a call to clearerr().
 858:c:\program files (x86)\atmel\studio\7.0\toolchain\avr8\avr8-gnu-toolchain\avr\include\stdio.h ****  */
 859:c:\program files (x86)\atmel\studio\7.0\toolchain\avr8\avr8-gnu-toolchain\avr\include\stdio.h **** extern int	feof(FILE *__stream);
 860:c:\program files (x86)\atmel\studio\7.0\toolchain\avr8\avr8-gnu-toolchain\avr\include\stdio.h **** 
 861:c:\program files (x86)\atmel\studio\7.0\toolchain\avr8\avr8-gnu-toolchain\avr\include\stdio.h **** #if !defined(__DOXYGEN__)
 862:c:\program files (x86)\atmel\studio\7.0\toolchain\avr8\avr8-gnu-toolchain\avr\include\stdio.h **** /* fast inlined version of feof() */
 863:c:\program files (x86)\atmel\studio\7.0\toolchain\avr8\avr8-gnu-toolchain\avr\include\stdio.h **** #define feof(s) ((s)->flags & __SEOF)
 864:c:\program files (x86)\atmel\studio\7.0\toolchain\avr8\avr8-gnu-toolchain\avr\include\stdio.h **** #endif /* !defined(__DOXYGEN__) */
 865:c:\program files (x86)\atmel\studio\7.0\toolchain\avr8\avr8-gnu-toolchain\avr\include\stdio.h **** 
 866:c:\program files (x86)\atmel\studio\7.0\toolchain\avr8\avr8-gnu-toolchain\avr\include\stdio.h **** /**
 867:c:\program files (x86)\atmel\studio\7.0\toolchain\avr8\avr8-gnu-toolchain\avr\include\stdio.h ****    Test the error flag of \c stream.  This flag can only be cleared
 868:c:\program files (x86)\atmel\studio\7.0\toolchain\avr8\avr8-gnu-toolchain\avr\include\stdio.h ****    by a call to clearerr().
 869:c:\program files (x86)\atmel\studio\7.0\toolchain\avr8\avr8-gnu-toolchain\avr\include\stdio.h ****  */
 870:c:\program files (x86)\atmel\studio\7.0\toolchain\avr8\avr8-gnu-toolchain\avr\include\stdio.h **** extern int	ferror(FILE *__stream);
 871:c:\program files (x86)\atmel\studio\7.0\toolchain\avr8\avr8-gnu-toolchain\avr\include\stdio.h **** 
 872:c:\program files (x86)\atmel\studio\7.0\toolchain\avr8\avr8-gnu-toolchain\avr\include\stdio.h **** #if !defined(__DOXYGEN__)
 873:c:\program files (x86)\atmel\studio\7.0\toolchain\avr8\avr8-gnu-toolchain\avr\include\stdio.h **** /* fast inlined version of ferror() */
 874:c:\program files (x86)\atmel\studio\7.0\toolchain\avr8\avr8-gnu-toolchain\avr\include\stdio.h **** #define ferror(s) ((s)->flags & __SERR)
 875:c:\program files (x86)\atmel\studio\7.0\toolchain\avr8\avr8-gnu-toolchain\avr\include\stdio.h **** #endif /* !defined(__DOXYGEN__) */
 876:c:\program files (x86)\atmel\studio\7.0\toolchain\avr8\avr8-gnu-toolchain\avr\include\stdio.h **** 
 877:c:\program files (x86)\atmel\studio\7.0\toolchain\avr8\avr8-gnu-toolchain\avr\include\stdio.h **** extern int	vfscanf(FILE *__stream, const char *__fmt, va_list __ap);
 878:c:\program files (x86)\atmel\studio\7.0\toolchain\avr8\avr8-gnu-toolchain\avr\include\stdio.h **** 
 879:c:\program files (x86)\atmel\studio\7.0\toolchain\avr8\avr8-gnu-toolchain\avr\include\stdio.h **** /**
 880:c:\program files (x86)\atmel\studio\7.0\toolchain\avr8\avr8-gnu-toolchain\avr\include\stdio.h ****    Variant of vfscanf() using a \c fmt string in program memory.
 881:c:\program files (x86)\atmel\studio\7.0\toolchain\avr8\avr8-gnu-toolchain\avr\include\stdio.h ****  */
 882:c:\program files (x86)\atmel\studio\7.0\toolchain\avr8\avr8-gnu-toolchain\avr\include\stdio.h **** extern int	vfscanf_P(FILE *__stream, const char *__fmt, va_list __ap);
 883:c:\program files (x86)\atmel\studio\7.0\toolchain\avr8\avr8-gnu-toolchain\avr\include\stdio.h **** 
 884:c:\program files (x86)\atmel\studio\7.0\toolchain\avr8\avr8-gnu-toolchain\avr\include\stdio.h **** /**
 885:c:\program files (x86)\atmel\studio\7.0\toolchain\avr8\avr8-gnu-toolchain\avr\include\stdio.h ****    The function \c fscanf performs formatted input, reading the
 886:c:\program files (x86)\atmel\studio\7.0\toolchain\avr8\avr8-gnu-toolchain\avr\include\stdio.h ****    input data from \c stream.
 887:c:\program files (x86)\atmel\studio\7.0\toolchain\avr8\avr8-gnu-toolchain\avr\include\stdio.h **** 
 888:c:\program files (x86)\atmel\studio\7.0\toolchain\avr8\avr8-gnu-toolchain\avr\include\stdio.h ****    See vfscanf() for details.
 889:c:\program files (x86)\atmel\studio\7.0\toolchain\avr8\avr8-gnu-toolchain\avr\include\stdio.h ****  */
 890:c:\program files (x86)\atmel\studio\7.0\toolchain\avr8\avr8-gnu-toolchain\avr\include\stdio.h **** extern int	fscanf(FILE *__stream, const char *__fmt, ...);
 891:c:\program files (x86)\atmel\studio\7.0\toolchain\avr8\avr8-gnu-toolchain\avr\include\stdio.h **** 
 892:c:\program files (x86)\atmel\studio\7.0\toolchain\avr8\avr8-gnu-toolchain\avr\include\stdio.h **** /**
 893:c:\program files (x86)\atmel\studio\7.0\toolchain\avr8\avr8-gnu-toolchain\avr\include\stdio.h ****    Variant of fscanf() using a \c fmt string in program memory.
 894:c:\program files (x86)\atmel\studio\7.0\toolchain\avr8\avr8-gnu-toolchain\avr\include\stdio.h ****  */
 895:c:\program files (x86)\atmel\studio\7.0\toolchain\avr8\avr8-gnu-toolchain\avr\include\stdio.h **** extern int	fscanf_P(FILE *__stream, const char *__fmt, ...);
 896:c:\program files (x86)\atmel\studio\7.0\toolchain\avr8\avr8-gnu-toolchain\avr\include\stdio.h **** 
 897:c:\program files (x86)\atmel\studio\7.0\toolchain\avr8\avr8-gnu-toolchain\avr\include\stdio.h **** /**
 898:c:\program files (x86)\atmel\studio\7.0\toolchain\avr8\avr8-gnu-toolchain\avr\include\stdio.h ****    The function \c scanf performs formatted input from stream \c stdin.
 899:c:\program files (x86)\atmel\studio\7.0\toolchain\avr8\avr8-gnu-toolchain\avr\include\stdio.h **** 
 900:c:\program files (x86)\atmel\studio\7.0\toolchain\avr8\avr8-gnu-toolchain\avr\include\stdio.h ****    See vfscanf() for details.
 901:c:\program files (x86)\atmel\studio\7.0\toolchain\avr8\avr8-gnu-toolchain\avr\include\stdio.h ****  */
 902:c:\program files (x86)\atmel\studio\7.0\toolchain\avr8\avr8-gnu-toolchain\avr\include\stdio.h **** extern int	scanf(const char *__fmt, ...);
 903:c:\program files (x86)\atmel\studio\7.0\toolchain\avr8\avr8-gnu-toolchain\avr\include\stdio.h **** 
 904:c:\program files (x86)\atmel\studio\7.0\toolchain\avr8\avr8-gnu-toolchain\avr\include\stdio.h **** /**
 905:c:\program files (x86)\atmel\studio\7.0\toolchain\avr8\avr8-gnu-toolchain\avr\include\stdio.h ****    Variant of scanf() where \c fmt resides in program memory.
 906:c:\program files (x86)\atmel\studio\7.0\toolchain\avr8\avr8-gnu-toolchain\avr\include\stdio.h ****  */
 907:c:\program files (x86)\atmel\studio\7.0\toolchain\avr8\avr8-gnu-toolchain\avr\include\stdio.h **** extern int	scanf_P(const char *__fmt, ...);
 908:c:\program files (x86)\atmel\studio\7.0\toolchain\avr8\avr8-gnu-toolchain\avr\include\stdio.h **** 
 909:c:\program files (x86)\atmel\studio\7.0\toolchain\avr8\avr8-gnu-toolchain\avr\include\stdio.h **** /**
 910:c:\program files (x86)\atmel\studio\7.0\toolchain\avr8\avr8-gnu-toolchain\avr\include\stdio.h ****    The function \c vscanf performs formatted input from stream
 911:c:\program files (x86)\atmel\studio\7.0\toolchain\avr8\avr8-gnu-toolchain\avr\include\stdio.h ****    \c stdin, taking a variable argument list as in vfscanf().
 912:c:\program files (x86)\atmel\studio\7.0\toolchain\avr8\avr8-gnu-toolchain\avr\include\stdio.h **** 
 913:c:\program files (x86)\atmel\studio\7.0\toolchain\avr8\avr8-gnu-toolchain\avr\include\stdio.h ****    See vfscanf() for details.
 914:c:\program files (x86)\atmel\studio\7.0\toolchain\avr8\avr8-gnu-toolchain\avr\include\stdio.h **** */
 915:c:\program files (x86)\atmel\studio\7.0\toolchain\avr8\avr8-gnu-toolchain\avr\include\stdio.h **** extern int	vscanf(const char *__fmt, va_list __ap);
 916:c:\program files (x86)\atmel\studio\7.0\toolchain\avr8\avr8-gnu-toolchain\avr\include\stdio.h **** 
 917:c:\program files (x86)\atmel\studio\7.0\toolchain\avr8\avr8-gnu-toolchain\avr\include\stdio.h **** /**
 918:c:\program files (x86)\atmel\studio\7.0\toolchain\avr8\avr8-gnu-toolchain\avr\include\stdio.h ****    The function \c sscanf performs formatted input, reading the
 919:c:\program files (x86)\atmel\studio\7.0\toolchain\avr8\avr8-gnu-toolchain\avr\include\stdio.h ****    input data from the buffer pointed to by \c buf.
 920:c:\program files (x86)\atmel\studio\7.0\toolchain\avr8\avr8-gnu-toolchain\avr\include\stdio.h **** 
 921:c:\program files (x86)\atmel\studio\7.0\toolchain\avr8\avr8-gnu-toolchain\avr\include\stdio.h ****    See vfscanf() for details.
 922:c:\program files (x86)\atmel\studio\7.0\toolchain\avr8\avr8-gnu-toolchain\avr\include\stdio.h ****  */
 923:c:\program files (x86)\atmel\studio\7.0\toolchain\avr8\avr8-gnu-toolchain\avr\include\stdio.h **** extern int	sscanf(const char *__buf, const char *__fmt, ...);
 924:c:\program files (x86)\atmel\studio\7.0\toolchain\avr8\avr8-gnu-toolchain\avr\include\stdio.h **** 
 925:c:\program files (x86)\atmel\studio\7.0\toolchain\avr8\avr8-gnu-toolchain\avr\include\stdio.h **** /**
 926:c:\program files (x86)\atmel\studio\7.0\toolchain\avr8\avr8-gnu-toolchain\avr\include\stdio.h ****    Variant of sscanf() using a \c fmt string in program memory.
 927:c:\program files (x86)\atmel\studio\7.0\toolchain\avr8\avr8-gnu-toolchain\avr\include\stdio.h ****  */
 928:c:\program files (x86)\atmel\studio\7.0\toolchain\avr8\avr8-gnu-toolchain\avr\include\stdio.h **** extern int	sscanf_P(const char *__buf, const char *__fmt, ...);
 929:c:\program files (x86)\atmel\studio\7.0\toolchain\avr8\avr8-gnu-toolchain\avr\include\stdio.h **** 
 930:c:\program files (x86)\atmel\studio\7.0\toolchain\avr8\avr8-gnu-toolchain\avr\include\stdio.h **** #if defined(__DOXYGEN__)
 931:c:\program files (x86)\atmel\studio\7.0\toolchain\avr8\avr8-gnu-toolchain\avr\include\stdio.h **** /**
 932:c:\program files (x86)\atmel\studio\7.0\toolchain\avr8\avr8-gnu-toolchain\avr\include\stdio.h ****    Flush \c stream.
 933:c:\program files (x86)\atmel\studio\7.0\toolchain\avr8\avr8-gnu-toolchain\avr\include\stdio.h **** 
 934:c:\program files (x86)\atmel\studio\7.0\toolchain\avr8\avr8-gnu-toolchain\avr\include\stdio.h ****    This is a null operation provided for source-code compatibility
 935:c:\program files (x86)\atmel\studio\7.0\toolchain\avr8\avr8-gnu-toolchain\avr\include\stdio.h ****    only, as the standard IO implementation currently does not perform
 936:c:\program files (x86)\atmel\studio\7.0\toolchain\avr8\avr8-gnu-toolchain\avr\include\stdio.h ****    any buffering.
 937:c:\program files (x86)\atmel\studio\7.0\toolchain\avr8\avr8-gnu-toolchain\avr\include\stdio.h ****  */
 938:c:\program files (x86)\atmel\studio\7.0\toolchain\avr8\avr8-gnu-toolchain\avr\include\stdio.h **** extern int	fflush(FILE *stream);
 939:c:\program files (x86)\atmel\studio\7.0\toolchain\avr8\avr8-gnu-toolchain\avr\include\stdio.h **** #else
 940:c:\program files (x86)\atmel\studio\7.0\toolchain\avr8\avr8-gnu-toolchain\avr\include\stdio.h **** static __inline__ int fflush(FILE *stream __attribute__((unused)))
 941:c:\program files (x86)\atmel\studio\7.0\toolchain\avr8\avr8-gnu-toolchain\avr\include\stdio.h **** {
  15               		.loc 1 941 0
  16               		.cfi_startproc
  17 0000 CF93      		push r28
  18               	.LCFI0:
  19               		.cfi_def_cfa_offset 3
  20               		.cfi_offset 28, -2
  21 0002 DF93      		push r29
  22               	.LCFI1:
  23               		.cfi_def_cfa_offset 4
  24               		.cfi_offset 29, -3
  25 0004 00D0      		rcall .
  26               	.LCFI2:
  27               		.cfi_def_cfa_offset 6
  28 0006 CDB7      		in r28,__SP_L__
  29 0008 DEB7      		in r29,__SP_H__
  30               	.LCFI3:
  31               		.cfi_def_cfa_register 28
  32               	/* prologue: function */
  33               	/* frame size = 2 */
  34               	/* stack size = 4 */
  35               	.L__stack_usage = 4
  36 000a 9A83      		std Y+2,r25
  37 000c 8983      		std Y+1,r24
 942:c:\program files (x86)\atmel\studio\7.0\toolchain\avr8\avr8-gnu-toolchain\avr\include\stdio.h **** 	return 0;
  38               		.loc 1 942 0
  39 000e 80E0      		ldi r24,0
  40 0010 90E0      		ldi r25,0
  41               	/* epilogue start */
 943:c:\program files (x86)\atmel\studio\7.0\toolchain\avr8\avr8-gnu-toolchain\avr\include\stdio.h **** }
  42               		.loc 1 943 0
  43 0012 0F90      		pop __tmp_reg__
  44 0014 0F90      		pop __tmp_reg__
  45 0016 DF91      		pop r29
  46 0018 CF91      		pop r28
  47 001a 0895      		ret
  48               		.cfi_endproc
  49               	.LFE0:
  51               	.global	explain
  53               	explain:
  54               	.LFB7:
  55               		.file 2 "lp_solve_5.5/lp_report.c"
   1:lp_solve_5.5/lp_report.c **** 
   2:lp_solve_5.5/lp_report.c **** /*
   3:lp_solve_5.5/lp_report.c ****     Mixed integer programming optimization drivers for lp_solve v5.0+
   4:lp_solve_5.5/lp_report.c ****    ----------------------------------------------------------------------------------
   5:lp_solve_5.5/lp_report.c ****     Author:        Michel Berkelaar (to lp_solve v3.2),
   6:lp_solve_5.5/lp_report.c ****                    Kjell Eikland
   7:lp_solve_5.5/lp_report.c ****     Contact:
   8:lp_solve_5.5/lp_report.c ****     License terms: LGPL.
   9:lp_solve_5.5/lp_report.c **** 
  10:lp_solve_5.5/lp_report.c ****     Requires:      stdarg.h, lp_lib.h
  11:lp_solve_5.5/lp_report.c **** 
  12:lp_solve_5.5/lp_report.c ****     Release notes:
  13:lp_solve_5.5/lp_report.c ****     v5.0.0 3   1 January 2004      New unit isolating reporting routines.
  14:lp_solve_5.5/lp_report.c ****     v5.2.0.0   1 December 2005     Addition of Matrix Market writing function.
  15:lp_solve_5.5/lp_report.c **** 
  16:lp_solve_5.5/lp_report.c ****    ----------------------------------------------------------------------------------
  17:lp_solve_5.5/lp_report.c **** */
  18:lp_solve_5.5/lp_report.c **** 
  19:lp_solve_5.5/lp_report.c **** #include <stdio.h>
  20:lp_solve_5.5/lp_report.c **** #include <stdarg.h>
  21:lp_solve_5.5/lp_report.c **** #include <string.h>
  22:lp_solve_5.5/lp_report.c **** 
  23:lp_solve_5.5/lp_report.c **** #include "lp_lib.h"
  24:lp_solve_5.5/lp_report.c **** #include "lp_scale.h"
  25:lp_solve_5.5/lp_report.c **** #include "commonlib.h"
  26:lp_solve_5.5/lp_report.c **** #include "lp_report.h"
  27:lp_solve_5.5/lp_report.c **** 
  28:lp_solve_5.5/lp_report.c **** #include "mmio.h"
  29:lp_solve_5.5/lp_report.c **** 
  30:lp_solve_5.5/lp_report.c **** #ifdef FORTIFY
  31:lp_solve_5.5/lp_report.c **** # include "lp_fortify.h"
  32:lp_solve_5.5/lp_report.c **** #endif
  33:lp_solve_5.5/lp_report.c **** 
  34:lp_solve_5.5/lp_report.c **** /* Define buffer-size controled function mapping */
  35:lp_solve_5.5/lp_report.c **** # if defined _MSC_VER
  36:lp_solve_5.5/lp_report.c **** #  define vsnprintf _vsnprintf
  37:lp_solve_5.5/lp_report.c **** # endif
  38:lp_solve_5.5/lp_report.c **** 
  39:lp_solve_5.5/lp_report.c **** /* Various reporting functions for lp_solve                                  */
  40:lp_solve_5.5/lp_report.c **** /* ------------------------------------------------------------------------- */
  41:lp_solve_5.5/lp_report.c **** 
  42:lp_solve_5.5/lp_report.c **** /* First define general utilties for reporting and output */
  43:lp_solve_5.5/lp_report.c **** char * __VACALL explain(lprec *lp, char *format, ...)
  44:lp_solve_5.5/lp_report.c **** {
  56               		.loc 2 44 0
  57               		.cfi_startproc
  58 001c CF93      		push r28
  59               	.LCFI4:
  60               		.cfi_def_cfa_offset 3
  61               		.cfi_offset 28, -2
  62 001e DF93      		push r29
  63               	.LCFI5:
  64               		.cfi_def_cfa_offset 4
  65               		.cfi_offset 29, -3
  66 0020 CDB7      		in r28,__SP_L__
  67 0022 DEB7      		in r29,__SP_H__
  68               	.LCFI6:
  69               		.cfi_def_cfa_register 28
  70 0024 C350      		subi r28,3
  71 0026 D240      		sbci r29,2
  72               	.LCFI7:
  73               		.cfi_def_cfa_offset 519
  74 0028 0FB6      		in __tmp_reg__,__SREG__
  75 002a F894      		cli
  76 002c DEBF      		out __SP_H__,r29
  77 002e 0FBE      		out __SREG__,__tmp_reg__
  78 0030 CDBF      		out __SP_L__,r28
  79               	/* prologue: function */
  80               	/* frame size = 515 */
  81               	/* stack size = 517 */
  82               	.L__stack_usage = 517
  45:lp_solve_5.5/lp_report.c ****   char buff[DEF_STRBUFSIZE+1];
  46:lp_solve_5.5/lp_report.c ****   va_list ap;
  47:lp_solve_5.5/lp_report.c **** 
  48:lp_solve_5.5/lp_report.c ****   va_start(ap, format);
  83               		.loc 2 48 0
  84 0032 9E01      		movw r18,r28
  85 0034 245F      		subi r18,-12
  86 0036 3D4F      		sbci r19,-3
  87 0038 CE01      		movw r24,r28
  88 003a 8E5F      		subi r24,-2
  89 003c 9D4F      		sbci r25,-3
  90 003e FC01      		movw r30,r24
  91 0040 3183      		std Z+1,r19
  92 0042 2083      		st Z,r18
  49:lp_solve_5.5/lp_report.c ****   vsnprintf(buff, DEF_STRBUFSIZE, format, ap);
  93               		.loc 2 49 0
  94 0044 CE01      		movw r24,r28
  95 0046 8E5F      		subi r24,-2
  96 0048 9D4F      		sbci r25,-3
  97 004a FC01      		movw r30,r24
  98 004c 2081      		ld r18,Z
  99 004e 3181      		ldd r19,Z+1
 100 0050 C65F      		subi r28,lo8(-522)
 101 0052 DD4F      		sbci r29,hi8(-522)
 102 0054 8881      		ld r24,Y
 103 0056 9981      		ldd r25,Y+1
 104 0058 CA50      		subi r28,lo8(522)
 105 005a D240      		sbci r29,hi8(522)
 106 005c AC01      		movw r20,r24
 107 005e 60E0      		ldi r22,0
 108 0060 72E0      		ldi r23,lo8(2)
 109 0062 CE01      		movw r24,r28
 110 0064 0196      		adiw r24,1
 111 0066 0E94 0000 		call vsnprintf
  50:lp_solve_5.5/lp_report.c ****   va_end(ap);
  51:lp_solve_5.5/lp_report.c ****   allocCHAR(lp, &(lp->ex_status), (int) strlen(buff), AUTOMATIC);
 112               		.loc 2 51 0
 113 006a CE01      		movw r24,r28
 114 006c 0196      		adiw r24,1
 115 006e 0E94 0000 		call strlen
 116 0072 AC01      		movw r20,r24
 117 0074 C85F      		subi r28,lo8(-520)
 118 0076 DD4F      		sbci r29,hi8(-520)
 119 0078 8881      		ld r24,Y
 120 007a 9981      		ldd r25,Y+1
 121 007c C850      		subi r28,lo8(520)
 122 007e D240      		sbci r29,hi8(520)
 123 0080 BC01      		movw r22,r24
 124 0082 6257      		subi r22,114
 125 0084 7C4F      		sbci r23,-4
 126 0086 C85F      		subi r28,lo8(-520)
 127 0088 DD4F      		sbci r29,hi8(-520)
 128 008a 8881      		ld r24,Y
 129 008c 9981      		ldd r25,Y+1
 130 008e C850      		subi r28,lo8(520)
 131 0090 D240      		sbci r29,hi8(520)
 132 0092 22E0      		ldi r18,lo8(2)
 133 0094 0E94 0000 		call allocCHAR
  52:lp_solve_5.5/lp_report.c ****   strcpy(lp->ex_status, buff);
 134               		.loc 2 52 0
 135 0098 C85F      		subi r28,lo8(-520)
 136 009a DD4F      		sbci r29,hi8(-520)
 137 009c 8881      		ld r24,Y
 138 009e 9981      		ldd r25,Y+1
 139 00a0 C850      		subi r28,lo8(520)
 140 00a2 D240      		sbci r29,hi8(520)
 141 00a4 8257      		subi r24,114
 142 00a6 9C4F      		sbci r25,-4
 143 00a8 FC01      		movw r30,r24
 144 00aa 8081      		ld r24,Z
 145 00ac 9181      		ldd r25,Z+1
 146 00ae 9E01      		movw r18,r28
 147 00b0 2F5F      		subi r18,-1
 148 00b2 3F4F      		sbci r19,-1
 149 00b4 B901      		movw r22,r18
 150 00b6 0E94 0000 		call strcpy
  53:lp_solve_5.5/lp_report.c ****   return( lp->ex_status );
 151               		.loc 2 53 0
 152 00ba C85F      		subi r28,lo8(-520)
 153 00bc DD4F      		sbci r29,hi8(-520)
 154 00be 8881      		ld r24,Y
 155 00c0 9981      		ldd r25,Y+1
 156 00c2 C850      		subi r28,lo8(520)
 157 00c4 D240      		sbci r29,hi8(520)
 158 00c6 8257      		subi r24,114
 159 00c8 9C4F      		sbci r25,-4
 160 00ca FC01      		movw r30,r24
 161 00cc 8081      		ld r24,Z
 162 00ce 9181      		ldd r25,Z+1
 163               	/* epilogue start */
  54:lp_solve_5.5/lp_report.c **** }
 164               		.loc 2 54 0
 165 00d0 CD5F      		subi r28,-3
 166 00d2 DD4F      		sbci r29,-3
 167 00d4 0FB6      		in __tmp_reg__,__SREG__
 168 00d6 F894      		cli
 169 00d8 DEBF      		out __SP_H__,r29
 170 00da 0FBE      		out __SREG__,__tmp_reg__
 171 00dc CDBF      		out __SP_L__,r28
 172 00de DF91      		pop r29
 173 00e0 CF91      		pop r28
 174 00e2 0895      		ret
 175               		.cfi_endproc
 176               	.LFE7:
 178               	.global	report
 180               	report:
 181               	.LFB8:
  55:lp_solve_5.5/lp_report.c **** void __VACALL report(lprec *lp, int level, char *format, ...)
  56:lp_solve_5.5/lp_report.c **** {
 182               		.loc 2 56 0
 183               		.cfi_startproc
 184 00e4 CF93      		push r28
 185               	.LCFI8:
 186               		.cfi_def_cfa_offset 3
 187               		.cfi_offset 28, -2
 188 00e6 DF93      		push r29
 189               	.LCFI9:
 190               		.cfi_def_cfa_offset 4
 191               		.cfi_offset 29, -3
 192 00e8 CDB7      		in r28,__SP_L__
 193 00ea DEB7      		in r29,__SP_H__
 194               	.LCFI10:
 195               		.cfi_def_cfa_register 28
 196 00ec C350      		subi r28,3
 197 00ee D240      		sbci r29,2
 198               	.LCFI11:
 199               		.cfi_def_cfa_offset 519
 200 00f0 0FB6      		in __tmp_reg__,__SREG__
 201 00f2 F894      		cli
 202 00f4 DEBF      		out __SP_H__,r29
 203 00f6 0FBE      		out __SREG__,__tmp_reg__
 204 00f8 CDBF      		out __SP_L__,r28
 205               	/* prologue: function */
 206               	/* frame size = 515 */
 207               	/* stack size = 517 */
 208               	.L__stack_usage = 517
  57:lp_solve_5.5/lp_report.c ****   char buff[DEF_STRBUFSIZE+1];
  58:lp_solve_5.5/lp_report.c ****   va_list ap;
  59:lp_solve_5.5/lp_report.c **** 
  60:lp_solve_5.5/lp_report.c ****   if(lp == NULL) {
 209               		.loc 2 60 0
 210 00fa C85F      		subi r28,lo8(-520)
 211 00fc DD4F      		sbci r29,hi8(-520)
 212 00fe 8881      		ld r24,Y
 213 0100 9981      		ldd r25,Y+1
 214 0102 C850      		subi r28,lo8(520)
 215 0104 D240      		sbci r29,hi8(520)
 216 0106 892B      		or r24,r25
 217 0108 01F4      		brne .L6
  61:lp_solve_5.5/lp_report.c ****     va_start(ap, format);
 218               		.loc 2 61 0
 219 010a 9E01      		movw r18,r28
 220 010c 225F      		subi r18,-14
 221 010e 3D4F      		sbci r19,-3
 222 0110 CE01      		movw r24,r28
 223 0112 8E5F      		subi r24,-2
 224 0114 9D4F      		sbci r25,-3
 225 0116 FC01      		movw r30,r24
 226 0118 3183      		std Z+1,r19
 227 011a 2083      		st Z,r18
  62:lp_solve_5.5/lp_report.c ****     vfprintf(stderr, format, ap);
 228               		.loc 2 62 0
 229 011c CE01      		movw r24,r28
 230 011e 8E5F      		subi r24,-2
 231 0120 9D4F      		sbci r25,-3
 232 0122 FC01      		movw r30,r24
 233 0124 4081      		ld r20,Z
 234 0126 5181      		ldd r21,Z+1
 235 0128 8091 0000 		lds r24,__iob+4
 236 012c 9091 0000 		lds r25,__iob+4+1
 237 0130 C45F      		subi r28,lo8(-524)
 238 0132 DD4F      		sbci r29,hi8(-524)
 239 0134 2881      		ld r18,Y
 240 0136 3981      		ldd r19,Y+1
 241 0138 CC50      		subi r28,lo8(524)
 242 013a D240      		sbci r29,hi8(524)
 243 013c B901      		movw r22,r18
 244 013e 0E94 0000 		call vfprintf
  63:lp_solve_5.5/lp_report.c ****     va_end(ap);
  64:lp_solve_5.5/lp_report.c ****   }
  65:lp_solve_5.5/lp_report.c ****   else if(level <= lp->verbose) {
  66:lp_solve_5.5/lp_report.c ****     if(lp->writelog != NULL) {
  67:lp_solve_5.5/lp_report.c ****       va_start(ap, format);
  68:lp_solve_5.5/lp_report.c ****       vsnprintf(buff, DEF_STRBUFSIZE, format, ap);
  69:lp_solve_5.5/lp_report.c ****       va_end(ap);
  70:lp_solve_5.5/lp_report.c ****       lp->writelog(lp, lp->loghandle, buff);
  71:lp_solve_5.5/lp_report.c ****     }
  72:lp_solve_5.5/lp_report.c ****     if(lp->outstream != NULL) {
  73:lp_solve_5.5/lp_report.c ****       va_start(ap, format);
  74:lp_solve_5.5/lp_report.c ****       vfprintf(lp->outstream, format, ap);
  75:lp_solve_5.5/lp_report.c ****       va_end(ap);
  76:lp_solve_5.5/lp_report.c ****       if(lp->outstream != stdout)
  77:lp_solve_5.5/lp_report.c ****         fflush(lp->outstream);
  78:lp_solve_5.5/lp_report.c ****     }
  79:lp_solve_5.5/lp_report.c ****   }
  80:lp_solve_5.5/lp_report.c **** #ifdef xParanoia
  81:lp_solve_5.5/lp_report.c ****   if(level == CRITICAL)
  82:lp_solve_5.5/lp_report.c ****     raise(SIGSEGV);
  83:lp_solve_5.5/lp_report.c **** #endif
  84:lp_solve_5.5/lp_report.c **** }
 245               		.loc 2 84 0
 246 0142 00C0      		rjmp .L9
 247               	.L6:
  65:lp_solve_5.5/lp_report.c ****     if(lp->writelog != NULL) {
 248               		.loc 2 65 0
 249 0144 C85F      		subi r28,lo8(-520)
 250 0146 DD4F      		sbci r29,hi8(-520)
 251 0148 8881      		ld r24,Y
 252 014a 9981      		ldd r25,Y+1
 253 014c C850      		subi r28,lo8(520)
 254 014e D240      		sbci r29,hi8(520)
 255 0150 885A      		subi r24,-88
 256 0152 9D4F      		sbci r25,-3
 257 0154 FC01      		movw r30,r24
 258 0156 2081      		ld r18,Z
 259 0158 3181      		ldd r19,Z+1
 260 015a C65F      		subi r28,lo8(-522)
 261 015c DD4F      		sbci r29,hi8(-522)
 262 015e 8881      		ld r24,Y
 263 0160 9981      		ldd r25,Y+1
 264 0162 CA50      		subi r28,lo8(522)
 265 0164 D240      		sbci r29,hi8(522)
 266 0166 2817      		cp r18,r24
 267 0168 3907      		cpc r19,r25
 268 016a 04F4      		brge .+2
 269 016c 00C0      		rjmp .L9
  66:lp_solve_5.5/lp_report.c ****       va_start(ap, format);
 270               		.loc 2 66 0
 271 016e C85F      		subi r28,lo8(-520)
 272 0170 DD4F      		sbci r29,hi8(-520)
 273 0172 8881      		ld r24,Y
 274 0174 9981      		ldd r25,Y+1
 275 0176 C850      		subi r28,lo8(520)
 276 0178 D240      		sbci r29,hi8(520)
 277 017a 8650      		subi r24,6
 278 017c 9C4F      		sbci r25,-4
 279 017e FC01      		movw r30,r24
 280 0180 8081      		ld r24,Z
 281 0182 9181      		ldd r25,Z+1
 282 0184 892B      		or r24,r25
 283 0186 01F0      		breq .L8
  67:lp_solve_5.5/lp_report.c ****       vsnprintf(buff, DEF_STRBUFSIZE, format, ap);
 284               		.loc 2 67 0
 285 0188 9E01      		movw r18,r28
 286 018a 225F      		subi r18,-14
 287 018c 3D4F      		sbci r19,-3
 288 018e CE01      		movw r24,r28
 289 0190 8E5F      		subi r24,-2
 290 0192 9D4F      		sbci r25,-3
 291 0194 FC01      		movw r30,r24
 292 0196 3183      		std Z+1,r19
 293 0198 2083      		st Z,r18
  68:lp_solve_5.5/lp_report.c ****       va_end(ap);
 294               		.loc 2 68 0
 295 019a CE01      		movw r24,r28
 296 019c 8E5F      		subi r24,-2
 297 019e 9D4F      		sbci r25,-3
 298 01a0 FC01      		movw r30,r24
 299 01a2 2081      		ld r18,Z
 300 01a4 3181      		ldd r19,Z+1
 301 01a6 C45F      		subi r28,lo8(-524)
 302 01a8 DD4F      		sbci r29,hi8(-524)
 303 01aa 8881      		ld r24,Y
 304 01ac 9981      		ldd r25,Y+1
 305 01ae CC50      		subi r28,lo8(524)
 306 01b0 D240      		sbci r29,hi8(524)
 307 01b2 AC01      		movw r20,r24
 308 01b4 60E0      		ldi r22,0
 309 01b6 72E0      		ldi r23,lo8(2)
 310 01b8 CE01      		movw r24,r28
 311 01ba 0196      		adiw r24,1
 312 01bc 0E94 0000 		call vsnprintf
  70:lp_solve_5.5/lp_report.c ****     }
 313               		.loc 2 70 0
 314 01c0 C85F      		subi r28,lo8(-520)
 315 01c2 DD4F      		sbci r29,hi8(-520)
 316 01c4 8881      		ld r24,Y
 317 01c6 9981      		ldd r25,Y+1
 318 01c8 C850      		subi r28,lo8(520)
 319 01ca D240      		sbci r29,hi8(520)
 320 01cc 8650      		subi r24,6
 321 01ce 9C4F      		sbci r25,-4
 322 01d0 FC01      		movw r30,r24
 323 01d2 2081      		ld r18,Z
 324 01d4 3181      		ldd r19,Z+1
 325 01d6 C85F      		subi r28,lo8(-520)
 326 01d8 DD4F      		sbci r29,hi8(-520)
 327 01da 8881      		ld r24,Y
 328 01dc 9981      		ldd r25,Y+1
 329 01de C850      		subi r28,lo8(520)
 330 01e0 D240      		sbci r29,hi8(520)
 331 01e2 8450      		subi r24,4
 332 01e4 9C4F      		sbci r25,-4
 333 01e6 FC01      		movw r30,r24
 334 01e8 6081      		ld r22,Z
 335 01ea 7181      		ldd r23,Z+1
 336 01ec C85F      		subi r28,lo8(-520)
 337 01ee DD4F      		sbci r29,hi8(-520)
 338 01f0 8881      		ld r24,Y
 339 01f2 9981      		ldd r25,Y+1
 340 01f4 C850      		subi r28,lo8(520)
 341 01f6 D240      		sbci r29,hi8(520)
 342 01f8 AE01      		movw r20,r28
 343 01fa 4F5F      		subi r20,-1
 344 01fc 5F4F      		sbci r21,-1
 345 01fe F901      		movw r30,r18
 346 0200 0995      		icall
 347               	.L8:
  72:lp_solve_5.5/lp_report.c ****       va_start(ap, format);
 348               		.loc 2 72 0
 349 0202 C85F      		subi r28,lo8(-520)
 350 0204 DD4F      		sbci r29,hi8(-520)
 351 0206 8881      		ld r24,Y
 352 0208 9981      		ldd r25,Y+1
 353 020a C850      		subi r28,lo8(520)
 354 020c D240      		sbci r29,hi8(520)
 355 020e 845A      		subi r24,-92
 356 0210 9D4F      		sbci r25,-3
 357 0212 FC01      		movw r30,r24
 358 0214 8081      		ld r24,Z
 359 0216 9181      		ldd r25,Z+1
 360 0218 892B      		or r24,r25
 361 021a 01F4      		brne .+2
 362 021c 00C0      		rjmp .L9
  73:lp_solve_5.5/lp_report.c ****       vfprintf(lp->outstream, format, ap);
 363               		.loc 2 73 0
 364 021e 9E01      		movw r18,r28
 365 0220 225F      		subi r18,-14
 366 0222 3D4F      		sbci r19,-3
 367 0224 CE01      		movw r24,r28
 368 0226 8E5F      		subi r24,-2
 369 0228 9D4F      		sbci r25,-3
 370 022a FC01      		movw r30,r24
 371 022c 3183      		std Z+1,r19
 372 022e 2083      		st Z,r18
  74:lp_solve_5.5/lp_report.c ****       va_end(ap);
 373               		.loc 2 74 0
 374 0230 CE01      		movw r24,r28
 375 0232 8E5F      		subi r24,-2
 376 0234 9D4F      		sbci r25,-3
 377 0236 FC01      		movw r30,r24
 378 0238 4081      		ld r20,Z
 379 023a 5181      		ldd r21,Z+1
 380 023c C85F      		subi r28,lo8(-520)
 381 023e DD4F      		sbci r29,hi8(-520)
 382 0240 8881      		ld r24,Y
 383 0242 9981      		ldd r25,Y+1
 384 0244 C850      		subi r28,lo8(520)
 385 0246 D240      		sbci r29,hi8(520)
 386 0248 845A      		subi r24,-92
 387 024a 9D4F      		sbci r25,-3
 388 024c FC01      		movw r30,r24
 389 024e 8081      		ld r24,Z
 390 0250 9181      		ldd r25,Z+1
 391 0252 C45F      		subi r28,lo8(-524)
 392 0254 DD4F      		sbci r29,hi8(-524)
 393 0256 2881      		ld r18,Y
 394 0258 3981      		ldd r19,Y+1
 395 025a CC50      		subi r28,lo8(524)
 396 025c D240      		sbci r29,hi8(524)
 397 025e B901      		movw r22,r18
 398 0260 0E94 0000 		call vfprintf
  76:lp_solve_5.5/lp_report.c ****         fflush(lp->outstream);
 399               		.loc 2 76 0
 400 0264 C85F      		subi r28,lo8(-520)
 401 0266 DD4F      		sbci r29,hi8(-520)
 402 0268 8881      		ld r24,Y
 403 026a 9981      		ldd r25,Y+1
 404 026c C850      		subi r28,lo8(520)
 405 026e D240      		sbci r29,hi8(520)
 406 0270 845A      		subi r24,-92
 407 0272 9D4F      		sbci r25,-3
 408 0274 FC01      		movw r30,r24
 409 0276 2081      		ld r18,Z
 410 0278 3181      		ldd r19,Z+1
 411 027a 8091 0000 		lds r24,__iob+2
 412 027e 9091 0000 		lds r25,__iob+2+1
 413 0282 2817      		cp r18,r24
 414 0284 3907      		cpc r19,r25
 415 0286 01F0      		breq .L9
  77:lp_solve_5.5/lp_report.c ****     }
 416               		.loc 2 77 0
 417 0288 C85F      		subi r28,lo8(-520)
 418 028a DD4F      		sbci r29,hi8(-520)
 419 028c 8881      		ld r24,Y
 420 028e 9981      		ldd r25,Y+1
 421 0290 C850      		subi r28,lo8(520)
 422 0292 D240      		sbci r29,hi8(520)
 423 0294 845A      		subi r24,-92
 424 0296 9D4F      		sbci r25,-3
 425 0298 FC01      		movw r30,r24
 426 029a 8081      		ld r24,Z
 427 029c 9181      		ldd r25,Z+1
 428 029e 0E94 0000 		call fflush
 429               	.L9:
 430               		.loc 2 84 0
 431 02a2 0000      		nop
 432               	/* epilogue start */
 433 02a4 CD5F      		subi r28,-3
 434 02a6 DD4F      		sbci r29,-3
 435 02a8 0FB6      		in __tmp_reg__,__SREG__
 436 02aa F894      		cli
 437 02ac DEBF      		out __SP_H__,r29
 438 02ae 0FBE      		out __SREG__,__tmp_reg__
 439 02b0 CDBF      		out __SP_L__,r28
 440 02b2 DF91      		pop r29
 441 02b4 CF91      		pop r28
 442 02b6 0895      		ret
 443               		.cfi_endproc
 444               	.LFE8:
 446               		.section	.rodata
 447               	.LC0:
 448 0000 2532 6400 		.string	"%2d"
 449               	.LC1:
 450 0004 2D2D 00   		.string	"--"
 451               	.LC2:
 452 0007 202A 2A2A 		.string	" *** too deep ***"
 452      2074 6F6F 
 452      2064 6565 
 452      7020 2A2A 
 452      2A00 
 453               	.LC3:
 454 0019 3E20 00   		.string	"> "
 455               		.text
 456               	.global	print_indent
 458               	print_indent:
 459               	.LFB9:
  85:lp_solve_5.5/lp_report.c **** 
  86:lp_solve_5.5/lp_report.c **** STATIC void print_indent(lprec *lp)
  87:lp_solve_5.5/lp_report.c **** {
 460               		.loc 2 87 0
 461               		.cfi_startproc
 462 02b8 CF93      		push r28
 463               	.LCFI12:
 464               		.cfi_def_cfa_offset 3
 465               		.cfi_offset 28, -2
 466 02ba DF93      		push r29
 467               	.LCFI13:
 468               		.cfi_def_cfa_offset 4
 469               		.cfi_offset 29, -3
 470 02bc 00D0      		rcall .
 471 02be 00D0      		rcall .
 472               	.LCFI14:
 473               		.cfi_def_cfa_offset 8
 474 02c0 CDB7      		in r28,__SP_L__
 475 02c2 DEB7      		in r29,__SP_H__
 476               	.LCFI15:
 477               		.cfi_def_cfa_register 28
 478               	/* prologue: function */
 479               	/* frame size = 4 */
 480               	/* stack size = 6 */
 481               	.L__stack_usage = 6
 482 02c4 9C83      		std Y+4,r25
 483 02c6 8B83      		std Y+3,r24
  88:lp_solve_5.5/lp_report.c ****   int i;
  89:lp_solve_5.5/lp_report.c **** 
  90:lp_solve_5.5/lp_report.c ****   report(lp, NEUTRAL, "%2d", lp->bb_level);
 484               		.loc 2 90 0
 485 02c8 8B81      		ldd r24,Y+3
 486 02ca 9C81      		ldd r25,Y+4
 487 02cc 805D      		subi r24,-48
 488 02ce 9C4F      		sbci r25,-4
 489 02d0 FC01      		movw r30,r24
 490 02d2 8081      		ld r24,Z
 491 02d4 9181      		ldd r25,Z+1
 492 02d6 292F      		mov r18,r25
 493 02d8 2F93      		push r18
 494 02da 8F93      		push r24
 495 02dc 80E0      		ldi r24,lo8(.LC0)
 496 02de 90E0      		ldi r25,hi8(.LC0)
 497 02e0 892F      		mov r24,r25
 498 02e2 8F93      		push r24
 499 02e4 80E0      		ldi r24,lo8(.LC0)
 500 02e6 90E0      		ldi r25,hi8(.LC0)
 501 02e8 8F93      		push r24
 502 02ea 1F92      		push __zero_reg__
 503 02ec 1F92      		push __zero_reg__
 504 02ee 8C81      		ldd r24,Y+4
 505 02f0 8F93      		push r24
 506 02f2 8B81      		ldd r24,Y+3
 507 02f4 8F93      		push r24
 508 02f6 0E94 0000 		call report
 509 02fa 8DB7      		in r24,__SP_L__
 510 02fc 9EB7      		in r25,__SP_H__
 511 02fe 0896      		adiw r24,8
 512 0300 0FB6      		in __tmp_reg__,__SREG__
 513 0302 F894      		cli
 514 0304 DEBF      		out __SP_H__,r29
 515 0306 0FBE      		out __SREG__,__tmp_reg__
 516 0308 CDBF      		out __SP_L__,r28
  91:lp_solve_5.5/lp_report.c ****   if(lp->bb_level < 50) /* useless otherwise */
 517               		.loc 2 91 0
 518 030a 8B81      		ldd r24,Y+3
 519 030c 9C81      		ldd r25,Y+4
 520 030e 805D      		subi r24,-48
 521 0310 9C4F      		sbci r25,-4
 522 0312 FC01      		movw r30,r24
 523 0314 8081      		ld r24,Z
 524 0316 9181      		ldd r25,Z+1
 525 0318 C297      		sbiw r24,50
 526 031a 04F4      		brge .L11
  92:lp_solve_5.5/lp_report.c ****     for(i = lp->bb_level; i > 0; i--)
 527               		.loc 2 92 0
 528 031c 8B81      		ldd r24,Y+3
 529 031e 9C81      		ldd r25,Y+4
 530 0320 805D      		subi r24,-48
 531 0322 9C4F      		sbci r25,-4
 532 0324 FC01      		movw r30,r24
 533 0326 8081      		ld r24,Z
 534 0328 9181      		ldd r25,Z+1
 535 032a 9A83      		std Y+2,r25
 536 032c 8983      		std Y+1,r24
 537 032e 00C0      		rjmp .L12
 538               	.L13:
  93:lp_solve_5.5/lp_report.c ****       report(lp, NEUTRAL, "--");
 539               		.loc 2 93 0 discriminator 3
 540 0330 80E0      		ldi r24,lo8(.LC1)
 541 0332 90E0      		ldi r25,hi8(.LC1)
 542 0334 892F      		mov r24,r25
 543 0336 8F93      		push r24
 544 0338 80E0      		ldi r24,lo8(.LC1)
 545 033a 90E0      		ldi r25,hi8(.LC1)
 546 033c 8F93      		push r24
 547 033e 1F92      		push __zero_reg__
 548 0340 1F92      		push __zero_reg__
 549 0342 8C81      		ldd r24,Y+4
 550 0344 8F93      		push r24
 551 0346 8B81      		ldd r24,Y+3
 552 0348 8F93      		push r24
 553 034a 0E94 0000 		call report
 554 034e 0F90      		pop __tmp_reg__
 555 0350 0F90      		pop __tmp_reg__
 556 0352 0F90      		pop __tmp_reg__
 557 0354 0F90      		pop __tmp_reg__
 558 0356 0F90      		pop __tmp_reg__
 559 0358 0F90      		pop __tmp_reg__
  92:lp_solve_5.5/lp_report.c ****     for(i = lp->bb_level; i > 0; i--)
 560               		.loc 2 92 0 discriminator 3
 561 035a 8981      		ldd r24,Y+1
 562 035c 9A81      		ldd r25,Y+2
 563 035e 0197      		sbiw r24,1
 564 0360 9A83      		std Y+2,r25
 565 0362 8983      		std Y+1,r24
 566               	.L12:
  92:lp_solve_5.5/lp_report.c ****     for(i = lp->bb_level; i > 0; i--)
 567               		.loc 2 92 0 is_stmt 0 discriminator 1
 568 0364 8981      		ldd r24,Y+1
 569 0366 9A81      		ldd r25,Y+2
 570 0368 1816      		cp __zero_reg__,r24
 571 036a 1906      		cpc __zero_reg__,r25
 572 036c 04F0      		brlt .L13
 573 036e 00C0      		rjmp .L14
 574               	.L11:
  94:lp_solve_5.5/lp_report.c ****   else
  95:lp_solve_5.5/lp_report.c ****     report(lp, NEUTRAL, " *** too deep ***");
 575               		.loc 2 95 0 is_stmt 1
 576 0370 80E0      		ldi r24,lo8(.LC2)
 577 0372 90E0      		ldi r25,hi8(.LC2)
 578 0374 892F      		mov r24,r25
 579 0376 8F93      		push r24
 580 0378 80E0      		ldi r24,lo8(.LC2)
 581 037a 90E0      		ldi r25,hi8(.LC2)
 582 037c 8F93      		push r24
 583 037e 1F92      		push __zero_reg__
 584 0380 1F92      		push __zero_reg__
 585 0382 8C81      		ldd r24,Y+4
 586 0384 8F93      		push r24
 587 0386 8B81      		ldd r24,Y+3
 588 0388 8F93      		push r24
 589 038a 0E94 0000 		call report
 590 038e 0F90      		pop __tmp_reg__
 591 0390 0F90      		pop __tmp_reg__
 592 0392 0F90      		pop __tmp_reg__
 593 0394 0F90      		pop __tmp_reg__
 594 0396 0F90      		pop __tmp_reg__
 595 0398 0F90      		pop __tmp_reg__
 596               	.L14:
  96:lp_solve_5.5/lp_report.c ****   report(lp, NEUTRAL, "> ");
 597               		.loc 2 96 0
 598 039a 80E0      		ldi r24,lo8(.LC3)
 599 039c 90E0      		ldi r25,hi8(.LC3)
 600 039e 892F      		mov r24,r25
 601 03a0 8F93      		push r24
 602 03a2 80E0      		ldi r24,lo8(.LC3)
 603 03a4 90E0      		ldi r25,hi8(.LC3)
 604 03a6 8F93      		push r24
 605 03a8 1F92      		push __zero_reg__
 606 03aa 1F92      		push __zero_reg__
 607 03ac 8C81      		ldd r24,Y+4
 608 03ae 8F93      		push r24
 609 03b0 8B81      		ldd r24,Y+3
 610 03b2 8F93      		push r24
 611 03b4 0E94 0000 		call report
 612 03b8 0F90      		pop __tmp_reg__
 613 03ba 0F90      		pop __tmp_reg__
 614 03bc 0F90      		pop __tmp_reg__
 615 03be 0F90      		pop __tmp_reg__
 616 03c0 0F90      		pop __tmp_reg__
 617 03c2 0F90      		pop __tmp_reg__
  97:lp_solve_5.5/lp_report.c **** } /* print_indent */
 618               		.loc 2 97 0
 619 03c4 0000      		nop
 620               	/* epilogue start */
 621 03c6 0F90      		pop __tmp_reg__
 622 03c8 0F90      		pop __tmp_reg__
 623 03ca 0F90      		pop __tmp_reg__
 624 03cc 0F90      		pop __tmp_reg__
 625 03ce DF91      		pop r29
 626 03d0 CF91      		pop r28
 627 03d2 0895      		ret
 628               		.cfi_endproc
 629               	.LFE9:
 631               	.global	debug_print
 633               	debug_print:
 634               	.LFB10:
  98:lp_solve_5.5/lp_report.c **** 
  99:lp_solve_5.5/lp_report.c **** STATIC void debug_print(lprec *lp, char *format, ...)
 100:lp_solve_5.5/lp_report.c **** {
 635               		.loc 2 100 0
 636               		.cfi_startproc
 637 03d4 CF93      		push r28
 638               	.LCFI16:
 639               		.cfi_def_cfa_offset 3
 640               		.cfi_offset 28, -2
 641 03d6 DF93      		push r29
 642               	.LCFI17:
 643               		.cfi_def_cfa_offset 4
 644               		.cfi_offset 29, -3
 645 03d8 CDB7      		in r28,__SP_L__
 646 03da DEB7      		in r29,__SP_H__
 647               	.LCFI18:
 648               		.cfi_def_cfa_register 28
 649 03dc C350      		subi r28,3
 650 03de D240      		sbci r29,2
 651               	.LCFI19:
 652               		.cfi_def_cfa_offset 519
 653 03e0 0FB6      		in __tmp_reg__,__SREG__
 654 03e2 F894      		cli
 655 03e4 DEBF      		out __SP_H__,r29
 656 03e6 0FBE      		out __SREG__,__tmp_reg__
 657 03e8 CDBF      		out __SP_L__,r28
 658               	/* prologue: function */
 659               	/* frame size = 515 */
 660               	/* stack size = 517 */
 661               	.L__stack_usage = 517
 101:lp_solve_5.5/lp_report.c ****   va_list ap;
 102:lp_solve_5.5/lp_report.c **** 
 103:lp_solve_5.5/lp_report.c ****   if(lp->bb_trace) {
 662               		.loc 2 103 0
 663 03ea C85F      		subi r28,lo8(-520)
 664 03ec DD4F      		sbci r29,hi8(-520)
 665 03ee 8881      		ld r24,Y
 666 03f0 9981      		ldd r25,Y+1
 667 03f2 C850      		subi r28,lo8(520)
 668 03f4 D240      		sbci r29,hi8(520)
 669 03f6 8D5F      		subi r24,-3
 670 03f8 9D4F      		sbci r25,-3
 671 03fa FC01      		movw r30,r24
 672 03fc 8081      		ld r24,Z
 673 03fe 8823      		tst r24
 674 0400 01F4      		brne .+2
 675 0402 00C0      		rjmp .L18
 104:lp_solve_5.5/lp_report.c ****     print_indent(lp);
 676               		.loc 2 104 0
 677 0404 C85F      		subi r28,lo8(-520)
 678 0406 DD4F      		sbci r29,hi8(-520)
 679 0408 8881      		ld r24,Y
 680 040a 9981      		ldd r25,Y+1
 681 040c C850      		subi r28,lo8(520)
 682 040e D240      		sbci r29,hi8(520)
 683 0410 0E94 0000 		call print_indent
 105:lp_solve_5.5/lp_report.c ****     if (lp == NULL)
 684               		.loc 2 105 0
 685 0414 C85F      		subi r28,lo8(-520)
 686 0416 DD4F      		sbci r29,hi8(-520)
 687 0418 8881      		ld r24,Y
 688 041a 9981      		ldd r25,Y+1
 689 041c C850      		subi r28,lo8(520)
 690 041e D240      		sbci r29,hi8(520)
 691 0420 892B      		or r24,r25
 692 0422 01F4      		brne .L17
 106:lp_solve_5.5/lp_report.c ****     {
 107:lp_solve_5.5/lp_report.c ****       va_start(ap, format);
 693               		.loc 2 107 0
 694 0424 CE01      		movw r24,r28
 695 0426 845F      		subi r24,-12
 696 0428 9D4F      		sbci r25,-3
 697 042a 9A83      		std Y+2,r25
 698 042c 8983      		std Y+1,r24
 108:lp_solve_5.5/lp_report.c ****       vfprintf(stderr, format, ap);
 699               		.loc 2 108 0
 700 042e 4981      		ldd r20,Y+1
 701 0430 5A81      		ldd r21,Y+2
 702 0432 8091 0000 		lds r24,__iob+4
 703 0436 9091 0000 		lds r25,__iob+4+1
 704 043a C65F      		subi r28,lo8(-522)
 705 043c DD4F      		sbci r29,hi8(-522)
 706 043e 2881      		ld r18,Y
 707 0440 3981      		ldd r19,Y+1
 708 0442 CA50      		subi r28,lo8(522)
 709 0444 D240      		sbci r29,hi8(522)
 710 0446 B901      		movw r22,r18
 711 0448 0E94 0000 		call vfprintf
 109:lp_solve_5.5/lp_report.c ****       va_end(ap);
 110:lp_solve_5.5/lp_report.c ****       fputc('\n', stderr);
 712               		.loc 2 110 0
 713 044c 8091 0000 		lds r24,__iob+4
 714 0450 9091 0000 		lds r25,__iob+4+1
 715 0454 BC01      		movw r22,r24
 716 0456 8AE0      		ldi r24,lo8(10)
 717 0458 90E0      		ldi r25,0
 718 045a 0E94 0000 		call fputc
 111:lp_solve_5.5/lp_report.c ****     }
 112:lp_solve_5.5/lp_report.c ****     else if(lp->debuginfo != NULL)
 113:lp_solve_5.5/lp_report.c ****     {
 114:lp_solve_5.5/lp_report.c ****       char buff[DEF_STRBUFSIZE+1];
 115:lp_solve_5.5/lp_report.c ****       va_start(ap, format);
 116:lp_solve_5.5/lp_report.c ****       vsnprintf(buff, DEF_STRBUFSIZE, format, ap);
 117:lp_solve_5.5/lp_report.c ****       va_end(ap);
 118:lp_solve_5.5/lp_report.c ****       lp->debuginfo(lp, lp->loghandle, buff);
 119:lp_solve_5.5/lp_report.c ****     }
 120:lp_solve_5.5/lp_report.c ****   }
 121:lp_solve_5.5/lp_report.c **** } /* debug_print */
 719               		.loc 2 121 0
 720 045e 00C0      		rjmp .L18
 721               	.L17:
 112:lp_solve_5.5/lp_report.c ****     {
 722               		.loc 2 112 0
 723 0460 C85F      		subi r28,lo8(-520)
 724 0462 DD4F      		sbci r29,hi8(-520)
 725 0464 8881      		ld r24,Y
 726 0466 9981      		ldd r25,Y+1
 727 0468 C850      		subi r28,lo8(520)
 728 046a D240      		sbci r29,hi8(520)
 729 046c 8250      		subi r24,2
 730 046e 9C4F      		sbci r25,-4
 731 0470 FC01      		movw r30,r24
 732 0472 8081      		ld r24,Z
 733 0474 9181      		ldd r25,Z+1
 734 0476 892B      		or r24,r25
 735 0478 01F0      		breq .L18
 736               	.LBB2:
 115:lp_solve_5.5/lp_report.c ****       vsnprintf(buff, DEF_STRBUFSIZE, format, ap);
 737               		.loc 2 115 0
 738 047a CE01      		movw r24,r28
 739 047c 845F      		subi r24,-12
 740 047e 9D4F      		sbci r25,-3
 741 0480 9A83      		std Y+2,r25
 742 0482 8983      		std Y+1,r24
 116:lp_solve_5.5/lp_report.c ****       va_end(ap);
 743               		.loc 2 116 0
 744 0484 2981      		ldd r18,Y+1
 745 0486 3A81      		ldd r19,Y+2
 746 0488 C65F      		subi r28,lo8(-522)
 747 048a DD4F      		sbci r29,hi8(-522)
 748 048c 4881      		ld r20,Y
 749 048e 5981      		ldd r21,Y+1
 750 0490 CA50      		subi r28,lo8(522)
 751 0492 D240      		sbci r29,hi8(522)
 752 0494 CE01      		movw r24,r28
 753 0496 0396      		adiw r24,3
 754 0498 60E0      		ldi r22,0
 755 049a 72E0      		ldi r23,lo8(2)
 756 049c 0E94 0000 		call vsnprintf
 118:lp_solve_5.5/lp_report.c ****     }
 757               		.loc 2 118 0
 758 04a0 C85F      		subi r28,lo8(-520)
 759 04a2 DD4F      		sbci r29,hi8(-520)
 760 04a4 8881      		ld r24,Y
 761 04a6 9981      		ldd r25,Y+1
 762 04a8 C850      		subi r28,lo8(520)
 763 04aa D240      		sbci r29,hi8(520)
 764 04ac 8250      		subi r24,2
 765 04ae 9C4F      		sbci r25,-4
 766 04b0 FC01      		movw r30,r24
 767 04b2 2081      		ld r18,Z
 768 04b4 3181      		ldd r19,Z+1
 769 04b6 C85F      		subi r28,lo8(-520)
 770 04b8 DD4F      		sbci r29,hi8(-520)
 771 04ba 8881      		ld r24,Y
 772 04bc 9981      		ldd r25,Y+1
 773 04be C850      		subi r28,lo8(520)
 774 04c0 D240      		sbci r29,hi8(520)
 775 04c2 8450      		subi r24,4
 776 04c4 9C4F      		sbci r25,-4
 777 04c6 FC01      		movw r30,r24
 778 04c8 6081      		ld r22,Z
 779 04ca 7181      		ldd r23,Z+1
 780 04cc AE01      		movw r20,r28
 781 04ce 4D5F      		subi r20,-3
 782 04d0 5F4F      		sbci r21,-1
 783 04d2 C85F      		subi r28,lo8(-520)
 784 04d4 DD4F      		sbci r29,hi8(-520)
 785 04d6 8881      		ld r24,Y
 786 04d8 9981      		ldd r25,Y+1
 787 04da C850      		subi r28,lo8(520)
 788 04dc D240      		sbci r29,hi8(520)
 789 04de F901      		movw r30,r18
 790 04e0 0995      		icall
 791               	.L18:
 792               	.LBE2:
 793               		.loc 2 121 0
 794 04e2 0000      		nop
 795               	/* epilogue start */
 796 04e4 CD5F      		subi r28,-3
 797 04e6 DD4F      		sbci r29,-3
 798 04e8 0FB6      		in __tmp_reg__,__SREG__
 799 04ea F894      		cli
 800 04ec DEBF      		out __SP_H__,r29
 801 04ee 0FBE      		out __SREG__,__tmp_reg__
 802 04f0 CDBF      		out __SP_L__,r28
 803 04f2 DF91      		pop r29
 804 04f4 CF91      		pop r28
 805 04f6 0895      		ret
 806               		.cfi_endproc
 807               	.LFE10:
 809               		.section	.rodata
 810               	.LC4:
 811 001c 2573 2025 		.string	"%s %18.12g\n"
 811      3138 2E31 
 811      3267 0A00 
 812               		.text
 813               	.global	debug_print_solution
 815               	debug_print_solution:
 816               	.LFB11:
 122:lp_solve_5.5/lp_report.c **** 
 123:lp_solve_5.5/lp_report.c **** STATIC void debug_print_solution(lprec *lp)
 124:lp_solve_5.5/lp_report.c **** {
 817               		.loc 2 124 0
 818               		.cfi_startproc
 819 04f8 CF92      		push r12
 820               	.LCFI20:
 821               		.cfi_def_cfa_offset 3
 822               		.cfi_offset 12, -2
 823 04fa DF92      		push r13
 824               	.LCFI21:
 825               		.cfi_def_cfa_offset 4
 826               		.cfi_offset 13, -3
 827 04fc EF92      		push r14
 828               	.LCFI22:
 829               		.cfi_def_cfa_offset 5
 830               		.cfi_offset 14, -4
 831 04fe FF92      		push r15
 832               	.LCFI23:
 833               		.cfi_def_cfa_offset 6
 834               		.cfi_offset 15, -5
 835 0500 CF93      		push r28
 836               	.LCFI24:
 837               		.cfi_def_cfa_offset 7
 838               		.cfi_offset 28, -6
 839 0502 DF93      		push r29
 840               	.LCFI25:
 841               		.cfi_def_cfa_offset 8
 842               		.cfi_offset 29, -7
 843 0504 00D0      		rcall .
 844 0506 00D0      		rcall .
 845               	.LCFI26:
 846               		.cfi_def_cfa_offset 12
 847 0508 CDB7      		in r28,__SP_L__
 848 050a DEB7      		in r29,__SP_H__
 849               	.LCFI27:
 850               		.cfi_def_cfa_register 28
 851               	/* prologue: function */
 852               	/* frame size = 4 */
 853               	/* stack size = 10 */
 854               	.L__stack_usage = 10
 855 050c 9C83      		std Y+4,r25
 856 050e 8B83      		std Y+3,r24
 125:lp_solve_5.5/lp_report.c ****   int i;
 126:lp_solve_5.5/lp_report.c **** 
 127:lp_solve_5.5/lp_report.c ****   if(lp->bb_trace)
 857               		.loc 2 127 0
 858 0510 8B81      		ldd r24,Y+3
 859 0512 9C81      		ldd r25,Y+4
 860 0514 8D5F      		subi r24,-3
 861 0516 9D4F      		sbci r25,-3
 862 0518 FC01      		movw r30,r24
 863 051a 8081      		ld r24,Z
 864 051c 8823      		tst r24
 865 051e 01F4      		brne .+2
 866 0520 00C0      		rjmp .L23
 128:lp_solve_5.5/lp_report.c ****     for (i = lp->rows + 1; i <= lp->sum; i++) {
 867               		.loc 2 128 0
 868 0522 8B81      		ldd r24,Y+3
 869 0524 9C81      		ldd r25,Y+4
 870 0526 8651      		subi r24,22
 871 0528 9E4F      		sbci r25,-2
 872 052a FC01      		movw r30,r24
 873 052c 8081      		ld r24,Z
 874 052e 9181      		ldd r25,Z+1
 875 0530 0196      		adiw r24,1
 876 0532 9A83      		std Y+2,r25
 877 0534 8983      		std Y+1,r24
 878 0536 00C0      		rjmp .L21
 879               	.L22:
 129:lp_solve_5.5/lp_report.c ****       print_indent(lp);
 880               		.loc 2 129 0 discriminator 3
 881 0538 8B81      		ldd r24,Y+3
 882 053a 9C81      		ldd r25,Y+4
 883 053c 0E94 0000 		call print_indent
 130:lp_solve_5.5/lp_report.c ****       report(lp, NEUTRAL, "%s " RESULTVALUEMASK "\n",
 131:lp_solve_5.5/lp_report.c ****                  get_col_name(lp, i - lp->rows),
 132:lp_solve_5.5/lp_report.c ****                 (double)lp->solution[i]);
 884               		.loc 2 132 0 discriminator 3
 885 0540 8B81      		ldd r24,Y+3
 886 0542 9C81      		ldd r25,Y+4
 887 0544 8E5E      		subi r24,-18
 888 0546 9D4F      		sbci r25,-3
 889 0548 FC01      		movw r30,r24
 890 054a 2081      		ld r18,Z
 891 054c 3181      		ldd r19,Z+1
 892 054e 8981      		ldd r24,Y+1
 893 0550 9A81      		ldd r25,Y+2
 894 0552 880F      		lsl r24
 895 0554 991F      		rol r25
 896 0556 880F      		lsl r24
 897 0558 991F      		rol r25
 898 055a 820F      		add r24,r18
 899 055c 931F      		adc r25,r19
 130:lp_solve_5.5/lp_report.c ****       report(lp, NEUTRAL, "%s " RESULTVALUEMASK "\n",
 900               		.loc 2 130 0 discriminator 3
 901 055e FC01      		movw r30,r24
 902 0560 C080      		ld r12,Z
 903 0562 D180      		ldd r13,Z+1
 904 0564 E280      		ldd r14,Z+2
 905 0566 F380      		ldd r15,Z+3
 131:lp_solve_5.5/lp_report.c ****                 (double)lp->solution[i]);
 906               		.loc 2 131 0 discriminator 3
 907 0568 8B81      		ldd r24,Y+3
 908 056a 9C81      		ldd r25,Y+4
 909 056c 8651      		subi r24,22
 910 056e 9E4F      		sbci r25,-2
 911 0570 FC01      		movw r30,r24
 912 0572 8081      		ld r24,Z
 913 0574 9181      		ldd r25,Z+1
 130:lp_solve_5.5/lp_report.c ****       report(lp, NEUTRAL, "%s " RESULTVALUEMASK "\n",
 914               		.loc 2 130 0 discriminator 3
 915 0576 2981      		ldd r18,Y+1
 916 0578 3A81      		ldd r19,Y+2
 917 057a 281B      		sub r18,r24
 918 057c 390B      		sbc r19,r25
 919 057e 8B81      		ldd r24,Y+3
 920 0580 9C81      		ldd r25,Y+4
 921 0582 B901      		movw r22,r18
 922 0584 0E94 0000 		call get_col_name
 923 0588 2F2D      		mov r18,r15
 924 058a 2F93      		push r18
 925 058c 2E2D      		mov r18,r14
 926 058e 2F93      		push r18
 927 0590 2D2D      		mov r18,r13
 928 0592 2F93      		push r18
 929 0594 2C2D      		mov r18,r12
 930 0596 2F93      		push r18
 931 0598 292F      		mov r18,r25
 932 059a 2F93      		push r18
 933 059c 8F93      		push r24
 934 059e 80E0      		ldi r24,lo8(.LC4)
 935 05a0 90E0      		ldi r25,hi8(.LC4)
 936 05a2 892F      		mov r24,r25
 937 05a4 8F93      		push r24
 938 05a6 80E0      		ldi r24,lo8(.LC4)
 939 05a8 90E0      		ldi r25,hi8(.LC4)
 940 05aa 8F93      		push r24
 941 05ac 1F92      		push __zero_reg__
 942 05ae 1F92      		push __zero_reg__
 943 05b0 8C81      		ldd r24,Y+4
 944 05b2 8F93      		push r24
 945 05b4 8B81      		ldd r24,Y+3
 946 05b6 8F93      		push r24
 947 05b8 0E94 0000 		call report
 948 05bc 8DB7      		in r24,__SP_L__
 949 05be 9EB7      		in r25,__SP_H__
 950 05c0 0C96      		adiw r24,12
 951 05c2 0FB6      		in __tmp_reg__,__SREG__
 952 05c4 F894      		cli
 953 05c6 DEBF      		out __SP_H__,r29
 954 05c8 0FBE      		out __SREG__,__tmp_reg__
 955 05ca CDBF      		out __SP_L__,r28
 128:lp_solve_5.5/lp_report.c ****       print_indent(lp);
 956               		.loc 2 128 0 discriminator 3
 957 05cc 8981      		ldd r24,Y+1
 958 05ce 9A81      		ldd r25,Y+2
 959 05d0 0196      		adiw r24,1
 960 05d2 9A83      		std Y+2,r25
 961 05d4 8983      		std Y+1,r24
 962               	.L21:
 128:lp_solve_5.5/lp_report.c ****       print_indent(lp);
 963               		.loc 2 128 0 is_stmt 0 discriminator 1
 964 05d6 8B81      		ldd r24,Y+3
 965 05d8 9C81      		ldd r25,Y+4
 966 05da 8851      		subi r24,24
 967 05dc 9E4F      		sbci r25,-2
 968 05de FC01      		movw r30,r24
 969 05e0 2081      		ld r18,Z
 970 05e2 3181      		ldd r19,Z+1
 971 05e4 8981      		ldd r24,Y+1
 972 05e6 9A81      		ldd r25,Y+2
 973 05e8 2817      		cp r18,r24
 974 05ea 3907      		cpc r19,r25
 975 05ec 04F0      		brlt .+2
 976 05ee 00C0      		rjmp .L22
 977               	.L23:
 133:lp_solve_5.5/lp_report.c ****     }
 134:lp_solve_5.5/lp_report.c **** } /* debug_print_solution */
 978               		.loc 2 134 0 is_stmt 1
 979 05f0 0000      		nop
 980               	/* epilogue start */
 981 05f2 0F90      		pop __tmp_reg__
 982 05f4 0F90      		pop __tmp_reg__
 983 05f6 0F90      		pop __tmp_reg__
 984 05f8 0F90      		pop __tmp_reg__
 985 05fa DF91      		pop r29
 986 05fc CF91      		pop r28
 987 05fe FF90      		pop r15
 988 0600 EF90      		pop r14
 989 0602 DF90      		pop r13
 990 0604 CF90      		pop r12
 991 0606 0895      		ret
 992               		.cfi_endproc
 993               	.LFE11:
 995               	.global	__eqsf2
 996               		.section	.rodata
 997               	.LC5:
 998 0028 2573 203D 		.string	"%s = %18.12g\n"
 998      2025 3138 
 998      2E31 3267 
 998      0A00 
 999               	.global	__nesf2
 1000               	.LC6:
 1001 0036 2573 203E 		.string	"%s > %18.12g\n"
 1001      2025 3138 
 1001      2E31 3267 
 1001      0A00 
 1002               	.LC7:
 1003 0044 2573 203C 		.string	"%s < %18.12g\n"
 1003      2025 3138 
 1003      2E31 3267 
 1003      0A00 
 1004               		.text
 1005               	.global	debug_print_bounds
 1007               	debug_print_bounds:
 1008               	.LFB12:
 135:lp_solve_5.5/lp_report.c **** 
 136:lp_solve_5.5/lp_report.c **** STATIC void debug_print_bounds(lprec *lp, REAL *upbo, REAL *lowbo)
 137:lp_solve_5.5/lp_report.c **** {
 1009               		.loc 2 137 0
 1010               		.cfi_startproc
 1011 0608 CF92      		push r12
 1012               	.LCFI28:
 1013               		.cfi_def_cfa_offset 3
 1014               		.cfi_offset 12, -2
 1015 060a DF92      		push r13
 1016               	.LCFI29:
 1017               		.cfi_def_cfa_offset 4
 1018               		.cfi_offset 13, -3
 1019 060c EF92      		push r14
 1020               	.LCFI30:
 1021               		.cfi_def_cfa_offset 5
 1022               		.cfi_offset 14, -4
 1023 060e FF92      		push r15
 1024               	.LCFI31:
 1025               		.cfi_def_cfa_offset 6
 1026               		.cfi_offset 15, -5
 1027 0610 CF93      		push r28
 1028               	.LCFI32:
 1029               		.cfi_def_cfa_offset 7
 1030               		.cfi_offset 28, -6
 1031 0612 DF93      		push r29
 1032               	.LCFI33:
 1033               		.cfi_def_cfa_offset 8
 1034               		.cfi_offset 29, -7
 1035 0614 CDB7      		in r28,__SP_L__
 1036 0616 DEB7      		in r29,__SP_H__
 1037               	.LCFI34:
 1038               		.cfi_def_cfa_register 28
 1039 0618 2897      		sbiw r28,8
 1040               	.LCFI35:
 1041               		.cfi_def_cfa_offset 16
 1042 061a 0FB6      		in __tmp_reg__,__SREG__
 1043 061c F894      		cli
 1044 061e DEBF      		out __SP_H__,r29
 1045 0620 0FBE      		out __SREG__,__tmp_reg__
 1046 0622 CDBF      		out __SP_L__,r28
 1047               	/* prologue: function */
 1048               	/* frame size = 8 */
 1049               	/* stack size = 14 */
 1050               	.L__stack_usage = 14
 1051 0624 9C83      		std Y+4,r25
 1052 0626 8B83      		std Y+3,r24
 1053 0628 7E83      		std Y+6,r23
 1054 062a 6D83      		std Y+5,r22
 1055 062c 5887      		std Y+8,r21
 1056 062e 4F83      		std Y+7,r20
 138:lp_solve_5.5/lp_report.c ****   int i;
 139:lp_solve_5.5/lp_report.c **** 
 140:lp_solve_5.5/lp_report.c ****   if(lp->bb_trace)
 1057               		.loc 2 140 0
 1058 0630 8B81      		ldd r24,Y+3
 1059 0632 9C81      		ldd r25,Y+4
 1060 0634 8D5F      		subi r24,-3
 1061 0636 9D4F      		sbci r25,-3
 1062 0638 FC01      		movw r30,r24
 1063 063a 8081      		ld r24,Z
 1064 063c 8823      		tst r24
 1065 063e 01F4      		brne .+2
 1066 0640 00C0      		rjmp .L38
 141:lp_solve_5.5/lp_report.c ****     for(i = lp->rows + 1; i <= lp->sum; i++) {
 1067               		.loc 2 141 0
 1068 0642 8B81      		ldd r24,Y+3
 1069 0644 9C81      		ldd r25,Y+4
 1070 0646 8651      		subi r24,22
 1071 0648 9E4F      		sbci r25,-2
 1072 064a FC01      		movw r30,r24
 1073 064c 8081      		ld r24,Z
 1074 064e 9181      		ldd r25,Z+1
 1075 0650 0196      		adiw r24,1
 1076 0652 9A83      		std Y+2,r25
 1077 0654 8983      		std Y+1,r24
 1078 0656 00C0      		rjmp .L26
 1079               	.L33:
 142:lp_solve_5.5/lp_report.c ****       if(lowbo[i] == upbo[i]) {
 1080               		.loc 2 142 0
 1081 0658 8981      		ldd r24,Y+1
 1082 065a 9A81      		ldd r25,Y+2
 1083 065c 880F      		lsl r24
 1084 065e 991F      		rol r25
 1085 0660 880F      		lsl r24
 1086 0662 991F      		rol r25
 1087 0664 2F81      		ldd r18,Y+7
 1088 0666 3885      		ldd r19,Y+8
 1089 0668 820F      		add r24,r18
 1090 066a 931F      		adc r25,r19
 1091 066c FC01      		movw r30,r24
 1092 066e 8081      		ld r24,Z
 1093 0670 9181      		ldd r25,Z+1
 1094 0672 A281      		ldd r26,Z+2
 1095 0674 B381      		ldd r27,Z+3
 1096 0676 2981      		ldd r18,Y+1
 1097 0678 3A81      		ldd r19,Y+2
 1098 067a 220F      		lsl r18
 1099 067c 331F      		rol r19
 1100 067e 220F      		lsl r18
 1101 0680 331F      		rol r19
 1102 0682 4D81      		ldd r20,Y+5
 1103 0684 5E81      		ldd r21,Y+6
 1104 0686 240F      		add r18,r20
 1105 0688 351F      		adc r19,r21
 1106 068a F901      		movw r30,r18
 1107 068c 2081      		ld r18,Z
 1108 068e 3181      		ldd r19,Z+1
 1109 0690 4281      		ldd r20,Z+2
 1110 0692 5381      		ldd r21,Z+3
 1111 0694 BC01      		movw r22,r24
 1112 0696 CD01      		movw r24,r26
 1113 0698 0E94 0000 		call __eqsf2
 1114 069c 8823      		tst r24
 1115 069e 01F0      		breq .+2
 1116 06a0 00C0      		rjmp .L37
 143:lp_solve_5.5/lp_report.c ****         print_indent(lp);
 1117               		.loc 2 143 0
 1118 06a2 8B81      		ldd r24,Y+3
 1119 06a4 9C81      		ldd r25,Y+4
 1120 06a6 0E94 0000 		call print_indent
 144:lp_solve_5.5/lp_report.c ****         report(lp, NEUTRAL, "%s = " RESULTVALUEMASK "\n", get_col_name(lp, i - lp->rows),
 145:lp_solve_5.5/lp_report.c ****                              (double)lowbo[i]);
 1121               		.loc 2 145 0
 1122 06aa 8981      		ldd r24,Y+1
 1123 06ac 9A81      		ldd r25,Y+2
 1124 06ae 880F      		lsl r24
 1125 06b0 991F      		rol r25
 1126 06b2 880F      		lsl r24
 1127 06b4 991F      		rol r25
 1128 06b6 2F81      		ldd r18,Y+7
 1129 06b8 3885      		ldd r19,Y+8
 1130 06ba 820F      		add r24,r18
 1131 06bc 931F      		adc r25,r19
 144:lp_solve_5.5/lp_report.c ****         report(lp, NEUTRAL, "%s = " RESULTVALUEMASK "\n", get_col_name(lp, i - lp->rows),
 1132               		.loc 2 144 0
 1133 06be FC01      		movw r30,r24
 1134 06c0 C080      		ld r12,Z
 1135 06c2 D180      		ldd r13,Z+1
 1136 06c4 E280      		ldd r14,Z+2
 1137 06c6 F380      		ldd r15,Z+3
 1138 06c8 8B81      		ldd r24,Y+3
 1139 06ca 9C81      		ldd r25,Y+4
 1140 06cc 8651      		subi r24,22
 1141 06ce 9E4F      		sbci r25,-2
 1142 06d0 FC01      		movw r30,r24
 1143 06d2 8081      		ld r24,Z
 1144 06d4 9181      		ldd r25,Z+1
 1145 06d6 2981      		ldd r18,Y+1
 1146 06d8 3A81      		ldd r19,Y+2
 1147 06da 281B      		sub r18,r24
 1148 06dc 390B      		sbc r19,r25
 1149 06de 8B81      		ldd r24,Y+3
 1150 06e0 9C81      		ldd r25,Y+4
 1151 06e2 B901      		movw r22,r18
 1152 06e4 0E94 0000 		call get_col_name
 1153 06e8 2F2D      		mov r18,r15
 1154 06ea 2F93      		push r18
 1155 06ec 2E2D      		mov r18,r14
 1156 06ee 2F93      		push r18
 1157 06f0 2D2D      		mov r18,r13
 1158 06f2 2F93      		push r18
 1159 06f4 2C2D      		mov r18,r12
 1160 06f6 2F93      		push r18
 1161 06f8 292F      		mov r18,r25
 1162 06fa 2F93      		push r18
 1163 06fc 8F93      		push r24
 1164 06fe 80E0      		ldi r24,lo8(.LC5)
 1165 0700 90E0      		ldi r25,hi8(.LC5)
 1166 0702 892F      		mov r24,r25
 1167 0704 8F93      		push r24
 1168 0706 80E0      		ldi r24,lo8(.LC5)
 1169 0708 90E0      		ldi r25,hi8(.LC5)
 1170 070a 8F93      		push r24
 1171 070c 1F92      		push __zero_reg__
 1172 070e 1F92      		push __zero_reg__
 1173 0710 8C81      		ldd r24,Y+4
 1174 0712 8F93      		push r24
 1175 0714 8B81      		ldd r24,Y+3
 1176 0716 8F93      		push r24
 1177 0718 0E94 0000 		call report
 1178 071c 8DB7      		in r24,__SP_L__
 1179 071e 9EB7      		in r25,__SP_H__
 1180 0720 0C96      		adiw r24,12
 1181 0722 0FB6      		in __tmp_reg__,__SREG__
 1182 0724 F894      		cli
 1183 0726 DEBF      		out __SP_H__,r29
 1184 0728 0FBE      		out __SREG__,__tmp_reg__
 1185 072a CDBF      		out __SP_L__,r28
 1186 072c 00C0      		rjmp .L29
 1187               	.L37:
 146:lp_solve_5.5/lp_report.c ****       }
 147:lp_solve_5.5/lp_report.c ****       else {
 148:lp_solve_5.5/lp_report.c ****         if(lowbo[i] != 0) {
 1188               		.loc 2 148 0
 1189 072e 8981      		ldd r24,Y+1
 1190 0730 9A81      		ldd r25,Y+2
 1191 0732 880F      		lsl r24
 1192 0734 991F      		rol r25
 1193 0736 880F      		lsl r24
 1194 0738 991F      		rol r25
 1195 073a 2F81      		ldd r18,Y+7
 1196 073c 3885      		ldd r19,Y+8
 1197 073e 820F      		add r24,r18
 1198 0740 931F      		adc r25,r19
 1199 0742 FC01      		movw r30,r24
 1200 0744 8081      		ld r24,Z
 1201 0746 9181      		ldd r25,Z+1
 1202 0748 A281      		ldd r26,Z+2
 1203 074a B381      		ldd r27,Z+3
 1204 074c 20E0      		ldi r18,0
 1205 074e 30E0      		ldi r19,0
 1206 0750 A901      		movw r20,r18
 1207 0752 BC01      		movw r22,r24
 1208 0754 CD01      		movw r24,r26
 1209 0756 0E94 0000 		call __nesf2
 1210 075a 8823      		tst r24
 1211 075c 01F4      		brne .+2
 1212 075e 00C0      		rjmp .L30
 149:lp_solve_5.5/lp_report.c ****           print_indent(lp);
 1213               		.loc 2 149 0
 1214 0760 8B81      		ldd r24,Y+3
 1215 0762 9C81      		ldd r25,Y+4
 1216 0764 0E94 0000 		call print_indent
 150:lp_solve_5.5/lp_report.c ****           report(lp, NEUTRAL, "%s > " RESULTVALUEMASK "\n", get_col_name(lp, i - lp->rows),
 151:lp_solve_5.5/lp_report.c ****                                (double)lowbo[i]);
 1217               		.loc 2 151 0
 1218 0768 8981      		ldd r24,Y+1
 1219 076a 9A81      		ldd r25,Y+2
 1220 076c 880F      		lsl r24
 1221 076e 991F      		rol r25
 1222 0770 880F      		lsl r24
 1223 0772 991F      		rol r25
 1224 0774 2F81      		ldd r18,Y+7
 1225 0776 3885      		ldd r19,Y+8
 1226 0778 820F      		add r24,r18
 1227 077a 931F      		adc r25,r19
 150:lp_solve_5.5/lp_report.c ****           report(lp, NEUTRAL, "%s > " RESULTVALUEMASK "\n", get_col_name(lp, i - lp->rows),
 1228               		.loc 2 150 0
 1229 077c FC01      		movw r30,r24
 1230 077e C080      		ld r12,Z
 1231 0780 D180      		ldd r13,Z+1
 1232 0782 E280      		ldd r14,Z+2
 1233 0784 F380      		ldd r15,Z+3
 1234 0786 8B81      		ldd r24,Y+3
 1235 0788 9C81      		ldd r25,Y+4
 1236 078a 8651      		subi r24,22
 1237 078c 9E4F      		sbci r25,-2
 1238 078e FC01      		movw r30,r24
 1239 0790 8081      		ld r24,Z
 1240 0792 9181      		ldd r25,Z+1
 1241 0794 2981      		ldd r18,Y+1
 1242 0796 3A81      		ldd r19,Y+2
 1243 0798 281B      		sub r18,r24
 1244 079a 390B      		sbc r19,r25
 1245 079c 8B81      		ldd r24,Y+3
 1246 079e 9C81      		ldd r25,Y+4
 1247 07a0 B901      		movw r22,r18
 1248 07a2 0E94 0000 		call get_col_name
 1249 07a6 2F2D      		mov r18,r15
 1250 07a8 2F93      		push r18
 1251 07aa 2E2D      		mov r18,r14
 1252 07ac 2F93      		push r18
 1253 07ae 2D2D      		mov r18,r13
 1254 07b0 2F93      		push r18
 1255 07b2 2C2D      		mov r18,r12
 1256 07b4 2F93      		push r18
 1257 07b6 292F      		mov r18,r25
 1258 07b8 2F93      		push r18
 1259 07ba 8F93      		push r24
 1260 07bc 80E0      		ldi r24,lo8(.LC6)
 1261 07be 90E0      		ldi r25,hi8(.LC6)
 1262 07c0 892F      		mov r24,r25
 1263 07c2 8F93      		push r24
 1264 07c4 80E0      		ldi r24,lo8(.LC6)
 1265 07c6 90E0      		ldi r25,hi8(.LC6)
 1266 07c8 8F93      		push r24
 1267 07ca 1F92      		push __zero_reg__
 1268 07cc 1F92      		push __zero_reg__
 1269 07ce 8C81      		ldd r24,Y+4
 1270 07d0 8F93      		push r24
 1271 07d2 8B81      		ldd r24,Y+3
 1272 07d4 8F93      		push r24
 1273 07d6 0E94 0000 		call report
 1274 07da 8DB7      		in r24,__SP_L__
 1275 07dc 9EB7      		in r25,__SP_H__
 1276 07de 0C96      		adiw r24,12
 1277 07e0 0FB6      		in __tmp_reg__,__SREG__
 1278 07e2 F894      		cli
 1279 07e4 DEBF      		out __SP_H__,r29
 1280 07e6 0FBE      		out __SREG__,__tmp_reg__
 1281 07e8 CDBF      		out __SP_L__,r28
 1282               	.L30:
 152:lp_solve_5.5/lp_report.c ****         }
 153:lp_solve_5.5/lp_report.c ****         if(upbo[i] != lp->infinite) {
 1283               		.loc 2 153 0
 1284 07ea 8981      		ldd r24,Y+1
 1285 07ec 9A81      		ldd r25,Y+2
 1286 07ee 880F      		lsl r24
 1287 07f0 991F      		rol r25
 1288 07f2 880F      		lsl r24
 1289 07f4 991F      		rol r25
 1290 07f6 2D81      		ldd r18,Y+5
 1291 07f8 3E81      		ldd r19,Y+6
 1292 07fa 820F      		add r24,r18
 1293 07fc 931F      		adc r25,r19
 1294 07fe FC01      		movw r30,r24
 1295 0800 8081      		ld r24,Z
 1296 0802 9181      		ldd r25,Z+1
 1297 0804 A281      		ldd r26,Z+2
 1298 0806 B381      		ldd r27,Z+3
 1299 0808 2B81      		ldd r18,Y+3
 1300 080a 3C81      		ldd r19,Y+4
 1301 080c 265F      		subi r18,-10
 1302 080e 3C4F      		sbci r19,-4
 1303 0810 F901      		movw r30,r18
 1304 0812 2081      		ld r18,Z
 1305 0814 3181      		ldd r19,Z+1
 1306 0816 4281      		ldd r20,Z+2
 1307 0818 5381      		ldd r21,Z+3
 1308 081a BC01      		movw r22,r24
 1309 081c CD01      		movw r24,r26
 1310 081e 0E94 0000 		call __nesf2
 1311 0822 8823      		tst r24
 1312 0824 01F4      		brne .+2
 1313 0826 00C0      		rjmp .L29
 154:lp_solve_5.5/lp_report.c ****           print_indent(lp);
 1314               		.loc 2 154 0
 1315 0828 8B81      		ldd r24,Y+3
 1316 082a 9C81      		ldd r25,Y+4
 1317 082c 0E94 0000 		call print_indent
 155:lp_solve_5.5/lp_report.c ****           report(lp, NEUTRAL, "%s < " RESULTVALUEMASK "\n", get_col_name(lp, i - lp->rows),
 156:lp_solve_5.5/lp_report.c ****                                (double)upbo[i]);
 1318               		.loc 2 156 0
 1319 0830 8981      		ldd r24,Y+1
 1320 0832 9A81      		ldd r25,Y+2
 1321 0834 880F      		lsl r24
 1322 0836 991F      		rol r25
 1323 0838 880F      		lsl r24
 1324 083a 991F      		rol r25
 1325 083c 2D81      		ldd r18,Y+5
 1326 083e 3E81      		ldd r19,Y+6
 1327 0840 820F      		add r24,r18
 1328 0842 931F      		adc r25,r19
 155:lp_solve_5.5/lp_report.c ****           report(lp, NEUTRAL, "%s < " RESULTVALUEMASK "\n", get_col_name(lp, i - lp->rows),
 1329               		.loc 2 155 0
 1330 0844 FC01      		movw r30,r24
 1331 0846 C080      		ld r12,Z
 1332 0848 D180      		ldd r13,Z+1
 1333 084a E280      		ldd r14,Z+2
 1334 084c F380      		ldd r15,Z+3
 1335 084e 8B81      		ldd r24,Y+3
 1336 0850 9C81      		ldd r25,Y+4
 1337 0852 8651      		subi r24,22
 1338 0854 9E4F      		sbci r25,-2
 1339 0856 FC01      		movw r30,r24
 1340 0858 8081      		ld r24,Z
 1341 085a 9181      		ldd r25,Z+1
 1342 085c 2981      		ldd r18,Y+1
 1343 085e 3A81      		ldd r19,Y+2
 1344 0860 281B      		sub r18,r24
 1345 0862 390B      		sbc r19,r25
 1346 0864 8B81      		ldd r24,Y+3
 1347 0866 9C81      		ldd r25,Y+4
 1348 0868 B901      		movw r22,r18
 1349 086a 0E94 0000 		call get_col_name
 1350 086e 2F2D      		mov r18,r15
 1351 0870 2F93      		push r18
 1352 0872 2E2D      		mov r18,r14
 1353 0874 2F93      		push r18
 1354 0876 2D2D      		mov r18,r13
 1355 0878 2F93      		push r18
 1356 087a 2C2D      		mov r18,r12
 1357 087c 2F93      		push r18
 1358 087e 292F      		mov r18,r25
 1359 0880 2F93      		push r18
 1360 0882 8F93      		push r24
 1361 0884 80E0      		ldi r24,lo8(.LC7)
 1362 0886 90E0      		ldi r25,hi8(.LC7)
 1363 0888 892F      		mov r24,r25
 1364 088a 8F93      		push r24
 1365 088c 80E0      		ldi r24,lo8(.LC7)
 1366 088e 90E0      		ldi r25,hi8(.LC7)
 1367 0890 8F93      		push r24
 1368 0892 1F92      		push __zero_reg__
 1369 0894 1F92      		push __zero_reg__
 1370 0896 8C81      		ldd r24,Y+4
 1371 0898 8F93      		push r24
 1372 089a 8B81      		ldd r24,Y+3
 1373 089c 8F93      		push r24
 1374 089e 0E94 0000 		call report
 1375 08a2 8DB7      		in r24,__SP_L__
 1376 08a4 9EB7      		in r25,__SP_H__
 1377 08a6 0C96      		adiw r24,12
 1378 08a8 0FB6      		in __tmp_reg__,__SREG__
 1379 08aa F894      		cli
 1380 08ac DEBF      		out __SP_H__,r29
 1381 08ae 0FBE      		out __SREG__,__tmp_reg__
 1382 08b0 CDBF      		out __SP_L__,r28
 1383               	.L29:
 141:lp_solve_5.5/lp_report.c ****       if(lowbo[i] == upbo[i]) {
 1384               		.loc 2 141 0 discriminator 2
 1385 08b2 8981      		ldd r24,Y+1
 1386 08b4 9A81      		ldd r25,Y+2
 1387 08b6 0196      		adiw r24,1
 1388 08b8 9A83      		std Y+2,r25
 1389 08ba 8983      		std Y+1,r24
 1390               	.L26:
 141:lp_solve_5.5/lp_report.c ****       if(lowbo[i] == upbo[i]) {
 1391               		.loc 2 141 0 is_stmt 0 discriminator 1
 1392 08bc 8B81      		ldd r24,Y+3
 1393 08be 9C81      		ldd r25,Y+4
 1394 08c0 8851      		subi r24,24
 1395 08c2 9E4F      		sbci r25,-2
 1396 08c4 FC01      		movw r30,r24
 1397 08c6 2081      		ld r18,Z
 1398 08c8 3181      		ldd r19,Z+1
 1399 08ca 8981      		ldd r24,Y+1
 1400 08cc 9A81      		ldd r25,Y+2
 1401 08ce 2817      		cp r18,r24
 1402 08d0 3907      		cpc r19,r25
 1403 08d2 04F0      		brlt .+2
 1404 08d4 00C0      		rjmp .L33
 1405               	.L38:
 157:lp_solve_5.5/lp_report.c ****     }
 158:lp_solve_5.5/lp_report.c ****       }
 159:lp_solve_5.5/lp_report.c ****     }
 160:lp_solve_5.5/lp_report.c **** } /* debug_print_bounds */
 1406               		.loc 2 160 0 is_stmt 1
 1407 08d6 0000      		nop
 1408               	/* epilogue start */
 1409 08d8 2896      		adiw r28,8
 1410 08da 0FB6      		in __tmp_reg__,__SREG__
 1411 08dc F894      		cli
 1412 08de DEBF      		out __SP_H__,r29
 1413 08e0 0FBE      		out __SREG__,__tmp_reg__
 1414 08e2 CDBF      		out __SP_L__,r28
 1415 08e4 DF91      		pop r29
 1416 08e6 CF91      		pop r28
 1417 08e8 FF90      		pop r15
 1418 08ea EF90      		pop r14
 1419 08ec DF90      		pop r13
 1420 08ee CF90      		pop r12
 1421 08f0 0895      		ret
 1422               		.cfi_endproc
 1423               	.LFE12:
 1425               		.section	.rodata
 1426               	.LC8:
 1427 0052 2025 3138 		.string	" %18g"
 1427      6700 
 1428               		.text
 1429               	.global	blockWriteLREAL
 1431               	blockWriteLREAL:
 1432               	.LFB13:
 161:lp_solve_5.5/lp_report.c **** 
 162:lp_solve_5.5/lp_report.c **** /* List a vector of LREAL values for the given index range */
 163:lp_solve_5.5/lp_report.c **** void blockWriteLREAL(FILE *output, char *label, LREAL *vector, int first, int last)
 164:lp_solve_5.5/lp_report.c **** {
 1433               		.loc 2 164 0
 1434               		.cfi_startproc
 1435 08f2 0F93      		push r16
 1436               	.LCFI36:
 1437               		.cfi_def_cfa_offset 3
 1438               		.cfi_offset 16, -2
 1439 08f4 1F93      		push r17
 1440               	.LCFI37:
 1441               		.cfi_def_cfa_offset 4
 1442               		.cfi_offset 17, -3
 1443 08f6 CF93      		push r28
 1444               	.LCFI38:
 1445               		.cfi_def_cfa_offset 5
 1446               		.cfi_offset 28, -4
 1447 08f8 DF93      		push r29
 1448               	.LCFI39:
 1449               		.cfi_def_cfa_offset 6
 1450               		.cfi_offset 29, -5
 1451 08fa CDB7      		in r28,__SP_L__
 1452 08fc DEB7      		in r29,__SP_H__
 1453               	.LCFI40:
 1454               		.cfi_def_cfa_register 28
 1455 08fe 2E97      		sbiw r28,14
 1456               	.LCFI41:
 1457               		.cfi_def_cfa_offset 20
 1458 0900 0FB6      		in __tmp_reg__,__SREG__
 1459 0902 F894      		cli
 1460 0904 DEBF      		out __SP_H__,r29
 1461 0906 0FBE      		out __SREG__,__tmp_reg__
 1462 0908 CDBF      		out __SP_L__,r28
 1463               	/* prologue: function */
 1464               	/* frame size = 14 */
 1465               	/* stack size = 18 */
 1466               	.L__stack_usage = 18
 1467 090a 9E83      		std Y+6,r25
 1468 090c 8D83      		std Y+5,r24
 1469 090e 7887      		std Y+8,r23
 1470 0910 6F83      		std Y+7,r22
 1471 0912 5A87      		std Y+10,r21
 1472 0914 4987      		std Y+9,r20
 1473 0916 3C87      		std Y+12,r19
 1474 0918 2B87      		std Y+11,r18
 1475 091a 1E87      		std Y+14,r17
 1476 091c 0D87      		std Y+13,r16
 165:lp_solve_5.5/lp_report.c ****   int i, k = 0;
 1477               		.loc 2 165 0
 1478 091e 1C82      		std Y+4,__zero_reg__
 1479 0920 1B82      		std Y+3,__zero_reg__
 166:lp_solve_5.5/lp_report.c **** 
 167:lp_solve_5.5/lp_report.c ****   fprintf(output, "%s", label);
 1480               		.loc 2 167 0
 1481 0922 2D81      		ldd r18,Y+5
 1482 0924 3E81      		ldd r19,Y+6
 1483 0926 8F81      		ldd r24,Y+7
 1484 0928 9885      		ldd r25,Y+8
 1485 092a B901      		movw r22,r18
 1486 092c 0E94 0000 		call fputs
 168:lp_solve_5.5/lp_report.c ****   fprintf(output, "\n");
 1487               		.loc 2 168 0
 1488 0930 8D81      		ldd r24,Y+5
 1489 0932 9E81      		ldd r25,Y+6
 1490 0934 BC01      		movw r22,r24
 1491 0936 8AE0      		ldi r24,lo8(10)
 1492 0938 90E0      		ldi r25,0
 1493 093a 0E94 0000 		call fputc
 169:lp_solve_5.5/lp_report.c ****   for(i = first; i <= last; i++) {
 1494               		.loc 2 169 0
 1495 093e 8B85      		ldd r24,Y+11
 1496 0940 9C85      		ldd r25,Y+12
 1497 0942 9A83      		std Y+2,r25
 1498 0944 8983      		std Y+1,r24
 1499 0946 00C0      		rjmp .L40
 1500               	.L42:
 170:lp_solve_5.5/lp_report.c ****     fprintf(output, " %18g", vector[i]);
 1501               		.loc 2 170 0
 1502 0948 8981      		ldd r24,Y+1
 1503 094a 9A81      		ldd r25,Y+2
 1504 094c 880F      		lsl r24
 1505 094e 991F      		rol r25
 1506 0950 880F      		lsl r24
 1507 0952 991F      		rol r25
 1508 0954 2985      		ldd r18,Y+9
 1509 0956 3A85      		ldd r19,Y+10
 1510 0958 820F      		add r24,r18
 1511 095a 931F      		adc r25,r19
 1512 095c FC01      		movw r30,r24
 1513 095e 8081      		ld r24,Z
 1514 0960 9181      		ldd r25,Z+1
 1515 0962 A281      		ldd r26,Z+2
 1516 0964 B381      		ldd r27,Z+3
 1517 0966 2B2F      		mov r18,r27
 1518 0968 2F93      		push r18
 1519 096a 2A2F      		mov r18,r26
 1520 096c 2F93      		push r18
 1521 096e 292F      		mov r18,r25
 1522 0970 2F93      		push r18
 1523 0972 8F93      		push r24
 1524 0974 80E0      		ldi r24,lo8(.LC8)
 1525 0976 90E0      		ldi r25,hi8(.LC8)
 1526 0978 892F      		mov r24,r25
 1527 097a 8F93      		push r24
 1528 097c 80E0      		ldi r24,lo8(.LC8)
 1529 097e 90E0      		ldi r25,hi8(.LC8)
 1530 0980 8F93      		push r24
 1531 0982 8E81      		ldd r24,Y+6
 1532 0984 8F93      		push r24
 1533 0986 8D81      		ldd r24,Y+5
 1534 0988 8F93      		push r24
 1535 098a 0E94 0000 		call fprintf
 1536 098e 8DB7      		in r24,__SP_L__
 1537 0990 9EB7      		in r25,__SP_H__
 1538 0992 0896      		adiw r24,8
 1539 0994 0FB6      		in __tmp_reg__,__SREG__
 1540 0996 F894      		cli
 1541 0998 DEBF      		out __SP_H__,r29
 1542 099a 0FBE      		out __SREG__,__tmp_reg__
 1543 099c CDBF      		out __SP_L__,r28
 171:lp_solve_5.5/lp_report.c ****     k++;
 1544               		.loc 2 171 0
 1545 099e 8B81      		ldd r24,Y+3
 1546 09a0 9C81      		ldd r25,Y+4
 1547 09a2 0196      		adiw r24,1
 1548 09a4 9C83      		std Y+4,r25
 1549 09a6 8B83      		std Y+3,r24
 172:lp_solve_5.5/lp_report.c ****     if(my_mod(k, 4) == 0) {
 1550               		.loc 2 172 0
 1551 09a8 8B81      		ldd r24,Y+3
 1552 09aa 9C81      		ldd r25,Y+4
 1553 09ac 8370      		andi r24,3
 1554 09ae 9927      		clr r25
 1555 09b0 892B      		or r24,r25
 1556 09b2 01F4      		brne .L41
 173:lp_solve_5.5/lp_report.c ****       fprintf(output, "\n");
 1557               		.loc 2 173 0
 1558 09b4 8D81      		ldd r24,Y+5
 1559 09b6 9E81      		ldd r25,Y+6
 1560 09b8 BC01      		movw r22,r24
 1561 09ba 8AE0      		ldi r24,lo8(10)
 1562 09bc 90E0      		ldi r25,0
 1563 09be 0E94 0000 		call fputc
 174:lp_solve_5.5/lp_report.c ****       k = 0;
 1564               		.loc 2 174 0
 1565 09c2 1C82      		std Y+4,__zero_reg__
 1566 09c4 1B82      		std Y+3,__zero_reg__
 1567               	.L41:
 169:lp_solve_5.5/lp_report.c ****     fprintf(output, " %18g", vector[i]);
 1568               		.loc 2 169 0 discriminator 2
 1569 09c6 8981      		ldd r24,Y+1
 1570 09c8 9A81      		ldd r25,Y+2
 1571 09ca 0196      		adiw r24,1
 1572 09cc 9A83      		std Y+2,r25
 1573 09ce 8983      		std Y+1,r24
 1574               	.L40:
 169:lp_solve_5.5/lp_report.c ****     fprintf(output, " %18g", vector[i]);
 1575               		.loc 2 169 0 is_stmt 0 discriminator 1
 1576 09d0 2981      		ldd r18,Y+1
 1577 09d2 3A81      		ldd r19,Y+2
 1578 09d4 8D85      		ldd r24,Y+13
 1579 09d6 9E85      		ldd r25,Y+14
 1580 09d8 8217      		cp r24,r18
 1581 09da 9307      		cpc r25,r19
 1582 09dc 04F0      		brlt .+2
 1583 09de 00C0      		rjmp .L42
 175:lp_solve_5.5/lp_report.c ****     }
 176:lp_solve_5.5/lp_report.c ****   }
 177:lp_solve_5.5/lp_report.c ****   if(my_mod(k, 4) != 0)
 1584               		.loc 2 177 0 is_stmt 1
 1585 09e0 8B81      		ldd r24,Y+3
 1586 09e2 9C81      		ldd r25,Y+4
 1587 09e4 8370      		andi r24,3
 1588 09e6 9927      		clr r25
 1589 09e8 892B      		or r24,r25
 1590 09ea 01F0      		breq .L44
 178:lp_solve_5.5/lp_report.c ****     fprintf(output, "\n");
 1591               		.loc 2 178 0
 1592 09ec 8D81      		ldd r24,Y+5
 1593 09ee 9E81      		ldd r25,Y+6
 1594 09f0 BC01      		movw r22,r24
 1595 09f2 8AE0      		ldi r24,lo8(10)
 1596 09f4 90E0      		ldi r25,0
 1597 09f6 0E94 0000 		call fputc
 1598               	.L44:
 179:lp_solve_5.5/lp_report.c **** }
 1599               		.loc 2 179 0
 1600 09fa 0000      		nop
 1601               	/* epilogue start */
 1602 09fc 2E96      		adiw r28,14
 1603 09fe 0FB6      		in __tmp_reg__,__SREG__
 1604 0a00 F894      		cli
 1605 0a02 DEBF      		out __SP_H__,r29
 1606 0a04 0FBE      		out __SREG__,__tmp_reg__
 1607 0a06 CDBF      		out __SP_L__,r28
 1608 0a08 DF91      		pop r29
 1609 0a0a CF91      		pop r28
 1610 0a0c 1F91      		pop r17
 1611 0a0e 0F91      		pop r16
 1612 0a10 0895      		ret
 1613               		.cfi_endproc
 1614               	.LFE13:
 1616               	.global	blockWriteAMAT
 1618               	blockWriteAMAT:
 1619               	.LFB14:
 180:lp_solve_5.5/lp_report.c **** 
 181:lp_solve_5.5/lp_report.c **** /* List the current user data matrix columns over the selected row range */
 182:lp_solve_5.5/lp_report.c **** void blockWriteAMAT(FILE *output, const char *label, lprec* lp, int first, int last)
 183:lp_solve_5.5/lp_report.c **** {
 1620               		.loc 2 183 0
 1621               		.cfi_startproc
 1622 0a12 0F93      		push r16
 1623               	.LCFI42:
 1624               		.cfi_def_cfa_offset 3
 1625               		.cfi_offset 16, -2
 1626 0a14 1F93      		push r17
 1627               	.LCFI43:
 1628               		.cfi_def_cfa_offset 4
 1629               		.cfi_offset 17, -3
 1630 0a16 CF93      		push r28
 1631               	.LCFI44:
 1632               		.cfi_def_cfa_offset 5
 1633               		.cfi_offset 28, -4
 1634 0a18 DF93      		push r29
 1635               	.LCFI45:
 1636               		.cfi_def_cfa_offset 6
 1637               		.cfi_offset 29, -5
 1638 0a1a CDB7      		in r28,__SP_L__
 1639 0a1c DEB7      		in r29,__SP_H__
 1640               	.LCFI46:
 1641               		.cfi_def_cfa_register 28
 1642 0a1e 6C97      		sbiw r28,28
 1643               	.LCFI47:
 1644               		.cfi_def_cfa_offset 34
 1645 0a20 0FB6      		in __tmp_reg__,__SREG__
 1646 0a22 F894      		cli
 1647 0a24 DEBF      		out __SP_H__,r29
 1648 0a26 0FBE      		out __SREG__,__tmp_reg__
 1649 0a28 CDBF      		out __SP_L__,r28
 1650               	/* prologue: function */
 1651               	/* frame size = 28 */
 1652               	/* stack size = 32 */
 1653               	.L__stack_usage = 32
 1654 0a2a 9C8B      		std Y+20,r25
 1655 0a2c 8B8B      		std Y+19,r24
 1656 0a2e 7E8B      		std Y+22,r23
 1657 0a30 6D8B      		std Y+21,r22
 1658 0a32 588F      		std Y+24,r21
 1659 0a34 4F8B      		std Y+23,r20
 1660 0a36 3A8F      		std Y+26,r19
 1661 0a38 298F      		std Y+25,r18
 1662 0a3a 1C8F      		std Y+28,r17
 1663 0a3c 0B8F      		std Y+27,r16
 184:lp_solve_5.5/lp_report.c ****   int    i, j, k = 0;
 1664               		.loc 2 184 0
 1665 0a3e 1E82      		std Y+6,__zero_reg__
 1666 0a40 1D82      		std Y+5,__zero_reg__
 185:lp_solve_5.5/lp_report.c ****   int    nzb, nze, jb;
 186:lp_solve_5.5/lp_report.c ****   double hold;
 187:lp_solve_5.5/lp_report.c ****   MATrec *mat = lp->matA;
 1667               		.loc 2 187 0
 1668 0a42 8F89      		ldd r24,Y+23
 1669 0a44 988D      		ldd r25,Y+24
 1670 0a46 8A54      		subi r24,74
 1671 0a48 9D4F      		sbci r25,-3
 1672 0a4a FC01      		movw r30,r24
 1673 0a4c 8081      		ld r24,Z
 1674 0a4e 9181      		ldd r25,Z+1
 1675 0a50 9A8B      		std Y+18,r25
 1676 0a52 898B      		std Y+17,r24
 188:lp_solve_5.5/lp_report.c **** 
 189:lp_solve_5.5/lp_report.c ****   if(!mat_validate(mat))
 1677               		.loc 2 189 0
 1678 0a54 8989      		ldd r24,Y+17
 1679 0a56 9A89      		ldd r25,Y+18
 1680 0a58 0E94 0000 		call mat_validate
 1681 0a5c 8823      		tst r24
 1682 0a5e 01F4      		brne .+2
 1683 0a60 00C0      		rjmp .L66
 190:lp_solve_5.5/lp_report.c ****     return;
 191:lp_solve_5.5/lp_report.c ****   if(first < 0)
 1684               		.loc 2 191 0
 1685 0a62 898D      		ldd r24,Y+25
 1686 0a64 9A8D      		ldd r25,Y+26
 1687 0a66 9923      		tst r25
 1688 0a68 04F4      		brge .L48
 192:lp_solve_5.5/lp_report.c ****     first = 0;
 1689               		.loc 2 192 0
 1690 0a6a 1A8E      		std Y+26,__zero_reg__
 1691 0a6c 198E      		std Y+25,__zero_reg__
 1692               	.L48:
 193:lp_solve_5.5/lp_report.c ****   if(last < 0)
 1693               		.loc 2 193 0
 1694 0a6e 8B8D      		ldd r24,Y+27
 1695 0a70 9C8D      		ldd r25,Y+28
 1696 0a72 9923      		tst r25
 1697 0a74 04F4      		brge .L49
 194:lp_solve_5.5/lp_report.c ****     last = lp->rows;
 1698               		.loc 2 194 0
 1699 0a76 8F89      		ldd r24,Y+23
 1700 0a78 988D      		ldd r25,Y+24
 1701 0a7a 8651      		subi r24,22
 1702 0a7c 9E4F      		sbci r25,-2
 1703 0a7e FC01      		movw r30,r24
 1704 0a80 8081      		ld r24,Z
 1705 0a82 9181      		ldd r25,Z+1
 1706 0a84 9C8F      		std Y+28,r25
 1707 0a86 8B8F      		std Y+27,r24
 1708               	.L49:
 195:lp_solve_5.5/lp_report.c **** 
 196:lp_solve_5.5/lp_report.c ****   fprintf(output, "%s", label);
 1709               		.loc 2 196 0
 1710 0a88 2B89      		ldd r18,Y+19
 1711 0a8a 3C89      		ldd r19,Y+20
 1712 0a8c 8D89      		ldd r24,Y+21
 1713 0a8e 9E89      		ldd r25,Y+22
 1714 0a90 B901      		movw r22,r18
 1715 0a92 0E94 0000 		call fputs
 197:lp_solve_5.5/lp_report.c ****   fprintf(output, "\n");
 1716               		.loc 2 197 0
 1717 0a96 8B89      		ldd r24,Y+19
 1718 0a98 9C89      		ldd r25,Y+20
 1719 0a9a BC01      		movw r22,r24
 1720 0a9c 8AE0      		ldi r24,lo8(10)
 1721 0a9e 90E0      		ldi r25,0
 1722 0aa0 0E94 0000 		call fputc
 198:lp_solve_5.5/lp_report.c **** 
 199:lp_solve_5.5/lp_report.c ****   if(first == 0) {
 1723               		.loc 2 199 0
 1724 0aa4 898D      		ldd r24,Y+25
 1725 0aa6 9A8D      		ldd r25,Y+26
 1726 0aa8 892B      		or r24,r25
 1727 0aaa 01F0      		breq .+2
 1728 0aac 00C0      		rjmp .L50
 200:lp_solve_5.5/lp_report.c ****     for(j = 1; j <= lp->columns; j++) {
 1729               		.loc 2 200 0
 1730 0aae 81E0      		ldi r24,lo8(1)
 1731 0ab0 90E0      		ldi r25,0
 1732 0ab2 9C83      		std Y+4,r25
 1733 0ab4 8B83      		std Y+3,r24
 1734 0ab6 00C0      		rjmp .L51
 1735               	.L53:
 201:lp_solve_5.5/lp_report.c ****       hold = get_mat(lp, 0, j);
 1736               		.loc 2 201 0
 1737 0ab8 2B81      		ldd r18,Y+3
 1738 0aba 3C81      		ldd r19,Y+4
 1739 0abc 8F89      		ldd r24,Y+23
 1740 0abe 988D      		ldd r25,Y+24
 1741 0ac0 A901      		movw r20,r18
 1742 0ac2 60E0      		ldi r22,0
 1743 0ac4 70E0      		ldi r23,0
 1744 0ac6 0E94 0000 		call get_mat
 1745 0aca DC01      		movw r26,r24
 1746 0acc CB01      		movw r24,r22
 1747 0ace 8D87      		std Y+13,r24
 1748 0ad0 9E87      		std Y+14,r25
 1749 0ad2 AF87      		std Y+15,r26
 1750 0ad4 B88B      		std Y+16,r27
 202:lp_solve_5.5/lp_report.c ****       fprintf(output, " %18g", hold);
 1751               		.loc 2 202 0
 1752 0ad6 8889      		ldd r24,Y+16
 1753 0ad8 8F93      		push r24
 1754 0ada 8F85      		ldd r24,Y+15
 1755 0adc 8F93      		push r24
 1756 0ade 8E85      		ldd r24,Y+14
 1757 0ae0 8F93      		push r24
 1758 0ae2 8D85      		ldd r24,Y+13
 1759 0ae4 8F93      		push r24
 1760 0ae6 80E0      		ldi r24,lo8(.LC8)
 1761 0ae8 90E0      		ldi r25,hi8(.LC8)
 1762 0aea 892F      		mov r24,r25
 1763 0aec 8F93      		push r24
 1764 0aee 80E0      		ldi r24,lo8(.LC8)
 1765 0af0 90E0      		ldi r25,hi8(.LC8)
 1766 0af2 8F93      		push r24
 1767 0af4 8C89      		ldd r24,Y+20
 1768 0af6 8F93      		push r24
 1769 0af8 8B89      		ldd r24,Y+19
 1770 0afa 8F93      		push r24
 1771 0afc 0E94 0000 		call fprintf
 1772 0b00 8DB7      		in r24,__SP_L__
 1773 0b02 9EB7      		in r25,__SP_H__
 1774 0b04 0896      		adiw r24,8
 1775 0b06 0FB6      		in __tmp_reg__,__SREG__
 1776 0b08 F894      		cli
 1777 0b0a DEBF      		out __SP_H__,r29
 1778 0b0c 0FBE      		out __SREG__,__tmp_reg__
 1779 0b0e CDBF      		out __SP_L__,r28
 203:lp_solve_5.5/lp_report.c ****       k++;
 1780               		.loc 2 203 0
 1781 0b10 8D81      		ldd r24,Y+5
 1782 0b12 9E81      		ldd r25,Y+6
 1783 0b14 0196      		adiw r24,1
 1784 0b16 9E83      		std Y+6,r25
 1785 0b18 8D83      		std Y+5,r24
 204:lp_solve_5.5/lp_report.c ****       if(my_mod(k, 4) == 0) {
 1786               		.loc 2 204 0
 1787 0b1a 8D81      		ldd r24,Y+5
 1788 0b1c 9E81      		ldd r25,Y+6
 1789 0b1e 8370      		andi r24,3
 1790 0b20 9927      		clr r25
 1791 0b22 892B      		or r24,r25
 1792 0b24 01F4      		brne .L52
 205:lp_solve_5.5/lp_report.c ****         fprintf(output, "\n");
 1793               		.loc 2 205 0
 1794 0b26 8B89      		ldd r24,Y+19
 1795 0b28 9C89      		ldd r25,Y+20
 1796 0b2a BC01      		movw r22,r24
 1797 0b2c 8AE0      		ldi r24,lo8(10)
 1798 0b2e 90E0      		ldi r25,0
 1799 0b30 0E94 0000 		call fputc
 206:lp_solve_5.5/lp_report.c ****         k = 0;
 1800               		.loc 2 206 0
 1801 0b34 1E82      		std Y+6,__zero_reg__
 1802 0b36 1D82      		std Y+5,__zero_reg__
 1803               	.L52:
 200:lp_solve_5.5/lp_report.c ****       hold = get_mat(lp, 0, j);
 1804               		.loc 2 200 0 discriminator 2
 1805 0b38 8B81      		ldd r24,Y+3
 1806 0b3a 9C81      		ldd r25,Y+4
 1807 0b3c 0196      		adiw r24,1
 1808 0b3e 9C83      		std Y+4,r25
 1809 0b40 8B83      		std Y+3,r24
 1810               	.L51:
 200:lp_solve_5.5/lp_report.c ****       hold = get_mat(lp, 0, j);
 1811               		.loc 2 200 0 is_stmt 0 discriminator 1
 1812 0b42 8F89      		ldd r24,Y+23
 1813 0b44 988D      		ldd r25,Y+24
 1814 0b46 8451      		subi r24,20
 1815 0b48 9E4F      		sbci r25,-2
 1816 0b4a FC01      		movw r30,r24
 1817 0b4c 2081      		ld r18,Z
 1818 0b4e 3181      		ldd r19,Z+1
 1819 0b50 8B81      		ldd r24,Y+3
 1820 0b52 9C81      		ldd r25,Y+4
 1821 0b54 2817      		cp r18,r24
 1822 0b56 3907      		cpc r19,r25
 1823 0b58 04F0      		brlt .+2
 1824 0b5a 00C0      		rjmp .L53
 207:lp_solve_5.5/lp_report.c ****       }
 208:lp_solve_5.5/lp_report.c ****     }
 209:lp_solve_5.5/lp_report.c ****     if(my_mod(k, 4) != 0) {
 1825               		.loc 2 209 0 is_stmt 1
 1826 0b5c 8D81      		ldd r24,Y+5
 1827 0b5e 9E81      		ldd r25,Y+6
 1828 0b60 8370      		andi r24,3
 1829 0b62 9927      		clr r25
 1830 0b64 892B      		or r24,r25
 1831 0b66 01F0      		breq .L54
 210:lp_solve_5.5/lp_report.c ****       fprintf(output, "\n");
 1832               		.loc 2 210 0
 1833 0b68 8B89      		ldd r24,Y+19
 1834 0b6a 9C89      		ldd r25,Y+20
 1835 0b6c BC01      		movw r22,r24
 1836 0b6e 8AE0      		ldi r24,lo8(10)
 1837 0b70 90E0      		ldi r25,0
 1838 0b72 0E94 0000 		call fputc
 211:lp_solve_5.5/lp_report.c ****       k = 0;
 1839               		.loc 2 211 0
 1840 0b76 1E82      		std Y+6,__zero_reg__
 1841 0b78 1D82      		std Y+5,__zero_reg__
 1842               	.L54:
 212:lp_solve_5.5/lp_report.c ****     }
 213:lp_solve_5.5/lp_report.c ****     first++;
 1843               		.loc 2 213 0
 1844 0b7a 898D      		ldd r24,Y+25
 1845 0b7c 9A8D      		ldd r25,Y+26
 1846 0b7e 0196      		adiw r24,1
 1847 0b80 9A8F      		std Y+26,r25
 1848 0b82 898F      		std Y+25,r24
 1849               	.L50:
 214:lp_solve_5.5/lp_report.c ****   }
 215:lp_solve_5.5/lp_report.c ****   nze = mat->row_end[first-1];
 1850               		.loc 2 215 0
 1851 0b84 8989      		ldd r24,Y+17
 1852 0b86 9A89      		ldd r25,Y+18
 1853 0b88 FC01      		movw r30,r24
 1854 0b8a 208D      		ldd r18,Z+24
 1855 0b8c 318D      		ldd r19,Z+25
 1856 0b8e 898D      		ldd r24,Y+25
 1857 0b90 9A8D      		ldd r25,Y+26
 1858 0b92 8150      		subi r24,1
 1859 0b94 9048      		sbci r25,-128
 1860 0b96 880F      		lsl r24
 1861 0b98 991F      		rol r25
 1862 0b9a 820F      		add r24,r18
 1863 0b9c 931F      		adc r25,r19
 1864 0b9e FC01      		movw r30,r24
 1865 0ba0 8081      		ld r24,Z
 1866 0ba2 9181      		ldd r25,Z+1
 1867 0ba4 9A87      		std Y+10,r25
 1868 0ba6 8987      		std Y+9,r24
 216:lp_solve_5.5/lp_report.c ****   for(i = first; i <= last; i++) {
 1869               		.loc 2 216 0
 1870 0ba8 898D      		ldd r24,Y+25
 1871 0baa 9A8D      		ldd r25,Y+26
 1872 0bac 9A83      		std Y+2,r25
 1873 0bae 8983      		std Y+1,r24
 1874 0bb0 00C0      		rjmp .L55
 1875               	.L65:
 217:lp_solve_5.5/lp_report.c ****     nzb = nze;
 1876               		.loc 2 217 0
 1877 0bb2 8985      		ldd r24,Y+9
 1878 0bb4 9A85      		ldd r25,Y+10
 1879 0bb6 9887      		std Y+8,r25
 1880 0bb8 8F83      		std Y+7,r24
 218:lp_solve_5.5/lp_report.c ****     nze = mat->row_end[i];
 1881               		.loc 2 218 0
 1882 0bba 8989      		ldd r24,Y+17
 1883 0bbc 9A89      		ldd r25,Y+18
 1884 0bbe FC01      		movw r30,r24
 1885 0bc0 208D      		ldd r18,Z+24
 1886 0bc2 318D      		ldd r19,Z+25
 1887 0bc4 8981      		ldd r24,Y+1
 1888 0bc6 9A81      		ldd r25,Y+2
 1889 0bc8 880F      		lsl r24
 1890 0bca 991F      		rol r25
 1891 0bcc 820F      		add r24,r18
 1892 0bce 931F      		adc r25,r19
 1893 0bd0 FC01      		movw r30,r24
 1894 0bd2 8081      		ld r24,Z
 1895 0bd4 9181      		ldd r25,Z+1
 1896 0bd6 9A87      		std Y+10,r25
 1897 0bd8 8987      		std Y+9,r24
 219:lp_solve_5.5/lp_report.c ****     if(nzb >= nze)
 1898               		.loc 2 219 0
 1899 0bda 2F81      		ldd r18,Y+7
 1900 0bdc 3885      		ldd r19,Y+8
 1901 0bde 8985      		ldd r24,Y+9
 1902 0be0 9A85      		ldd r25,Y+10
 1903 0be2 2817      		cp r18,r24
 1904 0be4 3907      		cpc r19,r25
 1905 0be6 04F0      		brlt .L56
 220:lp_solve_5.5/lp_report.c ****       jb = lp->columns+1;
 1906               		.loc 2 220 0
 1907 0be8 8F89      		ldd r24,Y+23
 1908 0bea 988D      		ldd r25,Y+24
 1909 0bec 8451      		subi r24,20
 1910 0bee 9E4F      		sbci r25,-2
 1911 0bf0 FC01      		movw r30,r24
 1912 0bf2 8081      		ld r24,Z
 1913 0bf4 9181      		ldd r25,Z+1
 1914 0bf6 0196      		adiw r24,1
 1915 0bf8 9C87      		std Y+12,r25
 1916 0bfa 8B87      		std Y+11,r24
 1917 0bfc 00C0      		rjmp .L57
 1918               	.L56:
 221:lp_solve_5.5/lp_report.c ****     else
 222:lp_solve_5.5/lp_report.c ****       jb = ROW_MAT_COLNR(nzb);
 1919               		.loc 2 222 0
 1920 0bfe 8989      		ldd r24,Y+17
 1921 0c00 9A89      		ldd r25,Y+18
 1922 0c02 FC01      		movw r30,r24
 1923 0c04 2485      		ldd r18,Z+12
 1924 0c06 3585      		ldd r19,Z+13
 1925 0c08 8989      		ldd r24,Y+17
 1926 0c0a 9A89      		ldd r25,Y+18
 1927 0c0c FC01      		movw r30,r24
 1928 0c0e 4689      		ldd r20,Z+22
 1929 0c10 5789      		ldd r21,Z+23
 1930 0c12 8F81      		ldd r24,Y+7
 1931 0c14 9885      		ldd r25,Y+8
 1932 0c16 880F      		lsl r24
 1933 0c18 991F      		rol r25
 1934 0c1a 840F      		add r24,r20
 1935 0c1c 951F      		adc r25,r21
 1936 0c1e FC01      		movw r30,r24
 1937 0c20 8081      		ld r24,Z
 1938 0c22 9181      		ldd r25,Z+1
 1939 0c24 880F      		lsl r24
 1940 0c26 991F      		rol r25
 1941 0c28 820F      		add r24,r18
 1942 0c2a 931F      		adc r25,r19
 1943 0c2c FC01      		movw r30,r24
 1944 0c2e 8081      		ld r24,Z
 1945 0c30 9181      		ldd r25,Z+1
 1946 0c32 9C87      		std Y+12,r25
 1947 0c34 8B87      		std Y+11,r24
 1948               	.L57:
 223:lp_solve_5.5/lp_report.c ****     for(j = 1; j <= lp->columns; j++) {
 1949               		.loc 2 223 0
 1950 0c36 81E0      		ldi r24,lo8(1)
 1951 0c38 90E0      		ldi r25,0
 1952 0c3a 9C83      		std Y+4,r25
 1953 0c3c 8B83      		std Y+3,r24
 1954 0c3e 00C0      		rjmp .L58
 1955               	.L63:
 224:lp_solve_5.5/lp_report.c ****       if(j < jb)
 1956               		.loc 2 224 0
 1957 0c40 2B81      		ldd r18,Y+3
 1958 0c42 3C81      		ldd r19,Y+4
 1959 0c44 8B85      		ldd r24,Y+11
 1960 0c46 9C85      		ldd r25,Y+12
 1961 0c48 2817      		cp r18,r24
 1962 0c4a 3907      		cpc r19,r25
 1963 0c4c 04F4      		brge .L59
 225:lp_solve_5.5/lp_report.c ****         hold = 0;
 1964               		.loc 2 225 0
 1965 0c4e 1D86      		std Y+13,__zero_reg__
 1966 0c50 1E86      		std Y+14,__zero_reg__
 1967 0c52 1F86      		std Y+15,__zero_reg__
 1968 0c54 188A      		std Y+16,__zero_reg__
 1969 0c56 00C0      		rjmp .L60
 1970               	.L59:
 226:lp_solve_5.5/lp_report.c ****       else {
 227:lp_solve_5.5/lp_report.c ****         hold = get_mat(lp, i, j);
 1971               		.loc 2 227 0
 1972 0c58 4B81      		ldd r20,Y+3
 1973 0c5a 5C81      		ldd r21,Y+4
 1974 0c5c 2981      		ldd r18,Y+1
 1975 0c5e 3A81      		ldd r19,Y+2
 1976 0c60 8F89      		ldd r24,Y+23
 1977 0c62 988D      		ldd r25,Y+24
 1978 0c64 B901      		movw r22,r18
 1979 0c66 0E94 0000 		call get_mat
 1980 0c6a DC01      		movw r26,r24
 1981 0c6c CB01      		movw r24,r22
 1982 0c6e 8D87      		std Y+13,r24
 1983 0c70 9E87      		std Y+14,r25
 1984 0c72 AF87      		std Y+15,r26
 1985 0c74 B88B      		std Y+16,r27
 228:lp_solve_5.5/lp_report.c ****         nzb++;
 1986               		.loc 2 228 0
 1987 0c76 8F81      		ldd r24,Y+7
 1988 0c78 9885      		ldd r25,Y+8
 1989 0c7a 0196      		adiw r24,1
 1990 0c7c 9887      		std Y+8,r25
 1991 0c7e 8F83      		std Y+7,r24
 229:lp_solve_5.5/lp_report.c ****         if(nzb < nze)
 1992               		.loc 2 229 0
 1993 0c80 2F81      		ldd r18,Y+7
 1994 0c82 3885      		ldd r19,Y+8
 1995 0c84 8985      		ldd r24,Y+9
 1996 0c86 9A85      		ldd r25,Y+10
 1997 0c88 2817      		cp r18,r24
 1998 0c8a 3907      		cpc r19,r25
 1999 0c8c 04F4      		brge .L61
 230:lp_solve_5.5/lp_report.c ****           jb = ROW_MAT_COLNR(nzb);
 2000               		.loc 2 230 0
 2001 0c8e 8989      		ldd r24,Y+17
 2002 0c90 9A89      		ldd r25,Y+18
 2003 0c92 FC01      		movw r30,r24
 2004 0c94 2485      		ldd r18,Z+12
 2005 0c96 3585      		ldd r19,Z+13
 2006 0c98 8989      		ldd r24,Y+17
 2007 0c9a 9A89      		ldd r25,Y+18
 2008 0c9c FC01      		movw r30,r24
 2009 0c9e 4689      		ldd r20,Z+22
 2010 0ca0 5789      		ldd r21,Z+23
 2011 0ca2 8F81      		ldd r24,Y+7
 2012 0ca4 9885      		ldd r25,Y+8
 2013 0ca6 880F      		lsl r24
 2014 0ca8 991F      		rol r25
 2015 0caa 840F      		add r24,r20
 2016 0cac 951F      		adc r25,r21
 2017 0cae FC01      		movw r30,r24
 2018 0cb0 8081      		ld r24,Z
 2019 0cb2 9181      		ldd r25,Z+1
 2020 0cb4 880F      		lsl r24
 2021 0cb6 991F      		rol r25
 2022 0cb8 820F      		add r24,r18
 2023 0cba 931F      		adc r25,r19
 2024 0cbc FC01      		movw r30,r24
 2025 0cbe 8081      		ld r24,Z
 2026 0cc0 9181      		ldd r25,Z+1
 2027 0cc2 9C87      		std Y+12,r25
 2028 0cc4 8B87      		std Y+11,r24
 2029 0cc6 00C0      		rjmp .L60
 2030               	.L61:
 231:lp_solve_5.5/lp_report.c ****         else
 232:lp_solve_5.5/lp_report.c ****           jb = lp->columns+1;
 2031               		.loc 2 232 0
 2032 0cc8 8F89      		ldd r24,Y+23
 2033 0cca 988D      		ldd r25,Y+24
 2034 0ccc 8451      		subi r24,20
 2035 0cce 9E4F      		sbci r25,-2
 2036 0cd0 FC01      		movw r30,r24
 2037 0cd2 8081      		ld r24,Z
 2038 0cd4 9181      		ldd r25,Z+1
 2039 0cd6 0196      		adiw r24,1
 2040 0cd8 9C87      		std Y+12,r25
 2041 0cda 8B87      		std Y+11,r24
 2042               	.L60:
 233:lp_solve_5.5/lp_report.c ****       }
 234:lp_solve_5.5/lp_report.c ****       fprintf(output, " %18g", hold);
 2043               		.loc 2 234 0
 2044 0cdc 8889      		ldd r24,Y+16
 2045 0cde 8F93      		push r24
 2046 0ce0 8F85      		ldd r24,Y+15
 2047 0ce2 8F93      		push r24
 2048 0ce4 8E85      		ldd r24,Y+14
 2049 0ce6 8F93      		push r24
 2050 0ce8 8D85      		ldd r24,Y+13
 2051 0cea 8F93      		push r24
 2052 0cec 80E0      		ldi r24,lo8(.LC8)
 2053 0cee 90E0      		ldi r25,hi8(.LC8)
 2054 0cf0 892F      		mov r24,r25
 2055 0cf2 8F93      		push r24
 2056 0cf4 80E0      		ldi r24,lo8(.LC8)
 2057 0cf6 90E0      		ldi r25,hi8(.LC8)
 2058 0cf8 8F93      		push r24
 2059 0cfa 8C89      		ldd r24,Y+20
 2060 0cfc 8F93      		push r24
 2061 0cfe 8B89      		ldd r24,Y+19
 2062 0d00 8F93      		push r24
 2063 0d02 0E94 0000 		call fprintf
 2064 0d06 8DB7      		in r24,__SP_L__
 2065 0d08 9EB7      		in r25,__SP_H__
 2066 0d0a 0896      		adiw r24,8
 2067 0d0c 0FB6      		in __tmp_reg__,__SREG__
 2068 0d0e F894      		cli
 2069 0d10 DEBF      		out __SP_H__,r29
 2070 0d12 0FBE      		out __SREG__,__tmp_reg__
 2071 0d14 CDBF      		out __SP_L__,r28
 235:lp_solve_5.5/lp_report.c ****       k++;
 2072               		.loc 2 235 0
 2073 0d16 8D81      		ldd r24,Y+5
 2074 0d18 9E81      		ldd r25,Y+6
 2075 0d1a 0196      		adiw r24,1
 2076 0d1c 9E83      		std Y+6,r25
 2077 0d1e 8D83      		std Y+5,r24
 236:lp_solve_5.5/lp_report.c ****       if(my_mod(k, 4) == 0) {
 2078               		.loc 2 236 0
 2079 0d20 8D81      		ldd r24,Y+5
 2080 0d22 9E81      		ldd r25,Y+6
 2081 0d24 8370      		andi r24,3
 2082 0d26 9927      		clr r25
 2083 0d28 892B      		or r24,r25
 2084 0d2a 01F4      		brne .L62
 237:lp_solve_5.5/lp_report.c ****         fprintf(output, "\n");
 2085               		.loc 2 237 0
 2086 0d2c 8B89      		ldd r24,Y+19
 2087 0d2e 9C89      		ldd r25,Y+20
 2088 0d30 BC01      		movw r22,r24
 2089 0d32 8AE0      		ldi r24,lo8(10)
 2090 0d34 90E0      		ldi r25,0
 2091 0d36 0E94 0000 		call fputc
 238:lp_solve_5.5/lp_report.c ****         k = 0;
 2092               		.loc 2 238 0
 2093 0d3a 1E82      		std Y+6,__zero_reg__
 2094 0d3c 1D82      		std Y+5,__zero_reg__
 2095               	.L62:
 223:lp_solve_5.5/lp_report.c ****       if(j < jb)
 2096               		.loc 2 223 0 discriminator 2
 2097 0d3e 8B81      		ldd r24,Y+3
 2098 0d40 9C81      		ldd r25,Y+4
 2099 0d42 0196      		adiw r24,1
 2100 0d44 9C83      		std Y+4,r25
 2101 0d46 8B83      		std Y+3,r24
 2102               	.L58:
 223:lp_solve_5.5/lp_report.c ****       if(j < jb)
 2103               		.loc 2 223 0 is_stmt 0 discriminator 1
 2104 0d48 8F89      		ldd r24,Y+23
 2105 0d4a 988D      		ldd r25,Y+24
 2106 0d4c 8451      		subi r24,20
 2107 0d4e 9E4F      		sbci r25,-2
 2108 0d50 FC01      		movw r30,r24
 2109 0d52 2081      		ld r18,Z
 2110 0d54 3181      		ldd r19,Z+1
 2111 0d56 8B81      		ldd r24,Y+3
 2112 0d58 9C81      		ldd r25,Y+4
 2113 0d5a 2817      		cp r18,r24
 2114 0d5c 3907      		cpc r19,r25
 2115 0d5e 04F0      		brlt .+2
 2116 0d60 00C0      		rjmp .L63
 239:lp_solve_5.5/lp_report.c ****       }
 240:lp_solve_5.5/lp_report.c ****     }
 241:lp_solve_5.5/lp_report.c ****     if(my_mod(k, 4) != 0) {
 2117               		.loc 2 241 0 is_stmt 1
 2118 0d62 8D81      		ldd r24,Y+5
 2119 0d64 9E81      		ldd r25,Y+6
 2120 0d66 8370      		andi r24,3
 2121 0d68 9927      		clr r25
 2122 0d6a 892B      		or r24,r25
 2123 0d6c 01F0      		breq .L64
 242:lp_solve_5.5/lp_report.c ****       fprintf(output, "\n");
 2124               		.loc 2 242 0
 2125 0d6e 8B89      		ldd r24,Y+19
 2126 0d70 9C89      		ldd r25,Y+20
 2127 0d72 BC01      		movw r22,r24
 2128 0d74 8AE0      		ldi r24,lo8(10)
 2129 0d76 90E0      		ldi r25,0
 2130 0d78 0E94 0000 		call fputc
 243:lp_solve_5.5/lp_report.c ****       k = 0;
 2131               		.loc 2 243 0
 2132 0d7c 1E82      		std Y+6,__zero_reg__
 2133 0d7e 1D82      		std Y+5,__zero_reg__
 2134               	.L64:
 216:lp_solve_5.5/lp_report.c ****     nzb = nze;
 2135               		.loc 2 216 0 discriminator 2
 2136 0d80 8981      		ldd r24,Y+1
 2137 0d82 9A81      		ldd r25,Y+2
 2138 0d84 0196      		adiw r24,1
 2139 0d86 9A83      		std Y+2,r25
 2140 0d88 8983      		std Y+1,r24
 2141               	.L55:
 216:lp_solve_5.5/lp_report.c ****     nzb = nze;
 2142               		.loc 2 216 0 is_stmt 0 discriminator 1
 2143 0d8a 2981      		ldd r18,Y+1
 2144 0d8c 3A81      		ldd r19,Y+2
 2145 0d8e 8B8D      		ldd r24,Y+27
 2146 0d90 9C8D      		ldd r25,Y+28
 2147 0d92 8217      		cp r24,r18
 2148 0d94 9307      		cpc r25,r19
 2149 0d96 04F0      		brlt .+2
 2150 0d98 00C0      		rjmp .L65
 244:lp_solve_5.5/lp_report.c ****     }
 245:lp_solve_5.5/lp_report.c ****   }
 246:lp_solve_5.5/lp_report.c ****   if(my_mod(k, 4) != 0)
 2151               		.loc 2 246 0 is_stmt 1
 2152 0d9a 8D81      		ldd r24,Y+5
 2153 0d9c 9E81      		ldd r25,Y+6
 2154 0d9e 8370      		andi r24,3
 2155 0da0 9927      		clr r25
 2156 0da2 892B      		or r24,r25
 2157 0da4 01F0      		breq .L45
 247:lp_solve_5.5/lp_report.c ****     fprintf(output, "\n");
 2158               		.loc 2 247 0
 2159 0da6 8B89      		ldd r24,Y+19
 2160 0da8 9C89      		ldd r25,Y+20
 2161 0daa BC01      		movw r22,r24
 2162 0dac 8AE0      		ldi r24,lo8(10)
 2163 0dae 90E0      		ldi r25,0
 2164 0db0 0E94 0000 		call fputc
 2165 0db4 00C0      		rjmp .L45
 2166               	.L66:
 190:lp_solve_5.5/lp_report.c ****   if(first < 0)
 2167               		.loc 2 190 0
 2168 0db6 0000      		nop
 2169               	.L45:
 2170               	/* epilogue start */
 248:lp_solve_5.5/lp_report.c **** }
 2171               		.loc 2 248 0
 2172 0db8 6C96      		adiw r28,28
 2173 0dba 0FB6      		in __tmp_reg__,__SREG__
 2174 0dbc F894      		cli
 2175 0dbe DEBF      		out __SP_H__,r29
 2176 0dc0 0FBE      		out __SREG__,__tmp_reg__
 2177 0dc2 CDBF      		out __SP_L__,r28
 2178 0dc4 DF91      		pop r29
 2179 0dc6 CF91      		pop r28
 2180 0dc8 1F91      		pop r17
 2181 0dca 0F91      		pop r16
 2182 0dcc 0895      		ret
 2183               		.cfi_endproc
 2184               	.LFE14:
 2186               	.global	blockWriteBMAT
 2188               	blockWriteBMAT:
 2189               	.LFB15:
 249:lp_solve_5.5/lp_report.c **** 
 250:lp_solve_5.5/lp_report.c **** /* List the current basis matrix columns over the selected row range */
 251:lp_solve_5.5/lp_report.c **** void blockWriteBMAT(FILE *output, const char *label, lprec* lp, int first, int last)
 252:lp_solve_5.5/lp_report.c **** {
 2190               		.loc 2 252 0
 2191               		.cfi_startproc
 2192 0dce 0F93      		push r16
 2193               	.LCFI48:
 2194               		.cfi_def_cfa_offset 3
 2195               		.cfi_offset 16, -2
 2196 0dd0 1F93      		push r17
 2197               	.LCFI49:
 2198               		.cfi_def_cfa_offset 4
 2199               		.cfi_offset 17, -3
 2200 0dd2 CF93      		push r28
 2201               	.LCFI50:
 2202               		.cfi_def_cfa_offset 5
 2203               		.cfi_offset 28, -4
 2204 0dd4 DF93      		push r29
 2205               	.LCFI51:
 2206               		.cfi_def_cfa_offset 6
 2207               		.cfi_offset 29, -5
 2208 0dd6 CDB7      		in r28,__SP_L__
 2209 0dd8 DEB7      		in r29,__SP_H__
 2210               	.LCFI52:
 2211               		.cfi_def_cfa_register 28
 2212 0dda 6697      		sbiw r28,22
 2213               	.LCFI53:
 2214               		.cfi_def_cfa_offset 28
 2215 0ddc 0FB6      		in __tmp_reg__,__SREG__
 2216 0dde F894      		cli
 2217 0de0 DEBF      		out __SP_H__,r29
 2218 0de2 0FBE      		out __SREG__,__tmp_reg__
 2219 0de4 CDBF      		out __SP_L__,r28
 2220               	/* prologue: function */
 2221               	/* frame size = 22 */
 2222               	/* stack size = 26 */
 2223               	.L__stack_usage = 26
 2224 0de6 9E87      		std Y+14,r25
 2225 0de8 8D87      		std Y+13,r24
 2226 0dea 788B      		std Y+16,r23
 2227 0dec 6F87      		std Y+15,r22
 2228 0dee 5A8B      		std Y+18,r21
 2229 0df0 498B      		std Y+17,r20
 2230 0df2 3C8B      		std Y+20,r19
 2231 0df4 2B8B      		std Y+19,r18
 2232 0df6 1E8B      		std Y+22,r17
 2233 0df8 0D8B      		std Y+21,r16
 253:lp_solve_5.5/lp_report.c ****   int    i, j, jb, k = 0;
 2234               		.loc 2 253 0
 2235 0dfa 1E82      		std Y+6,__zero_reg__
 2236 0dfc 1D82      		std Y+5,__zero_reg__
 254:lp_solve_5.5/lp_report.c ****   double hold;
 255:lp_solve_5.5/lp_report.c **** 
 256:lp_solve_5.5/lp_report.c ****   if(first < 0)
 2237               		.loc 2 256 0
 2238 0dfe 8B89      		ldd r24,Y+19
 2239 0e00 9C89      		ldd r25,Y+20
 2240 0e02 9923      		tst r25
 2241 0e04 04F4      		brge .L68
 257:lp_solve_5.5/lp_report.c ****     first = 0;
 2242               		.loc 2 257 0
 2243 0e06 1C8A      		std Y+20,__zero_reg__
 2244 0e08 1B8A      		std Y+19,__zero_reg__
 2245               	.L68:
 258:lp_solve_5.5/lp_report.c ****   if(last < 0)
 2246               		.loc 2 258 0
 2247 0e0a 8D89      		ldd r24,Y+21
 2248 0e0c 9E89      		ldd r25,Y+22
 2249 0e0e 9923      		tst r25
 2250 0e10 04F4      		brge .L69
 259:lp_solve_5.5/lp_report.c ****     last = lp->rows;
 2251               		.loc 2 259 0
 2252 0e12 8989      		ldd r24,Y+17
 2253 0e14 9A89      		ldd r25,Y+18
 2254 0e16 8651      		subi r24,22
 2255 0e18 9E4F      		sbci r25,-2
 2256 0e1a FC01      		movw r30,r24
 2257 0e1c 8081      		ld r24,Z
 2258 0e1e 9181      		ldd r25,Z+1
 2259 0e20 9E8B      		std Y+22,r25
 2260 0e22 8D8B      		std Y+21,r24
 2261               	.L69:
 260:lp_solve_5.5/lp_report.c **** 
 261:lp_solve_5.5/lp_report.c ****   fprintf(output, "%s", label);
 2262               		.loc 2 261 0
 2263 0e24 2D85      		ldd r18,Y+13
 2264 0e26 3E85      		ldd r19,Y+14
 2265 0e28 8F85      		ldd r24,Y+15
 2266 0e2a 9889      		ldd r25,Y+16
 2267 0e2c B901      		movw r22,r18
 2268 0e2e 0E94 0000 		call fputs
 262:lp_solve_5.5/lp_report.c ****   fprintf(output, "\n");
 2269               		.loc 2 262 0
 2270 0e32 8D85      		ldd r24,Y+13
 2271 0e34 9E85      		ldd r25,Y+14
 2272 0e36 BC01      		movw r22,r24
 2273 0e38 8AE0      		ldi r24,lo8(10)
 2274 0e3a 90E0      		ldi r25,0
 2275 0e3c 0E94 0000 		call fputc
 263:lp_solve_5.5/lp_report.c **** 
 264:lp_solve_5.5/lp_report.c ****   for(i = first; i <= last; i++) {
 2276               		.loc 2 264 0
 2277 0e40 8B89      		ldd r24,Y+19
 2278 0e42 9C89      		ldd r25,Y+20
 2279 0e44 9A83      		std Y+2,r25
 2280 0e46 8983      		std Y+1,r24
 2281 0e48 00C0      		rjmp .L70
 2282               	.L80:
 265:lp_solve_5.5/lp_report.c ****     for(j = 1; j <= lp->rows; j++) {
 2283               		.loc 2 265 0
 2284 0e4a 81E0      		ldi r24,lo8(1)
 2285 0e4c 90E0      		ldi r25,0
 2286 0e4e 9C83      		std Y+4,r25
 2287 0e50 8B83      		std Y+3,r24
 2288 0e52 00C0      		rjmp .L71
 2289               	.L78:
 266:lp_solve_5.5/lp_report.c ****       jb = lp->var_basic[j];
 2290               		.loc 2 266 0
 2291 0e54 8989      		ldd r24,Y+17
 2292 0e56 9A89      		ldd r25,Y+18
 2293 0e58 8453      		subi r24,52
 2294 0e5a 9D4F      		sbci r25,-3
 2295 0e5c FC01      		movw r30,r24
 2296 0e5e 2081      		ld r18,Z
 2297 0e60 3181      		ldd r19,Z+1
 2298 0e62 8B81      		ldd r24,Y+3
 2299 0e64 9C81      		ldd r25,Y+4
 2300 0e66 880F      		lsl r24
 2301 0e68 991F      		rol r25
 2302 0e6a 820F      		add r24,r18
 2303 0e6c 931F      		adc r25,r19
 2304 0e6e FC01      		movw r30,r24
 2305 0e70 8081      		ld r24,Z
 2306 0e72 9181      		ldd r25,Z+1
 2307 0e74 9887      		std Y+8,r25
 2308 0e76 8F83      		std Y+7,r24
 267:lp_solve_5.5/lp_report.c ****       if(jb <= lp->rows) {
 2309               		.loc 2 267 0
 2310 0e78 8989      		ldd r24,Y+17
 2311 0e7a 9A89      		ldd r25,Y+18
 2312 0e7c 8651      		subi r24,22
 2313 0e7e 9E4F      		sbci r25,-2
 2314 0e80 FC01      		movw r30,r24
 2315 0e82 2081      		ld r18,Z
 2316 0e84 3181      		ldd r19,Z+1
 2317 0e86 8F81      		ldd r24,Y+7
 2318 0e88 9885      		ldd r25,Y+8
 2319 0e8a 2817      		cp r18,r24
 2320 0e8c 3907      		cpc r19,r25
 2321 0e8e 04F0      		brlt .L72
 268:lp_solve_5.5/lp_report.c ****         if(jb == i)
 2322               		.loc 2 268 0
 2323 0e90 2F81      		ldd r18,Y+7
 2324 0e92 3885      		ldd r19,Y+8
 2325 0e94 8981      		ldd r24,Y+1
 2326 0e96 9A81      		ldd r25,Y+2
 2327 0e98 2817      		cp r18,r24
 2328 0e9a 3907      		cpc r19,r25
 2329 0e9c 01F4      		brne .L73
 269:lp_solve_5.5/lp_report.c ****           hold = 1;
 2330               		.loc 2 269 0
 2331 0e9e 80E0      		ldi r24,0
 2332 0ea0 90E0      		ldi r25,0
 2333 0ea2 A0E8      		ldi r26,lo8(-128)
 2334 0ea4 BFE3      		ldi r27,lo8(63)
 2335 0ea6 8987      		std Y+9,r24
 2336 0ea8 9A87      		std Y+10,r25
 2337 0eaa AB87      		std Y+11,r26
 2338 0eac BC87      		std Y+12,r27
 2339 0eae 00C0      		rjmp .L75
 2340               	.L73:
 270:lp_solve_5.5/lp_report.c ****         else
 271:lp_solve_5.5/lp_report.c ****           hold = 0;
 2341               		.loc 2 271 0
 2342 0eb0 1986      		std Y+9,__zero_reg__
 2343 0eb2 1A86      		std Y+10,__zero_reg__
 2344 0eb4 1B86      		std Y+11,__zero_reg__
 2345 0eb6 1C86      		std Y+12,__zero_reg__
 2346 0eb8 00C0      		rjmp .L75
 2347               	.L72:
 272:lp_solve_5.5/lp_report.c ****       }
 273:lp_solve_5.5/lp_report.c ****       else
 274:lp_solve_5.5/lp_report.c ****         hold = get_mat(lp, i, j);
 2348               		.loc 2 274 0
 2349 0eba 4B81      		ldd r20,Y+3
 2350 0ebc 5C81      		ldd r21,Y+4
 2351 0ebe 2981      		ldd r18,Y+1
 2352 0ec0 3A81      		ldd r19,Y+2
 2353 0ec2 8989      		ldd r24,Y+17
 2354 0ec4 9A89      		ldd r25,Y+18
 2355 0ec6 B901      		movw r22,r18
 2356 0ec8 0E94 0000 		call get_mat
 2357 0ecc DC01      		movw r26,r24
 2358 0ece CB01      		movw r24,r22
 2359 0ed0 8987      		std Y+9,r24
 2360 0ed2 9A87      		std Y+10,r25
 2361 0ed4 AB87      		std Y+11,r26
 2362 0ed6 BC87      		std Y+12,r27
 2363               	.L75:
 275:lp_solve_5.5/lp_report.c ****       if(i == 0)
 2364               		.loc 2 275 0
 2365 0ed8 8981      		ldd r24,Y+1
 2366 0eda 9A81      		ldd r25,Y+2
 2367 0edc 892B      		or r24,r25
 2368 0ede 01F4      		brne .L76
 276:lp_solve_5.5/lp_report.c ****         modifyOF1(lp, jb, &hold, 1);
 2369               		.loc 2 276 0
 2370 0ee0 AE01      		movw r20,r28
 2371 0ee2 475F      		subi r20,-9
 2372 0ee4 5F4F      		sbci r21,-1
 2373 0ee6 6F81      		ldd r22,Y+7
 2374 0ee8 7885      		ldd r23,Y+8
 2375 0eea 8989      		ldd r24,Y+17
 2376 0eec 9A89      		ldd r25,Y+18
 2377 0eee 00E0      		ldi r16,0
 2378 0ef0 10E0      		ldi r17,0
 2379 0ef2 20E8      		ldi r18,lo8(-128)
 2380 0ef4 3FE3      		ldi r19,lo8(63)
 2381 0ef6 0E94 0000 		call modifyOF1
 2382               	.L76:
 277:lp_solve_5.5/lp_report.c ****       hold = unscaled_mat(lp, hold, i, jb);
 2383               		.loc 2 277 0
 2384 0efa 8985      		ldd r24,Y+9
 2385 0efc 9A85      		ldd r25,Y+10
 2386 0efe AB85      		ldd r26,Y+11
 2387 0f00 BC85      		ldd r27,Y+12
 2388 0f02 4F81      		ldd r20,Y+7
 2389 0f04 5885      		ldd r21,Y+8
 2390 0f06 2981      		ldd r18,Y+1
 2391 0f08 3A81      		ldd r19,Y+2
 2392 0f0a E989      		ldd r30,Y+17
 2393 0f0c FA89      		ldd r31,Y+18
 2394 0f0e 8A01      		movw r16,r20
 2395 0f10 AC01      		movw r20,r24
 2396 0f12 BD01      		movw r22,r26
 2397 0f14 CF01      		movw r24,r30
 2398 0f16 0E94 0000 		call unscaled_mat
 2399 0f1a DC01      		movw r26,r24
 2400 0f1c CB01      		movw r24,r22
 2401 0f1e 8987      		std Y+9,r24
 2402 0f20 9A87      		std Y+10,r25
 2403 0f22 AB87      		std Y+11,r26
 2404 0f24 BC87      		std Y+12,r27
 278:lp_solve_5.5/lp_report.c ****       fprintf(output, " %18g", hold);
 2405               		.loc 2 278 0
 2406 0f26 8985      		ldd r24,Y+9
 2407 0f28 9A85      		ldd r25,Y+10
 2408 0f2a AB85      		ldd r26,Y+11
 2409 0f2c BC85      		ldd r27,Y+12
 2410 0f2e 2B2F      		mov r18,r27
 2411 0f30 2F93      		push r18
 2412 0f32 2A2F      		mov r18,r26
 2413 0f34 2F93      		push r18
 2414 0f36 292F      		mov r18,r25
 2415 0f38 2F93      		push r18
 2416 0f3a 8F93      		push r24
 2417 0f3c 80E0      		ldi r24,lo8(.LC8)
 2418 0f3e 90E0      		ldi r25,hi8(.LC8)
 2419 0f40 892F      		mov r24,r25
 2420 0f42 8F93      		push r24
 2421 0f44 80E0      		ldi r24,lo8(.LC8)
 2422 0f46 90E0      		ldi r25,hi8(.LC8)
 2423 0f48 8F93      		push r24
 2424 0f4a 8E85      		ldd r24,Y+14
 2425 0f4c 8F93      		push r24
 2426 0f4e 8D85      		ldd r24,Y+13
 2427 0f50 8F93      		push r24
 2428 0f52 0E94 0000 		call fprintf
 2429 0f56 8DB7      		in r24,__SP_L__
 2430 0f58 9EB7      		in r25,__SP_H__
 2431 0f5a 0896      		adiw r24,8
 2432 0f5c 0FB6      		in __tmp_reg__,__SREG__
 2433 0f5e F894      		cli
 2434 0f60 DEBF      		out __SP_H__,r29
 2435 0f62 0FBE      		out __SREG__,__tmp_reg__
 2436 0f64 CDBF      		out __SP_L__,r28
 279:lp_solve_5.5/lp_report.c ****       k++;
 2437               		.loc 2 279 0
 2438 0f66 8D81      		ldd r24,Y+5
 2439 0f68 9E81      		ldd r25,Y+6
 2440 0f6a 0196      		adiw r24,1
 2441 0f6c 9E83      		std Y+6,r25
 2442 0f6e 8D83      		std Y+5,r24
 280:lp_solve_5.5/lp_report.c ****       if(my_mod(k, 4) == 0) {
 2443               		.loc 2 280 0
 2444 0f70 8D81      		ldd r24,Y+5
 2445 0f72 9E81      		ldd r25,Y+6
 2446 0f74 8370      		andi r24,3
 2447 0f76 9927      		clr r25
 2448 0f78 892B      		or r24,r25
 2449 0f7a 01F4      		brne .L77
 281:lp_solve_5.5/lp_report.c ****         fprintf(output, "\n");
 2450               		.loc 2 281 0
 2451 0f7c 8D85      		ldd r24,Y+13
 2452 0f7e 9E85      		ldd r25,Y+14
 2453 0f80 BC01      		movw r22,r24
 2454 0f82 8AE0      		ldi r24,lo8(10)
 2455 0f84 90E0      		ldi r25,0
 2456 0f86 0E94 0000 		call fputc
 282:lp_solve_5.5/lp_report.c ****         k = 0;
 2457               		.loc 2 282 0
 2458 0f8a 1E82      		std Y+6,__zero_reg__
 2459 0f8c 1D82      		std Y+5,__zero_reg__
 2460               	.L77:
 265:lp_solve_5.5/lp_report.c ****       jb = lp->var_basic[j];
 2461               		.loc 2 265 0 discriminator 2
 2462 0f8e 8B81      		ldd r24,Y+3
 2463 0f90 9C81      		ldd r25,Y+4
 2464 0f92 0196      		adiw r24,1
 2465 0f94 9C83      		std Y+4,r25
 2466 0f96 8B83      		std Y+3,r24
 2467               	.L71:
 265:lp_solve_5.5/lp_report.c ****       jb = lp->var_basic[j];
 2468               		.loc 2 265 0 is_stmt 0 discriminator 1
 2469 0f98 8989      		ldd r24,Y+17
 2470 0f9a 9A89      		ldd r25,Y+18
 2471 0f9c 8651      		subi r24,22
 2472 0f9e 9E4F      		sbci r25,-2
 2473 0fa0 FC01      		movw r30,r24
 2474 0fa2 2081      		ld r18,Z
 2475 0fa4 3181      		ldd r19,Z+1
 2476 0fa6 8B81      		ldd r24,Y+3
 2477 0fa8 9C81      		ldd r25,Y+4
 2478 0faa 2817      		cp r18,r24
 2479 0fac 3907      		cpc r19,r25
 2480 0fae 04F0      		brlt .+2
 2481 0fb0 00C0      		rjmp .L78
 283:lp_solve_5.5/lp_report.c ****       }
 284:lp_solve_5.5/lp_report.c ****     }
 285:lp_solve_5.5/lp_report.c ****     if(my_mod(k, 4) != 0) {
 2482               		.loc 2 285 0 is_stmt 1
 2483 0fb2 8D81      		ldd r24,Y+5
 2484 0fb4 9E81      		ldd r25,Y+6
 2485 0fb6 8370      		andi r24,3
 2486 0fb8 9927      		clr r25
 2487 0fba 892B      		or r24,r25
 2488 0fbc 01F0      		breq .L79
 286:lp_solve_5.5/lp_report.c ****       fprintf(output, "\n");
 2489               		.loc 2 286 0
 2490 0fbe 8D85      		ldd r24,Y+13
 2491 0fc0 9E85      		ldd r25,Y+14
 2492 0fc2 BC01      		movw r22,r24
 2493 0fc4 8AE0      		ldi r24,lo8(10)
 2494 0fc6 90E0      		ldi r25,0
 2495 0fc8 0E94 0000 		call fputc
 287:lp_solve_5.5/lp_report.c ****       k = 0;
 2496               		.loc 2 287 0
 2497 0fcc 1E82      		std Y+6,__zero_reg__
 2498 0fce 1D82      		std Y+5,__zero_reg__
 2499               	.L79:
 264:lp_solve_5.5/lp_report.c ****     for(j = 1; j <= lp->rows; j++) {
 2500               		.loc 2 264 0 discriminator 2
 2501 0fd0 8981      		ldd r24,Y+1
 2502 0fd2 9A81      		ldd r25,Y+2
 2503 0fd4 0196      		adiw r24,1
 2504 0fd6 9A83      		std Y+2,r25
 2505 0fd8 8983      		std Y+1,r24
 2506               	.L70:
 264:lp_solve_5.5/lp_report.c ****     for(j = 1; j <= lp->rows; j++) {
 2507               		.loc 2 264 0 is_stmt 0 discriminator 1
 2508 0fda 2981      		ldd r18,Y+1
 2509 0fdc 3A81      		ldd r19,Y+2
 2510 0fde 8D89      		ldd r24,Y+21
 2511 0fe0 9E89      		ldd r25,Y+22
 2512 0fe2 8217      		cp r24,r18
 2513 0fe4 9307      		cpc r25,r19
 2514 0fe6 04F0      		brlt .+2
 2515 0fe8 00C0      		rjmp .L80
 288:lp_solve_5.5/lp_report.c ****     }
 289:lp_solve_5.5/lp_report.c ****   }
 290:lp_solve_5.5/lp_report.c ****   if(my_mod(k, 4) != 0)
 2516               		.loc 2 290 0 is_stmt 1
 2517 0fea 8D81      		ldd r24,Y+5
 2518 0fec 9E81      		ldd r25,Y+6
 2519 0fee 8370      		andi r24,3
 2520 0ff0 9927      		clr r25
 2521 0ff2 892B      		or r24,r25
 2522 0ff4 01F0      		breq .L82
 291:lp_solve_5.5/lp_report.c ****     fprintf(output, "\n");
 2523               		.loc 2 291 0
 2524 0ff6 8D85      		ldd r24,Y+13
 2525 0ff8 9E85      		ldd r25,Y+14
 2526 0ffa BC01      		movw r22,r24
 2527 0ffc 8AE0      		ldi r24,lo8(10)
 2528 0ffe 90E0      		ldi r25,0
 2529 1000 0E94 0000 		call fputc
 2530               	.L82:
 292:lp_solve_5.5/lp_report.c **** }
 2531               		.loc 2 292 0
 2532 1004 0000      		nop
 2533               	/* epilogue start */
 2534 1006 6696      		adiw r28,22
 2535 1008 0FB6      		in __tmp_reg__,__SREG__
 2536 100a F894      		cli
 2537 100c DEBF      		out __SP_H__,r29
 2538 100e 0FBE      		out __SREG__,__tmp_reg__
 2539 1010 CDBF      		out __SP_L__,r28
 2540 1012 DF91      		pop r29
 2541 1014 CF91      		pop r28
 2542 1016 1F91      		pop r17
 2543 1018 0F91      		pop r16
 2544 101a 0895      		ret
 2545               		.cfi_endproc
 2546               	.LFE15:
 2548               		.section	.rodata
 2549               	.LC9:
 2550 0058 7700      		.string	"w"
 2551               	.LC10:
 2552 005a 0A47 454E 		.string	"\nGENERAL INFORMATION\n-------------------\n\n"
 2552      4552 414C 
 2552      2049 4E46 
 2552      4F52 4D41 
 2552      5449 4F4E 
 2553               	.LC11:
 2554 0085 4D6F 6465 		.string	"Model size:     %d rows (%d equalities, %d Lagrangean), %d columns (%d integers, %d SC, %
 2554      6C20 7369 
 2554      7A65 3A20 
 2554      2020 2020 
 2554      2564 2072 
 2555               	.LC12:
 2556 00ee 4461 7461 		.string	"Data size:      %d model non-zeros, %d invB non-zeros (engine is %s)\n"
 2556      2073 697A 
 2556      653A 2020 
 2556      2020 2020 
 2556      2564 206D 
 2557               	.LC13:
 2558 0134 496E 7465 		.string	"Internal sizes: %d rows allocated, %d columns allocated, %d columns used, %d eta length\n
 2558      726E 616C 
 2558      2073 697A 
 2558      6573 3A20 
 2558      2564 2072 
 2559               	.LC14:
 2560 018d 4D65 6D6F 		.string	"Memory use:     %d sparse matrix, %d eta\n"
 2560      7279 2075 
 2560      7365 3A20 
 2560      2020 2020 
 2560      2564 2073 
 2561               	.LC15:
 2562 01b7 5061 7261 		.string	"Parameters:     Maximize=%d, Names used=%d, Scalingmode=%d, Presolve=%d, SimplexPivot=%d\
 2562      6D65 7465 
 2562      7273 3A20 
 2562      2020 2020 
 2562      4D61 7869 
 2563               	.LC16:
 2564 0211 5072 6563 		.string	"Precision:      EpsValue=%g, EpsPrimal=%g, EpsDual=%g, EpsPivot=%g, EpsPerturb=%g\n"
 2564      6973 696F 
 2564      6E3A 2020 
 2564      2020 2020 
 2564      4570 7356 
 2565               	.LC17:
 2566 0264 5374 6162 		.string	"Stability:      AntiDegen=%d, Improvement=%d, Split variables at=%g\n"
 2566      696C 6974 
 2566      793A 2020 
 2566      2020 2020 
 2566      416E 7469 
 2567               	.LC18:
 2568 02a9 4641 4C53 		.string	"FALSE"
 2568      4500 
 2569               	.LC19:
 2570 02af 5452 5545 		.string	"TRUE"
 2570      00
 2571               	.LC20:
 2572 02b4 4226 4220 		.string	"B&B settings:   BB pivot rule=%d, BB branching=%s, BB strategy=%d, Integer precision=%g, 
 2572      7365 7474 
 2572      696E 6773 
 2572      3A20 2020 
 2572      4242 2070 
 2573               	.LC21:
 2574 031d 0A43 4F52 		.string	"\nCORE DATA\n---------\n\n"
 2574      4520 4441 
 2574      5441 0A2D 
 2574      2D2D 2D2D 
 2574      2D2D 2D2D 
 2575               	.LC22:
 2576 0334 436F 6C75 		.string	"Column starts"
 2576      6D6E 2073 
 2576      7461 7274 
 2576      7300 
 2577               	.LC23:
 2578 0342 726F 775F 		.string	"row_type"
 2578      7479 7065 
 2578      00
 2579               	.LC24:
 2580 034b 6F72 6967 		.string	"orig_rhs"
 2580      5F72 6873 
 2580      00
 2581               	.LC25:
 2582 0354 6F72 6967 		.string	"orig_lowbo"
 2582      5F6C 6F77 
 2582      626F 00
 2583               	.LC26:
 2584 035f 6F72 6967 		.string	"orig_upbo"
 2584      5F75 7062 
 2584      6F00 
 2585               	.LC27:
 2586 0369 7661 725F 		.string	"var_type"
 2586      7479 7065 
 2586      00
 2587               	.LC28:
 2588 0372 4100      		.string	"A"
 2589               	.LC29:
 2590 0374 0A50 524F 		.string	"\nPROCESS DATA\n------------\n\n"
 2590      4345 5353 
 2590      2044 4154 
 2590      410A 2D2D 
 2590      2D2D 2D2D 
 2591               	.LC30:
 2592 0391 4163 7469 		.string	"Active rhs"
 2592      7665 2072 
 2592      6873 00
 2593               	.LC31:
 2594 039c 4261 7369 		.string	"Basic variables"
 2594      6320 7661 
 2594      7269 6162 
 2594      6C65 7300 
 2595               	.LC32:
 2596 03ac 6973 5F62 		.string	"is_basic"
 2596      6173 6963 
 2596      00
 2597               	.LC33:
 2598 03b5 6C6F 7762 		.string	"lowbo"
 2598      6F00 
 2599               	.LC34:
 2600 03bb 7570 626F 		.string	"upbo"
 2600      00
 2601               	.LC35:
 2602 03c0 7363 616C 		.string	"scalars"
 2602      6172 7300 
 2603               		.text
 2604               	.global	REPORT_debugdump
 2606               	REPORT_debugdump:
 2607               	.LFB16:
 293:lp_solve_5.5/lp_report.c **** 
 294:lp_solve_5.5/lp_report.c **** /* Do a generic readable data dump of key lp_solve model variables;
 295:lp_solve_5.5/lp_report.c ****    principally for run difference and debugging purposes */
 296:lp_solve_5.5/lp_report.c **** MYBOOL REPORT_debugdump(lprec *lp, char *filename, MYBOOL livedata)
 297:lp_solve_5.5/lp_report.c **** {
 2608               		.loc 2 297 0
 2609               		.cfi_startproc
 2610 101c 6F92      		push r6
 2611               	.LCFI54:
 2612               		.cfi_def_cfa_offset 3
 2613               		.cfi_offset 6, -2
 2614 101e 7F92      		push r7
 2615               	.LCFI55:
 2616               		.cfi_def_cfa_offset 4
 2617               		.cfi_offset 7, -3
 2618 1020 8F92      		push r8
 2619               	.LCFI56:
 2620               		.cfi_def_cfa_offset 5
 2621               		.cfi_offset 8, -4
 2622 1022 9F92      		push r9
 2623               	.LCFI57:
 2624               		.cfi_def_cfa_offset 6
 2625               		.cfi_offset 9, -5
 2626 1024 AF92      		push r10
 2627               	.LCFI58:
 2628               		.cfi_def_cfa_offset 7
 2629               		.cfi_offset 10, -6
 2630 1026 BF92      		push r11
 2631               	.LCFI59:
 2632               		.cfi_def_cfa_offset 8
 2633               		.cfi_offset 11, -7
 2634 1028 CF92      		push r12
 2635               	.LCFI60:
 2636               		.cfi_def_cfa_offset 9
 2637               		.cfi_offset 12, -8
 2638 102a DF92      		push r13
 2639               	.LCFI61:
 2640               		.cfi_def_cfa_offset 10
 2641               		.cfi_offset 13, -9
 2642 102c EF92      		push r14
 2643               	.LCFI62:
 2644               		.cfi_def_cfa_offset 11
 2645               		.cfi_offset 14, -10
 2646 102e FF92      		push r15
 2647               	.LCFI63:
 2648               		.cfi_def_cfa_offset 12
 2649               		.cfi_offset 15, -11
 2650 1030 0F93      		push r16
 2651               	.LCFI64:
 2652               		.cfi_def_cfa_offset 13
 2653               		.cfi_offset 16, -12
 2654 1032 1F93      		push r17
 2655               	.LCFI65:
 2656               		.cfi_def_cfa_offset 14
 2657               		.cfi_offset 17, -13
 2658 1034 CF93      		push r28
 2659               	.LCFI66:
 2660               		.cfi_def_cfa_offset 15
 2661               		.cfi_offset 28, -14
 2662 1036 DF93      		push r29
 2663               	.LCFI67:
 2664               		.cfi_def_cfa_offset 16
 2665               		.cfi_offset 29, -15
 2666 1038 CDB7      		in r28,__SP_L__
 2667 103a DEB7      		in r29,__SP_H__
 2668               	.LCFI68:
 2669               		.cfi_def_cfa_register 28
 2670 103c 2897      		sbiw r28,8
 2671               	.LCFI69:
 2672               		.cfi_def_cfa_offset 24
 2673 103e 0FB6      		in __tmp_reg__,__SREG__
 2674 1040 F894      		cli
 2675 1042 DEBF      		out __SP_H__,r29
 2676 1044 0FBE      		out __SREG__,__tmp_reg__
 2677 1046 CDBF      		out __SP_L__,r28
 2678               	/* prologue: function */
 2679               	/* frame size = 8 */
 2680               	/* stack size = 22 */
 2681               	.L__stack_usage = 22
 2682 1048 9D83      		std Y+5,r25
 2683 104a 8C83      		std Y+4,r24
 2684 104c 7F83      		std Y+7,r23
 2685 104e 6E83      		std Y+6,r22
 2686 1050 4887      		std Y+8,r20
 298:lp_solve_5.5/lp_report.c ****   FILE   *output = stdout;
 2687               		.loc 2 298 0
 2688 1052 8091 0000 		lds r24,__iob+2
 2689 1056 9091 0000 		lds r25,__iob+2+1
 2690 105a 9A83      		std Y+2,r25
 2691 105c 8983      		std Y+1,r24
 299:lp_solve_5.5/lp_report.c ****   MYBOOL ok;
 300:lp_solve_5.5/lp_report.c **** 
 301:lp_solve_5.5/lp_report.c ****   ok = (MYBOOL) ((filename == NULL) || ((output = fopen(filename,"w")) != NULL));
 2692               		.loc 2 301 0
 2693 105e 8E81      		ldd r24,Y+6
 2694 1060 9F81      		ldd r25,Y+7
 2695 1062 892B      		or r24,r25
 2696 1064 01F0      		breq .L84
 2697               		.loc 2 301 0 is_stmt 0 discriminator 2
 2698 1066 8E81      		ldd r24,Y+6
 2699 1068 9F81      		ldd r25,Y+7
 2700 106a 60E0      		ldi r22,lo8(.LC9)
 2701 106c 70E0      		ldi r23,hi8(.LC9)
 2702 106e 0E94 0000 		call fopen
 2703 1072 9A83      		std Y+2,r25
 2704 1074 8983      		std Y+1,r24
 2705 1076 8981      		ldd r24,Y+1
 2706 1078 9A81      		ldd r25,Y+2
 2707 107a 892B      		or r24,r25
 2708 107c 01F0      		breq .L85
 2709               	.L84:
 2710               		.loc 2 301 0 discriminator 3
 2711 107e 81E0      		ldi r24,lo8(1)
 2712 1080 90E0      		ldi r25,0
 2713 1082 00C0      		rjmp .L86
 2714               	.L85:
 2715               		.loc 2 301 0 discriminator 4
 2716 1084 80E0      		ldi r24,0
 2717 1086 90E0      		ldi r25,0
 2718               	.L86:
 2719               		.loc 2 301 0 discriminator 6
 2720 1088 8B83      		std Y+3,r24
 302:lp_solve_5.5/lp_report.c ****   if(!ok)
 2721               		.loc 2 302 0 is_stmt 1 discriminator 6
 2722 108a 8B81      		ldd r24,Y+3
 2723 108c 8823      		tst r24
 2724 108e 01F4      		brne .L87
 303:lp_solve_5.5/lp_report.c ****     return(ok);
 2725               		.loc 2 303 0
 2726 1090 8B81      		ldd r24,Y+3
 2727 1092 00C0      		rjmp .L88
 2728               	.L87:
 304:lp_solve_5.5/lp_report.c ****   if((filename == NULL) && (lp->outstream != NULL))
 2729               		.loc 2 304 0
 2730 1094 8E81      		ldd r24,Y+6
 2731 1096 9F81      		ldd r25,Y+7
 2732 1098 892B      		or r24,r25
 2733 109a 01F4      		brne .L89
 2734               		.loc 2 304 0 is_stmt 0 discriminator 1
 2735 109c 8C81      		ldd r24,Y+4
 2736 109e 9D81      		ldd r25,Y+5
 2737 10a0 845A      		subi r24,-92
 2738 10a2 9D4F      		sbci r25,-3
 2739 10a4 FC01      		movw r30,r24
 2740 10a6 8081      		ld r24,Z
 2741 10a8 9181      		ldd r25,Z+1
 2742 10aa 892B      		or r24,r25
 2743 10ac 01F0      		breq .L89
 305:lp_solve_5.5/lp_report.c ****     output = lp->outstream;
 2744               		.loc 2 305 0 is_stmt 1
 2745 10ae 8C81      		ldd r24,Y+4
 2746 10b0 9D81      		ldd r25,Y+5
 2747 10b2 845A      		subi r24,-92
 2748 10b4 9D4F      		sbci r25,-3
 2749 10b6 FC01      		movw r30,r24
 2750 10b8 8081      		ld r24,Z
 2751 10ba 9181      		ldd r25,Z+1
 2752 10bc 9A83      		std Y+2,r25
 2753 10be 8983      		std Y+1,r24
 2754               	.L89:
 306:lp_solve_5.5/lp_report.c **** 
 307:lp_solve_5.5/lp_report.c ****   fprintf(output, "\nGENERAL INFORMATION\n-------------------\n\n");
 2755               		.loc 2 307 0
 2756 10c0 8981      		ldd r24,Y+1
 2757 10c2 9A81      		ldd r25,Y+2
 2758 10c4 9C01      		movw r18,r24
 2759 10c6 4AE2      		ldi r20,lo8(42)
 2760 10c8 50E0      		ldi r21,0
 2761 10ca 61E0      		ldi r22,lo8(1)
 2762 10cc 70E0      		ldi r23,0
 2763 10ce 80E0      		ldi r24,lo8(.LC10)
 2764 10d0 90E0      		ldi r25,hi8(.LC10)
 2765 10d2 0E94 0000 		call fwrite
 308:lp_solve_5.5/lp_report.c ****   fprintf(output, "Model size:     %d rows (%d equalities, %d Lagrangean), %d columns (%d integers,
 2766               		.loc 2 308 0
 2767 10d6 8C81      		ldd r24,Y+4
 2768 10d8 9D81      		ldd r25,Y+5
 2769 10da 0E94 0000 		call GUB_count
 2770 10de 4C01      		movw r8,r24
 2771 10e0 8C81      		ldd r24,Y+4
 2772 10e2 9D81      		ldd r25,Y+5
 2773 10e4 0E94 0000 		call SOS_count
 2774 10e8 5C01      		movw r10,r24
 2775 10ea 8C81      		ldd r24,Y+4
 2776 10ec 9D81      		ldd r25,Y+5
 2777 10ee 8057      		subi r24,112
 2778 10f0 9D4F      		sbci r25,-3
 2779 10f2 FC01      		movw r30,r24
 2780 10f4 C080      		ld r12,Z
 2781 10f6 D180      		ldd r13,Z+1
 2782 10f8 8C81      		ldd r24,Y+4
 2783 10fa 9D81      		ldd r25,Y+5
 2784 10fc 8257      		subi r24,114
 2785 10fe 9D4F      		sbci r25,-3
 2786 1100 FC01      		movw r30,r24
 2787 1102 E080      		ld r14,Z
 2788 1104 F180      		ldd r15,Z+1
 2789 1106 8C81      		ldd r24,Y+4
 2790 1108 9D81      		ldd r25,Y+5
 2791 110a 8451      		subi r24,20
 2792 110c 9E4F      		sbci r25,-2
 2793 110e FC01      		movw r30,r24
 2794 1110 0081      		ld r16,Z
 2795 1112 1181      		ldd r17,Z+1
 2796 1114 8C81      		ldd r24,Y+4
 2797 1116 9D81      		ldd r25,Y+5
 2798 1118 0E94 0000 		call get_Lrows
 2799 111c AC01      		movw r20,r24
 2800 111e 8C81      		ldd r24,Y+4
 2801 1120 9D81      		ldd r25,Y+5
 2802 1122 8251      		subi r24,18
 2803 1124 9E4F      		sbci r25,-2
 2804 1126 FC01      		movw r30,r24
 2805 1128 2081      		ld r18,Z
 2806 112a 3181      		ldd r19,Z+1
 2807 112c 8C81      		ldd r24,Y+4
 2808 112e 9D81      		ldd r25,Y+5
 2809 1130 8651      		subi r24,22
 2810 1132 9E4F      		sbci r25,-2
 2811 1134 FC01      		movw r30,r24
 2812 1136 8081      		ld r24,Z
 2813 1138 9181      		ldd r25,Z+1
 2814 113a 692D      		mov r22,r9
 2815 113c 6F93      		push r22
 2816 113e 682D      		mov r22,r8
 2817 1140 6F93      		push r22
 2818 1142 6B2D      		mov r22,r11
 2819 1144 6F93      		push r22
 2820 1146 6A2D      		mov r22,r10
 2821 1148 6F93      		push r22
 2822 114a 6D2D      		mov r22,r13
 2823 114c 6F93      		push r22
 2824 114e 6C2D      		mov r22,r12
 2825 1150 6F93      		push r22
 2826 1152 6F2D      		mov r22,r15
 2827 1154 6F93      		push r22
 2828 1156 6E2D      		mov r22,r14
 2829 1158 6F93      		push r22
 2830 115a 612F      		mov r22,r17
 2831 115c 6F93      		push r22
 2832 115e 602F      		mov r22,r16
 2833 1160 6F93      		push r22
 2834 1162 652F      		mov r22,r21
 2835 1164 6F93      		push r22
 2836 1166 4F93      		push r20
 2837 1168 432F      		mov r20,r19
 2838 116a 4F93      		push r20
 2839 116c 2F93      		push r18
 2840 116e 292F      		mov r18,r25
 2841 1170 2F93      		push r18
 2842 1172 8F93      		push r24
 2843 1174 80E0      		ldi r24,lo8(.LC11)
 2844 1176 90E0      		ldi r25,hi8(.LC11)
 2845 1178 892F      		mov r24,r25
 2846 117a 8F93      		push r24
 2847 117c 80E0      		ldi r24,lo8(.LC11)
 2848 117e 90E0      		ldi r25,hi8(.LC11)
 2849 1180 8F93      		push r24
 2850 1182 8A81      		ldd r24,Y+2
 2851 1184 8F93      		push r24
 2852 1186 8981      		ldd r24,Y+1
 2853 1188 8F93      		push r24
 2854 118a 0E94 0000 		call fprintf
 2855 118e 8DB7      		in r24,__SP_L__
 2856 1190 9EB7      		in r25,__SP_H__
 2857 1192 4496      		adiw r24,20
 2858 1194 0FB6      		in __tmp_reg__,__SREG__
 2859 1196 F894      		cli
 2860 1198 DEBF      		out __SP_H__,r29
 2861 119a 0FBE      		out __SREG__,__tmp_reg__
 2862 119c CDBF      		out __SP_L__,r28
 309:lp_solve_5.5/lp_report.c ****                   lp->rows, lp->equalities, get_Lrows(lp), lp->columns,
 310:lp_solve_5.5/lp_report.c ****       lp->int_vars, lp->sc_vars, SOS_count(lp), GUB_count(lp));
 311:lp_solve_5.5/lp_report.c ****   fprintf(output, "Data size:      %d model non-zeros, %d invB non-zeros (engine is %s)\n",
 312:lp_solve_5.5/lp_report.c ****                   get_nonzeros(lp), my_if(lp->invB == NULL, 0, lp->bfp_nonzeros(lp, FALSE)), lp->bf
 2863               		.loc 2 312 0
 2864 119e 8C81      		ldd r24,Y+4
 2865 11a0 9D81      		ldd r25,Y+5
 2866 11a2 8E56      		subi r24,110
 2867 11a4 9C4F      		sbci r25,-4
 2868 11a6 FC01      		movw r30,r24
 2869 11a8 8081      		ld r24,Z
 2870 11aa 9181      		ldd r25,Z+1
 311:lp_solve_5.5/lp_report.c ****                   get_nonzeros(lp), my_if(lp->invB == NULL, 0, lp->bfp_nonzeros(lp, FALSE)), lp->bf
 2871               		.loc 2 311 0
 2872 11ac FC01      		movw r30,r24
 2873 11ae 0995      		icall
 2874 11b0 7C01      		movw r14,r24
 2875               		.loc 2 312 0
 2876 11b2 8C81      		ldd r24,Y+4
 2877 11b4 9D81      		ldd r25,Y+5
 2878 11b6 8854      		subi r24,72
 2879 11b8 9D4F      		sbci r25,-3
 2880 11ba FC01      		movw r30,r24
 2881 11bc 8081      		ld r24,Z
 2882 11be 9181      		ldd r25,Z+1
 311:lp_solve_5.5/lp_report.c ****                   get_nonzeros(lp), my_if(lp->invB == NULL, 0, lp->bfp_nonzeros(lp, FALSE)), lp->bf
 2883               		.loc 2 311 0
 2884 11c0 892B      		or r24,r25
 2885 11c2 01F0      		breq .L90
 2886               		.loc 2 312 0 discriminator 1
 2887 11c4 8C81      		ldd r24,Y+4
 2888 11c6 9D81      		ldd r25,Y+5
 2889 11c8 8654      		subi r24,70
 2890 11ca 9C4F      		sbci r25,-4
 2891 11cc FC01      		movw r30,r24
 2892 11ce 2081      		ld r18,Z
 2893 11d0 3181      		ldd r19,Z+1
 311:lp_solve_5.5/lp_report.c ****                   get_nonzeros(lp), my_if(lp->invB == NULL, 0, lp->bfp_nonzeros(lp, FALSE)), lp->bf
 2894               		.loc 2 311 0 discriminator 1
 2895 11d2 8C81      		ldd r24,Y+4
 2896 11d4 9D81      		ldd r25,Y+5
 2897 11d6 60E0      		ldi r22,0
 2898 11d8 F901      		movw r30,r18
 2899 11da 0995      		icall
 2900 11dc 8C01      		movw r16,r24
 2901 11de 00C0      		rjmp .L91
 2902               	.L90:
 311:lp_solve_5.5/lp_report.c ****                   get_nonzeros(lp), my_if(lp->invB == NULL, 0, lp->bfp_nonzeros(lp, FALSE)), lp->bf
 2903               		.loc 2 311 0 is_stmt 0 discriminator 2
 2904 11e0 00E0      		ldi r16,0
 2905 11e2 10E0      		ldi r17,0
 2906               	.L91:
 311:lp_solve_5.5/lp_report.c ****                   get_nonzeros(lp), my_if(lp->invB == NULL, 0, lp->bfp_nonzeros(lp, FALSE)), lp->bf
 2907               		.loc 2 311 0 discriminator 4
 2908 11e4 8C81      		ldd r24,Y+4
 2909 11e6 9D81      		ldd r25,Y+5
 2910 11e8 0E94 0000 		call get_nonzeros
 2911 11ec 2F2D      		mov r18,r15
 2912 11ee 2F93      		push r18
 2913 11f0 2E2D      		mov r18,r14
 2914 11f2 2F93      		push r18
 2915 11f4 212F      		mov r18,r17
 2916 11f6 2F93      		push r18
 2917 11f8 202F      		mov r18,r16
 2918 11fa 2F93      		push r18
 2919 11fc 292F      		mov r18,r25
 2920 11fe 2F93      		push r18
 2921 1200 8F93      		push r24
 2922 1202 80E0      		ldi r24,lo8(.LC12)
 2923 1204 90E0      		ldi r25,hi8(.LC12)
 2924 1206 892F      		mov r24,r25
 2925 1208 8F93      		push r24
 2926 120a 80E0      		ldi r24,lo8(.LC12)
 2927 120c 90E0      		ldi r25,hi8(.LC12)
 2928 120e 8F93      		push r24
 2929 1210 8A81      		ldd r24,Y+2
 2930 1212 8F93      		push r24
 2931 1214 8981      		ldd r24,Y+1
 2932 1216 8F93      		push r24
 2933 1218 0E94 0000 		call fprintf
 2934 121c 8DB7      		in r24,__SP_L__
 2935 121e 9EB7      		in r25,__SP_H__
 2936 1220 0A96      		adiw r24,10
 2937 1222 0FB6      		in __tmp_reg__,__SREG__
 2938 1224 F894      		cli
 2939 1226 DEBF      		out __SP_H__,r29
 2940 1228 0FBE      		out __SREG__,__tmp_reg__
 2941 122a CDBF      		out __SP_L__,r28
 313:lp_solve_5.5/lp_report.c ****   fprintf(output, "Internal sizes: %d rows allocated, %d columns allocated, %d columns used, %d eta
 314:lp_solve_5.5/lp_report.c ****                   lp->rows_alloc, lp->columns_alloc, lp->columns, my_if(lp->invB == NULL, 0, lp->bf
 2942               		.loc 2 314 0 is_stmt 1 discriminator 4
 2943 122c 8C81      		ldd r24,Y+4
 2944 122e 9D81      		ldd r25,Y+5
 2945 1230 8854      		subi r24,72
 2946 1232 9D4F      		sbci r25,-3
 2947 1234 FC01      		movw r30,r24
 2948 1236 8081      		ld r24,Z
 2949 1238 9181      		ldd r25,Z+1
 313:lp_solve_5.5/lp_report.c ****   fprintf(output, "Internal sizes: %d rows allocated, %d columns allocated, %d columns used, %d eta
 2950               		.loc 2 313 0 discriminator 4
 2951 123a 892B      		or r24,r25
 2952 123c 01F0      		breq .L92
 2953               		.loc 2 314 0 discriminator 1
 2954 123e 8C81      		ldd r24,Y+4
 2955 1240 9D81      		ldd r25,Y+5
 2956 1242 8A53      		subi r24,58
 2957 1244 9C4F      		sbci r25,-4
 2958 1246 FC01      		movw r30,r24
 2959 1248 2081      		ld r18,Z
 2960 124a 3181      		ldd r19,Z+1
 313:lp_solve_5.5/lp_report.c ****   fprintf(output, "Internal sizes: %d rows allocated, %d columns allocated, %d columns used, %d eta
 2961               		.loc 2 313 0 discriminator 1
 2962 124c 8C81      		ldd r24,Y+4
 2963 124e 9D81      		ldd r25,Y+5
 2964 1250 F901      		movw r30,r18
 2965 1252 0995      		icall
 2966 1254 BC01      		movw r22,r24
 2967 1256 00C0      		rjmp .L93
 2968               	.L92:
 313:lp_solve_5.5/lp_report.c ****   fprintf(output, "Internal sizes: %d rows allocated, %d columns allocated, %d columns used, %d eta
 2969               		.loc 2 313 0 is_stmt 0 discriminator 2
 2970 1258 60E0      		ldi r22,0
 2971 125a 70E0      		ldi r23,0
 2972               	.L93:
 313:lp_solve_5.5/lp_report.c ****   fprintf(output, "Internal sizes: %d rows allocated, %d columns allocated, %d columns used, %d eta
 2973               		.loc 2 313 0 discriminator 4
 2974 125c 8C81      		ldd r24,Y+4
 2975 125e 9D81      		ldd r25,Y+5
 2976 1260 8451      		subi r24,20
 2977 1262 9E4F      		sbci r25,-2
 2978 1264 FC01      		movw r30,r24
 2979 1266 4081      		ld r20,Z
 2980 1268 5181      		ldd r21,Z+1
 2981 126a 8C81      		ldd r24,Y+4
 2982 126c 9D81      		ldd r25,Y+5
 2983 126e 8850      		subi r24,8
 2984 1270 9E4F      		sbci r25,-2
 2985 1272 FC01      		movw r30,r24
 2986 1274 2081      		ld r18,Z
 2987 1276 3181      		ldd r19,Z+1
 2988 1278 8C81      		ldd r24,Y+4
 2989 127a 9D81      		ldd r25,Y+5
 2990 127c 8A50      		subi r24,10
 2991 127e 9E4F      		sbci r25,-2
 2992 1280 FC01      		movw r30,r24
 2993 1282 8081      		ld r24,Z
 2994 1284 9181      		ldd r25,Z+1
 2995 1286 E72F      		mov r30,r23
 2996 1288 EF93      		push r30
 2997 128a 6F93      		push r22
 2998 128c 652F      		mov r22,r21
 2999 128e 6F93      		push r22
 3000 1290 4F93      		push r20
 3001 1292 432F      		mov r20,r19
 3002 1294 4F93      		push r20
 3003 1296 2F93      		push r18
 3004 1298 292F      		mov r18,r25
 3005 129a 2F93      		push r18
 3006 129c 8F93      		push r24
 3007 129e 80E0      		ldi r24,lo8(.LC13)
 3008 12a0 90E0      		ldi r25,hi8(.LC13)
 3009 12a2 892F      		mov r24,r25
 3010 12a4 8F93      		push r24
 3011 12a6 80E0      		ldi r24,lo8(.LC13)
 3012 12a8 90E0      		ldi r25,hi8(.LC13)
 3013 12aa 8F93      		push r24
 3014 12ac 8A81      		ldd r24,Y+2
 3015 12ae 8F93      		push r24
 3016 12b0 8981      		ldd r24,Y+1
 3017 12b2 8F93      		push r24
 3018 12b4 0E94 0000 		call fprintf
 3019 12b8 8DB7      		in r24,__SP_L__
 3020 12ba 9EB7      		in r25,__SP_H__
 3021 12bc 0C96      		adiw r24,12
 3022 12be 0FB6      		in __tmp_reg__,__SREG__
 3023 12c0 F894      		cli
 3024 12c2 DEBF      		out __SP_H__,r29
 3025 12c4 0FBE      		out __SREG__,__tmp_reg__
 3026 12c6 CDBF      		out __SP_L__,r28
 315:lp_solve_5.5/lp_report.c ****   fprintf(output, "Memory use:     %d sparse matrix, %d eta\n",
 316:lp_solve_5.5/lp_report.c ****                   lp->matA->mat_alloc, my_if(lp->invB == NULL, 0, lp->bfp_memallocated(lp)));
 3027               		.loc 2 316 0 is_stmt 1 discriminator 4
 3028 12c8 8C81      		ldd r24,Y+4
 3029 12ca 9D81      		ldd r25,Y+5
 3030 12cc 8854      		subi r24,72
 3031 12ce 9D4F      		sbci r25,-3
 3032 12d0 FC01      		movw r30,r24
 3033 12d2 8081      		ld r24,Z
 3034 12d4 9181      		ldd r25,Z+1
 315:lp_solve_5.5/lp_report.c ****   fprintf(output, "Memory use:     %d sparse matrix, %d eta\n",
 3035               		.loc 2 315 0 discriminator 4
 3036 12d6 892B      		or r24,r25
 3037 12d8 01F0      		breq .L94
 3038               		.loc 2 316 0 discriminator 1
 3039 12da 8C81      		ldd r24,Y+4
 3040 12dc 9D81      		ldd r25,Y+5
 3041 12de 8456      		subi r24,100
 3042 12e0 9C4F      		sbci r25,-4
 3043 12e2 FC01      		movw r30,r24
 3044 12e4 2081      		ld r18,Z
 3045 12e6 3181      		ldd r19,Z+1
 315:lp_solve_5.5/lp_report.c ****   fprintf(output, "Memory use:     %d sparse matrix, %d eta\n",
 3046               		.loc 2 315 0 discriminator 1
 3047 12e8 8C81      		ldd r24,Y+4
 3048 12ea 9D81      		ldd r25,Y+5
 3049 12ec F901      		movw r30,r18
 3050 12ee 0995      		icall
 3051 12f0 9C01      		movw r18,r24
 3052 12f2 00C0      		rjmp .L95
 3053               	.L94:
 315:lp_solve_5.5/lp_report.c ****   fprintf(output, "Memory use:     %d sparse matrix, %d eta\n",
 3054               		.loc 2 315 0 is_stmt 0 discriminator 2
 3055 12f4 20E0      		ldi r18,0
 3056 12f6 30E0      		ldi r19,0
 3057               	.L95:
 3058               		.loc 2 316 0 is_stmt 1
 3059 12f8 8C81      		ldd r24,Y+4
 3060 12fa 9D81      		ldd r25,Y+5
 3061 12fc 8A54      		subi r24,74
 3062 12fe 9D4F      		sbci r25,-3
 3063 1300 FC01      		movw r30,r24
 3064 1302 8081      		ld r24,Z
 3065 1304 9181      		ldd r25,Z+1
 315:lp_solve_5.5/lp_report.c ****   fprintf(output, "Memory use:     %d sparse matrix, %d eta\n",
 3066               		.loc 2 315 0
 3067 1306 FC01      		movw r30,r24
 3068 1308 8285      		ldd r24,Z+10
 3069 130a 9385      		ldd r25,Z+11
 3070 130c 432F      		mov r20,r19
 3071 130e 4F93      		push r20
 3072 1310 2F93      		push r18
 3073 1312 292F      		mov r18,r25
 3074 1314 2F93      		push r18
 3075 1316 8F93      		push r24
 3076 1318 80E0      		ldi r24,lo8(.LC14)
 3077 131a 90E0      		ldi r25,hi8(.LC14)
 3078 131c 892F      		mov r24,r25
 3079 131e 8F93      		push r24
 3080 1320 80E0      		ldi r24,lo8(.LC14)
 3081 1322 90E0      		ldi r25,hi8(.LC14)
 3082 1324 8F93      		push r24
 3083 1326 8A81      		ldd r24,Y+2
 3084 1328 8F93      		push r24
 3085 132a 8981      		ldd r24,Y+1
 3086 132c 8F93      		push r24
 3087 132e 0E94 0000 		call fprintf
 3088 1332 8DB7      		in r24,__SP_L__
 3089 1334 9EB7      		in r25,__SP_H__
 3090 1336 0896      		adiw r24,8
 3091 1338 0FB6      		in __tmp_reg__,__SREG__
 3092 133a F894      		cli
 3093 133c DEBF      		out __SP_H__,r29
 3094 133e 0FBE      		out __SREG__,__tmp_reg__
 3095 1340 CDBF      		out __SP_L__,r28
 317:lp_solve_5.5/lp_report.c ****   fprintf(output, "Parameters:     Maximize=%d, Names used=%d, Scalingmode=%d, Presolve=%d, Simplex
 3096               		.loc 2 317 0
 3097 1342 8C81      		ldd r24,Y+4
 3098 1344 9D81      		ldd r25,Y+5
 3099 1346 805A      		subi r24,-96
 3100 1348 9D4F      		sbci r25,-3
 3101 134a FC01      		movw r30,r24
 3102 134c A080      		ld r10,Z
 3103 134e B180      		ldd r11,Z+1
 3104 1350 8C81      		ldd r24,Y+4
 3105 1352 9D81      		ldd r25,Y+5
 3106 1354 8C58      		subi r24,-116
 3107 1356 9D4F      		sbci r25,-3
 3108 1358 FC01      		movw r30,r24
 3109 135a C080      		ld r12,Z
 3110 135c D180      		ldd r13,Z+1
 3111 135e 8C81      		ldd r24,Y+4
 3112 1360 9D81      		ldd r25,Y+5
 3113 1362 8259      		subi r24,-110
 3114 1364 9D4F      		sbci r25,-3
 3115 1366 FC01      		movw r30,r24
 3116 1368 E080      		ld r14,Z
 3117 136a F180      		ldd r15,Z+1
 318:lp_solve_5.5/lp_report.c ****                   is_maxim(lp), lp->names_used, lp->scalemode, lp->do_presolve, lp->piv_strategy);
 3118               		.loc 2 318 0
 3119 136c 8C81      		ldd r24,Y+4
 3120 136e 9D81      		ldd r25,Y+5
 3121 1370 8250      		subi r24,2
 3122 1372 9E4F      		sbci r25,-2
 3123 1374 FC01      		movw r30,r24
 3124 1376 8081      		ld r24,Z
 317:lp_solve_5.5/lp_report.c ****   fprintf(output, "Parameters:     Maximize=%d, Names used=%d, Scalingmode=%d, Presolve=%d, Simplex
 3125               		.loc 2 317 0
 3126 1378 082F      		mov r16,r24
 3127 137a 10E0      		ldi r17,0
 3128               		.loc 2 318 0
 3129 137c 8C81      		ldd r24,Y+4
 3130 137e 9D81      		ldd r25,Y+5
 3131 1380 0E94 0000 		call is_maxim
 317:lp_solve_5.5/lp_report.c ****   fprintf(output, "Parameters:     Maximize=%d, Names used=%d, Scalingmode=%d, Presolve=%d, Simplex
 3132               		.loc 2 317 0
 3133 1384 882F      		mov r24,r24
 3134 1386 90E0      		ldi r25,0
 3135 1388 2B2D      		mov r18,r11
 3136 138a 2F93      		push r18
 3137 138c 2A2D      		mov r18,r10
 3138 138e 2F93      		push r18
 3139 1390 2D2D      		mov r18,r13
 3140 1392 2F93      		push r18
 3141 1394 2C2D      		mov r18,r12
 3142 1396 2F93      		push r18
 3143 1398 2F2D      		mov r18,r15
 3144 139a 2F93      		push r18
 3145 139c 2E2D      		mov r18,r14
 3146 139e 2F93      		push r18
 3147 13a0 212F      		mov r18,r17
 3148 13a2 2F93      		push r18
 3149 13a4 202F      		mov r18,r16
 3150 13a6 2F93      		push r18
 3151 13a8 292F      		mov r18,r25
 3152 13aa 2F93      		push r18
 3153 13ac 8F93      		push r24
 3154 13ae 80E0      		ldi r24,lo8(.LC15)
 3155 13b0 90E0      		ldi r25,hi8(.LC15)
 3156 13b2 892F      		mov r24,r25
 3157 13b4 8F93      		push r24
 3158 13b6 80E0      		ldi r24,lo8(.LC15)
 3159 13b8 90E0      		ldi r25,hi8(.LC15)
 3160 13ba 8F93      		push r24
 3161 13bc 8A81      		ldd r24,Y+2
 3162 13be 8F93      		push r24
 3163 13c0 8981      		ldd r24,Y+1
 3164 13c2 8F93      		push r24
 3165 13c4 0E94 0000 		call fprintf
 3166 13c8 8DB7      		in r24,__SP_L__
 3167 13ca 9EB7      		in r25,__SP_H__
 3168 13cc 0E96      		adiw r24,14
 3169 13ce 0FB6      		in __tmp_reg__,__SREG__
 3170 13d0 F894      		cli
 3171 13d2 DEBF      		out __SP_H__,r29
 3172 13d4 0FBE      		out __SREG__,__tmp_reg__
 3173 13d6 CDBF      		out __SP_L__,r28
 319:lp_solve_5.5/lp_report.c ****   fprintf(output, "Precision:      EpsValue=%g, EpsPrimal=%g, EpsDual=%g, EpsPivot=%g, EpsPerturb=%
 3174               		.loc 2 319 0
 3175 13d8 8C81      		ldd r24,Y+4
 3176 13da 9D81      		ldd r25,Y+5
 3177 13dc 8A5D      		subi r24,-38
 3178 13de 9C4F      		sbci r25,-4
 3179 13e0 FC01      		movw r30,r24
 3180 13e2 6080      		ld r6,Z
 3181 13e4 7180      		ldd r7,Z+1
 3182 13e6 8280      		ldd r8,Z+2
 3183 13e8 9380      		ldd r9,Z+3
 3184 13ea 8C81      		ldd r24,Y+4
 3185 13ec 9D81      		ldd r25,Y+5
 3186 13ee 8E5D      		subi r24,-34
 3187 13f0 9C4F      		sbci r25,-4
 3188 13f2 FC01      		movw r30,r24
 3189 13f4 A080      		ld r10,Z
 3190 13f6 B180      		ldd r11,Z+1
 3191 13f8 C280      		ldd r12,Z+2
 3192 13fa D380      		ldd r13,Z+3
 3193 13fc 8C81      		ldd r24,Y+4
 3194 13fe 9D81      		ldd r25,Y+5
 3195 1400 825E      		subi r24,-30
 3196 1402 9C4F      		sbci r25,-4
 3197 1404 FC01      		movw r30,r24
 3198 1406 E080      		ld r14,Z
 3199 1408 F180      		ldd r15,Z+1
 3200 140a 0281      		ldd r16,Z+2
 3201 140c 1381      		ldd r17,Z+3
 3202 140e 8C81      		ldd r24,Y+4
 3203 1410 9D81      		ldd r25,Y+5
 3204 1412 865E      		subi r24,-26
 3205 1414 9C4F      		sbci r25,-4
 3206 1416 FC01      		movw r30,r24
 3207 1418 2081      		ld r18,Z
 3208 141a 3181      		ldd r19,Z+1
 3209 141c 4281      		ldd r20,Z+2
 3210 141e 5381      		ldd r21,Z+3
 3211 1420 8C81      		ldd r24,Y+4
 3212 1422 9D81      		ldd r25,Y+5
 3213 1424 8A5E      		subi r24,-22
 3214 1426 9C4F      		sbci r25,-4
 3215 1428 FC01      		movw r30,r24
 3216 142a 8081      		ld r24,Z
 3217 142c 9181      		ldd r25,Z+1
 3218 142e A281      		ldd r26,Z+2
 3219 1430 B381      		ldd r27,Z+3
 3220 1432 692D      		mov r22,r9
 3221 1434 6F93      		push r22
 3222 1436 682D      		mov r22,r8
 3223 1438 6F93      		push r22
 3224 143a 672D      		mov r22,r7
 3225 143c 6F93      		push r22
 3226 143e 662D      		mov r22,r6
 3227 1440 6F93      		push r22
 3228 1442 6D2D      		mov r22,r13
 3229 1444 6F93      		push r22
 3230 1446 6C2D      		mov r22,r12
 3231 1448 6F93      		push r22
 3232 144a 6B2D      		mov r22,r11
 3233 144c 6F93      		push r22
 3234 144e 6A2D      		mov r22,r10
 3235 1450 6F93      		push r22
 3236 1452 612F      		mov r22,r17
 3237 1454 6F93      		push r22
 3238 1456 602F      		mov r22,r16
 3239 1458 6F93      		push r22
 3240 145a 6F2D      		mov r22,r15
 3241 145c 6F93      		push r22
 3242 145e 6E2D      		mov r22,r14
 3243 1460 6F93      		push r22
 3244 1462 652F      		mov r22,r21
 3245 1464 6F93      		push r22
 3246 1466 642F      		mov r22,r20
 3247 1468 6F93      		push r22
 3248 146a 632F      		mov r22,r19
 3249 146c 6F93      		push r22
 3250 146e 2F93      		push r18
 3251 1470 2B2F      		mov r18,r27
 3252 1472 2F93      		push r18
 3253 1474 2A2F      		mov r18,r26
 3254 1476 2F93      		push r18
 3255 1478 292F      		mov r18,r25
 3256 147a 2F93      		push r18
 3257 147c 8F93      		push r24
 3258 147e 80E0      		ldi r24,lo8(.LC16)
 3259 1480 90E0      		ldi r25,hi8(.LC16)
 3260 1482 892F      		mov r24,r25
 3261 1484 8F93      		push r24
 3262 1486 80E0      		ldi r24,lo8(.LC16)
 3263 1488 90E0      		ldi r25,hi8(.LC16)
 3264 148a 8F93      		push r24
 3265 148c 8A81      		ldd r24,Y+2
 3266 148e 8F93      		push r24
 3267 1490 8981      		ldd r24,Y+1
 3268 1492 8F93      		push r24
 3269 1494 0E94 0000 		call fprintf
 3270 1498 8DB7      		in r24,__SP_L__
 3271 149a 9EB7      		in r25,__SP_H__
 3272 149c 4896      		adiw r24,24
 3273 149e 0FB6      		in __tmp_reg__,__SREG__
 3274 14a0 F894      		cli
 3275 14a2 DEBF      		out __SP_H__,r29
 3276 14a4 0FBE      		out __SREG__,__tmp_reg__
 3277 14a6 CDBF      		out __SP_L__,r28
 320:lp_solve_5.5/lp_report.c ****                   lp->epsvalue, lp->epsprimal, lp->epsdual, lp->epspivot, lp->epsperturb);
 321:lp_solve_5.5/lp_report.c ****   fprintf(output, "Stability:      AntiDegen=%d, Improvement=%d, Split variables at=%g\n",
 3278               		.loc 2 321 0
 3279 14a8 8C81      		ldd r24,Y+4
 3280 14aa 9D81      		ldd r25,Y+5
 3281 14ac 825F      		subi r24,-14
 3282 14ae 9C4F      		sbci r25,-4
 3283 14b0 FC01      		movw r30,r24
 3284 14b2 8081      		ld r24,Z
 3285 14b4 9181      		ldd r25,Z+1
 3286 14b6 A281      		ldd r26,Z+2
 3287 14b8 B381      		ldd r27,Z+3
 3288 14ba 2C81      		ldd r18,Y+4
 3289 14bc 3D81      		ldd r19,Y+5
 3290 14be 2E58      		subi r18,-114
 3291 14c0 3D4F      		sbci r19,-3
 3292 14c2 F901      		movw r30,r18
 3293 14c4 4081      		ld r20,Z
 3294 14c6 5181      		ldd r21,Z+1
 3295 14c8 2C81      		ldd r18,Y+4
 3296 14ca 3D81      		ldd r19,Y+5
 3297 14cc 2059      		subi r18,-112
 3298 14ce 3D4F      		sbci r19,-3
 3299 14d0 F901      		movw r30,r18
 3300 14d2 2081      		ld r18,Z
 3301 14d4 3181      		ldd r19,Z+1
 3302 14d6 6B2F      		mov r22,r27
 3303 14d8 6F93      		push r22
 3304 14da 6A2F      		mov r22,r26
 3305 14dc 6F93      		push r22
 3306 14de 692F      		mov r22,r25
 3307 14e0 6F93      		push r22
 3308 14e2 8F93      		push r24
 3309 14e4 852F      		mov r24,r21
 3310 14e6 8F93      		push r24
 3311 14e8 842F      		mov r24,r20
 3312 14ea 8F93      		push r24
 3313 14ec 832F      		mov r24,r19
 3314 14ee 8F93      		push r24
 3315 14f0 822F      		mov r24,r18
 3316 14f2 8F93      		push r24
 3317 14f4 80E0      		ldi r24,lo8(.LC17)
 3318 14f6 90E0      		ldi r25,hi8(.LC17)
 3319 14f8 892F      		mov r24,r25
 3320 14fa 8F93      		push r24
 3321 14fc 80E0      		ldi r24,lo8(.LC17)
 3322 14fe 90E0      		ldi r25,hi8(.LC17)
 3323 1500 8F93      		push r24
 3324 1502 8A81      		ldd r24,Y+2
 3325 1504 8F93      		push r24
 3326 1506 8981      		ldd r24,Y+1
 3327 1508 8F93      		push r24
 3328 150a 0E94 0000 		call fprintf
 3329 150e 8DB7      		in r24,__SP_L__
 3330 1510 9EB7      		in r25,__SP_H__
 3331 1512 0C96      		adiw r24,12
 3332 1514 0FB6      		in __tmp_reg__,__SREG__
 3333 1516 F894      		cli
 3334 1518 DEBF      		out __SP_H__,r29
 3335 151a 0FBE      		out __SREG__,__tmp_reg__
 3336 151c CDBF      		out __SP_L__,r28
 322:lp_solve_5.5/lp_report.c ****                   lp->improve, lp->anti_degen, lp->negrange);
 323:lp_solve_5.5/lp_report.c ****   fprintf(output, "B&B settings:   BB pivot rule=%d, BB branching=%s, BB strategy=%d, Integer preci
 3337               		.loc 2 323 0
 3338 151e 8C81      		ldd r24,Y+4
 3339 1520 9D81      		ldd r25,Y+5
 3340 1522 8E58      		subi r24,-114
 3341 1524 9C4F      		sbci r25,-4
 3342 1526 FC01      		movw r30,r24
 3343 1528 E080      		ld r14,Z
 3344 152a F180      		ldd r15,Z+1
 3345 152c 0281      		ldd r16,Z+2
 3346 152e 1381      		ldd r17,Z+3
 3347 1530 8C81      		ldd r24,Y+4
 3348 1532 9D81      		ldd r25,Y+5
 3349 1534 8259      		subi r24,-110
 3350 1536 9C4F      		sbci r25,-4
 3351 1538 FC01      		movw r30,r24
 3352 153a 2081      		ld r18,Z
 3353 153c 3181      		ldd r19,Z+1
 3354 153e 4281      		ldd r20,Z+2
 3355 1540 5381      		ldd r21,Z+3
 3356 1542 8C81      		ldd r24,Y+4
 3357 1544 9D81      		ldd r25,Y+5
 3358 1546 8659      		subi r24,-106
 3359 1548 9C4F      		sbci r25,-4
 3360 154a FC01      		movw r30,r24
 3361 154c 8081      		ld r24,Z
 3362 154e 9181      		ldd r25,Z+1
 3363 1550 A281      		ldd r26,Z+2
 3364 1552 B381      		ldd r27,Z+3
 324:lp_solve_5.5/lp_report.c ****                   lp->bb_rule, my_boolstr(lp->bb_varbranch), lp->bb_floorfirst, lp->epsint, lp->mip
 3365               		.loc 2 324 0
 3366 1554 6C81      		ldd r22,Y+4
 3367 1556 7D81      		ldd r23,Y+5
 3368 1558 6A59      		subi r22,-102
 3369 155a 7D4F      		sbci r23,-3
 3370 155c FB01      		movw r30,r22
 3371 155e 6081      		ld r22,Z
 323:lp_solve_5.5/lp_report.c ****                   lp->bb_rule, my_boolstr(lp->bb_varbranch), lp->bb_floorfirst, lp->epsint, lp->mip
 3372               		.loc 2 323 0
 3373 1560 C62E      		mov r12,r22
 3374 1562 D12C      		mov r13,__zero_reg__
 3375               		.loc 2 324 0
 3376 1564 6C81      		ldd r22,Y+4
 3377 1566 7D81      		ldd r23,Y+5
 3378 1568 625A      		subi r22,-94
 3379 156a 7D4F      		sbci r23,-3
 3380 156c FB01      		movw r30,r22
 3381 156e 6081      		ld r22,Z
 3382 1570 7181      		ldd r23,Z+1
 323:lp_solve_5.5/lp_report.c ****                   lp->bb_rule, my_boolstr(lp->bb_varbranch), lp->bb_floorfirst, lp->epsint, lp->mip
 3383               		.loc 2 323 0
 3384 1572 672B      		or r22,r23
 3385 1574 01F4      		brne .L96
 323:lp_solve_5.5/lp_report.c ****                   lp->bb_rule, my_boolstr(lp->bb_varbranch), lp->bb_floorfirst, lp->epsint, lp->mip
 3386               		.loc 2 323 0 is_stmt 0 discriminator 1
 3387 1576 60E0      		ldi r22,lo8(.LC18)
 3388 1578 70E0      		ldi r23,hi8(.LC18)
 3389 157a 00C0      		rjmp .L97
 3390               	.L96:
 323:lp_solve_5.5/lp_report.c ****                   lp->bb_rule, my_boolstr(lp->bb_varbranch), lp->bb_floorfirst, lp->epsint, lp->mip
 3391               		.loc 2 323 0 discriminator 2
 3392 157c 60E0      		ldi r22,lo8(.LC19)
 3393 157e 70E0      		ldi r23,hi8(.LC19)
 3394               	.L97:
 323:lp_solve_5.5/lp_report.c ****                   lp->bb_rule, my_boolstr(lp->bb_varbranch), lp->bb_floorfirst, lp->epsint, lp->mip
 3395               		.loc 2 323 0 discriminator 4
 3396 1580 EC81      		ldd r30,Y+4
 3397 1582 FD81      		ldd r31,Y+5
 3398 1584 EC59      		subi r30,-100
 3399 1586 FD4F      		sbci r31,-3
 3400 1588 0190      		ld __tmp_reg__,Z+
 3401 158a F081      		ld r31,Z
 3402 158c E02D      		mov r30,__tmp_reg__
 3403 158e B12E      		mov r11,r17
 3404 1590 BF92      		push r11
 3405 1592 B02E      		mov r11,r16
 3406 1594 BF92      		push r11
 3407 1596 BF2C      		mov r11,r15
 3408 1598 BF92      		push r11
 3409 159a 1E2D      		mov r17,r14
 3410 159c 1F93      		push r17
 3411 159e 152F      		mov r17,r21
 3412 15a0 1F93      		push r17
 3413 15a2 142F      		mov r17,r20
 3414 15a4 1F93      		push r17
 3415 15a6 132F      		mov r17,r19
 3416 15a8 1F93      		push r17
 3417 15aa 2F93      		push r18
 3418 15ac 2B2F      		mov r18,r27
 3419 15ae 2F93      		push r18
 3420 15b0 2A2F      		mov r18,r26
 3421 15b2 2F93      		push r18
 3422 15b4 292F      		mov r18,r25
 3423 15b6 2F93      		push r18
 3424 15b8 8F93      		push r24
 3425 15ba 8D2D      		mov r24,r13
 3426 15bc 8F93      		push r24
 3427 15be 8C2D      		mov r24,r12
 3428 15c0 8F93      		push r24
 3429 15c2 872F      		mov r24,r23
 3430 15c4 8F93      		push r24
 3431 15c6 862F      		mov r24,r22
 3432 15c8 8F93      		push r24
 3433 15ca 8F2F      		mov r24,r31
 3434 15cc 8F93      		push r24
 3435 15ce 8E2F      		mov r24,r30
 3436 15d0 8F93      		push r24
 3437 15d2 80E0      		ldi r24,lo8(.LC20)
 3438 15d4 90E0      		ldi r25,hi8(.LC20)
 3439 15d6 892F      		mov r24,r25
 3440 15d8 8F93      		push r24
 3441 15da 80E0      		ldi r24,lo8(.LC20)
 3442 15dc 90E0      		ldi r25,hi8(.LC20)
 3443 15de 8F93      		push r24
 3444 15e0 8A81      		ldd r24,Y+2
 3445 15e2 8F93      		push r24
 3446 15e4 8981      		ldd r24,Y+1
 3447 15e6 8F93      		push r24
 3448 15e8 0E94 0000 		call fprintf
 3449 15ec 8DB7      		in r24,__SP_L__
 3450 15ee 9EB7      		in r25,__SP_H__
 3451 15f0 4696      		adiw r24,22
 3452 15f2 0FB6      		in __tmp_reg__,__SREG__
 3453 15f4 F894      		cli
 3454 15f6 DEBF      		out __SP_H__,r29
 3455 15f8 0FBE      		out __SREG__,__tmp_reg__
 3456 15fa CDBF      		out __SP_L__,r28
 325:lp_solve_5.5/lp_report.c **** 
 326:lp_solve_5.5/lp_report.c ****   fprintf(output, "\nCORE DATA\n---------\n\n");
 3457               		.loc 2 326 0 is_stmt 1 discriminator 4
 3458 15fc 8981      		ldd r24,Y+1
 3459 15fe 9A81      		ldd r25,Y+2
 3460 1600 9C01      		movw r18,r24
 3461 1602 46E1      		ldi r20,lo8(22)
 3462 1604 50E0      		ldi r21,0
 3463 1606 61E0      		ldi r22,lo8(1)
 3464 1608 70E0      		ldi r23,0
 3465 160a 80E0      		ldi r24,lo8(.LC21)
 3466 160c 90E0      		ldi r25,hi8(.LC21)
 3467 160e 0E94 0000 		call fwrite
 327:lp_solve_5.5/lp_report.c ****   blockWriteINT(output,  "Column starts", lp->matA->col_end, 0, lp->columns);
 3468               		.loc 2 327 0 discriminator 4
 3469 1612 8C81      		ldd r24,Y+4
 3470 1614 9D81      		ldd r25,Y+5
 3471 1616 8451      		subi r24,20
 3472 1618 9E4F      		sbci r25,-2
 3473 161a FC01      		movw r30,r24
 3474 161c 2081      		ld r18,Z
 3475 161e 3181      		ldd r19,Z+1
 3476 1620 8C81      		ldd r24,Y+4
 3477 1622 9D81      		ldd r25,Y+5
 3478 1624 8A54      		subi r24,74
 3479 1626 9D4F      		sbci r25,-3
 3480 1628 FC01      		movw r30,r24
 3481 162a 8081      		ld r24,Z
 3482 162c 9181      		ldd r25,Z+1
 3483 162e FC01      		movw r30,r24
 3484 1630 4289      		ldd r20,Z+18
 3485 1632 5389      		ldd r21,Z+19
 3486 1634 8981      		ldd r24,Y+1
 3487 1636 9A81      		ldd r25,Y+2
 3488 1638 8901      		movw r16,r18
 3489 163a 20E0      		ldi r18,0
 3490 163c 30E0      		ldi r19,0
 3491 163e 60E0      		ldi r22,lo8(.LC22)
 3492 1640 70E0      		ldi r23,hi8(.LC22)
 3493 1642 0E94 0000 		call blockWriteINT
 328:lp_solve_5.5/lp_report.c ****   blockWriteINT(output,  "row_type", lp->row_type, 0, lp->rows);
 3494               		.loc 2 328 0 discriminator 4
 3495 1646 8C81      		ldd r24,Y+4
 3496 1648 9D81      		ldd r25,Y+5
 3497 164a 8651      		subi r24,22
 3498 164c 9E4F      		sbci r25,-2
 3499 164e FC01      		movw r30,r24
 3500 1650 2081      		ld r18,Z
 3501 1652 3181      		ldd r19,Z+1
 3502 1654 8C81      		ldd r24,Y+4
 3503 1656 9D81      		ldd r25,Y+5
 3504 1658 8655      		subi r24,86
 3505 165a 9D4F      		sbci r25,-3
 3506 165c FC01      		movw r30,r24
 3507 165e 4081      		ld r20,Z
 3508 1660 5181      		ldd r21,Z+1
 3509 1662 8981      		ldd r24,Y+1
 3510 1664 9A81      		ldd r25,Y+2
 3511 1666 8901      		movw r16,r18
 3512 1668 20E0      		ldi r18,0
 3513 166a 30E0      		ldi r19,0
 3514 166c 60E0      		ldi r22,lo8(.LC23)
 3515 166e 70E0      		ldi r23,hi8(.LC23)
 3516 1670 0E94 0000 		call blockWriteINT
 329:lp_solve_5.5/lp_report.c ****   blockWriteREAL(output, "orig_rhs", lp->orig_rhs, 0, lp->rows);
 3517               		.loc 2 329 0 discriminator 4
 3518 1674 8C81      		ldd r24,Y+4
 3519 1676 9D81      		ldd r25,Y+5
 3520 1678 8651      		subi r24,22
 3521 167a 9E4F      		sbci r25,-2
 3522 167c FC01      		movw r30,r24
 3523 167e 2081      		ld r18,Z
 3524 1680 3181      		ldd r19,Z+1
 3525 1682 8C81      		ldd r24,Y+4
 3526 1684 9D81      		ldd r25,Y+5
 3527 1686 8A55      		subi r24,90
 3528 1688 9D4F      		sbci r25,-3
 3529 168a FC01      		movw r30,r24
 3530 168c 4081      		ld r20,Z
 3531 168e 5181      		ldd r21,Z+1
 3532 1690 8981      		ldd r24,Y+1
 3533 1692 9A81      		ldd r25,Y+2
 3534 1694 8901      		movw r16,r18
 3535 1696 20E0      		ldi r18,0
 3536 1698 30E0      		ldi r19,0
 3537 169a 60E0      		ldi r22,lo8(.LC24)
 3538 169c 70E0      		ldi r23,hi8(.LC24)
 3539 169e 0E94 0000 		call blockWriteREAL
 330:lp_solve_5.5/lp_report.c ****   blockWriteREAL(output, "orig_lowbo", lp->orig_lowbo, 0, lp->sum);
 3540               		.loc 2 330 0 discriminator 4
 3541 16a2 8C81      		ldd r24,Y+4
 3542 16a4 9D81      		ldd r25,Y+5
 3543 16a6 8851      		subi r24,24
 3544 16a8 9E4F      		sbci r25,-2
 3545 16aa FC01      		movw r30,r24
 3546 16ac 2081      		ld r18,Z
 3547 16ae 3181      		ldd r19,Z+1
 3548 16b0 8C81      		ldd r24,Y+4
 3549 16b2 9D81      		ldd r25,Y+5
 3550 16b4 8E54      		subi r24,78
 3551 16b6 9D4F      		sbci r25,-3
 3552 16b8 FC01      		movw r30,r24
 3553 16ba 4081      		ld r20,Z
 3554 16bc 5181      		ldd r21,Z+1
 3555 16be 8981      		ldd r24,Y+1
 3556 16c0 9A81      		ldd r25,Y+2
 3557 16c2 8901      		movw r16,r18
 3558 16c4 20E0      		ldi r18,0
 3559 16c6 30E0      		ldi r19,0
 3560 16c8 60E0      		ldi r22,lo8(.LC25)
 3561 16ca 70E0      		ldi r23,hi8(.LC25)
 3562 16cc 0E94 0000 		call blockWriteREAL
 331:lp_solve_5.5/lp_report.c ****   blockWriteREAL(output, "orig_upbo", lp->orig_upbo, 0, lp->sum);
 3563               		.loc 2 331 0 discriminator 4
 3564 16d0 8C81      		ldd r24,Y+4
 3565 16d2 9D81      		ldd r25,Y+5
 3566 16d4 8851      		subi r24,24
 3567 16d6 9E4F      		sbci r25,-2
 3568 16d8 FC01      		movw r30,r24
 3569 16da 2081      		ld r18,Z
 3570 16dc 3181      		ldd r19,Z+1
 3571 16de 8C81      		ldd r24,Y+4
 3572 16e0 9D81      		ldd r25,Y+5
 3573 16e2 8255      		subi r24,82
 3574 16e4 9D4F      		sbci r25,-3
 3575 16e6 FC01      		movw r30,r24
 3576 16e8 4081      		ld r20,Z
 3577 16ea 5181      		ldd r21,Z+1
 3578 16ec 8981      		ldd r24,Y+1
 3579 16ee 9A81      		ldd r25,Y+2
 3580 16f0 8901      		movw r16,r18
 3581 16f2 20E0      		ldi r18,0
 3582 16f4 30E0      		ldi r19,0
 3583 16f6 60E0      		ldi r22,lo8(.LC26)
 3584 16f8 70E0      		ldi r23,hi8(.LC26)
 3585 16fa 0E94 0000 		call blockWriteREAL
 332:lp_solve_5.5/lp_report.c ****   blockWriteINT(output,  "row_type", lp->row_type, 0, lp->rows);
 3586               		.loc 2 332 0 discriminator 4
 3587 16fe 8C81      		ldd r24,Y+4
 3588 1700 9D81      		ldd r25,Y+5
 3589 1702 8651      		subi r24,22
 3590 1704 9E4F      		sbci r25,-2
 3591 1706 FC01      		movw r30,r24
 3592 1708 2081      		ld r18,Z
 3593 170a 3181      		ldd r19,Z+1
 3594 170c 8C81      		ldd r24,Y+4
 3595 170e 9D81      		ldd r25,Y+5
 3596 1710 8655      		subi r24,86
 3597 1712 9D4F      		sbci r25,-3
 3598 1714 FC01      		movw r30,r24
 3599 1716 4081      		ld r20,Z
 3600 1718 5181      		ldd r21,Z+1
 3601 171a 8981      		ldd r24,Y+1
 3602 171c 9A81      		ldd r25,Y+2
 3603 171e 8901      		movw r16,r18
 3604 1720 20E0      		ldi r18,0
 3605 1722 30E0      		ldi r19,0
 3606 1724 60E0      		ldi r22,lo8(.LC23)
 3607 1726 70E0      		ldi r23,hi8(.LC23)
 3608 1728 0E94 0000 		call blockWriteINT
 333:lp_solve_5.5/lp_report.c ****   blockWriteBOOL(output, "var_type", lp->var_type, 0, lp->columns, TRUE);
 3609               		.loc 2 333 0 discriminator 4
 3610 172c 8C81      		ldd r24,Y+4
 3611 172e 9D81      		ldd r25,Y+5
 3612 1730 8451      		subi r24,20
 3613 1732 9E4F      		sbci r25,-2
 3614 1734 FC01      		movw r30,r24
 3615 1736 2081      		ld r18,Z
 3616 1738 3181      		ldd r19,Z+1
 3617 173a 8C81      		ldd r24,Y+4
 3618 173c 9D81      		ldd r25,Y+5
 3619 173e 8A57      		subi r24,122
 3620 1740 9D4F      		sbci r25,-3
 3621 1742 FC01      		movw r30,r24
 3622 1744 4081      		ld r20,Z
 3623 1746 5181      		ldd r21,Z+1
 3624 1748 8981      		ldd r24,Y+1
 3625 174a 9A81      		ldd r25,Y+2
 3626 174c EE24      		clr r14
 3627 174e E394      		inc r14
 3628 1750 8901      		movw r16,r18
 3629 1752 20E0      		ldi r18,0
 3630 1754 30E0      		ldi r19,0
 3631 1756 60E0      		ldi r22,lo8(.LC27)
 3632 1758 70E0      		ldi r23,hi8(.LC27)
 3633 175a 0E94 0000 		call blockWriteBOOL
 334:lp_solve_5.5/lp_report.c ****   blockWriteAMAT(output, "A", lp, 0, lp->rows);
 3634               		.loc 2 334 0 discriminator 4
 3635 175e 8C81      		ldd r24,Y+4
 3636 1760 9D81      		ldd r25,Y+5
 3637 1762 8651      		subi r24,22
 3638 1764 9E4F      		sbci r25,-2
 3639 1766 FC01      		movw r30,r24
 3640 1768 2081      		ld r18,Z
 3641 176a 3181      		ldd r19,Z+1
 3642 176c 4C81      		ldd r20,Y+4
 3643 176e 5D81      		ldd r21,Y+5
 3644 1770 8981      		ldd r24,Y+1
 3645 1772 9A81      		ldd r25,Y+2
 3646 1774 8901      		movw r16,r18
 3647 1776 20E0      		ldi r18,0
 3648 1778 30E0      		ldi r19,0
 3649 177a 60E0      		ldi r22,lo8(.LC28)
 3650 177c 70E0      		ldi r23,hi8(.LC28)
 3651 177e 0E94 0000 		call blockWriteAMAT
 335:lp_solve_5.5/lp_report.c **** 
 336:lp_solve_5.5/lp_report.c ****   if(livedata) {
 3652               		.loc 2 336 0 discriminator 4
 3653 1782 8885      		ldd r24,Y+8
 3654 1784 8823      		tst r24
 3655 1786 01F4      		brne .+2
 3656 1788 00C0      		rjmp .L98
 337:lp_solve_5.5/lp_report.c ****     fprintf(output, "\nPROCESS DATA\n------------\n\n");
 3657               		.loc 2 337 0
 3658 178a 8981      		ldd r24,Y+1
 3659 178c 9A81      		ldd r25,Y+2
 3660 178e 9C01      		movw r18,r24
 3661 1790 4CE1      		ldi r20,lo8(28)
 3662 1792 50E0      		ldi r21,0
 3663 1794 61E0      		ldi r22,lo8(1)
 3664 1796 70E0      		ldi r23,0
 3665 1798 80E0      		ldi r24,lo8(.LC29)
 3666 179a 90E0      		ldi r25,hi8(.LC29)
 3667 179c 0E94 0000 		call fwrite
 338:lp_solve_5.5/lp_report.c ****     blockWriteREAL(output,  "Active rhs", lp->rhs, 0, lp->rows);
 3668               		.loc 2 338 0
 3669 17a0 8C81      		ldd r24,Y+4
 3670 17a2 9D81      		ldd r25,Y+5
 3671 17a4 8651      		subi r24,22
 3672 17a6 9E4F      		sbci r25,-2
 3673 17a8 FC01      		movw r30,r24
 3674 17aa 2081      		ld r18,Z
 3675 17ac 3181      		ldd r19,Z+1
 3676 17ae 8C81      		ldd r24,Y+4
 3677 17b0 9D81      		ldd r25,Y+5
 3678 17b2 8855      		subi r24,88
 3679 17b4 9D4F      		sbci r25,-3
 3680 17b6 FC01      		movw r30,r24
 3681 17b8 4081      		ld r20,Z
 3682 17ba 5181      		ldd r21,Z+1
 3683 17bc 8981      		ldd r24,Y+1
 3684 17be 9A81      		ldd r25,Y+2
 3685 17c0 8901      		movw r16,r18
 3686 17c2 20E0      		ldi r18,0
 3687 17c4 30E0      		ldi r19,0
 3688 17c6 60E0      		ldi r22,lo8(.LC30)
 3689 17c8 70E0      		ldi r23,hi8(.LC30)
 3690 17ca 0E94 0000 		call blockWriteREAL
 339:lp_solve_5.5/lp_report.c ****     blockWriteINT(output,  "Basic variables", lp->var_basic, 0, lp->rows);
 3691               		.loc 2 339 0
 3692 17ce 8C81      		ldd r24,Y+4
 3693 17d0 9D81      		ldd r25,Y+5
 3694 17d2 8651      		subi r24,22
 3695 17d4 9E4F      		sbci r25,-2
 3696 17d6 FC01      		movw r30,r24
 3697 17d8 2081      		ld r18,Z
 3698 17da 3181      		ldd r19,Z+1
 3699 17dc 8C81      		ldd r24,Y+4
 3700 17de 9D81      		ldd r25,Y+5
 3701 17e0 8453      		subi r24,52
 3702 17e2 9D4F      		sbci r25,-3
 3703 17e4 FC01      		movw r30,r24
 3704 17e6 4081      		ld r20,Z
 3705 17e8 5181      		ldd r21,Z+1
 3706 17ea 8981      		ldd r24,Y+1
 3707 17ec 9A81      		ldd r25,Y+2
 3708 17ee 8901      		movw r16,r18
 3709 17f0 20E0      		ldi r18,0
 3710 17f2 30E0      		ldi r19,0
 3711 17f4 60E0      		ldi r22,lo8(.LC31)
 3712 17f6 70E0      		ldi r23,hi8(.LC31)
 3713 17f8 0E94 0000 		call blockWriteINT
 340:lp_solve_5.5/lp_report.c ****     blockWriteBOOL(output, "is_basic", lp->is_basic, 0, lp->sum, TRUE);
 3714               		.loc 2 340 0
 3715 17fc 8C81      		ldd r24,Y+4
 3716 17fe 9D81      		ldd r25,Y+5
 3717 1800 8851      		subi r24,24
 3718 1802 9E4F      		sbci r25,-2
 3719 1804 FC01      		movw r30,r24
 3720 1806 2081      		ld r18,Z
 3721 1808 3181      		ldd r19,Z+1
 3722 180a 8C81      		ldd r24,Y+4
 3723 180c 9D81      		ldd r25,Y+5
 3724 180e 8053      		subi r24,48
 3725 1810 9D4F      		sbci r25,-3
 3726 1812 FC01      		movw r30,r24
 3727 1814 4081      		ld r20,Z
 3728 1816 5181      		ldd r21,Z+1
 3729 1818 8981      		ldd r24,Y+1
 3730 181a 9A81      		ldd r25,Y+2
 3731 181c EE24      		clr r14
 3732 181e E394      		inc r14
 3733 1820 8901      		movw r16,r18
 3734 1822 20E0      		ldi r18,0
 3735 1824 30E0      		ldi r19,0
 3736 1826 60E0      		ldi r22,lo8(.LC32)
 3737 1828 70E0      		ldi r23,hi8(.LC32)
 3738 182a 0E94 0000 		call blockWriteBOOL
 341:lp_solve_5.5/lp_report.c ****     blockWriteREAL(output, "lowbo", lp->lowbo, 0, lp->sum);
 3739               		.loc 2 341 0
 3740 182e 8C81      		ldd r24,Y+4
 3741 1830 9D81      		ldd r25,Y+5
 3742 1832 8851      		subi r24,24
 3743 1834 9E4F      		sbci r25,-2
 3744 1836 FC01      		movw r30,r24
 3745 1838 2081      		ld r18,Z
 3746 183a 3181      		ldd r19,Z+1
 3747 183c 8C81      		ldd r24,Y+4
 3748 183e 9D81      		ldd r25,Y+5
 3749 1840 8C54      		subi r24,76
 3750 1842 9D4F      		sbci r25,-3
 3751 1844 FC01      		movw r30,r24
 3752 1846 4081      		ld r20,Z
 3753 1848 5181      		ldd r21,Z+1
 3754 184a 8981      		ldd r24,Y+1
 3755 184c 9A81      		ldd r25,Y+2
 3756 184e 8901      		movw r16,r18
 3757 1850 20E0      		ldi r18,0
 3758 1852 30E0      		ldi r19,0
 3759 1854 60E0      		ldi r22,lo8(.LC33)
 3760 1856 70E0      		ldi r23,hi8(.LC33)
 3761 1858 0E94 0000 		call blockWriteREAL
 342:lp_solve_5.5/lp_report.c ****     blockWriteREAL(output, "upbo", lp->upbo, 0, lp->sum);
 3762               		.loc 2 342 0
 3763 185c 8C81      		ldd r24,Y+4
 3764 185e 9D81      		ldd r25,Y+5
 3765 1860 8851      		subi r24,24
 3766 1862 9E4F      		sbci r25,-2
 3767 1864 FC01      		movw r30,r24
 3768 1866 2081      		ld r18,Z
 3769 1868 3181      		ldd r19,Z+1
 3770 186a 8C81      		ldd r24,Y+4
 3771 186c 9D81      		ldd r25,Y+5
 3772 186e 8055      		subi r24,80
 3773 1870 9D4F      		sbci r25,-3
 3774 1872 FC01      		movw r30,r24
 3775 1874 4081      		ld r20,Z
 3776 1876 5181      		ldd r21,Z+1
 3777 1878 8981      		ldd r24,Y+1
 3778 187a 9A81      		ldd r25,Y+2
 3779 187c 8901      		movw r16,r18
 3780 187e 20E0      		ldi r18,0
 3781 1880 30E0      		ldi r19,0
 3782 1882 60E0      		ldi r22,lo8(.LC34)
 3783 1884 70E0      		ldi r23,hi8(.LC34)
 3784 1886 0E94 0000 		call blockWriteREAL
 343:lp_solve_5.5/lp_report.c ****     if(lp->scalars != NULL)
 3785               		.loc 2 343 0
 3786 188a 8C81      		ldd r24,Y+4
 3787 188c 9D81      		ldd r25,Y+5
 3788 188e 8C53      		subi r24,60
 3789 1890 9D4F      		sbci r25,-3
 3790 1892 FC01      		movw r30,r24
 3791 1894 8081      		ld r24,Z
 3792 1896 9181      		ldd r25,Z+1
 3793 1898 892B      		or r24,r25
 3794 189a 01F0      		breq .L98
 344:lp_solve_5.5/lp_report.c ****       blockWriteREAL(output, "scalars", lp->scalars, 0, lp->sum);
 3795               		.loc 2 344 0
 3796 189c 8C81      		ldd r24,Y+4
 3797 189e 9D81      		ldd r25,Y+5
 3798 18a0 8851      		subi r24,24
 3799 18a2 9E4F      		sbci r25,-2
 3800 18a4 FC01      		movw r30,r24
 3801 18a6 2081      		ld r18,Z
 3802 18a8 3181      		ldd r19,Z+1
 3803 18aa 8C81      		ldd r24,Y+4
 3804 18ac 9D81      		ldd r25,Y+5
 3805 18ae 8C53      		subi r24,60
 3806 18b0 9D4F      		sbci r25,-3
 3807 18b2 FC01      		movw r30,r24
 3808 18b4 4081      		ld r20,Z
 3809 18b6 5181      		ldd r21,Z+1
 3810 18b8 8981      		ldd r24,Y+1
 3811 18ba 9A81      		ldd r25,Y+2
 3812 18bc 8901      		movw r16,r18
 3813 18be 20E0      		ldi r18,0
 3814 18c0 30E0      		ldi r19,0
 3815 18c2 60E0      		ldi r22,lo8(.LC35)
 3816 18c4 70E0      		ldi r23,hi8(.LC35)
 3817 18c6 0E94 0000 		call blockWriteREAL
 3818               	.L98:
 345:lp_solve_5.5/lp_report.c ****   }
 346:lp_solve_5.5/lp_report.c **** 
 347:lp_solve_5.5/lp_report.c ****   if(filename != NULL)
 3819               		.loc 2 347 0
 3820 18ca 8E81      		ldd r24,Y+6
 3821 18cc 9F81      		ldd r25,Y+7
 3822 18ce 892B      		or r24,r25
 3823 18d0 01F0      		breq .L99
 348:lp_solve_5.5/lp_report.c ****     fclose(output);
 3824               		.loc 2 348 0
 3825 18d2 8981      		ldd r24,Y+1
 3826 18d4 9A81      		ldd r25,Y+2
 3827 18d6 0E94 0000 		call fclose
 3828               	.L99:
 349:lp_solve_5.5/lp_report.c ****   return(ok);
 3829               		.loc 2 349 0
 3830 18da 8B81      		ldd r24,Y+3
 3831               	.L88:
 3832               	/* epilogue start */
 350:lp_solve_5.5/lp_report.c **** }
 3833               		.loc 2 350 0
 3834 18dc 2896      		adiw r28,8
 3835 18de 0FB6      		in __tmp_reg__,__SREG__
 3836 18e0 F894      		cli
 3837 18e2 DEBF      		out __SP_H__,r29
 3838 18e4 0FBE      		out __SREG__,__tmp_reg__
 3839 18e6 CDBF      		out __SP_L__,r28
 3840 18e8 DF91      		pop r29
 3841 18ea CF91      		pop r28
 3842 18ec 1F91      		pop r17
 3843 18ee 0F91      		pop r16
 3844 18f0 FF90      		pop r15
 3845 18f2 EF90      		pop r14
 3846 18f4 DF90      		pop r13
 3847 18f6 CF90      		pop r12
 3848 18f8 BF90      		pop r11
 3849 18fa AF90      		pop r10
 3850 18fc 9F90      		pop r9
 3851 18fe 8F90      		pop r8
 3852 1900 7F90      		pop r7
 3853 1902 6F90      		pop r6
 3854 1904 0895      		ret
 3855               		.cfi_endproc
 3856               	.LFE16:
 3858               	.global	__ltsf2
 3859               		.section	.rodata
 3860               	.LC36:
 3861 03c8 0A56 616C 		.string	"\nValue of objective function: %g\n"
 3861      7565 206F 
 3861      6620 6F62 
 3861      6A65 6374 
 3861      6976 6520 
 3862               	.LC37:
 3863 03ea 0A56 616C 		.string	"\nValue of objective function: %.8f\n"
 3863      7565 206F 
 3863      6620 6F62 
 3863      6A65 6374 
 3863      6976 6520 
 3864               		.text
 3865               	.global	REPORT_objective
 3867               	REPORT_objective:
 3868               	.LFB17:
 351:lp_solve_5.5/lp_report.c **** 
 352:lp_solve_5.5/lp_report.c **** 
 353:lp_solve_5.5/lp_report.c **** /* High level reports for model results */
 354:lp_solve_5.5/lp_report.c **** 
 355:lp_solve_5.5/lp_report.c **** void REPORT_objective(lprec *lp)
 356:lp_solve_5.5/lp_report.c **** {
 3869               		.loc 2 356 0
 3870               		.cfi_startproc
 3871 1906 CF93      		push r28
 3872               	.LCFI70:
 3873               		.cfi_def_cfa_offset 3
 3874               		.cfi_offset 28, -2
 3875 1908 DF93      		push r29
 3876               	.LCFI71:
 3877               		.cfi_def_cfa_offset 4
 3878               		.cfi_offset 29, -3
 3879 190a 00D0      		rcall .
 3880               	.LCFI72:
 3881               		.cfi_def_cfa_offset 6
 3882 190c CDB7      		in r28,__SP_L__
 3883 190e DEB7      		in r29,__SP_H__
 3884               	.LCFI73:
 3885               		.cfi_def_cfa_register 28
 3886               	/* prologue: function */
 3887               	/* frame size = 2 */
 3888               	/* stack size = 4 */
 3889               	.L__stack_usage = 4
 3890 1910 9A83      		std Y+2,r25
 3891 1912 8983      		std Y+1,r24
 357:lp_solve_5.5/lp_report.c ****   if(lp->outstream == NULL)
 3892               		.loc 2 357 0
 3893 1914 8981      		ldd r24,Y+1
 3894 1916 9A81      		ldd r25,Y+2
 3895 1918 845A      		subi r24,-92
 3896 191a 9D4F      		sbci r25,-3
 3897 191c FC01      		movw r30,r24
 3898 191e 8081      		ld r24,Z
 3899 1920 9181      		ldd r25,Z+1
 3900 1922 892B      		or r24,r25
 3901 1924 01F4      		brne .+2
 3902 1926 00C0      		rjmp .L108
 358:lp_solve_5.5/lp_report.c ****     return;
 359:lp_solve_5.5/lp_report.c ****   if(fabs(lp->best_solution[0]) < 1e-5)
 3903               		.loc 2 359 0
 3904 1928 8981      		ldd r24,Y+1
 3905 192a 9A81      		ldd r25,Y+2
 3906 192c 8C5E      		subi r24,-20
 3907 192e 9D4F      		sbci r25,-3
 3908 1930 FC01      		movw r30,r24
 3909 1932 8081      		ld r24,Z
 3910 1934 9181      		ldd r25,Z+1
 3911 1936 FC01      		movw r30,r24
 3912 1938 8081      		ld r24,Z
 3913 193a 9181      		ldd r25,Z+1
 3914 193c A281      		ldd r26,Z+2
 3915 193e B381      		ldd r27,Z+3
 3916 1940 BF77      		andi r27,0x7f
 3917 1942 2CEA      		ldi r18,lo8(-84)
 3918 1944 35EC      		ldi r19,lo8(-59)
 3919 1946 47E2      		ldi r20,lo8(39)
 3920 1948 57E3      		ldi r21,lo8(55)
 3921 194a BC01      		movw r22,r24
 3922 194c CD01      		movw r24,r26
 3923 194e 0E94 0000 		call __ltsf2
 3924 1952 8823      		tst r24
 3925 1954 04F4      		brge .L107
 360:lp_solve_5.5/lp_report.c ****     fprintf(lp->outstream, "\nValue of objective function: %g\n", (double)lp->best_solution[0]);
 3926               		.loc 2 360 0
 3927 1956 8981      		ldd r24,Y+1
 3928 1958 9A81      		ldd r25,Y+2
 3929 195a 8C5E      		subi r24,-20
 3930 195c 9D4F      		sbci r25,-3
 3931 195e FC01      		movw r30,r24
 3932 1960 8081      		ld r24,Z
 3933 1962 9181      		ldd r25,Z+1
 3934 1964 FC01      		movw r30,r24
 3935 1966 8081      		ld r24,Z
 3936 1968 9181      		ldd r25,Z+1
 3937 196a A281      		ldd r26,Z+2
 3938 196c B381      		ldd r27,Z+3
 3939 196e 2981      		ldd r18,Y+1
 3940 1970 3A81      		ldd r19,Y+2
 3941 1972 245A      		subi r18,-92
 3942 1974 3D4F      		sbci r19,-3
 3943 1976 F901      		movw r30,r18
 3944 1978 2081      		ld r18,Z
 3945 197a 3181      		ldd r19,Z+1
 3946 197c 4B2F      		mov r20,r27
 3947 197e 4F93      		push r20
 3948 1980 4A2F      		mov r20,r26
 3949 1982 4F93      		push r20
 3950 1984 492F      		mov r20,r25
 3951 1986 4F93      		push r20
 3952 1988 8F93      		push r24
 3953 198a 80E0      		ldi r24,lo8(.LC36)
 3954 198c 90E0      		ldi r25,hi8(.LC36)
 3955 198e 892F      		mov r24,r25
 3956 1990 8F93      		push r24
 3957 1992 80E0      		ldi r24,lo8(.LC36)
 3958 1994 90E0      		ldi r25,hi8(.LC36)
 3959 1996 8F93      		push r24
 3960 1998 832F      		mov r24,r19
 3961 199a 8F93      		push r24
 3962 199c 822F      		mov r24,r18
 3963 199e 8F93      		push r24
 3964 19a0 0E94 0000 		call fprintf
 3965 19a4 8DB7      		in r24,__SP_L__
 3966 19a6 9EB7      		in r25,__SP_H__
 3967 19a8 0896      		adiw r24,8
 3968 19aa 0FB6      		in __tmp_reg__,__SREG__
 3969 19ac F894      		cli
 3970 19ae DEBF      		out __SP_H__,r29
 3971 19b0 0FBE      		out __SREG__,__tmp_reg__
 3972 19b2 CDBF      		out __SP_L__,r28
 3973 19b4 00C0      		rjmp .L105
 3974               	.L107:
 361:lp_solve_5.5/lp_report.c ****   else
 362:lp_solve_5.5/lp_report.c ****     fprintf(lp->outstream, "\nValue of objective function: %.8f\n", (double)lp->best_solution[0]);
 3975               		.loc 2 362 0
 3976 19b6 8981      		ldd r24,Y+1
 3977 19b8 9A81      		ldd r25,Y+2
 3978 19ba 8C5E      		subi r24,-20
 3979 19bc 9D4F      		sbci r25,-3
 3980 19be FC01      		movw r30,r24
 3981 19c0 8081      		ld r24,Z
 3982 19c2 9181      		ldd r25,Z+1
 3983 19c4 FC01      		movw r30,r24
 3984 19c6 8081      		ld r24,Z
 3985 19c8 9181      		ldd r25,Z+1
 3986 19ca A281      		ldd r26,Z+2
 3987 19cc B381      		ldd r27,Z+3
 3988 19ce 2981      		ldd r18,Y+1
 3989 19d0 3A81      		ldd r19,Y+2
 3990 19d2 245A      		subi r18,-92
 3991 19d4 3D4F      		sbci r19,-3
 3992 19d6 F901      		movw r30,r18
 3993 19d8 2081      		ld r18,Z
 3994 19da 3181      		ldd r19,Z+1
 3995 19dc 4B2F      		mov r20,r27
 3996 19de 4F93      		push r20
 3997 19e0 4A2F      		mov r20,r26
 3998 19e2 4F93      		push r20
 3999 19e4 492F      		mov r20,r25
 4000 19e6 4F93      		push r20
 4001 19e8 8F93      		push r24
 4002 19ea 80E0      		ldi r24,lo8(.LC37)
 4003 19ec 90E0      		ldi r25,hi8(.LC37)
 4004 19ee 892F      		mov r24,r25
 4005 19f0 8F93      		push r24
 4006 19f2 80E0      		ldi r24,lo8(.LC37)
 4007 19f4 90E0      		ldi r25,hi8(.LC37)
 4008 19f6 8F93      		push r24
 4009 19f8 832F      		mov r24,r19
 4010 19fa 8F93      		push r24
 4011 19fc 822F      		mov r24,r18
 4012 19fe 8F93      		push r24
 4013 1a00 0E94 0000 		call fprintf
 4014 1a04 8DB7      		in r24,__SP_L__
 4015 1a06 9EB7      		in r25,__SP_H__
 4016 1a08 0896      		adiw r24,8
 4017 1a0a 0FB6      		in __tmp_reg__,__SREG__
 4018 1a0c F894      		cli
 4019 1a0e DEBF      		out __SP_H__,r29
 4020 1a10 0FBE      		out __SREG__,__tmp_reg__
 4021 1a12 CDBF      		out __SP_L__,r28
 4022               	.L105:
 363:lp_solve_5.5/lp_report.c ****   fflush(lp->outstream);
 4023               		.loc 2 363 0
 4024 1a14 8981      		ldd r24,Y+1
 4025 1a16 9A81      		ldd r25,Y+2
 4026 1a18 845A      		subi r24,-92
 4027 1a1a 9D4F      		sbci r25,-3
 4028 1a1c FC01      		movw r30,r24
 4029 1a1e 8081      		ld r24,Z
 4030 1a20 9181      		ldd r25,Z+1
 4031 1a22 0E94 0000 		call fflush
 4032 1a26 00C0      		rjmp .L100
 4033               	.L108:
 358:lp_solve_5.5/lp_report.c ****   if(fabs(lp->best_solution[0]) < 1e-5)
 4034               		.loc 2 358 0
 4035 1a28 0000      		nop
 4036               	.L100:
 4037               	/* epilogue start */
 364:lp_solve_5.5/lp_report.c **** }
 4038               		.loc 2 364 0
 4039 1a2a 0F90      		pop __tmp_reg__
 4040 1a2c 0F90      		pop __tmp_reg__
 4041 1a2e DF91      		pop r29
 4042 1a30 CF91      		pop r28
 4043 1a32 0895      		ret
 4044               		.cfi_endproc
 4045               	.LFE17:
 4047               		.section	.rodata
 4048               	.LC38:
 4049 040e 0A41 6374 		.string	"\nActual values of the variables:\n"
 4049      7561 6C20 
 4049      7661 6C75 
 4049      6573 206F 
 4049      6620 7468 
 4050               	.LC39:
 4051 0430 252D 3230 		.string	"%-20s %12g"
 4051      7320 2531 
 4051      3267 00
 4052               	.LC40:
 4053 043b 2020 2020 		.string	"       "
 4053      2020 2000 
 4054               		.text
 4055               	.global	REPORT_solution
 4057               	REPORT_solution:
 4058               	.LFB18:
 365:lp_solve_5.5/lp_report.c **** 
 366:lp_solve_5.5/lp_report.c **** void REPORT_solution(lprec *lp, int columns)
 367:lp_solve_5.5/lp_report.c **** {
 4059               		.loc 2 367 0
 4060               		.cfi_startproc
 4061 1a34 CF93      		push r28
 4062               	.LCFI74:
 4063               		.cfi_def_cfa_offset 3
 4064               		.cfi_offset 28, -2
 4065 1a36 DF93      		push r29
 4066               	.LCFI75:
 4067               		.cfi_def_cfa_offset 4
 4068               		.cfi_offset 29, -3
 4069 1a38 CDB7      		in r28,__SP_L__
 4070 1a3a DEB7      		in r29,__SP_H__
 4071               	.LCFI76:
 4072               		.cfi_def_cfa_register 28
 4073 1a3c 6197      		sbiw r28,17
 4074               	.LCFI77:
 4075               		.cfi_def_cfa_offset 21
 4076 1a3e 0FB6      		in __tmp_reg__,__SREG__
 4077 1a40 F894      		cli
 4078 1a42 DEBF      		out __SP_H__,r29
 4079 1a44 0FBE      		out __SREG__,__tmp_reg__
 4080 1a46 CDBF      		out __SP_L__,r28
 4081               	/* prologue: function */
 4082               	/* frame size = 17 */
 4083               	/* stack size = 19 */
 4084               	.L__stack_usage = 19
 4085 1a48 9F87      		std Y+15,r25
 4086 1a4a 8E87      		std Y+14,r24
 4087 1a4c 798B      		std Y+17,r23
 4088 1a4e 688B      		std Y+16,r22
 368:lp_solve_5.5/lp_report.c ****   int i, j, n;
 369:lp_solve_5.5/lp_report.c ****   REAL value;
 370:lp_solve_5.5/lp_report.c ****   presolveundorec *psundo = lp->presolve_undo;
 4089               		.loc 2 370 0
 4090 1a50 8E85      		ldd r24,Y+14
 4091 1a52 9F85      		ldd r25,Y+15
 4092 1a54 8A59      		subi r24,-102
 4093 1a56 9C4F      		sbci r25,-4
 4094 1a58 FC01      		movw r30,r24
 4095 1a5a 8081      		ld r24,Z
 4096 1a5c 9181      		ldd r25,Z+1
 4097 1a5e 9E83      		std Y+6,r25
 4098 1a60 8D83      		std Y+5,r24
 371:lp_solve_5.5/lp_report.c ****   MYBOOL NZonly = (MYBOOL) ((lp->print_sol & AUTOMATIC) > 0);
 4099               		.loc 2 371 0
 4100 1a62 8E85      		ldd r24,Y+14
 4101 1a64 9F85      		ldd r25,Y+15
 4102 1a66 865A      		subi r24,-90
 4103 1a68 9D4F      		sbci r25,-3
 4104 1a6a FC01      		movw r30,r24
 4105 1a6c 8081      		ld r24,Z
 4106 1a6e 9181      		ldd r25,Z+1
 4107 1a70 8270      		andi r24,2
 4108 1a72 9927      		clr r25
 4109 1a74 21E0      		ldi r18,lo8(1)
 4110 1a76 1816      		cp __zero_reg__,r24
 4111 1a78 1906      		cpc __zero_reg__,r25
 4112 1a7a 04F0      		brlt .L110
 4113 1a7c 20E0      		ldi r18,0
 4114               	.L110:
 4115 1a7e 2F83      		std Y+7,r18
 372:lp_solve_5.5/lp_report.c **** 
 373:lp_solve_5.5/lp_report.c ****   if(lp->outstream == NULL)
 4116               		.loc 2 373 0
 4117 1a80 8E85      		ldd r24,Y+14
 4118 1a82 9F85      		ldd r25,Y+15
 4119 1a84 845A      		subi r24,-92
 4120 1a86 9D4F      		sbci r25,-3
 4121 1a88 FC01      		movw r30,r24
 4122 1a8a 8081      		ld r24,Z
 4123 1a8c 9181      		ldd r25,Z+1
 4124 1a8e 892B      		or r24,r25
 4125 1a90 01F4      		brne .+2
 4126 1a92 00C0      		rjmp .L120
 374:lp_solve_5.5/lp_report.c ****     return;
 375:lp_solve_5.5/lp_report.c **** 
 376:lp_solve_5.5/lp_report.c ****   fprintf(lp->outstream, "\nActual values of the variables:\n");
 4127               		.loc 2 376 0
 4128 1a94 8E85      		ldd r24,Y+14
 4129 1a96 9F85      		ldd r25,Y+15
 4130 1a98 845A      		subi r24,-92
 4131 1a9a 9D4F      		sbci r25,-3
 4132 1a9c FC01      		movw r30,r24
 4133 1a9e 8081      		ld r24,Z
 4134 1aa0 9181      		ldd r25,Z+1
 4135 1aa2 9C01      		movw r18,r24
 4136 1aa4 41E2      		ldi r20,lo8(33)
 4137 1aa6 50E0      		ldi r21,0
 4138 1aa8 61E0      		ldi r22,lo8(1)
 4139 1aaa 70E0      		ldi r23,0
 4140 1aac 80E0      		ldi r24,lo8(.LC38)
 4141 1aae 90E0      		ldi r25,hi8(.LC38)
 4142 1ab0 0E94 0000 		call fwrite
 377:lp_solve_5.5/lp_report.c ****   if(columns <= 0)
 4143               		.loc 2 377 0
 4144 1ab4 8889      		ldd r24,Y+16
 4145 1ab6 9989      		ldd r25,Y+17
 4146 1ab8 1816      		cp __zero_reg__,r24
 4147 1aba 1906      		cpc __zero_reg__,r25
 4148 1abc 04F0      		brlt .L113
 378:lp_solve_5.5/lp_report.c ****     columns = 2;
 4149               		.loc 2 378 0
 4150 1abe 82E0      		ldi r24,lo8(2)
 4151 1ac0 90E0      		ldi r25,0
 4152 1ac2 998B      		std Y+17,r25
 4153 1ac4 888B      		std Y+16,r24
 4154               	.L113:
 379:lp_solve_5.5/lp_report.c ****   n = 0;
 4155               		.loc 2 379 0
 4156 1ac6 1C82      		std Y+4,__zero_reg__
 4157 1ac8 1B82      		std Y+3,__zero_reg__
 380:lp_solve_5.5/lp_report.c ****   for(i = 1; i <= psundo->orig_columns; i++) {
 4158               		.loc 2 380 0
 4159 1aca 81E0      		ldi r24,lo8(1)
 4160 1acc 90E0      		ldi r25,0
 4161 1ace 9A83      		std Y+2,r25
 4162 1ad0 8983      		std Y+1,r24
 4163 1ad2 00C0      		rjmp .L114
 4164               	.L119:
 381:lp_solve_5.5/lp_report.c ****     j = psundo->orig_rows + i;
 4165               		.loc 2 381 0
 4166 1ad4 8D81      		ldd r24,Y+5
 4167 1ad6 9E81      		ldd r25,Y+6
 4168 1ad8 FC01      		movw r30,r24
 4169 1ada 2281      		ldd r18,Z+2
 4170 1adc 3381      		ldd r19,Z+3
 4171 1ade 8981      		ldd r24,Y+1
 4172 1ae0 9A81      		ldd r25,Y+2
 4173 1ae2 820F      		add r24,r18
 4174 1ae4 931F      		adc r25,r19
 4175 1ae6 9987      		std Y+9,r25
 4176 1ae8 8887      		std Y+8,r24
 382:lp_solve_5.5/lp_report.c ****     value = get_var_primalresult(lp, j);
 4177               		.loc 2 382 0
 4178 1aea 2885      		ldd r18,Y+8
 4179 1aec 3985      		ldd r19,Y+9
 4180 1aee 8E85      		ldd r24,Y+14
 4181 1af0 9F85      		ldd r25,Y+15
 4182 1af2 B901      		movw r22,r18
 4183 1af4 0E94 0000 		call get_var_primalresult
 4184 1af8 DC01      		movw r26,r24
 4185 1afa CB01      		movw r24,r22
 4186 1afc 8A87      		std Y+10,r24
 4187 1afe 9B87      		std Y+11,r25
 4188 1b00 AC87      		std Y+12,r26
 4189 1b02 BD87      		std Y+13,r27
 383:lp_solve_5.5/lp_report.c ****     if(NZonly && (fabs(value) < lp->epsprimal))
 4190               		.loc 2 383 0
 4191 1b04 8F81      		ldd r24,Y+7
 4192 1b06 8823      		tst r24
 4193 1b08 01F0      		breq .L115
 4194               		.loc 2 383 0 is_stmt 0 discriminator 1
 4195 1b0a 8A85      		ldd r24,Y+10
 4196 1b0c 9B85      		ldd r25,Y+11
 4197 1b0e AC85      		ldd r26,Y+12
 4198 1b10 BD85      		ldd r27,Y+13
 4199 1b12 BF77      		andi r27,0x7f
 4200 1b14 2E85      		ldd r18,Y+14
 4201 1b16 3F85      		ldd r19,Y+15
 4202 1b18 265E      		subi r18,-26
 4203 1b1a 3C4F      		sbci r19,-4
 4204 1b1c F901      		movw r30,r18
 4205 1b1e 2081      		ld r18,Z
 4206 1b20 3181      		ldd r19,Z+1
 4207 1b22 4281      		ldd r20,Z+2
 4208 1b24 5381      		ldd r21,Z+3
 4209 1b26 BC01      		movw r22,r24
 4210 1b28 CD01      		movw r24,r26
 4211 1b2a 0E94 0000 		call __ltsf2
 4212 1b2e 8823      		tst r24
 4213 1b30 04F4      		brge .+2
 4214 1b32 00C0      		rjmp .L121
 4215               	.L115:
 384:lp_solve_5.5/lp_report.c ****       continue;
 385:lp_solve_5.5/lp_report.c ****     n = (n+1) % columns;
 4216               		.loc 2 385 0 is_stmt 1
 4217 1b34 8B81      		ldd r24,Y+3
 4218 1b36 9C81      		ldd r25,Y+4
 4219 1b38 0196      		adiw r24,1
 4220 1b3a 2889      		ldd r18,Y+16
 4221 1b3c 3989      		ldd r19,Y+17
 4222 1b3e B901      		movw r22,r18
 4223 1b40 0E94 0000 		call __divmodhi4
 4224 1b44 9C83      		std Y+4,r25
 4225 1b46 8B83      		std Y+3,r24
 386:lp_solve_5.5/lp_report.c ****     fprintf(lp->outstream, "%-20s %12g", get_origcol_name(lp, i), (double) value);
 4226               		.loc 2 386 0
 4227 1b48 2981      		ldd r18,Y+1
 4228 1b4a 3A81      		ldd r19,Y+2
 4229 1b4c 8E85      		ldd r24,Y+14
 4230 1b4e 9F85      		ldd r25,Y+15
 4231 1b50 B901      		movw r22,r18
 4232 1b52 0E94 0000 		call get_origcol_name
 4233 1b56 9C01      		movw r18,r24
 4234 1b58 8E85      		ldd r24,Y+14
 4235 1b5a 9F85      		ldd r25,Y+15
 4236 1b5c 845A      		subi r24,-92
 4237 1b5e 9D4F      		sbci r25,-3
 4238 1b60 FC01      		movw r30,r24
 4239 1b62 8081      		ld r24,Z
 4240 1b64 9181      		ldd r25,Z+1
 4241 1b66 4D85      		ldd r20,Y+13
 4242 1b68 4F93      		push r20
 4243 1b6a 4C85      		ldd r20,Y+12
 4244 1b6c 4F93      		push r20
 4245 1b6e 4B85      		ldd r20,Y+11
 4246 1b70 4F93      		push r20
 4247 1b72 4A85      		ldd r20,Y+10
 4248 1b74 4F93      		push r20
 4249 1b76 432F      		mov r20,r19
 4250 1b78 4F93      		push r20
 4251 1b7a 2F93      		push r18
 4252 1b7c 20E0      		ldi r18,lo8(.LC39)
 4253 1b7e 30E0      		ldi r19,hi8(.LC39)
 4254 1b80 232F      		mov r18,r19
 4255 1b82 2F93      		push r18
 4256 1b84 20E0      		ldi r18,lo8(.LC39)
 4257 1b86 30E0      		ldi r19,hi8(.LC39)
 4258 1b88 2F93      		push r18
 4259 1b8a 292F      		mov r18,r25
 4260 1b8c 2F93      		push r18
 4261 1b8e 8F93      		push r24
 4262 1b90 0E94 0000 		call fprintf
 4263 1b94 8DB7      		in r24,__SP_L__
 4264 1b96 9EB7      		in r25,__SP_H__
 4265 1b98 0A96      		adiw r24,10
 4266 1b9a 0FB6      		in __tmp_reg__,__SREG__
 4267 1b9c F894      		cli
 4268 1b9e DEBF      		out __SP_H__,r29
 4269 1ba0 0FBE      		out __SREG__,__tmp_reg__
 4270 1ba2 CDBF      		out __SP_L__,r28
 387:lp_solve_5.5/lp_report.c ****     if(n == 0)
 4271               		.loc 2 387 0
 4272 1ba4 8B81      		ldd r24,Y+3
 4273 1ba6 9C81      		ldd r25,Y+4
 4274 1ba8 892B      		or r24,r25
 4275 1baa 01F4      		brne .L118
 388:lp_solve_5.5/lp_report.c ****       fprintf(lp->outstream, "\n");
 4276               		.loc 2 388 0
 4277 1bac 8E85      		ldd r24,Y+14
 4278 1bae 9F85      		ldd r25,Y+15
 4279 1bb0 845A      		subi r24,-92
 4280 1bb2 9D4F      		sbci r25,-3
 4281 1bb4 FC01      		movw r30,r24
 4282 1bb6 8081      		ld r24,Z
 4283 1bb8 9181      		ldd r25,Z+1
 4284 1bba BC01      		movw r22,r24
 4285 1bbc 8AE0      		ldi r24,lo8(10)
 4286 1bbe 90E0      		ldi r25,0
 4287 1bc0 0E94 0000 		call fputc
 4288 1bc4 00C0      		rjmp .L117
 4289               	.L118:
 389:lp_solve_5.5/lp_report.c ****     else
 390:lp_solve_5.5/lp_report.c ****       fprintf(lp->outstream, "       ");
 4290               		.loc 2 390 0
 4291 1bc6 8E85      		ldd r24,Y+14
 4292 1bc8 9F85      		ldd r25,Y+15
 4293 1bca 845A      		subi r24,-92
 4294 1bcc 9D4F      		sbci r25,-3
 4295 1bce FC01      		movw r30,r24
 4296 1bd0 8081      		ld r24,Z
 4297 1bd2 9181      		ldd r25,Z+1
 4298 1bd4 9C01      		movw r18,r24
 4299 1bd6 47E0      		ldi r20,lo8(7)
 4300 1bd8 50E0      		ldi r21,0
 4301 1bda 61E0      		ldi r22,lo8(1)
 4302 1bdc 70E0      		ldi r23,0
 4303 1bde 80E0      		ldi r24,lo8(.LC40)
 4304 1be0 90E0      		ldi r25,hi8(.LC40)
 4305 1be2 0E94 0000 		call fwrite
 4306 1be6 00C0      		rjmp .L117
 4307               	.L121:
 384:lp_solve_5.5/lp_report.c ****     n = (n+1) % columns;
 4308               		.loc 2 384 0
 4309 1be8 0000      		nop
 4310               	.L117:
 380:lp_solve_5.5/lp_report.c ****     j = psundo->orig_rows + i;
 4311               		.loc 2 380 0 discriminator 2
 4312 1bea 8981      		ldd r24,Y+1
 4313 1bec 9A81      		ldd r25,Y+2
 4314 1bee 0196      		adiw r24,1
 4315 1bf0 9A83      		std Y+2,r25
 4316 1bf2 8983      		std Y+1,r24
 4317               	.L114:
 380:lp_solve_5.5/lp_report.c ****     j = psundo->orig_rows + i;
 4318               		.loc 2 380 0 is_stmt 0 discriminator 1
 4319 1bf4 8D81      		ldd r24,Y+5
 4320 1bf6 9E81      		ldd r25,Y+6
 4321 1bf8 FC01      		movw r30,r24
 4322 1bfa 2481      		ldd r18,Z+4
 4323 1bfc 3581      		ldd r19,Z+5
 4324 1bfe 8981      		ldd r24,Y+1
 4325 1c00 9A81      		ldd r25,Y+2
 4326 1c02 2817      		cp r18,r24
 4327 1c04 3907      		cpc r19,r25
 4328 1c06 04F0      		brlt .+2
 4329 1c08 00C0      		rjmp .L119
 391:lp_solve_5.5/lp_report.c ****   }
 392:lp_solve_5.5/lp_report.c **** 
 393:lp_solve_5.5/lp_report.c ****   fflush(lp->outstream);
 4330               		.loc 2 393 0 is_stmt 1
 4331 1c0a 8E85      		ldd r24,Y+14
 4332 1c0c 9F85      		ldd r25,Y+15
 4333 1c0e 845A      		subi r24,-92
 4334 1c10 9D4F      		sbci r25,-3
 4335 1c12 FC01      		movw r30,r24
 4336 1c14 8081      		ld r24,Z
 4337 1c16 9181      		ldd r25,Z+1
 4338 1c18 0E94 0000 		call fflush
 4339 1c1c 00C0      		rjmp .L109
 4340               	.L120:
 374:lp_solve_5.5/lp_report.c **** 
 4341               		.loc 2 374 0
 4342 1c1e 0000      		nop
 4343               	.L109:
 4344               	/* epilogue start */
 394:lp_solve_5.5/lp_report.c **** } /* REPORT_solution */
 4345               		.loc 2 394 0
 4346 1c20 6196      		adiw r28,17
 4347 1c22 0FB6      		in __tmp_reg__,__SREG__
 4348 1c24 F894      		cli
 4349 1c26 DEBF      		out __SP_H__,r29
 4350 1c28 0FBE      		out __SREG__,__tmp_reg__
 4351 1c2a CDBF      		out __SP_L__,r28
 4352 1c2c DF91      		pop r29
 4353 1c2e CF91      		pop r28
 4354 1c30 0895      		ret
 4355               		.cfi_endproc
 4356               	.LFE18:
 4358               		.section	.rodata
 4359               	.LC41:
 4360 0443 0A41 6374 		.string	"\nActual values of the constraints:\n"
 4360      7561 6C20 
 4360      7661 6C75 
 4360      6573 206F 
 4360      6620 7468 
 4361               		.text
 4362               	.global	REPORT_constraints
 4364               	REPORT_constraints:
 4365               	.LFB19:
 395:lp_solve_5.5/lp_report.c **** 
 396:lp_solve_5.5/lp_report.c **** void REPORT_constraints(lprec *lp, int columns)
 397:lp_solve_5.5/lp_report.c **** {
 4366               		.loc 2 397 0
 4367               		.cfi_startproc
 4368 1c32 CF93      		push r28
 4369               	.LCFI78:
 4370               		.cfi_def_cfa_offset 3
 4371               		.cfi_offset 28, -2
 4372 1c34 DF93      		push r29
 4373               	.LCFI79:
 4374               		.cfi_def_cfa_offset 4
 4375               		.cfi_offset 29, -3
 4376 1c36 CDB7      		in r28,__SP_L__
 4377 1c38 DEB7      		in r29,__SP_H__
 4378               	.LCFI80:
 4379               		.cfi_def_cfa_register 28
 4380 1c3a 2D97      		sbiw r28,13
 4381               	.LCFI81:
 4382               		.cfi_def_cfa_offset 17
 4383 1c3c 0FB6      		in __tmp_reg__,__SREG__
 4384 1c3e F894      		cli
 4385 1c40 DEBF      		out __SP_H__,r29
 4386 1c42 0FBE      		out __SREG__,__tmp_reg__
 4387 1c44 CDBF      		out __SP_L__,r28
 4388               	/* prologue: function */
 4389               	/* frame size = 13 */
 4390               	/* stack size = 15 */
 4391               	.L__stack_usage = 15
 4392 1c46 9B87      		std Y+11,r25
 4393 1c48 8A87      		std Y+10,r24
 4394 1c4a 7D87      		std Y+13,r23
 4395 1c4c 6C87      		std Y+12,r22
 398:lp_solve_5.5/lp_report.c ****   int i, n;
 399:lp_solve_5.5/lp_report.c ****   REAL value;
 400:lp_solve_5.5/lp_report.c ****   MYBOOL NZonly = (MYBOOL) ((lp->print_sol & AUTOMATIC) > 0);
 4396               		.loc 2 400 0
 4397 1c4e 8A85      		ldd r24,Y+10
 4398 1c50 9B85      		ldd r25,Y+11
 4399 1c52 865A      		subi r24,-90
 4400 1c54 9D4F      		sbci r25,-3
 4401 1c56 FC01      		movw r30,r24
 4402 1c58 8081      		ld r24,Z
 4403 1c5a 9181      		ldd r25,Z+1
 4404 1c5c 8270      		andi r24,2
 4405 1c5e 9927      		clr r25
 4406 1c60 21E0      		ldi r18,lo8(1)
 4407 1c62 1816      		cp __zero_reg__,r24
 4408 1c64 1906      		cpc __zero_reg__,r25
 4409 1c66 04F0      		brlt .L123
 4410 1c68 20E0      		ldi r18,0
 4411               	.L123:
 4412 1c6a 2D83      		std Y+5,r18
 401:lp_solve_5.5/lp_report.c **** 
 402:lp_solve_5.5/lp_report.c ****   if(lp->outstream == NULL)
 4413               		.loc 2 402 0
 4414 1c6c 8A85      		ldd r24,Y+10
 4415 1c6e 9B85      		ldd r25,Y+11
 4416 1c70 845A      		subi r24,-92
 4417 1c72 9D4F      		sbci r25,-3
 4418 1c74 FC01      		movw r30,r24
 4419 1c76 8081      		ld r24,Z
 4420 1c78 9181      		ldd r25,Z+1
 4421 1c7a 892B      		or r24,r25
 4422 1c7c 01F4      		brne .+2
 4423 1c7e 00C0      		rjmp .L133
 403:lp_solve_5.5/lp_report.c ****     return;
 404:lp_solve_5.5/lp_report.c **** 
 405:lp_solve_5.5/lp_report.c ****   if(columns <= 0)
 4424               		.loc 2 405 0
 4425 1c80 8C85      		ldd r24,Y+12
 4426 1c82 9D85      		ldd r25,Y+13
 4427 1c84 1816      		cp __zero_reg__,r24
 4428 1c86 1906      		cpc __zero_reg__,r25
 4429 1c88 04F0      		brlt .L126
 406:lp_solve_5.5/lp_report.c ****     columns = 2;
 4430               		.loc 2 406 0
 4431 1c8a 82E0      		ldi r24,lo8(2)
 4432 1c8c 90E0      		ldi r25,0
 4433 1c8e 9D87      		std Y+13,r25
 4434 1c90 8C87      		std Y+12,r24
 4435               	.L126:
 407:lp_solve_5.5/lp_report.c **** 
 408:lp_solve_5.5/lp_report.c ****   fprintf(lp->outstream, "\nActual values of the constraints:\n");
 4436               		.loc 2 408 0
 4437 1c92 8A85      		ldd r24,Y+10
 4438 1c94 9B85      		ldd r25,Y+11
 4439 1c96 845A      		subi r24,-92
 4440 1c98 9D4F      		sbci r25,-3
 4441 1c9a FC01      		movw r30,r24
 4442 1c9c 8081      		ld r24,Z
 4443 1c9e 9181      		ldd r25,Z+1
 4444 1ca0 9C01      		movw r18,r24
 4445 1ca2 43E2      		ldi r20,lo8(35)
 4446 1ca4 50E0      		ldi r21,0
 4447 1ca6 61E0      		ldi r22,lo8(1)
 4448 1ca8 70E0      		ldi r23,0
 4449 1caa 80E0      		ldi r24,lo8(.LC41)
 4450 1cac 90E0      		ldi r25,hi8(.LC41)
 4451 1cae 0E94 0000 		call fwrite
 409:lp_solve_5.5/lp_report.c ****   n = 0;
 4452               		.loc 2 409 0
 4453 1cb2 1C82      		std Y+4,__zero_reg__
 4454 1cb4 1B82      		std Y+3,__zero_reg__
 410:lp_solve_5.5/lp_report.c ****   for(i = 1; i <= lp->rows; i++) {
 4455               		.loc 2 410 0
 4456 1cb6 81E0      		ldi r24,lo8(1)
 4457 1cb8 90E0      		ldi r25,0
 4458 1cba 9A83      		std Y+2,r25
 4459 1cbc 8983      		std Y+1,r24
 4460 1cbe 00C0      		rjmp .L127
 4461               	.L132:
 411:lp_solve_5.5/lp_report.c ****     value = (double)lp->best_solution[i];
 4462               		.loc 2 411 0
 4463 1cc0 8A85      		ldd r24,Y+10
 4464 1cc2 9B85      		ldd r25,Y+11
 4465 1cc4 8C5E      		subi r24,-20
 4466 1cc6 9D4F      		sbci r25,-3
 4467 1cc8 FC01      		movw r30,r24
 4468 1cca 2081      		ld r18,Z
 4469 1ccc 3181      		ldd r19,Z+1
 4470 1cce 8981      		ldd r24,Y+1
 4471 1cd0 9A81      		ldd r25,Y+2
 4472 1cd2 880F      		lsl r24
 4473 1cd4 991F      		rol r25
 4474 1cd6 880F      		lsl r24
 4475 1cd8 991F      		rol r25
 4476 1cda 820F      		add r24,r18
 4477 1cdc 931F      		adc r25,r19
 4478 1cde FC01      		movw r30,r24
 4479 1ce0 8081      		ld r24,Z
 4480 1ce2 9181      		ldd r25,Z+1
 4481 1ce4 A281      		ldd r26,Z+2
 4482 1ce6 B381      		ldd r27,Z+3
 4483 1ce8 8E83      		std Y+6,r24
 4484 1cea 9F83      		std Y+7,r25
 4485 1cec A887      		std Y+8,r26
 4486 1cee B987      		std Y+9,r27
 412:lp_solve_5.5/lp_report.c ****     if(NZonly && (fabs(value) < lp->epsprimal))
 4487               		.loc 2 412 0
 4488 1cf0 8D81      		ldd r24,Y+5
 4489 1cf2 8823      		tst r24
 4490 1cf4 01F0      		breq .L128
 4491               		.loc 2 412 0 is_stmt 0 discriminator 1
 4492 1cf6 8E81      		ldd r24,Y+6
 4493 1cf8 9F81      		ldd r25,Y+7
 4494 1cfa A885      		ldd r26,Y+8
 4495 1cfc B985      		ldd r27,Y+9
 4496 1cfe BF77      		andi r27,0x7f
 4497 1d00 2A85      		ldd r18,Y+10
 4498 1d02 3B85      		ldd r19,Y+11
 4499 1d04 265E      		subi r18,-26
 4500 1d06 3C4F      		sbci r19,-4
 4501 1d08 F901      		movw r30,r18
 4502 1d0a 2081      		ld r18,Z
 4503 1d0c 3181      		ldd r19,Z+1
 4504 1d0e 4281      		ldd r20,Z+2
 4505 1d10 5381      		ldd r21,Z+3
 4506 1d12 BC01      		movw r22,r24
 4507 1d14 CD01      		movw r24,r26
 4508 1d16 0E94 0000 		call __ltsf2
 4509 1d1a 8823      		tst r24
 4510 1d1c 04F4      		brge .+2
 4511 1d1e 00C0      		rjmp .L134
 4512               	.L128:
 413:lp_solve_5.5/lp_report.c ****       continue;
 414:lp_solve_5.5/lp_report.c ****     n = (n+1) % columns;
 4513               		.loc 2 414 0 is_stmt 1
 4514 1d20 8B81      		ldd r24,Y+3
 4515 1d22 9C81      		ldd r25,Y+4
 4516 1d24 0196      		adiw r24,1
 4517 1d26 2C85      		ldd r18,Y+12
 4518 1d28 3D85      		ldd r19,Y+13
 4519 1d2a B901      		movw r22,r18
 4520 1d2c 0E94 0000 		call __divmodhi4
 4521 1d30 9C83      		std Y+4,r25
 4522 1d32 8B83      		std Y+3,r24
 415:lp_solve_5.5/lp_report.c ****     fprintf(lp->outstream, "%-20s %12g", get_row_name(lp, i), value);
 4523               		.loc 2 415 0
 4524 1d34 2981      		ldd r18,Y+1
 4525 1d36 3A81      		ldd r19,Y+2
 4526 1d38 8A85      		ldd r24,Y+10
 4527 1d3a 9B85      		ldd r25,Y+11
 4528 1d3c B901      		movw r22,r18
 4529 1d3e 0E94 0000 		call get_row_name
 4530 1d42 9C01      		movw r18,r24
 4531 1d44 8A85      		ldd r24,Y+10
 4532 1d46 9B85      		ldd r25,Y+11
 4533 1d48 845A      		subi r24,-92
 4534 1d4a 9D4F      		sbci r25,-3
 4535 1d4c FC01      		movw r30,r24
 4536 1d4e 8081      		ld r24,Z
 4537 1d50 9181      		ldd r25,Z+1
 4538 1d52 4985      		ldd r20,Y+9
 4539 1d54 4F93      		push r20
 4540 1d56 4885      		ldd r20,Y+8
 4541 1d58 4F93      		push r20
 4542 1d5a 4F81      		ldd r20,Y+7
 4543 1d5c 4F93      		push r20
 4544 1d5e 4E81      		ldd r20,Y+6
 4545 1d60 4F93      		push r20
 4546 1d62 432F      		mov r20,r19
 4547 1d64 4F93      		push r20
 4548 1d66 2F93      		push r18
 4549 1d68 20E0      		ldi r18,lo8(.LC39)
 4550 1d6a 30E0      		ldi r19,hi8(.LC39)
 4551 1d6c 232F      		mov r18,r19
 4552 1d6e 2F93      		push r18
 4553 1d70 20E0      		ldi r18,lo8(.LC39)
 4554 1d72 30E0      		ldi r19,hi8(.LC39)
 4555 1d74 2F93      		push r18
 4556 1d76 292F      		mov r18,r25
 4557 1d78 2F93      		push r18
 4558 1d7a 8F93      		push r24
 4559 1d7c 0E94 0000 		call fprintf
 4560 1d80 8DB7      		in r24,__SP_L__
 4561 1d82 9EB7      		in r25,__SP_H__
 4562 1d84 0A96      		adiw r24,10
 4563 1d86 0FB6      		in __tmp_reg__,__SREG__
 4564 1d88 F894      		cli
 4565 1d8a DEBF      		out __SP_H__,r29
 4566 1d8c 0FBE      		out __SREG__,__tmp_reg__
 4567 1d8e CDBF      		out __SP_L__,r28
 416:lp_solve_5.5/lp_report.c ****     if(n == 0)
 4568               		.loc 2 416 0
 4569 1d90 8B81      		ldd r24,Y+3
 4570 1d92 9C81      		ldd r25,Y+4
 4571 1d94 892B      		or r24,r25
 4572 1d96 01F4      		brne .L131
 417:lp_solve_5.5/lp_report.c ****       fprintf(lp->outstream, "\n");
 4573               		.loc 2 417 0
 4574 1d98 8A85      		ldd r24,Y+10
 4575 1d9a 9B85      		ldd r25,Y+11
 4576 1d9c 845A      		subi r24,-92
 4577 1d9e 9D4F      		sbci r25,-3
 4578 1da0 FC01      		movw r30,r24
 4579 1da2 8081      		ld r24,Z
 4580 1da4 9181      		ldd r25,Z+1
 4581 1da6 BC01      		movw r22,r24
 4582 1da8 8AE0      		ldi r24,lo8(10)
 4583 1daa 90E0      		ldi r25,0
 4584 1dac 0E94 0000 		call fputc
 4585 1db0 00C0      		rjmp .L130
 4586               	.L131:
 418:lp_solve_5.5/lp_report.c ****     else
 419:lp_solve_5.5/lp_report.c ****       fprintf(lp->outstream, "       ");
 4587               		.loc 2 419 0
 4588 1db2 8A85      		ldd r24,Y+10
 4589 1db4 9B85      		ldd r25,Y+11
 4590 1db6 845A      		subi r24,-92
 4591 1db8 9D4F      		sbci r25,-3
 4592 1dba FC01      		movw r30,r24
 4593 1dbc 8081      		ld r24,Z
 4594 1dbe 9181      		ldd r25,Z+1
 4595 1dc0 9C01      		movw r18,r24
 4596 1dc2 47E0      		ldi r20,lo8(7)
 4597 1dc4 50E0      		ldi r21,0
 4598 1dc6 61E0      		ldi r22,lo8(1)
 4599 1dc8 70E0      		ldi r23,0
 4600 1dca 80E0      		ldi r24,lo8(.LC40)
 4601 1dcc 90E0      		ldi r25,hi8(.LC40)
 4602 1dce 0E94 0000 		call fwrite
 4603 1dd2 00C0      		rjmp .L130
 4604               	.L134:
 413:lp_solve_5.5/lp_report.c ****     n = (n+1) % columns;
 4605               		.loc 2 413 0
 4606 1dd4 0000      		nop
 4607               	.L130:
 410:lp_solve_5.5/lp_report.c ****     value = (double)lp->best_solution[i];
 4608               		.loc 2 410 0 discriminator 2
 4609 1dd6 8981      		ldd r24,Y+1
 4610 1dd8 9A81      		ldd r25,Y+2
 4611 1dda 0196      		adiw r24,1
 4612 1ddc 9A83      		std Y+2,r25
 4613 1dde 8983      		std Y+1,r24
 4614               	.L127:
 410:lp_solve_5.5/lp_report.c ****     value = (double)lp->best_solution[i];
 4615               		.loc 2 410 0 is_stmt 0 discriminator 1
 4616 1de0 8A85      		ldd r24,Y+10
 4617 1de2 9B85      		ldd r25,Y+11
 4618 1de4 8651      		subi r24,22
 4619 1de6 9E4F      		sbci r25,-2
 4620 1de8 FC01      		movw r30,r24
 4621 1dea 2081      		ld r18,Z
 4622 1dec 3181      		ldd r19,Z+1
 4623 1dee 8981      		ldd r24,Y+1
 4624 1df0 9A81      		ldd r25,Y+2
 4625 1df2 2817      		cp r18,r24
 4626 1df4 3907      		cpc r19,r25
 4627 1df6 04F0      		brlt .+2
 4628 1df8 00C0      		rjmp .L132
 420:lp_solve_5.5/lp_report.c ****   }
 421:lp_solve_5.5/lp_report.c **** 
 422:lp_solve_5.5/lp_report.c ****   fflush(lp->outstream);
 4629               		.loc 2 422 0 is_stmt 1
 4630 1dfa 8A85      		ldd r24,Y+10
 4631 1dfc 9B85      		ldd r25,Y+11
 4632 1dfe 845A      		subi r24,-92
 4633 1e00 9D4F      		sbci r25,-3
 4634 1e02 FC01      		movw r30,r24
 4635 1e04 8081      		ld r24,Z
 4636 1e06 9181      		ldd r25,Z+1
 4637 1e08 0E94 0000 		call fflush
 4638 1e0c 00C0      		rjmp .L122
 4639               	.L133:
 403:lp_solve_5.5/lp_report.c **** 
 4640               		.loc 2 403 0
 4641 1e0e 0000      		nop
 4642               	.L122:
 4643               	/* epilogue start */
 423:lp_solve_5.5/lp_report.c **** }
 4644               		.loc 2 423 0
 4645 1e10 2D96      		adiw r28,13
 4646 1e12 0FB6      		in __tmp_reg__,__SREG__
 4647 1e14 F894      		cli
 4648 1e16 DEBF      		out __SP_H__,r29
 4649 1e18 0FBE      		out __SREG__,__tmp_reg__
 4650 1e1a CDBF      		out __SP_L__,r28
 4651 1e1c DF91      		pop r29
 4652 1e1e CF91      		pop r28
 4653 1e20 0895      		ret
 4654               		.cfi_endproc
 4655               	.LFE19:
 4657               		.section	.rodata
 4658               	.LC42:
 4659 0467 0A4F 626A 		.string	"\nObjective function limits:\n"
 4659      6563 7469 
 4659      7665 2066 
 4659      756E 6374 
 4659      696F 6E20 
 4660               	.LC43:
 4661 0484 2020 2020 		.string	"                                 From            Till       FromValue\n"
 4661      2020 2020 
 4661      2020 2020 
 4661      2020 2020 
 4661      2020 2020 
 4662               	.LC44:
 4663 04cb 252D 3230 		.string	"%-20s  %15.7g %15.7g %15.7g\n"
 4663      7320 2025 
 4663      3135 2E37 
 4663      6720 2531 
 4663      352E 3767 
 4664               	.LC45:
 4665 04e8 0A44 7561 		.string	"\nDual values with from - till limits:\n"
 4665      6C20 7661 
 4665      6C75 6573 
 4665      2077 6974 
 4665      6820 6672 
 4666               	.LC46:
 4667 050f 2020 2020 		.string	"                           Dual value            From            Till\n"
 4667      2020 2020 
 4667      2020 2020 
 4667      2020 2020 
 4667      2020 2020 
 4668               		.text
 4669               	.global	REPORT_duals
 4671               	REPORT_duals:
 4672               	.LFB20:
 424:lp_solve_5.5/lp_report.c **** 
 425:lp_solve_5.5/lp_report.c **** void REPORT_duals(lprec *lp)
 426:lp_solve_5.5/lp_report.c **** {
 4673               		.loc 2 426 0
 4674               		.cfi_startproc
 4675 1e22 4F92      		push r4
 4676               	.LCFI82:
 4677               		.cfi_def_cfa_offset 3
 4678               		.cfi_offset 4, -2
 4679 1e24 5F92      		push r5
 4680               	.LCFI83:
 4681               		.cfi_def_cfa_offset 4
 4682               		.cfi_offset 5, -3
 4683 1e26 6F92      		push r6
 4684               	.LCFI84:
 4685               		.cfi_def_cfa_offset 5
 4686               		.cfi_offset 6, -4
 4687 1e28 7F92      		push r7
 4688               	.LCFI85:
 4689               		.cfi_def_cfa_offset 6
 4690               		.cfi_offset 7, -5
 4691 1e2a 8F92      		push r8
 4692               	.LCFI86:
 4693               		.cfi_def_cfa_offset 7
 4694               		.cfi_offset 8, -6
 4695 1e2c 9F92      		push r9
 4696               	.LCFI87:
 4697               		.cfi_def_cfa_offset 8
 4698               		.cfi_offset 9, -7
 4699 1e2e AF92      		push r10
 4700               	.LCFI88:
 4701               		.cfi_def_cfa_offset 9
 4702               		.cfi_offset 10, -8
 4703 1e30 BF92      		push r11
 4704               	.LCFI89:
 4705               		.cfi_def_cfa_offset 10
 4706               		.cfi_offset 11, -9
 4707 1e32 CF92      		push r12
 4708               	.LCFI90:
 4709               		.cfi_def_cfa_offset 11
 4710               		.cfi_offset 12, -10
 4711 1e34 DF92      		push r13
 4712               	.LCFI91:
 4713               		.cfi_def_cfa_offset 12
 4714               		.cfi_offset 13, -11
 4715 1e36 EF92      		push r14
 4716               	.LCFI92:
 4717               		.cfi_def_cfa_offset 13
 4718               		.cfi_offset 14, -12
 4719 1e38 FF92      		push r15
 4720               	.LCFI93:
 4721               		.cfi_def_cfa_offset 14
 4722               		.cfi_offset 15, -13
 4723 1e3a 0F93      		push r16
 4724               	.LCFI94:
 4725               		.cfi_def_cfa_offset 15
 4726               		.cfi_offset 16, -14
 4727 1e3c 1F93      		push r17
 4728               	.LCFI95:
 4729               		.cfi_def_cfa_offset 16
 4730               		.cfi_offset 17, -15
 4731 1e3e CF93      		push r28
 4732               	.LCFI96:
 4733               		.cfi_def_cfa_offset 17
 4734               		.cfi_offset 28, -16
 4735 1e40 DF93      		push r29
 4736               	.LCFI97:
 4737               		.cfi_def_cfa_offset 18
 4738               		.cfi_offset 29, -17
 4739 1e42 CDB7      		in r28,__SP_L__
 4740 1e44 DEB7      		in r29,__SP_H__
 4741               	.LCFI98:
 4742               		.cfi_def_cfa_register 28
 4743 1e46 6197      		sbiw r28,17
 4744               	.LCFI99:
 4745               		.cfi_def_cfa_offset 35
 4746 1e48 0FB6      		in __tmp_reg__,__SREG__
 4747 1e4a F894      		cli
 4748 1e4c DEBF      		out __SP_H__,r29
 4749 1e4e 0FBE      		out __SREG__,__tmp_reg__
 4750 1e50 CDBF      		out __SP_L__,r28
 4751               	/* prologue: function */
 4752               	/* frame size = 17 */
 4753               	/* stack size = 33 */
 4754               	.L__stack_usage = 33
 4755 1e52 998B      		std Y+17,r25
 4756 1e54 888B      		std Y+16,r24
 427:lp_solve_5.5/lp_report.c ****   int i;
 428:lp_solve_5.5/lp_report.c ****   REAL *duals, *dualsfrom, *dualstill, *objfrom, *objtill, *objfromvalue;
 429:lp_solve_5.5/lp_report.c ****   MYBOOL ret;
 430:lp_solve_5.5/lp_report.c **** 
 431:lp_solve_5.5/lp_report.c ****   if(lp->outstream == NULL)
 4757               		.loc 2 431 0
 4758 1e56 8889      		ldd r24,Y+16
 4759 1e58 9989      		ldd r25,Y+17
 4760 1e5a 845A      		subi r24,-92
 4761 1e5c 9D4F      		sbci r25,-3
 4762 1e5e FC01      		movw r30,r24
 4763 1e60 8081      		ld r24,Z
 4764 1e62 9181      		ldd r25,Z+1
 4765 1e64 892B      		or r24,r25
 4766 1e66 01F4      		brne .+2
 4767 1e68 00C0      		rjmp .L147
 432:lp_solve_5.5/lp_report.c ****     return;
 433:lp_solve_5.5/lp_report.c **** 
 434:lp_solve_5.5/lp_report.c ****   ret = get_ptr_sensitivity_objex(lp, &objfrom, &objtill, &objfromvalue, NULL);
 4768               		.loc 2 434 0
 4769 1e6a 9E01      		movw r18,r28
 4770 1e6c 225F      		subi r18,-14
 4771 1e6e 3F4F      		sbci r19,-1
 4772 1e70 AE01      		movw r20,r28
 4773 1e72 445F      		subi r20,-12
 4774 1e74 5F4F      		sbci r21,-1
 4775 1e76 BE01      		movw r22,r28
 4776 1e78 665F      		subi r22,-10
 4777 1e7a 7F4F      		sbci r23,-1
 4778 1e7c 8889      		ldd r24,Y+16
 4779 1e7e 9989      		ldd r25,Y+17
 4780 1e80 00E0      		ldi r16,0
 4781 1e82 10E0      		ldi r17,0
 4782 1e84 0E94 0000 		call get_ptr_sensitivity_objex
 4783 1e88 8B83      		std Y+3,r24
 435:lp_solve_5.5/lp_report.c ****   if(ret) {
 4784               		.loc 2 435 0
 4785 1e8a 8B81      		ldd r24,Y+3
 4786 1e8c 8823      		tst r24
 4787 1e8e 01F4      		brne .+2
 4788 1e90 00C0      		rjmp .L138
 436:lp_solve_5.5/lp_report.c ****     fprintf(lp->outstream, "\nObjective function limits:\n");
 4789               		.loc 2 436 0
 4790 1e92 8889      		ldd r24,Y+16
 4791 1e94 9989      		ldd r25,Y+17
 4792 1e96 845A      		subi r24,-92
 4793 1e98 9D4F      		sbci r25,-3
 4794 1e9a FC01      		movw r30,r24
 4795 1e9c 8081      		ld r24,Z
 4796 1e9e 9181      		ldd r25,Z+1
 4797 1ea0 9C01      		movw r18,r24
 4798 1ea2 4CE1      		ldi r20,lo8(28)
 4799 1ea4 50E0      		ldi r21,0
 4800 1ea6 61E0      		ldi r22,lo8(1)
 4801 1ea8 70E0      		ldi r23,0
 4802 1eaa 80E0      		ldi r24,lo8(.LC42)
 4803 1eac 90E0      		ldi r25,hi8(.LC42)
 4804 1eae 0E94 0000 		call fwrite
 437:lp_solve_5.5/lp_report.c ****     fprintf(lp->outstream, "                                 From            Till       FromValue\n
 4805               		.loc 2 437 0
 4806 1eb2 8889      		ldd r24,Y+16
 4807 1eb4 9989      		ldd r25,Y+17
 4808 1eb6 845A      		subi r24,-92
 4809 1eb8 9D4F      		sbci r25,-3
 4810 1eba FC01      		movw r30,r24
 4811 1ebc 8081      		ld r24,Z
 4812 1ebe 9181      		ldd r25,Z+1
 4813 1ec0 9C01      		movw r18,r24
 4814 1ec2 46E4      		ldi r20,lo8(70)
 4815 1ec4 50E0      		ldi r21,0
 4816 1ec6 61E0      		ldi r22,lo8(1)
 4817 1ec8 70E0      		ldi r23,0
 4818 1eca 80E0      		ldi r24,lo8(.LC43)
 4819 1ecc 90E0      		ldi r25,hi8(.LC43)
 4820 1ece 0E94 0000 		call fwrite
 438:lp_solve_5.5/lp_report.c ****     for(i = 1; i <= lp->columns; i++)
 4821               		.loc 2 438 0
 4822 1ed2 81E0      		ldi r24,lo8(1)
 4823 1ed4 90E0      		ldi r25,0
 4824 1ed6 9A83      		std Y+2,r25
 4825 1ed8 8983      		std Y+1,r24
 4826 1eda 00C0      		rjmp .L139
 4827               	.L141:
 439:lp_solve_5.5/lp_report.c ****       if(!is_splitvar(lp, i))
 4828               		.loc 2 439 0
 4829 1edc 2981      		ldd r18,Y+1
 4830 1ede 3A81      		ldd r19,Y+2
 4831 1ee0 8889      		ldd r24,Y+16
 4832 1ee2 9989      		ldd r25,Y+17
 4833 1ee4 B901      		movw r22,r18
 4834 1ee6 0E94 0000 		call is_splitvar
 4835 1eea 8823      		tst r24
 4836 1eec 01F0      		breq .+2
 4837 1eee 00C0      		rjmp .L140
 440:lp_solve_5.5/lp_report.c ****         fprintf(lp->outstream, "%-20s  %15.7g %15.7g %15.7g\n", get_col_name(lp, i),
 441:lp_solve_5.5/lp_report.c ****          (double)objfrom[i - 1], (double)objtill[i - 1], (double)objfromvalue[i - 1]);
 4838               		.loc 2 441 0
 4839 1ef0 2E85      		ldd r18,Y+14
 4840 1ef2 3F85      		ldd r19,Y+15
 4841 1ef4 8981      		ldd r24,Y+1
 4842 1ef6 9A81      		ldd r25,Y+2
 4843 1ef8 8150      		subi r24,1
 4844 1efa 904C      		sbci r25,-64
 4845 1efc 880F      		lsl r24
 4846 1efe 991F      		rol r25
 4847 1f00 880F      		lsl r24
 4848 1f02 991F      		rol r25
 4849 1f04 820F      		add r24,r18
 4850 1f06 931F      		adc r25,r19
 440:lp_solve_5.5/lp_report.c ****         fprintf(lp->outstream, "%-20s  %15.7g %15.7g %15.7g\n", get_col_name(lp, i),
 4851               		.loc 2 440 0
 4852 1f08 FC01      		movw r30,r24
 4853 1f0a 4080      		ld r4,Z
 4854 1f0c 5180      		ldd r5,Z+1
 4855 1f0e 6280      		ldd r6,Z+2
 4856 1f10 7380      		ldd r7,Z+3
 4857               		.loc 2 441 0
 4858 1f12 2C85      		ldd r18,Y+12
 4859 1f14 3D85      		ldd r19,Y+13
 4860 1f16 8981      		ldd r24,Y+1
 4861 1f18 9A81      		ldd r25,Y+2
 4862 1f1a 8150      		subi r24,1
 4863 1f1c 904C      		sbci r25,-64
 4864 1f1e 880F      		lsl r24
 4865 1f20 991F      		rol r25
 4866 1f22 880F      		lsl r24
 4867 1f24 991F      		rol r25
 4868 1f26 820F      		add r24,r18
 4869 1f28 931F      		adc r25,r19
 440:lp_solve_5.5/lp_report.c ****         fprintf(lp->outstream, "%-20s  %15.7g %15.7g %15.7g\n", get_col_name(lp, i),
 4870               		.loc 2 440 0
 4871 1f2a FC01      		movw r30,r24
 4872 1f2c 8080      		ld r8,Z
 4873 1f2e 9180      		ldd r9,Z+1
 4874 1f30 A280      		ldd r10,Z+2
 4875 1f32 B380      		ldd r11,Z+3
 4876               		.loc 2 441 0
 4877 1f34 2A85      		ldd r18,Y+10
 4878 1f36 3B85      		ldd r19,Y+11
 4879 1f38 8981      		ldd r24,Y+1
 4880 1f3a 9A81      		ldd r25,Y+2
 4881 1f3c 8150      		subi r24,1
 4882 1f3e 904C      		sbci r25,-64
 4883 1f40 880F      		lsl r24
 4884 1f42 991F      		rol r25
 4885 1f44 880F      		lsl r24
 4886 1f46 991F      		rol r25
 4887 1f48 820F      		add r24,r18
 4888 1f4a 931F      		adc r25,r19
 440:lp_solve_5.5/lp_report.c ****         fprintf(lp->outstream, "%-20s  %15.7g %15.7g %15.7g\n", get_col_name(lp, i),
 4889               		.loc 2 440 0
 4890 1f4c FC01      		movw r30,r24
 4891 1f4e C080      		ld r12,Z
 4892 1f50 D180      		ldd r13,Z+1
 4893 1f52 E280      		ldd r14,Z+2
 4894 1f54 F380      		ldd r15,Z+3
 4895 1f56 2981      		ldd r18,Y+1
 4896 1f58 3A81      		ldd r19,Y+2
 4897 1f5a 8889      		ldd r24,Y+16
 4898 1f5c 9989      		ldd r25,Y+17
 4899 1f5e B901      		movw r22,r18
 4900 1f60 0E94 0000 		call get_col_name
 4901 1f64 9C01      		movw r18,r24
 4902 1f66 8889      		ldd r24,Y+16
 4903 1f68 9989      		ldd r25,Y+17
 4904 1f6a 845A      		subi r24,-92
 4905 1f6c 9D4F      		sbci r25,-3
 4906 1f6e FC01      		movw r30,r24
 4907 1f70 8081      		ld r24,Z
 4908 1f72 9181      		ldd r25,Z+1
 4909 1f74 472D      		mov r20,r7
 4910 1f76 4F93      		push r20
 4911 1f78 462D      		mov r20,r6
 4912 1f7a 4F93      		push r20
 4913 1f7c 452D      		mov r20,r5
 4914 1f7e 4F93      		push r20
 4915 1f80 442D      		mov r20,r4
 4916 1f82 4F93      		push r20
 4917 1f84 4B2D      		mov r20,r11
 4918 1f86 4F93      		push r20
 4919 1f88 4A2D      		mov r20,r10
 4920 1f8a 4F93      		push r20
 4921 1f8c 492D      		mov r20,r9
 4922 1f8e 4F93      		push r20
 4923 1f90 482D      		mov r20,r8
 4924 1f92 4F93      		push r20
 4925 1f94 4F2D      		mov r20,r15
 4926 1f96 4F93      		push r20
 4927 1f98 4E2D      		mov r20,r14
 4928 1f9a 4F93      		push r20
 4929 1f9c 4D2D      		mov r20,r13
 4930 1f9e 4F93      		push r20
 4931 1fa0 4C2D      		mov r20,r12
 4932 1fa2 4F93      		push r20
 4933 1fa4 432F      		mov r20,r19
 4934 1fa6 4F93      		push r20
 4935 1fa8 2F93      		push r18
 4936 1faa 20E0      		ldi r18,lo8(.LC44)
 4937 1fac 30E0      		ldi r19,hi8(.LC44)
 4938 1fae 232F      		mov r18,r19
 4939 1fb0 2F93      		push r18
 4940 1fb2 20E0      		ldi r18,lo8(.LC44)
 4941 1fb4 30E0      		ldi r19,hi8(.LC44)
 4942 1fb6 2F93      		push r18
 4943 1fb8 292F      		mov r18,r25
 4944 1fba 2F93      		push r18
 4945 1fbc 8F93      		push r24
 4946 1fbe 0E94 0000 		call fprintf
 4947 1fc2 8DB7      		in r24,__SP_L__
 4948 1fc4 9EB7      		in r25,__SP_H__
 4949 1fc6 4296      		adiw r24,18
 4950 1fc8 0FB6      		in __tmp_reg__,__SREG__
 4951 1fca F894      		cli
 4952 1fcc DEBF      		out __SP_H__,r29
 4953 1fce 0FBE      		out __SREG__,__tmp_reg__
 4954 1fd0 CDBF      		out __SP_L__,r28
 4955               	.L140:
 438:lp_solve_5.5/lp_report.c ****       if(!is_splitvar(lp, i))
 4956               		.loc 2 438 0 discriminator 2
 4957 1fd2 8981      		ldd r24,Y+1
 4958 1fd4 9A81      		ldd r25,Y+2
 4959 1fd6 0196      		adiw r24,1
 4960 1fd8 9A83      		std Y+2,r25
 4961 1fda 8983      		std Y+1,r24
 4962               	.L139:
 438:lp_solve_5.5/lp_report.c ****       if(!is_splitvar(lp, i))
 4963               		.loc 2 438 0 is_stmt 0 discriminator 1
 4964 1fdc 8889      		ldd r24,Y+16
 4965 1fde 9989      		ldd r25,Y+17
 4966 1fe0 8451      		subi r24,20
 4967 1fe2 9E4F      		sbci r25,-2
 4968 1fe4 FC01      		movw r30,r24
 4969 1fe6 2081      		ld r18,Z
 4970 1fe8 3181      		ldd r19,Z+1
 4971 1fea 8981      		ldd r24,Y+1
 4972 1fec 9A81      		ldd r25,Y+2
 4973 1fee 2817      		cp r18,r24
 4974 1ff0 3907      		cpc r19,r25
 4975 1ff2 04F0      		brlt .+2
 4976 1ff4 00C0      		rjmp .L141
 4977               	.L138:
 442:lp_solve_5.5/lp_report.c ****   }
 443:lp_solve_5.5/lp_report.c **** 
 444:lp_solve_5.5/lp_report.c ****   ret = get_ptr_sensitivity_rhs(lp, &duals, &dualsfrom, &dualstill);
 4978               		.loc 2 444 0 is_stmt 1
 4979 1ff6 9E01      		movw r18,r28
 4980 1ff8 285F      		subi r18,-8
 4981 1ffa 3F4F      		sbci r19,-1
 4982 1ffc AE01      		movw r20,r28
 4983 1ffe 4A5F      		subi r20,-6
 4984 2000 5F4F      		sbci r21,-1
 4985 2002 BE01      		movw r22,r28
 4986 2004 6C5F      		subi r22,-4
 4987 2006 7F4F      		sbci r23,-1
 4988 2008 8889      		ldd r24,Y+16
 4989 200a 9989      		ldd r25,Y+17
 4990 200c 0E94 0000 		call get_ptr_sensitivity_rhs
 4991 2010 8B83      		std Y+3,r24
 445:lp_solve_5.5/lp_report.c ****   if(ret) {
 4992               		.loc 2 445 0
 4993 2012 8B81      		ldd r24,Y+3
 4994 2014 8823      		tst r24
 4995 2016 01F4      		brne .+2
 4996 2018 00C0      		rjmp .L135
 446:lp_solve_5.5/lp_report.c ****     fprintf(lp->outstream, "\nDual values with from - till limits:\n");
 4997               		.loc 2 446 0
 4998 201a 8889      		ldd r24,Y+16
 4999 201c 9989      		ldd r25,Y+17
 5000 201e 845A      		subi r24,-92
 5001 2020 9D4F      		sbci r25,-3
 5002 2022 FC01      		movw r30,r24
 5003 2024 8081      		ld r24,Z
 5004 2026 9181      		ldd r25,Z+1
 5005 2028 9C01      		movw r18,r24
 5006 202a 46E2      		ldi r20,lo8(38)
 5007 202c 50E0      		ldi r21,0
 5008 202e 61E0      		ldi r22,lo8(1)
 5009 2030 70E0      		ldi r23,0
 5010 2032 80E0      		ldi r24,lo8(.LC45)
 5011 2034 90E0      		ldi r25,hi8(.LC45)
 5012 2036 0E94 0000 		call fwrite
 447:lp_solve_5.5/lp_report.c ****     fprintf(lp->outstream, "                           Dual value            From            Till\n
 5013               		.loc 2 447 0
 5014 203a 8889      		ldd r24,Y+16
 5015 203c 9989      		ldd r25,Y+17
 5016 203e 845A      		subi r24,-92
 5017 2040 9D4F      		sbci r25,-3
 5018 2042 FC01      		movw r30,r24
 5019 2044 8081      		ld r24,Z
 5020 2046 9181      		ldd r25,Z+1
 5021 2048 9C01      		movw r18,r24
 5022 204a 46E4      		ldi r20,lo8(70)
 5023 204c 50E0      		ldi r21,0
 5024 204e 61E0      		ldi r22,lo8(1)
 5025 2050 70E0      		ldi r23,0
 5026 2052 80E0      		ldi r24,lo8(.LC46)
 5027 2054 90E0      		ldi r25,hi8(.LC46)
 5028 2056 0E94 0000 		call fwrite
 448:lp_solve_5.5/lp_report.c ****     for(i = 1; i <= lp->sum; i++)
 5029               		.loc 2 448 0
 5030 205a 81E0      		ldi r24,lo8(1)
 5031 205c 90E0      		ldi r25,0
 5032 205e 9A83      		std Y+2,r25
 5033 2060 8983      		std Y+1,r24
 5034 2062 00C0      		rjmp .L143
 5035               	.L146:
 449:lp_solve_5.5/lp_report.c ****       fprintf(lp->outstream, "%-20s  %15.7g %15.7g %15.7g\n",
 450:lp_solve_5.5/lp_report.c ****               (i <= lp->rows) ? get_row_name(lp, i) : get_col_name(lp, i - lp->rows),
 451:lp_solve_5.5/lp_report.c ****               (double)duals[i - 1], (double)dualsfrom[i - 1], (double)dualstill[i - 1]);
 5036               		.loc 2 451 0
 5037 2064 2885      		ldd r18,Y+8
 5038 2066 3985      		ldd r19,Y+9
 5039 2068 8981      		ldd r24,Y+1
 5040 206a 9A81      		ldd r25,Y+2
 5041 206c 8150      		subi r24,1
 5042 206e 904C      		sbci r25,-64
 5043 2070 880F      		lsl r24
 5044 2072 991F      		rol r25
 5045 2074 880F      		lsl r24
 5046 2076 991F      		rol r25
 5047 2078 820F      		add r24,r18
 5048 207a 931F      		adc r25,r19
 449:lp_solve_5.5/lp_report.c ****       fprintf(lp->outstream, "%-20s  %15.7g %15.7g %15.7g\n",
 5049               		.loc 2 449 0
 5050 207c FC01      		movw r30,r24
 5051 207e 4080      		ld r4,Z
 5052 2080 5180      		ldd r5,Z+1
 5053 2082 6280      		ldd r6,Z+2
 5054 2084 7380      		ldd r7,Z+3
 5055               		.loc 2 451 0
 5056 2086 2E81      		ldd r18,Y+6
 5057 2088 3F81      		ldd r19,Y+7
 5058 208a 8981      		ldd r24,Y+1
 5059 208c 9A81      		ldd r25,Y+2
 5060 208e 8150      		subi r24,1
 5061 2090 904C      		sbci r25,-64
 5062 2092 880F      		lsl r24
 5063 2094 991F      		rol r25
 5064 2096 880F      		lsl r24
 5065 2098 991F      		rol r25
 5066 209a 820F      		add r24,r18
 5067 209c 931F      		adc r25,r19
 449:lp_solve_5.5/lp_report.c ****       fprintf(lp->outstream, "%-20s  %15.7g %15.7g %15.7g\n",
 5068               		.loc 2 449 0
 5069 209e FC01      		movw r30,r24
 5070 20a0 8080      		ld r8,Z
 5071 20a2 9180      		ldd r9,Z+1
 5072 20a4 A280      		ldd r10,Z+2
 5073 20a6 B380      		ldd r11,Z+3
 5074               		.loc 2 451 0
 5075 20a8 2C81      		ldd r18,Y+4
 5076 20aa 3D81      		ldd r19,Y+5
 5077 20ac 8981      		ldd r24,Y+1
 5078 20ae 9A81      		ldd r25,Y+2
 5079 20b0 8150      		subi r24,1
 5080 20b2 904C      		sbci r25,-64
 5081 20b4 880F      		lsl r24
 5082 20b6 991F      		rol r25
 5083 20b8 880F      		lsl r24
 5084 20ba 991F      		rol r25
 5085 20bc 820F      		add r24,r18
 5086 20be 931F      		adc r25,r19
 449:lp_solve_5.5/lp_report.c ****       fprintf(lp->outstream, "%-20s  %15.7g %15.7g %15.7g\n",
 5087               		.loc 2 449 0
 5088 20c0 FC01      		movw r30,r24
 5089 20c2 C080      		ld r12,Z
 5090 20c4 D180      		ldd r13,Z+1
 5091 20c6 E280      		ldd r14,Z+2
 5092 20c8 F380      		ldd r15,Z+3
 450:lp_solve_5.5/lp_report.c ****               (double)duals[i - 1], (double)dualsfrom[i - 1], (double)dualstill[i - 1]);
 5093               		.loc 2 450 0
 5094 20ca 8889      		ldd r24,Y+16
 5095 20cc 9989      		ldd r25,Y+17
 5096 20ce 8651      		subi r24,22
 5097 20d0 9E4F      		sbci r25,-2
 5098 20d2 FC01      		movw r30,r24
 5099 20d4 2081      		ld r18,Z
 5100 20d6 3181      		ldd r19,Z+1
 449:lp_solve_5.5/lp_report.c ****       fprintf(lp->outstream, "%-20s  %15.7g %15.7g %15.7g\n",
 5101               		.loc 2 449 0
 5102 20d8 8981      		ldd r24,Y+1
 5103 20da 9A81      		ldd r25,Y+2
 5104 20dc 2817      		cp r18,r24
 5105 20de 3907      		cpc r19,r25
 5106 20e0 04F0      		brlt .L144
 449:lp_solve_5.5/lp_report.c ****       fprintf(lp->outstream, "%-20s  %15.7g %15.7g %15.7g\n",
 5107               		.loc 2 449 0 is_stmt 0 discriminator 1
 5108 20e2 2981      		ldd r18,Y+1
 5109 20e4 3A81      		ldd r19,Y+2
 5110 20e6 8889      		ldd r24,Y+16
 5111 20e8 9989      		ldd r25,Y+17
 5112 20ea B901      		movw r22,r18
 5113 20ec 0E94 0000 		call get_row_name
 5114 20f0 9C01      		movw r18,r24
 5115 20f2 00C0      		rjmp .L145
 5116               	.L144:
 450:lp_solve_5.5/lp_report.c ****               (double)duals[i - 1], (double)dualsfrom[i - 1], (double)dualstill[i - 1]);
 5117               		.loc 2 450 0 is_stmt 1 discriminator 2
 5118 20f4 8889      		ldd r24,Y+16
 5119 20f6 9989      		ldd r25,Y+17
 5120 20f8 8651      		subi r24,22
 5121 20fa 9E4F      		sbci r25,-2
 5122 20fc FC01      		movw r30,r24
 5123 20fe 8081      		ld r24,Z
 5124 2100 9181      		ldd r25,Z+1
 5125 2102 2981      		ldd r18,Y+1
 5126 2104 3A81      		ldd r19,Y+2
 5127 2106 281B      		sub r18,r24
 5128 2108 390B      		sbc r19,r25
 449:lp_solve_5.5/lp_report.c ****       fprintf(lp->outstream, "%-20s  %15.7g %15.7g %15.7g\n",
 5129               		.loc 2 449 0 discriminator 2
 5130 210a 8889      		ldd r24,Y+16
 5131 210c 9989      		ldd r25,Y+17
 5132 210e B901      		movw r22,r18
 5133 2110 0E94 0000 		call get_col_name
 5134 2114 9C01      		movw r18,r24
 5135               	.L145:
 449:lp_solve_5.5/lp_report.c ****       fprintf(lp->outstream, "%-20s  %15.7g %15.7g %15.7g\n",
 5136               		.loc 2 449 0 is_stmt 0 discriminator 4
 5137 2116 8889      		ldd r24,Y+16
 5138 2118 9989      		ldd r25,Y+17
 5139 211a 845A      		subi r24,-92
 5140 211c 9D4F      		sbci r25,-3
 5141 211e FC01      		movw r30,r24
 5142 2120 8081      		ld r24,Z
 5143 2122 9181      		ldd r25,Z+1
 5144 2124 472D      		mov r20,r7
 5145 2126 4F93      		push r20
 5146 2128 462D      		mov r20,r6
 5147 212a 4F93      		push r20
 5148 212c 452D      		mov r20,r5
 5149 212e 4F93      		push r20
 5150 2130 442D      		mov r20,r4
 5151 2132 4F93      		push r20
 5152 2134 4B2D      		mov r20,r11
 5153 2136 4F93      		push r20
 5154 2138 4A2D      		mov r20,r10
 5155 213a 4F93      		push r20
 5156 213c 492D      		mov r20,r9
 5157 213e 4F93      		push r20
 5158 2140 482D      		mov r20,r8
 5159 2142 4F93      		push r20
 5160 2144 4F2D      		mov r20,r15
 5161 2146 4F93      		push r20
 5162 2148 4E2D      		mov r20,r14
 5163 214a 4F93      		push r20
 5164 214c 4D2D      		mov r20,r13
 5165 214e 4F93      		push r20
 5166 2150 4C2D      		mov r20,r12
 5167 2152 4F93      		push r20
 5168 2154 432F      		mov r20,r19
 5169 2156 4F93      		push r20
 5170 2158 2F93      		push r18
 5171 215a 20E0      		ldi r18,lo8(.LC44)
 5172 215c 30E0      		ldi r19,hi8(.LC44)
 5173 215e 232F      		mov r18,r19
 5174 2160 2F93      		push r18
 5175 2162 20E0      		ldi r18,lo8(.LC44)
 5176 2164 30E0      		ldi r19,hi8(.LC44)
 5177 2166 2F93      		push r18
 5178 2168 292F      		mov r18,r25
 5179 216a 2F93      		push r18
 5180 216c 8F93      		push r24
 5181 216e 0E94 0000 		call fprintf
 5182 2172 8DB7      		in r24,__SP_L__
 5183 2174 9EB7      		in r25,__SP_H__
 5184 2176 4296      		adiw r24,18
 5185 2178 0FB6      		in __tmp_reg__,__SREG__
 5186 217a F894      		cli
 5187 217c DEBF      		out __SP_H__,r29
 5188 217e 0FBE      		out __SREG__,__tmp_reg__
 5189 2180 CDBF      		out __SP_L__,r28
 448:lp_solve_5.5/lp_report.c ****     for(i = 1; i <= lp->sum; i++)
 5190               		.loc 2 448 0 is_stmt 1 discriminator 4
 5191 2182 8981      		ldd r24,Y+1
 5192 2184 9A81      		ldd r25,Y+2
 5193 2186 0196      		adiw r24,1
 5194 2188 9A83      		std Y+2,r25
 5195 218a 8983      		std Y+1,r24
 5196               	.L143:
 448:lp_solve_5.5/lp_report.c ****     for(i = 1; i <= lp->sum; i++)
 5197               		.loc 2 448 0 is_stmt 0 discriminator 2
 5198 218c 8889      		ldd r24,Y+16
 5199 218e 9989      		ldd r25,Y+17
 5200 2190 8851      		subi r24,24
 5201 2192 9E4F      		sbci r25,-2
 5202 2194 FC01      		movw r30,r24
 5203 2196 2081      		ld r18,Z
 5204 2198 3181      		ldd r19,Z+1
 5205 219a 8981      		ldd r24,Y+1
 5206 219c 9A81      		ldd r25,Y+2
 5207 219e 2817      		cp r18,r24
 5208 21a0 3907      		cpc r19,r25
 5209 21a2 04F0      		brlt .+2
 5210 21a4 00C0      		rjmp .L146
 452:lp_solve_5.5/lp_report.c ****     fflush(lp->outstream);
 5211               		.loc 2 452 0 is_stmt 1
 5212 21a6 8889      		ldd r24,Y+16
 5213 21a8 9989      		ldd r25,Y+17
 5214 21aa 845A      		subi r24,-92
 5215 21ac 9D4F      		sbci r25,-3
 5216 21ae FC01      		movw r30,r24
 5217 21b0 8081      		ld r24,Z
 5218 21b2 9181      		ldd r25,Z+1
 5219 21b4 0E94 0000 		call fflush
 5220 21b8 00C0      		rjmp .L135
 5221               	.L147:
 432:lp_solve_5.5/lp_report.c **** 
 5222               		.loc 2 432 0
 5223 21ba 0000      		nop
 5224               	.L135:
 5225               	/* epilogue start */
 453:lp_solve_5.5/lp_report.c ****   }
 454:lp_solve_5.5/lp_report.c **** }
 5226               		.loc 2 454 0
 5227 21bc 6196      		adiw r28,17
 5228 21be 0FB6      		in __tmp_reg__,__SREG__
 5229 21c0 F894      		cli
 5230 21c2 DEBF      		out __SP_H__,r29
 5231 21c4 0FBE      		out __SREG__,__tmp_reg__
 5232 21c6 CDBF      		out __SP_L__,r28
 5233 21c8 DF91      		pop r29
 5234 21ca CF91      		pop r28
 5235 21cc 1F91      		pop r17
 5236 21ce 0F91      		pop r16
 5237 21d0 FF90      		pop r15
 5238 21d2 EF90      		pop r14
 5239 21d4 DF90      		pop r13
 5240 21d6 CF90      		pop r12
 5241 21d8 BF90      		pop r11
 5242 21da AF90      		pop r10
 5243 21dc 9F90      		pop r9
 5244 21de 8F90      		pop r8
 5245 21e0 7F90      		pop r7
 5246 21e2 6F90      		pop r6
 5247 21e4 5F90      		pop r5
 5248 21e6 4F90      		pop r4
 5249 21e8 0895      		ret
 5250               		.cfi_endproc
 5251               	.LFE20:
 5253               		.section	.rodata
 5254               	.LC47:
 5255 0556 200A 00   		.string	" \n"
 5256               	.LC48:
 5257 0559 5072 696D 		.string	"Primal objective:\n"
 5257      616C 206F 
 5257      626A 6563 
 5257      7469 7665 
 5257      3A0A 00
 5258               	.LC49:
 5259 056c 2020 436F 		.string	"  Column name                      Value   Objective         Min         Max\n"
 5259      6C75 6D6E 
 5259      206E 616D 
 5259      6520 2020 
 5259      2020 2020 
 5260               	.LC50:
 5261 05ba 2020 2D2D 		.string	"  --------------------------------------------------------------------------\n"
 5261      2D2D 2D2D 
 5261      2D2D 2D2D 
 5261      2D2D 2D2D 
 5261      2D2D 2D2D 
 5262               	.global	__mulsf3
 5263               	.LC51:
 5264 0608 2020 252D 		.string	"  %-25s %12g%12g%12g%12g\n"
 5264      3235 7320 
 5264      2531 3267 
 5264      2531 3267 
 5264      2531 3267 
 5265               	.LC52:
 5266 0622 5072 696D 		.string	"Primal variables:\n"
 5266      616C 2076 
 5266      6172 6961 
 5266      626C 6573 
 5266      3A0A 00
 5267               	.LC53:
 5268 0635 2020 436F 		.string	"  Column name                      Value       Slack         Min         Max\n"
 5268      6C75 6D6E 
 5268      206E 616D 
 5268      6520 2020 
 5268      2020 2020 
 5269               	.global	__gesf2
 5270               	.LC54:
 5271 0683 4475 616C 		.string	"Dual variables:\n"
 5271      2076 6172 
 5271      6961 626C 
 5271      6573 3A0A 
 5271      00
 5272               	.LC55:
 5273 0694 2020 526F 		.string	"  Row name                         Value       Slack         Min         Max\n"
 5273      7720 6E61 
 5273      6D65 2020 
 5273      2020 2020 
 5273      2020 2020 
 5274               		.text
 5275               	.global	REPORT_extended
 5277               	REPORT_extended:
 5278               	.LFB21:
 455:lp_solve_5.5/lp_report.c **** 
 456:lp_solve_5.5/lp_report.c **** /* Printing of sensitivity analysis reports */
 457:lp_solve_5.5/lp_report.c **** void REPORT_extended(lprec *lp)
 458:lp_solve_5.5/lp_report.c **** {
 5279               		.loc 2 458 0
 5280               		.cfi_startproc
 5281 21ea 4F92      		push r4
 5282               	.LCFI100:
 5283               		.cfi_def_cfa_offset 3
 5284               		.cfi_offset 4, -2
 5285 21ec 5F92      		push r5
 5286               	.LCFI101:
 5287               		.cfi_def_cfa_offset 4
 5288               		.cfi_offset 5, -3
 5289 21ee 6F92      		push r6
 5290               	.LCFI102:
 5291               		.cfi_def_cfa_offset 5
 5292               		.cfi_offset 6, -4
 5293 21f0 7F92      		push r7
 5294               	.LCFI103:
 5295               		.cfi_def_cfa_offset 6
 5296               		.cfi_offset 7, -5
 5297 21f2 8F92      		push r8
 5298               	.LCFI104:
 5299               		.cfi_def_cfa_offset 7
 5300               		.cfi_offset 8, -6
 5301 21f4 9F92      		push r9
 5302               	.LCFI105:
 5303               		.cfi_def_cfa_offset 8
 5304               		.cfi_offset 9, -7
 5305 21f6 AF92      		push r10
 5306               	.LCFI106:
 5307               		.cfi_def_cfa_offset 9
 5308               		.cfi_offset 10, -8
 5309 21f8 BF92      		push r11
 5310               	.LCFI107:
 5311               		.cfi_def_cfa_offset 10
 5312               		.cfi_offset 11, -9
 5313 21fa CF92      		push r12
 5314               	.LCFI108:
 5315               		.cfi_def_cfa_offset 11
 5316               		.cfi_offset 12, -10
 5317 21fc DF92      		push r13
 5318               	.LCFI109:
 5319               		.cfi_def_cfa_offset 12
 5320               		.cfi_offset 13, -11
 5321 21fe EF92      		push r14
 5322               	.LCFI110:
 5323               		.cfi_def_cfa_offset 13
 5324               		.cfi_offset 14, -12
 5325 2200 FF92      		push r15
 5326               	.LCFI111:
 5327               		.cfi_def_cfa_offset 14
 5328               		.cfi_offset 15, -13
 5329 2202 CF93      		push r28
 5330               	.LCFI112:
 5331               		.cfi_def_cfa_offset 15
 5332               		.cfi_offset 28, -14
 5333 2204 DF93      		push r29
 5334               	.LCFI113:
 5335               		.cfi_def_cfa_offset 16
 5336               		.cfi_offset 29, -15
 5337 2206 CDB7      		in r28,__SP_L__
 5338 2208 DEB7      		in r29,__SP_H__
 5339               	.LCFI114:
 5340               		.cfi_def_cfa_register 28
 5341 220a A197      		sbiw r28,33
 5342               	.LCFI115:
 5343               		.cfi_def_cfa_offset 49
 5344 220c 0FB6      		in __tmp_reg__,__SREG__
 5345 220e F894      		cli
 5346 2210 DEBF      		out __SP_H__,r29
 5347 2212 0FBE      		out __SREG__,__tmp_reg__
 5348 2214 CDBF      		out __SP_L__,r28
 5349               	/* prologue: function */
 5350               	/* frame size = 33 */
 5351               	/* stack size = 47 */
 5352               	.L__stack_usage = 47
 5353 2216 9D8B      		std Y+21,r25
 5354 2218 8C8B      		std Y+20,r24
 459:lp_solve_5.5/lp_report.c ****   int  i, j;
 460:lp_solve_5.5/lp_report.c ****   REAL hold;
 461:lp_solve_5.5/lp_report.c ****   REAL *duals, *dualsfrom, *dualstill, *objfrom, *objtill;
 462:lp_solve_5.5/lp_report.c ****   MYBOOL ret;
 463:lp_solve_5.5/lp_report.c **** 
 464:lp_solve_5.5/lp_report.c ****   ret = get_ptr_sensitivity_obj(lp, &objfrom, &objtill);
 5355               		.loc 2 464 0
 5356 221a AE01      		movw r20,r28
 5357 221c 4E5E      		subi r20,-18
 5358 221e 5F4F      		sbci r21,-1
 5359 2220 9E01      		movw r18,r28
 5360 2222 205F      		subi r18,-16
 5361 2224 3F4F      		sbci r19,-1
 5362 2226 8C89      		ldd r24,Y+20
 5363 2228 9D89      		ldd r25,Y+21
 5364 222a B901      		movw r22,r18
 5365 222c 0E94 0000 		call get_ptr_sensitivity_obj
 5366 2230 8D83      		std Y+5,r24
 465:lp_solve_5.5/lp_report.c ****   report(lp, NORMAL, " \n");
 5367               		.loc 2 465 0
 5368 2232 80E0      		ldi r24,lo8(.LC47)
 5369 2234 90E0      		ldi r25,hi8(.LC47)
 5370 2236 892F      		mov r24,r25
 5371 2238 8F93      		push r24
 5372 223a 80E0      		ldi r24,lo8(.LC47)
 5373 223c 90E0      		ldi r25,hi8(.LC47)
 5374 223e 8F93      		push r24
 5375 2240 1F92      		push __zero_reg__
 5376 2242 84E0      		ldi r24,lo8(4)
 5377 2244 8F93      		push r24
 5378 2246 8D89      		ldd r24,Y+21
 5379 2248 8F93      		push r24
 5380 224a 8C89      		ldd r24,Y+20
 5381 224c 8F93      		push r24
 5382 224e 0E94 0000 		call report
 5383 2252 0F90      		pop __tmp_reg__
 5384 2254 0F90      		pop __tmp_reg__
 5385 2256 0F90      		pop __tmp_reg__
 5386 2258 0F90      		pop __tmp_reg__
 5387 225a 0F90      		pop __tmp_reg__
 5388 225c 0F90      		pop __tmp_reg__
 466:lp_solve_5.5/lp_report.c ****   report(lp, NORMAL, "Primal objective:\n");
 5389               		.loc 2 466 0
 5390 225e 80E0      		ldi r24,lo8(.LC48)
 5391 2260 90E0      		ldi r25,hi8(.LC48)
 5392 2262 892F      		mov r24,r25
 5393 2264 8F93      		push r24
 5394 2266 80E0      		ldi r24,lo8(.LC48)
 5395 2268 90E0      		ldi r25,hi8(.LC48)
 5396 226a 8F93      		push r24
 5397 226c 1F92      		push __zero_reg__
 5398 226e 84E0      		ldi r24,lo8(4)
 5399 2270 8F93      		push r24
 5400 2272 8D89      		ldd r24,Y+21
 5401 2274 8F93      		push r24
 5402 2276 8C89      		ldd r24,Y+20
 5403 2278 8F93      		push r24
 5404 227a 0E94 0000 		call report
 5405 227e 0F90      		pop __tmp_reg__
 5406 2280 0F90      		pop __tmp_reg__
 5407 2282 0F90      		pop __tmp_reg__
 5408 2284 0F90      		pop __tmp_reg__
 5409 2286 0F90      		pop __tmp_reg__
 5410 2288 0F90      		pop __tmp_reg__
 467:lp_solve_5.5/lp_report.c ****   report(lp, NORMAL, " \n");
 5411               		.loc 2 467 0
 5412 228a 80E0      		ldi r24,lo8(.LC47)
 5413 228c 90E0      		ldi r25,hi8(.LC47)
 5414 228e 892F      		mov r24,r25
 5415 2290 8F93      		push r24
 5416 2292 80E0      		ldi r24,lo8(.LC47)
 5417 2294 90E0      		ldi r25,hi8(.LC47)
 5418 2296 8F93      		push r24
 5419 2298 1F92      		push __zero_reg__
 5420 229a 84E0      		ldi r24,lo8(4)
 5421 229c 8F93      		push r24
 5422 229e 8D89      		ldd r24,Y+21
 5423 22a0 8F93      		push r24
 5424 22a2 8C89      		ldd r24,Y+20
 5425 22a4 8F93      		push r24
 5426 22a6 0E94 0000 		call report
 5427 22aa 0F90      		pop __tmp_reg__
 5428 22ac 0F90      		pop __tmp_reg__
 5429 22ae 0F90      		pop __tmp_reg__
 5430 22b0 0F90      		pop __tmp_reg__
 5431 22b2 0F90      		pop __tmp_reg__
 5432 22b4 0F90      		pop __tmp_reg__
 468:lp_solve_5.5/lp_report.c ****   report(lp, NORMAL, "  Column name                      Value   Objective         Min         Max\
 5433               		.loc 2 468 0
 5434 22b6 80E0      		ldi r24,lo8(.LC49)
 5435 22b8 90E0      		ldi r25,hi8(.LC49)
 5436 22ba 892F      		mov r24,r25
 5437 22bc 8F93      		push r24
 5438 22be 80E0      		ldi r24,lo8(.LC49)
 5439 22c0 90E0      		ldi r25,hi8(.LC49)
 5440 22c2 8F93      		push r24
 5441 22c4 1F92      		push __zero_reg__
 5442 22c6 84E0      		ldi r24,lo8(4)
 5443 22c8 8F93      		push r24
 5444 22ca 8D89      		ldd r24,Y+21
 5445 22cc 8F93      		push r24
 5446 22ce 8C89      		ldd r24,Y+20
 5447 22d0 8F93      		push r24
 5448 22d2 0E94 0000 		call report
 5449 22d6 0F90      		pop __tmp_reg__
 5450 22d8 0F90      		pop __tmp_reg__
 5451 22da 0F90      		pop __tmp_reg__
 5452 22dc 0F90      		pop __tmp_reg__
 5453 22de 0F90      		pop __tmp_reg__
 5454 22e0 0F90      		pop __tmp_reg__
 469:lp_solve_5.5/lp_report.c ****   report(lp, NORMAL, "  --------------------------------------------------------------------------\
 5455               		.loc 2 469 0
 5456 22e2 80E0      		ldi r24,lo8(.LC50)
 5457 22e4 90E0      		ldi r25,hi8(.LC50)
 5458 22e6 892F      		mov r24,r25
 5459 22e8 8F93      		push r24
 5460 22ea 80E0      		ldi r24,lo8(.LC50)
 5461 22ec 90E0      		ldi r25,hi8(.LC50)
 5462 22ee 8F93      		push r24
 5463 22f0 1F92      		push __zero_reg__
 5464 22f2 84E0      		ldi r24,lo8(4)
 5465 22f4 8F93      		push r24
 5466 22f6 8D89      		ldd r24,Y+21
 5467 22f8 8F93      		push r24
 5468 22fa 8C89      		ldd r24,Y+20
 5469 22fc 8F93      		push r24
 5470 22fe 0E94 0000 		call report
 5471 2302 0F90      		pop __tmp_reg__
 5472 2304 0F90      		pop __tmp_reg__
 5473 2306 0F90      		pop __tmp_reg__
 5474 2308 0F90      		pop __tmp_reg__
 5475 230a 0F90      		pop __tmp_reg__
 5476 230c 0F90      		pop __tmp_reg__
 470:lp_solve_5.5/lp_report.c ****   for(j = 1; j <= lp->columns; j++) {
 5477               		.loc 2 470 0
 5478 230e 81E0      		ldi r24,lo8(1)
 5479 2310 90E0      		ldi r25,0
 5480 2312 9C83      		std Y+4,r25
 5481 2314 8B83      		std Y+3,r24
 5482 2316 00C0      		rjmp .L149
 5483               	.L154:
 471:lp_solve_5.5/lp_report.c ****     hold = get_mat(lp,0,j);
 5484               		.loc 2 471 0
 5485 2318 2B81      		ldd r18,Y+3
 5486 231a 3C81      		ldd r19,Y+4
 5487 231c 8C89      		ldd r24,Y+20
 5488 231e 9D89      		ldd r25,Y+21
 5489 2320 A901      		movw r20,r18
 5490 2322 60E0      		ldi r22,0
 5491 2324 70E0      		ldi r23,0
 5492 2326 0E94 0000 		call get_mat
 5493 232a DC01      		movw r26,r24
 5494 232c CB01      		movw r24,r22
 5495 232e 8E83      		std Y+6,r24
 5496 2330 9F83      		std Y+7,r25
 5497 2332 A887      		std Y+8,r26
 5498 2334 B987      		std Y+9,r27
 472:lp_solve_5.5/lp_report.c ****     report(lp, NORMAL, "  %-25s " MPSVALUEMASK MPSVALUEMASK MPSVALUEMASK MPSVALUEMASK "\n",
 5499               		.loc 2 472 0
 5500 2336 8C89      		ldd r24,Y+20
 5501 2338 9D89      		ldd r25,Y+21
 5502 233a 865E      		subi r24,-26
 5503 233c 9C4F      		sbci r25,-4
 5504 233e DC01      		movw r26,r24
 5505 2340 2D91      		ld r18,X+
 5506 2342 3D91      		ld r19,X+
 5507 2344 4D91      		ld r20,X+
 5508 2346 5C91      		ld r21,X
 5509 2348 8D81      		ldd r24,Y+5
 5510 234a 8823      		tst r24
 5511 234c 01F0      		breq .L150
 473:lp_solve_5.5/lp_report.c ****            get_col_name(lp,j),
 474:lp_solve_5.5/lp_report.c ****            my_precision(hold,lp->epsprimal),
 475:lp_solve_5.5/lp_report.c ****            my_precision(hold*lp->best_solution[lp->rows+j],lp->epsprimal),
 476:lp_solve_5.5/lp_report.c ****            my_precision((ret) ? objfrom[j - 1] : 0.0,lp->epsprimal),
 477:lp_solve_5.5/lp_report.c ****            my_precision((ret) ? objtill[j - 1] : 0.0,lp->epsprimal));
 5512               		.loc 2 477 0 discriminator 1
 5513 234e 6A89      		ldd r22,Y+18
 5514 2350 7B89      		ldd r23,Y+19
 5515 2352 8B81      		ldd r24,Y+3
 5516 2354 9C81      		ldd r25,Y+4
 5517 2356 8150      		subi r24,1
 5518 2358 904C      		sbci r25,-64
 5519 235a 880F      		lsl r24
 5520 235c 991F      		rol r25
 5521 235e 880F      		lsl r24
 5522 2360 991F      		rol r25
 5523 2362 860F      		add r24,r22
 5524 2364 971F      		adc r25,r23
 472:lp_solve_5.5/lp_report.c ****     report(lp, NORMAL, "  %-25s " MPSVALUEMASK MPSVALUEMASK MPSVALUEMASK MPSVALUEMASK "\n",
 5525               		.loc 2 472 0 discriminator 1
 5526 2366 FC01      		movw r30,r24
 5527 2368 8081      		ld r24,Z
 5528 236a 9181      		ldd r25,Z+1
 5529 236c A281      		ldd r26,Z+2
 5530 236e B381      		ldd r27,Z+3
 5531 2370 00C0      		rjmp .L151
 5532               	.L150:
 472:lp_solve_5.5/lp_report.c ****     report(lp, NORMAL, "  %-25s " MPSVALUEMASK MPSVALUEMASK MPSVALUEMASK MPSVALUEMASK "\n",
 5533               		.loc 2 472 0 is_stmt 0 discriminator 2
 5534 2372 80E0      		ldi r24,0
 5535 2374 90E0      		ldi r25,0
 5536 2376 DC01      		movw r26,r24
 5537               	.L151:
 472:lp_solve_5.5/lp_report.c ****     report(lp, NORMAL, "  %-25s " MPSVALUEMASK MPSVALUEMASK MPSVALUEMASK MPSVALUEMASK "\n",
 5538               		.loc 2 472 0 discriminator 4
 5539 2378 BC01      		movw r22,r24
 5540 237a CD01      		movw r24,r26
 5541 237c 0E94 0000 		call restoreINT
 5542 2380 6E8B      		std Y+22,r22
 5543 2382 7F8B      		std Y+23,r23
 5544 2384 888F      		std Y+24,r24
 5545 2386 998F      		std Y+25,r25
 5546 2388 8C89      		ldd r24,Y+20
 5547 238a 9D89      		ldd r25,Y+21
 5548 238c 865E      		subi r24,-26
 5549 238e 9C4F      		sbci r25,-4
 5550 2390 DC01      		movw r26,r24
 5551 2392 2D91      		ld r18,X+
 5552 2394 3D91      		ld r19,X+
 5553 2396 4D91      		ld r20,X+
 5554 2398 5C91      		ld r21,X
 5555 239a 8D81      		ldd r24,Y+5
 5556 239c 8823      		tst r24
 5557 239e 01F0      		breq .L152
 476:lp_solve_5.5/lp_report.c ****            my_precision((ret) ? objtill[j - 1] : 0.0,lp->epsprimal));
 5558               		.loc 2 476 0 is_stmt 1 discriminator 5
 5559 23a0 6889      		ldd r22,Y+16
 5560 23a2 7989      		ldd r23,Y+17
 5561 23a4 8B81      		ldd r24,Y+3
 5562 23a6 9C81      		ldd r25,Y+4
 5563 23a8 8150      		subi r24,1
 5564 23aa 904C      		sbci r25,-64
 5565 23ac 880F      		lsl r24
 5566 23ae 991F      		rol r25
 5567 23b0 880F      		lsl r24
 5568 23b2 991F      		rol r25
 5569 23b4 860F      		add r24,r22
 5570 23b6 971F      		adc r25,r23
 472:lp_solve_5.5/lp_report.c ****     report(lp, NORMAL, "  %-25s " MPSVALUEMASK MPSVALUEMASK MPSVALUEMASK MPSVALUEMASK "\n",
 5571               		.loc 2 472 0 discriminator 5
 5572 23b8 FC01      		movw r30,r24
 5573 23ba 8081      		ld r24,Z
 5574 23bc 9181      		ldd r25,Z+1
 5575 23be A281      		ldd r26,Z+2
 5576 23c0 B381      		ldd r27,Z+3
 5577 23c2 00C0      		rjmp .L153
 5578               	.L152:
 472:lp_solve_5.5/lp_report.c ****     report(lp, NORMAL, "  %-25s " MPSVALUEMASK MPSVALUEMASK MPSVALUEMASK MPSVALUEMASK "\n",
 5579               		.loc 2 472 0 is_stmt 0 discriminator 6
 5580 23c4 80E0      		ldi r24,0
 5581 23c6 90E0      		ldi r25,0
 5582 23c8 DC01      		movw r26,r24
 5583               	.L153:
 472:lp_solve_5.5/lp_report.c ****     report(lp, NORMAL, "  %-25s " MPSVALUEMASK MPSVALUEMASK MPSVALUEMASK MPSVALUEMASK "\n",
 5584               		.loc 2 472 0 discriminator 8
 5585 23ca BC01      		movw r22,r24
 5586 23cc CD01      		movw r24,r26
 5587 23ce 0E94 0000 		call restoreINT
 5588 23d2 2B01      		movw r4,r22
 5589 23d4 3C01      		movw r6,r24
 5590 23d6 8C89      		ldd r24,Y+20
 5591 23d8 9D89      		ldd r25,Y+21
 5592 23da 865E      		subi r24,-26
 5593 23dc 9C4F      		sbci r25,-4
 5594 23de DC01      		movw r26,r24
 5595 23e0 CD90      		ld r12,X+
 5596 23e2 DD90      		ld r13,X+
 5597 23e4 ED90      		ld r14,X+
 5598 23e6 FC90      		ld r15,X
 475:lp_solve_5.5/lp_report.c ****            my_precision((ret) ? objfrom[j - 1] : 0.0,lp->epsprimal),
 5599               		.loc 2 475 0 is_stmt 1 discriminator 8
 5600 23e8 8C89      		ldd r24,Y+20
 5601 23ea 9D89      		ldd r25,Y+21
 5602 23ec 8C5E      		subi r24,-20
 5603 23ee 9D4F      		sbci r25,-3
 5604 23f0 FC01      		movw r30,r24
 5605 23f2 2081      		ld r18,Z
 5606 23f4 3181      		ldd r19,Z+1
 5607 23f6 8C89      		ldd r24,Y+20
 5608 23f8 9D89      		ldd r25,Y+21
 5609 23fa 8651      		subi r24,22
 5610 23fc 9E4F      		sbci r25,-2
 5611 23fe DC01      		movw r26,r24
 5612 2400 4D91      		ld r20,X+
 5613 2402 5C91      		ld r21,X
 5614 2404 8B81      		ldd r24,Y+3
 5615 2406 9C81      		ldd r25,Y+4
 5616 2408 840F      		add r24,r20
 5617 240a 951F      		adc r25,r21
 5618 240c 880F      		lsl r24
 5619 240e 991F      		rol r25
 5620 2410 880F      		lsl r24
 5621 2412 991F      		rol r25
 5622 2414 820F      		add r24,r18
 5623 2416 931F      		adc r25,r19
 5624 2418 FC01      		movw r30,r24
 5625 241a 8081      		ld r24,Z
 5626 241c 9181      		ldd r25,Z+1
 5627 241e A281      		ldd r26,Z+2
 5628 2420 B381      		ldd r27,Z+3
 472:lp_solve_5.5/lp_report.c ****            get_col_name(lp,j),
 5629               		.loc 2 472 0 discriminator 8
 5630 2422 2E81      		ldd r18,Y+6
 5631 2424 3F81      		ldd r19,Y+7
 5632 2426 4885      		ldd r20,Y+8
 5633 2428 5985      		ldd r21,Y+9
 5634 242a BC01      		movw r22,r24
 5635 242c CD01      		movw r24,r26
 5636 242e 0E94 0000 		call __mulsf3
 5637 2432 DC01      		movw r26,r24
 5638 2434 CB01      		movw r24,r22
 5639 2436 A701      		movw r20,r14
 5640 2438 9601      		movw r18,r12
 5641 243a BC01      		movw r22,r24
 5642 243c CD01      		movw r24,r26
 5643 243e 0E94 0000 		call restoreINT
 5644 2442 4B01      		movw r8,r22
 5645 2444 5C01      		movw r10,r24
 5646 2446 8C89      		ldd r24,Y+20
 5647 2448 9D89      		ldd r25,Y+21
 5648 244a 865E      		subi r24,-26
 5649 244c 9C4F      		sbci r25,-4
 5650 244e DC01      		movw r26,r24
 5651 2450 2D91      		ld r18,X+
 5652 2452 3D91      		ld r19,X+
 5653 2454 4D91      		ld r20,X+
 5654 2456 5C91      		ld r21,X
 5655 2458 8E81      		ldd r24,Y+6
 5656 245a 9F81      		ldd r25,Y+7
 5657 245c A885      		ldd r26,Y+8
 5658 245e B985      		ldd r27,Y+9
 5659 2460 BC01      		movw r22,r24
 5660 2462 CD01      		movw r24,r26
 5661 2464 0E94 0000 		call restoreINT
 5662 2468 6B01      		movw r12,r22
 5663 246a 7C01      		movw r14,r24
 5664 246c 2B81      		ldd r18,Y+3
 5665 246e 3C81      		ldd r19,Y+4
 5666 2470 8C89      		ldd r24,Y+20
 5667 2472 9D89      		ldd r25,Y+21
 5668 2474 B901      		movw r22,r18
 5669 2476 0E94 0000 		call get_col_name
 5670 247a 298D      		ldd r18,Y+25
 5671 247c 2F93      		push r18
 5672 247e 288D      		ldd r18,Y+24
 5673 2480 2F93      		push r18
 5674 2482 2F89      		ldd r18,Y+23
 5675 2484 2F93      		push r18
 5676 2486 2E89      		ldd r18,Y+22
 5677 2488 2F93      		push r18
 5678 248a 272D      		mov r18,r7
 5679 248c 2F93      		push r18
 5680 248e 262D      		mov r18,r6
 5681 2490 2F93      		push r18
 5682 2492 252D      		mov r18,r5
 5683 2494 2F93      		push r18
 5684 2496 242D      		mov r18,r4
 5685 2498 2F93      		push r18
 5686 249a 2B2D      		mov r18,r11
 5687 249c 2F93      		push r18
 5688 249e 2A2D      		mov r18,r10
 5689 24a0 2F93      		push r18
 5690 24a2 292D      		mov r18,r9
 5691 24a4 2F93      		push r18
 5692 24a6 282D      		mov r18,r8
 5693 24a8 2F93      		push r18
 5694 24aa 2F2D      		mov r18,r15
 5695 24ac 2F93      		push r18
 5696 24ae 2E2D      		mov r18,r14
 5697 24b0 2F93      		push r18
 5698 24b2 2D2D      		mov r18,r13
 5699 24b4 2F93      		push r18
 5700 24b6 2C2D      		mov r18,r12
 5701 24b8 2F93      		push r18
 5702 24ba 292F      		mov r18,r25
 5703 24bc 2F93      		push r18
 5704 24be 8F93      		push r24
 5705 24c0 80E0      		ldi r24,lo8(.LC51)
 5706 24c2 90E0      		ldi r25,hi8(.LC51)
 5707 24c4 892F      		mov r24,r25
 5708 24c6 8F93      		push r24
 5709 24c8 80E0      		ldi r24,lo8(.LC51)
 5710 24ca 90E0      		ldi r25,hi8(.LC51)
 5711 24cc 8F93      		push r24
 5712 24ce 1F92      		push __zero_reg__
 5713 24d0 84E0      		ldi r24,lo8(4)
 5714 24d2 8F93      		push r24
 5715 24d4 8D89      		ldd r24,Y+21
 5716 24d6 8F93      		push r24
 5717 24d8 8C89      		ldd r24,Y+20
 5718 24da 8F93      		push r24
 5719 24dc 0E94 0000 		call report
 5720 24e0 EDB7      		in r30,__SP_L__
 5721 24e2 FEB7      		in r31,__SP_H__
 5722 24e4 7896      		adiw r30,24
 5723 24e6 0FB6      		in __tmp_reg__,__SREG__
 5724 24e8 F894      		cli
 5725 24ea DEBF      		out __SP_H__,r29
 5726 24ec 0FBE      		out __SREG__,__tmp_reg__
 5727 24ee CDBF      		out __SP_L__,r28
 470:lp_solve_5.5/lp_report.c ****     hold = get_mat(lp,0,j);
 5728               		.loc 2 470 0 discriminator 8
 5729 24f0 8B81      		ldd r24,Y+3
 5730 24f2 9C81      		ldd r25,Y+4
 5731 24f4 0196      		adiw r24,1
 5732 24f6 9C83      		std Y+4,r25
 5733 24f8 8B83      		std Y+3,r24
 5734               	.L149:
 470:lp_solve_5.5/lp_report.c ****     hold = get_mat(lp,0,j);
 5735               		.loc 2 470 0 is_stmt 0 discriminator 2
 5736 24fa 8C89      		ldd r24,Y+20
 5737 24fc 9D89      		ldd r25,Y+21
 5738 24fe 8451      		subi r24,20
 5739 2500 9E4F      		sbci r25,-2
 5740 2502 DC01      		movw r26,r24
 5741 2504 2D91      		ld r18,X+
 5742 2506 3C91      		ld r19,X
 5743 2508 8B81      		ldd r24,Y+3
 5744 250a 9C81      		ldd r25,Y+4
 5745 250c 2817      		cp r18,r24
 5746 250e 3907      		cpc r19,r25
 5747 2510 04F0      		brlt .+2
 5748 2512 00C0      		rjmp .L154
 478:lp_solve_5.5/lp_report.c ****   }
 479:lp_solve_5.5/lp_report.c ****   report(lp, NORMAL, " \n");
 5749               		.loc 2 479 0 is_stmt 1
 5750 2514 80E0      		ldi r24,lo8(.LC47)
 5751 2516 90E0      		ldi r25,hi8(.LC47)
 5752 2518 892F      		mov r24,r25
 5753 251a 8F93      		push r24
 5754 251c 80E0      		ldi r24,lo8(.LC47)
 5755 251e 90E0      		ldi r25,hi8(.LC47)
 5756 2520 8F93      		push r24
 5757 2522 1F92      		push __zero_reg__
 5758 2524 84E0      		ldi r24,lo8(4)
 5759 2526 8F93      		push r24
 5760 2528 8D89      		ldd r24,Y+21
 5761 252a 8F93      		push r24
 5762 252c 8C89      		ldd r24,Y+20
 5763 252e 8F93      		push r24
 5764 2530 0E94 0000 		call report
 5765 2534 0F90      		pop __tmp_reg__
 5766 2536 0F90      		pop __tmp_reg__
 5767 2538 0F90      		pop __tmp_reg__
 5768 253a 0F90      		pop __tmp_reg__
 5769 253c 0F90      		pop __tmp_reg__
 5770 253e 0F90      		pop __tmp_reg__
 480:lp_solve_5.5/lp_report.c **** 
 481:lp_solve_5.5/lp_report.c ****   ret = get_ptr_sensitivity_rhs(lp, &duals, &dualsfrom, &dualstill);
 5771               		.loc 2 481 0
 5772 2540 9E01      		movw r18,r28
 5773 2542 225F      		subi r18,-14
 5774 2544 3F4F      		sbci r19,-1
 5775 2546 AE01      		movw r20,r28
 5776 2548 445F      		subi r20,-12
 5777 254a 5F4F      		sbci r21,-1
 5778 254c BE01      		movw r22,r28
 5779 254e 665F      		subi r22,-10
 5780 2550 7F4F      		sbci r23,-1
 5781 2552 8C89      		ldd r24,Y+20
 5782 2554 9D89      		ldd r25,Y+21
 5783 2556 0E94 0000 		call get_ptr_sensitivity_rhs
 5784 255a 8D83      		std Y+5,r24
 482:lp_solve_5.5/lp_report.c ****   report(lp, NORMAL, "Primal variables:\n");
 5785               		.loc 2 482 0
 5786 255c 80E0      		ldi r24,lo8(.LC52)
 5787 255e 90E0      		ldi r25,hi8(.LC52)
 5788 2560 892F      		mov r24,r25
 5789 2562 8F93      		push r24
 5790 2564 80E0      		ldi r24,lo8(.LC52)
 5791 2566 90E0      		ldi r25,hi8(.LC52)
 5792 2568 8F93      		push r24
 5793 256a 1F92      		push __zero_reg__
 5794 256c 84E0      		ldi r24,lo8(4)
 5795 256e 8F93      		push r24
 5796 2570 8D89      		ldd r24,Y+21
 5797 2572 8F93      		push r24
 5798 2574 8C89      		ldd r24,Y+20
 5799 2576 8F93      		push r24
 5800 2578 0E94 0000 		call report
 5801 257c 0F90      		pop __tmp_reg__
 5802 257e 0F90      		pop __tmp_reg__
 5803 2580 0F90      		pop __tmp_reg__
 5804 2582 0F90      		pop __tmp_reg__
 5805 2584 0F90      		pop __tmp_reg__
 5806 2586 0F90      		pop __tmp_reg__
 483:lp_solve_5.5/lp_report.c ****   report(lp, NORMAL, " \n");
 5807               		.loc 2 483 0
 5808 2588 80E0      		ldi r24,lo8(.LC47)
 5809 258a 90E0      		ldi r25,hi8(.LC47)
 5810 258c 892F      		mov r24,r25
 5811 258e 8F93      		push r24
 5812 2590 80E0      		ldi r24,lo8(.LC47)
 5813 2592 90E0      		ldi r25,hi8(.LC47)
 5814 2594 8F93      		push r24
 5815 2596 1F92      		push __zero_reg__
 5816 2598 84E0      		ldi r24,lo8(4)
 5817 259a 8F93      		push r24
 5818 259c 8D89      		ldd r24,Y+21
 5819 259e 8F93      		push r24
 5820 25a0 8C89      		ldd r24,Y+20
 5821 25a2 8F93      		push r24
 5822 25a4 0E94 0000 		call report
 5823 25a8 0F90      		pop __tmp_reg__
 5824 25aa 0F90      		pop __tmp_reg__
 5825 25ac 0F90      		pop __tmp_reg__
 5826 25ae 0F90      		pop __tmp_reg__
 5827 25b0 0F90      		pop __tmp_reg__
 5828 25b2 0F90      		pop __tmp_reg__
 484:lp_solve_5.5/lp_report.c ****   report(lp, NORMAL, "  Column name                      Value       Slack         Min         Max\
 5829               		.loc 2 484 0
 5830 25b4 80E0      		ldi r24,lo8(.LC53)
 5831 25b6 90E0      		ldi r25,hi8(.LC53)
 5832 25b8 892F      		mov r24,r25
 5833 25ba 8F93      		push r24
 5834 25bc 80E0      		ldi r24,lo8(.LC53)
 5835 25be 90E0      		ldi r25,hi8(.LC53)
 5836 25c0 8F93      		push r24
 5837 25c2 1F92      		push __zero_reg__
 5838 25c4 84E0      		ldi r24,lo8(4)
 5839 25c6 8F93      		push r24
 5840 25c8 8D89      		ldd r24,Y+21
 5841 25ca 8F93      		push r24
 5842 25cc 8C89      		ldd r24,Y+20
 5843 25ce 8F93      		push r24
 5844 25d0 0E94 0000 		call report
 5845 25d4 0F90      		pop __tmp_reg__
 5846 25d6 0F90      		pop __tmp_reg__
 5847 25d8 0F90      		pop __tmp_reg__
 5848 25da 0F90      		pop __tmp_reg__
 5849 25dc 0F90      		pop __tmp_reg__
 5850 25de 0F90      		pop __tmp_reg__
 485:lp_solve_5.5/lp_report.c ****   report(lp, NORMAL, "  --------------------------------------------------------------------------\
 5851               		.loc 2 485 0
 5852 25e0 80E0      		ldi r24,lo8(.LC50)
 5853 25e2 90E0      		ldi r25,hi8(.LC50)
 5854 25e4 892F      		mov r24,r25
 5855 25e6 8F93      		push r24
 5856 25e8 80E0      		ldi r24,lo8(.LC50)
 5857 25ea 90E0      		ldi r25,hi8(.LC50)
 5858 25ec 8F93      		push r24
 5859 25ee 1F92      		push __zero_reg__
 5860 25f0 84E0      		ldi r24,lo8(4)
 5861 25f2 8F93      		push r24
 5862 25f4 8D89      		ldd r24,Y+21
 5863 25f6 8F93      		push r24
 5864 25f8 8C89      		ldd r24,Y+20
 5865 25fa 8F93      		push r24
 5866 25fc 0E94 0000 		call report
 5867 2600 0F90      		pop __tmp_reg__
 5868 2602 0F90      		pop __tmp_reg__
 5869 2604 0F90      		pop __tmp_reg__
 5870 2606 0F90      		pop __tmp_reg__
 5871 2608 0F90      		pop __tmp_reg__
 5872 260a 0F90      		pop __tmp_reg__
 486:lp_solve_5.5/lp_report.c ****   for(j = 1; j <= lp->columns; j++)
 5873               		.loc 2 486 0
 5874 260c 81E0      		ldi r24,lo8(1)
 5875 260e 90E0      		ldi r25,0
 5876 2610 9C83      		std Y+4,r25
 5877 2612 8B83      		std Y+3,r24
 5878 2614 00C0      		rjmp .L155
 5879               	.L170:
 487:lp_solve_5.5/lp_report.c ****     report(lp, NORMAL, "  %-25s " MPSVALUEMASK MPSVALUEMASK MPSVALUEMASK MPSVALUEMASK "\n",
 5880               		.loc 2 487 0
 5881 2616 8C89      		ldd r24,Y+20
 5882 2618 9D89      		ldd r25,Y+21
 5883 261a 865E      		subi r24,-26
 5884 261c 9C4F      		sbci r25,-4
 5885 261e FC01      		movw r30,r24
 5886 2620 2081      		ld r18,Z
 5887 2622 3181      		ldd r19,Z+1
 5888 2624 4281      		ldd r20,Z+2
 5889 2626 5381      		ldd r21,Z+3
 5890 2628 8D81      		ldd r24,Y+5
 5891 262a 8823      		tst r24
 5892 262c 01F0      		breq .L156
 488:lp_solve_5.5/lp_report.c ****            get_col_name(lp,j),
 489:lp_solve_5.5/lp_report.c ****            my_precision(lp->best_solution[lp->rows+j],lp->epsprimal),
 490:lp_solve_5.5/lp_report.c ****            my_precision(my_inflimit(lp, (ret) ? duals[lp->rows+j-1] : 0.0),lp->epsprimal),
 491:lp_solve_5.5/lp_report.c ****            my_precision((ret) ? dualsfrom[lp->rows+j-1] : 0.0,lp->epsprimal),
 492:lp_solve_5.5/lp_report.c ****            my_precision((ret) ? dualstill[lp->rows+j-1] : 0.0,lp->epsprimal));
 5893               		.loc 2 492 0 discriminator 1
 5894 262e 6E85      		ldd r22,Y+14
 5895 2630 7F85      		ldd r23,Y+15
 5896 2632 8C89      		ldd r24,Y+20
 5897 2634 9D89      		ldd r25,Y+21
 5898 2636 8651      		subi r24,22
 5899 2638 9E4F      		sbci r25,-2
 5900 263a DC01      		movw r26,r24
 5901 263c ED91      		ld r30,X+
 5902 263e FC91      		ld r31,X
 5903 2640 8B81      		ldd r24,Y+3
 5904 2642 9C81      		ldd r25,Y+4
 5905 2644 8E0F      		add r24,r30
 5906 2646 9F1F      		adc r25,r31
 5907 2648 8150      		subi r24,1
 5908 264a 904C      		sbci r25,-64
 5909 264c 880F      		lsl r24
 5910 264e 991F      		rol r25
 5911 2650 880F      		lsl r24
 5912 2652 991F      		rol r25
 5913 2654 860F      		add r24,r22
 5914 2656 971F      		adc r25,r23
 487:lp_solve_5.5/lp_report.c ****     report(lp, NORMAL, "  %-25s " MPSVALUEMASK MPSVALUEMASK MPSVALUEMASK MPSVALUEMASK "\n",
 5915               		.loc 2 487 0 discriminator 1
 5916 2658 FC01      		movw r30,r24
 5917 265a 8081      		ld r24,Z
 5918 265c 9181      		ldd r25,Z+1
 5919 265e A281      		ldd r26,Z+2
 5920 2660 B381      		ldd r27,Z+3
 5921 2662 00C0      		rjmp .L157
 5922               	.L156:
 487:lp_solve_5.5/lp_report.c ****     report(lp, NORMAL, "  %-25s " MPSVALUEMASK MPSVALUEMASK MPSVALUEMASK MPSVALUEMASK "\n",
 5923               		.loc 2 487 0 is_stmt 0 discriminator 2
 5924 2664 80E0      		ldi r24,0
 5925 2666 90E0      		ldi r25,0
 5926 2668 DC01      		movw r26,r24
 5927               	.L157:
 487:lp_solve_5.5/lp_report.c ****     report(lp, NORMAL, "  %-25s " MPSVALUEMASK MPSVALUEMASK MPSVALUEMASK MPSVALUEMASK "\n",
 5928               		.loc 2 487 0 discriminator 4
 5929 266a BC01      		movw r22,r24
 5930 266c CD01      		movw r24,r26
 5931 266e 0E94 0000 		call restoreINT
 5932 2672 6A8F      		std Y+26,r22
 5933 2674 7B8F      		std Y+27,r23
 5934 2676 8C8F      		std Y+28,r24
 5935 2678 9D8F      		std Y+29,r25
 5936 267a 8C89      		ldd r24,Y+20
 5937 267c 9D89      		ldd r25,Y+21
 5938 267e 865E      		subi r24,-26
 5939 2680 9C4F      		sbci r25,-4
 5940 2682 DC01      		movw r26,r24
 5941 2684 2D91      		ld r18,X+
 5942 2686 3D91      		ld r19,X+
 5943 2688 4D91      		ld r20,X+
 5944 268a 5C91      		ld r21,X
 5945 268c 8D81      		ldd r24,Y+5
 5946 268e 8823      		tst r24
 5947 2690 01F0      		breq .L158
 491:lp_solve_5.5/lp_report.c ****            my_precision((ret) ? dualstill[lp->rows+j-1] : 0.0,lp->epsprimal));
 5948               		.loc 2 491 0 is_stmt 1 discriminator 5
 5949 2692 6C85      		ldd r22,Y+12
 5950 2694 7D85      		ldd r23,Y+13
 5951 2696 8C89      		ldd r24,Y+20
 5952 2698 9D89      		ldd r25,Y+21
 5953 269a 8651      		subi r24,22
 5954 269c 9E4F      		sbci r25,-2
 5955 269e DC01      		movw r26,r24
 5956 26a0 ED91      		ld r30,X+
 5957 26a2 FC91      		ld r31,X
 5958 26a4 8B81      		ldd r24,Y+3
 5959 26a6 9C81      		ldd r25,Y+4
 5960 26a8 8E0F      		add r24,r30
 5961 26aa 9F1F      		adc r25,r31
 5962 26ac 8150      		subi r24,1
 5963 26ae 904C      		sbci r25,-64
 5964 26b0 880F      		lsl r24
 5965 26b2 991F      		rol r25
 5966 26b4 880F      		lsl r24
 5967 26b6 991F      		rol r25
 5968 26b8 860F      		add r24,r22
 5969 26ba 971F      		adc r25,r23
 487:lp_solve_5.5/lp_report.c ****     report(lp, NORMAL, "  %-25s " MPSVALUEMASK MPSVALUEMASK MPSVALUEMASK MPSVALUEMASK "\n",
 5970               		.loc 2 487 0 discriminator 5
 5971 26bc FC01      		movw r30,r24
 5972 26be 8081      		ld r24,Z
 5973 26c0 9181      		ldd r25,Z+1
 5974 26c2 A281      		ldd r26,Z+2
 5975 26c4 B381      		ldd r27,Z+3
 5976 26c6 00C0      		rjmp .L159
 5977               	.L158:
 487:lp_solve_5.5/lp_report.c ****     report(lp, NORMAL, "  %-25s " MPSVALUEMASK MPSVALUEMASK MPSVALUEMASK MPSVALUEMASK "\n",
 5978               		.loc 2 487 0 is_stmt 0 discriminator 6
 5979 26c8 80E0      		ldi r24,0
 5980 26ca 90E0      		ldi r25,0
 5981 26cc DC01      		movw r26,r24
 5982               	.L159:
 487:lp_solve_5.5/lp_report.c ****     report(lp, NORMAL, "  %-25s " MPSVALUEMASK MPSVALUEMASK MPSVALUEMASK MPSVALUEMASK "\n",
 5983               		.loc 2 487 0 discriminator 8
 5984 26ce BC01      		movw r22,r24
 5985 26d0 CD01      		movw r24,r26
 5986 26d2 0E94 0000 		call restoreINT
 5987 26d6 2B01      		movw r4,r22
 5988 26d8 3C01      		movw r6,r24
 5989 26da 8C89      		ldd r24,Y+20
 5990 26dc 9D89      		ldd r25,Y+21
 5991 26de 865E      		subi r24,-26
 5992 26e0 9C4F      		sbci r25,-4
 5993 26e2 DC01      		movw r26,r24
 5994 26e4 CD90      		ld r12,X+
 5995 26e6 DD90      		ld r13,X+
 5996 26e8 ED90      		ld r14,X+
 5997 26ea FC90      		ld r15,X
 490:lp_solve_5.5/lp_report.c ****            my_precision((ret) ? dualsfrom[lp->rows+j-1] : 0.0,lp->epsprimal),
 5998               		.loc 2 490 0 is_stmt 1 discriminator 8
 5999 26ec 8D81      		ldd r24,Y+5
 6000 26ee 8823      		tst r24
 6001 26f0 01F0      		breq .L160
 490:lp_solve_5.5/lp_report.c ****            my_precision((ret) ? dualsfrom[lp->rows+j-1] : 0.0,lp->epsprimal),
 6002               		.loc 2 490 0 is_stmt 0 discriminator 1
 6003 26f2 2A85      		ldd r18,Y+10
 6004 26f4 3B85      		ldd r19,Y+11
 6005 26f6 8C89      		ldd r24,Y+20
 6006 26f8 9D89      		ldd r25,Y+21
 6007 26fa 8651      		subi r24,22
 6008 26fc 9E4F      		sbci r25,-2
 6009 26fe FC01      		movw r30,r24
 6010 2700 4081      		ld r20,Z
 6011 2702 5181      		ldd r21,Z+1
 6012 2704 8B81      		ldd r24,Y+3
 6013 2706 9C81      		ldd r25,Y+4
 6014 2708 840F      		add r24,r20
 6015 270a 951F      		adc r25,r21
 6016 270c 8150      		subi r24,1
 6017 270e 904C      		sbci r25,-64
 6018 2710 880F      		lsl r24
 6019 2712 991F      		rol r25
 6020 2714 880F      		lsl r24
 6021 2716 991F      		rol r25
 6022 2718 820F      		add r24,r18
 6023 271a 931F      		adc r25,r19
 6024 271c FC01      		movw r30,r24
 6025 271e 8081      		ld r24,Z
 6026 2720 9181      		ldd r25,Z+1
 6027 2722 A281      		ldd r26,Z+2
 6028 2724 B381      		ldd r27,Z+3
 6029 2726 BF77      		andi r27,0x7f
 6030 2728 00C0      		rjmp .L161
 6031               	.L160:
 490:lp_solve_5.5/lp_report.c ****            my_precision((ret) ? dualsfrom[lp->rows+j-1] : 0.0,lp->epsprimal),
 6032               		.loc 2 490 0 discriminator 2
 6033 272a 80E0      		ldi r24,0
 6034 272c 90E0      		ldi r25,0
 6035 272e DC01      		movw r26,r24
 6036               	.L161:
 490:lp_solve_5.5/lp_report.c ****            my_precision((ret) ? dualsfrom[lp->rows+j-1] : 0.0,lp->epsprimal),
 6037               		.loc 2 490 0 discriminator 4
 6038 2730 2C89      		ldd r18,Y+20
 6039 2732 3D89      		ldd r19,Y+21
 6040 2734 265F      		subi r18,-10
 6041 2736 3C4F      		sbci r19,-4
 6042 2738 F901      		movw r30,r18
 6043 273a 2081      		ld r18,Z
 6044 273c 3181      		ldd r19,Z+1
 6045 273e 4281      		ldd r20,Z+2
 6046 2740 5381      		ldd r21,Z+3
 487:lp_solve_5.5/lp_report.c ****            get_col_name(lp,j),
 6047               		.loc 2 487 0 is_stmt 1 discriminator 4
 6048 2742 BC01      		movw r22,r24
 6049 2744 CD01      		movw r24,r26
 6050 2746 0E94 0000 		call __gesf2
 6051 274a 8823      		tst r24
 6052 274c 04F4      		brge .+2
 6053 274e 00C0      		rjmp .L181
 490:lp_solve_5.5/lp_report.c ****            my_precision((ret) ? dualsfrom[lp->rows+j-1] : 0.0,lp->epsprimal),
 6054               		.loc 2 490 0
 6055 2750 8C89      		ldd r24,Y+20
 6056 2752 9D89      		ldd r25,Y+21
 6057 2754 865F      		subi r24,-10
 6058 2756 9C4F      		sbci r25,-4
 6059 2758 DC01      		movw r26,r24
 6060 275a 8D90      		ld r8,X+
 6061 275c 9D90      		ld r9,X+
 6062 275e AD90      		ld r10,X+
 6063 2760 BC90      		ld r11,X
 6064 2762 8D81      		ldd r24,Y+5
 6065 2764 8823      		tst r24
 6066 2766 01F0      		breq .L164
 490:lp_solve_5.5/lp_report.c ****            my_precision((ret) ? dualsfrom[lp->rows+j-1] : 0.0,lp->epsprimal),
 6067               		.loc 2 490 0 is_stmt 0 discriminator 5
 6068 2768 2A85      		ldd r18,Y+10
 6069 276a 3B85      		ldd r19,Y+11
 6070 276c 8C89      		ldd r24,Y+20
 6071 276e 9D89      		ldd r25,Y+21
 6072 2770 8651      		subi r24,22
 6073 2772 9E4F      		sbci r25,-2
 6074 2774 FC01      		movw r30,r24
 6075 2776 4081      		ld r20,Z
 6076 2778 5181      		ldd r21,Z+1
 6077 277a 8B81      		ldd r24,Y+3
 6078 277c 9C81      		ldd r25,Y+4
 6079 277e 840F      		add r24,r20
 6080 2780 951F      		adc r25,r21
 6081 2782 8150      		subi r24,1
 6082 2784 904C      		sbci r25,-64
 6083 2786 880F      		lsl r24
 6084 2788 991F      		rol r25
 6085 278a 880F      		lsl r24
 6086 278c 991F      		rol r25
 6087 278e 820F      		add r24,r18
 6088 2790 931F      		adc r25,r19
 6089 2792 FC01      		movw r30,r24
 6090 2794 8081      		ld r24,Z
 6091 2796 9181      		ldd r25,Z+1
 6092 2798 A281      		ldd r26,Z+2
 6093 279a B381      		ldd r27,Z+3
 6094 279c 20E0      		ldi r18,0
 6095 279e 30E0      		ldi r19,0
 6096 27a0 A901      		movw r20,r18
 6097 27a2 BC01      		movw r22,r24
 6098 27a4 CD01      		movw r24,r26
 6099 27a6 0E94 0000 		call __ltsf2
 6100 27aa 8823      		tst r24
 6101 27ac 04F4      		brge .L164
 490:lp_solve_5.5/lp_report.c ****            my_precision((ret) ? dualsfrom[lp->rows+j-1] : 0.0,lp->epsprimal),
 6102               		.loc 2 490 0 discriminator 7
 6103 27ae 80E0      		ldi r24,0
 6104 27b0 90E0      		ldi r25,0
 6105 27b2 A0E8      		ldi r26,lo8(-128)
 6106 27b4 BFEB      		ldi r27,lo8(-65)
 6107 27b6 00C0      		rjmp .L166
 6108               	.L164:
 490:lp_solve_5.5/lp_report.c ****            my_precision((ret) ? dualsfrom[lp->rows+j-1] : 0.0,lp->epsprimal),
 6109               		.loc 2 490 0 discriminator 8
 6110 27b8 80E0      		ldi r24,0
 6111 27ba 90E0      		ldi r25,0
 6112 27bc A0E8      		ldi r26,lo8(-128)
 6113 27be BFE3      		ldi r27,lo8(63)
 6114               	.L166:
 487:lp_solve_5.5/lp_report.c ****            get_col_name(lp,j),
 6115               		.loc 2 487 0 is_stmt 1
 6116 27c0 9C01      		movw r18,r24
 6117 27c2 AD01      		movw r20,r26
 6118 27c4 C501      		movw r24,r10
 6119 27c6 B401      		movw r22,r8
 6120 27c8 0E94 0000 		call __mulsf3
 6121 27cc DC01      		movw r26,r24
 6122 27ce CB01      		movw r24,r22
 6123 27d0 00C0      		rjmp .L167
 6124               	.L181:
 490:lp_solve_5.5/lp_report.c ****            my_precision((ret) ? dualsfrom[lp->rows+j-1] : 0.0,lp->epsprimal),
 6125               		.loc 2 490 0
 6126 27d2 8D81      		ldd r24,Y+5
 6127 27d4 8823      		tst r24
 6128 27d6 01F0      		breq .L168
 490:lp_solve_5.5/lp_report.c ****            my_precision((ret) ? dualsfrom[lp->rows+j-1] : 0.0,lp->epsprimal),
 6129               		.loc 2 490 0 is_stmt 0 discriminator 9
 6130 27d8 2A85      		ldd r18,Y+10
 6131 27da 3B85      		ldd r19,Y+11
 6132 27dc 8C89      		ldd r24,Y+20
 6133 27de 9D89      		ldd r25,Y+21
 6134 27e0 8651      		subi r24,22
 6135 27e2 9E4F      		sbci r25,-2
 6136 27e4 DC01      		movw r26,r24
 6137 27e6 4D91      		ld r20,X+
 6138 27e8 5C91      		ld r21,X
 6139 27ea 8B81      		ldd r24,Y+3
 6140 27ec 9C81      		ldd r25,Y+4
 6141 27ee 840F      		add r24,r20
 6142 27f0 951F      		adc r25,r21
 6143 27f2 8150      		subi r24,1
 6144 27f4 904C      		sbci r25,-64
 6145 27f6 880F      		lsl r24
 6146 27f8 991F      		rol r25
 6147 27fa 880F      		lsl r24
 6148 27fc 991F      		rol r25
 6149 27fe 820F      		add r24,r18
 6150 2800 931F      		adc r25,r19
 6151 2802 FC01      		movw r30,r24
 6152 2804 8081      		ld r24,Z
 6153 2806 9181      		ldd r25,Z+1
 6154 2808 A281      		ldd r26,Z+2
 6155 280a B381      		ldd r27,Z+3
 6156 280c 00C0      		rjmp .L167
 6157               	.L168:
 490:lp_solve_5.5/lp_report.c ****            my_precision((ret) ? dualsfrom[lp->rows+j-1] : 0.0,lp->epsprimal),
 6158               		.loc 2 490 0 discriminator 10
 6159 280e 80E0      		ldi r24,0
 6160 2810 90E0      		ldi r25,0
 6161 2812 DC01      		movw r26,r24
 6162               	.L167:
 487:lp_solve_5.5/lp_report.c ****            get_col_name(lp,j),
 6163               		.loc 2 487 0 is_stmt 1 discriminator 9
 6164 2814 A701      		movw r20,r14
 6165 2816 9601      		movw r18,r12
 6166 2818 BC01      		movw r22,r24
 6167 281a CD01      		movw r24,r26
 6168 281c 0E94 0000 		call restoreINT
 6169 2820 4B01      		movw r8,r22
 6170 2822 5C01      		movw r10,r24
 6171 2824 8C89      		ldd r24,Y+20
 6172 2826 9D89      		ldd r25,Y+21
 6173 2828 865E      		subi r24,-26
 6174 282a 9C4F      		sbci r25,-4
 6175 282c DC01      		movw r26,r24
 6176 282e 2D91      		ld r18,X+
 6177 2830 3D91      		ld r19,X+
 6178 2832 4D91      		ld r20,X+
 6179 2834 5C91      		ld r21,X
 489:lp_solve_5.5/lp_report.c ****            my_precision(my_inflimit(lp, (ret) ? duals[lp->rows+j-1] : 0.0),lp->epsprimal),
 6180               		.loc 2 489 0 discriminator 9
 6181 2836 8C89      		ldd r24,Y+20
 6182 2838 9D89      		ldd r25,Y+21
 6183 283a 8C5E      		subi r24,-20
 6184 283c 9D4F      		sbci r25,-3
 6185 283e FC01      		movw r30,r24
 6186 2840 6081      		ld r22,Z
 6187 2842 7181      		ldd r23,Z+1
 6188 2844 8C89      		ldd r24,Y+20
 6189 2846 9D89      		ldd r25,Y+21
 6190 2848 8651      		subi r24,22
 6191 284a 9E4F      		sbci r25,-2
 6192 284c DC01      		movw r26,r24
 6193 284e ED91      		ld r30,X+
 6194 2850 FC91      		ld r31,X
 6195 2852 8B81      		ldd r24,Y+3
 6196 2854 9C81      		ldd r25,Y+4
 6197 2856 8E0F      		add r24,r30
 6198 2858 9F1F      		adc r25,r31
 6199 285a 880F      		lsl r24
 6200 285c 991F      		rol r25
 6201 285e 880F      		lsl r24
 6202 2860 991F      		rol r25
 6203 2862 860F      		add r24,r22
 6204 2864 971F      		adc r25,r23
 487:lp_solve_5.5/lp_report.c ****            get_col_name(lp,j),
 6205               		.loc 2 487 0 discriminator 9
 6206 2866 FC01      		movw r30,r24
 6207 2868 8081      		ld r24,Z
 6208 286a 9181      		ldd r25,Z+1
 6209 286c A281      		ldd r26,Z+2
 6210 286e B381      		ldd r27,Z+3
 6211 2870 BC01      		movw r22,r24
 6212 2872 CD01      		movw r24,r26
 6213 2874 0E94 0000 		call restoreINT
 6214 2878 6B01      		movw r12,r22
 6215 287a 7C01      		movw r14,r24
 6216 287c 2B81      		ldd r18,Y+3
 6217 287e 3C81      		ldd r19,Y+4
 6218 2880 8C89      		ldd r24,Y+20
 6219 2882 9D89      		ldd r25,Y+21
 6220 2884 B901      		movw r22,r18
 6221 2886 0E94 0000 		call get_col_name
 6222 288a 2D8D      		ldd r18,Y+29
 6223 288c 2F93      		push r18
 6224 288e 2C8D      		ldd r18,Y+28
 6225 2890 2F93      		push r18
 6226 2892 2B8D      		ldd r18,Y+27
 6227 2894 2F93      		push r18
 6228 2896 2A8D      		ldd r18,Y+26
 6229 2898 2F93      		push r18
 6230 289a 272D      		mov r18,r7
 6231 289c 2F93      		push r18
 6232 289e 262D      		mov r18,r6
 6233 28a0 2F93      		push r18
 6234 28a2 252D      		mov r18,r5
 6235 28a4 2F93      		push r18
 6236 28a6 242D      		mov r18,r4
 6237 28a8 2F93      		push r18
 6238 28aa 2B2D      		mov r18,r11
 6239 28ac 2F93      		push r18
 6240 28ae 2A2D      		mov r18,r10
 6241 28b0 2F93      		push r18
 6242 28b2 292D      		mov r18,r9
 6243 28b4 2F93      		push r18
 6244 28b6 282D      		mov r18,r8
 6245 28b8 2F93      		push r18
 6246 28ba 2F2D      		mov r18,r15
 6247 28bc 2F93      		push r18
 6248 28be 2E2D      		mov r18,r14
 6249 28c0 2F93      		push r18
 6250 28c2 2D2D      		mov r18,r13
 6251 28c4 2F93      		push r18
 6252 28c6 2C2D      		mov r18,r12
 6253 28c8 2F93      		push r18
 6254 28ca 292F      		mov r18,r25
 6255 28cc 2F93      		push r18
 6256 28ce 8F93      		push r24
 6257 28d0 80E0      		ldi r24,lo8(.LC51)
 6258 28d2 90E0      		ldi r25,hi8(.LC51)
 6259 28d4 892F      		mov r24,r25
 6260 28d6 8F93      		push r24
 6261 28d8 80E0      		ldi r24,lo8(.LC51)
 6262 28da 90E0      		ldi r25,hi8(.LC51)
 6263 28dc 8F93      		push r24
 6264 28de 1F92      		push __zero_reg__
 6265 28e0 84E0      		ldi r24,lo8(4)
 6266 28e2 8F93      		push r24
 6267 28e4 8D89      		ldd r24,Y+21
 6268 28e6 8F93      		push r24
 6269 28e8 8C89      		ldd r24,Y+20
 6270 28ea 8F93      		push r24
 6271 28ec 0E94 0000 		call report
 6272 28f0 8DB7      		in r24,__SP_L__
 6273 28f2 9EB7      		in r25,__SP_H__
 6274 28f4 4896      		adiw r24,24
 6275 28f6 0FB6      		in __tmp_reg__,__SREG__
 6276 28f8 F894      		cli
 6277 28fa DEBF      		out __SP_H__,r29
 6278 28fc 0FBE      		out __SREG__,__tmp_reg__
 6279 28fe CDBF      		out __SP_L__,r28
 486:lp_solve_5.5/lp_report.c ****     report(lp, NORMAL, "  %-25s " MPSVALUEMASK MPSVALUEMASK MPSVALUEMASK MPSVALUEMASK "\n",
 6280               		.loc 2 486 0 discriminator 9
 6281 2900 8B81      		ldd r24,Y+3
 6282 2902 9C81      		ldd r25,Y+4
 6283 2904 0196      		adiw r24,1
 6284 2906 9C83      		std Y+4,r25
 6285 2908 8B83      		std Y+3,r24
 6286               	.L155:
 486:lp_solve_5.5/lp_report.c ****     report(lp, NORMAL, "  %-25s " MPSVALUEMASK MPSVALUEMASK MPSVALUEMASK MPSVALUEMASK "\n",
 6287               		.loc 2 486 0 is_stmt 0 discriminator 2
 6288 290a 8C89      		ldd r24,Y+20
 6289 290c 9D89      		ldd r25,Y+21
 6290 290e 8451      		subi r24,20
 6291 2910 9E4F      		sbci r25,-2
 6292 2912 DC01      		movw r26,r24
 6293 2914 2D91      		ld r18,X+
 6294 2916 3C91      		ld r19,X
 6295 2918 8B81      		ldd r24,Y+3
 6296 291a 9C81      		ldd r25,Y+4
 6297 291c 2817      		cp r18,r24
 6298 291e 3907      		cpc r19,r25
 6299 2920 04F0      		brlt .+2
 6300 2922 00C0      		rjmp .L170
 493:lp_solve_5.5/lp_report.c **** 
 494:lp_solve_5.5/lp_report.c ****   report(lp, NORMAL, " \n");
 6301               		.loc 2 494 0 is_stmt 1
 6302 2924 80E0      		ldi r24,lo8(.LC47)
 6303 2926 90E0      		ldi r25,hi8(.LC47)
 6304 2928 892F      		mov r24,r25
 6305 292a 8F93      		push r24
 6306 292c 80E0      		ldi r24,lo8(.LC47)
 6307 292e 90E0      		ldi r25,hi8(.LC47)
 6308 2930 8F93      		push r24
 6309 2932 1F92      		push __zero_reg__
 6310 2934 84E0      		ldi r24,lo8(4)
 6311 2936 8F93      		push r24
 6312 2938 8D89      		ldd r24,Y+21
 6313 293a 8F93      		push r24
 6314 293c 8C89      		ldd r24,Y+20
 6315 293e 8F93      		push r24
 6316 2940 0E94 0000 		call report
 6317 2944 0F90      		pop __tmp_reg__
 6318 2946 0F90      		pop __tmp_reg__
 6319 2948 0F90      		pop __tmp_reg__
 6320 294a 0F90      		pop __tmp_reg__
 6321 294c 0F90      		pop __tmp_reg__
 6322 294e 0F90      		pop __tmp_reg__
 495:lp_solve_5.5/lp_report.c ****   report(lp, NORMAL, "Dual variables:\n");
 6323               		.loc 2 495 0
 6324 2950 80E0      		ldi r24,lo8(.LC54)
 6325 2952 90E0      		ldi r25,hi8(.LC54)
 6326 2954 892F      		mov r24,r25
 6327 2956 8F93      		push r24
 6328 2958 80E0      		ldi r24,lo8(.LC54)
 6329 295a 90E0      		ldi r25,hi8(.LC54)
 6330 295c 8F93      		push r24
 6331 295e 1F92      		push __zero_reg__
 6332 2960 84E0      		ldi r24,lo8(4)
 6333 2962 8F93      		push r24
 6334 2964 8D89      		ldd r24,Y+21
 6335 2966 8F93      		push r24
 6336 2968 8C89      		ldd r24,Y+20
 6337 296a 8F93      		push r24
 6338 296c 0E94 0000 		call report
 6339 2970 0F90      		pop __tmp_reg__
 6340 2972 0F90      		pop __tmp_reg__
 6341 2974 0F90      		pop __tmp_reg__
 6342 2976 0F90      		pop __tmp_reg__
 6343 2978 0F90      		pop __tmp_reg__
 6344 297a 0F90      		pop __tmp_reg__
 496:lp_solve_5.5/lp_report.c ****   report(lp, NORMAL, " \n");
 6345               		.loc 2 496 0
 6346 297c 80E0      		ldi r24,lo8(.LC47)
 6347 297e 90E0      		ldi r25,hi8(.LC47)
 6348 2980 892F      		mov r24,r25
 6349 2982 8F93      		push r24
 6350 2984 80E0      		ldi r24,lo8(.LC47)
 6351 2986 90E0      		ldi r25,hi8(.LC47)
 6352 2988 8F93      		push r24
 6353 298a 1F92      		push __zero_reg__
 6354 298c 84E0      		ldi r24,lo8(4)
 6355 298e 8F93      		push r24
 6356 2990 8D89      		ldd r24,Y+21
 6357 2992 8F93      		push r24
 6358 2994 8C89      		ldd r24,Y+20
 6359 2996 8F93      		push r24
 6360 2998 0E94 0000 		call report
 6361 299c 0F90      		pop __tmp_reg__
 6362 299e 0F90      		pop __tmp_reg__
 6363 29a0 0F90      		pop __tmp_reg__
 6364 29a2 0F90      		pop __tmp_reg__
 6365 29a4 0F90      		pop __tmp_reg__
 6366 29a6 0F90      		pop __tmp_reg__
 497:lp_solve_5.5/lp_report.c ****   report(lp, NORMAL, "  Row name                         Value       Slack         Min         Max\
 6367               		.loc 2 497 0
 6368 29a8 80E0      		ldi r24,lo8(.LC55)
 6369 29aa 90E0      		ldi r25,hi8(.LC55)
 6370 29ac 892F      		mov r24,r25
 6371 29ae 8F93      		push r24
 6372 29b0 80E0      		ldi r24,lo8(.LC55)
 6373 29b2 90E0      		ldi r25,hi8(.LC55)
 6374 29b4 8F93      		push r24
 6375 29b6 1F92      		push __zero_reg__
 6376 29b8 84E0      		ldi r24,lo8(4)
 6377 29ba 8F93      		push r24
 6378 29bc 8D89      		ldd r24,Y+21
 6379 29be 8F93      		push r24
 6380 29c0 8C89      		ldd r24,Y+20
 6381 29c2 8F93      		push r24
 6382 29c4 0E94 0000 		call report
 6383 29c8 0F90      		pop __tmp_reg__
 6384 29ca 0F90      		pop __tmp_reg__
 6385 29cc 0F90      		pop __tmp_reg__
 6386 29ce 0F90      		pop __tmp_reg__
 6387 29d0 0F90      		pop __tmp_reg__
 6388 29d2 0F90      		pop __tmp_reg__
 498:lp_solve_5.5/lp_report.c ****   report(lp, NORMAL, "  --------------------------------------------------------------------------\
 6389               		.loc 2 498 0
 6390 29d4 80E0      		ldi r24,lo8(.LC50)
 6391 29d6 90E0      		ldi r25,hi8(.LC50)
 6392 29d8 892F      		mov r24,r25
 6393 29da 8F93      		push r24
 6394 29dc 80E0      		ldi r24,lo8(.LC50)
 6395 29de 90E0      		ldi r25,hi8(.LC50)
 6396 29e0 8F93      		push r24
 6397 29e2 1F92      		push __zero_reg__
 6398 29e4 84E0      		ldi r24,lo8(4)
 6399 29e6 8F93      		push r24
 6400 29e8 8D89      		ldd r24,Y+21
 6401 29ea 8F93      		push r24
 6402 29ec 8C89      		ldd r24,Y+20
 6403 29ee 8F93      		push r24
 6404 29f0 0E94 0000 		call report
 6405 29f4 0F90      		pop __tmp_reg__
 6406 29f6 0F90      		pop __tmp_reg__
 6407 29f8 0F90      		pop __tmp_reg__
 6408 29fa 0F90      		pop __tmp_reg__
 6409 29fc 0F90      		pop __tmp_reg__
 6410 29fe 0F90      		pop __tmp_reg__
 499:lp_solve_5.5/lp_report.c ****   for(i = 1; i <= lp->rows; i++)
 6411               		.loc 2 499 0
 6412 2a00 81E0      		ldi r24,lo8(1)
 6413 2a02 90E0      		ldi r25,0
 6414 2a04 9A83      		std Y+2,r25
 6415 2a06 8983      		std Y+1,r24
 6416 2a08 00C0      		rjmp .L171
 6417               	.L178:
 500:lp_solve_5.5/lp_report.c ****     report(lp, NORMAL, "  %-25s " MPSVALUEMASK MPSVALUEMASK MPSVALUEMASK MPSVALUEMASK "\n",
 6418               		.loc 2 500 0
 6419 2a0a 8C89      		ldd r24,Y+20
 6420 2a0c 9D89      		ldd r25,Y+21
 6421 2a0e 865E      		subi r24,-26
 6422 2a10 9C4F      		sbci r25,-4
 6423 2a12 FC01      		movw r30,r24
 6424 2a14 2081      		ld r18,Z
 6425 2a16 3181      		ldd r19,Z+1
 6426 2a18 4281      		ldd r20,Z+2
 6427 2a1a 5381      		ldd r21,Z+3
 6428 2a1c 8D81      		ldd r24,Y+5
 6429 2a1e 8823      		tst r24
 6430 2a20 01F0      		breq .L172
 501:lp_solve_5.5/lp_report.c ****            get_row_name(lp,i),
 502:lp_solve_5.5/lp_report.c ****            my_precision((ret) ? duals[i - 1] : 0.0, lp->epsprimal),
 503:lp_solve_5.5/lp_report.c ****            my_precision(lp->best_solution[i], lp->epsprimal),
 504:lp_solve_5.5/lp_report.c ****            my_precision((ret) ? dualsfrom[i - 1] : 0.0,lp->epsprimal),
 505:lp_solve_5.5/lp_report.c ****            my_precision((ret) ? dualstill[i - 1] : 0.0,lp->epsprimal));
 6431               		.loc 2 505 0 discriminator 1
 6432 2a22 6E85      		ldd r22,Y+14
 6433 2a24 7F85      		ldd r23,Y+15
 6434 2a26 8981      		ldd r24,Y+1
 6435 2a28 9A81      		ldd r25,Y+2
 6436 2a2a 8150      		subi r24,1
 6437 2a2c 904C      		sbci r25,-64
 6438 2a2e 880F      		lsl r24
 6439 2a30 991F      		rol r25
 6440 2a32 880F      		lsl r24
 6441 2a34 991F      		rol r25
 6442 2a36 860F      		add r24,r22
 6443 2a38 971F      		adc r25,r23
 500:lp_solve_5.5/lp_report.c ****     report(lp, NORMAL, "  %-25s " MPSVALUEMASK MPSVALUEMASK MPSVALUEMASK MPSVALUEMASK "\n",
 6444               		.loc 2 500 0 discriminator 1
 6445 2a3a FC01      		movw r30,r24
 6446 2a3c 8081      		ld r24,Z
 6447 2a3e 9181      		ldd r25,Z+1
 6448 2a40 A281      		ldd r26,Z+2
 6449 2a42 B381      		ldd r27,Z+3
 6450 2a44 00C0      		rjmp .L173
 6451               	.L172:
 500:lp_solve_5.5/lp_report.c ****     report(lp, NORMAL, "  %-25s " MPSVALUEMASK MPSVALUEMASK MPSVALUEMASK MPSVALUEMASK "\n",
 6452               		.loc 2 500 0 is_stmt 0 discriminator 2
 6453 2a46 80E0      		ldi r24,0
 6454 2a48 90E0      		ldi r25,0
 6455 2a4a DC01      		movw r26,r24
 6456               	.L173:
 500:lp_solve_5.5/lp_report.c ****     report(lp, NORMAL, "  %-25s " MPSVALUEMASK MPSVALUEMASK MPSVALUEMASK MPSVALUEMASK "\n",
 6457               		.loc 2 500 0 discriminator 4
 6458 2a4c BC01      		movw r22,r24
 6459 2a4e CD01      		movw r24,r26
 6460 2a50 0E94 0000 		call restoreINT
 6461 2a54 6E8F      		std Y+30,r22
 6462 2a56 7F8F      		std Y+31,r23
 6463 2a58 88A3      		std Y+32,r24
 6464 2a5a 99A3      		std Y+33,r25
 6465 2a5c 8C89      		ldd r24,Y+20
 6466 2a5e 9D89      		ldd r25,Y+21
 6467 2a60 865E      		subi r24,-26
 6468 2a62 9C4F      		sbci r25,-4
 6469 2a64 DC01      		movw r26,r24
 6470 2a66 2D91      		ld r18,X+
 6471 2a68 3D91      		ld r19,X+
 6472 2a6a 4D91      		ld r20,X+
 6473 2a6c 5C91      		ld r21,X
 6474 2a6e 8D81      		ldd r24,Y+5
 6475 2a70 8823      		tst r24
 6476 2a72 01F0      		breq .L174
 504:lp_solve_5.5/lp_report.c ****            my_precision((ret) ? dualstill[i - 1] : 0.0,lp->epsprimal));
 6477               		.loc 2 504 0 is_stmt 1 discriminator 5
 6478 2a74 6C85      		ldd r22,Y+12
 6479 2a76 7D85      		ldd r23,Y+13
 6480 2a78 8981      		ldd r24,Y+1
 6481 2a7a 9A81      		ldd r25,Y+2
 6482 2a7c 8150      		subi r24,1
 6483 2a7e 904C      		sbci r25,-64
 6484 2a80 880F      		lsl r24
 6485 2a82 991F      		rol r25
 6486 2a84 880F      		lsl r24
 6487 2a86 991F      		rol r25
 6488 2a88 860F      		add r24,r22
 6489 2a8a 971F      		adc r25,r23
 500:lp_solve_5.5/lp_report.c ****     report(lp, NORMAL, "  %-25s " MPSVALUEMASK MPSVALUEMASK MPSVALUEMASK MPSVALUEMASK "\n",
 6490               		.loc 2 500 0 discriminator 5
 6491 2a8c FC01      		movw r30,r24
 6492 2a8e 8081      		ld r24,Z
 6493 2a90 9181      		ldd r25,Z+1
 6494 2a92 A281      		ldd r26,Z+2
 6495 2a94 B381      		ldd r27,Z+3
 6496 2a96 00C0      		rjmp .L175
 6497               	.L174:
 500:lp_solve_5.5/lp_report.c ****     report(lp, NORMAL, "  %-25s " MPSVALUEMASK MPSVALUEMASK MPSVALUEMASK MPSVALUEMASK "\n",
 6498               		.loc 2 500 0 is_stmt 0 discriminator 6
 6499 2a98 80E0      		ldi r24,0
 6500 2a9a 90E0      		ldi r25,0
 6501 2a9c DC01      		movw r26,r24
 6502               	.L175:
 500:lp_solve_5.5/lp_report.c ****     report(lp, NORMAL, "  %-25s " MPSVALUEMASK MPSVALUEMASK MPSVALUEMASK MPSVALUEMASK "\n",
 6503               		.loc 2 500 0 discriminator 8
 6504 2a9e BC01      		movw r22,r24
 6505 2aa0 CD01      		movw r24,r26
 6506 2aa2 0E94 0000 		call restoreINT
 6507 2aa6 2B01      		movw r4,r22
 6508 2aa8 3C01      		movw r6,r24
 6509 2aaa 8C89      		ldd r24,Y+20
 6510 2aac 9D89      		ldd r25,Y+21
 6511 2aae 865E      		subi r24,-26
 6512 2ab0 9C4F      		sbci r25,-4
 6513 2ab2 DC01      		movw r26,r24
 6514 2ab4 2D91      		ld r18,X+
 6515 2ab6 3D91      		ld r19,X+
 6516 2ab8 4D91      		ld r20,X+
 6517 2aba 5C91      		ld r21,X
 503:lp_solve_5.5/lp_report.c ****            my_precision((ret) ? dualsfrom[i - 1] : 0.0,lp->epsprimal),
 6518               		.loc 2 503 0 is_stmt 1 discriminator 8
 6519 2abc 8C89      		ldd r24,Y+20
 6520 2abe 9D89      		ldd r25,Y+21
 6521 2ac0 8C5E      		subi r24,-20
 6522 2ac2 9D4F      		sbci r25,-3
 6523 2ac4 FC01      		movw r30,r24
 6524 2ac6 6081      		ld r22,Z
 6525 2ac8 7181      		ldd r23,Z+1
 6526 2aca 8981      		ldd r24,Y+1
 6527 2acc 9A81      		ldd r25,Y+2
 6528 2ace 880F      		lsl r24
 6529 2ad0 991F      		rol r25
 6530 2ad2 880F      		lsl r24
 6531 2ad4 991F      		rol r25
 6532 2ad6 860F      		add r24,r22
 6533 2ad8 971F      		adc r25,r23
 500:lp_solve_5.5/lp_report.c ****            get_row_name(lp,i),
 6534               		.loc 2 500 0 discriminator 8
 6535 2ada FC01      		movw r30,r24
 6536 2adc 8081      		ld r24,Z
 6537 2ade 9181      		ldd r25,Z+1
 6538 2ae0 A281      		ldd r26,Z+2
 6539 2ae2 B381      		ldd r27,Z+3
 6540 2ae4 BC01      		movw r22,r24
 6541 2ae6 CD01      		movw r24,r26
 6542 2ae8 0E94 0000 		call restoreINT
 6543 2aec 4B01      		movw r8,r22
 6544 2aee 5C01      		movw r10,r24
 6545 2af0 8C89      		ldd r24,Y+20
 6546 2af2 9D89      		ldd r25,Y+21
 6547 2af4 865E      		subi r24,-26
 6548 2af6 9C4F      		sbci r25,-4
 6549 2af8 DC01      		movw r26,r24
 6550 2afa 2D91      		ld r18,X+
 6551 2afc 3D91      		ld r19,X+
 6552 2afe 4D91      		ld r20,X+
 6553 2b00 5C91      		ld r21,X
 6554 2b02 8D81      		ldd r24,Y+5
 6555 2b04 8823      		tst r24
 6556 2b06 01F0      		breq .L176
 502:lp_solve_5.5/lp_report.c ****            my_precision(lp->best_solution[i], lp->epsprimal),
 6557               		.loc 2 502 0 discriminator 9
 6558 2b08 6A85      		ldd r22,Y+10
 6559 2b0a 7B85      		ldd r23,Y+11
 6560 2b0c 8981      		ldd r24,Y+1
 6561 2b0e 9A81      		ldd r25,Y+2
 6562 2b10 8150      		subi r24,1
 6563 2b12 904C      		sbci r25,-64
 6564 2b14 880F      		lsl r24
 6565 2b16 991F      		rol r25
 6566 2b18 880F      		lsl r24
 6567 2b1a 991F      		rol r25
 6568 2b1c 860F      		add r24,r22
 6569 2b1e 971F      		adc r25,r23
 500:lp_solve_5.5/lp_report.c ****            get_row_name(lp,i),
 6570               		.loc 2 500 0 discriminator 9
 6571 2b20 FC01      		movw r30,r24
 6572 2b22 8081      		ld r24,Z
 6573 2b24 9181      		ldd r25,Z+1
 6574 2b26 A281      		ldd r26,Z+2
 6575 2b28 B381      		ldd r27,Z+3
 6576 2b2a 00C0      		rjmp .L177
 6577               	.L176:
 500:lp_solve_5.5/lp_report.c ****            get_row_name(lp,i),
 6578               		.loc 2 500 0 is_stmt 0 discriminator 10
 6579 2b2c 80E0      		ldi r24,0
 6580 2b2e 90E0      		ldi r25,0
 6581 2b30 DC01      		movw r26,r24
 6582               	.L177:
 500:lp_solve_5.5/lp_report.c ****            get_row_name(lp,i),
 6583               		.loc 2 500 0 discriminator 12
 6584 2b32 BC01      		movw r22,r24
 6585 2b34 CD01      		movw r24,r26
 6586 2b36 0E94 0000 		call restoreINT
 6587 2b3a 6B01      		movw r12,r22
 6588 2b3c 7C01      		movw r14,r24
 6589 2b3e 2981      		ldd r18,Y+1
 6590 2b40 3A81      		ldd r19,Y+2
 6591 2b42 8C89      		ldd r24,Y+20
 6592 2b44 9D89      		ldd r25,Y+21
 6593 2b46 B901      		movw r22,r18
 6594 2b48 0E94 0000 		call get_row_name
 6595 2b4c 29A1      		ldd r18,Y+33
 6596 2b4e 2F93      		push r18
 6597 2b50 28A1      		ldd r18,Y+32
 6598 2b52 2F93      		push r18
 6599 2b54 2F8D      		ldd r18,Y+31
 6600 2b56 2F93      		push r18
 6601 2b58 2E8D      		ldd r18,Y+30
 6602 2b5a 2F93      		push r18
 6603 2b5c 272D      		mov r18,r7
 6604 2b5e 2F93      		push r18
 6605 2b60 262D      		mov r18,r6
 6606 2b62 2F93      		push r18
 6607 2b64 252D      		mov r18,r5
 6608 2b66 2F93      		push r18
 6609 2b68 242D      		mov r18,r4
 6610 2b6a 2F93      		push r18
 6611 2b6c 2B2D      		mov r18,r11
 6612 2b6e 2F93      		push r18
 6613 2b70 2A2D      		mov r18,r10
 6614 2b72 2F93      		push r18
 6615 2b74 292D      		mov r18,r9
 6616 2b76 2F93      		push r18
 6617 2b78 282D      		mov r18,r8
 6618 2b7a 2F93      		push r18
 6619 2b7c 2F2D      		mov r18,r15
 6620 2b7e 2F93      		push r18
 6621 2b80 2E2D      		mov r18,r14
 6622 2b82 2F93      		push r18
 6623 2b84 2D2D      		mov r18,r13
 6624 2b86 2F93      		push r18
 6625 2b88 2C2D      		mov r18,r12
 6626 2b8a 2F93      		push r18
 6627 2b8c 292F      		mov r18,r25
 6628 2b8e 2F93      		push r18
 6629 2b90 8F93      		push r24
 6630 2b92 80E0      		ldi r24,lo8(.LC51)
 6631 2b94 90E0      		ldi r25,hi8(.LC51)
 6632 2b96 892F      		mov r24,r25
 6633 2b98 8F93      		push r24
 6634 2b9a 80E0      		ldi r24,lo8(.LC51)
 6635 2b9c 90E0      		ldi r25,hi8(.LC51)
 6636 2b9e 8F93      		push r24
 6637 2ba0 1F92      		push __zero_reg__
 6638 2ba2 84E0      		ldi r24,lo8(4)
 6639 2ba4 8F93      		push r24
 6640 2ba6 8D89      		ldd r24,Y+21
 6641 2ba8 8F93      		push r24
 6642 2baa 8C89      		ldd r24,Y+20
 6643 2bac 8F93      		push r24
 6644 2bae 0E94 0000 		call report
 6645 2bb2 8DB7      		in r24,__SP_L__
 6646 2bb4 9EB7      		in r25,__SP_H__
 6647 2bb6 4896      		adiw r24,24
 6648 2bb8 0FB6      		in __tmp_reg__,__SREG__
 6649 2bba F894      		cli
 6650 2bbc DEBF      		out __SP_H__,r29
 6651 2bbe 0FBE      		out __SREG__,__tmp_reg__
 6652 2bc0 CDBF      		out __SP_L__,r28
 499:lp_solve_5.5/lp_report.c ****     report(lp, NORMAL, "  %-25s " MPSVALUEMASK MPSVALUEMASK MPSVALUEMASK MPSVALUEMASK "\n",
 6653               		.loc 2 499 0 is_stmt 1 discriminator 12
 6654 2bc2 8981      		ldd r24,Y+1
 6655 2bc4 9A81      		ldd r25,Y+2
 6656 2bc6 0196      		adiw r24,1
 6657 2bc8 9A83      		std Y+2,r25
 6658 2bca 8983      		std Y+1,r24
 6659               	.L171:
 499:lp_solve_5.5/lp_report.c ****     report(lp, NORMAL, "  %-25s " MPSVALUEMASK MPSVALUEMASK MPSVALUEMASK MPSVALUEMASK "\n",
 6660               		.loc 2 499 0 is_stmt 0 discriminator 2
 6661 2bcc 8C89      		ldd r24,Y+20
 6662 2bce 9D89      		ldd r25,Y+21
 6663 2bd0 8651      		subi r24,22
 6664 2bd2 9E4F      		sbci r25,-2
 6665 2bd4 DC01      		movw r26,r24
 6666 2bd6 2D91      		ld r18,X+
 6667 2bd8 3C91      		ld r19,X
 6668 2bda 8981      		ldd r24,Y+1
 6669 2bdc 9A81      		ldd r25,Y+2
 6670 2bde 2817      		cp r18,r24
 6671 2be0 3907      		cpc r19,r25
 6672 2be2 04F0      		brlt .+2
 6673 2be4 00C0      		rjmp .L178
 506:lp_solve_5.5/lp_report.c **** 
 507:lp_solve_5.5/lp_report.c ****   report(lp, NORMAL, " \n");
 6674               		.loc 2 507 0 is_stmt 1
 6675 2be6 80E0      		ldi r24,lo8(.LC47)
 6676 2be8 90E0      		ldi r25,hi8(.LC47)
 6677 2bea 892F      		mov r24,r25
 6678 2bec 8F93      		push r24
 6679 2bee 80E0      		ldi r24,lo8(.LC47)
 6680 2bf0 90E0      		ldi r25,hi8(.LC47)
 6681 2bf2 8F93      		push r24
 6682 2bf4 1F92      		push __zero_reg__
 6683 2bf6 84E0      		ldi r24,lo8(4)
 6684 2bf8 8F93      		push r24
 6685 2bfa 8D89      		ldd r24,Y+21
 6686 2bfc 8F93      		push r24
 6687 2bfe 8C89      		ldd r24,Y+20
 6688 2c00 8F93      		push r24
 6689 2c02 0E94 0000 		call report
 6690 2c06 0F90      		pop __tmp_reg__
 6691 2c08 0F90      		pop __tmp_reg__
 6692 2c0a 0F90      		pop __tmp_reg__
 6693 2c0c 0F90      		pop __tmp_reg__
 6694 2c0e 0F90      		pop __tmp_reg__
 6695 2c10 0F90      		pop __tmp_reg__
 508:lp_solve_5.5/lp_report.c **** }
 6696               		.loc 2 508 0
 6697 2c12 0000      		nop
 6698               	/* epilogue start */
 6699 2c14 A196      		adiw r28,33
 6700 2c16 0FB6      		in __tmp_reg__,__SREG__
 6701 2c18 F894      		cli
 6702 2c1a DEBF      		out __SP_H__,r29
 6703 2c1c 0FBE      		out __SREG__,__tmp_reg__
 6704 2c1e CDBF      		out __SP_L__,r28
 6705 2c20 DF91      		pop r29
 6706 2c22 CF91      		pop r28
 6707 2c24 FF90      		pop r15
 6708 2c26 EF90      		pop r14
 6709 2c28 DF90      		pop r13
 6710 2c2a CF90      		pop r12
 6711 2c2c BF90      		pop r11
 6712 2c2e AF90      		pop r10
 6713 2c30 9F90      		pop r9
 6714 2c32 8F90      		pop r8
 6715 2c34 7F90      		pop r7
 6716 2c36 6F90      		pop r6
 6717 2c38 5F90      		pop r5
 6718 2c3a 4F90      		pop r4
 6719 2c3c 0895      		ret
 6720               		.cfi_endproc
 6721               	.LFE21:
 6723               		.section	.rodata
 6724               	.LC56:
 6725 06e2 4D6F 6465 		.string	"Model name: %s\n"
 6725      6C20 6E61 
 6725      6D65 3A20 
 6725      2573 0A00 
 6726               	.LC57:
 6727 06f2 2020 2020 		.string	"          "
 6727      2020 2020 
 6727      2020 00
 6728               	.LC58:
 6729 06fd 2538 7320 		.string	"%8s "
 6729      00
 6730               	.LC59:
 6731 0702 4D61 7800 		.string	"Max"
 6732               	.LC60:
 6733 0706 4D69 6E00 		.string	"Min"
 6734               	.LC61:
 6735 070a 0A25 7369 		.string	"\n%simize  "
 6735      6D69 7A65 
 6735      2020 00
 6736               	.LC62:
 6737 0715 2538 6720 		.string	"%8g "
 6737      00
 6738               	.LC63:
 6739 071a 252D 3973 		.string	"%-9s "
 6739      2000 
 6740               	.LC64:
 6741 0720 3E3D 2000 		.string	">= "
 6742               	.LC65:
 6743 0724 3C3D 2000 		.string	"<= "
 6744               	.LC66:
 6745 0728 203D 2000 		.string	" = "
 6746               	.LC67:
 6747 072c 2538 6700 		.string	"%8g"
 6748               	.LC68:
 6749 0730 2020 2573 		.string	"  %s = %8g"
 6749      203D 2025 
 6749      3867 00
 6750               	.global	__gtsf2
 6751               	.LC69:
 6752 073b 5479 7065 		.string	"Type      "
 6752      2020 2020 
 6752      2020 00
 6753               	.LC70:
 6754 0746 2020 2020 		.string	"     Int "
 6754      2049 6E74 
 6754      2000 
 6755               	.LC71:
 6756 0750 2020 2020 		.string	"    Real "
 6756      5265 616C 
 6756      2000 
 6757               	.LC72:
 6758 075a 0A75 7062 		.string	"\nupbo      "
 6758      6F20 2020 
 6758      2020 2000 
 6759               	.LC73:
 6760 0766 2020 2020 		.string	"     Inf "
 6760      2049 6E66 
 6760      2000 
 6761               	.LC74:
 6762 0770 0A6C 6F77 		.string	"\nlowbo     "
 6762      626F 2020 
 6762      2020 2000 
 6763               	.global	__lesf2
 6764               	.LC75:
 6765 077c 2020 2020 		.string	"    -Inf "
 6765      2D49 6E66 
 6765      2000 
 6766               		.text
 6767               	.global	REPORT_lp
 6769               	REPORT_lp:
 6770               	.LFB22:
 509:lp_solve_5.5/lp_report.c **** 
 510:lp_solve_5.5/lp_report.c **** /* A more readable lp-format report of the model; antiquated and not updated */
 511:lp_solve_5.5/lp_report.c **** void REPORT_lp(lprec *lp)
 512:lp_solve_5.5/lp_report.c **** {
 6771               		.loc 2 512 0
 6772               		.cfi_startproc
 6773 2c3e EF92      		push r14
 6774               	.LCFI116:
 6775               		.cfi_def_cfa_offset 3
 6776               		.cfi_offset 14, -2
 6777 2c40 FF92      		push r15
 6778               	.LCFI117:
 6779               		.cfi_def_cfa_offset 4
 6780               		.cfi_offset 15, -3
 6781 2c42 0F93      		push r16
 6782               	.LCFI118:
 6783               		.cfi_def_cfa_offset 5
 6784               		.cfi_offset 16, -4
 6785 2c44 1F93      		push r17
 6786               	.LCFI119:
 6787               		.cfi_def_cfa_offset 6
 6788               		.cfi_offset 17, -5
 6789 2c46 CF93      		push r28
 6790               	.LCFI120:
 6791               		.cfi_def_cfa_offset 7
 6792               		.cfi_offset 28, -6
 6793 2c48 DF93      		push r29
 6794               	.LCFI121:
 6795               		.cfi_def_cfa_offset 8
 6796               		.cfi_offset 29, -7
 6797 2c4a 00D0      		rcall .
 6798 2c4c 00D0      		rcall .
 6799 2c4e 00D0      		rcall .
 6800               	.LCFI122:
 6801               		.cfi_def_cfa_offset 14
 6802 2c50 CDB7      		in r28,__SP_L__
 6803 2c52 DEB7      		in r29,__SP_H__
 6804               	.LCFI123:
 6805               		.cfi_def_cfa_register 28
 6806               	/* prologue: function */
 6807               	/* frame size = 6 */
 6808               	/* stack size = 12 */
 6809               	.L__stack_usage = 12
 6810 2c54 9E83      		std Y+6,r25
 6811 2c56 8D83      		std Y+5,r24
 513:lp_solve_5.5/lp_report.c ****   int  i, j;
 514:lp_solve_5.5/lp_report.c **** 
 515:lp_solve_5.5/lp_report.c ****   if(lp->outstream == NULL)
 6812               		.loc 2 515 0
 6813 2c58 8D81      		ldd r24,Y+5
 6814 2c5a 9E81      		ldd r25,Y+6
 6815 2c5c 845A      		subi r24,-92
 6816 2c5e 9D4F      		sbci r25,-3
 6817 2c60 FC01      		movw r30,r24
 6818 2c62 8081      		ld r24,Z
 6819 2c64 9181      		ldd r25,Z+1
 6820 2c66 892B      		or r24,r25
 6821 2c68 01F4      		brne .+2
 6822 2c6a 00C0      		rjmp .L223
 516:lp_solve_5.5/lp_report.c ****     return;
 517:lp_solve_5.5/lp_report.c **** 
 518:lp_solve_5.5/lp_report.c ****   fprintf(lp->outstream, "Model name: %s\n", get_lp_name(lp));
 6823               		.loc 2 518 0
 6824 2c6c 8D81      		ldd r24,Y+5
 6825 2c6e 9E81      		ldd r25,Y+6
 6826 2c70 0E94 0000 		call get_lp_name
 6827 2c74 9C01      		movw r18,r24
 6828 2c76 8D81      		ldd r24,Y+5
 6829 2c78 9E81      		ldd r25,Y+6
 6830 2c7a 845A      		subi r24,-92
 6831 2c7c 9D4F      		sbci r25,-3
 6832 2c7e FC01      		movw r30,r24
 6833 2c80 8081      		ld r24,Z
 6834 2c82 9181      		ldd r25,Z+1
 6835 2c84 432F      		mov r20,r19
 6836 2c86 4F93      		push r20
 6837 2c88 2F93      		push r18
 6838 2c8a 20E0      		ldi r18,lo8(.LC56)
 6839 2c8c 30E0      		ldi r19,hi8(.LC56)
 6840 2c8e 232F      		mov r18,r19
 6841 2c90 2F93      		push r18
 6842 2c92 20E0      		ldi r18,lo8(.LC56)
 6843 2c94 30E0      		ldi r19,hi8(.LC56)
 6844 2c96 2F93      		push r18
 6845 2c98 292F      		mov r18,r25
 6846 2c9a 2F93      		push r18
 6847 2c9c 8F93      		push r24
 6848 2c9e 0E94 0000 		call fprintf
 6849 2ca2 0F90      		pop __tmp_reg__
 6850 2ca4 0F90      		pop __tmp_reg__
 6851 2ca6 0F90      		pop __tmp_reg__
 6852 2ca8 0F90      		pop __tmp_reg__
 6853 2caa 0F90      		pop __tmp_reg__
 6854 2cac 0F90      		pop __tmp_reg__
 519:lp_solve_5.5/lp_report.c ****   fprintf(lp->outstream, "          ");
 6855               		.loc 2 519 0
 6856 2cae 8D81      		ldd r24,Y+5
 6857 2cb0 9E81      		ldd r25,Y+6
 6858 2cb2 845A      		subi r24,-92
 6859 2cb4 9D4F      		sbci r25,-3
 6860 2cb6 FC01      		movw r30,r24
 6861 2cb8 8081      		ld r24,Z
 6862 2cba 9181      		ldd r25,Z+1
 6863 2cbc 9C01      		movw r18,r24
 6864 2cbe 4AE0      		ldi r20,lo8(10)
 6865 2cc0 50E0      		ldi r21,0
 6866 2cc2 61E0      		ldi r22,lo8(1)
 6867 2cc4 70E0      		ldi r23,0
 6868 2cc6 80E0      		ldi r24,lo8(.LC57)
 6869 2cc8 90E0      		ldi r25,hi8(.LC57)
 6870 2cca 0E94 0000 		call fwrite
 520:lp_solve_5.5/lp_report.c **** 
 521:lp_solve_5.5/lp_report.c ****   for(j = 1; j <= lp->columns; j++)
 6871               		.loc 2 521 0
 6872 2cce 81E0      		ldi r24,lo8(1)
 6873 2cd0 90E0      		ldi r25,0
 6874 2cd2 9C83      		std Y+4,r25
 6875 2cd4 8B83      		std Y+3,r24
 6876 2cd6 00C0      		rjmp .L185
 6877               	.L186:
 522:lp_solve_5.5/lp_report.c ****     fprintf(lp->outstream, "%8s ", get_col_name(lp,j));
 6878               		.loc 2 522 0 discriminator 3
 6879 2cd8 2B81      		ldd r18,Y+3
 6880 2cda 3C81      		ldd r19,Y+4
 6881 2cdc 8D81      		ldd r24,Y+5
 6882 2cde 9E81      		ldd r25,Y+6
 6883 2ce0 B901      		movw r22,r18
 6884 2ce2 0E94 0000 		call get_col_name
 6885 2ce6 9C01      		movw r18,r24
 6886 2ce8 8D81      		ldd r24,Y+5
 6887 2cea 9E81      		ldd r25,Y+6
 6888 2cec 845A      		subi r24,-92
 6889 2cee 9D4F      		sbci r25,-3
 6890 2cf0 FC01      		movw r30,r24
 6891 2cf2 8081      		ld r24,Z
 6892 2cf4 9181      		ldd r25,Z+1
 6893 2cf6 432F      		mov r20,r19
 6894 2cf8 4F93      		push r20
 6895 2cfa 2F93      		push r18
 6896 2cfc 20E0      		ldi r18,lo8(.LC58)
 6897 2cfe 30E0      		ldi r19,hi8(.LC58)
 6898 2d00 232F      		mov r18,r19
 6899 2d02 2F93      		push r18
 6900 2d04 20E0      		ldi r18,lo8(.LC58)
 6901 2d06 30E0      		ldi r19,hi8(.LC58)
 6902 2d08 2F93      		push r18
 6903 2d0a 292F      		mov r18,r25
 6904 2d0c 2F93      		push r18
 6905 2d0e 8F93      		push r24
 6906 2d10 0E94 0000 		call fprintf
 6907 2d14 0F90      		pop __tmp_reg__
 6908 2d16 0F90      		pop __tmp_reg__
 6909 2d18 0F90      		pop __tmp_reg__
 6910 2d1a 0F90      		pop __tmp_reg__
 6911 2d1c 0F90      		pop __tmp_reg__
 6912 2d1e 0F90      		pop __tmp_reg__
 521:lp_solve_5.5/lp_report.c ****     fprintf(lp->outstream, "%8s ", get_col_name(lp,j));
 6913               		.loc 2 521 0 discriminator 3
 6914 2d20 8B81      		ldd r24,Y+3
 6915 2d22 9C81      		ldd r25,Y+4
 6916 2d24 0196      		adiw r24,1
 6917 2d26 9C83      		std Y+4,r25
 6918 2d28 8B83      		std Y+3,r24
 6919               	.L185:
 521:lp_solve_5.5/lp_report.c ****     fprintf(lp->outstream, "%8s ", get_col_name(lp,j));
 6920               		.loc 2 521 0 is_stmt 0 discriminator 1
 6921 2d2a 8D81      		ldd r24,Y+5
 6922 2d2c 9E81      		ldd r25,Y+6
 6923 2d2e 8451      		subi r24,20
 6924 2d30 9E4F      		sbci r25,-2
 6925 2d32 FC01      		movw r30,r24
 6926 2d34 2081      		ld r18,Z
 6927 2d36 3181      		ldd r19,Z+1
 6928 2d38 8B81      		ldd r24,Y+3
 6929 2d3a 9C81      		ldd r25,Y+4
 6930 2d3c 2817      		cp r18,r24
 6931 2d3e 3907      		cpc r19,r25
 6932 2d40 04F4      		brge .L186
 523:lp_solve_5.5/lp_report.c **** 
 524:lp_solve_5.5/lp_report.c ****   fprintf(lp->outstream, "\n%simize  ", (is_maxim(lp) ? "Max" : "Min"));
 6933               		.loc 2 524 0 is_stmt 1
 6934 2d42 8D81      		ldd r24,Y+5
 6935 2d44 9E81      		ldd r25,Y+6
 6936 2d46 0E94 0000 		call is_maxim
 6937 2d4a 8823      		tst r24
 6938 2d4c 01F0      		breq .L187
 6939               		.loc 2 524 0 is_stmt 0 discriminator 1
 6940 2d4e 80E0      		ldi r24,lo8(.LC59)
 6941 2d50 90E0      		ldi r25,hi8(.LC59)
 6942 2d52 00C0      		rjmp .L188
 6943               	.L187:
 6944               		.loc 2 524 0 discriminator 2
 6945 2d54 80E0      		ldi r24,lo8(.LC60)
 6946 2d56 90E0      		ldi r25,hi8(.LC60)
 6947               	.L188:
 6948               		.loc 2 524 0 discriminator 4
 6949 2d58 2D81      		ldd r18,Y+5
 6950 2d5a 3E81      		ldd r19,Y+6
 6951 2d5c 245A      		subi r18,-92
 6952 2d5e 3D4F      		sbci r19,-3
 6953 2d60 F901      		movw r30,r18
 6954 2d62 2081      		ld r18,Z
 6955 2d64 3181      		ldd r19,Z+1
 6956 2d66 492F      		mov r20,r25
 6957 2d68 4F93      		push r20
 6958 2d6a 8F93      		push r24
 6959 2d6c 80E0      		ldi r24,lo8(.LC61)
 6960 2d6e 90E0      		ldi r25,hi8(.LC61)
 6961 2d70 892F      		mov r24,r25
 6962 2d72 8F93      		push r24
 6963 2d74 80E0      		ldi r24,lo8(.LC61)
 6964 2d76 90E0      		ldi r25,hi8(.LC61)
 6965 2d78 8F93      		push r24
 6966 2d7a 832F      		mov r24,r19
 6967 2d7c 8F93      		push r24
 6968 2d7e 822F      		mov r24,r18
 6969 2d80 8F93      		push r24
 6970 2d82 0E94 0000 		call fprintf
 6971 2d86 0F90      		pop __tmp_reg__
 6972 2d88 0F90      		pop __tmp_reg__
 6973 2d8a 0F90      		pop __tmp_reg__
 6974 2d8c 0F90      		pop __tmp_reg__
 6975 2d8e 0F90      		pop __tmp_reg__
 6976 2d90 0F90      		pop __tmp_reg__
 525:lp_solve_5.5/lp_report.c ****   for(j = 1; j <= lp->columns; j++)
 6977               		.loc 2 525 0 is_stmt 1 discriminator 4
 6978 2d92 81E0      		ldi r24,lo8(1)
 6979 2d94 90E0      		ldi r25,0
 6980 2d96 9C83      		std Y+4,r25
 6981 2d98 8B83      		std Y+3,r24
 6982 2d9a 00C0      		rjmp .L189
 6983               	.L190:
 526:lp_solve_5.5/lp_report.c ****       fprintf(lp->outstream, "%8g ", get_mat(lp, 0, j));
 6984               		.loc 2 526 0 discriminator 3
 6985 2d9c 2B81      		ldd r18,Y+3
 6986 2d9e 3C81      		ldd r19,Y+4
 6987 2da0 8D81      		ldd r24,Y+5
 6988 2da2 9E81      		ldd r25,Y+6
 6989 2da4 A901      		movw r20,r18
 6990 2da6 60E0      		ldi r22,0
 6991 2da8 70E0      		ldi r23,0
 6992 2daa 0E94 0000 		call get_mat
 6993 2dae DC01      		movw r26,r24
 6994 2db0 CB01      		movw r24,r22
 6995 2db2 2D81      		ldd r18,Y+5
 6996 2db4 3E81      		ldd r19,Y+6
 6997 2db6 245A      		subi r18,-92
 6998 2db8 3D4F      		sbci r19,-3
 6999 2dba F901      		movw r30,r18
 7000 2dbc 2081      		ld r18,Z
 7001 2dbe 3181      		ldd r19,Z+1
 7002 2dc0 4B2F      		mov r20,r27
 7003 2dc2 4F93      		push r20
 7004 2dc4 4A2F      		mov r20,r26
 7005 2dc6 4F93      		push r20
 7006 2dc8 492F      		mov r20,r25
 7007 2dca 4F93      		push r20
 7008 2dcc 8F93      		push r24
 7009 2dce 80E0      		ldi r24,lo8(.LC62)
 7010 2dd0 90E0      		ldi r25,hi8(.LC62)
 7011 2dd2 892F      		mov r24,r25
 7012 2dd4 8F93      		push r24
 7013 2dd6 80E0      		ldi r24,lo8(.LC62)
 7014 2dd8 90E0      		ldi r25,hi8(.LC62)
 7015 2dda 8F93      		push r24
 7016 2ddc 832F      		mov r24,r19
 7017 2dde 8F93      		push r24
 7018 2de0 822F      		mov r24,r18
 7019 2de2 8F93      		push r24
 7020 2de4 0E94 0000 		call fprintf
 7021 2de8 8DB7      		in r24,__SP_L__
 7022 2dea 9EB7      		in r25,__SP_H__
 7023 2dec 0896      		adiw r24,8
 7024 2dee 0FB6      		in __tmp_reg__,__SREG__
 7025 2df0 F894      		cli
 7026 2df2 DEBF      		out __SP_H__,r29
 7027 2df4 0FBE      		out __SREG__,__tmp_reg__
 7028 2df6 CDBF      		out __SP_L__,r28
 525:lp_solve_5.5/lp_report.c ****   for(j = 1; j <= lp->columns; j++)
 7029               		.loc 2 525 0 discriminator 3
 7030 2df8 8B81      		ldd r24,Y+3
 7031 2dfa 9C81      		ldd r25,Y+4
 7032 2dfc 0196      		adiw r24,1
 7033 2dfe 9C83      		std Y+4,r25
 7034 2e00 8B83      		std Y+3,r24
 7035               	.L189:
 525:lp_solve_5.5/lp_report.c ****   for(j = 1; j <= lp->columns; j++)
 7036               		.loc 2 525 0 is_stmt 0 discriminator 1
 7037 2e02 8D81      		ldd r24,Y+5
 7038 2e04 9E81      		ldd r25,Y+6
 7039 2e06 8451      		subi r24,20
 7040 2e08 9E4F      		sbci r25,-2
 7041 2e0a FC01      		movw r30,r24
 7042 2e0c 2081      		ld r18,Z
 7043 2e0e 3181      		ldd r19,Z+1
 7044 2e10 8B81      		ldd r24,Y+3
 7045 2e12 9C81      		ldd r25,Y+4
 7046 2e14 2817      		cp r18,r24
 7047 2e16 3907      		cpc r19,r25
 7048 2e18 04F4      		brge .L190
 527:lp_solve_5.5/lp_report.c ****   fprintf(lp->outstream, "\n");
 7049               		.loc 2 527 0 is_stmt 1
 7050 2e1a 8D81      		ldd r24,Y+5
 7051 2e1c 9E81      		ldd r25,Y+6
 7052 2e1e 845A      		subi r24,-92
 7053 2e20 9D4F      		sbci r25,-3
 7054 2e22 FC01      		movw r30,r24
 7055 2e24 8081      		ld r24,Z
 7056 2e26 9181      		ldd r25,Z+1
 7057 2e28 BC01      		movw r22,r24
 7058 2e2a 8AE0      		ldi r24,lo8(10)
 7059 2e2c 90E0      		ldi r25,0
 7060 2e2e 0E94 0000 		call fputc
 528:lp_solve_5.5/lp_report.c **** 
 529:lp_solve_5.5/lp_report.c ****   for(i = 1; i <= lp->rows; i++) {
 7061               		.loc 2 529 0
 7062 2e32 81E0      		ldi r24,lo8(1)
 7063 2e34 90E0      		ldi r25,0
 7064 2e36 9A83      		std Y+2,r25
 7065 2e38 8983      		std Y+1,r24
 7066 2e3a 00C0      		rjmp .L191
 7067               	.L202:
 530:lp_solve_5.5/lp_report.c ****     fprintf(lp->outstream, "%-9s ", get_row_name(lp, i));
 7068               		.loc 2 530 0
 7069 2e3c 2981      		ldd r18,Y+1
 7070 2e3e 3A81      		ldd r19,Y+2
 7071 2e40 8D81      		ldd r24,Y+5
 7072 2e42 9E81      		ldd r25,Y+6
 7073 2e44 B901      		movw r22,r18
 7074 2e46 0E94 0000 		call get_row_name
 7075 2e4a 9C01      		movw r18,r24
 7076 2e4c 8D81      		ldd r24,Y+5
 7077 2e4e 9E81      		ldd r25,Y+6
 7078 2e50 845A      		subi r24,-92
 7079 2e52 9D4F      		sbci r25,-3
 7080 2e54 FC01      		movw r30,r24
 7081 2e56 8081      		ld r24,Z
 7082 2e58 9181      		ldd r25,Z+1
 7083 2e5a 432F      		mov r20,r19
 7084 2e5c 4F93      		push r20
 7085 2e5e 2F93      		push r18
 7086 2e60 20E0      		ldi r18,lo8(.LC63)
 7087 2e62 30E0      		ldi r19,hi8(.LC63)
 7088 2e64 232F      		mov r18,r19
 7089 2e66 2F93      		push r18
 7090 2e68 20E0      		ldi r18,lo8(.LC63)
 7091 2e6a 30E0      		ldi r19,hi8(.LC63)
 7092 2e6c 2F93      		push r18
 7093 2e6e 292F      		mov r18,r25
 7094 2e70 2F93      		push r18
 7095 2e72 8F93      		push r24
 7096 2e74 0E94 0000 		call fprintf
 7097 2e78 0F90      		pop __tmp_reg__
 7098 2e7a 0F90      		pop __tmp_reg__
 7099 2e7c 0F90      		pop __tmp_reg__
 7100 2e7e 0F90      		pop __tmp_reg__
 7101 2e80 0F90      		pop __tmp_reg__
 7102 2e82 0F90      		pop __tmp_reg__
 531:lp_solve_5.5/lp_report.c ****     for(j = 1; j <= lp->columns; j++)
 7103               		.loc 2 531 0
 7104 2e84 81E0      		ldi r24,lo8(1)
 7105 2e86 90E0      		ldi r25,0
 7106 2e88 9C83      		std Y+4,r25
 7107 2e8a 8B83      		std Y+3,r24
 7108 2e8c 00C0      		rjmp .L192
 7109               	.L193:
 532:lp_solve_5.5/lp_report.c ****       fprintf(lp->outstream, "%8g ", get_mat(lp, i, j));
 7110               		.loc 2 532 0 discriminator 3
 7111 2e8e 4B81      		ldd r20,Y+3
 7112 2e90 5C81      		ldd r21,Y+4
 7113 2e92 2981      		ldd r18,Y+1
 7114 2e94 3A81      		ldd r19,Y+2
 7115 2e96 8D81      		ldd r24,Y+5
 7116 2e98 9E81      		ldd r25,Y+6
 7117 2e9a B901      		movw r22,r18
 7118 2e9c 0E94 0000 		call get_mat
 7119 2ea0 DC01      		movw r26,r24
 7120 2ea2 CB01      		movw r24,r22
 7121 2ea4 2D81      		ldd r18,Y+5
 7122 2ea6 3E81      		ldd r19,Y+6
 7123 2ea8 245A      		subi r18,-92
 7124 2eaa 3D4F      		sbci r19,-3
 7125 2eac F901      		movw r30,r18
 7126 2eae 2081      		ld r18,Z
 7127 2eb0 3181      		ldd r19,Z+1
 7128 2eb2 4B2F      		mov r20,r27
 7129 2eb4 4F93      		push r20
 7130 2eb6 4A2F      		mov r20,r26
 7131 2eb8 4F93      		push r20
 7132 2eba 492F      		mov r20,r25
 7133 2ebc 4F93      		push r20
 7134 2ebe 8F93      		push r24
 7135 2ec0 80E0      		ldi r24,lo8(.LC62)
 7136 2ec2 90E0      		ldi r25,hi8(.LC62)
 7137 2ec4 892F      		mov r24,r25
 7138 2ec6 8F93      		push r24
 7139 2ec8 80E0      		ldi r24,lo8(.LC62)
 7140 2eca 90E0      		ldi r25,hi8(.LC62)
 7141 2ecc 8F93      		push r24
 7142 2ece 832F      		mov r24,r19
 7143 2ed0 8F93      		push r24
 7144 2ed2 822F      		mov r24,r18
 7145 2ed4 8F93      		push r24
 7146 2ed6 0E94 0000 		call fprintf
 7147 2eda 8DB7      		in r24,__SP_L__
 7148 2edc 9EB7      		in r25,__SP_H__
 7149 2ede 0896      		adiw r24,8
 7150 2ee0 0FB6      		in __tmp_reg__,__SREG__
 7151 2ee2 F894      		cli
 7152 2ee4 DEBF      		out __SP_H__,r29
 7153 2ee6 0FBE      		out __SREG__,__tmp_reg__
 7154 2ee8 CDBF      		out __SP_L__,r28
 531:lp_solve_5.5/lp_report.c ****     for(j = 1; j <= lp->columns; j++)
 7155               		.loc 2 531 0 discriminator 3
 7156 2eea 8B81      		ldd r24,Y+3
 7157 2eec 9C81      		ldd r25,Y+4
 7158 2eee 0196      		adiw r24,1
 7159 2ef0 9C83      		std Y+4,r25
 7160 2ef2 8B83      		std Y+3,r24
 7161               	.L192:
 531:lp_solve_5.5/lp_report.c ****     for(j = 1; j <= lp->columns; j++)
 7162               		.loc 2 531 0 is_stmt 0 discriminator 1
 7163 2ef4 8D81      		ldd r24,Y+5
 7164 2ef6 9E81      		ldd r25,Y+6
 7165 2ef8 8451      		subi r24,20
 7166 2efa 9E4F      		sbci r25,-2
 7167 2efc FC01      		movw r30,r24
 7168 2efe 2081      		ld r18,Z
 7169 2f00 3181      		ldd r19,Z+1
 7170 2f02 8B81      		ldd r24,Y+3
 7171 2f04 9C81      		ldd r25,Y+4
 7172 2f06 2817      		cp r18,r24
 7173 2f08 3907      		cpc r19,r25
 7174 2f0a 04F4      		brge .L193
 533:lp_solve_5.5/lp_report.c ****     if(is_constr_type(lp, i, GE))
 7175               		.loc 2 533 0 is_stmt 1
 7176 2f0c 2981      		ldd r18,Y+1
 7177 2f0e 3A81      		ldd r19,Y+2
 7178 2f10 8D81      		ldd r24,Y+5
 7179 2f12 9E81      		ldd r25,Y+6
 7180 2f14 42E0      		ldi r20,lo8(2)
 7181 2f16 50E0      		ldi r21,0
 7182 2f18 B901      		movw r22,r18
 7183 2f1a 0E94 0000 		call is_constr_type
 7184 2f1e 8823      		tst r24
 7185 2f20 01F0      		breq .L194
 534:lp_solve_5.5/lp_report.c ****       fprintf(lp->outstream, ">= ");
 7186               		.loc 2 534 0
 7187 2f22 8D81      		ldd r24,Y+5
 7188 2f24 9E81      		ldd r25,Y+6
 7189 2f26 845A      		subi r24,-92
 7190 2f28 9D4F      		sbci r25,-3
 7191 2f2a FC01      		movw r30,r24
 7192 2f2c 8081      		ld r24,Z
 7193 2f2e 9181      		ldd r25,Z+1
 7194 2f30 9C01      		movw r18,r24
 7195 2f32 43E0      		ldi r20,lo8(3)
 7196 2f34 50E0      		ldi r21,0
 7197 2f36 61E0      		ldi r22,lo8(1)
 7198 2f38 70E0      		ldi r23,0
 7199 2f3a 80E0      		ldi r24,lo8(.LC64)
 7200 2f3c 90E0      		ldi r25,hi8(.LC64)
 7201 2f3e 0E94 0000 		call fwrite
 7202 2f42 00C0      		rjmp .L195
 7203               	.L194:
 535:lp_solve_5.5/lp_report.c ****     else if(is_constr_type(lp, i, LE))
 7204               		.loc 2 535 0
 7205 2f44 2981      		ldd r18,Y+1
 7206 2f46 3A81      		ldd r19,Y+2
 7207 2f48 8D81      		ldd r24,Y+5
 7208 2f4a 9E81      		ldd r25,Y+6
 7209 2f4c 41E0      		ldi r20,lo8(1)
 7210 2f4e 50E0      		ldi r21,0
 7211 2f50 B901      		movw r22,r18
 7212 2f52 0E94 0000 		call is_constr_type
 7213 2f56 8823      		tst r24
 7214 2f58 01F0      		breq .L196
 536:lp_solve_5.5/lp_report.c ****       fprintf(lp->outstream, "<= ");
 7215               		.loc 2 536 0
 7216 2f5a 8D81      		ldd r24,Y+5
 7217 2f5c 9E81      		ldd r25,Y+6
 7218 2f5e 845A      		subi r24,-92
 7219 2f60 9D4F      		sbci r25,-3
 7220 2f62 FC01      		movw r30,r24
 7221 2f64 8081      		ld r24,Z
 7222 2f66 9181      		ldd r25,Z+1
 7223 2f68 9C01      		movw r18,r24
 7224 2f6a 43E0      		ldi r20,lo8(3)
 7225 2f6c 50E0      		ldi r21,0
 7226 2f6e 61E0      		ldi r22,lo8(1)
 7227 2f70 70E0      		ldi r23,0
 7228 2f72 80E0      		ldi r24,lo8(.LC65)
 7229 2f74 90E0      		ldi r25,hi8(.LC65)
 7230 2f76 0E94 0000 		call fwrite
 7231 2f7a 00C0      		rjmp .L195
 7232               	.L196:
 537:lp_solve_5.5/lp_report.c ****     else
 538:lp_solve_5.5/lp_report.c ****       fprintf(lp->outstream, " = ");
 7233               		.loc 2 538 0
 7234 2f7c 8D81      		ldd r24,Y+5
 7235 2f7e 9E81      		ldd r25,Y+6
 7236 2f80 845A      		subi r24,-92
 7237 2f82 9D4F      		sbci r25,-3
 7238 2f84 FC01      		movw r30,r24
 7239 2f86 8081      		ld r24,Z
 7240 2f88 9181      		ldd r25,Z+1
 7241 2f8a 9C01      		movw r18,r24
 7242 2f8c 43E0      		ldi r20,lo8(3)
 7243 2f8e 50E0      		ldi r21,0
 7244 2f90 61E0      		ldi r22,lo8(1)
 7245 2f92 70E0      		ldi r23,0
 7246 2f94 80E0      		ldi r24,lo8(.LC66)
 7247 2f96 90E0      		ldi r25,hi8(.LC66)
 7248 2f98 0E94 0000 		call fwrite
 7249               	.L195:
 539:lp_solve_5.5/lp_report.c ****     fprintf(lp->outstream, "%8g", get_rh(lp, i));
 7250               		.loc 2 539 0
 7251 2f9c 2981      		ldd r18,Y+1
 7252 2f9e 3A81      		ldd r19,Y+2
 7253 2fa0 8D81      		ldd r24,Y+5
 7254 2fa2 9E81      		ldd r25,Y+6
 7255 2fa4 B901      		movw r22,r18
 7256 2fa6 0E94 0000 		call get_rh
 7257 2faa DC01      		movw r26,r24
 7258 2fac CB01      		movw r24,r22
 7259 2fae 2D81      		ldd r18,Y+5
 7260 2fb0 3E81      		ldd r19,Y+6
 7261 2fb2 245A      		subi r18,-92
 7262 2fb4 3D4F      		sbci r19,-3
 7263 2fb6 F901      		movw r30,r18
 7264 2fb8 2081      		ld r18,Z
 7265 2fba 3181      		ldd r19,Z+1
 7266 2fbc 4B2F      		mov r20,r27
 7267 2fbe 4F93      		push r20
 7268 2fc0 4A2F      		mov r20,r26
 7269 2fc2 4F93      		push r20
 7270 2fc4 492F      		mov r20,r25
 7271 2fc6 4F93      		push r20
 7272 2fc8 8F93      		push r24
 7273 2fca 80E0      		ldi r24,lo8(.LC67)
 7274 2fcc 90E0      		ldi r25,hi8(.LC67)
 7275 2fce 892F      		mov r24,r25
 7276 2fd0 8F93      		push r24
 7277 2fd2 80E0      		ldi r24,lo8(.LC67)
 7278 2fd4 90E0      		ldi r25,hi8(.LC67)
 7279 2fd6 8F93      		push r24
 7280 2fd8 832F      		mov r24,r19
 7281 2fda 8F93      		push r24
 7282 2fdc 822F      		mov r24,r18
 7283 2fde 8F93      		push r24
 7284 2fe0 0E94 0000 		call fprintf
 7285 2fe4 8DB7      		in r24,__SP_L__
 7286 2fe6 9EB7      		in r25,__SP_H__
 7287 2fe8 0896      		adiw r24,8
 7288 2fea 0FB6      		in __tmp_reg__,__SREG__
 7289 2fec F894      		cli
 7290 2fee DEBF      		out __SP_H__,r29
 7291 2ff0 0FBE      		out __SREG__,__tmp_reg__
 7292 2ff2 CDBF      		out __SP_L__,r28
 540:lp_solve_5.5/lp_report.c **** 
 541:lp_solve_5.5/lp_report.c ****     if(is_constr_type(lp, i, GE)) {
 7293               		.loc 2 541 0
 7294 2ff4 2981      		ldd r18,Y+1
 7295 2ff6 3A81      		ldd r19,Y+2
 7296 2ff8 8D81      		ldd r24,Y+5
 7297 2ffa 9E81      		ldd r25,Y+6
 7298 2ffc 42E0      		ldi r20,lo8(2)
 7299 2ffe 50E0      		ldi r21,0
 7300 3000 B901      		movw r22,r18
 7301 3002 0E94 0000 		call is_constr_type
 7302 3006 8823      		tst r24
 7303 3008 01F4      		brne .+2
 7304 300a 00C0      		rjmp .L197
 542:lp_solve_5.5/lp_report.c ****       if(get_rh_upper(lp, i) < lp->infinite)
 7305               		.loc 2 542 0
 7306 300c 2981      		ldd r18,Y+1
 7307 300e 3A81      		ldd r19,Y+2
 7308 3010 8D81      		ldd r24,Y+5
 7309 3012 9E81      		ldd r25,Y+6
 7310 3014 B901      		movw r22,r18
 7311 3016 0E94 0000 		call get_rh_upper
 7312 301a 7B01      		movw r14,r22
 7313 301c 8C01      		movw r16,r24
 7314 301e 8D81      		ldd r24,Y+5
 7315 3020 9E81      		ldd r25,Y+6
 7316 3022 865F      		subi r24,-10
 7317 3024 9C4F      		sbci r25,-4
 7318 3026 FC01      		movw r30,r24
 7319 3028 8081      		ld r24,Z
 7320 302a 9181      		ldd r25,Z+1
 7321 302c A281      		ldd r26,Z+2
 7322 302e B381      		ldd r27,Z+3
 7323 3030 9C01      		movw r18,r24
 7324 3032 AD01      		movw r20,r26
 7325 3034 C801      		movw r24,r16
 7326 3036 B701      		movw r22,r14
 7327 3038 0E94 0000 		call __ltsf2
 7328 303c 8823      		tst r24
 7329 303e 04F0      		brlt .+2
 7330 3040 00C0      		rjmp .L200
 543:lp_solve_5.5/lp_report.c ****         fprintf(lp->outstream, "  %s = %8g", "upbo", get_rh_upper(lp, i));
 7331               		.loc 2 543 0
 7332 3042 2981      		ldd r18,Y+1
 7333 3044 3A81      		ldd r19,Y+2
 7334 3046 8D81      		ldd r24,Y+5
 7335 3048 9E81      		ldd r25,Y+6
 7336 304a B901      		movw r22,r18
 7337 304c 0E94 0000 		call get_rh_upper
 7338 3050 DC01      		movw r26,r24
 7339 3052 CB01      		movw r24,r22
 7340 3054 2D81      		ldd r18,Y+5
 7341 3056 3E81      		ldd r19,Y+6
 7342 3058 245A      		subi r18,-92
 7343 305a 3D4F      		sbci r19,-3
 7344 305c F901      		movw r30,r18
 7345 305e 2081      		ld r18,Z
 7346 3060 3181      		ldd r19,Z+1
 7347 3062 4B2F      		mov r20,r27
 7348 3064 4F93      		push r20
 7349 3066 4A2F      		mov r20,r26
 7350 3068 4F93      		push r20
 7351 306a 492F      		mov r20,r25
 7352 306c 4F93      		push r20
 7353 306e 8F93      		push r24
 7354 3070 80E0      		ldi r24,lo8(.LC34)
 7355 3072 90E0      		ldi r25,hi8(.LC34)
 7356 3074 892F      		mov r24,r25
 7357 3076 8F93      		push r24
 7358 3078 80E0      		ldi r24,lo8(.LC34)
 7359 307a 90E0      		ldi r25,hi8(.LC34)
 7360 307c 8F93      		push r24
 7361 307e 80E0      		ldi r24,lo8(.LC68)
 7362 3080 90E0      		ldi r25,hi8(.LC68)
 7363 3082 892F      		mov r24,r25
 7364 3084 8F93      		push r24
 7365 3086 80E0      		ldi r24,lo8(.LC68)
 7366 3088 90E0      		ldi r25,hi8(.LC68)
 7367 308a 8F93      		push r24
 7368 308c 832F      		mov r24,r19
 7369 308e 8F93      		push r24
 7370 3090 822F      		mov r24,r18
 7371 3092 8F93      		push r24
 7372 3094 0E94 0000 		call fprintf
 7373 3098 8DB7      		in r24,__SP_L__
 7374 309a 9EB7      		in r25,__SP_H__
 7375 309c 0A96      		adiw r24,10
 7376 309e 0FB6      		in __tmp_reg__,__SREG__
 7377 30a0 F894      		cli
 7378 30a2 DEBF      		out __SP_H__,r29
 7379 30a4 0FBE      		out __SREG__,__tmp_reg__
 7380 30a6 CDBF      		out __SP_L__,r28
 7381 30a8 00C0      		rjmp .L200
 7382               	.L197:
 544:lp_solve_5.5/lp_report.c ****     }
 545:lp_solve_5.5/lp_report.c ****     else if(is_constr_type(lp, i, LE)) {
 7383               		.loc 2 545 0
 7384 30aa 2981      		ldd r18,Y+1
 7385 30ac 3A81      		ldd r19,Y+2
 7386 30ae 8D81      		ldd r24,Y+5
 7387 30b0 9E81      		ldd r25,Y+6
 7388 30b2 41E0      		ldi r20,lo8(1)
 7389 30b4 50E0      		ldi r21,0
 7390 30b6 B901      		movw r22,r18
 7391 30b8 0E94 0000 		call is_constr_type
 7392 30bc 8823      		tst r24
 7393 30be 01F4      		brne .+2
 7394 30c0 00C0      		rjmp .L200
 546:lp_solve_5.5/lp_report.c ****       if(get_rh_lower(lp, i) > -lp->infinite)
 7395               		.loc 2 546 0
 7396 30c2 2981      		ldd r18,Y+1
 7397 30c4 3A81      		ldd r19,Y+2
 7398 30c6 8D81      		ldd r24,Y+5
 7399 30c8 9E81      		ldd r25,Y+6
 7400 30ca B901      		movw r22,r18
 7401 30cc 0E94 0000 		call get_rh_lower
 7402 30d0 7B01      		movw r14,r22
 7403 30d2 8C01      		movw r16,r24
 7404 30d4 8D81      		ldd r24,Y+5
 7405 30d6 9E81      		ldd r25,Y+6
 7406 30d8 865F      		subi r24,-10
 7407 30da 9C4F      		sbci r25,-4
 7408 30dc FC01      		movw r30,r24
 7409 30de 8081      		ld r24,Z
 7410 30e0 9181      		ldd r25,Z+1
 7411 30e2 A281      		ldd r26,Z+2
 7412 30e4 B381      		ldd r27,Z+3
 7413 30e6 B058      		subi r27,0x80
 7414 30e8 9C01      		movw r18,r24
 7415 30ea AD01      		movw r20,r26
 7416 30ec C801      		movw r24,r16
 7417 30ee B701      		movw r22,r14
 7418 30f0 0E94 0000 		call __gtsf2
 7419 30f4 1816      		cp __zero_reg__,r24
 7420 30f6 04F4      		brge .L200
 547:lp_solve_5.5/lp_report.c ****         fprintf(lp->outstream, "  %s = %8g", "lowbo", get_rh_lower(lp, i));
 7421               		.loc 2 547 0
 7422 30f8 2981      		ldd r18,Y+1
 7423 30fa 3A81      		ldd r19,Y+2
 7424 30fc 8D81      		ldd r24,Y+5
 7425 30fe 9E81      		ldd r25,Y+6
 7426 3100 B901      		movw r22,r18
 7427 3102 0E94 0000 		call get_rh_lower
 7428 3106 DC01      		movw r26,r24
 7429 3108 CB01      		movw r24,r22
 7430 310a 2D81      		ldd r18,Y+5
 7431 310c 3E81      		ldd r19,Y+6
 7432 310e 245A      		subi r18,-92
 7433 3110 3D4F      		sbci r19,-3
 7434 3112 F901      		movw r30,r18
 7435 3114 2081      		ld r18,Z
 7436 3116 3181      		ldd r19,Z+1
 7437 3118 4B2F      		mov r20,r27
 7438 311a 4F93      		push r20
 7439 311c 4A2F      		mov r20,r26
 7440 311e 4F93      		push r20
 7441 3120 492F      		mov r20,r25
 7442 3122 4F93      		push r20
 7443 3124 8F93      		push r24
 7444 3126 80E0      		ldi r24,lo8(.LC33)
 7445 3128 90E0      		ldi r25,hi8(.LC33)
 7446 312a 892F      		mov r24,r25
 7447 312c 8F93      		push r24
 7448 312e 80E0      		ldi r24,lo8(.LC33)
 7449 3130 90E0      		ldi r25,hi8(.LC33)
 7450 3132 8F93      		push r24
 7451 3134 80E0      		ldi r24,lo8(.LC68)
 7452 3136 90E0      		ldi r25,hi8(.LC68)
 7453 3138 892F      		mov r24,r25
 7454 313a 8F93      		push r24
 7455 313c 80E0      		ldi r24,lo8(.LC68)
 7456 313e 90E0      		ldi r25,hi8(.LC68)
 7457 3140 8F93      		push r24
 7458 3142 832F      		mov r24,r19
 7459 3144 8F93      		push r24
 7460 3146 822F      		mov r24,r18
 7461 3148 8F93      		push r24
 7462 314a 0E94 0000 		call fprintf
 7463 314e 8DB7      		in r24,__SP_L__
 7464 3150 9EB7      		in r25,__SP_H__
 7465 3152 0A96      		adiw r24,10
 7466 3154 0FB6      		in __tmp_reg__,__SREG__
 7467 3156 F894      		cli
 7468 3158 DEBF      		out __SP_H__,r29
 7469 315a 0FBE      		out __SREG__,__tmp_reg__
 7470 315c CDBF      		out __SP_L__,r28
 7471               	.L200:
 548:lp_solve_5.5/lp_report.c ****     }
 549:lp_solve_5.5/lp_report.c ****     fprintf(lp->outstream, "\n");
 7472               		.loc 2 549 0 discriminator 2
 7473 315e 8D81      		ldd r24,Y+5
 7474 3160 9E81      		ldd r25,Y+6
 7475 3162 845A      		subi r24,-92
 7476 3164 9D4F      		sbci r25,-3
 7477 3166 FC01      		movw r30,r24
 7478 3168 8081      		ld r24,Z
 7479 316a 9181      		ldd r25,Z+1
 7480 316c BC01      		movw r22,r24
 7481 316e 8AE0      		ldi r24,lo8(10)
 7482 3170 90E0      		ldi r25,0
 7483 3172 0E94 0000 		call fputc
 529:lp_solve_5.5/lp_report.c ****     fprintf(lp->outstream, "%-9s ", get_row_name(lp, i));
 7484               		.loc 2 529 0 discriminator 2
 7485 3176 8981      		ldd r24,Y+1
 7486 3178 9A81      		ldd r25,Y+2
 7487 317a 0196      		adiw r24,1
 7488 317c 9A83      		std Y+2,r25
 7489 317e 8983      		std Y+1,r24
 7490               	.L191:
 529:lp_solve_5.5/lp_report.c ****     fprintf(lp->outstream, "%-9s ", get_row_name(lp, i));
 7491               		.loc 2 529 0 is_stmt 0 discriminator 1
 7492 3180 8D81      		ldd r24,Y+5
 7493 3182 9E81      		ldd r25,Y+6
 7494 3184 8651      		subi r24,22
 7495 3186 9E4F      		sbci r25,-2
 7496 3188 FC01      		movw r30,r24
 7497 318a 2081      		ld r18,Z
 7498 318c 3181      		ldd r19,Z+1
 7499 318e 8981      		ldd r24,Y+1
 7500 3190 9A81      		ldd r25,Y+2
 7501 3192 2817      		cp r18,r24
 7502 3194 3907      		cpc r19,r25
 7503 3196 04F0      		brlt .+2
 7504 3198 00C0      		rjmp .L202
 550:lp_solve_5.5/lp_report.c ****   }
 551:lp_solve_5.5/lp_report.c **** 
 552:lp_solve_5.5/lp_report.c ****   fprintf(lp->outstream, "Type      ");
 7505               		.loc 2 552 0 is_stmt 1
 7506 319a 8D81      		ldd r24,Y+5
 7507 319c 9E81      		ldd r25,Y+6
 7508 319e 845A      		subi r24,-92
 7509 31a0 9D4F      		sbci r25,-3
 7510 31a2 FC01      		movw r30,r24
 7511 31a4 8081      		ld r24,Z
 7512 31a6 9181      		ldd r25,Z+1
 7513 31a8 9C01      		movw r18,r24
 7514 31aa 4AE0      		ldi r20,lo8(10)
 7515 31ac 50E0      		ldi r21,0
 7516 31ae 61E0      		ldi r22,lo8(1)
 7517 31b0 70E0      		ldi r23,0
 7518 31b2 80E0      		ldi r24,lo8(.LC69)
 7519 31b4 90E0      		ldi r25,hi8(.LC69)
 7520 31b6 0E94 0000 		call fwrite
 553:lp_solve_5.5/lp_report.c ****   for(i = 1; i <= lp->columns; i++) {
 7521               		.loc 2 553 0
 7522 31ba 81E0      		ldi r24,lo8(1)
 7523 31bc 90E0      		ldi r25,0
 7524 31be 9A83      		std Y+2,r25
 7525 31c0 8983      		std Y+1,r24
 7526 31c2 00C0      		rjmp .L203
 7527               	.L206:
 554:lp_solve_5.5/lp_report.c ****     if(is_int(lp,i))
 7528               		.loc 2 554 0
 7529 31c4 2981      		ldd r18,Y+1
 7530 31c6 3A81      		ldd r19,Y+2
 7531 31c8 8D81      		ldd r24,Y+5
 7532 31ca 9E81      		ldd r25,Y+6
 7533 31cc B901      		movw r22,r18
 7534 31ce 0E94 0000 		call is_int
 7535 31d2 8823      		tst r24
 7536 31d4 01F0      		breq .L204
 555:lp_solve_5.5/lp_report.c ****       fprintf(lp->outstream, "     Int ");
 7537               		.loc 2 555 0
 7538 31d6 8D81      		ldd r24,Y+5
 7539 31d8 9E81      		ldd r25,Y+6
 7540 31da 845A      		subi r24,-92
 7541 31dc 9D4F      		sbci r25,-3
 7542 31de FC01      		movw r30,r24
 7543 31e0 8081      		ld r24,Z
 7544 31e2 9181      		ldd r25,Z+1
 7545 31e4 9C01      		movw r18,r24
 7546 31e6 49E0      		ldi r20,lo8(9)
 7547 31e8 50E0      		ldi r21,0
 7548 31ea 61E0      		ldi r22,lo8(1)
 7549 31ec 70E0      		ldi r23,0
 7550 31ee 80E0      		ldi r24,lo8(.LC70)
 7551 31f0 90E0      		ldi r25,hi8(.LC70)
 7552 31f2 0E94 0000 		call fwrite
 7553 31f6 00C0      		rjmp .L205
 7554               	.L204:
 556:lp_solve_5.5/lp_report.c ****     else
 557:lp_solve_5.5/lp_report.c ****       fprintf(lp->outstream, "    Real ");
 7555               		.loc 2 557 0
 7556 31f8 8D81      		ldd r24,Y+5
 7557 31fa 9E81      		ldd r25,Y+6
 7558 31fc 845A      		subi r24,-92
 7559 31fe 9D4F      		sbci r25,-3
 7560 3200 FC01      		movw r30,r24
 7561 3202 8081      		ld r24,Z
 7562 3204 9181      		ldd r25,Z+1
 7563 3206 9C01      		movw r18,r24
 7564 3208 49E0      		ldi r20,lo8(9)
 7565 320a 50E0      		ldi r21,0
 7566 320c 61E0      		ldi r22,lo8(1)
 7567 320e 70E0      		ldi r23,0
 7568 3210 80E0      		ldi r24,lo8(.LC71)
 7569 3212 90E0      		ldi r25,hi8(.LC71)
 7570 3214 0E94 0000 		call fwrite
 7571               	.L205:
 553:lp_solve_5.5/lp_report.c ****     if(is_int(lp,i))
 7572               		.loc 2 553 0 discriminator 2
 7573 3218 8981      		ldd r24,Y+1
 7574 321a 9A81      		ldd r25,Y+2
 7575 321c 0196      		adiw r24,1
 7576 321e 9A83      		std Y+2,r25
 7577 3220 8983      		std Y+1,r24
 7578               	.L203:
 553:lp_solve_5.5/lp_report.c ****     if(is_int(lp,i))
 7579               		.loc 2 553 0 is_stmt 0 discriminator 1
 7580 3222 8D81      		ldd r24,Y+5
 7581 3224 9E81      		ldd r25,Y+6
 7582 3226 8451      		subi r24,20
 7583 3228 9E4F      		sbci r25,-2
 7584 322a FC01      		movw r30,r24
 7585 322c 2081      		ld r18,Z
 7586 322e 3181      		ldd r19,Z+1
 7587 3230 8981      		ldd r24,Y+1
 7588 3232 9A81      		ldd r25,Y+2
 7589 3234 2817      		cp r18,r24
 7590 3236 3907      		cpc r19,r25
 7591 3238 04F4      		brge .L206
 558:lp_solve_5.5/lp_report.c ****   }
 559:lp_solve_5.5/lp_report.c **** 
 560:lp_solve_5.5/lp_report.c ****   fprintf(lp->outstream, "\nupbo      ");
 7592               		.loc 2 560 0 is_stmt 1
 7593 323a 8D81      		ldd r24,Y+5
 7594 323c 9E81      		ldd r25,Y+6
 7595 323e 845A      		subi r24,-92
 7596 3240 9D4F      		sbci r25,-3
 7597 3242 FC01      		movw r30,r24
 7598 3244 8081      		ld r24,Z
 7599 3246 9181      		ldd r25,Z+1
 7600 3248 9C01      		movw r18,r24
 7601 324a 4BE0      		ldi r20,lo8(11)
 7602 324c 50E0      		ldi r21,0
 7603 324e 61E0      		ldi r22,lo8(1)
 7604 3250 70E0      		ldi r23,0
 7605 3252 80E0      		ldi r24,lo8(.LC72)
 7606 3254 90E0      		ldi r25,hi8(.LC72)
 7607 3256 0E94 0000 		call fwrite
 561:lp_solve_5.5/lp_report.c ****   for(i = 1; i <= lp->columns; i++)
 7608               		.loc 2 561 0
 7609 325a 81E0      		ldi r24,lo8(1)
 7610 325c 90E0      		ldi r25,0
 7611 325e 9A83      		std Y+2,r25
 7612 3260 8983      		std Y+1,r24
 7613 3262 00C0      		rjmp .L207
 7614               	.L211:
 562:lp_solve_5.5/lp_report.c ****     if(get_upbo(lp, i) >= lp->infinite)
 7615               		.loc 2 562 0
 7616 3264 2981      		ldd r18,Y+1
 7617 3266 3A81      		ldd r19,Y+2
 7618 3268 8D81      		ldd r24,Y+5
 7619 326a 9E81      		ldd r25,Y+6
 7620 326c B901      		movw r22,r18
 7621 326e 0E94 0000 		call get_upbo
 7622 3272 7B01      		movw r14,r22
 7623 3274 8C01      		movw r16,r24
 7624 3276 8D81      		ldd r24,Y+5
 7625 3278 9E81      		ldd r25,Y+6
 7626 327a 865F      		subi r24,-10
 7627 327c 9C4F      		sbci r25,-4
 7628 327e FC01      		movw r30,r24
 7629 3280 8081      		ld r24,Z
 7630 3282 9181      		ldd r25,Z+1
 7631 3284 A281      		ldd r26,Z+2
 7632 3286 B381      		ldd r27,Z+3
 7633 3288 9C01      		movw r18,r24
 7634 328a AD01      		movw r20,r26
 7635 328c C801      		movw r24,r16
 7636 328e B701      		movw r22,r14
 7637 3290 0E94 0000 		call __gesf2
 7638 3294 8823      		tst r24
 7639 3296 04F0      		brlt .L221
 563:lp_solve_5.5/lp_report.c ****       fprintf(lp->outstream, "     Inf ");
 7640               		.loc 2 563 0
 7641 3298 8D81      		ldd r24,Y+5
 7642 329a 9E81      		ldd r25,Y+6
 7643 329c 845A      		subi r24,-92
 7644 329e 9D4F      		sbci r25,-3
 7645 32a0 FC01      		movw r30,r24
 7646 32a2 8081      		ld r24,Z
 7647 32a4 9181      		ldd r25,Z+1
 7648 32a6 9C01      		movw r18,r24
 7649 32a8 49E0      		ldi r20,lo8(9)
 7650 32aa 50E0      		ldi r21,0
 7651 32ac 61E0      		ldi r22,lo8(1)
 7652 32ae 70E0      		ldi r23,0
 7653 32b0 80E0      		ldi r24,lo8(.LC73)
 7654 32b2 90E0      		ldi r25,hi8(.LC73)
 7655 32b4 0E94 0000 		call fwrite
 7656 32b8 00C0      		rjmp .L210
 7657               	.L221:
 564:lp_solve_5.5/lp_report.c ****     else
 565:lp_solve_5.5/lp_report.c ****       fprintf(lp->outstream, "%8g ", get_upbo(lp, i));
 7658               		.loc 2 565 0
 7659 32ba 2981      		ldd r18,Y+1
 7660 32bc 3A81      		ldd r19,Y+2
 7661 32be 8D81      		ldd r24,Y+5
 7662 32c0 9E81      		ldd r25,Y+6
 7663 32c2 B901      		movw r22,r18
 7664 32c4 0E94 0000 		call get_upbo
 7665 32c8 DC01      		movw r26,r24
 7666 32ca CB01      		movw r24,r22
 7667 32cc 2D81      		ldd r18,Y+5
 7668 32ce 3E81      		ldd r19,Y+6
 7669 32d0 245A      		subi r18,-92
 7670 32d2 3D4F      		sbci r19,-3
 7671 32d4 F901      		movw r30,r18
 7672 32d6 2081      		ld r18,Z
 7673 32d8 3181      		ldd r19,Z+1
 7674 32da 4B2F      		mov r20,r27
 7675 32dc 4F93      		push r20
 7676 32de 4A2F      		mov r20,r26
 7677 32e0 4F93      		push r20
 7678 32e2 492F      		mov r20,r25
 7679 32e4 4F93      		push r20
 7680 32e6 8F93      		push r24
 7681 32e8 80E0      		ldi r24,lo8(.LC62)
 7682 32ea 90E0      		ldi r25,hi8(.LC62)
 7683 32ec 892F      		mov r24,r25
 7684 32ee 8F93      		push r24
 7685 32f0 80E0      		ldi r24,lo8(.LC62)
 7686 32f2 90E0      		ldi r25,hi8(.LC62)
 7687 32f4 8F93      		push r24
 7688 32f6 832F      		mov r24,r19
 7689 32f8 8F93      		push r24
 7690 32fa 822F      		mov r24,r18
 7691 32fc 8F93      		push r24
 7692 32fe 0E94 0000 		call fprintf
 7693 3302 8DB7      		in r24,__SP_L__
 7694 3304 9EB7      		in r25,__SP_H__
 7695 3306 0896      		adiw r24,8
 7696 3308 0FB6      		in __tmp_reg__,__SREG__
 7697 330a F894      		cli
 7698 330c DEBF      		out __SP_H__,r29
 7699 330e 0FBE      		out __SREG__,__tmp_reg__
 7700 3310 CDBF      		out __SP_L__,r28
 7701               	.L210:
 561:lp_solve_5.5/lp_report.c ****     if(get_upbo(lp, i) >= lp->infinite)
 7702               		.loc 2 561 0 discriminator 2
 7703 3312 8981      		ldd r24,Y+1
 7704 3314 9A81      		ldd r25,Y+2
 7705 3316 0196      		adiw r24,1
 7706 3318 9A83      		std Y+2,r25
 7707 331a 8983      		std Y+1,r24
 7708               	.L207:
 561:lp_solve_5.5/lp_report.c ****     if(get_upbo(lp, i) >= lp->infinite)
 7709               		.loc 2 561 0 is_stmt 0 discriminator 1
 7710 331c 8D81      		ldd r24,Y+5
 7711 331e 9E81      		ldd r25,Y+6
 7712 3320 8451      		subi r24,20
 7713 3322 9E4F      		sbci r25,-2
 7714 3324 FC01      		movw r30,r24
 7715 3326 2081      		ld r18,Z
 7716 3328 3181      		ldd r19,Z+1
 7717 332a 8981      		ldd r24,Y+1
 7718 332c 9A81      		ldd r25,Y+2
 7719 332e 2817      		cp r18,r24
 7720 3330 3907      		cpc r19,r25
 7721 3332 04F0      		brlt .+2
 7722 3334 00C0      		rjmp .L211
 566:lp_solve_5.5/lp_report.c ****   fprintf(lp->outstream, "\nlowbo     ");
 7723               		.loc 2 566 0 is_stmt 1
 7724 3336 8D81      		ldd r24,Y+5
 7725 3338 9E81      		ldd r25,Y+6
 7726 333a 845A      		subi r24,-92
 7727 333c 9D4F      		sbci r25,-3
 7728 333e FC01      		movw r30,r24
 7729 3340 8081      		ld r24,Z
 7730 3342 9181      		ldd r25,Z+1
 7731 3344 9C01      		movw r18,r24
 7732 3346 4BE0      		ldi r20,lo8(11)
 7733 3348 50E0      		ldi r21,0
 7734 334a 61E0      		ldi r22,lo8(1)
 7735 334c 70E0      		ldi r23,0
 7736 334e 80E0      		ldi r24,lo8(.LC74)
 7737 3350 90E0      		ldi r25,hi8(.LC74)
 7738 3352 0E94 0000 		call fwrite
 567:lp_solve_5.5/lp_report.c ****   for(i = 1; i <= lp->columns; i++)
 7739               		.loc 2 567 0
 7740 3356 81E0      		ldi r24,lo8(1)
 7741 3358 90E0      		ldi r25,0
 7742 335a 9A83      		std Y+2,r25
 7743 335c 8983      		std Y+1,r24
 7744 335e 00C0      		rjmp .L212
 7745               	.L216:
 568:lp_solve_5.5/lp_report.c ****     if(get_lowbo(lp, i) <= -lp->infinite)
 7746               		.loc 2 568 0
 7747 3360 2981      		ldd r18,Y+1
 7748 3362 3A81      		ldd r19,Y+2
 7749 3364 8D81      		ldd r24,Y+5
 7750 3366 9E81      		ldd r25,Y+6
 7751 3368 B901      		movw r22,r18
 7752 336a 0E94 0000 		call get_lowbo
 7753 336e 7B01      		movw r14,r22
 7754 3370 8C01      		movw r16,r24
 7755 3372 8D81      		ldd r24,Y+5
 7756 3374 9E81      		ldd r25,Y+6
 7757 3376 865F      		subi r24,-10
 7758 3378 9C4F      		sbci r25,-4
 7759 337a FC01      		movw r30,r24
 7760 337c 8081      		ld r24,Z
 7761 337e 9181      		ldd r25,Z+1
 7762 3380 A281      		ldd r26,Z+2
 7763 3382 B381      		ldd r27,Z+3
 7764 3384 B058      		subi r27,0x80
 7765 3386 9C01      		movw r18,r24
 7766 3388 AD01      		movw r20,r26
 7767 338a C801      		movw r24,r16
 7768 338c B701      		movw r22,r14
 7769 338e 0E94 0000 		call __lesf2
 7770 3392 1816      		cp __zero_reg__,r24
 7771 3394 04F0      		brlt .L222
 569:lp_solve_5.5/lp_report.c ****       fprintf(lp->outstream, "    -Inf ");
 7772               		.loc 2 569 0
 7773 3396 8D81      		ldd r24,Y+5
 7774 3398 9E81      		ldd r25,Y+6
 7775 339a 845A      		subi r24,-92
 7776 339c 9D4F      		sbci r25,-3
 7777 339e FC01      		movw r30,r24
 7778 33a0 8081      		ld r24,Z
 7779 33a2 9181      		ldd r25,Z+1
 7780 33a4 9C01      		movw r18,r24
 7781 33a6 49E0      		ldi r20,lo8(9)
 7782 33a8 50E0      		ldi r21,0
 7783 33aa 61E0      		ldi r22,lo8(1)
 7784 33ac 70E0      		ldi r23,0
 7785 33ae 80E0      		ldi r24,lo8(.LC75)
 7786 33b0 90E0      		ldi r25,hi8(.LC75)
 7787 33b2 0E94 0000 		call fwrite
 7788 33b6 00C0      		rjmp .L215
 7789               	.L222:
 570:lp_solve_5.5/lp_report.c ****     else
 571:lp_solve_5.5/lp_report.c ****       fprintf(lp->outstream, "%8g ", get_lowbo(lp, i));
 7790               		.loc 2 571 0
 7791 33b8 2981      		ldd r18,Y+1
 7792 33ba 3A81      		ldd r19,Y+2
 7793 33bc 8D81      		ldd r24,Y+5
 7794 33be 9E81      		ldd r25,Y+6
 7795 33c0 B901      		movw r22,r18
 7796 33c2 0E94 0000 		call get_lowbo
 7797 33c6 DC01      		movw r26,r24
 7798 33c8 CB01      		movw r24,r22
 7799 33ca 2D81      		ldd r18,Y+5
 7800 33cc 3E81      		ldd r19,Y+6
 7801 33ce 245A      		subi r18,-92
 7802 33d0 3D4F      		sbci r19,-3
 7803 33d2 F901      		movw r30,r18
 7804 33d4 2081      		ld r18,Z
 7805 33d6 3181      		ldd r19,Z+1
 7806 33d8 4B2F      		mov r20,r27
 7807 33da 4F93      		push r20
 7808 33dc 4A2F      		mov r20,r26
 7809 33de 4F93      		push r20
 7810 33e0 492F      		mov r20,r25
 7811 33e2 4F93      		push r20
 7812 33e4 8F93      		push r24
 7813 33e6 80E0      		ldi r24,lo8(.LC62)
 7814 33e8 90E0      		ldi r25,hi8(.LC62)
 7815 33ea 892F      		mov r24,r25
 7816 33ec 8F93      		push r24
 7817 33ee 80E0      		ldi r24,lo8(.LC62)
 7818 33f0 90E0      		ldi r25,hi8(.LC62)
 7819 33f2 8F93      		push r24
 7820 33f4 832F      		mov r24,r19
 7821 33f6 8F93      		push r24
 7822 33f8 822F      		mov r24,r18
 7823 33fa 8F93      		push r24
 7824 33fc 0E94 0000 		call fprintf
 7825 3400 8DB7      		in r24,__SP_L__
 7826 3402 9EB7      		in r25,__SP_H__
 7827 3404 0896      		adiw r24,8
 7828 3406 0FB6      		in __tmp_reg__,__SREG__
 7829 3408 F894      		cli
 7830 340a DEBF      		out __SP_H__,r29
 7831 340c 0FBE      		out __SREG__,__tmp_reg__
 7832 340e CDBF      		out __SP_L__,r28
 7833               	.L215:
 567:lp_solve_5.5/lp_report.c ****     if(get_lowbo(lp, i) <= -lp->infinite)
 7834               		.loc 2 567 0 discriminator 2
 7835 3410 8981      		ldd r24,Y+1
 7836 3412 9A81      		ldd r25,Y+2
 7837 3414 0196      		adiw r24,1
 7838 3416 9A83      		std Y+2,r25
 7839 3418 8983      		std Y+1,r24
 7840               	.L212:
 567:lp_solve_5.5/lp_report.c ****     if(get_lowbo(lp, i) <= -lp->infinite)
 7841               		.loc 2 567 0 is_stmt 0 discriminator 1
 7842 341a 8D81      		ldd r24,Y+5
 7843 341c 9E81      		ldd r25,Y+6
 7844 341e 8451      		subi r24,20
 7845 3420 9E4F      		sbci r25,-2
 7846 3422 FC01      		movw r30,r24
 7847 3424 2081      		ld r18,Z
 7848 3426 3181      		ldd r19,Z+1
 7849 3428 8981      		ldd r24,Y+1
 7850 342a 9A81      		ldd r25,Y+2
 7851 342c 2817      		cp r18,r24
 7852 342e 3907      		cpc r19,r25
 7853 3430 04F0      		brlt .+2
 7854 3432 00C0      		rjmp .L216
 572:lp_solve_5.5/lp_report.c ****   fprintf(lp->outstream, "\n");
 7855               		.loc 2 572 0 is_stmt 1
 7856 3434 8D81      		ldd r24,Y+5
 7857 3436 9E81      		ldd r25,Y+6
 7858 3438 845A      		subi r24,-92
 7859 343a 9D4F      		sbci r25,-3
 7860 343c FC01      		movw r30,r24
 7861 343e 8081      		ld r24,Z
 7862 3440 9181      		ldd r25,Z+1
 7863 3442 BC01      		movw r22,r24
 7864 3444 8AE0      		ldi r24,lo8(10)
 7865 3446 90E0      		ldi r25,0
 7866 3448 0E94 0000 		call fputc
 573:lp_solve_5.5/lp_report.c **** 
 574:lp_solve_5.5/lp_report.c ****   fflush(lp->outstream);
 7867               		.loc 2 574 0
 7868 344c 8D81      		ldd r24,Y+5
 7869 344e 9E81      		ldd r25,Y+6
 7870 3450 845A      		subi r24,-92
 7871 3452 9D4F      		sbci r25,-3
 7872 3454 FC01      		movw r30,r24
 7873 3456 8081      		ld r24,Z
 7874 3458 9181      		ldd r25,Z+1
 7875 345a 0E94 0000 		call fflush
 7876 345e 00C0      		rjmp .L182
 7877               	.L223:
 516:lp_solve_5.5/lp_report.c **** 
 7878               		.loc 2 516 0
 7879 3460 0000      		nop
 7880               	.L182:
 7881               	/* epilogue start */
 575:lp_solve_5.5/lp_report.c **** }
 7882               		.loc 2 575 0
 7883 3462 2696      		adiw r28,6
 7884 3464 0FB6      		in __tmp_reg__,__SREG__
 7885 3466 F894      		cli
 7886 3468 DEBF      		out __SP_H__,r29
 7887 346a 0FBE      		out __SREG__,__tmp_reg__
 7888 346c CDBF      		out __SP_L__,r28
 7889 346e DF91      		pop r29
 7890 3470 CF91      		pop r28
 7891 3472 1F91      		pop r17
 7892 3474 0F91      		pop r16
 7893 3476 FF90      		pop r15
 7894 3478 EF90      		pop r14
 7895 347a 0895      		ret
 7896               		.cfi_endproc
 7897               	.LFE22:
 7899               		.section	.rodata
 7900               	.LC76:
 7901 0786 0A53 6361 		.string	"\nScale factors:\n"
 7901      6C65 2066 
 7901      6163 746F 
 7901      7273 3A0A 
 7901      00
 7902               	.LC77:
 7903 0797 252D 3230 		.string	"%-20s scaled at %g\n"
 7903      7320 7363 
 7903      616C 6564 
 7903      2061 7420 
 7903      2567 0A00 
 7904               		.text
 7905               	.global	REPORT_scales
 7907               	REPORT_scales:
 7908               	.LFB23:
 576:lp_solve_5.5/lp_report.c **** 
 577:lp_solve_5.5/lp_report.c **** /* Report the scaling factors used; extremely rarely used */
 578:lp_solve_5.5/lp_report.c **** void REPORT_scales(lprec *lp)
 579:lp_solve_5.5/lp_report.c **** {
 7909               		.loc 2 579 0
 7910               		.cfi_startproc
 7911 347c CF92      		push r12
 7912               	.LCFI124:
 7913               		.cfi_def_cfa_offset 3
 7914               		.cfi_offset 12, -2
 7915 347e DF92      		push r13
 7916               	.LCFI125:
 7917               		.cfi_def_cfa_offset 4
 7918               		.cfi_offset 13, -3
 7919 3480 EF92      		push r14
 7920               	.LCFI126:
 7921               		.cfi_def_cfa_offset 5
 7922               		.cfi_offset 14, -4
 7923 3482 FF92      		push r15
 7924               	.LCFI127:
 7925               		.cfi_def_cfa_offset 6
 7926               		.cfi_offset 15, -5
 7927 3484 CF93      		push r28
 7928               	.LCFI128:
 7929               		.cfi_def_cfa_offset 7
 7930               		.cfi_offset 28, -6
 7931 3486 DF93      		push r29
 7932               	.LCFI129:
 7933               		.cfi_def_cfa_offset 8
 7934               		.cfi_offset 29, -7
 7935 3488 00D0      		rcall .
 7936 348a 00D0      		rcall .
 7937 348c 00D0      		rcall .
 7938               	.LCFI130:
 7939               		.cfi_def_cfa_offset 14
 7940 348e CDB7      		in r28,__SP_L__
 7941 3490 DEB7      		in r29,__SP_H__
 7942               	.LCFI131:
 7943               		.cfi_def_cfa_register 28
 7944               	/* prologue: function */
 7945               	/* frame size = 6 */
 7946               	/* stack size = 12 */
 7947               	.L__stack_usage = 12
 7948 3492 9E83      		std Y+6,r25
 7949 3494 8D83      		std Y+5,r24
 580:lp_solve_5.5/lp_report.c ****   int i, colMax;
 581:lp_solve_5.5/lp_report.c **** 
 582:lp_solve_5.5/lp_report.c ****   colMax = lp->columns;
 7950               		.loc 2 582 0
 7951 3496 8D81      		ldd r24,Y+5
 7952 3498 9E81      		ldd r25,Y+6
 7953 349a 8451      		subi r24,20
 7954 349c 9E4F      		sbci r25,-2
 7955 349e FC01      		movw r30,r24
 7956 34a0 8081      		ld r24,Z
 7957 34a2 9181      		ldd r25,Z+1
 7958 34a4 9C83      		std Y+4,r25
 7959 34a6 8B83      		std Y+3,r24
 583:lp_solve_5.5/lp_report.c **** 
 584:lp_solve_5.5/lp_report.c ****   if(lp->outstream == NULL)
 7960               		.loc 2 584 0
 7961 34a8 8D81      		ldd r24,Y+5
 7962 34aa 9E81      		ldd r25,Y+6
 7963 34ac 845A      		subi r24,-92
 7964 34ae 9D4F      		sbci r25,-3
 7965 34b0 FC01      		movw r30,r24
 7966 34b2 8081      		ld r24,Z
 7967 34b4 9181      		ldd r25,Z+1
 7968 34b6 892B      		or r24,r25
 7969 34b8 01F4      		brne .+2
 7970 34ba 00C0      		rjmp .L232
 585:lp_solve_5.5/lp_report.c ****     return;
 586:lp_solve_5.5/lp_report.c **** 
 587:lp_solve_5.5/lp_report.c ****   if(lp->scaling_used) {
 7971               		.loc 2 587 0
 7972 34bc 8D81      		ldd r24,Y+5
 7973 34be 9E81      		ldd r25,Y+6
 7974 34c0 8A53      		subi r24,58
 7975 34c2 9D4F      		sbci r25,-3
 7976 34c4 FC01      		movw r30,r24
 7977 34c6 8081      		ld r24,Z
 7978 34c8 8823      		tst r24
 7979 34ca 01F4      		brne .+2
 7980 34cc 00C0      		rjmp .L227
 588:lp_solve_5.5/lp_report.c ****     fprintf(lp->outstream, "\nScale factors:\n");
 7981               		.loc 2 588 0
 7982 34ce 8D81      		ldd r24,Y+5
 7983 34d0 9E81      		ldd r25,Y+6
 7984 34d2 845A      		subi r24,-92
 7985 34d4 9D4F      		sbci r25,-3
 7986 34d6 FC01      		movw r30,r24
 7987 34d8 8081      		ld r24,Z
 7988 34da 9181      		ldd r25,Z+1
 7989 34dc 9C01      		movw r18,r24
 7990 34de 40E1      		ldi r20,lo8(16)
 7991 34e0 50E0      		ldi r21,0
 7992 34e2 61E0      		ldi r22,lo8(1)
 7993 34e4 70E0      		ldi r23,0
 7994 34e6 80E0      		ldi r24,lo8(.LC76)
 7995 34e8 90E0      		ldi r25,hi8(.LC76)
 7996 34ea 0E94 0000 		call fwrite
 589:lp_solve_5.5/lp_report.c ****     for(i = 0; i <= lp->rows + colMax; i++)
 7997               		.loc 2 589 0
 7998 34ee 1A82      		std Y+2,__zero_reg__
 7999 34f0 1982      		std Y+1,__zero_reg__
 8000 34f2 00C0      		rjmp .L228
 8001               	.L231:
 590:lp_solve_5.5/lp_report.c ****       fprintf(lp->outstream, "%-20s scaled at %g\n",
 591:lp_solve_5.5/lp_report.c ****               (i <= lp->rows) ? get_row_name(lp, i) : get_col_name(lp, i - lp->rows),
 592:lp_solve_5.5/lp_report.c ****         (double)lp->scalars[i]);
 8002               		.loc 2 592 0
 8003 34f4 8D81      		ldd r24,Y+5
 8004 34f6 9E81      		ldd r25,Y+6
 8005 34f8 8C53      		subi r24,60
 8006 34fa 9D4F      		sbci r25,-3
 8007 34fc FC01      		movw r30,r24
 8008 34fe 2081      		ld r18,Z
 8009 3500 3181      		ldd r19,Z+1
 8010 3502 8981      		ldd r24,Y+1
 8011 3504 9A81      		ldd r25,Y+2
 8012 3506 880F      		lsl r24
 8013 3508 991F      		rol r25
 8014 350a 880F      		lsl r24
 8015 350c 991F      		rol r25
 8016 350e 820F      		add r24,r18
 8017 3510 931F      		adc r25,r19
 590:lp_solve_5.5/lp_report.c ****       fprintf(lp->outstream, "%-20s scaled at %g\n",
 8018               		.loc 2 590 0
 8019 3512 FC01      		movw r30,r24
 8020 3514 C080      		ld r12,Z
 8021 3516 D180      		ldd r13,Z+1
 8022 3518 E280      		ldd r14,Z+2
 8023 351a F380      		ldd r15,Z+3
 591:lp_solve_5.5/lp_report.c ****         (double)lp->scalars[i]);
 8024               		.loc 2 591 0
 8025 351c 8D81      		ldd r24,Y+5
 8026 351e 9E81      		ldd r25,Y+6
 8027 3520 8651      		subi r24,22
 8028 3522 9E4F      		sbci r25,-2
 8029 3524 FC01      		movw r30,r24
 8030 3526 2081      		ld r18,Z
 8031 3528 3181      		ldd r19,Z+1
 590:lp_solve_5.5/lp_report.c ****       fprintf(lp->outstream, "%-20s scaled at %g\n",
 8032               		.loc 2 590 0
 8033 352a 8981      		ldd r24,Y+1
 8034 352c 9A81      		ldd r25,Y+2
 8035 352e 2817      		cp r18,r24
 8036 3530 3907      		cpc r19,r25
 8037 3532 04F0      		brlt .L229
 590:lp_solve_5.5/lp_report.c ****       fprintf(lp->outstream, "%-20s scaled at %g\n",
 8038               		.loc 2 590 0 is_stmt 0 discriminator 1
 8039 3534 2981      		ldd r18,Y+1
 8040 3536 3A81      		ldd r19,Y+2
 8041 3538 8D81      		ldd r24,Y+5
 8042 353a 9E81      		ldd r25,Y+6
 8043 353c B901      		movw r22,r18
 8044 353e 0E94 0000 		call get_row_name
 8045 3542 9C01      		movw r18,r24
 8046 3544 00C0      		rjmp .L230
 8047               	.L229:
 591:lp_solve_5.5/lp_report.c ****         (double)lp->scalars[i]);
 8048               		.loc 2 591 0 is_stmt 1 discriminator 2
 8049 3546 8D81      		ldd r24,Y+5
 8050 3548 9E81      		ldd r25,Y+6
 8051 354a 8651      		subi r24,22
 8052 354c 9E4F      		sbci r25,-2
 8053 354e FC01      		movw r30,r24
 8054 3550 8081      		ld r24,Z
 8055 3552 9181      		ldd r25,Z+1
 8056 3554 2981      		ldd r18,Y+1
 8057 3556 3A81      		ldd r19,Y+2
 8058 3558 281B      		sub r18,r24
 8059 355a 390B      		sbc r19,r25
 590:lp_solve_5.5/lp_report.c ****       fprintf(lp->outstream, "%-20s scaled at %g\n",
 8060               		.loc 2 590 0 discriminator 2
 8061 355c 8D81      		ldd r24,Y+5
 8062 355e 9E81      		ldd r25,Y+6
 8063 3560 B901      		movw r22,r18
 8064 3562 0E94 0000 		call get_col_name
 8065 3566 9C01      		movw r18,r24
 8066               	.L230:
 590:lp_solve_5.5/lp_report.c ****       fprintf(lp->outstream, "%-20s scaled at %g\n",
 8067               		.loc 2 590 0 is_stmt 0 discriminator 4
 8068 3568 8D81      		ldd r24,Y+5
 8069 356a 9E81      		ldd r25,Y+6
 8070 356c 845A      		subi r24,-92
 8071 356e 9D4F      		sbci r25,-3
 8072 3570 FC01      		movw r30,r24
 8073 3572 8081      		ld r24,Z
 8074 3574 9181      		ldd r25,Z+1
 8075 3576 4F2D      		mov r20,r15
 8076 3578 4F93      		push r20
 8077 357a 4E2D      		mov r20,r14
 8078 357c 4F93      		push r20
 8079 357e 4D2D      		mov r20,r13
 8080 3580 4F93      		push r20
 8081 3582 4C2D      		mov r20,r12
 8082 3584 4F93      		push r20
 8083 3586 432F      		mov r20,r19
 8084 3588 4F93      		push r20
 8085 358a 2F93      		push r18
 8086 358c 20E0      		ldi r18,lo8(.LC77)
 8087 358e 30E0      		ldi r19,hi8(.LC77)
 8088 3590 232F      		mov r18,r19
 8089 3592 2F93      		push r18
 8090 3594 20E0      		ldi r18,lo8(.LC77)
 8091 3596 30E0      		ldi r19,hi8(.LC77)
 8092 3598 2F93      		push r18
 8093 359a 292F      		mov r18,r25
 8094 359c 2F93      		push r18
 8095 359e 8F93      		push r24
 8096 35a0 0E94 0000 		call fprintf
 8097 35a4 8DB7      		in r24,__SP_L__
 8098 35a6 9EB7      		in r25,__SP_H__
 8099 35a8 0A96      		adiw r24,10
 8100 35aa 0FB6      		in __tmp_reg__,__SREG__
 8101 35ac F894      		cli
 8102 35ae DEBF      		out __SP_H__,r29
 8103 35b0 0FBE      		out __SREG__,__tmp_reg__
 8104 35b2 CDBF      		out __SP_L__,r28
 589:lp_solve_5.5/lp_report.c ****     for(i = 0; i <= lp->rows + colMax; i++)
 8105               		.loc 2 589 0 is_stmt 1 discriminator 4
 8106 35b4 8981      		ldd r24,Y+1
 8107 35b6 9A81      		ldd r25,Y+2
 8108 35b8 0196      		adiw r24,1
 8109 35ba 9A83      		std Y+2,r25
 8110 35bc 8983      		std Y+1,r24
 8111               	.L228:
 589:lp_solve_5.5/lp_report.c ****     for(i = 0; i <= lp->rows + colMax; i++)
 8112               		.loc 2 589 0 is_stmt 0 discriminator 2
 8113 35be 8D81      		ldd r24,Y+5
 8114 35c0 9E81      		ldd r25,Y+6
 8115 35c2 8651      		subi r24,22
 8116 35c4 9E4F      		sbci r25,-2
 8117 35c6 FC01      		movw r30,r24
 8118 35c8 2081      		ld r18,Z
 8119 35ca 3181      		ldd r19,Z+1
 8120 35cc 8B81      		ldd r24,Y+3
 8121 35ce 9C81      		ldd r25,Y+4
 8122 35d0 280F      		add r18,r24
 8123 35d2 391F      		adc r19,r25
 8124 35d4 8981      		ldd r24,Y+1
 8125 35d6 9A81      		ldd r25,Y+2
 8126 35d8 2817      		cp r18,r24
 8127 35da 3907      		cpc r19,r25
 8128 35dc 04F0      		brlt .+2
 8129 35de 00C0      		rjmp .L231
 8130               	.L227:
 593:lp_solve_5.5/lp_report.c ****   }
 594:lp_solve_5.5/lp_report.c ****   fflush(lp->outstream);
 8131               		.loc 2 594 0 is_stmt 1
 8132 35e0 8D81      		ldd r24,Y+5
 8133 35e2 9E81      		ldd r25,Y+6
 8134 35e4 845A      		subi r24,-92
 8135 35e6 9D4F      		sbci r25,-3
 8136 35e8 FC01      		movw r30,r24
 8137 35ea 8081      		ld r24,Z
 8138 35ec 9181      		ldd r25,Z+1
 8139 35ee 0E94 0000 		call fflush
 8140 35f2 00C0      		rjmp .L224
 8141               	.L232:
 585:lp_solve_5.5/lp_report.c **** 
 8142               		.loc 2 585 0
 8143 35f4 0000      		nop
 8144               	.L224:
 8145               	/* epilogue start */
 595:lp_solve_5.5/lp_report.c **** }
 8146               		.loc 2 595 0
 8147 35f6 2696      		adiw r28,6
 8148 35f8 0FB6      		in __tmp_reg__,__SREG__
 8149 35fa F894      		cli
 8150 35fc DEBF      		out __SP_H__,r29
 8151 35fe 0FBE      		out __SREG__,__tmp_reg__
 8152 3600 CDBF      		out __SP_L__,r28
 8153 3602 DF91      		pop r29
 8154 3604 CF91      		pop r28
 8155 3606 FF90      		pop r15
 8156 3608 EF90      		pop r14
 8157 360a DF90      		pop r13
 8158 360c CF90      		pop r12
 8159 360e 0895      		ret
 8160               		.cfi_endproc
 8161               	.LFE23:
 8163               	.global	__floatdisf
 8164               		.section	.rodata
 8165               	.LC78:
 8166 07ab 5461 626C 		.string	"Tableau at iter %.0f:\n"
 8166      6561 7520 
 8166      6174 2069 
 8166      7465 7220 
 8166      252E 3066 
 8167               	.LC79:
 8168 07c2 2531 3564 		.string	"%15d"
 8168      00
 8169               	.LC80:
 8170 07c7 2533 6400 		.string	"%3d"
 8171               	.LC81:
 8172 07cb 2020 2000 		.string	"   "
 8173               	.LC82:
 8174 07cf 2531 352E 		.string	"%15.7f"
 8174      3766 00
 8175               		.text
 8176               	.global	REPORT_tableau
 8178               	REPORT_tableau:
 8179               	.LFB24:
 596:lp_solve_5.5/lp_report.c **** 
 597:lp_solve_5.5/lp_report.c **** /* Report the traditional tableau corresponding to the current basis */
 598:lp_solve_5.5/lp_report.c **** MYBOOL REPORT_tableau(lprec *lp)
 599:lp_solve_5.5/lp_report.c **** {
 8180               		.loc 2 599 0
 8181               		.cfi_startproc
 8182 3610 8F92      		push r8
 8183               	.LCFI132:
 8184               		.cfi_def_cfa_offset 3
 8185               		.cfi_offset 8, -2
 8186 3612 9F92      		push r9
 8187               	.LCFI133:
 8188               		.cfi_def_cfa_offset 4
 8189               		.cfi_offset 9, -3
 8190 3614 AF92      		push r10
 8191               	.LCFI134:
 8192               		.cfi_def_cfa_offset 5
 8193               		.cfi_offset 10, -4
 8194 3616 BF92      		push r11
 8195               	.LCFI135:
 8196               		.cfi_def_cfa_offset 6
 8197               		.cfi_offset 11, -5
 8198 3618 CF92      		push r12
 8199               	.LCFI136:
 8200               		.cfi_def_cfa_offset 7
 8201               		.cfi_offset 12, -6
 8202 361a DF92      		push r13
 8203               	.LCFI137:
 8204               		.cfi_def_cfa_offset 8
 8205               		.cfi_offset 13, -7
 8206 361c EF92      		push r14
 8207               	.LCFI138:
 8208               		.cfi_def_cfa_offset 9
 8209               		.cfi_offset 14, -8
 8210 361e FF92      		push r15
 8211               	.LCFI139:
 8212               		.cfi_def_cfa_offset 10
 8213               		.cfi_offset 15, -9
 8214 3620 0F93      		push r16
 8215               	.LCFI140:
 8216               		.cfi_def_cfa_offset 11
 8217               		.cfi_offset 16, -10
 8218 3622 1F93      		push r17
 8219               	.LCFI141:
 8220               		.cfi_def_cfa_offset 12
 8221               		.cfi_offset 17, -11
 8222 3624 CF93      		push r28
 8223               	.LCFI142:
 8224               		.cfi_def_cfa_offset 13
 8225               		.cfi_offset 28, -12
 8226 3626 DF93      		push r29
 8227               	.LCFI143:
 8228               		.cfi_def_cfa_offset 14
 8229               		.cfi_offset 29, -13
 8230 3628 CDB7      		in r28,__SP_L__
 8231 362a DEB7      		in r29,__SP_H__
 8232               	.LCFI144:
 8233               		.cfi_def_cfa_register 28
 8234 362c 2C97      		sbiw r28,12
 8235               	.LCFI145:
 8236               		.cfi_def_cfa_offset 26
 8237 362e 0FB6      		in __tmp_reg__,__SREG__
 8238 3630 F894      		cli
 8239 3632 DEBF      		out __SP_H__,r29
 8240 3634 0FBE      		out __SREG__,__tmp_reg__
 8241 3636 CDBF      		out __SP_L__,r28
 8242               	/* prologue: function */
 8243               	/* frame size = 12 */
 8244               	/* stack size = 24 */
 8245               	.L__stack_usage = 24
 8246 3638 9C87      		std Y+12,r25
 8247 363a 8B87      		std Y+11,r24
 600:lp_solve_5.5/lp_report.c ****   int  j, row_nr, *coltarget;
 601:lp_solve_5.5/lp_report.c ****   REAL *prow = NULL;
 8248               		.loc 2 601 0
 8249 363c 1A86      		std Y+10,__zero_reg__
 8250 363e 1986      		std Y+9,__zero_reg__
 602:lp_solve_5.5/lp_report.c ****   FILE *stream = lp->outstream;
 8251               		.loc 2 602 0
 8252 3640 8B85      		ldd r24,Y+11
 8253 3642 9C85      		ldd r25,Y+12
 8254 3644 845A      		subi r24,-92
 8255 3646 9D4F      		sbci r25,-3
 8256 3648 FC01      		movw r30,r24
 8257 364a 8081      		ld r24,Z
 8258 364c 9181      		ldd r25,Z+1
 8259 364e 9E83      		std Y+6,r25
 8260 3650 8D83      		std Y+5,r24
 603:lp_solve_5.5/lp_report.c **** 
 604:lp_solve_5.5/lp_report.c ****   if(lp->outstream == NULL)
 8261               		.loc 2 604 0
 8262 3652 8B85      		ldd r24,Y+11
 8263 3654 9C85      		ldd r25,Y+12
 8264 3656 845A      		subi r24,-92
 8265 3658 9D4F      		sbci r25,-3
 8266 365a FC01      		movw r30,r24
 8267 365c 8081      		ld r24,Z
 8268 365e 9181      		ldd r25,Z+1
 8269 3660 892B      		or r24,r25
 8270 3662 01F4      		brne .L234
 605:lp_solve_5.5/lp_report.c ****     return(FALSE);
 8271               		.loc 2 605 0
 8272 3664 80E0      		ldi r24,0
 8273 3666 00C0      		rjmp .L276
 8274               	.L234:
 606:lp_solve_5.5/lp_report.c **** 
 607:lp_solve_5.5/lp_report.c ****   if(!lp->model_is_valid || !has_BFP(lp) ||
 8275               		.loc 2 607 0
 8276 3668 8B85      		ldd r24,Y+11
 8277 366a 9C85      		ldd r25,Y+12
 8278 366c 8450      		subi r24,4
 8279 366e 9E4F      		sbci r25,-2
 8280 3670 FC01      		movw r30,r24
 8281 3672 8081      		ld r24,Z
 8282 3674 8823      		tst r24
 8283 3676 01F0      		breq .L236
 8284               		.loc 2 607 0 is_stmt 0 discriminator 1
 8285 3678 8B85      		ldd r24,Y+11
 8286 367a 9C85      		ldd r25,Y+12
 8287 367c 0E94 0000 		call has_BFP
 8288 3680 8823      		tst r24
 8289 3682 01F0      		breq .L236
 608:lp_solve_5.5/lp_report.c ****      (get_total_iter(lp) == 0) || (lp->spx_status == NOTRUN)) {
 8290               		.loc 2 608 0 is_stmt 1 discriminator 2
 8291 3684 8B85      		ldd r24,Y+11
 8292 3686 9C85      		ldd r25,Y+12
 8293 3688 0E94 0000 		call get_total_iter
 8294 368c A22E      		mov r10,r18
 8295 368e B32E      		mov r11,r19
 8296 3690 C42E      		mov r12,r20
 8297 3692 D52E      		mov r13,r21
 8298 3694 E62E      		mov r14,r22
 8299 3696 F72E      		mov r15,r23
 8300 3698 082F      		mov r16,r24
 8301 369a 192F      		mov r17,r25
 607:lp_solve_5.5/lp_report.c ****      (get_total_iter(lp) == 0) || (lp->spx_status == NOTRUN)) {
 8302               		.loc 2 607 0 discriminator 2
 8303 369c 2A2D      		mov r18,r10
 8304 369e 3B2D      		mov r19,r11
 8305 36a0 4C2D      		mov r20,r12
 8306 36a2 5D2D      		mov r21,r13
 8307 36a4 6E2D      		mov r22,r14
 8308 36a6 7F2D      		mov r23,r15
 8309 36a8 802F      		mov r24,r16
 8310 36aa 912F      		mov r25,r17
 8311 36ac A0E0      		ldi r26,0
 8312 36ae 0E94 0000 		call __cmpdi2_s8
 8313 36b2 01F0      		breq .L236
 8314               		.loc 2 608 0
 8315 36b4 8B85      		ldd r24,Y+11
 8316 36b6 9C85      		ldd r25,Y+12
 8317 36b8 8A5F      		subi r24,-6
 8318 36ba 9D4F      		sbci r25,-3
 8319 36bc FC01      		movw r30,r24
 8320 36be 8081      		ld r24,Z
 8321 36c0 9181      		ldd r25,Z+1
 8322 36c2 0196      		adiw r24,1
 8323 36c4 01F4      		brne .L237
 8324               	.L236:
 609:lp_solve_5.5/lp_report.c ****     lp->spx_status = NOTRUN;
 8325               		.loc 2 609 0
 8326 36c6 8B85      		ldd r24,Y+11
 8327 36c8 9C85      		ldd r25,Y+12
 8328 36ca 8A5F      		subi r24,-6
 8329 36cc 9D4F      		sbci r25,-3
 8330 36ce 2FEF      		ldi r18,lo8(-1)
 8331 36d0 3FEF      		ldi r19,lo8(-1)
 8332 36d2 FC01      		movw r30,r24
 8333 36d4 3183      		std Z+1,r19
 8334 36d6 2083      		st Z,r18
 610:lp_solve_5.5/lp_report.c ****     return(FALSE);
 8335               		.loc 2 610 0
 8336 36d8 80E0      		ldi r24,0
 8337 36da 00C0      		rjmp .L276
 8338               	.L237:
 611:lp_solve_5.5/lp_report.c ****   }
 612:lp_solve_5.5/lp_report.c ****   if(!allocREAL(lp, &prow,lp->sum + 1, TRUE)) {
 8339               		.loc 2 612 0
 8340 36dc 8B85      		ldd r24,Y+11
 8341 36de 9C85      		ldd r25,Y+12
 8342 36e0 8851      		subi r24,24
 8343 36e2 9E4F      		sbci r25,-2
 8344 36e4 FC01      		movw r30,r24
 8345 36e6 8081      		ld r24,Z
 8346 36e8 9181      		ldd r25,Z+1
 8347 36ea AC01      		movw r20,r24
 8348 36ec 4F5F      		subi r20,-1
 8349 36ee 5F4F      		sbci r21,-1
 8350 36f0 BE01      		movw r22,r28
 8351 36f2 675F      		subi r22,-9
 8352 36f4 7F4F      		sbci r23,-1
 8353 36f6 8B85      		ldd r24,Y+11
 8354 36f8 9C85      		ldd r25,Y+12
 8355 36fa 21E0      		ldi r18,lo8(1)
 8356 36fc 0E94 0000 		call allocREAL
 8357 3700 8823      		tst r24
 8358 3702 01F4      		brne .L238
 613:lp_solve_5.5/lp_report.c ****     lp->spx_status = NOMEMORY;
 8359               		.loc 2 613 0
 8360 3704 8B85      		ldd r24,Y+11
 8361 3706 9C85      		ldd r25,Y+12
 8362 3708 8A5F      		subi r24,-6
 8363 370a 9D4F      		sbci r25,-3
 8364 370c 2EEF      		ldi r18,lo8(-2)
 8365 370e 3FEF      		ldi r19,lo8(-1)
 8366 3710 FC01      		movw r30,r24
 8367 3712 3183      		std Z+1,r19
 8368 3714 2083      		st Z,r18
 614:lp_solve_5.5/lp_report.c ****     return(FALSE);
 8369               		.loc 2 614 0
 8370 3716 80E0      		ldi r24,0
 8371 3718 00C0      		rjmp .L276
 8372               	.L238:
 615:lp_solve_5.5/lp_report.c ****   }
 616:lp_solve_5.5/lp_report.c **** 
 617:lp_solve_5.5/lp_report.c ****   fprintf(stream, "\n");
 8373               		.loc 2 617 0
 8374 371a 8D81      		ldd r24,Y+5
 8375 371c 9E81      		ldd r25,Y+6
 8376 371e BC01      		movw r22,r24
 8377 3720 8AE0      		ldi r24,lo8(10)
 8378 3722 90E0      		ldi r25,0
 8379 3724 0E94 0000 		call fputc
 618:lp_solve_5.5/lp_report.c ****   fprintf(stream, "Tableau at iter %.0f:\n", (double) get_total_iter(lp));
 8380               		.loc 2 618 0
 8381 3728 8B85      		ldd r24,Y+11
 8382 372a 9C85      		ldd r25,Y+12
 8383 372c 0E94 0000 		call get_total_iter
 8384 3730 A22E      		mov r10,r18
 8385 3732 B32E      		mov r11,r19
 8386 3734 C42E      		mov r12,r20
 8387 3736 D52E      		mov r13,r21
 8388 3738 E62E      		mov r14,r22
 8389 373a F72E      		mov r15,r23
 8390 373c 082F      		mov r16,r24
 8391 373e 192F      		mov r17,r25
 8392 3740 2A2D      		mov r18,r10
 8393 3742 3B2D      		mov r19,r11
 8394 3744 4C2D      		mov r20,r12
 8395 3746 5D2D      		mov r21,r13
 8396 3748 6E2D      		mov r22,r14
 8397 374a 7F2D      		mov r23,r15
 8398 374c 802F      		mov r24,r16
 8399 374e 912F      		mov r25,r17
 8400 3750 0E94 0000 		call __floatdisf
 8401 3754 DC01      		movw r26,r24
 8402 3756 CB01      		movw r24,r22
 8403 3758 2B2F      		mov r18,r27
 8404 375a 2F93      		push r18
 8405 375c 2A2F      		mov r18,r26
 8406 375e 2F93      		push r18
 8407 3760 292F      		mov r18,r25
 8408 3762 2F93      		push r18
 8409 3764 8F93      		push r24
 8410 3766 80E0      		ldi r24,lo8(.LC78)
 8411 3768 90E0      		ldi r25,hi8(.LC78)
 8412 376a 892F      		mov r24,r25
 8413 376c 8F93      		push r24
 8414 376e 80E0      		ldi r24,lo8(.LC78)
 8415 3770 90E0      		ldi r25,hi8(.LC78)
 8416 3772 8F93      		push r24
 8417 3774 8E81      		ldd r24,Y+6
 8418 3776 8F93      		push r24
 8419 3778 8D81      		ldd r24,Y+5
 8420 377a 8F93      		push r24
 8421 377c 0E94 0000 		call fprintf
 8422 3780 8DB7      		in r24,__SP_L__
 8423 3782 9EB7      		in r25,__SP_H__
 8424 3784 0896      		adiw r24,8
 8425 3786 0FB6      		in __tmp_reg__,__SREG__
 8426 3788 F894      		cli
 8427 378a DEBF      		out __SP_H__,r29
 8428 378c 0FBE      		out __SREG__,__tmp_reg__
 8429 378e CDBF      		out __SP_L__,r28
 619:lp_solve_5.5/lp_report.c **** 
 620:lp_solve_5.5/lp_report.c ****   for(j = 1; j <= lp->sum; j++)
 8430               		.loc 2 620 0
 8431 3790 81E0      		ldi r24,lo8(1)
 8432 3792 90E0      		ldi r25,0
 8433 3794 9A83      		std Y+2,r25
 8434 3796 8983      		std Y+1,r24
 8435 3798 00C0      		rjmp .L239
 8436               	.L248:
 621:lp_solve_5.5/lp_report.c ****     if (!lp->is_basic[j])
 8437               		.loc 2 621 0
 8438 379a 8B85      		ldd r24,Y+11
 8439 379c 9C85      		ldd r25,Y+12
 8440 379e 8053      		subi r24,48
 8441 37a0 9D4F      		sbci r25,-3
 8442 37a2 FC01      		movw r30,r24
 8443 37a4 2081      		ld r18,Z
 8444 37a6 3181      		ldd r19,Z+1
 8445 37a8 8981      		ldd r24,Y+1
 8446 37aa 9A81      		ldd r25,Y+2
 8447 37ac 820F      		add r24,r18
 8448 37ae 931F      		adc r25,r19
 8449 37b0 FC01      		movw r30,r24
 8450 37b2 8081      		ld r24,Z
 8451 37b4 8823      		tst r24
 8452 37b6 01F0      		breq .+2
 8453 37b8 00C0      		rjmp .L240
 622:lp_solve_5.5/lp_report.c ****       fprintf(stream, "%15d", (j <= lp->rows ?
 8454               		.loc 2 622 0
 8455 37ba 8B85      		ldd r24,Y+11
 8456 37bc 9C85      		ldd r25,Y+12
 8457 37be 8651      		subi r24,22
 8458 37c0 9E4F      		sbci r25,-2
 8459 37c2 FC01      		movw r30,r24
 8460 37c4 2081      		ld r18,Z
 8461 37c6 3181      		ldd r19,Z+1
 623:lp_solve_5.5/lp_report.c ****                                (j + lp->columns) * ((lp->orig_upbo[j] == 0) ||
 624:lp_solve_5.5/lp_report.c ****                                                     (is_chsign(lp, j)) ? 1 : -1) : j - lp->rows) *
 8462               		.loc 2 624 0
 8463 37c8 8981      		ldd r24,Y+1
 8464 37ca 9A81      		ldd r25,Y+2
 8465 37cc 2817      		cp r18,r24
 8466 37ce 3907      		cpc r19,r25
 8467 37d0 04F4      		brge .+2
 8468 37d2 00C0      		rjmp .L241
 623:lp_solve_5.5/lp_report.c ****                                (j + lp->columns) * ((lp->orig_upbo[j] == 0) ||
 8469               		.loc 2 623 0 discriminator 1
 8470 37d4 8B85      		ldd r24,Y+11
 8471 37d6 9C85      		ldd r25,Y+12
 8472 37d8 8451      		subi r24,20
 8473 37da 9E4F      		sbci r25,-2
 8474 37dc FC01      		movw r30,r24
 8475 37de 2081      		ld r18,Z
 8476 37e0 3181      		ldd r19,Z+1
 8477 37e2 8981      		ldd r24,Y+1
 8478 37e4 9A81      		ldd r25,Y+2
 8479 37e6 8901      		movw r16,r18
 8480 37e8 080F      		add r16,r24
 8481 37ea 191F      		adc r17,r25
 8482 37ec 8B85      		ldd r24,Y+11
 8483 37ee 9C85      		ldd r25,Y+12
 8484 37f0 8255      		subi r24,82
 8485 37f2 9D4F      		sbci r25,-3
 8486 37f4 FC01      		movw r30,r24
 8487 37f6 2081      		ld r18,Z
 8488 37f8 3181      		ldd r19,Z+1
 8489 37fa 8981      		ldd r24,Y+1
 8490 37fc 9A81      		ldd r25,Y+2
 8491 37fe 880F      		lsl r24
 8492 3800 991F      		rol r25
 8493 3802 880F      		lsl r24
 8494 3804 991F      		rol r25
 8495 3806 820F      		add r24,r18
 8496 3808 931F      		adc r25,r19
 8497 380a FC01      		movw r30,r24
 8498 380c 8081      		ld r24,Z
 8499 380e 9181      		ldd r25,Z+1
 8500 3810 A281      		ldd r26,Z+2
 8501 3812 B381      		ldd r27,Z+3
 8502               		.loc 2 624 0 discriminator 1
 8503 3814 20E0      		ldi r18,0
 8504 3816 30E0      		ldi r19,0
 8505 3818 A901      		movw r20,r18
 8506 381a BC01      		movw r22,r24
 8507 381c CD01      		movw r24,r26
 8508 381e 0E94 0000 		call __eqsf2
 8509 3822 8823      		tst r24
 8510 3824 01F0      		breq .L242
 8511               		.loc 2 624 0 is_stmt 0 discriminator 4
 8512 3826 2981      		ldd r18,Y+1
 8513 3828 3A81      		ldd r19,Y+2
 8514 382a 8B85      		ldd r24,Y+11
 8515 382c 9C85      		ldd r25,Y+12
 8516 382e B901      		movw r22,r18
 8517 3830 0E94 0000 		call is_chsign
 623:lp_solve_5.5/lp_report.c ****                                (j + lp->columns) * ((lp->orig_upbo[j] == 0) ||
 8518               		.loc 2 623 0 is_stmt 1 discriminator 4
 8519 3834 8823      		tst r24
 8520 3836 01F0      		breq .L243
 8521               	.L242:
 8522               		.loc 2 624 0 discriminator 3
 8523 3838 81E0      		ldi r24,lo8(1)
 8524 383a 90E0      		ldi r25,0
 8525 383c 00C0      		rjmp .L244
 8526               	.L243:
 8527               		.loc 2 624 0 is_stmt 0 discriminator 6
 8528 383e 8FEF      		ldi r24,lo8(-1)
 8529 3840 9FEF      		ldi r25,lo8(-1)
 8530               	.L244:
 8531               		.loc 2 624 0 discriminator 5
 8532 3842 089F      		mul r16,r24
 8533 3844 9001      		movw r18,r0
 8534 3846 099F      		mul r16,r25
 8535 3848 300D      		add r19,r0
 8536 384a 189F      		mul r17,r24
 8537 384c 300D      		add r19,r0
 8538 384e 1124      		clr r1
 8539 3850 00C0      		rjmp .L245
 8540               	.L241:
 8541               		.loc 2 624 0 discriminator 2
 8542 3852 8B85      		ldd r24,Y+11
 8543 3854 9C85      		ldd r25,Y+12
 8544 3856 8651      		subi r24,22
 8545 3858 9E4F      		sbci r25,-2
 8546 385a FC01      		movw r30,r24
 8547 385c 8081      		ld r24,Z
 8548 385e 9181      		ldd r25,Z+1
 8549 3860 2981      		ldd r18,Y+1
 8550 3862 3A81      		ldd r19,Y+2
 8551 3864 281B      		sub r18,r24
 8552 3866 390B      		sbc r19,r25
 8553               	.L245:
 625:lp_solve_5.5/lp_report.c ****                               (lp->is_lower[j] ? 1 : -1));
 8554               		.loc 2 625 0 is_stmt 1
 8555 3868 8B85      		ldd r24,Y+11
 8556 386a 9C85      		ldd r25,Y+12
 8557 386c 8E52      		subi r24,46
 8558 386e 9D4F      		sbci r25,-3
 8559 3870 FC01      		movw r30,r24
 8560 3872 4081      		ld r20,Z
 8561 3874 5181      		ldd r21,Z+1
 8562 3876 8981      		ldd r24,Y+1
 8563 3878 9A81      		ldd r25,Y+2
 8564 387a 840F      		add r24,r20
 8565 387c 951F      		adc r25,r21
 8566 387e FC01      		movw r30,r24
 8567 3880 8081      		ld r24,Z
 8568 3882 8823      		tst r24
 8569 3884 01F0      		breq .L246
 8570               		.loc 2 625 0 is_stmt 0 discriminator 1
 8571 3886 81E0      		ldi r24,lo8(1)
 8572 3888 90E0      		ldi r25,0
 8573 388a 00C0      		rjmp .L247
 8574               	.L246:
 8575               		.loc 2 625 0 discriminator 2
 8576 388c 8FEF      		ldi r24,lo8(-1)
 8577 388e 9FEF      		ldi r25,lo8(-1)
 8578               	.L247:
 622:lp_solve_5.5/lp_report.c ****       fprintf(stream, "%15d", (j <= lp->rows ?
 8579               		.loc 2 622 0 is_stmt 1
 8580 3890 289F      		mul r18,r24
 8581 3892 A001      		movw r20,r0
 8582 3894 299F      		mul r18,r25
 8583 3896 500D      		add r21,r0
 8584 3898 389F      		mul r19,r24
 8585 389a 500D      		add r21,r0
 8586 389c 1124      		clr r1
 8587 389e 852F      		mov r24,r21
 8588 38a0 8F93      		push r24
 8589 38a2 842F      		mov r24,r20
 8590 38a4 8F93      		push r24
 8591 38a6 80E0      		ldi r24,lo8(.LC79)
 8592 38a8 90E0      		ldi r25,hi8(.LC79)
 8593 38aa 892F      		mov r24,r25
 8594 38ac 8F93      		push r24
 8595 38ae 80E0      		ldi r24,lo8(.LC79)
 8596 38b0 90E0      		ldi r25,hi8(.LC79)
 8597 38b2 8F93      		push r24
 8598 38b4 8E81      		ldd r24,Y+6
 8599 38b6 8F93      		push r24
 8600 38b8 8D81      		ldd r24,Y+5
 8601 38ba 8F93      		push r24
 8602 38bc 0E94 0000 		call fprintf
 8603 38c0 0F90      		pop __tmp_reg__
 8604 38c2 0F90      		pop __tmp_reg__
 8605 38c4 0F90      		pop __tmp_reg__
 8606 38c6 0F90      		pop __tmp_reg__
 8607 38c8 0F90      		pop __tmp_reg__
 8608 38ca 0F90      		pop __tmp_reg__
 8609               	.L240:
 620:lp_solve_5.5/lp_report.c ****     if (!lp->is_basic[j])
 8610               		.loc 2 620 0 discriminator 2
 8611 38cc 8981      		ldd r24,Y+1
 8612 38ce 9A81      		ldd r25,Y+2
 8613 38d0 0196      		adiw r24,1
 8614 38d2 9A83      		std Y+2,r25
 8615 38d4 8983      		std Y+1,r24
 8616               	.L239:
 620:lp_solve_5.5/lp_report.c ****     if (!lp->is_basic[j])
 8617               		.loc 2 620 0 is_stmt 0 discriminator 1
 8618 38d6 8B85      		ldd r24,Y+11
 8619 38d8 9C85      		ldd r25,Y+12
 8620 38da 8851      		subi r24,24
 8621 38dc 9E4F      		sbci r25,-2
 8622 38de FC01      		movw r30,r24
 8623 38e0 2081      		ld r18,Z
 8624 38e2 3181      		ldd r19,Z+1
 8625 38e4 8981      		ldd r24,Y+1
 8626 38e6 9A81      		ldd r25,Y+2
 8627 38e8 2817      		cp r18,r24
 8628 38ea 3907      		cpc r19,r25
 8629 38ec 04F0      		brlt .+2
 8630 38ee 00C0      		rjmp .L248
 626:lp_solve_5.5/lp_report.c ****   fprintf(stream, "\n");
 8631               		.loc 2 626 0 is_stmt 1
 8632 38f0 8D81      		ldd r24,Y+5
 8633 38f2 9E81      		ldd r25,Y+6
 8634 38f4 BC01      		movw r22,r24
 8635 38f6 8AE0      		ldi r24,lo8(10)
 8636 38f8 90E0      		ldi r25,0
 8637 38fa 0E94 0000 		call fputc
 627:lp_solve_5.5/lp_report.c **** 
 628:lp_solve_5.5/lp_report.c ****   coltarget = (int *) mempool_obtainVector(lp->workarrays, lp->columns+1, sizeof(*coltarget));
 8638               		.loc 2 628 0
 8639 38fe 8B85      		ldd r24,Y+11
 8640 3900 9C85      		ldd r25,Y+12
 8641 3902 8451      		subi r24,20
 8642 3904 9E4F      		sbci r25,-2
 8643 3906 FC01      		movw r30,r24
 8644 3908 8081      		ld r24,Z
 8645 390a 9181      		ldd r25,Z+1
 8646 390c 9C01      		movw r18,r24
 8647 390e 2F5F      		subi r18,-1
 8648 3910 3F4F      		sbci r19,-1
 8649 3912 8B85      		ldd r24,Y+11
 8650 3914 9C85      		ldd r25,Y+12
 8651 3916 8859      		subi r24,-104
 8652 3918 9C4F      		sbci r25,-4
 8653 391a FC01      		movw r30,r24
 8654 391c 8081      		ld r24,Z
 8655 391e 9181      		ldd r25,Z+1
 8656 3920 42E0      		ldi r20,lo8(2)
 8657 3922 50E0      		ldi r21,0
 8658 3924 B901      		movw r22,r18
 8659 3926 0E94 0000 		call mempool_obtainVector
 8660 392a 9887      		std Y+8,r25
 8661 392c 8F83      		std Y+7,r24
 629:lp_solve_5.5/lp_report.c ****   if(!get_colIndexA(lp, SCAN_USERVARS+USE_NONBASICVARS, coltarget, FALSE)) {
 8662               		.loc 2 629 0
 8663 392e 4F81      		ldd r20,Y+7
 8664 3930 5885      		ldd r21,Y+8
 8665 3932 8B85      		ldd r24,Y+11
 8666 3934 9C85      		ldd r25,Y+12
 8667 3936 20E0      		ldi r18,0
 8668 3938 61E2      		ldi r22,lo8(33)
 8669 393a 70E0      		ldi r23,0
 8670 393c 0E94 0000 		call get_colIndexA
 8671 3940 8823      		tst r24
 8672 3942 01F4      		brne .L249
 630:lp_solve_5.5/lp_report.c ****     mempool_releaseVector(lp->workarrays, (char *) coltarget, FALSE);
 8673               		.loc 2 630 0
 8674 3944 8B85      		ldd r24,Y+11
 8675 3946 9C85      		ldd r25,Y+12
 8676 3948 8859      		subi r24,-104
 8677 394a 9C4F      		sbci r25,-4
 8678 394c FC01      		movw r30,r24
 8679 394e 8081      		ld r24,Z
 8680 3950 9181      		ldd r25,Z+1
 8681 3952 2F81      		ldd r18,Y+7
 8682 3954 3885      		ldd r19,Y+8
 8683 3956 40E0      		ldi r20,0
 8684 3958 B901      		movw r22,r18
 8685 395a 0E94 0000 		call mempool_releaseVector
 631:lp_solve_5.5/lp_report.c ****     return(FALSE);
 8686               		.loc 2 631 0
 8687 395e 80E0      		ldi r24,0
 8688 3960 00C0      		rjmp .L276
 8689               	.L249:
 632:lp_solve_5.5/lp_report.c ****   }
 633:lp_solve_5.5/lp_report.c ****   for(row_nr = 1; (row_nr <= lp->rows + 1); row_nr++) {
 8690               		.loc 2 633 0
 8691 3962 81E0      		ldi r24,lo8(1)
 8692 3964 90E0      		ldi r25,0
 8693 3966 9C83      		std Y+4,r25
 8694 3968 8B83      		std Y+3,r24
 8695 396a 00C0      		rjmp .L250
 8696               	.L274:
 634:lp_solve_5.5/lp_report.c ****     if (row_nr <= lp->rows)
 8697               		.loc 2 634 0
 8698 396c 8B85      		ldd r24,Y+11
 8699 396e 9C85      		ldd r25,Y+12
 8700 3970 8651      		subi r24,22
 8701 3972 9E4F      		sbci r25,-2
 8702 3974 FC01      		movw r30,r24
 8703 3976 2081      		ld r18,Z
 8704 3978 3181      		ldd r19,Z+1
 8705 397a 8B81      		ldd r24,Y+3
 8706 397c 9C81      		ldd r25,Y+4
 8707 397e 2817      		cp r18,r24
 8708 3980 3907      		cpc r19,r25
 8709 3982 04F4      		brge .+2
 8710 3984 00C0      		rjmp .L251
 635:lp_solve_5.5/lp_report.c ****       fprintf(stream, "%3d", (lp->var_basic[row_nr] <= lp->rows ?
 8711               		.loc 2 635 0
 8712 3986 8B85      		ldd r24,Y+11
 8713 3988 9C85      		ldd r25,Y+12
 8714 398a 8453      		subi r24,52
 8715 398c 9D4F      		sbci r25,-3
 8716 398e FC01      		movw r30,r24
 8717 3990 2081      		ld r18,Z
 8718 3992 3181      		ldd r19,Z+1
 8719 3994 8B81      		ldd r24,Y+3
 8720 3996 9C81      		ldd r25,Y+4
 8721 3998 880F      		lsl r24
 8722 399a 991F      		rol r25
 8723 399c 820F      		add r24,r18
 8724 399e 931F      		adc r25,r19
 8725 39a0 FC01      		movw r30,r24
 8726 39a2 2081      		ld r18,Z
 8727 39a4 3181      		ldd r19,Z+1
 8728 39a6 8B85      		ldd r24,Y+11
 8729 39a8 9C85      		ldd r25,Y+12
 8730 39aa 8651      		subi r24,22
 8731 39ac 9E4F      		sbci r25,-2
 8732 39ae FC01      		movw r30,r24
 8733 39b0 8081      		ld r24,Z
 8734 39b2 9181      		ldd r25,Z+1
 636:lp_solve_5.5/lp_report.c ****                               (lp->var_basic[row_nr] + lp->columns) * ((lp->orig_upbo[lp->var_basic
 637:lp_solve_5.5/lp_report.c ****                                                                        (is_chsign(lp, lp->var_basic
 8735               		.loc 2 637 0
 8736 39b4 8217      		cp r24,r18
 8737 39b6 9307      		cpc r25,r19
 8738 39b8 04F4      		brge .+2
 8739 39ba 00C0      		rjmp .L252
 636:lp_solve_5.5/lp_report.c ****                               (lp->var_basic[row_nr] + lp->columns) * ((lp->orig_upbo[lp->var_basic
 8740               		.loc 2 636 0 discriminator 1
 8741 39bc 8B85      		ldd r24,Y+11
 8742 39be 9C85      		ldd r25,Y+12
 8743 39c0 8453      		subi r24,52
 8744 39c2 9D4F      		sbci r25,-3
 8745 39c4 FC01      		movw r30,r24
 8746 39c6 2081      		ld r18,Z
 8747 39c8 3181      		ldd r19,Z+1
 8748 39ca 8B81      		ldd r24,Y+3
 8749 39cc 9C81      		ldd r25,Y+4
 8750 39ce 880F      		lsl r24
 8751 39d0 991F      		rol r25
 8752 39d2 820F      		add r24,r18
 8753 39d4 931F      		adc r25,r19
 8754 39d6 FC01      		movw r30,r24
 8755 39d8 2081      		ld r18,Z
 8756 39da 3181      		ldd r19,Z+1
 8757 39dc 8B85      		ldd r24,Y+11
 8758 39de 9C85      		ldd r25,Y+12
 8759 39e0 8451      		subi r24,20
 8760 39e2 9E4F      		sbci r25,-2
 8761 39e4 FC01      		movw r30,r24
 8762 39e6 8081      		ld r24,Z
 8763 39e8 9181      		ldd r25,Z+1
 8764 39ea 8901      		movw r16,r18
 8765 39ec 080F      		add r16,r24
 8766 39ee 191F      		adc r17,r25
 8767 39f0 8B85      		ldd r24,Y+11
 8768 39f2 9C85      		ldd r25,Y+12
 8769 39f4 8255      		subi r24,82
 8770 39f6 9D4F      		sbci r25,-3
 8771 39f8 FC01      		movw r30,r24
 8772 39fa 2081      		ld r18,Z
 8773 39fc 3181      		ldd r19,Z+1
 8774 39fe 8B85      		ldd r24,Y+11
 8775 3a00 9C85      		ldd r25,Y+12
 8776 3a02 8453      		subi r24,52
 8777 3a04 9D4F      		sbci r25,-3
 8778 3a06 FC01      		movw r30,r24
 8779 3a08 4081      		ld r20,Z
 8780 3a0a 5181      		ldd r21,Z+1
 8781 3a0c 8B81      		ldd r24,Y+3
 8782 3a0e 9C81      		ldd r25,Y+4
 8783 3a10 880F      		lsl r24
 8784 3a12 991F      		rol r25
 8785 3a14 840F      		add r24,r20
 8786 3a16 951F      		adc r25,r21
 8787 3a18 FC01      		movw r30,r24
 8788 3a1a 8081      		ld r24,Z
 8789 3a1c 9181      		ldd r25,Z+1
 8790 3a1e 880F      		lsl r24
 8791 3a20 991F      		rol r25
 8792 3a22 880F      		lsl r24
 8793 3a24 991F      		rol r25
 8794 3a26 820F      		add r24,r18
 8795 3a28 931F      		adc r25,r19
 8796 3a2a FC01      		movw r30,r24
 8797 3a2c 8081      		ld r24,Z
 8798 3a2e 9181      		ldd r25,Z+1
 8799 3a30 A281      		ldd r26,Z+2
 8800 3a32 B381      		ldd r27,Z+3
 8801               		.loc 2 637 0 discriminator 1
 8802 3a34 20E0      		ldi r18,0
 8803 3a36 30E0      		ldi r19,0
 8804 3a38 A901      		movw r20,r18
 8805 3a3a BC01      		movw r22,r24
 8806 3a3c CD01      		movw r24,r26
 8807 3a3e 0E94 0000 		call __eqsf2
 8808 3a42 8823      		tst r24
 8809 3a44 01F0      		breq .L253
 8810               		.loc 2 637 0 is_stmt 0 discriminator 4
 8811 3a46 8B85      		ldd r24,Y+11
 8812 3a48 9C85      		ldd r25,Y+12
 8813 3a4a 8453      		subi r24,52
 8814 3a4c 9D4F      		sbci r25,-3
 8815 3a4e FC01      		movw r30,r24
 8816 3a50 2081      		ld r18,Z
 8817 3a52 3181      		ldd r19,Z+1
 8818 3a54 8B81      		ldd r24,Y+3
 8819 3a56 9C81      		ldd r25,Y+4
 8820 3a58 880F      		lsl r24
 8821 3a5a 991F      		rol r25
 8822 3a5c 820F      		add r24,r18
 8823 3a5e 931F      		adc r25,r19
 8824 3a60 FC01      		movw r30,r24
 8825 3a62 2081      		ld r18,Z
 8826 3a64 3181      		ldd r19,Z+1
 8827 3a66 8B85      		ldd r24,Y+11
 8828 3a68 9C85      		ldd r25,Y+12
 8829 3a6a B901      		movw r22,r18
 8830 3a6c 0E94 0000 		call is_chsign
 636:lp_solve_5.5/lp_report.c ****                               (lp->var_basic[row_nr] + lp->columns) * ((lp->orig_upbo[lp->var_basic
 8831               		.loc 2 636 0 is_stmt 1 discriminator 4
 8832 3a70 8823      		tst r24
 8833 3a72 01F0      		breq .L254
 8834               	.L253:
 8835               		.loc 2 637 0 discriminator 3
 8836 3a74 81E0      		ldi r24,lo8(1)
 8837 3a76 90E0      		ldi r25,0
 8838 3a78 00C0      		rjmp .L255
 8839               	.L254:
 8840               		.loc 2 637 0 is_stmt 0 discriminator 6
 8841 3a7a 8FEF      		ldi r24,lo8(-1)
 8842 3a7c 9FEF      		ldi r25,lo8(-1)
 8843               	.L255:
 8844               		.loc 2 637 0 discriminator 5
 8845 3a7e 089F      		mul r16,r24
 8846 3a80 9001      		movw r18,r0
 8847 3a82 099F      		mul r16,r25
 8848 3a84 300D      		add r19,r0
 8849 3a86 189F      		mul r17,r24
 8850 3a88 300D      		add r19,r0
 8851 3a8a 1124      		clr r1
 8852 3a8c 00C0      		rjmp .L256
 8853               	.L252:
 8854               		.loc 2 637 0 discriminator 2
 8855 3a8e 8B85      		ldd r24,Y+11
 8856 3a90 9C85      		ldd r25,Y+12
 8857 3a92 8453      		subi r24,52
 8858 3a94 9D4F      		sbci r25,-3
 8859 3a96 FC01      		movw r30,r24
 8860 3a98 2081      		ld r18,Z
 8861 3a9a 3181      		ldd r19,Z+1
 8862 3a9c 8B81      		ldd r24,Y+3
 8863 3a9e 9C81      		ldd r25,Y+4
 8864 3aa0 880F      		lsl r24
 8865 3aa2 991F      		rol r25
 8866 3aa4 820F      		add r24,r18
 8867 3aa6 931F      		adc r25,r19
 8868 3aa8 FC01      		movw r30,r24
 8869 3aaa 2081      		ld r18,Z
 8870 3aac 3181      		ldd r19,Z+1
 8871 3aae 8B85      		ldd r24,Y+11
 8872 3ab0 9C85      		ldd r25,Y+12
 8873 3ab2 8651      		subi r24,22
 8874 3ab4 9E4F      		sbci r25,-2
 8875 3ab6 FC01      		movw r30,r24
 8876 3ab8 8081      		ld r24,Z
 8877 3aba 9181      		ldd r25,Z+1
 8878 3abc 281B      		sub r18,r24
 8879 3abe 390B      		sbc r19,r25
 8880               	.L256:
 638:lp_solve_5.5/lp_report.c ****                              (lp->is_lower[lp->var_basic [row_nr]] ? 1 : -1));
 8881               		.loc 2 638 0 is_stmt 1
 8882 3ac0 8B85      		ldd r24,Y+11
 8883 3ac2 9C85      		ldd r25,Y+12
 8884 3ac4 8E52      		subi r24,46
 8885 3ac6 9D4F      		sbci r25,-3
 8886 3ac8 FC01      		movw r30,r24
 8887 3aca 8081      		ld r24,Z
 8888 3acc 9181      		ldd r25,Z+1
 8889 3ace 4B85      		ldd r20,Y+11
 8890 3ad0 5C85      		ldd r21,Y+12
 8891 3ad2 4453      		subi r20,52
 8892 3ad4 5D4F      		sbci r21,-3
 8893 3ad6 FA01      		movw r30,r20
 8894 3ad8 6081      		ld r22,Z
 8895 3ada 7181      		ldd r23,Z+1
 8896 3adc 4B81      		ldd r20,Y+3
 8897 3ade 5C81      		ldd r21,Y+4
 8898 3ae0 440F      		lsl r20
 8899 3ae2 551F      		rol r21
 8900 3ae4 460F      		add r20,r22
 8901 3ae6 571F      		adc r21,r23
 8902 3ae8 FA01      		movw r30,r20
 8903 3aea 4081      		ld r20,Z
 8904 3aec 5181      		ldd r21,Z+1
 8905 3aee 840F      		add r24,r20
 8906 3af0 951F      		adc r25,r21
 8907 3af2 FC01      		movw r30,r24
 8908 3af4 8081      		ld r24,Z
 8909 3af6 8823      		tst r24
 8910 3af8 01F0      		breq .L257
 8911               		.loc 2 638 0 is_stmt 0 discriminator 1
 8912 3afa 81E0      		ldi r24,lo8(1)
 8913 3afc 90E0      		ldi r25,0
 8914 3afe 00C0      		rjmp .L258
 8915               	.L257:
 8916               		.loc 2 638 0 discriminator 2
 8917 3b00 8FEF      		ldi r24,lo8(-1)
 8918 3b02 9FEF      		ldi r25,lo8(-1)
 8919               	.L258:
 635:lp_solve_5.5/lp_report.c ****       fprintf(stream, "%3d", (lp->var_basic[row_nr] <= lp->rows ?
 8920               		.loc 2 635 0 is_stmt 1
 8921 3b04 289F      		mul r18,r24
 8922 3b06 A001      		movw r20,r0
 8923 3b08 299F      		mul r18,r25
 8924 3b0a 500D      		add r21,r0
 8925 3b0c 389F      		mul r19,r24
 8926 3b0e 500D      		add r21,r0
 8927 3b10 1124      		clr r1
 8928 3b12 852F      		mov r24,r21
 8929 3b14 8F93      		push r24
 8930 3b16 842F      		mov r24,r20
 8931 3b18 8F93      		push r24
 8932 3b1a 80E0      		ldi r24,lo8(.LC80)
 8933 3b1c 90E0      		ldi r25,hi8(.LC80)
 8934 3b1e 892F      		mov r24,r25
 8935 3b20 8F93      		push r24
 8936 3b22 80E0      		ldi r24,lo8(.LC80)
 8937 3b24 90E0      		ldi r25,hi8(.LC80)
 8938 3b26 8F93      		push r24
 8939 3b28 8E81      		ldd r24,Y+6
 8940 3b2a 8F93      		push r24
 8941 3b2c 8D81      		ldd r24,Y+5
 8942 3b2e 8F93      		push r24
 8943 3b30 0E94 0000 		call fprintf
 8944 3b34 0F90      		pop __tmp_reg__
 8945 3b36 0F90      		pop __tmp_reg__
 8946 3b38 0F90      		pop __tmp_reg__
 8947 3b3a 0F90      		pop __tmp_reg__
 8948 3b3c 0F90      		pop __tmp_reg__
 8949 3b3e 0F90      		pop __tmp_reg__
 8950 3b40 00C0      		rjmp .L259
 8951               	.L251:
 639:lp_solve_5.5/lp_report.c ****     else
 640:lp_solve_5.5/lp_report.c ****       fprintf(stream, "   ");
 8952               		.loc 2 640 0
 8953 3b42 8D81      		ldd r24,Y+5
 8954 3b44 9E81      		ldd r25,Y+6
 8955 3b46 9C01      		movw r18,r24
 8956 3b48 43E0      		ldi r20,lo8(3)
 8957 3b4a 50E0      		ldi r21,0
 8958 3b4c 61E0      		ldi r22,lo8(1)
 8959 3b4e 70E0      		ldi r23,0
 8960 3b50 80E0      		ldi r24,lo8(.LC81)
 8961 3b52 90E0      		ldi r25,hi8(.LC81)
 8962 3b54 0E94 0000 		call fwrite
 8963               	.L259:
 641:lp_solve_5.5/lp_report.c ****     bsolve(lp, row_nr <= lp->rows ? row_nr : 0, prow, NULL, lp->epsmachine*DOUBLEROUND, 1.0);
 8964               		.loc 2 641 0
 8965 3b58 8B85      		ldd r24,Y+11
 8966 3b5a 9C85      		ldd r25,Y+12
 8967 3b5c 8E5E      		subi r24,-18
 8968 3b5e 9C4F      		sbci r25,-4
 8969 3b60 FC01      		movw r30,r24
 8970 3b62 8081      		ld r24,Z
 8971 3b64 9181      		ldd r25,Z+1
 8972 3b66 A281      		ldd r26,Z+2
 8973 3b68 B381      		ldd r27,Z+3
 8974 3b6a 20E0      		ldi r18,0
 8975 3b6c 30E0      		ldi r19,0
 8976 3b6e A901      		movw r20,r18
 8977 3b70 BC01      		movw r22,r24
 8978 3b72 CD01      		movw r24,r26
 8979 3b74 0E94 0000 		call __mulsf3
 8980 3b78 DC01      		movw r26,r24
 8981 3b7a CB01      		movw r24,r22
 8982 3b7c 7C01      		movw r14,r24
 8983 3b7e 8D01      		movw r16,r26
 8984 3b80 4985      		ldd r20,Y+9
 8985 3b82 5A85      		ldd r21,Y+10
 8986 3b84 8B85      		ldd r24,Y+11
 8987 3b86 9C85      		ldd r25,Y+12
 8988 3b88 8651      		subi r24,22
 8989 3b8a 9E4F      		sbci r25,-2
 8990 3b8c FC01      		movw r30,r24
 8991 3b8e 2081      		ld r18,Z
 8992 3b90 3181      		ldd r19,Z+1
 8993 3b92 8B81      		ldd r24,Y+3
 8994 3b94 9C81      		ldd r25,Y+4
 8995 3b96 2817      		cp r18,r24
 8996 3b98 3907      		cpc r19,r25
 8997 3b9a 04F0      		brlt .L260
 8998               		.loc 2 641 0 is_stmt 0 discriminator 1
 8999 3b9c 8B81      		ldd r24,Y+3
 9000 3b9e 9C81      		ldd r25,Y+4
 9001 3ba0 00C0      		rjmp .L261
 9002               	.L260:
 9003               		.loc 2 641 0 discriminator 2
 9004 3ba2 80E0      		ldi r24,0
 9005 3ba4 90E0      		ldi r25,0
 9006               	.L261:
 9007               		.loc 2 641 0 discriminator 4
 9008 3ba6 EB85      		ldd r30,Y+11
 9009 3ba8 FC85      		ldd r31,Y+12
 9010 3baa 0F2E      		mov __tmp_reg__,r31
 9011 3bac A12C      		mov r10,__zero_reg__
 9012 3bae B12C      		mov r11,__zero_reg__
 9013 3bb0 F0E8      		ldi r31,lo8(-128)
 9014 3bb2 CF2E      		mov r12,r31
 9015 3bb4 FFE3      		ldi r31,lo8(63)
 9016 3bb6 DF2E      		mov r13,r31
 9017 3bb8 F02D      		mov r31,__tmp_reg__
 9018 3bba 20E0      		ldi r18,0
 9019 3bbc 30E0      		ldi r19,0
 9020 3bbe BC01      		movw r22,r24
 9021 3bc0 CF01      		movw r24,r30
 9022 3bc2 0E94 0000 		call bsolve
 642:lp_solve_5.5/lp_report.c ****     prod_xA(lp, coltarget, prow, NULL, lp->epsmachine, 1.0,
 9023               		.loc 2 642 0 is_stmt 1 discriminator 4
 9024 3bc6 2985      		ldd r18,Y+9
 9025 3bc8 3A85      		ldd r19,Y+10
 9026 3bca 8B85      		ldd r24,Y+11
 9027 3bcc 9C85      		ldd r25,Y+12
 9028 3bce 8E5E      		subi r24,-18
 9029 3bd0 9C4F      		sbci r25,-4
 9030 3bd2 FC01      		movw r30,r24
 9031 3bd4 8081      		ld r24,Z
 9032 3bd6 9181      		ldd r25,Z+1
 9033 3bd8 A281      		ldd r26,Z+2
 9034 3bda B381      		ldd r27,Z+3
 9035 3bdc 4985      		ldd r20,Y+9
 9036 3bde 5A85      		ldd r21,Y+10
 9037 3be0 6F81      		ldd r22,Y+7
 9038 3be2 7885      		ldd r23,Y+8
 9039 3be4 EB85      		ldd r30,Y+11
 9040 3be6 FC85      		ldd r31,Y+12
 9041 3be8 1F92      		push __zero_reg__
 9042 3bea 12E0      		ldi r17,lo8(2)
 9043 3bec 1F93      		push r17
 9044 3bee 1F92      		push __zero_reg__
 9045 3bf0 1F92      		push __zero_reg__
 9046 3bf2 4901      		movw r8,r18
 9047 3bf4 0F2E      		mov __tmp_reg__,r31
 9048 3bf6 A12C      		mov r10,__zero_reg__
 9049 3bf8 B12C      		mov r11,__zero_reg__
 9050 3bfa F0E8      		ldi r31,lo8(-128)
 9051 3bfc CF2E      		mov r12,r31
 9052 3bfe FFE3      		ldi r31,lo8(63)
 9053 3c00 DF2E      		mov r13,r31
 9054 3c02 F02D      		mov r31,__tmp_reg__
 9055 3c04 7C01      		movw r14,r24
 9056 3c06 8D01      		movw r16,r26
 9057 3c08 20E0      		ldi r18,0
 9058 3c0a 30E0      		ldi r19,0
 9059 3c0c CF01      		movw r24,r30
 9060 3c0e 0E94 0000 		call prod_xA
 9061 3c12 0F90      		pop __tmp_reg__
 9062 3c14 0F90      		pop __tmp_reg__
 9063 3c16 0F90      		pop __tmp_reg__
 9064 3c18 0F90      		pop __tmp_reg__
 643:lp_solve_5.5/lp_report.c ****                                        prow, NULL, MAT_ROUNDDEFAULT);
 644:lp_solve_5.5/lp_report.c **** 
 645:lp_solve_5.5/lp_report.c ****     for(j = 1; j <= lp->rows + lp->columns; j++)
 9065               		.loc 2 645 0 discriminator 4
 9066 3c1a 81E0      		ldi r24,lo8(1)
 9067 3c1c 90E0      		ldi r25,0
 9068 3c1e 9A83      		std Y+2,r25
 9069 3c20 8983      		std Y+1,r24
 9070 3c22 00C0      		rjmp .L262
 9071               	.L268:
 646:lp_solve_5.5/lp_report.c ****       if (!lp->is_basic[j])
 9072               		.loc 2 646 0
 9073 3c24 8B85      		ldd r24,Y+11
 9074 3c26 9C85      		ldd r25,Y+12
 9075 3c28 8053      		subi r24,48
 9076 3c2a 9D4F      		sbci r25,-3
 9077 3c2c FC01      		movw r30,r24
 9078 3c2e 2081      		ld r18,Z
 9079 3c30 3181      		ldd r19,Z+1
 9080 3c32 8981      		ldd r24,Y+1
 9081 3c34 9A81      		ldd r25,Y+2
 9082 3c36 820F      		add r24,r18
 9083 3c38 931F      		adc r25,r19
 9084 3c3a FC01      		movw r30,r24
 9085 3c3c 8081      		ld r24,Z
 9086 3c3e 8823      		tst r24
 9087 3c40 01F0      		breq .+2
 9088 3c42 00C0      		rjmp .L263
 647:lp_solve_5.5/lp_report.c ****         fprintf(stream, "%15.7f", prow[j] * (lp->is_lower[j] ? 1 : -1) *
 9089               		.loc 2 647 0
 9090 3c44 2985      		ldd r18,Y+9
 9091 3c46 3A85      		ldd r19,Y+10
 9092 3c48 8981      		ldd r24,Y+1
 9093 3c4a 9A81      		ldd r25,Y+2
 9094 3c4c 880F      		lsl r24
 9095 3c4e 991F      		rol r25
 9096 3c50 880F      		lsl r24
 9097 3c52 991F      		rol r25
 9098 3c54 820F      		add r24,r18
 9099 3c56 931F      		adc r25,r19
 9100 3c58 FC01      		movw r30,r24
 9101 3c5a E080      		ld r14,Z
 9102 3c5c F180      		ldd r15,Z+1
 9103 3c5e 0281      		ldd r16,Z+2
 9104 3c60 1381      		ldd r17,Z+3
 9105 3c62 8B85      		ldd r24,Y+11
 9106 3c64 9C85      		ldd r25,Y+12
 9107 3c66 8E52      		subi r24,46
 9108 3c68 9D4F      		sbci r25,-3
 9109 3c6a FC01      		movw r30,r24
 9110 3c6c 2081      		ld r18,Z
 9111 3c6e 3181      		ldd r19,Z+1
 9112 3c70 8981      		ldd r24,Y+1
 9113 3c72 9A81      		ldd r25,Y+2
 9114 3c74 820F      		add r24,r18
 9115 3c76 931F      		adc r25,r19
 9116 3c78 FC01      		movw r30,r24
 9117 3c7a 8081      		ld r24,Z
 9118 3c7c 8823      		tst r24
 9119 3c7e 01F0      		breq .L264
 9120               		.loc 2 647 0 is_stmt 0 discriminator 1
 9121 3c80 80E0      		ldi r24,0
 9122 3c82 90E0      		ldi r25,0
 9123 3c84 A0E8      		ldi r26,lo8(-128)
 9124 3c86 BFE3      		ldi r27,lo8(63)
 9125 3c88 00C0      		rjmp .L265
 9126               	.L264:
 9127               		.loc 2 647 0 discriminator 2
 9128 3c8a 80E0      		ldi r24,0
 9129 3c8c 90E0      		ldi r25,0
 9130 3c8e A0E8      		ldi r26,lo8(-128)
 9131 3c90 BFEB      		ldi r27,lo8(-65)
 9132               	.L265:
 9133               		.loc 2 647 0 discriminator 4
 9134 3c92 9C01      		movw r18,r24
 9135 3c94 AD01      		movw r20,r26
 9136 3c96 C801      		movw r24,r16
 9137 3c98 B701      		movw r22,r14
 9138 3c9a 0E94 0000 		call __mulsf3
 9139 3c9e DC01      		movw r26,r24
 9140 3ca0 CB01      		movw r24,r22
 9141 3ca2 7C01      		movw r14,r24
 9142 3ca4 8D01      		movw r16,r26
 648:lp_solve_5.5/lp_report.c ****                                             (row_nr <= lp->rows ? 1 : -1));
 9143               		.loc 2 648 0 is_stmt 1 discriminator 4
 9144 3ca6 8B85      		ldd r24,Y+11
 9145 3ca8 9C85      		ldd r25,Y+12
 9146 3caa 8651      		subi r24,22
 9147 3cac 9E4F      		sbci r25,-2
 9148 3cae FC01      		movw r30,r24
 9149 3cb0 2081      		ld r18,Z
 9150 3cb2 3181      		ldd r19,Z+1
 647:lp_solve_5.5/lp_report.c ****         fprintf(stream, "%15.7f", prow[j] * (lp->is_lower[j] ? 1 : -1) *
 9151               		.loc 2 647 0 discriminator 4
 9152 3cb4 8B81      		ldd r24,Y+3
 9153 3cb6 9C81      		ldd r25,Y+4
 9154 3cb8 2817      		cp r18,r24
 9155 3cba 3907      		cpc r19,r25
 9156 3cbc 04F0      		brlt .L266
 647:lp_solve_5.5/lp_report.c ****         fprintf(stream, "%15.7f", prow[j] * (lp->is_lower[j] ? 1 : -1) *
 9157               		.loc 2 647 0 is_stmt 0 discriminator 5
 9158 3cbe 80E0      		ldi r24,0
 9159 3cc0 90E0      		ldi r25,0
 9160 3cc2 A0E8      		ldi r26,lo8(-128)
 9161 3cc4 BFE3      		ldi r27,lo8(63)
 9162 3cc6 00C0      		rjmp .L267
 9163               	.L266:
 647:lp_solve_5.5/lp_report.c ****         fprintf(stream, "%15.7f", prow[j] * (lp->is_lower[j] ? 1 : -1) *
 9164               		.loc 2 647 0 discriminator 6
 9165 3cc8 80E0      		ldi r24,0
 9166 3cca 90E0      		ldi r25,0
 9167 3ccc A0E8      		ldi r26,lo8(-128)
 9168 3cce BFEB      		ldi r27,lo8(-65)
 9169               	.L267:
 647:lp_solve_5.5/lp_report.c ****         fprintf(stream, "%15.7f", prow[j] * (lp->is_lower[j] ? 1 : -1) *
 9170               		.loc 2 647 0 discriminator 8
 9171 3cd0 9C01      		movw r18,r24
 9172 3cd2 AD01      		movw r20,r26
 9173 3cd4 C801      		movw r24,r16
 9174 3cd6 B701      		movw r22,r14
 9175 3cd8 0E94 0000 		call __mulsf3
 9176 3cdc DC01      		movw r26,r24
 9177 3cde CB01      		movw r24,r22
 9178 3ce0 2B2F      		mov r18,r27
 9179 3ce2 2F93      		push r18
 9180 3ce4 2A2F      		mov r18,r26
 9181 3ce6 2F93      		push r18
 9182 3ce8 292F      		mov r18,r25
 9183 3cea 2F93      		push r18
 9184 3cec 8F93      		push r24
 9185 3cee 80E0      		ldi r24,lo8(.LC82)
 9186 3cf0 90E0      		ldi r25,hi8(.LC82)
 9187 3cf2 892F      		mov r24,r25
 9188 3cf4 8F93      		push r24
 9189 3cf6 80E0      		ldi r24,lo8(.LC82)
 9190 3cf8 90E0      		ldi r25,hi8(.LC82)
 9191 3cfa 8F93      		push r24
 9192 3cfc 8E81      		ldd r24,Y+6
 9193 3cfe 8F93      		push r24
 9194 3d00 8D81      		ldd r24,Y+5
 9195 3d02 8F93      		push r24
 9196 3d04 0E94 0000 		call fprintf
 9197 3d08 8DB7      		in r24,__SP_L__
 9198 3d0a 9EB7      		in r25,__SP_H__
 9199 3d0c 0896      		adiw r24,8
 9200 3d0e 0FB6      		in __tmp_reg__,__SREG__
 9201 3d10 F894      		cli
 9202 3d12 DEBF      		out __SP_H__,r29
 9203 3d14 0FBE      		out __SREG__,__tmp_reg__
 9204 3d16 CDBF      		out __SP_L__,r28
 9205               	.L263:
 645:lp_solve_5.5/lp_report.c ****       if (!lp->is_basic[j])
 9206               		.loc 2 645 0 is_stmt 1 discriminator 2
 9207 3d18 8981      		ldd r24,Y+1
 9208 3d1a 9A81      		ldd r25,Y+2
 9209 3d1c 0196      		adiw r24,1
 9210 3d1e 9A83      		std Y+2,r25
 9211 3d20 8983      		std Y+1,r24
 9212               	.L262:
 645:lp_solve_5.5/lp_report.c ****       if (!lp->is_basic[j])
 9213               		.loc 2 645 0 is_stmt 0 discriminator 1
 9214 3d22 8B85      		ldd r24,Y+11
 9215 3d24 9C85      		ldd r25,Y+12
 9216 3d26 8651      		subi r24,22
 9217 3d28 9E4F      		sbci r25,-2
 9218 3d2a FC01      		movw r30,r24
 9219 3d2c 2081      		ld r18,Z
 9220 3d2e 3181      		ldd r19,Z+1
 9221 3d30 8B85      		ldd r24,Y+11
 9222 3d32 9C85      		ldd r25,Y+12
 9223 3d34 8451      		subi r24,20
 9224 3d36 9E4F      		sbci r25,-2
 9225 3d38 FC01      		movw r30,r24
 9226 3d3a 8081      		ld r24,Z
 9227 3d3c 9181      		ldd r25,Z+1
 9228 3d3e 280F      		add r18,r24
 9229 3d40 391F      		adc r19,r25
 9230 3d42 8981      		ldd r24,Y+1
 9231 3d44 9A81      		ldd r25,Y+2
 9232 3d46 2817      		cp r18,r24
 9233 3d48 3907      		cpc r19,r25
 9234 3d4a 04F0      		brlt .+2
 9235 3d4c 00C0      		rjmp .L268
 649:lp_solve_5.5/lp_report.c ****     fprintf(stream, "%15.7f", lp->rhs[row_nr <= lp->rows ? row_nr : 0] *
 9236               		.loc 2 649 0 is_stmt 1
 9237 3d4e 8B85      		ldd r24,Y+11
 9238 3d50 9C85      		ldd r25,Y+12
 9239 3d52 8855      		subi r24,88
 9240 3d54 9D4F      		sbci r25,-3
 9241 3d56 FC01      		movw r30,r24
 9242 3d58 2081      		ld r18,Z
 9243 3d5a 3181      		ldd r19,Z+1
 9244 3d5c 8B85      		ldd r24,Y+11
 9245 3d5e 9C85      		ldd r25,Y+12
 9246 3d60 8651      		subi r24,22
 9247 3d62 9E4F      		sbci r25,-2
 9248 3d64 FC01      		movw r30,r24
 9249 3d66 4081      		ld r20,Z
 9250 3d68 5181      		ldd r21,Z+1
 9251 3d6a 8B81      		ldd r24,Y+3
 9252 3d6c 9C81      		ldd r25,Y+4
 9253 3d6e 4817      		cp r20,r24
 9254 3d70 5907      		cpc r21,r25
 9255 3d72 04F0      		brlt .L269
 9256               		.loc 2 649 0 is_stmt 0 discriminator 1
 9257 3d74 8B81      		ldd r24,Y+3
 9258 3d76 9C81      		ldd r25,Y+4
 9259 3d78 880F      		lsl r24
 9260 3d7a 991F      		rol r25
 9261 3d7c 880F      		lsl r24
 9262 3d7e 991F      		rol r25
 9263 3d80 00C0      		rjmp .L270
 9264               	.L269:
 9265               		.loc 2 649 0 discriminator 2
 9266 3d82 80E0      		ldi r24,0
 9267 3d84 90E0      		ldi r25,0
 9268               	.L270:
 9269               		.loc 2 649 0 discriminator 4
 9270 3d86 820F      		add r24,r18
 9271 3d88 931F      		adc r25,r19
 9272 3d8a FC01      		movw r30,r24
 9273 3d8c C080      		ld r12,Z
 9274 3d8e D180      		ldd r13,Z+1
 9275 3d90 E280      		ldd r14,Z+2
 9276 3d92 F380      		ldd r15,Z+3
 650:lp_solve_5.5/lp_report.c ****                               (double) ((row_nr <= lp->rows) || (is_maxim(lp)) ? 1 : -1));
 9277               		.loc 2 650 0 is_stmt 1 discriminator 4
 9278 3d94 8B85      		ldd r24,Y+11
 9279 3d96 9C85      		ldd r25,Y+12
 9280 3d98 8651      		subi r24,22
 9281 3d9a 9E4F      		sbci r25,-2
 9282 3d9c FC01      		movw r30,r24
 9283 3d9e 2081      		ld r18,Z
 9284 3da0 3181      		ldd r19,Z+1
 9285 3da2 8B81      		ldd r24,Y+3
 9286 3da4 9C81      		ldd r25,Y+4
 9287 3da6 2817      		cp r18,r24
 9288 3da8 3907      		cpc r19,r25
 9289 3daa 04F4      		brge .L271
 9290               		.loc 2 650 0 is_stmt 0 discriminator 2
 9291 3dac 8B85      		ldd r24,Y+11
 9292 3dae 9C85      		ldd r25,Y+12
 9293 3db0 0E94 0000 		call is_maxim
 9294 3db4 8823      		tst r24
 9295 3db6 01F0      		breq .L272
 9296               	.L271:
 9297               		.loc 2 650 0 discriminator 3
 9298 3db8 80E0      		ldi r24,0
 9299 3dba 90E0      		ldi r25,0
 9300 3dbc A0E8      		ldi r26,lo8(-128)
 9301 3dbe BFE3      		ldi r27,lo8(63)
 9302 3dc0 00C0      		rjmp .L273
 9303               	.L272:
 9304               		.loc 2 650 0 discriminator 4
 9305 3dc2 80E0      		ldi r24,0
 9306 3dc4 90E0      		ldi r25,0
 9307 3dc6 A0E8      		ldi r26,lo8(-128)
 9308 3dc8 BFEB      		ldi r27,lo8(-65)
 9309               	.L273:
 649:lp_solve_5.5/lp_report.c ****     fprintf(stream, "%15.7f", lp->rhs[row_nr <= lp->rows ? row_nr : 0] *
 9310               		.loc 2 649 0 is_stmt 1 discriminator 2
 9311 3dca 9C01      		movw r18,r24
 9312 3dcc AD01      		movw r20,r26
 9313 3dce C701      		movw r24,r14
 9314 3dd0 B601      		movw r22,r12
 9315 3dd2 0E94 0000 		call __mulsf3
 9316 3dd6 DC01      		movw r26,r24
 9317 3dd8 CB01      		movw r24,r22
 9318 3dda 2B2F      		mov r18,r27
 9319 3ddc 2F93      		push r18
 9320 3dde 2A2F      		mov r18,r26
 9321 3de0 2F93      		push r18
 9322 3de2 292F      		mov r18,r25
 9323 3de4 2F93      		push r18
 9324 3de6 8F93      		push r24
 9325 3de8 80E0      		ldi r24,lo8(.LC82)
 9326 3dea 90E0      		ldi r25,hi8(.LC82)
 9327 3dec 892F      		mov r24,r25
 9328 3dee 8F93      		push r24
 9329 3df0 80E0      		ldi r24,lo8(.LC82)
 9330 3df2 90E0      		ldi r25,hi8(.LC82)
 9331 3df4 8F93      		push r24
 9332 3df6 8E81      		ldd r24,Y+6
 9333 3df8 8F93      		push r24
 9334 3dfa 8D81      		ldd r24,Y+5
 9335 3dfc 8F93      		push r24
 9336 3dfe 0E94 0000 		call fprintf
 9337 3e02 8DB7      		in r24,__SP_L__
 9338 3e04 9EB7      		in r25,__SP_H__
 9339 3e06 0896      		adiw r24,8
 9340 3e08 0FB6      		in __tmp_reg__,__SREG__
 9341 3e0a F894      		cli
 9342 3e0c DEBF      		out __SP_H__,r29
 9343 3e0e 0FBE      		out __SREG__,__tmp_reg__
 9344 3e10 CDBF      		out __SP_L__,r28
 651:lp_solve_5.5/lp_report.c ****     fprintf(stream, "\n");
 9345               		.loc 2 651 0 discriminator 2
 9346 3e12 8D81      		ldd r24,Y+5
 9347 3e14 9E81      		ldd r25,Y+6
 9348 3e16 BC01      		movw r22,r24
 9349 3e18 8AE0      		ldi r24,lo8(10)
 9350 3e1a 90E0      		ldi r25,0
 9351 3e1c 0E94 0000 		call fputc
 633:lp_solve_5.5/lp_report.c ****     if (row_nr <= lp->rows)
 9352               		.loc 2 633 0 discriminator 2
 9353 3e20 8B81      		ldd r24,Y+3
 9354 3e22 9C81      		ldd r25,Y+4
 9355 3e24 0196      		adiw r24,1
 9356 3e26 9C83      		std Y+4,r25
 9357 3e28 8B83      		std Y+3,r24
 9358               	.L250:
 633:lp_solve_5.5/lp_report.c ****     if (row_nr <= lp->rows)
 9359               		.loc 2 633 0 is_stmt 0 discriminator 1
 9360 3e2a 8B85      		ldd r24,Y+11
 9361 3e2c 9C85      		ldd r25,Y+12
 9362 3e2e 8651      		subi r24,22
 9363 3e30 9E4F      		sbci r25,-2
 9364 3e32 FC01      		movw r30,r24
 9365 3e34 8081      		ld r24,Z
 9366 3e36 9181      		ldd r25,Z+1
 9367 3e38 9C01      		movw r18,r24
 9368 3e3a 2F5F      		subi r18,-1
 9369 3e3c 3F4F      		sbci r19,-1
 9370 3e3e 8B81      		ldd r24,Y+3
 9371 3e40 9C81      		ldd r25,Y+4
 9372 3e42 2817      		cp r18,r24
 9373 3e44 3907      		cpc r19,r25
 9374 3e46 04F0      		brlt .+2
 9375 3e48 00C0      		rjmp .L274
 652:lp_solve_5.5/lp_report.c ****   }
 653:lp_solve_5.5/lp_report.c ****   fflush(stream);
 9376               		.loc 2 653 0 is_stmt 1
 9377 3e4a 8D81      		ldd r24,Y+5
 9378 3e4c 9E81      		ldd r25,Y+6
 9379 3e4e 0E94 0000 		call fflush
 654:lp_solve_5.5/lp_report.c **** 
 655:lp_solve_5.5/lp_report.c ****   mempool_releaseVector(lp->workarrays, (char *) coltarget, FALSE);
 9380               		.loc 2 655 0
 9381 3e52 8B85      		ldd r24,Y+11
 9382 3e54 9C85      		ldd r25,Y+12
 9383 3e56 8859      		subi r24,-104
 9384 3e58 9C4F      		sbci r25,-4
 9385 3e5a FC01      		movw r30,r24
 9386 3e5c 8081      		ld r24,Z
 9387 3e5e 9181      		ldd r25,Z+1
 9388 3e60 2F81      		ldd r18,Y+7
 9389 3e62 3885      		ldd r19,Y+8
 9390 3e64 40E0      		ldi r20,0
 9391 3e66 B901      		movw r22,r18
 9392 3e68 0E94 0000 		call mempool_releaseVector
 656:lp_solve_5.5/lp_report.c ****   FREE(prow);
 9393               		.loc 2 656 0
 9394 3e6c 8985      		ldd r24,Y+9
 9395 3e6e 9A85      		ldd r25,Y+10
 9396 3e70 892B      		or r24,r25
 9397 3e72 01F0      		breq .L275
 9398               		.loc 2 656 0 is_stmt 0 discriminator 1
 9399 3e74 8985      		ldd r24,Y+9
 9400 3e76 9A85      		ldd r25,Y+10
 9401 3e78 0E94 0000 		call free
 9402 3e7c 1A86      		std Y+10,__zero_reg__
 9403 3e7e 1986      		std Y+9,__zero_reg__
 9404               	.L275:
 657:lp_solve_5.5/lp_report.c ****   return(TRUE);
 9405               		.loc 2 657 0 is_stmt 1
 9406 3e80 81E0      		ldi r24,lo8(1)
 9407               	.L276:
 9408               	/* epilogue start */
 658:lp_solve_5.5/lp_report.c **** }
 9409               		.loc 2 658 0 discriminator 1
 9410 3e82 2C96      		adiw r28,12
 9411 3e84 0FB6      		in __tmp_reg__,__SREG__
 9412 3e86 F894      		cli
 9413 3e88 DEBF      		out __SP_H__,r29
 9414 3e8a 0FBE      		out __SREG__,__tmp_reg__
 9415 3e8c CDBF      		out __SP_L__,r28
 9416 3e8e DF91      		pop r29
 9417 3e90 CF91      		pop r28
 9418 3e92 1F91      		pop r17
 9419 3e94 0F91      		pop r16
 9420 3e96 FF90      		pop r15
 9421 3e98 EF90      		pop r14
 9422 3e9a DF90      		pop r13
 9423 3e9c CF90      		pop r12
 9424 3e9e BF90      		pop r11
 9425 3ea0 AF90      		pop r10
 9426 3ea2 9F90      		pop r9
 9427 3ea4 8F90      		pop r8
 9428 3ea6 0895      		ret
 9429               		.cfi_endproc
 9430               	.LFE24:
 9432               		.section	.rodata
 9433               	.LC83:
 9434 07d6 2573 0A00 		.string	"%s\n"
 9435               	.LC84:
 9436 07da 252D 3135 		.string	"%-15s %4d\n"
 9436      7320 2534 
 9436      640A 00
 9437               		.text
 9438               	.global	REPORT_constraintinfo
 9440               	REPORT_constraintinfo:
 9441               	.LFB25:
 659:lp_solve_5.5/lp_report.c **** 
 660:lp_solve_5.5/lp_report.c **** void REPORT_constraintinfo(lprec *lp, char *datainfo)
 661:lp_solve_5.5/lp_report.c **** {
 9442               		.loc 2 661 0
 9443               		.cfi_startproc
 9444 3ea8 0F93      		push r16
 9445               	.LCFI146:
 9446               		.cfi_def_cfa_offset 3
 9447               		.cfi_offset 16, -2
 9448 3eaa 1F93      		push r17
 9449               	.LCFI147:
 9450               		.cfi_def_cfa_offset 4
 9451               		.cfi_offset 17, -3
 9452 3eac CF93      		push r28
 9453               	.LCFI148:
 9454               		.cfi_def_cfa_offset 5
 9455               		.cfi_offset 28, -4
 9456 3eae DF93      		push r29
 9457               	.LCFI149:
 9458               		.cfi_def_cfa_offset 6
 9459               		.cfi_offset 29, -5
 9460 3eb0 CDB7      		in r28,__SP_L__
 9461 3eb2 DEB7      		in r29,__SP_H__
 9462               	.LCFI150:
 9463               		.cfi_def_cfa_register 28
 9464 3eb4 6C97      		sbiw r28,28
 9465               	.LCFI151:
 9466               		.cfi_def_cfa_offset 34
 9467 3eb6 0FB6      		in __tmp_reg__,__SREG__
 9468 3eb8 F894      		cli
 9469 3eba DEBF      		out __SP_H__,r29
 9470 3ebc 0FBE      		out __SREG__,__tmp_reg__
 9471 3ebe CDBF      		out __SP_L__,r28
 9472               	/* prologue: function */
 9473               	/* frame size = 28 */
 9474               	/* stack size = 32 */
 9475               	.L__stack_usage = 32
 9476 3ec0 9A8F      		std Y+26,r25
 9477 3ec2 898F      		std Y+25,r24
 9478 3ec4 7C8F      		std Y+28,r23
 9479 3ec6 6B8F      		std Y+27,r22
 662:lp_solve_5.5/lp_report.c ****   int i, tally[ROWCLASS_MAX+1];
 663:lp_solve_5.5/lp_report.c **** 
 664:lp_solve_5.5/lp_report.c ****   MEMCLEAR(tally, ROWCLASS_MAX+1);
 9480               		.loc 2 664 0
 9481 3ec8 CE01      		movw r24,r28
 9482 3eca 0396      		adiw r24,3
 9483 3ecc 46E1      		ldi r20,lo8(22)
 9484 3ece 50E0      		ldi r21,0
 9485 3ed0 60E0      		ldi r22,0
 9486 3ed2 70E0      		ldi r23,0
 9487 3ed4 0E94 0000 		call memset
 665:lp_solve_5.5/lp_report.c ****   for(i = 1; i <= lp->rows; i++)
 9488               		.loc 2 665 0
 9489 3ed8 81E0      		ldi r24,lo8(1)
 9490 3eda 90E0      		ldi r25,0
 9491 3edc 9A83      		std Y+2,r25
 9492 3ede 8983      		std Y+1,r24
 9493 3ee0 00C0      		rjmp .L278
 9494               	.L279:
 666:lp_solve_5.5/lp_report.c ****     tally[get_constr_class(lp, i)]++;
 9495               		.loc 2 666 0 discriminator 3
 9496 3ee2 2981      		ldd r18,Y+1
 9497 3ee4 3A81      		ldd r19,Y+2
 9498 3ee6 898D      		ldd r24,Y+25
 9499 3ee8 9A8D      		ldd r25,Y+26
 9500 3eea B901      		movw r22,r18
 9501 3eec 0E94 0000 		call get_constr_class
 9502 3ef0 9C01      		movw r18,r24
 9503 3ef2 220F      		lsl r18
 9504 3ef4 331F      		rol r19
 9505 3ef6 AE01      		movw r20,r28
 9506 3ef8 4F5F      		subi r20,-1
 9507 3efa 5F4F      		sbci r21,-1
 9508 3efc 240F      		add r18,r20
 9509 3efe 351F      		adc r19,r21
 9510 3f00 2E5F      		subi r18,-2
 9511 3f02 3F4F      		sbci r19,-1
 9512 3f04 F901      		movw r30,r18
 9513 3f06 2081      		ld r18,Z
 9514 3f08 3181      		ldd r19,Z+1
 9515 3f0a 2F5F      		subi r18,-1
 9516 3f0c 3F4F      		sbci r19,-1
 9517 3f0e 880F      		lsl r24
 9518 3f10 991F      		rol r25
 9519 3f12 AE01      		movw r20,r28
 9520 3f14 4F5F      		subi r20,-1
 9521 3f16 5F4F      		sbci r21,-1
 9522 3f18 840F      		add r24,r20
 9523 3f1a 951F      		adc r25,r21
 9524 3f1c 0296      		adiw r24,2
 9525 3f1e FC01      		movw r30,r24
 9526 3f20 3183      		std Z+1,r19
 9527 3f22 2083      		st Z,r18
 665:lp_solve_5.5/lp_report.c ****   for(i = 1; i <= lp->rows; i++)
 9528               		.loc 2 665 0 discriminator 3
 9529 3f24 8981      		ldd r24,Y+1
 9530 3f26 9A81      		ldd r25,Y+2
 9531 3f28 0196      		adiw r24,1
 9532 3f2a 9A83      		std Y+2,r25
 9533 3f2c 8983      		std Y+1,r24
 9534               	.L278:
 665:lp_solve_5.5/lp_report.c ****   for(i = 1; i <= lp->rows; i++)
 9535               		.loc 2 665 0 is_stmt 0 discriminator 1
 9536 3f2e 898D      		ldd r24,Y+25
 9537 3f30 9A8D      		ldd r25,Y+26
 9538 3f32 8651      		subi r24,22
 9539 3f34 9E4F      		sbci r25,-2
 9540 3f36 FC01      		movw r30,r24
 9541 3f38 2081      		ld r18,Z
 9542 3f3a 3181      		ldd r19,Z+1
 9543 3f3c 8981      		ldd r24,Y+1
 9544 3f3e 9A81      		ldd r25,Y+2
 9545 3f40 2817      		cp r18,r24
 9546 3f42 3907      		cpc r19,r25
 9547 3f44 04F4      		brge .L279
 667:lp_solve_5.5/lp_report.c **** 
 668:lp_solve_5.5/lp_report.c ****   if(datainfo != NULL)
 9548               		.loc 2 668 0 is_stmt 1
 9549 3f46 8B8D      		ldd r24,Y+27
 9550 3f48 9C8D      		ldd r25,Y+28
 9551 3f4a 892B      		or r24,r25
 9552 3f4c 01F0      		breq .L280
 669:lp_solve_5.5/lp_report.c ****     report(lp, NORMAL, "%s\n", datainfo);
 9553               		.loc 2 669 0
 9554 3f4e 8C8D      		ldd r24,Y+28
 9555 3f50 8F93      		push r24
 9556 3f52 8B8D      		ldd r24,Y+27
 9557 3f54 8F93      		push r24
 9558 3f56 80E0      		ldi r24,lo8(.LC83)
 9559 3f58 90E0      		ldi r25,hi8(.LC83)
 9560 3f5a 892F      		mov r24,r25
 9561 3f5c 8F93      		push r24
 9562 3f5e 80E0      		ldi r24,lo8(.LC83)
 9563 3f60 90E0      		ldi r25,hi8(.LC83)
 9564 3f62 8F93      		push r24
 9565 3f64 1F92      		push __zero_reg__
 9566 3f66 84E0      		ldi r24,lo8(4)
 9567 3f68 8F93      		push r24
 9568 3f6a 8A8D      		ldd r24,Y+26
 9569 3f6c 8F93      		push r24
 9570 3f6e 898D      		ldd r24,Y+25
 9571 3f70 8F93      		push r24
 9572 3f72 0E94 0000 		call report
 9573 3f76 8DB7      		in r24,__SP_L__
 9574 3f78 9EB7      		in r25,__SP_H__
 9575 3f7a 0896      		adiw r24,8
 9576 3f7c 0FB6      		in __tmp_reg__,__SREG__
 9577 3f7e F894      		cli
 9578 3f80 DEBF      		out __SP_H__,r29
 9579 3f82 0FBE      		out __SREG__,__tmp_reg__
 9580 3f84 CDBF      		out __SP_L__,r28
 9581               	.L280:
 670:lp_solve_5.5/lp_report.c **** 
 671:lp_solve_5.5/lp_report.c ****   for(i = 0; i <= ROWCLASS_MAX; i++)
 9582               		.loc 2 671 0
 9583 3f86 1A82      		std Y+2,__zero_reg__
 9584 3f88 1982      		std Y+1,__zero_reg__
 9585 3f8a 00C0      		rjmp .L281
 9586               	.L283:
 672:lp_solve_5.5/lp_report.c ****     if(tally[i] > 0)
 9587               		.loc 2 672 0
 9588 3f8c 8981      		ldd r24,Y+1
 9589 3f8e 9A81      		ldd r25,Y+2
 9590 3f90 880F      		lsl r24
 9591 3f92 991F      		rol r25
 9592 3f94 9E01      		movw r18,r28
 9593 3f96 2F5F      		subi r18,-1
 9594 3f98 3F4F      		sbci r19,-1
 9595 3f9a 820F      		add r24,r18
 9596 3f9c 931F      		adc r25,r19
 9597 3f9e 0296      		adiw r24,2
 9598 3fa0 FC01      		movw r30,r24
 9599 3fa2 8081      		ld r24,Z
 9600 3fa4 9181      		ldd r25,Z+1
 9601 3fa6 1816      		cp __zero_reg__,r24
 9602 3fa8 1906      		cpc __zero_reg__,r25
 9603 3faa 04F4      		brge .L282
 673:lp_solve_5.5/lp_report.c ****       report(lp, NORMAL, "%-15s %4d\n", get_str_constr_class(lp, i), tally[i]);
 9604               		.loc 2 673 0
 9605 3fac 8981      		ldd r24,Y+1
 9606 3fae 9A81      		ldd r25,Y+2
 9607 3fb0 880F      		lsl r24
 9608 3fb2 991F      		rol r25
 9609 3fb4 9E01      		movw r18,r28
 9610 3fb6 2F5F      		subi r18,-1
 9611 3fb8 3F4F      		sbci r19,-1
 9612 3fba 820F      		add r24,r18
 9613 3fbc 931F      		adc r25,r19
 9614 3fbe 0296      		adiw r24,2
 9615 3fc0 FC01      		movw r30,r24
 9616 3fc2 0081      		ld r16,Z
 9617 3fc4 1181      		ldd r17,Z+1
 9618 3fc6 2981      		ldd r18,Y+1
 9619 3fc8 3A81      		ldd r19,Y+2
 9620 3fca 898D      		ldd r24,Y+25
 9621 3fcc 9A8D      		ldd r25,Y+26
 9622 3fce B901      		movw r22,r18
 9623 3fd0 0E94 0000 		call get_str_constr_class
 9624 3fd4 212F      		mov r18,r17
 9625 3fd6 2F93      		push r18
 9626 3fd8 202F      		mov r18,r16
 9627 3fda 2F93      		push r18
 9628 3fdc 292F      		mov r18,r25
 9629 3fde 2F93      		push r18
 9630 3fe0 8F93      		push r24
 9631 3fe2 80E0      		ldi r24,lo8(.LC84)
 9632 3fe4 90E0      		ldi r25,hi8(.LC84)
 9633 3fe6 892F      		mov r24,r25
 9634 3fe8 8F93      		push r24
 9635 3fea 80E0      		ldi r24,lo8(.LC84)
 9636 3fec 90E0      		ldi r25,hi8(.LC84)
 9637 3fee 8F93      		push r24
 9638 3ff0 1F92      		push __zero_reg__
 9639 3ff2 84E0      		ldi r24,lo8(4)
 9640 3ff4 8F93      		push r24
 9641 3ff6 8A8D      		ldd r24,Y+26
 9642 3ff8 8F93      		push r24
 9643 3ffa 898D      		ldd r24,Y+25
 9644 3ffc 8F93      		push r24
 9645 3ffe 0E94 0000 		call report
 9646 4002 8DB7      		in r24,__SP_L__
 9647 4004 9EB7      		in r25,__SP_H__
 9648 4006 0A96      		adiw r24,10
 9649 4008 0FB6      		in __tmp_reg__,__SREG__
 9650 400a F894      		cli
 9651 400c DEBF      		out __SP_H__,r29
 9652 400e 0FBE      		out __SREG__,__tmp_reg__
 9653 4010 CDBF      		out __SP_L__,r28
 9654               	.L282:
 671:lp_solve_5.5/lp_report.c ****     if(tally[i] > 0)
 9655               		.loc 2 671 0 discriminator 2
 9656 4012 8981      		ldd r24,Y+1
 9657 4014 9A81      		ldd r25,Y+2
 9658 4016 0196      		adiw r24,1
 9659 4018 9A83      		std Y+2,r25
 9660 401a 8983      		std Y+1,r24
 9661               	.L281:
 671:lp_solve_5.5/lp_report.c ****     if(tally[i] > 0)
 9662               		.loc 2 671 0 is_stmt 0 discriminator 1
 9663 401c 8981      		ldd r24,Y+1
 9664 401e 9A81      		ldd r25,Y+2
 9665 4020 0B97      		sbiw r24,11
 9666 4022 04F4      		brge .+2
 9667 4024 00C0      		rjmp .L283
 674:lp_solve_5.5/lp_report.c **** }
 9668               		.loc 2 674 0 is_stmt 1
 9669 4026 0000      		nop
 9670               	/* epilogue start */
 9671 4028 6C96      		adiw r28,28
 9672 402a 0FB6      		in __tmp_reg__,__SREG__
 9673 402c F894      		cli
 9674 402e DEBF      		out __SP_H__,r29
 9675 4030 0FBE      		out __SREG__,__tmp_reg__
 9676 4032 CDBF      		out __SP_L__,r28
 9677 4034 DF91      		pop r29
 9678 4036 CF91      		pop r28
 9679 4038 1F91      		pop r17
 9680 403a 0F91      		pop r16
 9681 403c 0895      		ret
 9682               		.cfi_endproc
 9683               	.LFE25:
 9685               		.section	.rodata
 9686               	.LC85:
 9687 07e5 0A4D 6F64 		.string	"\nModel name:  '%s' - run #%-5d\n"
 9687      656C 206E 
 9687      616D 653A 
 9687      2020 2725 
 9687      7327 202D 
 9688               	.LC86:
 9689 0805 4F62 6A65 		.string	"Objective:   %simize(%s)\n"
 9689      6374 6976 
 9689      653A 2020 
 9689      2025 7369 
 9689      6D69 7A65 
 9690               	.LC87:
 9691 081f 4D6F 6465 		.string	"Model size:  %7d constraints, %7d variables, %12d non-zeros.\n"
 9691      6C20 7369 
 9691      7A65 3A20 
 9691      2025 3764 
 9691      2063 6F6E 
 9692               	.LC88:
 9693 085d 5661 722D 		.string	"Var-types:   %7d integer,     %7d semi-cont.,     %7d SOS.\n"
 9693      7479 7065 
 9693      733A 2020 
 9693      2025 3764 
 9693      2069 6E74 
 9694               	.LC89:
 9695 0899 5365 7473 		.string	"Sets:                             %7d GUB,            %7d SOS.\n"
 9695      3A20 2020 
 9695      2020 2020 
 9695      2020 2020 
 9695      2020 2020 
 9696               		.text
 9697               	.global	REPORT_modelinfo
 9699               	REPORT_modelinfo:
 9700               	.LFB26:
 675:lp_solve_5.5/lp_report.c **** 
 676:lp_solve_5.5/lp_report.c **** void REPORT_modelinfo(lprec *lp, MYBOOL doName, char *datainfo)
 677:lp_solve_5.5/lp_report.c **** {
 9701               		.loc 2 677 0
 9702               		.cfi_startproc
 9703 403e 0F93      		push r16
 9704               	.LCFI152:
 9705               		.cfi_def_cfa_offset 3
 9706               		.cfi_offset 16, -2
 9707 4040 1F93      		push r17
 9708               	.LCFI153:
 9709               		.cfi_def_cfa_offset 4
 9710               		.cfi_offset 17, -3
 9711 4042 CF93      		push r28
 9712               	.LCFI154:
 9713               		.cfi_def_cfa_offset 5
 9714               		.cfi_offset 28, -4
 9715 4044 DF93      		push r29
 9716               	.LCFI155:
 9717               		.cfi_def_cfa_offset 6
 9718               		.cfi_offset 29, -5
 9719 4046 00D0      		rcall .
 9720 4048 00D0      		rcall .
 9721 404a 1F92      		push __zero_reg__
 9722               	.LCFI156:
 9723               		.cfi_def_cfa_offset 11
 9724 404c CDB7      		in r28,__SP_L__
 9725 404e DEB7      		in r29,__SP_H__
 9726               	.LCFI157:
 9727               		.cfi_def_cfa_register 28
 9728               	/* prologue: function */
 9729               	/* frame size = 5 */
 9730               	/* stack size = 9 */
 9731               	.L__stack_usage = 9
 9732 4050 9A83      		std Y+2,r25
 9733 4052 8983      		std Y+1,r24
 9734 4054 6B83      		std Y+3,r22
 9735 4056 5D83      		std Y+5,r21
 9736 4058 4C83      		std Y+4,r20
 678:lp_solve_5.5/lp_report.c ****   if(doName) {
 9737               		.loc 2 678 0
 9738 405a 8B81      		ldd r24,Y+3
 9739 405c 8823      		tst r24
 9740 405e 01F4      		brne .+2
 9741 4060 00C0      		rjmp .L285
 679:lp_solve_5.5/lp_report.c ****     report(lp, NORMAL, "\nModel name:  '%s' - run #%-5d\n",
 9742               		.loc 2 679 0
 9743 4062 8981      		ldd r24,Y+1
 9744 4064 9A81      		ldd r25,Y+2
 9745 4066 805B      		subi r24,-80
 9746 4068 9D4F      		sbci r25,-3
 9747 406a FC01      		movw r30,r24
 9748 406c 0081      		ld r16,Z
 9749 406e 1181      		ldd r17,Z+1
 9750 4070 8981      		ldd r24,Y+1
 9751 4072 9A81      		ldd r25,Y+2
 9752 4074 0E94 0000 		call get_lp_name
 9753 4078 212F      		mov r18,r17
 9754 407a 2F93      		push r18
 9755 407c 202F      		mov r18,r16
 9756 407e 2F93      		push r18
 9757 4080 292F      		mov r18,r25
 9758 4082 2F93      		push r18
 9759 4084 8F93      		push r24
 9760 4086 80E0      		ldi r24,lo8(.LC85)
 9761 4088 90E0      		ldi r25,hi8(.LC85)
 9762 408a 892F      		mov r24,r25
 9763 408c 8F93      		push r24
 9764 408e 80E0      		ldi r24,lo8(.LC85)
 9765 4090 90E0      		ldi r25,hi8(.LC85)
 9766 4092 8F93      		push r24
 9767 4094 1F92      		push __zero_reg__
 9768 4096 84E0      		ldi r24,lo8(4)
 9769 4098 8F93      		push r24
 9770 409a 8A81      		ldd r24,Y+2
 9771 409c 8F93      		push r24
 9772 409e 8981      		ldd r24,Y+1
 9773 40a0 8F93      		push r24
 9774 40a2 0E94 0000 		call report
 9775 40a6 8DB7      		in r24,__SP_L__
 9776 40a8 9EB7      		in r25,__SP_H__
 9777 40aa 0A96      		adiw r24,10
 9778 40ac 0FB6      		in __tmp_reg__,__SREG__
 9779 40ae F894      		cli
 9780 40b0 DEBF      		out __SP_H__,r29
 9781 40b2 0FBE      		out __SREG__,__tmp_reg__
 9782 40b4 CDBF      		out __SP_L__,r28
 680:lp_solve_5.5/lp_report.c ****                        get_lp_name(lp), lp->solvecount);
 681:lp_solve_5.5/lp_report.c ****     report(lp, NORMAL, "Objective:   %simize(%s)\n",
 9783               		.loc 2 681 0
 9784 40b6 8981      		ldd r24,Y+1
 9785 40b8 9A81      		ldd r25,Y+2
 9786 40ba 60E0      		ldi r22,0
 9787 40bc 70E0      		ldi r23,0
 9788 40be 0E94 0000 		call get_row_name
 9789 40c2 8C01      		movw r16,r24
 682:lp_solve_5.5/lp_report.c ****                        my_if(is_maxim(lp), "Max", "Min"), get_row_name(lp, 0));
 9790               		.loc 2 682 0
 9791 40c4 8981      		ldd r24,Y+1
 9792 40c6 9A81      		ldd r25,Y+2
 9793 40c8 0E94 0000 		call is_maxim
 681:lp_solve_5.5/lp_report.c ****                        my_if(is_maxim(lp), "Max", "Min"), get_row_name(lp, 0));
 9794               		.loc 2 681 0
 9795 40cc 8823      		tst r24
 9796 40ce 01F0      		breq .L286
 681:lp_solve_5.5/lp_report.c ****                        my_if(is_maxim(lp), "Max", "Min"), get_row_name(lp, 0));
 9797               		.loc 2 681 0 is_stmt 0 discriminator 1
 9798 40d0 80E0      		ldi r24,lo8(.LC59)
 9799 40d2 90E0      		ldi r25,hi8(.LC59)
 9800 40d4 00C0      		rjmp .L287
 9801               	.L286:
 681:lp_solve_5.5/lp_report.c ****                        my_if(is_maxim(lp), "Max", "Min"), get_row_name(lp, 0));
 9802               		.loc 2 681 0 discriminator 2
 9803 40d6 80E0      		ldi r24,lo8(.LC60)
 9804 40d8 90E0      		ldi r25,hi8(.LC60)
 9805               	.L287:
 681:lp_solve_5.5/lp_report.c ****                        my_if(is_maxim(lp), "Max", "Min"), get_row_name(lp, 0));
 9806               		.loc 2 681 0 discriminator 4
 9807 40da 212F      		mov r18,r17
 9808 40dc 2F93      		push r18
 9809 40de 202F      		mov r18,r16
 9810 40e0 2F93      		push r18
 9811 40e2 292F      		mov r18,r25
 9812 40e4 2F93      		push r18
 9813 40e6 8F93      		push r24
 9814 40e8 80E0      		ldi r24,lo8(.LC86)
 9815 40ea 90E0      		ldi r25,hi8(.LC86)
 9816 40ec 892F      		mov r24,r25
 9817 40ee 8F93      		push r24
 9818 40f0 80E0      		ldi r24,lo8(.LC86)
 9819 40f2 90E0      		ldi r25,hi8(.LC86)
 9820 40f4 8F93      		push r24
 9821 40f6 1F92      		push __zero_reg__
 9822 40f8 84E0      		ldi r24,lo8(4)
 9823 40fa 8F93      		push r24
 9824 40fc 8A81      		ldd r24,Y+2
 9825 40fe 8F93      		push r24
 9826 4100 8981      		ldd r24,Y+1
 9827 4102 8F93      		push r24
 9828 4104 0E94 0000 		call report
 9829 4108 EDB7      		in r30,__SP_L__
 9830 410a FEB7      		in r31,__SP_H__
 9831 410c 3A96      		adiw r30,10
 9832 410e 0FB6      		in __tmp_reg__,__SREG__
 9833 4110 F894      		cli
 9834 4112 DEBF      		out __SP_H__,r29
 9835 4114 0FBE      		out __SREG__,__tmp_reg__
 9836 4116 CDBF      		out __SP_L__,r28
 683:lp_solve_5.5/lp_report.c ****     report(lp, NORMAL, " \n");
 9837               		.loc 2 683 0 is_stmt 1 discriminator 4
 9838 4118 80E0      		ldi r24,lo8(.LC47)
 9839 411a 90E0      		ldi r25,hi8(.LC47)
 9840 411c 892F      		mov r24,r25
 9841 411e 8F93      		push r24
 9842 4120 80E0      		ldi r24,lo8(.LC47)
 9843 4122 90E0      		ldi r25,hi8(.LC47)
 9844 4124 8F93      		push r24
 9845 4126 1F92      		push __zero_reg__
 9846 4128 84E0      		ldi r24,lo8(4)
 9847 412a 8F93      		push r24
 9848 412c 8A81      		ldd r24,Y+2
 9849 412e 8F93      		push r24
 9850 4130 8981      		ldd r24,Y+1
 9851 4132 8F93      		push r24
 9852 4134 0E94 0000 		call report
 9853 4138 0F90      		pop __tmp_reg__
 9854 413a 0F90      		pop __tmp_reg__
 9855 413c 0F90      		pop __tmp_reg__
 9856 413e 0F90      		pop __tmp_reg__
 9857 4140 0F90      		pop __tmp_reg__
 9858 4142 0F90      		pop __tmp_reg__
 9859               	.L285:
 684:lp_solve_5.5/lp_report.c ****   }
 685:lp_solve_5.5/lp_report.c ****   if(datainfo != NULL)
 9860               		.loc 2 685 0
 9861 4144 8C81      		ldd r24,Y+4
 9862 4146 9D81      		ldd r25,Y+5
 9863 4148 892B      		or r24,r25
 9864 414a 01F0      		breq .L288
 686:lp_solve_5.5/lp_report.c ****     report(lp, NORMAL, "%s\n", datainfo);
 9865               		.loc 2 686 0
 9866 414c 8D81      		ldd r24,Y+5
 9867 414e 8F93      		push r24
 9868 4150 8C81      		ldd r24,Y+4
 9869 4152 8F93      		push r24
 9870 4154 80E0      		ldi r24,lo8(.LC83)
 9871 4156 90E0      		ldi r25,hi8(.LC83)
 9872 4158 892F      		mov r24,r25
 9873 415a 8F93      		push r24
 9874 415c 80E0      		ldi r24,lo8(.LC83)
 9875 415e 90E0      		ldi r25,hi8(.LC83)
 9876 4160 8F93      		push r24
 9877 4162 1F92      		push __zero_reg__
 9878 4164 84E0      		ldi r24,lo8(4)
 9879 4166 8F93      		push r24
 9880 4168 8A81      		ldd r24,Y+2
 9881 416a 8F93      		push r24
 9882 416c 8981      		ldd r24,Y+1
 9883 416e 8F93      		push r24
 9884 4170 0E94 0000 		call report
 9885 4174 8DB7      		in r24,__SP_L__
 9886 4176 9EB7      		in r25,__SP_H__
 9887 4178 0896      		adiw r24,8
 9888 417a 0FB6      		in __tmp_reg__,__SREG__
 9889 417c F894      		cli
 9890 417e DEBF      		out __SP_H__,r29
 9891 4180 0FBE      		out __SREG__,__tmp_reg__
 9892 4182 CDBF      		out __SP_L__,r28
 9893               	.L288:
 687:lp_solve_5.5/lp_report.c **** 
 688:lp_solve_5.5/lp_report.c ****   report(lp, NORMAL, "Model size:  %7d constraints, %7d variables, %12d non-zeros.\n",
 9894               		.loc 2 688 0
 9895 4184 8981      		ldd r24,Y+1
 9896 4186 9A81      		ldd r25,Y+2
 9897 4188 0E94 0000 		call get_nonzeros
 9898 418c AC01      		movw r20,r24
 9899 418e 8981      		ldd r24,Y+1
 9900 4190 9A81      		ldd r25,Y+2
 9901 4192 8451      		subi r24,20
 9902 4194 9E4F      		sbci r25,-2
 9903 4196 FC01      		movw r30,r24
 9904 4198 2081      		ld r18,Z
 9905 419a 3181      		ldd r19,Z+1
 9906 419c 8981      		ldd r24,Y+1
 9907 419e 9A81      		ldd r25,Y+2
 9908 41a0 8651      		subi r24,22
 9909 41a2 9E4F      		sbci r25,-2
 9910 41a4 FC01      		movw r30,r24
 9911 41a6 8081      		ld r24,Z
 9912 41a8 9181      		ldd r25,Z+1
 9913 41aa 652F      		mov r22,r21
 9914 41ac 6F93      		push r22
 9915 41ae 4F93      		push r20
 9916 41b0 432F      		mov r20,r19
 9917 41b2 4F93      		push r20
 9918 41b4 2F93      		push r18
 9919 41b6 292F      		mov r18,r25
 9920 41b8 2F93      		push r18
 9921 41ba 8F93      		push r24
 9922 41bc 80E0      		ldi r24,lo8(.LC87)
 9923 41be 90E0      		ldi r25,hi8(.LC87)
 9924 41c0 892F      		mov r24,r25
 9925 41c2 8F93      		push r24
 9926 41c4 80E0      		ldi r24,lo8(.LC87)
 9927 41c6 90E0      		ldi r25,hi8(.LC87)
 9928 41c8 8F93      		push r24
 9929 41ca 1F92      		push __zero_reg__
 9930 41cc 84E0      		ldi r24,lo8(4)
 9931 41ce 8F93      		push r24
 9932 41d0 8A81      		ldd r24,Y+2
 9933 41d2 8F93      		push r24
 9934 41d4 8981      		ldd r24,Y+1
 9935 41d6 8F93      		push r24
 9936 41d8 0E94 0000 		call report
 9937 41dc 8DB7      		in r24,__SP_L__
 9938 41de 9EB7      		in r25,__SP_H__
 9939 41e0 0C96      		adiw r24,12
 9940 41e2 0FB6      		in __tmp_reg__,__SREG__
 9941 41e4 F894      		cli
 9942 41e6 DEBF      		out __SP_H__,r29
 9943 41e8 0FBE      		out __SREG__,__tmp_reg__
 9944 41ea CDBF      		out __SP_L__,r28
 689:lp_solve_5.5/lp_report.c ****          lp->rows, lp->columns, get_nonzeros(lp));
 690:lp_solve_5.5/lp_report.c ****   if(GUB_count(lp)+SOS_count(lp) > 0)
 9945               		.loc 2 690 0
 9946 41ec 8981      		ldd r24,Y+1
 9947 41ee 9A81      		ldd r25,Y+2
 9948 41f0 0E94 0000 		call GUB_count
 9949 41f4 8C01      		movw r16,r24
 9950 41f6 8981      		ldd r24,Y+1
 9951 41f8 9A81      		ldd r25,Y+2
 9952 41fa 0E94 0000 		call SOS_count
 9953 41fe 800F      		add r24,r16
 9954 4200 911F      		adc r25,r17
 9955 4202 1816      		cp __zero_reg__,r24
 9956 4204 1906      		cpc __zero_reg__,r25
 9957 4206 04F4      		brge .L289
 691:lp_solve_5.5/lp_report.c ****   report(lp, NORMAL, "Var-types:   %7d integer,     %7d semi-cont.,     %7d SOS.\n",
 9958               		.loc 2 691 0
 9959 4208 8981      		ldd r24,Y+1
 9960 420a 9A81      		ldd r25,Y+2
 9961 420c 8656      		subi r24,102
 9962 420e 9D4F      		sbci r25,-3
 9963 4210 FC01      		movw r30,r24
 9964 4212 4081      		ld r20,Z
 9965 4214 5181      		ldd r21,Z+1
 9966 4216 8981      		ldd r24,Y+1
 9967 4218 9A81      		ldd r25,Y+2
 9968 421a 8057      		subi r24,112
 9969 421c 9D4F      		sbci r25,-3
 9970 421e FC01      		movw r30,r24
 9971 4220 2081      		ld r18,Z
 9972 4222 3181      		ldd r19,Z+1
 9973 4224 8981      		ldd r24,Y+1
 9974 4226 9A81      		ldd r25,Y+2
 9975 4228 8257      		subi r24,114
 9976 422a 9D4F      		sbci r25,-3
 9977 422c FC01      		movw r30,r24
 9978 422e 8081      		ld r24,Z
 9979 4230 9181      		ldd r25,Z+1
 9980 4232 652F      		mov r22,r21
 9981 4234 6F93      		push r22
 9982 4236 4F93      		push r20
 9983 4238 432F      		mov r20,r19
 9984 423a 4F93      		push r20
 9985 423c 2F93      		push r18
 9986 423e 292F      		mov r18,r25
 9987 4240 2F93      		push r18
 9988 4242 8F93      		push r24
 9989 4244 80E0      		ldi r24,lo8(.LC88)
 9990 4246 90E0      		ldi r25,hi8(.LC88)
 9991 4248 892F      		mov r24,r25
 9992 424a 8F93      		push r24
 9993 424c 80E0      		ldi r24,lo8(.LC88)
 9994 424e 90E0      		ldi r25,hi8(.LC88)
 9995 4250 8F93      		push r24
 9996 4252 1F92      		push __zero_reg__
 9997 4254 84E0      		ldi r24,lo8(4)
 9998 4256 8F93      		push r24
 9999 4258 8A81      		ldd r24,Y+2
 10000 425a 8F93      		push r24
 10001 425c 8981      		ldd r24,Y+1
 10002 425e 8F93      		push r24
 10003 4260 0E94 0000 		call report
 10004 4264 8DB7      		in r24,__SP_L__
 10005 4266 9EB7      		in r25,__SP_H__
 10006 4268 0C96      		adiw r24,12
 10007 426a 0FB6      		in __tmp_reg__,__SREG__
 10008 426c F894      		cli
 10009 426e DEBF      		out __SP_H__,r29
 10010 4270 0FBE      		out __SREG__,__tmp_reg__
 10011 4272 CDBF      		out __SP_L__,r28
 10012               	.L289:
 692:lp_solve_5.5/lp_report.c ****          lp->int_vars, lp->sc_vars, lp->sos_vars);
 693:lp_solve_5.5/lp_report.c ****   report(lp, NORMAL, "Sets:                             %7d GUB,            %7d SOS.\n",
 10013               		.loc 2 693 0
 10014 4274 8981      		ldd r24,Y+1
 10015 4276 9A81      		ldd r25,Y+2
 10016 4278 0E94 0000 		call SOS_count
 10017 427c 8C01      		movw r16,r24
 10018 427e 8981      		ldd r24,Y+1
 10019 4280 9A81      		ldd r25,Y+2
 10020 4282 0E94 0000 		call GUB_count
 10021 4286 212F      		mov r18,r17
 10022 4288 2F93      		push r18
 10023 428a 202F      		mov r18,r16
 10024 428c 2F93      		push r18
 10025 428e 292F      		mov r18,r25
 10026 4290 2F93      		push r18
 10027 4292 8F93      		push r24
 10028 4294 80E0      		ldi r24,lo8(.LC89)
 10029 4296 90E0      		ldi r25,hi8(.LC89)
 10030 4298 892F      		mov r24,r25
 10031 429a 8F93      		push r24
 10032 429c 80E0      		ldi r24,lo8(.LC89)
 10033 429e 90E0      		ldi r25,hi8(.LC89)
 10034 42a0 8F93      		push r24
 10035 42a2 1F92      		push __zero_reg__
 10036 42a4 84E0      		ldi r24,lo8(4)
 10037 42a6 8F93      		push r24
 10038 42a8 8A81      		ldd r24,Y+2
 10039 42aa 8F93      		push r24
 10040 42ac 8981      		ldd r24,Y+1
 10041 42ae 8F93      		push r24
 10042 42b0 0E94 0000 		call report
 10043 42b4 EDB7      		in r30,__SP_L__
 10044 42b6 FEB7      		in r31,__SP_H__
 10045 42b8 3A96      		adiw r30,10
 10046 42ba 0FB6      		in __tmp_reg__,__SREG__
 10047 42bc F894      		cli
 10048 42be DEBF      		out __SP_H__,r29
 10049 42c0 0FBE      		out __SREG__,__tmp_reg__
 10050 42c2 CDBF      		out __SP_L__,r28
 694:lp_solve_5.5/lp_report.c ****                          GUB_count(lp), SOS_count(lp));
 695:lp_solve_5.5/lp_report.c **** }
 10051               		.loc 2 695 0
 10052 42c4 0000      		nop
 10053               	/* epilogue start */
 10054 42c6 0F90      		pop __tmp_reg__
 10055 42c8 0F90      		pop __tmp_reg__
 10056 42ca 0F90      		pop __tmp_reg__
 10057 42cc 0F90      		pop __tmp_reg__
 10058 42ce 0F90      		pop __tmp_reg__
 10059 42d0 DF91      		pop r29
 10060 42d2 CF91      		pop r28
 10061 42d4 1F91      		pop r17
 10062 42d6 0F91      		pop r16
 10063 42d8 0895      		ret
 10064               		.cfi_endproc
 10065               	.LFE26:
 10067               		.section	.rodata
 10068               	.LC90:
 10069 08d9 2525 0A00 		.string	"%%\n"
 10070               	.LC91:
 10071 08dd 2525 2025 		.string	"%% %s\n"
 10071      730A 00
 10072               	.LC92:
 10073 08e4 2564 2025 		.string	"%d %d %g\n"
 10073      6420 2567 
 10073      0A00 
 10074               	.LC93:
 10075 08ee 2525 2045 		.string	"%% End of MatrixMarket file\n"
 10075      6E64 206F 
 10075      6620 4D61 
 10075      7472 6978 
 10075      4D61 726B 
 10076               		.text
 10077               	.global	REPORT_mat_mmsave
 10079               	REPORT_mat_mmsave:
 10080               	.LFB27:
 696:lp_solve_5.5/lp_report.c **** 
 697:lp_solve_5.5/lp_report.c **** /* Save a matrix column subset to a MatrixMarket formatted file,
 698:lp_solve_5.5/lp_report.c ****    say to export the basis matrix for further numerical analysis.
 699:lp_solve_5.5/lp_report.c ****    If colndx is NULL, then the full constraint matrix is assumed. */
 700:lp_solve_5.5/lp_report.c **** MYBOOL REPORT_mat_mmsave(lprec *lp, char *filename, int *colndx, MYBOOL includeOF, char *infotext)
 701:lp_solve_5.5/lp_report.c **** {
 10081               		.loc 2 701 0
 10082               		.cfi_startproc
 10083 42da 0F93      		push r16
 10084               	.LCFI158:
 10085               		.cfi_def_cfa_offset 3
 10086               		.cfi_offset 16, -2
 10087 42dc 1F93      		push r17
 10088               	.LCFI159:
 10089               		.cfi_def_cfa_offset 4
 10090               		.cfi_offset 17, -3
 10091 42de CF93      		push r28
 10092               	.LCFI160:
 10093               		.cfi_def_cfa_offset 5
 10094               		.cfi_offset 28, -4
 10095 42e0 DF93      		push r29
 10096               	.LCFI161:
 10097               		.cfi_def_cfa_offset 6
 10098               		.cfi_offset 29, -5
 10099 42e2 CDB7      		in r28,__SP_L__
 10100 42e4 DEB7      		in r29,__SP_H__
 10101               	.LCFI162:
 10102               		.cfi_def_cfa_register 28
 10103 42e6 A497      		sbiw r28,36
 10104               	.LCFI163:
 10105               		.cfi_def_cfa_offset 42
 10106 42e8 0FB6      		in __tmp_reg__,__SREG__
 10107 42ea F894      		cli
 10108 42ec DEBF      		out __SP_H__,r29
 10109 42ee 0FBE      		out __SREG__,__tmp_reg__
 10110 42f0 CDBF      		out __SP_L__,r28
 10111               	/* prologue: function */
 10112               	/* frame size = 36 */
 10113               	/* stack size = 40 */
 10114               	.L__stack_usage = 40
 10115 42f2 9D8F      		std Y+29,r25
 10116 42f4 8C8F      		std Y+28,r24
 10117 42f6 7F8F      		std Y+31,r23
 10118 42f8 6E8F      		std Y+30,r22
 10119 42fa 59A3      		std Y+33,r21
 10120 42fc 48A3      		std Y+32,r20
 10121 42fe 2AA3      		std Y+34,r18
 10122 4300 1CA3      		std Y+36,r17
 10123 4302 0BA3      		std Y+35,r16
 702:lp_solve_5.5/lp_report.c ****   int         n, m, nz, i, j, k, kk;
 703:lp_solve_5.5/lp_report.c ****   MATrec      *mat = lp->matA;
 10124               		.loc 2 703 0
 10125 4304 8C8D      		ldd r24,Y+28
 10126 4306 9D8D      		ldd r25,Y+29
 10127 4308 8A54      		subi r24,74
 10128 430a 9D4F      		sbci r25,-3
 10129 430c FC01      		movw r30,r24
 10130 430e 8081      		ld r24,Z
 10131 4310 9181      		ldd r25,Z+1
 10132 4312 988B      		std Y+16,r25
 10133 4314 8F87      		std Y+15,r24
 704:lp_solve_5.5/lp_report.c ****   MM_typecode matcode;
 705:lp_solve_5.5/lp_report.c ****   FILE        *output = stdout;
 10134               		.loc 2 705 0
 10135 4316 8091 0000 		lds r24,__iob+2
 10136 431a 9091 0000 		lds r25,__iob+2+1
 10137 431e 9E87      		std Y+14,r25
 10138 4320 8D87      		std Y+13,r24
 706:lp_solve_5.5/lp_report.c ****   MYBOOL      ok;
 707:lp_solve_5.5/lp_report.c ****   REAL        *acol = NULL;
 10139               		.loc 2 707 0
 10140 4322 198E      		std Y+25,__zero_reg__
 10141 4324 188E      		std Y+24,__zero_reg__
 708:lp_solve_5.5/lp_report.c ****   int         *nzlist = NULL;
 10142               		.loc 2 708 0
 10143 4326 1B8E      		std Y+27,__zero_reg__
 10144 4328 1A8E      		std Y+26,__zero_reg__
 709:lp_solve_5.5/lp_report.c **** 
 710:lp_solve_5.5/lp_report.c ****   /* Open file */
 711:lp_solve_5.5/lp_report.c ****   ok = (MYBOOL) ((filename == NULL) || ((output = fopen(filename,"w")) != NULL));
 10145               		.loc 2 711 0
 10146 432a 8E8D      		ldd r24,Y+30
 10147 432c 9F8D      		ldd r25,Y+31
 10148 432e 892B      		or r24,r25
 10149 4330 01F0      		breq .L291
 10150               		.loc 2 711 0 is_stmt 0 discriminator 2
 10151 4332 8E8D      		ldd r24,Y+30
 10152 4334 9F8D      		ldd r25,Y+31
 10153 4336 60E0      		ldi r22,lo8(.LC9)
 10154 4338 70E0      		ldi r23,hi8(.LC9)
 10155 433a 0E94 0000 		call fopen
 10156 433e 9E87      		std Y+14,r25
 10157 4340 8D87      		std Y+13,r24
 10158 4342 8D85      		ldd r24,Y+13
 10159 4344 9E85      		ldd r25,Y+14
 10160 4346 892B      		or r24,r25
 10161 4348 01F0      		breq .L292
 10162               	.L291:
 10163               		.loc 2 711 0 discriminator 3
 10164 434a 81E0      		ldi r24,lo8(1)
 10165 434c 90E0      		ldi r25,0
 10166 434e 00C0      		rjmp .L293
 10167               	.L292:
 10168               		.loc 2 711 0 discriminator 4
 10169 4350 80E0      		ldi r24,0
 10170 4352 90E0      		ldi r25,0
 10171               	.L293:
 10172               		.loc 2 711 0 discriminator 6
 10173 4354 898B      		std Y+17,r24
 712:lp_solve_5.5/lp_report.c ****   if(!ok)
 10174               		.loc 2 712 0 is_stmt 1 discriminator 6
 10175 4356 8989      		ldd r24,Y+17
 10176 4358 8823      		tst r24
 10177 435a 01F4      		brne .L294
 713:lp_solve_5.5/lp_report.c ****     return(ok);
 10178               		.loc 2 713 0
 10179 435c 8989      		ldd r24,Y+17
 10180 435e 00C0      		rjmp .L324
 10181               	.L294:
 714:lp_solve_5.5/lp_report.c ****   if((filename == NULL) && (lp->outstream != NULL))
 10182               		.loc 2 714 0
 10183 4360 8E8D      		ldd r24,Y+30
 10184 4362 9F8D      		ldd r25,Y+31
 10185 4364 892B      		or r24,r25
 10186 4366 01F4      		brne .L296
 10187               		.loc 2 714 0 is_stmt 0 discriminator 1
 10188 4368 8C8D      		ldd r24,Y+28
 10189 436a 9D8D      		ldd r25,Y+29
 10190 436c 845A      		subi r24,-92
 10191 436e 9D4F      		sbci r25,-3
 10192 4370 FC01      		movw r30,r24
 10193 4372 8081      		ld r24,Z
 10194 4374 9181      		ldd r25,Z+1
 10195 4376 892B      		or r24,r25
 10196 4378 01F0      		breq .L296
 715:lp_solve_5.5/lp_report.c ****     output = lp->outstream;
 10197               		.loc 2 715 0 is_stmt 1
 10198 437a 8C8D      		ldd r24,Y+28
 10199 437c 9D8D      		ldd r25,Y+29
 10200 437e 845A      		subi r24,-92
 10201 4380 9D4F      		sbci r25,-3
 10202 4382 FC01      		movw r30,r24
 10203 4384 8081      		ld r24,Z
 10204 4386 9181      		ldd r25,Z+1
 10205 4388 9E87      		std Y+14,r25
 10206 438a 8D87      		std Y+13,r24
 10207               	.L296:
 716:lp_solve_5.5/lp_report.c **** 
 717:lp_solve_5.5/lp_report.c ****   /* Compute column and non-zero counts */
 718:lp_solve_5.5/lp_report.c ****   if(colndx == lp->var_basic) {
 10208               		.loc 2 718 0
 10209 438c 8C8D      		ldd r24,Y+28
 10210 438e 9D8D      		ldd r25,Y+29
 10211 4390 8453      		subi r24,52
 10212 4392 9D4F      		sbci r25,-3
 10213 4394 FC01      		movw r30,r24
 10214 4396 2081      		ld r18,Z
 10215 4398 3181      		ldd r19,Z+1
 10216 439a 88A1      		ldd r24,Y+32
 10217 439c 99A1      		ldd r25,Y+33
 10218 439e 2817      		cp r18,r24
 10219 43a0 3907      		cpc r19,r25
 10220 43a2 01F4      		brne .L297
 719:lp_solve_5.5/lp_report.c ****     if(!lp->basis_valid)
 10221               		.loc 2 719 0
 10222 43a4 8C8D      		ldd r24,Y+28
 10223 43a6 9D8D      		ldd r25,Y+29
 10224 43a8 8753      		subi r24,55
 10225 43aa 9D4F      		sbci r25,-3
 10226 43ac FC01      		movw r30,r24
 10227 43ae 8081      		ld r24,Z
 10228 43b0 8823      		tst r24
 10229 43b2 01F4      		brne .L298
 720:lp_solve_5.5/lp_report.c ****       return( FALSE );
 10230               		.loc 2 720 0
 10231 43b4 80E0      		ldi r24,0
 10232 43b6 00C0      		rjmp .L324
 10233               	.L298:
 721:lp_solve_5.5/lp_report.c ****     m = lp->rows;
 10234               		.loc 2 721 0
 10235 43b8 8C8D      		ldd r24,Y+28
 10236 43ba 9D8D      		ldd r25,Y+29
 10237 43bc 8651      		subi r24,22
 10238 43be 9E4F      		sbci r25,-2
 10239 43c0 FC01      		movw r30,r24
 10240 43c2 8081      		ld r24,Z
 10241 43c4 9181      		ldd r25,Z+1
 10242 43c6 9C83      		std Y+4,r25
 10243 43c8 8B83      		std Y+3,r24
 10244 43ca 00C0      		rjmp .L299
 10245               	.L297:
 722:lp_solve_5.5/lp_report.c ****   }
 723:lp_solve_5.5/lp_report.c ****   else if(colndx != NULL)
 10246               		.loc 2 723 0
 10247 43cc 88A1      		ldd r24,Y+32
 10248 43ce 99A1      		ldd r25,Y+33
 10249 43d0 892B      		or r24,r25
 10250 43d2 01F0      		breq .L300
 724:lp_solve_5.5/lp_report.c ****     m = colndx[0];
 10251               		.loc 2 724 0
 10252 43d4 88A1      		ldd r24,Y+32
 10253 43d6 99A1      		ldd r25,Y+33
 10254 43d8 FC01      		movw r30,r24
 10255 43da 8081      		ld r24,Z
 10256 43dc 9181      		ldd r25,Z+1
 10257 43de 9C83      		std Y+4,r25
 10258 43e0 8B83      		std Y+3,r24
 10259 43e2 00C0      		rjmp .L299
 10260               	.L300:
 725:lp_solve_5.5/lp_report.c ****   else
 726:lp_solve_5.5/lp_report.c ****     m = lp->columns;
 10261               		.loc 2 726 0
 10262 43e4 8C8D      		ldd r24,Y+28
 10263 43e6 9D8D      		ldd r25,Y+29
 10264 43e8 8451      		subi r24,20
 10265 43ea 9E4F      		sbci r25,-2
 10266 43ec FC01      		movw r30,r24
 10267 43ee 8081      		ld r24,Z
 10268 43f0 9181      		ldd r25,Z+1
 10269 43f2 9C83      		std Y+4,r25
 10270 43f4 8B83      		std Y+3,r24
 10271               	.L299:
 727:lp_solve_5.5/lp_report.c ****   n = lp->rows;
 10272               		.loc 2 727 0
 10273 43f6 8C8D      		ldd r24,Y+28
 10274 43f8 9D8D      		ldd r25,Y+29
 10275 43fa 8651      		subi r24,22
 10276 43fc 9E4F      		sbci r25,-2
 10277 43fe FC01      		movw r30,r24
 10278 4400 8081      		ld r24,Z
 10279 4402 9181      		ldd r25,Z+1
 10280 4404 9A83      		std Y+2,r25
 10281 4406 8983      		std Y+1,r24
 728:lp_solve_5.5/lp_report.c ****   nz = 0;
 10282               		.loc 2 728 0
 10283 4408 1E82      		std Y+6,__zero_reg__
 10284 440a 1D82      		std Y+5,__zero_reg__
 729:lp_solve_5.5/lp_report.c **** 
 730:lp_solve_5.5/lp_report.c ****   for(j = 1; j <= m; j++) {
 10285               		.loc 2 730 0
 10286 440c 81E0      		ldi r24,lo8(1)
 10287 440e 90E0      		ldi r25,0
 10288 4410 9A87      		std Y+10,r25
 10289 4412 8987      		std Y+9,r24
 10290 4414 00C0      		rjmp .L301
 10291               	.L307:
 731:lp_solve_5.5/lp_report.c ****     k = (colndx == NULL ? n + j : colndx[j]);
 10292               		.loc 2 731 0
 10293 4416 88A1      		ldd r24,Y+32
 10294 4418 99A1      		ldd r25,Y+33
 10295 441a 892B      		or r24,r25
 10296 441c 01F4      		brne .L302
 10297               		.loc 2 731 0 is_stmt 0 discriminator 1
 10298 441e 2981      		ldd r18,Y+1
 10299 4420 3A81      		ldd r19,Y+2
 10300 4422 8985      		ldd r24,Y+9
 10301 4424 9A85      		ldd r25,Y+10
 10302 4426 820F      		add r24,r18
 10303 4428 931F      		adc r25,r19
 10304 442a 00C0      		rjmp .L303
 10305               	.L302:
 10306               		.loc 2 731 0 discriminator 2
 10307 442c 8985      		ldd r24,Y+9
 10308 442e 9A85      		ldd r25,Y+10
 10309 4430 880F      		lsl r24
 10310 4432 991F      		rol r25
 10311 4434 28A1      		ldd r18,Y+32
 10312 4436 39A1      		ldd r19,Y+33
 10313 4438 820F      		add r24,r18
 10314 443a 931F      		adc r25,r19
 10315 443c FC01      		movw r30,r24
 10316 443e 8081      		ld r24,Z
 10317 4440 9181      		ldd r25,Z+1
 10318               	.L303:
 10319               		.loc 2 731 0 discriminator 4
 10320 4442 9B8B      		std Y+19,r25
 10321 4444 8A8B      		std Y+18,r24
 732:lp_solve_5.5/lp_report.c ****     if(k > n) {
 10322               		.loc 2 732 0 is_stmt 1 discriminator 4
 10323 4446 2A89      		ldd r18,Y+18
 10324 4448 3B89      		ldd r19,Y+19
 10325 444a 8981      		ldd r24,Y+1
 10326 444c 9A81      		ldd r25,Y+2
 10327 444e 8217      		cp r24,r18
 10328 4450 9307      		cpc r25,r19
 10329 4452 04F4      		brge .L304
 733:lp_solve_5.5/lp_report.c ****       k -= lp->rows;
 10330               		.loc 2 733 0
 10331 4454 8C8D      		ldd r24,Y+28
 10332 4456 9D8D      		ldd r25,Y+29
 10333 4458 8651      		subi r24,22
 10334 445a 9E4F      		sbci r25,-2
 10335 445c FC01      		movw r30,r24
 10336 445e 8081      		ld r24,Z
 10337 4460 9181      		ldd r25,Z+1
 10338 4462 2A89      		ldd r18,Y+18
 10339 4464 3B89      		ldd r19,Y+19
 10340 4466 A901      		movw r20,r18
 10341 4468 481B      		sub r20,r24
 10342 446a 590B      		sbc r21,r25
 10343 446c CA01      		movw r24,r20
 10344 446e 9B8B      		std Y+19,r25
 10345 4470 8A8B      		std Y+18,r24
 734:lp_solve_5.5/lp_report.c ****       nz += mat_collength(mat, k);
 10346               		.loc 2 734 0
 10347 4472 2A89      		ldd r18,Y+18
 10348 4474 3B89      		ldd r19,Y+19
 10349 4476 8F85      		ldd r24,Y+15
 10350 4478 9889      		ldd r25,Y+16
 10351 447a B901      		movw r22,r18
 10352 447c 0E94 0000 		call mat_collength
 10353 4480 9C01      		movw r18,r24
 10354 4482 8D81      		ldd r24,Y+5
 10355 4484 9E81      		ldd r25,Y+6
 10356 4486 820F      		add r24,r18
 10357 4488 931F      		adc r25,r19
 10358 448a 9E83      		std Y+6,r25
 10359 448c 8D83      		std Y+5,r24
 735:lp_solve_5.5/lp_report.c ****       if(includeOF && is_OF_nz(lp, k))
 10360               		.loc 2 735 0
 10361 448e 8AA1      		ldd r24,Y+34
 10362 4490 8823      		tst r24
 10363 4492 01F0      		breq .L306
 10364               		.loc 2 735 0 is_stmt 0 discriminator 1
 10365 4494 2A89      		ldd r18,Y+18
 10366 4496 3B89      		ldd r19,Y+19
 10367 4498 8C8D      		ldd r24,Y+28
 10368 449a 9D8D      		ldd r25,Y+29
 10369 449c B901      		movw r22,r18
 10370 449e 0E94 0000 		call is_OF_nz
 10371 44a2 8823      		tst r24
 10372 44a4 01F0      		breq .L306
 736:lp_solve_5.5/lp_report.c ****         nz++;
 10373               		.loc 2 736 0 is_stmt 1
 10374 44a6 8D81      		ldd r24,Y+5
 10375 44a8 9E81      		ldd r25,Y+6
 10376 44aa 0196      		adiw r24,1
 10377 44ac 9E83      		std Y+6,r25
 10378 44ae 8D83      		std Y+5,r24
 10379 44b0 00C0      		rjmp .L306
 10380               	.L304:
 737:lp_solve_5.5/lp_report.c ****     }
 738:lp_solve_5.5/lp_report.c ****     else
 739:lp_solve_5.5/lp_report.c ****       nz++;
 10381               		.loc 2 739 0
 10382 44b2 8D81      		ldd r24,Y+5
 10383 44b4 9E81      		ldd r25,Y+6
 10384 44b6 0196      		adiw r24,1
 10385 44b8 9E83      		std Y+6,r25
 10386 44ba 8D83      		std Y+5,r24
 10387               	.L306:
 730:lp_solve_5.5/lp_report.c ****     k = (colndx == NULL ? n + j : colndx[j]);
 10388               		.loc 2 730 0 discriminator 2
 10389 44bc 8985      		ldd r24,Y+9
 10390 44be 9A85      		ldd r25,Y+10
 10391 44c0 0196      		adiw r24,1
 10392 44c2 9A87      		std Y+10,r25
 10393 44c4 8987      		std Y+9,r24
 10394               	.L301:
 730:lp_solve_5.5/lp_report.c ****     k = (colndx == NULL ? n + j : colndx[j]);
 10395               		.loc 2 730 0 is_stmt 0 discriminator 1
 10396 44c6 2985      		ldd r18,Y+9
 10397 44c8 3A85      		ldd r19,Y+10
 10398 44ca 8B81      		ldd r24,Y+3
 10399 44cc 9C81      		ldd r25,Y+4
 10400 44ce 8217      		cp r24,r18
 10401 44d0 9307      		cpc r25,r19
 10402 44d2 04F0      		brlt .+2
 10403 44d4 00C0      		rjmp .L307
 740:lp_solve_5.5/lp_report.c ****   }
 741:lp_solve_5.5/lp_report.c ****   kk = 0;
 10404               		.loc 2 741 0 is_stmt 1
 10405 44d6 1C86      		std Y+12,__zero_reg__
 10406 44d8 1B86      		std Y+11,__zero_reg__
 742:lp_solve_5.5/lp_report.c ****   if(includeOF) {
 10407               		.loc 2 742 0
 10408 44da 8AA1      		ldd r24,Y+34
 10409 44dc 8823      		tst r24
 10410 44de 01F0      		breq .L308
 743:lp_solve_5.5/lp_report.c ****     n++;   /* Row count */
 10411               		.loc 2 743 0
 10412 44e0 8981      		ldd r24,Y+1
 10413 44e2 9A81      		ldd r25,Y+2
 10414 44e4 0196      		adiw r24,1
 10415 44e6 9A83      		std Y+2,r25
 10416 44e8 8983      		std Y+1,r24
 744:lp_solve_5.5/lp_report.c ****     kk++;  /* Row index offset */
 10417               		.loc 2 744 0
 10418 44ea 8B85      		ldd r24,Y+11
 10419 44ec 9C85      		ldd r25,Y+12
 10420 44ee 0196      		adiw r24,1
 10421 44f0 9C87      		std Y+12,r25
 10422 44f2 8B87      		std Y+11,r24
 10423               	.L308:
 745:lp_solve_5.5/lp_report.c ****   }
 746:lp_solve_5.5/lp_report.c **** 
 747:lp_solve_5.5/lp_report.c ****   /* Initialize */
 748:lp_solve_5.5/lp_report.c ****   mm_initialize_typecode(&matcode);
 10424               		.loc 2 748 0
 10425 44f4 80E2      		ldi r24,lo8(32)
 10426 44f6 8E8B      		std Y+22,r24
 10427 44f8 8E89      		ldd r24,Y+22
 10428 44fa 8D8B      		std Y+21,r24
 10429 44fc 8D89      		ldd r24,Y+21
 10430 44fe 8C8B      		std Y+20,r24
 10431 4500 87E4      		ldi r24,lo8(71)
 10432 4502 8F8B      		std Y+23,r24
 749:lp_solve_5.5/lp_report.c ****   mm_set_matrix(&matcode);
 10433               		.loc 2 749 0
 10434 4504 8DE4      		ldi r24,lo8(77)
 10435 4506 8C8B      		std Y+20,r24
 750:lp_solve_5.5/lp_report.c ****   mm_set_coordinate(&matcode);
 10436               		.loc 2 750 0
 10437 4508 83E4      		ldi r24,lo8(67)
 10438 450a 8D8B      		std Y+21,r24
 751:lp_solve_5.5/lp_report.c ****   mm_set_real(&matcode);
 10439               		.loc 2 751 0
 10440 450c 82E5      		ldi r24,lo8(82)
 10441 450e 8E8B      		std Y+22,r24
 752:lp_solve_5.5/lp_report.c **** 
 753:lp_solve_5.5/lp_report.c ****   mm_write_banner(output, matcode);
 10442               		.loc 2 753 0
 10443 4510 9E01      		movw r18,r28
 10444 4512 2C5E      		subi r18,-20
 10445 4514 3F4F      		sbci r19,-1
 10446 4516 8D85      		ldd r24,Y+13
 10447 4518 9E85      		ldd r25,Y+14
 10448 451a B901      		movw r22,r18
 10449 451c 0E94 0000 		call mm_write_banner
 754:lp_solve_5.5/lp_report.c ****   mm_write_mtx_crd_size(output, n+kk, m, nz+(colndx == lp->var_basic ? 1 : 0));
 10450               		.loc 2 754 0
 10451 4520 8C8D      		ldd r24,Y+28
 10452 4522 9D8D      		ldd r25,Y+29
 10453 4524 8453      		subi r24,52
 10454 4526 9D4F      		sbci r25,-3
 10455 4528 FC01      		movw r30,r24
 10456 452a 2081      		ld r18,Z
 10457 452c 3181      		ldd r19,Z+1
 10458 452e 41E0      		ldi r20,lo8(1)
 10459 4530 88A1      		ldd r24,Y+32
 10460 4532 99A1      		ldd r25,Y+33
 10461 4534 2817      		cp r18,r24
 10462 4536 3907      		cpc r19,r25
 10463 4538 01F0      		breq .L309
 10464 453a 40E0      		ldi r20,0
 10465               	.L309:
 10466 453c 242F      		mov r18,r20
 10467 453e 30E0      		ldi r19,0
 10468 4540 8D81      		ldd r24,Y+5
 10469 4542 9E81      		ldd r25,Y+6
 10470 4544 F901      		movw r30,r18
 10471 4546 E80F      		add r30,r24
 10472 4548 F91F      		adc r31,r25
 10473 454a 2981      		ldd r18,Y+1
 10474 454c 3A81      		ldd r19,Y+2
 10475 454e 8B85      		ldd r24,Y+11
 10476 4550 9C85      		ldd r25,Y+12
 10477 4552 B901      		movw r22,r18
 10478 4554 680F      		add r22,r24
 10479 4556 791F      		adc r23,r25
 10480 4558 4B81      		ldd r20,Y+3
 10481 455a 5C81      		ldd r21,Y+4
 10482 455c 8D85      		ldd r24,Y+13
 10483 455e 9E85      		ldd r25,Y+14
 10484 4560 9F01      		movw r18,r30
 10485 4562 0E94 0000 		call mm_write_mtx_crd_size
 755:lp_solve_5.5/lp_report.c **** 
 756:lp_solve_5.5/lp_report.c ****   /* Allocate working arrays for sparse column storage */
 757:lp_solve_5.5/lp_report.c ****   allocREAL(lp, &acol, n+2, FALSE);
 10486               		.loc 2 757 0
 10487 4566 8981      		ldd r24,Y+1
 10488 4568 9A81      		ldd r25,Y+2
 10489 456a AC01      		movw r20,r24
 10490 456c 4E5F      		subi r20,-2
 10491 456e 5F4F      		sbci r21,-1
 10492 4570 BE01      		movw r22,r28
 10493 4572 685E      		subi r22,-24
 10494 4574 7F4F      		sbci r23,-1
 10495 4576 8C8D      		ldd r24,Y+28
 10496 4578 9D8D      		ldd r25,Y+29
 10497 457a 20E0      		ldi r18,0
 10498 457c 0E94 0000 		call allocREAL
 758:lp_solve_5.5/lp_report.c ****   allocINT(lp, &nzlist, n+2, FALSE);
 10499               		.loc 2 758 0
 10500 4580 8981      		ldd r24,Y+1
 10501 4582 9A81      		ldd r25,Y+2
 10502 4584 AC01      		movw r20,r24
 10503 4586 4E5F      		subi r20,-2
 10504 4588 5F4F      		sbci r21,-1
 10505 458a BE01      		movw r22,r28
 10506 458c 665E      		subi r22,-26
 10507 458e 7F4F      		sbci r23,-1
 10508 4590 8C8D      		ldd r24,Y+28
 10509 4592 9D8D      		ldd r25,Y+29
 10510 4594 20E0      		ldi r18,0
 10511 4596 0E94 0000 		call allocINT
 759:lp_solve_5.5/lp_report.c **** 
 760:lp_solve_5.5/lp_report.c ****   /* Write the matrix non-zero values column-by-column.
 761:lp_solve_5.5/lp_report.c ****      NOTE: matrixMarket files use 1-based indeces,
 762:lp_solve_5.5/lp_report.c ****      i.e. first row of a vector has index 1, not 0. */
 763:lp_solve_5.5/lp_report.c ****   if(infotext != NULL) {
 10512               		.loc 2 763 0
 10513 459a 8BA1      		ldd r24,Y+35
 10514 459c 9CA1      		ldd r25,Y+36
 10515 459e 892B      		or r24,r25
 10516 45a0 01F0      		breq .L310
 764:lp_solve_5.5/lp_report.c ****     fprintf(output, "%%\n");
 10517               		.loc 2 764 0
 10518 45a2 80E0      		ldi r24,lo8(.LC90)
 10519 45a4 90E0      		ldi r25,hi8(.LC90)
 10520 45a6 892F      		mov r24,r25
 10521 45a8 8F93      		push r24
 10522 45aa 80E0      		ldi r24,lo8(.LC90)
 10523 45ac 90E0      		ldi r25,hi8(.LC90)
 10524 45ae 8F93      		push r24
 10525 45b0 8E85      		ldd r24,Y+14
 10526 45b2 8F93      		push r24
 10527 45b4 8D85      		ldd r24,Y+13
 10528 45b6 8F93      		push r24
 10529 45b8 0E94 0000 		call fprintf
 10530 45bc 0F90      		pop __tmp_reg__
 10531 45be 0F90      		pop __tmp_reg__
 10532 45c0 0F90      		pop __tmp_reg__
 10533 45c2 0F90      		pop __tmp_reg__
 765:lp_solve_5.5/lp_report.c ****     fprintf(output, "%% %s\n", infotext);
 10534               		.loc 2 765 0
 10535 45c4 8CA1      		ldd r24,Y+36
 10536 45c6 8F93      		push r24
 10537 45c8 8BA1      		ldd r24,Y+35
 10538 45ca 8F93      		push r24
 10539 45cc 80E0      		ldi r24,lo8(.LC91)
 10540 45ce 90E0      		ldi r25,hi8(.LC91)
 10541 45d0 892F      		mov r24,r25
 10542 45d2 8F93      		push r24
 10543 45d4 80E0      		ldi r24,lo8(.LC91)
 10544 45d6 90E0      		ldi r25,hi8(.LC91)
 10545 45d8 8F93      		push r24
 10546 45da 8E85      		ldd r24,Y+14
 10547 45dc 8F93      		push r24
 10548 45de 8D85      		ldd r24,Y+13
 10549 45e0 8F93      		push r24
 10550 45e2 0E94 0000 		call fprintf
 10551 45e6 0F90      		pop __tmp_reg__
 10552 45e8 0F90      		pop __tmp_reg__
 10553 45ea 0F90      		pop __tmp_reg__
 10554 45ec 0F90      		pop __tmp_reg__
 10555 45ee 0F90      		pop __tmp_reg__
 10556 45f0 0F90      		pop __tmp_reg__
 766:lp_solve_5.5/lp_report.c ****     fprintf(output, "%%\n");
 10557               		.loc 2 766 0
 10558 45f2 80E0      		ldi r24,lo8(.LC90)
 10559 45f4 90E0      		ldi r25,hi8(.LC90)
 10560 45f6 892F      		mov r24,r25
 10561 45f8 8F93      		push r24
 10562 45fa 80E0      		ldi r24,lo8(.LC90)
 10563 45fc 90E0      		ldi r25,hi8(.LC90)
 10564 45fe 8F93      		push r24
 10565 4600 8E85      		ldd r24,Y+14
 10566 4602 8F93      		push r24
 10567 4604 8D85      		ldd r24,Y+13
 10568 4606 8F93      		push r24
 10569 4608 0E94 0000 		call fprintf
 10570 460c 0F90      		pop __tmp_reg__
 10571 460e 0F90      		pop __tmp_reg__
 10572 4610 0F90      		pop __tmp_reg__
 10573 4612 0F90      		pop __tmp_reg__
 10574               	.L310:
 767:lp_solve_5.5/lp_report.c ****   }
 768:lp_solve_5.5/lp_report.c ****   if(includeOF && (colndx == lp->var_basic))
 10575               		.loc 2 768 0
 10576 4614 8AA1      		ldd r24,Y+34
 10577 4616 8823      		tst r24
 10578 4618 01F0      		breq .L311
 10579               		.loc 2 768 0 is_stmt 0 discriminator 1
 10580 461a 8C8D      		ldd r24,Y+28
 10581 461c 9D8D      		ldd r25,Y+29
 10582 461e 8453      		subi r24,52
 10583 4620 9D4F      		sbci r25,-3
 10584 4622 FC01      		movw r30,r24
 10585 4624 2081      		ld r18,Z
 10586 4626 3181      		ldd r19,Z+1
 10587 4628 88A1      		ldd r24,Y+32
 10588 462a 99A1      		ldd r25,Y+33
 10589 462c 2817      		cp r18,r24
 10590 462e 3907      		cpc r19,r25
 10591 4630 01F4      		brne .L311
 769:lp_solve_5.5/lp_report.c ****     fprintf(output, "%d %d %g\n", 1, 1, 1.0);
 10592               		.loc 2 769 0 is_stmt 1
 10593 4632 8FE3      		ldi r24,lo8(63)
 10594 4634 8F93      		push r24
 10595 4636 80E8      		ldi r24,lo8(-128)
 10596 4638 8F93      		push r24
 10597 463a 1F92      		push __zero_reg__
 10598 463c 1F92      		push __zero_reg__
 10599 463e 1F92      		push __zero_reg__
 10600 4640 81E0      		ldi r24,lo8(1)
 10601 4642 8F93      		push r24
 10602 4644 1F92      		push __zero_reg__
 10603 4646 81E0      		ldi r24,lo8(1)
 10604 4648 8F93      		push r24
 10605 464a 80E0      		ldi r24,lo8(.LC92)
 10606 464c 90E0      		ldi r25,hi8(.LC92)
 10607 464e 892F      		mov r24,r25
 10608 4650 8F93      		push r24
 10609 4652 80E0      		ldi r24,lo8(.LC92)
 10610 4654 90E0      		ldi r25,hi8(.LC92)
 10611 4656 8F93      		push r24
 10612 4658 8E85      		ldd r24,Y+14
 10613 465a 8F93      		push r24
 10614 465c 8D85      		ldd r24,Y+13
 10615 465e 8F93      		push r24
 10616 4660 0E94 0000 		call fprintf
 10617 4664 4DB7      		in r20,__SP_L__
 10618 4666 5EB7      		in r21,__SP_H__
 10619 4668 445F      		subi r20,-12
 10620 466a 5F4F      		sbci r21,-1
 10621 466c 0FB6      		in __tmp_reg__,__SREG__
 10622 466e F894      		cli
 10623 4670 DEBF      		out __SP_H__,r29
 10624 4672 0FBE      		out __SREG__,__tmp_reg__
 10625 4674 CDBF      		out __SP_L__,r28
 10626               	.L311:
 770:lp_solve_5.5/lp_report.c ****   for(j = 1; j <= m; j++) {
 10627               		.loc 2 770 0
 10628 4676 81E0      		ldi r24,lo8(1)
 10629 4678 90E0      		ldi r25,0
 10630 467a 9A87      		std Y+10,r25
 10631 467c 8987      		std Y+9,r24
 10632 467e 00C0      		rjmp .L312
 10633               	.L321:
 771:lp_solve_5.5/lp_report.c ****     k = (colndx == NULL ? lp->rows + j : colndx[j]);
 10634               		.loc 2 771 0
 10635 4680 88A1      		ldd r24,Y+32
 10636 4682 99A1      		ldd r25,Y+33
 10637 4684 892B      		or r24,r25
 10638 4686 01F4      		brne .L313
 10639               		.loc 2 771 0 is_stmt 0 discriminator 1
 10640 4688 8C8D      		ldd r24,Y+28
 10641 468a 9D8D      		ldd r25,Y+29
 10642 468c 8651      		subi r24,22
 10643 468e 9E4F      		sbci r25,-2
 10644 4690 FC01      		movw r30,r24
 10645 4692 2081      		ld r18,Z
 10646 4694 3181      		ldd r19,Z+1
 10647 4696 8985      		ldd r24,Y+9
 10648 4698 9A85      		ldd r25,Y+10
 10649 469a 820F      		add r24,r18
 10650 469c 931F      		adc r25,r19
 10651 469e 00C0      		rjmp .L314
 10652               	.L313:
 10653               		.loc 2 771 0 discriminator 2
 10654 46a0 8985      		ldd r24,Y+9
 10655 46a2 9A85      		ldd r25,Y+10
 10656 46a4 880F      		lsl r24
 10657 46a6 991F      		rol r25
 10658 46a8 28A1      		ldd r18,Y+32
 10659 46aa 39A1      		ldd r19,Y+33
 10660 46ac 820F      		add r24,r18
 10661 46ae 931F      		adc r25,r19
 10662 46b0 FC01      		movw r30,r24
 10663 46b2 8081      		ld r24,Z
 10664 46b4 9181      		ldd r25,Z+1
 10665               	.L314:
 10666               		.loc 2 771 0 discriminator 4
 10667 46b6 9B8B      		std Y+19,r25
 10668 46b8 8A8B      		std Y+18,r24
 772:lp_solve_5.5/lp_report.c ****     if(k == 0)
 10669               		.loc 2 772 0 is_stmt 1 discriminator 4
 10670 46ba 8A89      		ldd r24,Y+18
 10671 46bc 9B89      		ldd r25,Y+19
 10672 46be 892B      		or r24,r25
 10673 46c0 01F4      		brne .+2
 10674 46c2 00C0      		rjmp .L325
 773:lp_solve_5.5/lp_report.c ****       continue;
 774:lp_solve_5.5/lp_report.c ****     nz = obtain_column(lp, k, acol, nzlist, NULL);
 10675               		.loc 2 774 0
 10676 46c4 2A8D      		ldd r18,Y+26
 10677 46c6 3B8D      		ldd r19,Y+27
 10678 46c8 488D      		ldd r20,Y+24
 10679 46ca 598D      		ldd r21,Y+25
 10680 46cc 6A89      		ldd r22,Y+18
 10681 46ce 7B89      		ldd r23,Y+19
 10682 46d0 8C8D      		ldd r24,Y+28
 10683 46d2 9D8D      		ldd r25,Y+29
 10684 46d4 00E0      		ldi r16,0
 10685 46d6 10E0      		ldi r17,0
 10686 46d8 0E94 0000 		call obtain_column
 10687 46dc 9E83      		std Y+6,r25
 10688 46de 8D83      		std Y+5,r24
 775:lp_solve_5.5/lp_report.c ****     for(i = 1; i <= nz; i++) {
 10689               		.loc 2 775 0
 10690 46e0 81E0      		ldi r24,lo8(1)
 10691 46e2 90E0      		ldi r25,0
 10692 46e4 9887      		std Y+8,r25
 10693 46e6 8F83      		std Y+7,r24
 10694 46e8 00C0      		rjmp .L317
 10695               	.L320:
 776:lp_solve_5.5/lp_report.c ****       if(!includeOF && (nzlist[i] == 0))
 10696               		.loc 2 776 0
 10697 46ea 8AA1      		ldd r24,Y+34
 10698 46ec 8823      		tst r24
 10699 46ee 01F4      		brne .L318
 10700               		.loc 2 776 0 is_stmt 0 discriminator 1
 10701 46f0 2A8D      		ldd r18,Y+26
 10702 46f2 3B8D      		ldd r19,Y+27
 10703 46f4 8F81      		ldd r24,Y+7
 10704 46f6 9885      		ldd r25,Y+8
 10705 46f8 880F      		lsl r24
 10706 46fa 991F      		rol r25
 10707 46fc 820F      		add r24,r18
 10708 46fe 931F      		adc r25,r19
 10709 4700 FC01      		movw r30,r24
 10710 4702 8081      		ld r24,Z
 10711 4704 9181      		ldd r25,Z+1
 10712 4706 892B      		or r24,r25
 10713 4708 01F4      		brne .+2
 10714 470a 00C0      		rjmp .L326
 10715               	.L318:
 777:lp_solve_5.5/lp_report.c ****         continue;
 778:lp_solve_5.5/lp_report.c ****       fprintf(output, "%d %d %g\n", nzlist[i]+kk, j+kk, acol[i]);
 10716               		.loc 2 778 0 is_stmt 1
 10717 470c 288D      		ldd r18,Y+24
 10718 470e 398D      		ldd r19,Y+25
 10719 4710 8F81      		ldd r24,Y+7
 10720 4712 9885      		ldd r25,Y+8
 10721 4714 880F      		lsl r24
 10722 4716 991F      		rol r25
 10723 4718 880F      		lsl r24
 10724 471a 991F      		rol r25
 10725 471c 820F      		add r24,r18
 10726 471e 931F      		adc r25,r19
 10727 4720 FC01      		movw r30,r24
 10728 4722 8081      		ld r24,Z
 10729 4724 9181      		ldd r25,Z+1
 10730 4726 A281      		ldd r26,Z+2
 10731 4728 B381      		ldd r27,Z+3
 10732 472a 4985      		ldd r20,Y+9
 10733 472c 5A85      		ldd r21,Y+10
 10734 472e 2B85      		ldd r18,Y+11
 10735 4730 3C85      		ldd r19,Y+12
 10736 4732 BA01      		movw r22,r20
 10737 4734 620F      		add r22,r18
 10738 4736 731F      		adc r23,r19
 10739 4738 4A8D      		ldd r20,Y+26
 10740 473a 5B8D      		ldd r21,Y+27
 10741 473c 2F81      		ldd r18,Y+7
 10742 473e 3885      		ldd r19,Y+8
 10743 4740 220F      		lsl r18
 10744 4742 331F      		rol r19
 10745 4744 240F      		add r18,r20
 10746 4746 351F      		adc r19,r21
 10747 4748 F901      		movw r30,r18
 10748 474a 4081      		ld r20,Z
 10749 474c 5181      		ldd r21,Z+1
 10750 474e 2B85      		ldd r18,Y+11
 10751 4750 3C85      		ldd r19,Y+12
 10752 4752 240F      		add r18,r20
 10753 4754 351F      		adc r19,r21
 10754 4756 4B2F      		mov r20,r27
 10755 4758 4F93      		push r20
 10756 475a 4A2F      		mov r20,r26
 10757 475c 4F93      		push r20
 10758 475e 492F      		mov r20,r25
 10759 4760 4F93      		push r20
 10760 4762 8F93      		push r24
 10761 4764 872F      		mov r24,r23
 10762 4766 8F93      		push r24
 10763 4768 862F      		mov r24,r22
 10764 476a 8F93      		push r24
 10765 476c 832F      		mov r24,r19
 10766 476e 8F93      		push r24
 10767 4770 822F      		mov r24,r18
 10768 4772 8F93      		push r24
 10769 4774 80E0      		ldi r24,lo8(.LC92)
 10770 4776 90E0      		ldi r25,hi8(.LC92)
 10771 4778 892F      		mov r24,r25
 10772 477a 8F93      		push r24
 10773 477c 80E0      		ldi r24,lo8(.LC92)
 10774 477e 90E0      		ldi r25,hi8(.LC92)
 10775 4780 8F93      		push r24
 10776 4782 8E85      		ldd r24,Y+14
 10777 4784 8F93      		push r24
 10778 4786 8D85      		ldd r24,Y+13
 10779 4788 8F93      		push r24
 10780 478a 0E94 0000 		call fprintf
 10781 478e 4DB7      		in r20,__SP_L__
 10782 4790 5EB7      		in r21,__SP_H__
 10783 4792 445F      		subi r20,-12
 10784 4794 5F4F      		sbci r21,-1
 10785 4796 0FB6      		in __tmp_reg__,__SREG__
 10786 4798 F894      		cli
 10787 479a DEBF      		out __SP_H__,r29
 10788 479c 0FBE      		out __SREG__,__tmp_reg__
 10789 479e CDBF      		out __SP_L__,r28
 10790 47a0 00C0      		rjmp .L319
 10791               	.L326:
 777:lp_solve_5.5/lp_report.c ****         continue;
 10792               		.loc 2 777 0
 10793 47a2 0000      		nop
 10794               	.L319:
 775:lp_solve_5.5/lp_report.c ****       if(!includeOF && (nzlist[i] == 0))
 10795               		.loc 2 775 0 discriminator 2
 10796 47a4 8F81      		ldd r24,Y+7
 10797 47a6 9885      		ldd r25,Y+8
 10798 47a8 0196      		adiw r24,1
 10799 47aa 9887      		std Y+8,r25
 10800 47ac 8F83      		std Y+7,r24
 10801               	.L317:
 775:lp_solve_5.5/lp_report.c ****       if(!includeOF && (nzlist[i] == 0))
 10802               		.loc 2 775 0 is_stmt 0 discriminator 1
 10803 47ae 2F81      		ldd r18,Y+7
 10804 47b0 3885      		ldd r19,Y+8
 10805 47b2 8D81      		ldd r24,Y+5
 10806 47b4 9E81      		ldd r25,Y+6
 10807 47b6 8217      		cp r24,r18
 10808 47b8 9307      		cpc r25,r19
 10809 47ba 04F0      		brlt .+2
 10810 47bc 00C0      		rjmp .L320
 10811 47be 00C0      		rjmp .L316
 10812               	.L325:
 773:lp_solve_5.5/lp_report.c ****     nz = obtain_column(lp, k, acol, nzlist, NULL);
 10813               		.loc 2 773 0 is_stmt 1
 10814 47c0 0000      		nop
 10815               	.L316:
 770:lp_solve_5.5/lp_report.c ****     k = (colndx == NULL ? lp->rows + j : colndx[j]);
 10816               		.loc 2 770 0 discriminator 2
 10817 47c2 8985      		ldd r24,Y+9
 10818 47c4 9A85      		ldd r25,Y+10
 10819 47c6 0196      		adiw r24,1
 10820 47c8 9A87      		std Y+10,r25
 10821 47ca 8987      		std Y+9,r24
 10822               	.L312:
 770:lp_solve_5.5/lp_report.c ****     k = (colndx == NULL ? lp->rows + j : colndx[j]);
 10823               		.loc 2 770 0 is_stmt 0 discriminator 1
 10824 47cc 2985      		ldd r18,Y+9
 10825 47ce 3A85      		ldd r19,Y+10
 10826 47d0 8B81      		ldd r24,Y+3
 10827 47d2 9C81      		ldd r25,Y+4
 10828 47d4 8217      		cp r24,r18
 10829 47d6 9307      		cpc r25,r19
 10830 47d8 04F0      		brlt .+2
 10831 47da 00C0      		rjmp .L321
 779:lp_solve_5.5/lp_report.c ****     }
 780:lp_solve_5.5/lp_report.c ****   }
 781:lp_solve_5.5/lp_report.c ****   fprintf(output, "%% End of MatrixMarket file\n");
 10832               		.loc 2 781 0 is_stmt 1
 10833 47dc 80E0      		ldi r24,lo8(.LC93)
 10834 47de 90E0      		ldi r25,hi8(.LC93)
 10835 47e0 892F      		mov r24,r25
 10836 47e2 8F93      		push r24
 10837 47e4 80E0      		ldi r24,lo8(.LC93)
 10838 47e6 90E0      		ldi r25,hi8(.LC93)
 10839 47e8 8F93      		push r24
 10840 47ea 8E85      		ldd r24,Y+14
 10841 47ec 8F93      		push r24
 10842 47ee 8D85      		ldd r24,Y+13
 10843 47f0 8F93      		push r24
 10844 47f2 0E94 0000 		call fprintf
 10845 47f6 0F90      		pop __tmp_reg__
 10846 47f8 0F90      		pop __tmp_reg__
 10847 47fa 0F90      		pop __tmp_reg__
 10848 47fc 0F90      		pop __tmp_reg__
 782:lp_solve_5.5/lp_report.c **** 
 783:lp_solve_5.5/lp_report.c ****   /* Finish */
 784:lp_solve_5.5/lp_report.c ****   FREE(acol);
 10849               		.loc 2 784 0
 10850 47fe 888D      		ldd r24,Y+24
 10851 4800 998D      		ldd r25,Y+25
 10852 4802 892B      		or r24,r25
 10853 4804 01F0      		breq .L322
 10854               		.loc 2 784 0 is_stmt 0 discriminator 1
 10855 4806 888D      		ldd r24,Y+24
 10856 4808 998D      		ldd r25,Y+25
 10857 480a 0E94 0000 		call free
 10858 480e 198E      		std Y+25,__zero_reg__
 10859 4810 188E      		std Y+24,__zero_reg__
 10860               	.L322:
 785:lp_solve_5.5/lp_report.c ****   FREE(nzlist);
 10861               		.loc 2 785 0 is_stmt 1
 10862 4812 8A8D      		ldd r24,Y+26
 10863 4814 9B8D      		ldd r25,Y+27
 10864 4816 892B      		or r24,r25
 10865 4818 01F0      		breq .L323
 10866               		.loc 2 785 0 is_stmt 0 discriminator 1
 10867 481a 8A8D      		ldd r24,Y+26
 10868 481c 9B8D      		ldd r25,Y+27
 10869 481e 0E94 0000 		call free
 10870 4822 1B8E      		std Y+27,__zero_reg__
 10871 4824 1A8E      		std Y+26,__zero_reg__
 10872               	.L323:
 786:lp_solve_5.5/lp_report.c ****   fclose(output);
 10873               		.loc 2 786 0 is_stmt 1
 10874 4826 8D85      		ldd r24,Y+13
 10875 4828 9E85      		ldd r25,Y+14
 10876 482a 0E94 0000 		call fclose
 787:lp_solve_5.5/lp_report.c **** 
 788:lp_solve_5.5/lp_report.c ****   return(ok);
 10877               		.loc 2 788 0
 10878 482e 8989      		ldd r24,Y+17
 10879               	.L324:
 10880               	/* epilogue start */
 789:lp_solve_5.5/lp_report.c **** }
 10881               		.loc 2 789 0 discriminator 1
 10882 4830 A496      		adiw r28,36
 10883 4832 0FB6      		in __tmp_reg__,__SREG__
 10884 4834 F894      		cli
 10885 4836 DEBF      		out __SP_H__,r29
 10886 4838 0FBE      		out __SREG__,__tmp_reg__
 10887 483a CDBF      		out __SP_L__,r28
 10888 483c DF91      		pop r29
 10889 483e CF91      		pop r28
 10890 4840 1F91      		pop r17
 10891 4842 0F91      		pop r16
 10892 4844 0895      		ret
 10893               		.cfi_endproc
 10894               	.LFE27:
 10896               	.Letext0:
 10897               		.file 3 "c:\\program files (x86)\\atmel\\studio\\7.0\\toolchain\\avr8\\avr8-gnu-toolchain\\avr\\in
 10898               		.file 4 "c:\\program files (x86)\\atmel\\studio\\7.0\\toolchain\\avr8\\avr8-gnu-toolchain\\lib\\gc
 10899               		.file 5 "c:\\program files (x86)\\atmel\\studio\\7.0\\toolchain\\avr8\\avr8-gnu-toolchain\\lib\\gc
 10900               		.file 6 "lp_solve_5.5/lp_types.h"
 10901               		.file 7 "lp_solve_5.5/lp_lib.h"
 10902               		.file 8 "lp_solve_5.5\\shared/commonlib.h"
 10903               		.file 9 "lp_solve_5.5/lp_utils.h"
 10904               		.file 10 "lp_solve_5.5/lp_Hash.h"
 10905               		.file 11 "lp_solve_5.5/lp_matrix.h"
 10906               		.file 12 "lp_solve_5.5/lp_mipbb.h"
 10907               		.file 13 "lp_solve_5.5/lp_SOS.h"
 10908               		.file 14 "lp_solve_5.5\\bfp\\bfp_LUSOL\\LUSOL/mmio.h"
DEFINED SYMBOLS
                            *ABS*:00000000 lp_report.c
C:\Users\GUILHE~1\AppData\Local\Temp\ccc9PuRx.s:2      *ABS*:0000003e __SP_H__
C:\Users\GUILHE~1\AppData\Local\Temp\ccc9PuRx.s:3      *ABS*:0000003d __SP_L__
C:\Users\GUILHE~1\AppData\Local\Temp\ccc9PuRx.s:4      *ABS*:0000003f __SREG__
C:\Users\GUILHE~1\AppData\Local\Temp\ccc9PuRx.s:5      *ABS*:0000003b __RAMPZ__
C:\Users\GUILHE~1\AppData\Local\Temp\ccc9PuRx.s:6      *ABS*:00000000 __tmp_reg__
C:\Users\GUILHE~1\AppData\Local\Temp\ccc9PuRx.s:7      *ABS*:00000001 __zero_reg__
C:\Users\GUILHE~1\AppData\Local\Temp\ccc9PuRx.s:12     .text:00000000 fflush
C:\Users\GUILHE~1\AppData\Local\Temp\ccc9PuRx.s:53     .text:0000001c explain
C:\Users\GUILHE~1\AppData\Local\Temp\ccc9PuRx.s:180    .text:000000e4 report
C:\Users\GUILHE~1\AppData\Local\Temp\ccc9PuRx.s:458    .text:000002b8 print_indent
C:\Users\GUILHE~1\AppData\Local\Temp\ccc9PuRx.s:633    .text:000003d4 debug_print
C:\Users\GUILHE~1\AppData\Local\Temp\ccc9PuRx.s:815    .text:000004f8 debug_print_solution
C:\Users\GUILHE~1\AppData\Local\Temp\ccc9PuRx.s:1007   .text:00000608 debug_print_bounds
C:\Users\GUILHE~1\AppData\Local\Temp\ccc9PuRx.s:1431   .text:000008f2 blockWriteLREAL
C:\Users\GUILHE~1\AppData\Local\Temp\ccc9PuRx.s:1618   .text:00000a12 blockWriteAMAT
C:\Users\GUILHE~1\AppData\Local\Temp\ccc9PuRx.s:2188   .text:00000dce blockWriteBMAT
C:\Users\GUILHE~1\AppData\Local\Temp\ccc9PuRx.s:2606   .text:0000101c REPORT_debugdump
C:\Users\GUILHE~1\AppData\Local\Temp\ccc9PuRx.s:3867   .text:00001906 REPORT_objective
C:\Users\GUILHE~1\AppData\Local\Temp\ccc9PuRx.s:4057   .text:00001a34 REPORT_solution
C:\Users\GUILHE~1\AppData\Local\Temp\ccc9PuRx.s:4364   .text:00001c32 REPORT_constraints
C:\Users\GUILHE~1\AppData\Local\Temp\ccc9PuRx.s:4671   .text:00001e22 REPORT_duals
C:\Users\GUILHE~1\AppData\Local\Temp\ccc9PuRx.s:5277   .text:000021ea REPORT_extended
C:\Users\GUILHE~1\AppData\Local\Temp\ccc9PuRx.s:6769   .text:00002c3e REPORT_lp
C:\Users\GUILHE~1\AppData\Local\Temp\ccc9PuRx.s:7907   .text:0000347c REPORT_scales
C:\Users\GUILHE~1\AppData\Local\Temp\ccc9PuRx.s:8178   .text:00003610 REPORT_tableau
C:\Users\GUILHE~1\AppData\Local\Temp\ccc9PuRx.s:9440   .text:00003ea8 REPORT_constraintinfo
C:\Users\GUILHE~1\AppData\Local\Temp\ccc9PuRx.s:9699   .text:0000403e REPORT_modelinfo
C:\Users\GUILHE~1\AppData\Local\Temp\ccc9PuRx.s:10079  .text:000042da REPORT_mat_mmsave

UNDEFINED SYMBOLS
vsnprintf
strlen
allocCHAR
strcpy
__iob
vfprintf
fputc
get_col_name
__eqsf2
__nesf2
fputs
fprintf
mat_validate
get_mat
modifyOF1
unscaled_mat
fopen
fwrite
GUB_count
SOS_count
get_Lrows
get_nonzeros
is_maxim
blockWriteINT
blockWriteREAL
blockWriteBOOL
fclose
__ltsf2
get_var_primalresult
__divmodhi4
get_origcol_name
get_row_name
get_ptr_sensitivity_objex
is_splitvar
get_ptr_sensitivity_rhs
__mulsf3
__gesf2
get_ptr_sensitivity_obj
restoreINT
__gtsf2
__lesf2
get_lp_name
is_constr_type
get_rh
get_rh_upper
get_rh_lower
is_int
get_upbo
get_lowbo
__floatdisf
has_BFP
get_total_iter
__cmpdi2_s8
allocREAL
is_chsign
mempool_obtainVector
get_colIndexA
mempool_releaseVector
bsolve
prod_xA
free
memset
get_constr_class
get_str_constr_class
mat_collength
is_OF_nz
mm_write_banner
mm_write_mtx_crd_size
allocINT
obtain_column
__do_copy_data
