   1               		.file	"lp_scale.c"
   2               	__SP_H__ = 0x3e
   3               	__SP_L__ = 0x3d
   4               	__SREG__ = 0x3f
   5               	__RAMPZ__ = 0x3b
   6               	__tmp_reg__ = 0
   7               	__zero_reg__ = 1
   8               		.text
   9               	.Ltext0:
  10               		.cfi_sections	.debug_frame
  11               	.global	__ltsf2
  12               	.global	__divsf3
  13               	.global	__mulsf3
  14               	.global	scaled_value
  16               	scaled_value:
  17               	.LFB7:
  18               		.file 1 "lp_solve_5.5/lp_scale.c"
   1:lp_solve_5.5/lp_scale.c **** 
   2:lp_solve_5.5/lp_scale.c **** #include <string.h>
   3:lp_solve_5.5/lp_scale.c **** #include "commonlib.h"
   4:lp_solve_5.5/lp_scale.c **** #include "lp_lib.h"
   5:lp_solve_5.5/lp_scale.c **** #include "lp_report.h"
   6:lp_solve_5.5/lp_scale.c **** #include "lp_scale.h"
   7:lp_solve_5.5/lp_scale.c **** 
   8:lp_solve_5.5/lp_scale.c **** #ifdef FORTIFY
   9:lp_solve_5.5/lp_scale.c **** # include "lp_fortify.h"
  10:lp_solve_5.5/lp_scale.c **** #endif
  11:lp_solve_5.5/lp_scale.c **** 
  12:lp_solve_5.5/lp_scale.c **** 
  13:lp_solve_5.5/lp_scale.c **** /*
  14:lp_solve_5.5/lp_scale.c ****     Scaling routines for lp_solve v5.0+
  15:lp_solve_5.5/lp_scale.c ****    ----------------------------------------------------------------------------------
  16:lp_solve_5.5/lp_scale.c ****     Author:        Kjell Eikland
  17:lp_solve_5.5/lp_scale.c ****     Contact:       kjell.eikland@broadpark.no
  18:lp_solve_5.5/lp_scale.c ****     License terms: LGPL.
  19:lp_solve_5.5/lp_scale.c **** 
  20:lp_solve_5.5/lp_scale.c ****     Requires:      lp_lib.h, lp_scale.h
  21:lp_solve_5.5/lp_scale.c **** 
  22:lp_solve_5.5/lp_scale.c ****     Release notes:
  23:lp_solve_5.5/lp_scale.c ****     v5.0.0  1 January 2004      Significantly expanded and repackaged scaling
  24:lp_solve_5.5/lp_scale.c ****                                 routines.
  25:lp_solve_5.5/lp_scale.c ****     v5.0.1  20 February 2004    Modified rounding behaviour in several areas.
  26:lp_solve_5.5/lp_scale.c ****     v5.1.0  20 July 2004        Reworked with flexible matrix storage model.
  27:lp_solve_5.5/lp_scale.c ****     v5.2.0  20 February 2005    Converted to matrix storage model without the OF.
  28:lp_solve_5.5/lp_scale.c **** 
  29:lp_solve_5.5/lp_scale.c ****    ----------------------------------------------------------------------------------
  30:lp_solve_5.5/lp_scale.c **** */
  31:lp_solve_5.5/lp_scale.c **** 
  32:lp_solve_5.5/lp_scale.c **** /* First define scaling and unscaling primitives */
  33:lp_solve_5.5/lp_scale.c **** 
  34:lp_solve_5.5/lp_scale.c **** REAL scaled_value(lprec *lp, REAL value, int index)
  35:lp_solve_5.5/lp_scale.c **** {
  19               		.loc 1 35 0
  20               		.cfi_startproc
  21 0000 CF93      		push r28
  22               	.LCFI0:
  23               		.cfi_def_cfa_offset 3
  24               		.cfi_offset 28, -2
  25 0002 DF93      		push r29
  26               	.LCFI1:
  27               		.cfi_def_cfa_offset 4
  28               		.cfi_offset 29, -3
  29 0004 CDB7      		in r28,__SP_L__
  30 0006 DEB7      		in r29,__SP_H__
  31               	.LCFI2:
  32               		.cfi_def_cfa_register 28
  33 0008 2897      		sbiw r28,8
  34               	.LCFI3:
  35               		.cfi_def_cfa_offset 12
  36 000a 0FB6      		in __tmp_reg__,__SREG__
  37 000c F894      		cli
  38 000e DEBF      		out __SP_H__,r29
  39 0010 0FBE      		out __SREG__,__tmp_reg__
  40 0012 CDBF      		out __SP_L__,r28
  41               	/* prologue: function */
  42               	/* frame size = 8 */
  43               	/* stack size = 10 */
  44               	.L__stack_usage = 10
  45 0014 9A83      		std Y+2,r25
  46 0016 8983      		std Y+1,r24
  47 0018 4B83      		std Y+3,r20
  48 001a 5C83      		std Y+4,r21
  49 001c 6D83      		std Y+5,r22
  50 001e 7E83      		std Y+6,r23
  51 0020 3887      		std Y+8,r19
  52 0022 2F83      		std Y+7,r18
  36:lp_solve_5.5/lp_scale.c ****   if(fabs(value) < lp->infinite) {
  53               		.loc 1 36 0
  54 0024 8B81      		ldd r24,Y+3
  55 0026 9C81      		ldd r25,Y+4
  56 0028 AD81      		ldd r26,Y+5
  57 002a BE81      		ldd r27,Y+6
  58 002c BF77      		andi r27,0x7f
  59 002e 2981      		ldd r18,Y+1
  60 0030 3A81      		ldd r19,Y+2
  61 0032 265F      		subi r18,-10
  62 0034 3C4F      		sbci r19,-4
  63 0036 F901      		movw r30,r18
  64 0038 2081      		ld r18,Z
  65 003a 3181      		ldd r19,Z+1
  66 003c 4281      		ldd r20,Z+2
  67 003e 5381      		ldd r21,Z+3
  68 0040 BC01      		movw r22,r24
  69 0042 CD01      		movw r24,r26
  70 0044 0E94 0000 		call __ltsf2
  71 0048 8823      		tst r24
  72 004a 04F0      		brlt .+2
  73 004c 00C0      		rjmp .L13
  37:lp_solve_5.5/lp_scale.c ****     if(lp->scaling_used) {
  74               		.loc 1 37 0
  75 004e 8981      		ldd r24,Y+1
  76 0050 9A81      		ldd r25,Y+2
  77 0052 8A53      		subi r24,58
  78 0054 9D4F      		sbci r25,-3
  79 0056 FC01      		movw r30,r24
  80 0058 8081      		ld r24,Z
  81 005a 8823      		tst r24
  82 005c 01F4      		brne .+2
  83 005e 00C0      		rjmp .L6
  38:lp_solve_5.5/lp_scale.c ****       if(index > lp->rows)
  84               		.loc 1 38 0
  85 0060 8981      		ldd r24,Y+1
  86 0062 9A81      		ldd r25,Y+2
  87 0064 8651      		subi r24,22
  88 0066 9E4F      		sbci r25,-2
  89 0068 FC01      		movw r30,r24
  90 006a 2081      		ld r18,Z
  91 006c 3181      		ldd r19,Z+1
  92 006e 8F81      		ldd r24,Y+7
  93 0070 9885      		ldd r25,Y+8
  94 0072 2817      		cp r18,r24
  95 0074 3907      		cpc r19,r25
  96 0076 04F4      		brge .L5
  39:lp_solve_5.5/lp_scale.c ****         value /= lp->scalars[index];
  97               		.loc 1 39 0
  98 0078 8981      		ldd r24,Y+1
  99 007a 9A81      		ldd r25,Y+2
 100 007c 8C53      		subi r24,60
 101 007e 9D4F      		sbci r25,-3
 102 0080 FC01      		movw r30,r24
 103 0082 2081      		ld r18,Z
 104 0084 3181      		ldd r19,Z+1
 105 0086 8F81      		ldd r24,Y+7
 106 0088 9885      		ldd r25,Y+8
 107 008a 880F      		lsl r24
 108 008c 991F      		rol r25
 109 008e 880F      		lsl r24
 110 0090 991F      		rol r25
 111 0092 820F      		add r24,r18
 112 0094 931F      		adc r25,r19
 113 0096 FC01      		movw r30,r24
 114 0098 8081      		ld r24,Z
 115 009a 9181      		ldd r25,Z+1
 116 009c A281      		ldd r26,Z+2
 117 009e B381      		ldd r27,Z+3
 118 00a0 9C01      		movw r18,r24
 119 00a2 AD01      		movw r20,r26
 120 00a4 6B81      		ldd r22,Y+3
 121 00a6 7C81      		ldd r23,Y+4
 122 00a8 8D81      		ldd r24,Y+5
 123 00aa 9E81      		ldd r25,Y+6
 124 00ac 0E94 0000 		call __divsf3
 125 00b0 DC01      		movw r26,r24
 126 00b2 CB01      		movw r24,r22
 127 00b4 8B83      		std Y+3,r24
 128 00b6 9C83      		std Y+4,r25
 129 00b8 AD83      		std Y+5,r26
 130 00ba BE83      		std Y+6,r27
 131 00bc 00C0      		rjmp .L6
 132               	.L5:
  40:lp_solve_5.5/lp_scale.c ****       else
  41:lp_solve_5.5/lp_scale.c ****         value *= lp->scalars[index];
 133               		.loc 1 41 0
 134 00be 8981      		ldd r24,Y+1
 135 00c0 9A81      		ldd r25,Y+2
 136 00c2 8C53      		subi r24,60
 137 00c4 9D4F      		sbci r25,-3
 138 00c6 FC01      		movw r30,r24
 139 00c8 2081      		ld r18,Z
 140 00ca 3181      		ldd r19,Z+1
 141 00cc 8F81      		ldd r24,Y+7
 142 00ce 9885      		ldd r25,Y+8
 143 00d0 880F      		lsl r24
 144 00d2 991F      		rol r25
 145 00d4 880F      		lsl r24
 146 00d6 991F      		rol r25
 147 00d8 820F      		add r24,r18
 148 00da 931F      		adc r25,r19
 149 00dc FC01      		movw r30,r24
 150 00de 8081      		ld r24,Z
 151 00e0 9181      		ldd r25,Z+1
 152 00e2 A281      		ldd r26,Z+2
 153 00e4 B381      		ldd r27,Z+3
 154 00e6 9C01      		movw r18,r24
 155 00e8 AD01      		movw r20,r26
 156 00ea 6B81      		ldd r22,Y+3
 157 00ec 7C81      		ldd r23,Y+4
 158 00ee 8D81      		ldd r24,Y+5
 159 00f0 9E81      		ldd r25,Y+6
 160 00f2 0E94 0000 		call __mulsf3
 161 00f6 DC01      		movw r26,r24
 162 00f8 CB01      		movw r24,r22
 163 00fa 8B83      		std Y+3,r24
 164 00fc 9C83      		std Y+4,r25
 165 00fe AD83      		std Y+5,r26
 166 0100 BE83      		std Y+6,r27
 167 0102 00C0      		rjmp .L6
 168               	.L13:
  42:lp_solve_5.5/lp_scale.c ****     }
  43:lp_solve_5.5/lp_scale.c ****   }
  44:lp_solve_5.5/lp_scale.c ****   else
  45:lp_solve_5.5/lp_scale.c ****     value = my_sign(value)*lp->infinite;
 169               		.loc 1 45 0
 170 0104 20E0      		ldi r18,0
 171 0106 30E0      		ldi r19,0
 172 0108 A901      		movw r20,r18
 173 010a 6B81      		ldd r22,Y+3
 174 010c 7C81      		ldd r23,Y+4
 175 010e 8D81      		ldd r24,Y+5
 176 0110 9E81      		ldd r25,Y+6
 177 0112 0E94 0000 		call __ltsf2
 178 0116 8823      		tst r24
 179 0118 04F4      		brge .L14
 180               		.loc 1 45 0 is_stmt 0 discriminator 1
 181 011a 80E0      		ldi r24,0
 182 011c 90E0      		ldi r25,0
 183 011e A0E8      		ldi r26,lo8(-128)
 184 0120 BFEB      		ldi r27,lo8(-65)
 185 0122 00C0      		rjmp .L9
 186               	.L14:
 187               		.loc 1 45 0 discriminator 2
 188 0124 80E0      		ldi r24,0
 189 0126 90E0      		ldi r25,0
 190 0128 A0E8      		ldi r26,lo8(-128)
 191 012a BFE3      		ldi r27,lo8(63)
 192               	.L9:
 193               		.loc 1 45 0 discriminator 4
 194 012c 2981      		ldd r18,Y+1
 195 012e 3A81      		ldd r19,Y+2
 196 0130 265F      		subi r18,-10
 197 0132 3C4F      		sbci r19,-4
 198 0134 F901      		movw r30,r18
 199 0136 2081      		ld r18,Z
 200 0138 3181      		ldd r19,Z+1
 201 013a 4281      		ldd r20,Z+2
 202 013c 5381      		ldd r21,Z+3
 203 013e BC01      		movw r22,r24
 204 0140 CD01      		movw r24,r26
 205 0142 0E94 0000 		call __mulsf3
 206 0146 DC01      		movw r26,r24
 207 0148 CB01      		movw r24,r22
 208 014a 8B83      		std Y+3,r24
 209 014c 9C83      		std Y+4,r25
 210 014e AD83      		std Y+5,r26
 211 0150 BE83      		std Y+6,r27
 212               	.L6:
  46:lp_solve_5.5/lp_scale.c ****   return(value);
 213               		.loc 1 46 0 is_stmt 1
 214 0152 8B81      		ldd r24,Y+3
 215 0154 9C81      		ldd r25,Y+4
 216 0156 AD81      		ldd r26,Y+5
 217 0158 BE81      		ldd r27,Y+6
  47:lp_solve_5.5/lp_scale.c **** }
 218               		.loc 1 47 0
 219 015a BC01      		movw r22,r24
 220 015c CD01      		movw r24,r26
 221               	/* epilogue start */
 222 015e 2896      		adiw r28,8
 223 0160 0FB6      		in __tmp_reg__,__SREG__
 224 0162 F894      		cli
 225 0164 DEBF      		out __SP_H__,r29
 226 0166 0FBE      		out __SREG__,__tmp_reg__
 227 0168 CDBF      		out __SP_L__,r28
 228 016a DF91      		pop r29
 229 016c CF91      		pop r28
 230 016e 0895      		ret
 231               		.cfi_endproc
 232               	.LFE7:
 234               	.global	unscaled_value
 236               	unscaled_value:
 237               	.LFB8:
  48:lp_solve_5.5/lp_scale.c **** 
  49:lp_solve_5.5/lp_scale.c **** REAL unscaled_value(lprec *lp, REAL value, int index)
  50:lp_solve_5.5/lp_scale.c **** {
 238               		.loc 1 50 0
 239               		.cfi_startproc
 240 0170 CF93      		push r28
 241               	.LCFI4:
 242               		.cfi_def_cfa_offset 3
 243               		.cfi_offset 28, -2
 244 0172 DF93      		push r29
 245               	.LCFI5:
 246               		.cfi_def_cfa_offset 4
 247               		.cfi_offset 29, -3
 248 0174 CDB7      		in r28,__SP_L__
 249 0176 DEB7      		in r29,__SP_H__
 250               	.LCFI6:
 251               		.cfi_def_cfa_register 28
 252 0178 2897      		sbiw r28,8
 253               	.LCFI7:
 254               		.cfi_def_cfa_offset 12
 255 017a 0FB6      		in __tmp_reg__,__SREG__
 256 017c F894      		cli
 257 017e DEBF      		out __SP_H__,r29
 258 0180 0FBE      		out __SREG__,__tmp_reg__
 259 0182 CDBF      		out __SP_L__,r28
 260               	/* prologue: function */
 261               	/* frame size = 8 */
 262               	/* stack size = 10 */
 263               	.L__stack_usage = 10
 264 0184 9A83      		std Y+2,r25
 265 0186 8983      		std Y+1,r24
 266 0188 4B83      		std Y+3,r20
 267 018a 5C83      		std Y+4,r21
 268 018c 6D83      		std Y+5,r22
 269 018e 7E83      		std Y+6,r23
 270 0190 3887      		std Y+8,r19
 271 0192 2F83      		std Y+7,r18
  51:lp_solve_5.5/lp_scale.c ****   if(fabs(value) < lp->infinite) {
 272               		.loc 1 51 0
 273 0194 8B81      		ldd r24,Y+3
 274 0196 9C81      		ldd r25,Y+4
 275 0198 AD81      		ldd r26,Y+5
 276 019a BE81      		ldd r27,Y+6
 277 019c BF77      		andi r27,0x7f
 278 019e 2981      		ldd r18,Y+1
 279 01a0 3A81      		ldd r19,Y+2
 280 01a2 265F      		subi r18,-10
 281 01a4 3C4F      		sbci r19,-4
 282 01a6 F901      		movw r30,r18
 283 01a8 2081      		ld r18,Z
 284 01aa 3181      		ldd r19,Z+1
 285 01ac 4281      		ldd r20,Z+2
 286 01ae 5381      		ldd r21,Z+3
 287 01b0 BC01      		movw r22,r24
 288 01b2 CD01      		movw r24,r26
 289 01b4 0E94 0000 		call __ltsf2
 290 01b8 8823      		tst r24
 291 01ba 04F0      		brlt .+2
 292 01bc 00C0      		rjmp .L27
  52:lp_solve_5.5/lp_scale.c ****     if(lp->scaling_used) {
 293               		.loc 1 52 0
 294 01be 8981      		ldd r24,Y+1
 295 01c0 9A81      		ldd r25,Y+2
 296 01c2 8A53      		subi r24,58
 297 01c4 9D4F      		sbci r25,-3
 298 01c6 FC01      		movw r30,r24
 299 01c8 8081      		ld r24,Z
 300 01ca 8823      		tst r24
 301 01cc 01F4      		brne .+2
 302 01ce 00C0      		rjmp .L20
  53:lp_solve_5.5/lp_scale.c ****       if(index > lp->rows)
 303               		.loc 1 53 0
 304 01d0 8981      		ldd r24,Y+1
 305 01d2 9A81      		ldd r25,Y+2
 306 01d4 8651      		subi r24,22
 307 01d6 9E4F      		sbci r25,-2
 308 01d8 FC01      		movw r30,r24
 309 01da 2081      		ld r18,Z
 310 01dc 3181      		ldd r19,Z+1
 311 01de 8F81      		ldd r24,Y+7
 312 01e0 9885      		ldd r25,Y+8
 313 01e2 2817      		cp r18,r24
 314 01e4 3907      		cpc r19,r25
 315 01e6 04F4      		brge .L19
  54:lp_solve_5.5/lp_scale.c ****         value *= lp->scalars[index];
 316               		.loc 1 54 0
 317 01e8 8981      		ldd r24,Y+1
 318 01ea 9A81      		ldd r25,Y+2
 319 01ec 8C53      		subi r24,60
 320 01ee 9D4F      		sbci r25,-3
 321 01f0 FC01      		movw r30,r24
 322 01f2 2081      		ld r18,Z
 323 01f4 3181      		ldd r19,Z+1
 324 01f6 8F81      		ldd r24,Y+7
 325 01f8 9885      		ldd r25,Y+8
 326 01fa 880F      		lsl r24
 327 01fc 991F      		rol r25
 328 01fe 880F      		lsl r24
 329 0200 991F      		rol r25
 330 0202 820F      		add r24,r18
 331 0204 931F      		adc r25,r19
 332 0206 FC01      		movw r30,r24
 333 0208 8081      		ld r24,Z
 334 020a 9181      		ldd r25,Z+1
 335 020c A281      		ldd r26,Z+2
 336 020e B381      		ldd r27,Z+3
 337 0210 9C01      		movw r18,r24
 338 0212 AD01      		movw r20,r26
 339 0214 6B81      		ldd r22,Y+3
 340 0216 7C81      		ldd r23,Y+4
 341 0218 8D81      		ldd r24,Y+5
 342 021a 9E81      		ldd r25,Y+6
 343 021c 0E94 0000 		call __mulsf3
 344 0220 DC01      		movw r26,r24
 345 0222 CB01      		movw r24,r22
 346 0224 8B83      		std Y+3,r24
 347 0226 9C83      		std Y+4,r25
 348 0228 AD83      		std Y+5,r26
 349 022a BE83      		std Y+6,r27
 350 022c 00C0      		rjmp .L20
 351               	.L19:
  55:lp_solve_5.5/lp_scale.c ****       else
  56:lp_solve_5.5/lp_scale.c ****         value /= lp->scalars[index];
 352               		.loc 1 56 0
 353 022e 8981      		ldd r24,Y+1
 354 0230 9A81      		ldd r25,Y+2
 355 0232 8C53      		subi r24,60
 356 0234 9D4F      		sbci r25,-3
 357 0236 FC01      		movw r30,r24
 358 0238 2081      		ld r18,Z
 359 023a 3181      		ldd r19,Z+1
 360 023c 8F81      		ldd r24,Y+7
 361 023e 9885      		ldd r25,Y+8
 362 0240 880F      		lsl r24
 363 0242 991F      		rol r25
 364 0244 880F      		lsl r24
 365 0246 991F      		rol r25
 366 0248 820F      		add r24,r18
 367 024a 931F      		adc r25,r19
 368 024c FC01      		movw r30,r24
 369 024e 8081      		ld r24,Z
 370 0250 9181      		ldd r25,Z+1
 371 0252 A281      		ldd r26,Z+2
 372 0254 B381      		ldd r27,Z+3
 373 0256 9C01      		movw r18,r24
 374 0258 AD01      		movw r20,r26
 375 025a 6B81      		ldd r22,Y+3
 376 025c 7C81      		ldd r23,Y+4
 377 025e 8D81      		ldd r24,Y+5
 378 0260 9E81      		ldd r25,Y+6
 379 0262 0E94 0000 		call __divsf3
 380 0266 DC01      		movw r26,r24
 381 0268 CB01      		movw r24,r22
 382 026a 8B83      		std Y+3,r24
 383 026c 9C83      		std Y+4,r25
 384 026e AD83      		std Y+5,r26
 385 0270 BE83      		std Y+6,r27
 386 0272 00C0      		rjmp .L20
 387               	.L27:
  57:lp_solve_5.5/lp_scale.c ****     }
  58:lp_solve_5.5/lp_scale.c ****   }
  59:lp_solve_5.5/lp_scale.c ****   else
  60:lp_solve_5.5/lp_scale.c ****     value = my_sign(value)*lp->infinite;
 388               		.loc 1 60 0
 389 0274 20E0      		ldi r18,0
 390 0276 30E0      		ldi r19,0
 391 0278 A901      		movw r20,r18
 392 027a 6B81      		ldd r22,Y+3
 393 027c 7C81      		ldd r23,Y+4
 394 027e 8D81      		ldd r24,Y+5
 395 0280 9E81      		ldd r25,Y+6
 396 0282 0E94 0000 		call __ltsf2
 397 0286 8823      		tst r24
 398 0288 04F4      		brge .L28
 399               		.loc 1 60 0 is_stmt 0 discriminator 1
 400 028a 80E0      		ldi r24,0
 401 028c 90E0      		ldi r25,0
 402 028e A0E8      		ldi r26,lo8(-128)
 403 0290 BFEB      		ldi r27,lo8(-65)
 404 0292 00C0      		rjmp .L23
 405               	.L28:
 406               		.loc 1 60 0 discriminator 2
 407 0294 80E0      		ldi r24,0
 408 0296 90E0      		ldi r25,0
 409 0298 A0E8      		ldi r26,lo8(-128)
 410 029a BFE3      		ldi r27,lo8(63)
 411               	.L23:
 412               		.loc 1 60 0 discriminator 4
 413 029c 2981      		ldd r18,Y+1
 414 029e 3A81      		ldd r19,Y+2
 415 02a0 265F      		subi r18,-10
 416 02a2 3C4F      		sbci r19,-4
 417 02a4 F901      		movw r30,r18
 418 02a6 2081      		ld r18,Z
 419 02a8 3181      		ldd r19,Z+1
 420 02aa 4281      		ldd r20,Z+2
 421 02ac 5381      		ldd r21,Z+3
 422 02ae BC01      		movw r22,r24
 423 02b0 CD01      		movw r24,r26
 424 02b2 0E94 0000 		call __mulsf3
 425 02b6 DC01      		movw r26,r24
 426 02b8 CB01      		movw r24,r22
 427 02ba 8B83      		std Y+3,r24
 428 02bc 9C83      		std Y+4,r25
 429 02be AD83      		std Y+5,r26
 430 02c0 BE83      		std Y+6,r27
 431               	.L20:
  61:lp_solve_5.5/lp_scale.c ****   return(value);
 432               		.loc 1 61 0 is_stmt 1
 433 02c2 8B81      		ldd r24,Y+3
 434 02c4 9C81      		ldd r25,Y+4
 435 02c6 AD81      		ldd r26,Y+5
 436 02c8 BE81      		ldd r27,Y+6
  62:lp_solve_5.5/lp_scale.c **** }
 437               		.loc 1 62 0
 438 02ca BC01      		movw r22,r24
 439 02cc CD01      		movw r24,r26
 440               	/* epilogue start */
 441 02ce 2896      		adiw r28,8
 442 02d0 0FB6      		in __tmp_reg__,__SREG__
 443 02d2 F894      		cli
 444 02d4 DEBF      		out __SP_H__,r29
 445 02d6 0FBE      		out __SREG__,__tmp_reg__
 446 02d8 CDBF      		out __SP_L__,r28
 447 02da DF91      		pop r29
 448 02dc CF91      		pop r28
 449 02de 0895      		ret
 450               		.cfi_endproc
 451               	.LFE8:
 453               	.global	scaled_mat
 455               	scaled_mat:
 456               	.LFB9:
  63:lp_solve_5.5/lp_scale.c **** 
  64:lp_solve_5.5/lp_scale.c **** STATIC REAL scaled_mat(lprec *lp, REAL value, int rownr, int colnr)
  65:lp_solve_5.5/lp_scale.c **** {
 457               		.loc 1 65 0
 458               		.cfi_startproc
 459 02e0 0F93      		push r16
 460               	.LCFI8:
 461               		.cfi_def_cfa_offset 3
 462               		.cfi_offset 16, -2
 463 02e2 1F93      		push r17
 464               	.LCFI9:
 465               		.cfi_def_cfa_offset 4
 466               		.cfi_offset 17, -3
 467 02e4 CF93      		push r28
 468               	.LCFI10:
 469               		.cfi_def_cfa_offset 5
 470               		.cfi_offset 28, -4
 471 02e6 DF93      		push r29
 472               	.LCFI11:
 473               		.cfi_def_cfa_offset 6
 474               		.cfi_offset 29, -5
 475 02e8 CDB7      		in r28,__SP_L__
 476 02ea DEB7      		in r29,__SP_H__
 477               	.LCFI12:
 478               		.cfi_def_cfa_register 28
 479 02ec 2A97      		sbiw r28,10
 480               	.LCFI13:
 481               		.cfi_def_cfa_offset 16
 482 02ee 0FB6      		in __tmp_reg__,__SREG__
 483 02f0 F894      		cli
 484 02f2 DEBF      		out __SP_H__,r29
 485 02f4 0FBE      		out __SREG__,__tmp_reg__
 486 02f6 CDBF      		out __SP_L__,r28
 487               	/* prologue: function */
 488               	/* frame size = 10 */
 489               	/* stack size = 14 */
 490               	.L__stack_usage = 14
 491 02f8 9A83      		std Y+2,r25
 492 02fa 8983      		std Y+1,r24
 493 02fc 4B83      		std Y+3,r20
 494 02fe 5C83      		std Y+4,r21
 495 0300 6D83      		std Y+5,r22
 496 0302 7E83      		std Y+6,r23
 497 0304 3887      		std Y+8,r19
 498 0306 2F83      		std Y+7,r18
 499 0308 1A87      		std Y+10,r17
 500 030a 0987      		std Y+9,r16
  66:lp_solve_5.5/lp_scale.c ****   if(lp->scaling_used)
 501               		.loc 1 66 0
 502 030c 8981      		ldd r24,Y+1
 503 030e 9A81      		ldd r25,Y+2
 504 0310 8A53      		subi r24,58
 505 0312 9D4F      		sbci r25,-3
 506 0314 FC01      		movw r30,r24
 507 0316 8081      		ld r24,Z
 508 0318 8823      		tst r24
 509 031a 01F4      		brne .+2
 510 031c 00C0      		rjmp .L30
  67:lp_solve_5.5/lp_scale.c ****     value *= lp->scalars[rownr] * lp->scalars[lp->rows + colnr];
 511               		.loc 1 67 0
 512 031e 8981      		ldd r24,Y+1
 513 0320 9A81      		ldd r25,Y+2
 514 0322 8C53      		subi r24,60
 515 0324 9D4F      		sbci r25,-3
 516 0326 FC01      		movw r30,r24
 517 0328 2081      		ld r18,Z
 518 032a 3181      		ldd r19,Z+1
 519 032c 8F81      		ldd r24,Y+7
 520 032e 9885      		ldd r25,Y+8
 521 0330 880F      		lsl r24
 522 0332 991F      		rol r25
 523 0334 880F      		lsl r24
 524 0336 991F      		rol r25
 525 0338 820F      		add r24,r18
 526 033a 931F      		adc r25,r19
 527 033c FC01      		movw r30,r24
 528 033e 8081      		ld r24,Z
 529 0340 9181      		ldd r25,Z+1
 530 0342 A281      		ldd r26,Z+2
 531 0344 B381      		ldd r27,Z+3
 532 0346 2981      		ldd r18,Y+1
 533 0348 3A81      		ldd r19,Y+2
 534 034a 2C53      		subi r18,60
 535 034c 3D4F      		sbci r19,-3
 536 034e F901      		movw r30,r18
 537 0350 4081      		ld r20,Z
 538 0352 5181      		ldd r21,Z+1
 539 0354 2981      		ldd r18,Y+1
 540 0356 3A81      		ldd r19,Y+2
 541 0358 2651      		subi r18,22
 542 035a 3E4F      		sbci r19,-2
 543 035c F901      		movw r30,r18
 544 035e 6081      		ld r22,Z
 545 0360 7181      		ldd r23,Z+1
 546 0362 2985      		ldd r18,Y+9
 547 0364 3A85      		ldd r19,Y+10
 548 0366 260F      		add r18,r22
 549 0368 371F      		adc r19,r23
 550 036a 220F      		lsl r18
 551 036c 331F      		rol r19
 552 036e 220F      		lsl r18
 553 0370 331F      		rol r19
 554 0372 240F      		add r18,r20
 555 0374 351F      		adc r19,r21
 556 0376 F901      		movw r30,r18
 557 0378 2081      		ld r18,Z
 558 037a 3181      		ldd r19,Z+1
 559 037c 4281      		ldd r20,Z+2
 560 037e 5381      		ldd r21,Z+3
 561 0380 BC01      		movw r22,r24
 562 0382 CD01      		movw r24,r26
 563 0384 0E94 0000 		call __mulsf3
 564 0388 DC01      		movw r26,r24
 565 038a CB01      		movw r24,r22
 566 038c 9C01      		movw r18,r24
 567 038e AD01      		movw r20,r26
 568 0390 6B81      		ldd r22,Y+3
 569 0392 7C81      		ldd r23,Y+4
 570 0394 8D81      		ldd r24,Y+5
 571 0396 9E81      		ldd r25,Y+6
 572 0398 0E94 0000 		call __mulsf3
 573 039c DC01      		movw r26,r24
 574 039e CB01      		movw r24,r22
 575 03a0 8B83      		std Y+3,r24
 576 03a2 9C83      		std Y+4,r25
 577 03a4 AD83      		std Y+5,r26
 578 03a6 BE83      		std Y+6,r27
 579               	.L30:
  68:lp_solve_5.5/lp_scale.c ****   return( value );
 580               		.loc 1 68 0
 581 03a8 8B81      		ldd r24,Y+3
 582 03aa 9C81      		ldd r25,Y+4
 583 03ac AD81      		ldd r26,Y+5
 584 03ae BE81      		ldd r27,Y+6
  69:lp_solve_5.5/lp_scale.c **** }
 585               		.loc 1 69 0
 586 03b0 BC01      		movw r22,r24
 587 03b2 CD01      		movw r24,r26
 588               	/* epilogue start */
 589 03b4 2A96      		adiw r28,10
 590 03b6 0FB6      		in __tmp_reg__,__SREG__
 591 03b8 F894      		cli
 592 03ba DEBF      		out __SP_H__,r29
 593 03bc 0FBE      		out __SREG__,__tmp_reg__
 594 03be CDBF      		out __SP_L__,r28
 595 03c0 DF91      		pop r29
 596 03c2 CF91      		pop r28
 597 03c4 1F91      		pop r17
 598 03c6 0F91      		pop r16
 599 03c8 0895      		ret
 600               		.cfi_endproc
 601               	.LFE9:
 603               	.global	unscaled_mat
 605               	unscaled_mat:
 606               	.LFB10:
  70:lp_solve_5.5/lp_scale.c **** 
  71:lp_solve_5.5/lp_scale.c **** STATIC REAL unscaled_mat(lprec *lp, REAL value, int rownr, int colnr)
  72:lp_solve_5.5/lp_scale.c **** {
 607               		.loc 1 72 0
 608               		.cfi_startproc
 609 03ca 0F93      		push r16
 610               	.LCFI14:
 611               		.cfi_def_cfa_offset 3
 612               		.cfi_offset 16, -2
 613 03cc 1F93      		push r17
 614               	.LCFI15:
 615               		.cfi_def_cfa_offset 4
 616               		.cfi_offset 17, -3
 617 03ce CF93      		push r28
 618               	.LCFI16:
 619               		.cfi_def_cfa_offset 5
 620               		.cfi_offset 28, -4
 621 03d0 DF93      		push r29
 622               	.LCFI17:
 623               		.cfi_def_cfa_offset 6
 624               		.cfi_offset 29, -5
 625 03d2 CDB7      		in r28,__SP_L__
 626 03d4 DEB7      		in r29,__SP_H__
 627               	.LCFI18:
 628               		.cfi_def_cfa_register 28
 629 03d6 2A97      		sbiw r28,10
 630               	.LCFI19:
 631               		.cfi_def_cfa_offset 16
 632 03d8 0FB6      		in __tmp_reg__,__SREG__
 633 03da F894      		cli
 634 03dc DEBF      		out __SP_H__,r29
 635 03de 0FBE      		out __SREG__,__tmp_reg__
 636 03e0 CDBF      		out __SP_L__,r28
 637               	/* prologue: function */
 638               	/* frame size = 10 */
 639               	/* stack size = 14 */
 640               	.L__stack_usage = 14
 641 03e2 9A83      		std Y+2,r25
 642 03e4 8983      		std Y+1,r24
 643 03e6 4B83      		std Y+3,r20
 644 03e8 5C83      		std Y+4,r21
 645 03ea 6D83      		std Y+5,r22
 646 03ec 7E83      		std Y+6,r23
 647 03ee 3887      		std Y+8,r19
 648 03f0 2F83      		std Y+7,r18
 649 03f2 1A87      		std Y+10,r17
 650 03f4 0987      		std Y+9,r16
  73:lp_solve_5.5/lp_scale.c ****   if(lp->scaling_used)
 651               		.loc 1 73 0
 652 03f6 8981      		ldd r24,Y+1
 653 03f8 9A81      		ldd r25,Y+2
 654 03fa 8A53      		subi r24,58
 655 03fc 9D4F      		sbci r25,-3
 656 03fe FC01      		movw r30,r24
 657 0400 8081      		ld r24,Z
 658 0402 8823      		tst r24
 659 0404 01F4      		brne .+2
 660 0406 00C0      		rjmp .L33
  74:lp_solve_5.5/lp_scale.c ****     value /= lp->scalars[rownr] * lp->scalars[lp->rows + colnr];
 661               		.loc 1 74 0
 662 0408 8981      		ldd r24,Y+1
 663 040a 9A81      		ldd r25,Y+2
 664 040c 8C53      		subi r24,60
 665 040e 9D4F      		sbci r25,-3
 666 0410 FC01      		movw r30,r24
 667 0412 2081      		ld r18,Z
 668 0414 3181      		ldd r19,Z+1
 669 0416 8F81      		ldd r24,Y+7
 670 0418 9885      		ldd r25,Y+8
 671 041a 880F      		lsl r24
 672 041c 991F      		rol r25
 673 041e 880F      		lsl r24
 674 0420 991F      		rol r25
 675 0422 820F      		add r24,r18
 676 0424 931F      		adc r25,r19
 677 0426 FC01      		movw r30,r24
 678 0428 8081      		ld r24,Z
 679 042a 9181      		ldd r25,Z+1
 680 042c A281      		ldd r26,Z+2
 681 042e B381      		ldd r27,Z+3
 682 0430 2981      		ldd r18,Y+1
 683 0432 3A81      		ldd r19,Y+2
 684 0434 2C53      		subi r18,60
 685 0436 3D4F      		sbci r19,-3
 686 0438 F901      		movw r30,r18
 687 043a 4081      		ld r20,Z
 688 043c 5181      		ldd r21,Z+1
 689 043e 2981      		ldd r18,Y+1
 690 0440 3A81      		ldd r19,Y+2
 691 0442 2651      		subi r18,22
 692 0444 3E4F      		sbci r19,-2
 693 0446 F901      		movw r30,r18
 694 0448 6081      		ld r22,Z
 695 044a 7181      		ldd r23,Z+1
 696 044c 2985      		ldd r18,Y+9
 697 044e 3A85      		ldd r19,Y+10
 698 0450 260F      		add r18,r22
 699 0452 371F      		adc r19,r23
 700 0454 220F      		lsl r18
 701 0456 331F      		rol r19
 702 0458 220F      		lsl r18
 703 045a 331F      		rol r19
 704 045c 240F      		add r18,r20
 705 045e 351F      		adc r19,r21
 706 0460 F901      		movw r30,r18
 707 0462 2081      		ld r18,Z
 708 0464 3181      		ldd r19,Z+1
 709 0466 4281      		ldd r20,Z+2
 710 0468 5381      		ldd r21,Z+3
 711 046a BC01      		movw r22,r24
 712 046c CD01      		movw r24,r26
 713 046e 0E94 0000 		call __mulsf3
 714 0472 DC01      		movw r26,r24
 715 0474 CB01      		movw r24,r22
 716 0476 9C01      		movw r18,r24
 717 0478 AD01      		movw r20,r26
 718 047a 6B81      		ldd r22,Y+3
 719 047c 7C81      		ldd r23,Y+4
 720 047e 8D81      		ldd r24,Y+5
 721 0480 9E81      		ldd r25,Y+6
 722 0482 0E94 0000 		call __divsf3
 723 0486 DC01      		movw r26,r24
 724 0488 CB01      		movw r24,r22
 725 048a 8B83      		std Y+3,r24
 726 048c 9C83      		std Y+4,r25
 727 048e AD83      		std Y+5,r26
 728 0490 BE83      		std Y+6,r27
 729               	.L33:
  75:lp_solve_5.5/lp_scale.c ****   return( value );
 730               		.loc 1 75 0
 731 0492 8B81      		ldd r24,Y+3
 732 0494 9C81      		ldd r25,Y+4
 733 0496 AD81      		ldd r26,Y+5
 734 0498 BE81      		ldd r27,Y+6
  76:lp_solve_5.5/lp_scale.c **** }
 735               		.loc 1 76 0
 736 049a BC01      		movw r22,r24
 737 049c CD01      		movw r24,r26
 738               	/* epilogue start */
 739 049e 2A96      		adiw r28,10
 740 04a0 0FB6      		in __tmp_reg__,__SREG__
 741 04a2 F894      		cli
 742 04a4 DEBF      		out __SP_H__,r29
 743 04a6 0FBE      		out __SREG__,__tmp_reg__
 744 04a8 CDBF      		out __SP_L__,r28
 745 04aa DF91      		pop r29
 746 04ac CF91      		pop r28
 747 04ae 1F91      		pop r17
 748 04b0 0F91      		pop r16
 749 04b2 0895      		ret
 750               		.cfi_endproc
 751               	.LFE10:
 753               	.global	__gtsf2
 754               	.global	__addsf3
 755               	.global	__subsf3
 756               	.global	CurtisReidMeasure
 758               	CurtisReidMeasure:
 759               	.LFB11:
  77:lp_solve_5.5/lp_scale.c **** 
  78:lp_solve_5.5/lp_scale.c **** /* Compute the scale factor by the formulae:
  79:lp_solve_5.5/lp_scale.c ****       FALSE: SUM (log |Aij|) ^ 2
  80:lp_solve_5.5/lp_scale.c ****       TRUE:  SUM (log |Aij| - RowScale[i] - ColScale[j]) ^ 2 */
  81:lp_solve_5.5/lp_scale.c **** REAL CurtisReidMeasure(lprec *lp, MYBOOL _Advanced, REAL *FRowScale, REAL *FColScale)
  82:lp_solve_5.5/lp_scale.c **** {
 760               		.loc 1 82 0
 761               		.cfi_startproc
 762 04b4 CF92      		push r12
 763               	.LCFI20:
 764               		.cfi_def_cfa_offset 3
 765               		.cfi_offset 12, -2
 766 04b6 DF92      		push r13
 767               	.LCFI21:
 768               		.cfi_def_cfa_offset 4
 769               		.cfi_offset 13, -3
 770 04b8 EF92      		push r14
 771               	.LCFI22:
 772               		.cfi_def_cfa_offset 5
 773               		.cfi_offset 14, -4
 774 04ba FF92      		push r15
 775               	.LCFI23:
 776               		.cfi_def_cfa_offset 6
 777               		.cfi_offset 15, -5
 778 04bc CF93      		push r28
 779               	.LCFI24:
 780               		.cfi_def_cfa_offset 7
 781               		.cfi_offset 28, -6
 782 04be DF93      		push r29
 783               	.LCFI25:
 784               		.cfi_def_cfa_offset 8
 785               		.cfi_offset 29, -7
 786 04c0 CDB7      		in r28,__SP_L__
 787 04c2 DEB7      		in r29,__SP_H__
 788               	.LCFI26:
 789               		.cfi_def_cfa_register 28
 790 04c4 6B97      		sbiw r28,27
 791               	.LCFI27:
 792               		.cfi_def_cfa_offset 35
 793 04c6 0FB6      		in __tmp_reg__,__SREG__
 794 04c8 F894      		cli
 795 04ca DEBF      		out __SP_H__,r29
 796 04cc 0FBE      		out __SREG__,__tmp_reg__
 797 04ce CDBF      		out __SP_L__,r28
 798               	/* prologue: function */
 799               	/* frame size = 27 */
 800               	/* stack size = 33 */
 801               	.L__stack_usage = 33
 802 04d0 9E8B      		std Y+22,r25
 803 04d2 8D8B      		std Y+21,r24
 804 04d4 6F8B      		std Y+23,r22
 805 04d6 598F      		std Y+25,r21
 806 04d8 488F      		std Y+24,r20
 807 04da 3B8F      		std Y+27,r19
 808 04dc 2A8F      		std Y+26,r18
  83:lp_solve_5.5/lp_scale.c ****   int      i, nz;
  84:lp_solve_5.5/lp_scale.c ****   REAL     absvalue, logvalue;
  85:lp_solve_5.5/lp_scale.c ****   register REAL result;
  86:lp_solve_5.5/lp_scale.c ****   MATrec   *mat = lp->matA;
 809               		.loc 1 86 0
 810 04de 8D89      		ldd r24,Y+21
 811 04e0 9E89      		ldd r25,Y+22
 812 04e2 8A54      		subi r24,74
 813 04e4 9D4F      		sbci r25,-3
 814 04e6 FC01      		movw r30,r24
 815 04e8 8081      		ld r24,Z
 816 04ea 9181      		ldd r25,Z+1
 817 04ec 9E87      		std Y+14,r25
 818 04ee 8D87      		std Y+13,r24
  87:lp_solve_5.5/lp_scale.c ****   REAL     *value;
  88:lp_solve_5.5/lp_scale.c ****   int      *rownr, *colnr;
  89:lp_solve_5.5/lp_scale.c **** 
  90:lp_solve_5.5/lp_scale.c ****   /* Do OF part */
  91:lp_solve_5.5/lp_scale.c ****   result = 0;
 819               		.loc 1 91 0
 820 04f0 C12C      		mov r12,__zero_reg__
 821 04f2 D12C      		mov r13,__zero_reg__
 822 04f4 7601      		movw r14,r12
  92:lp_solve_5.5/lp_scale.c ****   for(i = 1; i <= lp->columns; i++) {
 823               		.loc 1 92 0
 824 04f6 81E0      		ldi r24,lo8(1)
 825 04f8 90E0      		ldi r25,0
 826 04fa 9A83      		std Y+2,r25
 827 04fc 8983      		std Y+1,r24
 828 04fe 00C0      		rjmp .L36
 829               	.L40:
  93:lp_solve_5.5/lp_scale.c ****     absvalue = fabs(lp->orig_obj[i]);
 830               		.loc 1 93 0
 831 0500 8D89      		ldd r24,Y+21
 832 0502 9E89      		ldd r25,Y+22
 833 0504 845D      		subi r24,-44
 834 0506 9D4F      		sbci r25,-3
 835 0508 FC01      		movw r30,r24
 836 050a 2081      		ld r18,Z
 837 050c 3181      		ldd r19,Z+1
 838 050e 8981      		ldd r24,Y+1
 839 0510 9A81      		ldd r25,Y+2
 840 0512 880F      		lsl r24
 841 0514 991F      		rol r25
 842 0516 880F      		lsl r24
 843 0518 991F      		rol r25
 844 051a 820F      		add r24,r18
 845 051c 931F      		adc r25,r19
 846 051e FC01      		movw r30,r24
 847 0520 8081      		ld r24,Z
 848 0522 9181      		ldd r25,Z+1
 849 0524 A281      		ldd r26,Z+2
 850 0526 B381      		ldd r27,Z+3
 851 0528 BF77      		andi r27,0x7f
 852 052a 8F87      		std Y+15,r24
 853 052c 988B      		std Y+16,r25
 854 052e A98B      		std Y+17,r26
 855 0530 BA8B      		std Y+18,r27
  94:lp_solve_5.5/lp_scale.c ****     if(absvalue > 0) {
 856               		.loc 1 94 0
 857 0532 20E0      		ldi r18,0
 858 0534 30E0      		ldi r19,0
 859 0536 A901      		movw r20,r18
 860 0538 6F85      		ldd r22,Y+15
 861 053a 7889      		ldd r23,Y+16
 862 053c 8989      		ldd r24,Y+17
 863 053e 9A89      		ldd r25,Y+18
 864 0540 0E94 0000 		call __gtsf2
 865 0544 1816      		cp __zero_reg__,r24
 866 0546 04F0      		brlt .+2
 867 0548 00C0      		rjmp .L37
  95:lp_solve_5.5/lp_scale.c ****       logvalue = log(absvalue);
 868               		.loc 1 95 0
 869 054a 8F85      		ldd r24,Y+15
 870 054c 9889      		ldd r25,Y+16
 871 054e A989      		ldd r26,Y+17
 872 0550 BA89      		ldd r27,Y+18
 873 0552 BC01      		movw r22,r24
 874 0554 CD01      		movw r24,r26
 875 0556 0E94 0000 		call log
 876 055a DC01      		movw r26,r24
 877 055c CB01      		movw r24,r22
 878 055e 8B83      		std Y+3,r24
 879 0560 9C83      		std Y+4,r25
 880 0562 AD83      		std Y+5,r26
 881 0564 BE83      		std Y+6,r27
  96:lp_solve_5.5/lp_scale.c ****       if(_Advanced)
 882               		.loc 1 96 0
 883 0566 8F89      		ldd r24,Y+23
 884 0568 8823      		tst r24
 885 056a 01F0      		breq .L39
  97:lp_solve_5.5/lp_scale.c ****         logvalue -= FRowScale[0] + FColScale[i];
 886               		.loc 1 97 0
 887 056c 888D      		ldd r24,Y+24
 888 056e 998D      		ldd r25,Y+25
 889 0570 FC01      		movw r30,r24
 890 0572 8081      		ld r24,Z
 891 0574 9181      		ldd r25,Z+1
 892 0576 A281      		ldd r26,Z+2
 893 0578 B381      		ldd r27,Z+3
 894 057a 2981      		ldd r18,Y+1
 895 057c 3A81      		ldd r19,Y+2
 896 057e 220F      		lsl r18
 897 0580 331F      		rol r19
 898 0582 220F      		lsl r18
 899 0584 331F      		rol r19
 900 0586 4A8D      		ldd r20,Y+26
 901 0588 5B8D      		ldd r21,Y+27
 902 058a 240F      		add r18,r20
 903 058c 351F      		adc r19,r21
 904 058e F901      		movw r30,r18
 905 0590 2081      		ld r18,Z
 906 0592 3181      		ldd r19,Z+1
 907 0594 4281      		ldd r20,Z+2
 908 0596 5381      		ldd r21,Z+3
 909 0598 BC01      		movw r22,r24
 910 059a CD01      		movw r24,r26
 911 059c 0E94 0000 		call __addsf3
 912 05a0 DC01      		movw r26,r24
 913 05a2 CB01      		movw r24,r22
 914 05a4 9C01      		movw r18,r24
 915 05a6 AD01      		movw r20,r26
 916 05a8 6B81      		ldd r22,Y+3
 917 05aa 7C81      		ldd r23,Y+4
 918 05ac 8D81      		ldd r24,Y+5
 919 05ae 9E81      		ldd r25,Y+6
 920 05b0 0E94 0000 		call __subsf3
 921 05b4 DC01      		movw r26,r24
 922 05b6 CB01      		movw r24,r22
 923 05b8 8B83      		std Y+3,r24
 924 05ba 9C83      		std Y+4,r25
 925 05bc AD83      		std Y+5,r26
 926 05be BE83      		std Y+6,r27
 927               	.L39:
  98:lp_solve_5.5/lp_scale.c ****       result += logvalue*logvalue;
 928               		.loc 1 98 0
 929 05c0 2B81      		ldd r18,Y+3
 930 05c2 3C81      		ldd r19,Y+4
 931 05c4 4D81      		ldd r20,Y+5
 932 05c6 5E81      		ldd r21,Y+6
 933 05c8 6B81      		ldd r22,Y+3
 934 05ca 7C81      		ldd r23,Y+4
 935 05cc 8D81      		ldd r24,Y+5
 936 05ce 9E81      		ldd r25,Y+6
 937 05d0 0E94 0000 		call __mulsf3
 938 05d4 DC01      		movw r26,r24
 939 05d6 CB01      		movw r24,r22
 940 05d8 9C01      		movw r18,r24
 941 05da AD01      		movw r20,r26
 942 05dc C701      		movw r24,r14
 943 05de B601      		movw r22,r12
 944 05e0 0E94 0000 		call __addsf3
 945 05e4 DC01      		movw r26,r24
 946 05e6 CB01      		movw r24,r22
 947 05e8 6C01      		movw r12,r24
 948 05ea 7D01      		movw r14,r26
 949               	.L37:
  92:lp_solve_5.5/lp_scale.c ****     absvalue = fabs(lp->orig_obj[i]);
 950               		.loc 1 92 0 discriminator 2
 951 05ec 8981      		ldd r24,Y+1
 952 05ee 9A81      		ldd r25,Y+2
 953 05f0 0196      		adiw r24,1
 954 05f2 9A83      		std Y+2,r25
 955 05f4 8983      		std Y+1,r24
 956               	.L36:
  92:lp_solve_5.5/lp_scale.c ****     absvalue = fabs(lp->orig_obj[i]);
 957               		.loc 1 92 0 is_stmt 0 discriminator 1
 958 05f6 8D89      		ldd r24,Y+21
 959 05f8 9E89      		ldd r25,Y+22
 960 05fa 8451      		subi r24,20
 961 05fc 9E4F      		sbci r25,-2
 962 05fe FC01      		movw r30,r24
 963 0600 2081      		ld r18,Z
 964 0602 3181      		ldd r19,Z+1
 965 0604 8981      		ldd r24,Y+1
 966 0606 9A81      		ldd r25,Y+2
 967 0608 2817      		cp r18,r24
 968 060a 3907      		cpc r19,r25
 969 060c 04F0      		brlt .+2
 970 060e 00C0      		rjmp .L40
  99:lp_solve_5.5/lp_scale.c ****     }
 100:lp_solve_5.5/lp_scale.c ****   }
 101:lp_solve_5.5/lp_scale.c **** 
 102:lp_solve_5.5/lp_scale.c ****   /* Do constraint matrix part */
 103:lp_solve_5.5/lp_scale.c ****   mat_validate(mat);
 971               		.loc 1 103 0 is_stmt 1
 972 0610 8D85      		ldd r24,Y+13
 973 0612 9E85      		ldd r25,Y+14
 974 0614 0E94 0000 		call mat_validate
 104:lp_solve_5.5/lp_scale.c ****   value = &(COL_MAT_VALUE(0));
 975               		.loc 1 104 0
 976 0618 8D85      		ldd r24,Y+13
 977 061a 9E85      		ldd r25,Y+14
 978 061c FC01      		movw r30,r24
 979 061e 8089      		ldd r24,Z+16
 980 0620 9189      		ldd r25,Z+17
 981 0622 9887      		std Y+8,r25
 982 0624 8F83      		std Y+7,r24
 105:lp_solve_5.5/lp_scale.c ****   rownr = &(COL_MAT_ROWNR(0));
 983               		.loc 1 105 0
 984 0626 8D85      		ldd r24,Y+13
 985 0628 9E85      		ldd r25,Y+14
 986 062a FC01      		movw r30,r24
 987 062c 8685      		ldd r24,Z+14
 988 062e 9785      		ldd r25,Z+15
 989 0630 9A87      		std Y+10,r25
 990 0632 8987      		std Y+9,r24
 106:lp_solve_5.5/lp_scale.c ****   colnr = &(COL_MAT_COLNR(0));
 991               		.loc 1 106 0
 992 0634 8D85      		ldd r24,Y+13
 993 0636 9E85      		ldd r25,Y+14
 994 0638 FC01      		movw r30,r24
 995 063a 8485      		ldd r24,Z+12
 996 063c 9585      		ldd r25,Z+13
 997 063e 9C87      		std Y+12,r25
 998 0640 8B87      		std Y+11,r24
 107:lp_solve_5.5/lp_scale.c ****   nz = get_nonzeros(lp);
 999               		.loc 1 107 0
 1000 0642 8D89      		ldd r24,Y+21
 1001 0644 9E89      		ldd r25,Y+22
 1002 0646 0E94 0000 		call get_nonzeros
 1003 064a 9C8B      		std Y+20,r25
 1004 064c 8B8B      		std Y+19,r24
 108:lp_solve_5.5/lp_scale.c ****   for(i = 0; i < nz;
 1005               		.loc 1 108 0
 1006 064e 1A82      		std Y+2,__zero_reg__
 1007 0650 1982      		std Y+1,__zero_reg__
 1008 0652 00C0      		rjmp .L41
 1009               	.L45:
 109:lp_solve_5.5/lp_scale.c ****       i++, value += matValueStep, rownr += matRowColStep, colnr += matRowColStep) {
 110:lp_solve_5.5/lp_scale.c ****     absvalue = fabs(*value);
 1010               		.loc 1 110 0
 1011 0654 8F81      		ldd r24,Y+7
 1012 0656 9885      		ldd r25,Y+8
 1013 0658 FC01      		movw r30,r24
 1014 065a 8081      		ld r24,Z
 1015 065c 9181      		ldd r25,Z+1
 1016 065e A281      		ldd r26,Z+2
 1017 0660 B381      		ldd r27,Z+3
 1018 0662 BF77      		andi r27,0x7f
 1019 0664 8F87      		std Y+15,r24
 1020 0666 988B      		std Y+16,r25
 1021 0668 A98B      		std Y+17,r26
 1022 066a BA8B      		std Y+18,r27
 111:lp_solve_5.5/lp_scale.c ****     if(absvalue > 0) {
 1023               		.loc 1 111 0
 1024 066c 20E0      		ldi r18,0
 1025 066e 30E0      		ldi r19,0
 1026 0670 A901      		movw r20,r18
 1027 0672 6F85      		ldd r22,Y+15
 1028 0674 7889      		ldd r23,Y+16
 1029 0676 8989      		ldd r24,Y+17
 1030 0678 9A89      		ldd r25,Y+18
 1031 067a 0E94 0000 		call __gtsf2
 1032 067e 1816      		cp __zero_reg__,r24
 1033 0680 04F0      		brlt .+2
 1034 0682 00C0      		rjmp .L42
 112:lp_solve_5.5/lp_scale.c ****       logvalue = log(absvalue);
 1035               		.loc 1 112 0
 1036 0684 8F85      		ldd r24,Y+15
 1037 0686 9889      		ldd r25,Y+16
 1038 0688 A989      		ldd r26,Y+17
 1039 068a BA89      		ldd r27,Y+18
 1040 068c BC01      		movw r22,r24
 1041 068e CD01      		movw r24,r26
 1042 0690 0E94 0000 		call log
 1043 0694 DC01      		movw r26,r24
 1044 0696 CB01      		movw r24,r22
 1045 0698 8B83      		std Y+3,r24
 1046 069a 9C83      		std Y+4,r25
 1047 069c AD83      		std Y+5,r26
 1048 069e BE83      		std Y+6,r27
 113:lp_solve_5.5/lp_scale.c ****       if(_Advanced)
 1049               		.loc 1 113 0
 1050 06a0 8F89      		ldd r24,Y+23
 1051 06a2 8823      		tst r24
 1052 06a4 01F0      		breq .L44
 114:lp_solve_5.5/lp_scale.c ****         logvalue -= FRowScale[*rownr] + FColScale[*colnr];
 1053               		.loc 1 114 0
 1054 06a6 8985      		ldd r24,Y+9
 1055 06a8 9A85      		ldd r25,Y+10
 1056 06aa FC01      		movw r30,r24
 1057 06ac 8081      		ld r24,Z
 1058 06ae 9181      		ldd r25,Z+1
 1059 06b0 880F      		lsl r24
 1060 06b2 991F      		rol r25
 1061 06b4 880F      		lsl r24
 1062 06b6 991F      		rol r25
 1063 06b8 288D      		ldd r18,Y+24
 1064 06ba 398D      		ldd r19,Y+25
 1065 06bc 820F      		add r24,r18
 1066 06be 931F      		adc r25,r19
 1067 06c0 FC01      		movw r30,r24
 1068 06c2 8081      		ld r24,Z
 1069 06c4 9181      		ldd r25,Z+1
 1070 06c6 A281      		ldd r26,Z+2
 1071 06c8 B381      		ldd r27,Z+3
 1072 06ca 2B85      		ldd r18,Y+11
 1073 06cc 3C85      		ldd r19,Y+12
 1074 06ce F901      		movw r30,r18
 1075 06d0 2081      		ld r18,Z
 1076 06d2 3181      		ldd r19,Z+1
 1077 06d4 220F      		lsl r18
 1078 06d6 331F      		rol r19
 1079 06d8 220F      		lsl r18
 1080 06da 331F      		rol r19
 1081 06dc 4A8D      		ldd r20,Y+26
 1082 06de 5B8D      		ldd r21,Y+27
 1083 06e0 240F      		add r18,r20
 1084 06e2 351F      		adc r19,r21
 1085 06e4 F901      		movw r30,r18
 1086 06e6 2081      		ld r18,Z
 1087 06e8 3181      		ldd r19,Z+1
 1088 06ea 4281      		ldd r20,Z+2
 1089 06ec 5381      		ldd r21,Z+3
 1090 06ee BC01      		movw r22,r24
 1091 06f0 CD01      		movw r24,r26
 1092 06f2 0E94 0000 		call __addsf3
 1093 06f6 DC01      		movw r26,r24
 1094 06f8 CB01      		movw r24,r22
 1095 06fa 9C01      		movw r18,r24
 1096 06fc AD01      		movw r20,r26
 1097 06fe 6B81      		ldd r22,Y+3
 1098 0700 7C81      		ldd r23,Y+4
 1099 0702 8D81      		ldd r24,Y+5
 1100 0704 9E81      		ldd r25,Y+6
 1101 0706 0E94 0000 		call __subsf3
 1102 070a DC01      		movw r26,r24
 1103 070c CB01      		movw r24,r22
 1104 070e 8B83      		std Y+3,r24
 1105 0710 9C83      		std Y+4,r25
 1106 0712 AD83      		std Y+5,r26
 1107 0714 BE83      		std Y+6,r27
 1108               	.L44:
 115:lp_solve_5.5/lp_scale.c ****       result += logvalue*logvalue;
 1109               		.loc 1 115 0
 1110 0716 2B81      		ldd r18,Y+3
 1111 0718 3C81      		ldd r19,Y+4
 1112 071a 4D81      		ldd r20,Y+5
 1113 071c 5E81      		ldd r21,Y+6
 1114 071e 6B81      		ldd r22,Y+3
 1115 0720 7C81      		ldd r23,Y+4
 1116 0722 8D81      		ldd r24,Y+5
 1117 0724 9E81      		ldd r25,Y+6
 1118 0726 0E94 0000 		call __mulsf3
 1119 072a DC01      		movw r26,r24
 1120 072c CB01      		movw r24,r22
 1121 072e 9C01      		movw r18,r24
 1122 0730 AD01      		movw r20,r26
 1123 0732 C701      		movw r24,r14
 1124 0734 B601      		movw r22,r12
 1125 0736 0E94 0000 		call __addsf3
 1126 073a DC01      		movw r26,r24
 1127 073c CB01      		movw r24,r22
 1128 073e 6C01      		movw r12,r24
 1129 0740 7D01      		movw r14,r26
 1130               	.L42:
 109:lp_solve_5.5/lp_scale.c ****     absvalue = fabs(*value);
 1131               		.loc 1 109 0
 1132 0742 8981      		ldd r24,Y+1
 1133 0744 9A81      		ldd r25,Y+2
 1134 0746 0196      		adiw r24,1
 1135 0748 9A83      		std Y+2,r25
 1136 074a 8983      		std Y+1,r24
 1137 074c 8F81      		ldd r24,Y+7
 1138 074e 9885      		ldd r25,Y+8
 1139 0750 0496      		adiw r24,4
 1140 0752 9887      		std Y+8,r25
 1141 0754 8F83      		std Y+7,r24
 1142 0756 8985      		ldd r24,Y+9
 1143 0758 9A85      		ldd r25,Y+10
 1144 075a 0296      		adiw r24,2
 1145 075c 9A87      		std Y+10,r25
 1146 075e 8987      		std Y+9,r24
 1147 0760 8B85      		ldd r24,Y+11
 1148 0762 9C85      		ldd r25,Y+12
 1149 0764 0296      		adiw r24,2
 1150 0766 9C87      		std Y+12,r25
 1151 0768 8B87      		std Y+11,r24
 1152               	.L41:
 108:lp_solve_5.5/lp_scale.c ****       i++, value += matValueStep, rownr += matRowColStep, colnr += matRowColStep) {
 1153               		.loc 1 108 0 discriminator 1
 1154 076a 2981      		ldd r18,Y+1
 1155 076c 3A81      		ldd r19,Y+2
 1156 076e 8B89      		ldd r24,Y+19
 1157 0770 9C89      		ldd r25,Y+20
 1158 0772 2817      		cp r18,r24
 1159 0774 3907      		cpc r19,r25
 1160 0776 04F4      		brge .+2
 1161 0778 00C0      		rjmp .L45
 116:lp_solve_5.5/lp_scale.c ****     }
 117:lp_solve_5.5/lp_scale.c ****   }
 118:lp_solve_5.5/lp_scale.c ****   return( result );
 1162               		.loc 1 118 0
 1163 077a D701      		movw r26,r14
 1164 077c C601      		movw r24,r12
 119:lp_solve_5.5/lp_scale.c **** }
 1165               		.loc 1 119 0
 1166 077e BC01      		movw r22,r24
 1167 0780 CD01      		movw r24,r26
 1168               	/* epilogue start */
 1169 0782 6B96      		adiw r28,27
 1170 0784 0FB6      		in __tmp_reg__,__SREG__
 1171 0786 F894      		cli
 1172 0788 DEBF      		out __SP_H__,r29
 1173 078a 0FBE      		out __SREG__,__tmp_reg__
 1174 078c CDBF      		out __SP_L__,r28
 1175 078e DF91      		pop r29
 1176 0790 CF91      		pop r28
 1177 0792 FF90      		pop r15
 1178 0794 EF90      		pop r14
 1179 0796 DF90      		pop r13
 1180 0798 CF90      		pop r12
 1181 079a 0895      		ret
 1182               		.cfi_endproc
 1183               	.LFE11:
 1185               	.global	__floatsisf
 1186               	.global	__nesf2
 1187               	.global	CurtisReidScales
 1189               	CurtisReidScales:
 1190               	.LFB12:
 120:lp_solve_5.5/lp_scale.c **** 
 121:lp_solve_5.5/lp_scale.c **** /* Implementation of the Curtis-Reid scaling based on the paper
 122:lp_solve_5.5/lp_scale.c ****    "On the Automatic Scaling of Matrices for Gaussian
 123:lp_solve_5.5/lp_scale.c ****     Elimination," Journal of the Institute of Mathematics and
 124:lp_solve_5.5/lp_scale.c ****     Its Applications (1972) 10, 118-124.
 125:lp_solve_5.5/lp_scale.c **** 
 126:lp_solve_5.5/lp_scale.c ****     Solve the system | M   E | (r)   (sigma)
 127:lp_solve_5.5/lp_scale.c ****                      |       | ( ) = (     )
 128:lp_solve_5.5/lp_scale.c ****                      | E^T N | (c)   ( tau )
 129:lp_solve_5.5/lp_scale.c **** 
 130:lp_solve_5.5/lp_scale.c ****     by the conjugate gradient method (clever recurrences).
 131:lp_solve_5.5/lp_scale.c **** 
 132:lp_solve_5.5/lp_scale.c ****     E is the matrix A with all elements = 1
 133:lp_solve_5.5/lp_scale.c **** 
 134:lp_solve_5.5/lp_scale.c ****     M is diagonal matrix of row    counts (RowCount)
 135:lp_solve_5.5/lp_scale.c ****     N is diagonal matrix of column counts (ColCount)
 136:lp_solve_5.5/lp_scale.c **** 
 137:lp_solve_5.5/lp_scale.c ****     sigma is the vector of row    logarithm sums (RowSum)
 138:lp_solve_5.5/lp_scale.c ****     tau   is the vector of column logarithm sums (ColSum)
 139:lp_solve_5.5/lp_scale.c **** 
 140:lp_solve_5.5/lp_scale.c ****     r, c are resulting row and column scalings (RowScale, ColScale) */
 141:lp_solve_5.5/lp_scale.c **** 
 142:lp_solve_5.5/lp_scale.c **** int CurtisReidScales(lprec *lp, MYBOOL _Advanced, REAL *FRowScale, REAL *FColScale)
 143:lp_solve_5.5/lp_scale.c **** {
 1191               		.loc 1 143 0
 1192               		.cfi_startproc
 1193 079c 4F92      		push r4
 1194               	.LCFI28:
 1195               		.cfi_def_cfa_offset 3
 1196               		.cfi_offset 4, -2
 1197 079e 5F92      		push r5
 1198               	.LCFI29:
 1199               		.cfi_def_cfa_offset 4
 1200               		.cfi_offset 5, -3
 1201 07a0 6F92      		push r6
 1202               	.LCFI30:
 1203               		.cfi_def_cfa_offset 5
 1204               		.cfi_offset 6, -4
 1205 07a2 7F92      		push r7
 1206               	.LCFI31:
 1207               		.cfi_def_cfa_offset 6
 1208               		.cfi_offset 7, -5
 1209 07a4 8F92      		push r8
 1210               	.LCFI32:
 1211               		.cfi_def_cfa_offset 7
 1212               		.cfi_offset 8, -6
 1213 07a6 9F92      		push r9
 1214               	.LCFI33:
 1215               		.cfi_def_cfa_offset 8
 1216               		.cfi_offset 9, -7
 1217 07a8 AF92      		push r10
 1218               	.LCFI34:
 1219               		.cfi_def_cfa_offset 9
 1220               		.cfi_offset 10, -8
 1221 07aa BF92      		push r11
 1222               	.LCFI35:
 1223               		.cfi_def_cfa_offset 10
 1224               		.cfi_offset 11, -9
 1225 07ac CF92      		push r12
 1226               	.LCFI36:
 1227               		.cfi_def_cfa_offset 11
 1228               		.cfi_offset 12, -10
 1229 07ae DF92      		push r13
 1230               	.LCFI37:
 1231               		.cfi_def_cfa_offset 12
 1232               		.cfi_offset 13, -11
 1233 07b0 EF92      		push r14
 1234               	.LCFI38:
 1235               		.cfi_def_cfa_offset 13
 1236               		.cfi_offset 14, -12
 1237 07b2 FF92      		push r15
 1238               	.LCFI39:
 1239               		.cfi_def_cfa_offset 14
 1240               		.cfi_offset 15, -13
 1241 07b4 0F93      		push r16
 1242               	.LCFI40:
 1243               		.cfi_def_cfa_offset 15
 1244               		.cfi_offset 16, -14
 1245 07b6 1F93      		push r17
 1246               	.LCFI41:
 1247               		.cfi_def_cfa_offset 16
 1248               		.cfi_offset 17, -15
 1249 07b8 CF93      		push r28
 1250               	.LCFI42:
 1251               		.cfi_def_cfa_offset 17
 1252               		.cfi_offset 28, -16
 1253 07ba DF93      		push r29
 1254               	.LCFI43:
 1255               		.cfi_def_cfa_offset 18
 1256               		.cfi_offset 29, -17
 1257 07bc CDB7      		in r28,__SP_L__
 1258 07be DEB7      		in r29,__SP_H__
 1259               	.LCFI44:
 1260               		.cfi_def_cfa_register 28
 1261 07c0 C156      		subi r28,97
 1262 07c2 D109      		sbc r29,__zero_reg__
 1263               	.LCFI45:
 1264               		.cfi_def_cfa_offset 115
 1265 07c4 0FB6      		in __tmp_reg__,__SREG__
 1266 07c6 F894      		cli
 1267 07c8 DEBF      		out __SP_H__,r29
 1268 07ca 0FBE      		out __SREG__,__tmp_reg__
 1269 07cc CDBF      		out __SP_L__,r28
 1270               	/* prologue: function */
 1271               	/* frame size = 97 */
 1272               	/* stack size = 113 */
 1273               	.L__stack_usage = 113
 1274 07ce FE01      		movw r30,r28
 1275 07d0 E55A      		subi r30,-91
 1276 07d2 FF4F      		sbci r31,-1
 1277 07d4 9183      		std Z+1,r25
 1278 07d6 8083      		st Z,r24
 1279 07d8 CE01      		movw r24,r28
 1280 07da 835A      		subi r24,-93
 1281 07dc 9F4F      		sbci r25,-1
 1282 07de DC01      		movw r26,r24
 1283 07e0 6C93      		st X,r22
 1284 07e2 CE01      		movw r24,r28
 1285 07e4 825A      		subi r24,-94
 1286 07e6 9F4F      		sbci r25,-1
 1287 07e8 FC01      		movw r30,r24
 1288 07ea 5183      		std Z+1,r21
 1289 07ec 4083      		st Z,r20
 1290 07ee CE01      		movw r24,r28
 1291 07f0 805A      		subi r24,-96
 1292 07f2 9F4F      		sbci r25,-1
 1293 07f4 DC01      		movw r26,r24
 1294 07f6 2D93      		st X+,r18
 1295 07f8 3C93      		st X,r19
 144:lp_solve_5.5/lp_scale.c ****   int    i, row, col, ent, nz;
 145:lp_solve_5.5/lp_scale.c ****   REAL   *RowScalem2, *ColScalem2,
 146:lp_solve_5.5/lp_scale.c ****          *RowSum, *ColSum,
 147:lp_solve_5.5/lp_scale.c ****          *residual_even, *residual_odd;
 148:lp_solve_5.5/lp_scale.c ****   REAL   sk,   qk,     ek,
 149:lp_solve_5.5/lp_scale.c ****          skm1, qkm1,   ekm1,
 150:lp_solve_5.5/lp_scale.c ****          qkm2, qkqkm1, ekm2, ekekm1,
 151:lp_solve_5.5/lp_scale.c ****          absvalue, logvalue,
 152:lp_solve_5.5/lp_scale.c ****          StopTolerance;
 153:lp_solve_5.5/lp_scale.c ****   int    *RowCount, *ColCount, colMax;
 154:lp_solve_5.5/lp_scale.c ****   int    Result;
 155:lp_solve_5.5/lp_scale.c ****   MATrec *mat = lp->matA;
 1296               		.loc 1 155 0
 1297 07fa CE01      		movw r24,r28
 1298 07fc 855A      		subi r24,-91
 1299 07fe 9F4F      		sbci r25,-1
 1300 0800 FC01      		movw r30,r24
 1301 0802 8081      		ld r24,Z
 1302 0804 9181      		ldd r25,Z+1
 1303 0806 8A54      		subi r24,74
 1304 0808 9D4F      		sbci r25,-3
 1305 080a DC01      		movw r26,r24
 1306 080c 8D91      		ld r24,X+
 1307 080e 9C91      		ld r25,X
 1308 0810 9CA7      		std Y+44,r25
 1309 0812 8BA7      		std Y+43,r24
 156:lp_solve_5.5/lp_scale.c ****   REAL   *value;
 157:lp_solve_5.5/lp_scale.c ****   int    *rownr, *colnr;
 158:lp_solve_5.5/lp_scale.c **** 
 159:lp_solve_5.5/lp_scale.c ****   if(CurtisReidMeasure(lp, _Advanced, FRowScale, FColScale)<0.1*get_nonzeros(lp))
 1310               		.loc 1 159 0
 1311 0814 CE01      		movw r24,r28
 1312 0816 805A      		subi r24,-96
 1313 0818 9F4F      		sbci r25,-1
 1314 081a FC01      		movw r30,r24
 1315 081c 6081      		ld r22,Z
 1316 081e 7181      		ldd r23,Z+1
 1317 0820 CE01      		movw r24,r28
 1318 0822 825A      		subi r24,-94
 1319 0824 9F4F      		sbci r25,-1
 1320 0826 DC01      		movw r26,r24
 1321 0828 4D91      		ld r20,X+
 1322 082a 5C91      		ld r21,X
 1323 082c CE01      		movw r24,r28
 1324 082e 835A      		subi r24,-93
 1325 0830 9F4F      		sbci r25,-1
 1326 0832 9E01      		movw r18,r28
 1327 0834 255A      		subi r18,-91
 1328 0836 3F4F      		sbci r19,-1
 1329 0838 D901      		movw r26,r18
 1330 083a ED91      		ld r30,X+
 1331 083c FC91      		ld r31,X
 1332 083e 9B01      		movw r18,r22
 1333 0840 DC01      		movw r26,r24
 1334 0842 6C91      		ld r22,X
 1335 0844 CF01      		movw r24,r30
 1336 0846 0E94 0000 		call CurtisReidMeasure
 1337 084a 6B01      		movw r12,r22
 1338 084c 7C01      		movw r14,r24
 1339 084e CE01      		movw r24,r28
 1340 0850 855A      		subi r24,-91
 1341 0852 9F4F      		sbci r25,-1
 1342 0854 FC01      		movw r30,r24
 1343 0856 8081      		ld r24,Z
 1344 0858 9181      		ldd r25,Z+1
 1345 085a 0E94 0000 		call get_nonzeros
 1346 085e 092E      		mov __tmp_reg__,r25
 1347 0860 000C      		lsl r0
 1348 0862 AA0B      		sbc r26,r26
 1349 0864 BB0B      		sbc r27,r27
 1350 0866 BC01      		movw r22,r24
 1351 0868 CD01      		movw r24,r26
 1352 086a 0E94 0000 		call __floatsisf
 1353 086e DC01      		movw r26,r24
 1354 0870 CB01      		movw r24,r22
 1355 0872 2DEC      		ldi r18,lo8(-51)
 1356 0874 3CEC      		ldi r19,lo8(-52)
 1357 0876 4CEC      		ldi r20,lo8(-52)
 1358 0878 5DE3      		ldi r21,lo8(61)
 1359 087a BC01      		movw r22,r24
 1360 087c CD01      		movw r24,r26
 1361 087e 0E94 0000 		call __mulsf3
 1362 0882 DC01      		movw r26,r24
 1363 0884 CB01      		movw r24,r22
 1364 0886 9C01      		movw r18,r24
 1365 0888 AD01      		movw r20,r26
 1366 088a C701      		movw r24,r14
 1367 088c B601      		movw r22,r12
 1368 088e 0E94 0000 		call __ltsf2
 1369 0892 8823      		tst r24
 1370 0894 04F4      		brge .L174
 160:lp_solve_5.5/lp_scale.c ****   return(0);
 1371               		.loc 1 160 0
 1372 0896 80E0      		ldi r24,0
 1373 0898 90E0      		ldi r25,0
 1374 089a 0C94 0000 		jmp .L158
 1375               	.L174:
 161:lp_solve_5.5/lp_scale.c **** 
 162:lp_solve_5.5/lp_scale.c ****   /* Allocate temporary memory and find RowSum and ColSum measures */
 163:lp_solve_5.5/lp_scale.c ****   nz = get_nonzeros(lp);
 1376               		.loc 1 163 0
 1377 089e CE01      		movw r24,r28
 1378 08a0 855A      		subi r24,-91
 1379 08a2 9F4F      		sbci r25,-1
 1380 08a4 DC01      		movw r26,r24
 1381 08a6 8D91      		ld r24,X+
 1382 08a8 9C91      		ld r25,X
 1383 08aa 0E94 0000 		call get_nonzeros
 1384 08ae 9EA7      		std Y+46,r25
 1385 08b0 8DA7      		std Y+45,r24
 164:lp_solve_5.5/lp_scale.c ****   colMax = lp->columns;
 1386               		.loc 1 164 0
 1387 08b2 CE01      		movw r24,r28
 1388 08b4 855A      		subi r24,-91
 1389 08b6 9F4F      		sbci r25,-1
 1390 08b8 FC01      		movw r30,r24
 1391 08ba 8081      		ld r24,Z
 1392 08bc 9181      		ldd r25,Z+1
 1393 08be 8451      		subi r24,20
 1394 08c0 9E4F      		sbci r25,-2
 1395 08c2 DC01      		movw r26,r24
 1396 08c4 8D91      		ld r24,X+
 1397 08c6 9C91      		ld r25,X
 1398 08c8 98AB      		std Y+48,r25
 1399 08ca 8FA7      		std Y+47,r24
 165:lp_solve_5.5/lp_scale.c **** 
 166:lp_solve_5.5/lp_scale.c ****   allocREAL(lp, &RowSum, lp->rows+1, TRUE);
 1400               		.loc 1 166 0
 1401 08cc CE01      		movw r24,r28
 1402 08ce 855A      		subi r24,-91
 1403 08d0 9F4F      		sbci r25,-1
 1404 08d2 FC01      		movw r30,r24
 1405 08d4 8081      		ld r24,Z
 1406 08d6 9181      		ldd r25,Z+1
 1407 08d8 8651      		subi r24,22
 1408 08da 9E4F      		sbci r25,-2
 1409 08dc DC01      		movw r26,r24
 1410 08de 8D91      		ld r24,X+
 1411 08e0 9C91      		ld r25,X
 1412 08e2 AC01      		movw r20,r24
 1413 08e4 4F5F      		subi r20,-1
 1414 08e6 5F4F      		sbci r21,-1
 1415 08e8 BE01      		movw r22,r28
 1416 08ea 615B      		subi r22,-79
 1417 08ec 7F4F      		sbci r23,-1
 1418 08ee CE01      		movw r24,r28
 1419 08f0 855A      		subi r24,-91
 1420 08f2 9F4F      		sbci r25,-1
 1421 08f4 FC01      		movw r30,r24
 1422 08f6 8081      		ld r24,Z
 1423 08f8 9181      		ldd r25,Z+1
 1424 08fa 21E0      		ldi r18,lo8(1)
 1425 08fc 0E94 0000 		call allocREAL
 167:lp_solve_5.5/lp_scale.c ****   allocINT(lp,  &RowCount, lp->rows+1, TRUE);
 1426               		.loc 1 167 0
 1427 0900 CE01      		movw r24,r28
 1428 0902 855A      		subi r24,-91
 1429 0904 9F4F      		sbci r25,-1
 1430 0906 DC01      		movw r26,r24
 1431 0908 8D91      		ld r24,X+
 1432 090a 9C91      		ld r25,X
 1433 090c 8651      		subi r24,22
 1434 090e 9E4F      		sbci r25,-2
 1435 0910 FC01      		movw r30,r24
 1436 0912 8081      		ld r24,Z
 1437 0914 9181      		ldd r25,Z+1
 1438 0916 AC01      		movw r20,r24
 1439 0918 4F5F      		subi r20,-1
 1440 091a 5F4F      		sbci r21,-1
 1441 091c BE01      		movw r22,r28
 1442 091e 695A      		subi r22,-87
 1443 0920 7F4F      		sbci r23,-1
 1444 0922 CE01      		movw r24,r28
 1445 0924 855A      		subi r24,-91
 1446 0926 9F4F      		sbci r25,-1
 1447 0928 DC01      		movw r26,r24
 1448 092a 8D91      		ld r24,X+
 1449 092c 9C91      		ld r25,X
 1450 092e 21E0      		ldi r18,lo8(1)
 1451 0930 0E94 0000 		call allocINT
 168:lp_solve_5.5/lp_scale.c ****   allocREAL(lp, &residual_odd, lp->rows+1, TRUE);
 1452               		.loc 1 168 0
 1453 0934 CE01      		movw r24,r28
 1454 0936 855A      		subi r24,-91
 1455 0938 9F4F      		sbci r25,-1
 1456 093a FC01      		movw r30,r24
 1457 093c 8081      		ld r24,Z
 1458 093e 9181      		ldd r25,Z+1
 1459 0940 8651      		subi r24,22
 1460 0942 9E4F      		sbci r25,-2
 1461 0944 DC01      		movw r26,r24
 1462 0946 8D91      		ld r24,X+
 1463 0948 9C91      		ld r25,X
 1464 094a AC01      		movw r20,r24
 1465 094c 4F5F      		subi r20,-1
 1466 094e 5F4F      		sbci r21,-1
 1467 0950 BE01      		movw r22,r28
 1468 0952 6B5A      		subi r22,-85
 1469 0954 7F4F      		sbci r23,-1
 1470 0956 CE01      		movw r24,r28
 1471 0958 855A      		subi r24,-91
 1472 095a 9F4F      		sbci r25,-1
 1473 095c FC01      		movw r30,r24
 1474 095e 8081      		ld r24,Z
 1475 0960 9181      		ldd r25,Z+1
 1476 0962 21E0      		ldi r18,lo8(1)
 1477 0964 0E94 0000 		call allocREAL
 169:lp_solve_5.5/lp_scale.c **** 
 170:lp_solve_5.5/lp_scale.c ****   allocREAL(lp, &ColSum, colMax+1, TRUE);
 1478               		.loc 1 170 0
 1479 0968 8FA5      		ldd r24,Y+47
 1480 096a 98A9      		ldd r25,Y+48
 1481 096c AC01      		movw r20,r24
 1482 096e 4F5F      		subi r20,-1
 1483 0970 5F4F      		sbci r21,-1
 1484 0972 BE01      		movw r22,r28
 1485 0974 6F5A      		subi r22,-81
 1486 0976 7F4F      		sbci r23,-1
 1487 0978 CE01      		movw r24,r28
 1488 097a 855A      		subi r24,-91
 1489 097c 9F4F      		sbci r25,-1
 1490 097e DC01      		movw r26,r24
 1491 0980 8D91      		ld r24,X+
 1492 0982 9C91      		ld r25,X
 1493 0984 21E0      		ldi r18,lo8(1)
 1494 0986 0E94 0000 		call allocREAL
 171:lp_solve_5.5/lp_scale.c ****   allocINT(lp,  &ColCount, colMax+1, TRUE);
 1495               		.loc 1 171 0
 1496 098a 8FA5      		ldd r24,Y+47
 1497 098c 98A9      		ldd r25,Y+48
 1498 098e AC01      		movw r20,r24
 1499 0990 4F5F      		subi r20,-1
 1500 0992 5F4F      		sbci r21,-1
 1501 0994 BE01      		movw r22,r28
 1502 0996 675A      		subi r22,-89
 1503 0998 7F4F      		sbci r23,-1
 1504 099a CE01      		movw r24,r28
 1505 099c 855A      		subi r24,-91
 1506 099e 9F4F      		sbci r25,-1
 1507 09a0 FC01      		movw r30,r24
 1508 09a2 8081      		ld r24,Z
 1509 09a4 9181      		ldd r25,Z+1
 1510 09a6 21E0      		ldi r18,lo8(1)
 1511 09a8 0E94 0000 		call allocINT
 172:lp_solve_5.5/lp_scale.c ****   allocREAL(lp, &residual_even, colMax+1, TRUE);
 1512               		.loc 1 172 0
 1513 09ac 8FA5      		ldd r24,Y+47
 1514 09ae 98A9      		ldd r25,Y+48
 1515 09b0 AC01      		movw r20,r24
 1516 09b2 4F5F      		subi r20,-1
 1517 09b4 5F4F      		sbci r21,-1
 1518 09b6 BE01      		movw r22,r28
 1519 09b8 6D5A      		subi r22,-83
 1520 09ba 7F4F      		sbci r23,-1
 1521 09bc CE01      		movw r24,r28
 1522 09be 855A      		subi r24,-91
 1523 09c0 9F4F      		sbci r25,-1
 1524 09c2 DC01      		movw r26,r24
 1525 09c4 8D91      		ld r24,X+
 1526 09c6 9C91      		ld r25,X
 1527 09c8 21E0      		ldi r18,lo8(1)
 1528 09ca 0E94 0000 		call allocREAL
 173:lp_solve_5.5/lp_scale.c **** 
 174:lp_solve_5.5/lp_scale.c ****   allocREAL(lp, &RowScalem2, lp->rows+1, FALSE);
 1529               		.loc 1 174 0
 1530 09ce CE01      		movw r24,r28
 1531 09d0 855A      		subi r24,-91
 1532 09d2 9F4F      		sbci r25,-1
 1533 09d4 FC01      		movw r30,r24
 1534 09d6 8081      		ld r24,Z
 1535 09d8 9181      		ldd r25,Z+1
 1536 09da 8651      		subi r24,22
 1537 09dc 9E4F      		sbci r25,-2
 1538 09de DC01      		movw r26,r24
 1539 09e0 8D91      		ld r24,X+
 1540 09e2 9C91      		ld r25,X
 1541 09e4 AC01      		movw r20,r24
 1542 09e6 4F5F      		subi r20,-1
 1543 09e8 5F4F      		sbci r21,-1
 1544 09ea BE01      		movw r22,r28
 1545 09ec 655B      		subi r22,-75
 1546 09ee 7F4F      		sbci r23,-1
 1547 09f0 CE01      		movw r24,r28
 1548 09f2 855A      		subi r24,-91
 1549 09f4 9F4F      		sbci r25,-1
 1550 09f6 FC01      		movw r30,r24
 1551 09f8 8081      		ld r24,Z
 1552 09fa 9181      		ldd r25,Z+1
 1553 09fc 20E0      		ldi r18,0
 1554 09fe 0E94 0000 		call allocREAL
 175:lp_solve_5.5/lp_scale.c ****   allocREAL(lp, &ColScalem2, colMax+1, FALSE);
 1555               		.loc 1 175 0
 1556 0a02 8FA5      		ldd r24,Y+47
 1557 0a04 98A9      		ldd r25,Y+48
 1558 0a06 AC01      		movw r20,r24
 1559 0a08 4F5F      		subi r20,-1
 1560 0a0a 5F4F      		sbci r21,-1
 1561 0a0c BE01      		movw r22,r28
 1562 0a0e 635B      		subi r22,-77
 1563 0a10 7F4F      		sbci r23,-1
 1564 0a12 CE01      		movw r24,r28
 1565 0a14 855A      		subi r24,-91
 1566 0a16 9F4F      		sbci r25,-1
 1567 0a18 DC01      		movw r26,r24
 1568 0a1a 8D91      		ld r24,X+
 1569 0a1c 9C91      		ld r25,X
 1570 0a1e 20E0      		ldi r18,0
 1571 0a20 0E94 0000 		call allocREAL
 176:lp_solve_5.5/lp_scale.c **** 
 177:lp_solve_5.5/lp_scale.c ****   /* Set origin for row scaling */
 178:lp_solve_5.5/lp_scale.c ****   for(i = 1; i <= colMax; i++) {
 1572               		.loc 1 178 0
 1573 0a24 81E0      		ldi r24,lo8(1)
 1574 0a26 90E0      		ldi r25,0
 1575 0a28 9A83      		std Y+2,r25
 1576 0a2a 8983      		std Y+1,r24
 1577 0a2c 00C0      		rjmp .L53
 1578               	.L56:
 179:lp_solve_5.5/lp_scale.c ****     absvalue=fabs(lp->orig_obj[i]);
 1579               		.loc 1 179 0
 1580 0a2e CE01      		movw r24,r28
 1581 0a30 855A      		subi r24,-91
 1582 0a32 9F4F      		sbci r25,-1
 1583 0a34 FC01      		movw r30,r24
 1584 0a36 8081      		ld r24,Z
 1585 0a38 9181      		ldd r25,Z+1
 1586 0a3a 845D      		subi r24,-44
 1587 0a3c 9D4F      		sbci r25,-3
 1588 0a3e DC01      		movw r26,r24
 1589 0a40 2D91      		ld r18,X+
 1590 0a42 3C91      		ld r19,X
 1591 0a44 8981      		ldd r24,Y+1
 1592 0a46 9A81      		ldd r25,Y+2
 1593 0a48 880F      		lsl r24
 1594 0a4a 991F      		rol r25
 1595 0a4c 880F      		lsl r24
 1596 0a4e 991F      		rol r25
 1597 0a50 820F      		add r24,r18
 1598 0a52 931F      		adc r25,r19
 1599 0a54 FC01      		movw r30,r24
 1600 0a56 8081      		ld r24,Z
 1601 0a58 9181      		ldd r25,Z+1
 1602 0a5a A281      		ldd r26,Z+2
 1603 0a5c B381      		ldd r27,Z+3
 1604 0a5e BF77      		andi r27,0x7f
 1605 0a60 8F8F      		std Y+31,r24
 1606 0a62 98A3      		std Y+32,r25
 1607 0a64 A9A3      		std Y+33,r26
 1608 0a66 BAA3      		std Y+34,r27
 180:lp_solve_5.5/lp_scale.c ****     if(absvalue>0) {
 1609               		.loc 1 180 0
 1610 0a68 20E0      		ldi r18,0
 1611 0a6a 30E0      		ldi r19,0
 1612 0a6c A901      		movw r20,r18
 1613 0a6e 6F8D      		ldd r22,Y+31
 1614 0a70 78A1      		ldd r23,Y+32
 1615 0a72 89A1      		ldd r24,Y+33
 1616 0a74 9AA1      		ldd r25,Y+34
 1617 0a76 0E94 0000 		call __gtsf2
 1618 0a7a 1816      		cp __zero_reg__,r24
 1619 0a7c 04F0      		brlt .+2
 1620 0a7e 00C0      		rjmp .L54
 181:lp_solve_5.5/lp_scale.c ****       logvalue = log(absvalue);
 1621               		.loc 1 181 0
 1622 0a80 8F8D      		ldd r24,Y+31
 1623 0a82 98A1      		ldd r25,Y+32
 1624 0a84 A9A1      		ldd r26,Y+33
 1625 0a86 BAA1      		ldd r27,Y+34
 1626 0a88 BC01      		movw r22,r24
 1627 0a8a CD01      		movw r24,r26
 1628 0a8c 0E94 0000 		call log
 1629 0a90 DC01      		movw r26,r24
 1630 0a92 CB01      		movw r24,r22
 1631 0a94 89AB      		std Y+49,r24
 1632 0a96 9AAB      		std Y+50,r25
 1633 0a98 ABAB      		std Y+51,r26
 1634 0a9a BCAB      		std Y+52,r27
 182:lp_solve_5.5/lp_scale.c ****       ColSum[i] += logvalue;
 1635               		.loc 1 182 0
 1636 0a9c CE01      		movw r24,r28
 1637 0a9e 8F5A      		subi r24,-81
 1638 0aa0 9F4F      		sbci r25,-1
 1639 0aa2 DC01      		movw r26,r24
 1640 0aa4 2D91      		ld r18,X+
 1641 0aa6 3C91      		ld r19,X
 1642 0aa8 8981      		ldd r24,Y+1
 1643 0aaa 9A81      		ldd r25,Y+2
 1644 0aac 880F      		lsl r24
 1645 0aae 991F      		rol r25
 1646 0ab0 880F      		lsl r24
 1647 0ab2 991F      		rol r25
 1648 0ab4 8901      		movw r16,r18
 1649 0ab6 080F      		add r16,r24
 1650 0ab8 191F      		adc r17,r25
 1651 0aba CE01      		movw r24,r28
 1652 0abc 8F5A      		subi r24,-81
 1653 0abe 9F4F      		sbci r25,-1
 1654 0ac0 FC01      		movw r30,r24
 1655 0ac2 2081      		ld r18,Z
 1656 0ac4 3181      		ldd r19,Z+1
 1657 0ac6 8981      		ldd r24,Y+1
 1658 0ac8 9A81      		ldd r25,Y+2
 1659 0aca 880F      		lsl r24
 1660 0acc 991F      		rol r25
 1661 0ace 880F      		lsl r24
 1662 0ad0 991F      		rol r25
 1663 0ad2 820F      		add r24,r18
 1664 0ad4 931F      		adc r25,r19
 1665 0ad6 FC01      		movw r30,r24
 1666 0ad8 8081      		ld r24,Z
 1667 0ada 9181      		ldd r25,Z+1
 1668 0adc A281      		ldd r26,Z+2
 1669 0ade B381      		ldd r27,Z+3
 1670 0ae0 29A9      		ldd r18,Y+49
 1671 0ae2 3AA9      		ldd r19,Y+50
 1672 0ae4 4BA9      		ldd r20,Y+51
 1673 0ae6 5CA9      		ldd r21,Y+52
 1674 0ae8 BC01      		movw r22,r24
 1675 0aea CD01      		movw r24,r26
 1676 0aec 0E94 0000 		call __addsf3
 1677 0af0 DC01      		movw r26,r24
 1678 0af2 CB01      		movw r24,r22
 1679 0af4 F801      		movw r30,r16
 1680 0af6 8083      		st Z,r24
 1681 0af8 9183      		std Z+1,r25
 1682 0afa A283      		std Z+2,r26
 1683 0afc B383      		std Z+3,r27
 183:lp_solve_5.5/lp_scale.c ****       RowSum[0] += logvalue;
 1684               		.loc 1 183 0
 1685 0afe CE01      		movw r24,r28
 1686 0b00 815B      		subi r24,-79
 1687 0b02 9F4F      		sbci r25,-1
 1688 0b04 DC01      		movw r26,r24
 1689 0b06 0D91      		ld r16,X+
 1690 0b08 1C91      		ld r17,X
 1691 0b0a CE01      		movw r24,r28
 1692 0b0c 815B      		subi r24,-79
 1693 0b0e 9F4F      		sbci r25,-1
 1694 0b10 FC01      		movw r30,r24
 1695 0b12 8081      		ld r24,Z
 1696 0b14 9181      		ldd r25,Z+1
 1697 0b16 FC01      		movw r30,r24
 1698 0b18 8081      		ld r24,Z
 1699 0b1a 9181      		ldd r25,Z+1
 1700 0b1c A281      		ldd r26,Z+2
 1701 0b1e B381      		ldd r27,Z+3
 1702 0b20 29A9      		ldd r18,Y+49
 1703 0b22 3AA9      		ldd r19,Y+50
 1704 0b24 4BA9      		ldd r20,Y+51
 1705 0b26 5CA9      		ldd r21,Y+52
 1706 0b28 BC01      		movw r22,r24
 1707 0b2a CD01      		movw r24,r26
 1708 0b2c 0E94 0000 		call __addsf3
 1709 0b30 DC01      		movw r26,r24
 1710 0b32 CB01      		movw r24,r22
 1711 0b34 F801      		movw r30,r16
 1712 0b36 8083      		st Z,r24
 1713 0b38 9183      		std Z+1,r25
 1714 0b3a A283      		std Z+2,r26
 1715 0b3c B383      		std Z+3,r27
 184:lp_solve_5.5/lp_scale.c ****       ColCount[i]++;
 1716               		.loc 1 184 0
 1717 0b3e CE01      		movw r24,r28
 1718 0b40 875A      		subi r24,-89
 1719 0b42 9F4F      		sbci r25,-1
 1720 0b44 DC01      		movw r26,r24
 1721 0b46 2D91      		ld r18,X+
 1722 0b48 3C91      		ld r19,X
 1723 0b4a 8981      		ldd r24,Y+1
 1724 0b4c 9A81      		ldd r25,Y+2
 1725 0b4e 880F      		lsl r24
 1726 0b50 991F      		rol r25
 1727 0b52 820F      		add r24,r18
 1728 0b54 931F      		adc r25,r19
 1729 0b56 FC01      		movw r30,r24
 1730 0b58 2081      		ld r18,Z
 1731 0b5a 3181      		ldd r19,Z+1
 1732 0b5c 2F5F      		subi r18,-1
 1733 0b5e 3F4F      		sbci r19,-1
 1734 0b60 DC01      		movw r26,r24
 1735 0b62 2D93      		st X+,r18
 1736 0b64 3C93      		st X,r19
 185:lp_solve_5.5/lp_scale.c ****       RowCount[0]++;
 1737               		.loc 1 185 0
 1738 0b66 CE01      		movw r24,r28
 1739 0b68 895A      		subi r24,-87
 1740 0b6a 9F4F      		sbci r25,-1
 1741 0b6c FC01      		movw r30,r24
 1742 0b6e 8081      		ld r24,Z
 1743 0b70 9181      		ldd r25,Z+1
 1744 0b72 DC01      		movw r26,r24
 1745 0b74 2D91      		ld r18,X+
 1746 0b76 3C91      		ld r19,X
 1747 0b78 2F5F      		subi r18,-1
 1748 0b7a 3F4F      		sbci r19,-1
 1749 0b7c FC01      		movw r30,r24
 1750 0b7e 3183      		std Z+1,r19
 1751 0b80 2083      		st Z,r18
 1752               	.L54:
 178:lp_solve_5.5/lp_scale.c ****     absvalue=fabs(lp->orig_obj[i]);
 1753               		.loc 1 178 0 discriminator 2
 1754 0b82 8981      		ldd r24,Y+1
 1755 0b84 9A81      		ldd r25,Y+2
 1756 0b86 0196      		adiw r24,1
 1757 0b88 9A83      		std Y+2,r25
 1758 0b8a 8983      		std Y+1,r24
 1759               	.L53:
 178:lp_solve_5.5/lp_scale.c ****     absvalue=fabs(lp->orig_obj[i]);
 1760               		.loc 1 178 0 is_stmt 0 discriminator 1
 1761 0b8c 2981      		ldd r18,Y+1
 1762 0b8e 3A81      		ldd r19,Y+2
 1763 0b90 8FA5      		ldd r24,Y+47
 1764 0b92 98A9      		ldd r25,Y+48
 1765 0b94 8217      		cp r24,r18
 1766 0b96 9307      		cpc r25,r19
 1767 0b98 04F0      		brlt .+2
 1768 0b9a 00C0      		rjmp .L56
 186:lp_solve_5.5/lp_scale.c ****     }
 187:lp_solve_5.5/lp_scale.c ****   }
 188:lp_solve_5.5/lp_scale.c **** 
 189:lp_solve_5.5/lp_scale.c ****   value = &(COL_MAT_VALUE(0));
 1769               		.loc 1 189 0 is_stmt 1
 1770 0b9c 8BA5      		ldd r24,Y+43
 1771 0b9e 9CA5      		ldd r25,Y+44
 1772 0ba0 DC01      		movw r26,r24
 1773 0ba2 5096      		adiw r26,16
 1774 0ba4 8D91      		ld r24,X+
 1775 0ba6 9C91      		ld r25,X
 1776 0ba8 5197      		sbiw r26,16+1
 1777 0baa 9EA3      		std Y+38,r25
 1778 0bac 8DA3      		std Y+37,r24
 190:lp_solve_5.5/lp_scale.c ****   rownr = &(COL_MAT_ROWNR(0));
 1779               		.loc 1 190 0
 1780 0bae 8BA5      		ldd r24,Y+43
 1781 0bb0 9CA5      		ldd r25,Y+44
 1782 0bb2 FC01      		movw r30,r24
 1783 0bb4 8685      		ldd r24,Z+14
 1784 0bb6 9785      		ldd r25,Z+15
 1785 0bb8 98A7      		std Y+40,r25
 1786 0bba 8FA3      		std Y+39,r24
 191:lp_solve_5.5/lp_scale.c ****   colnr = &(COL_MAT_COLNR(0));
 1787               		.loc 1 191 0
 1788 0bbc 8BA5      		ldd r24,Y+43
 1789 0bbe 9CA5      		ldd r25,Y+44
 1790 0bc0 DC01      		movw r26,r24
 1791 0bc2 1C96      		adiw r26,12
 1792 0bc4 8D91      		ld r24,X+
 1793 0bc6 9C91      		ld r25,X
 1794 0bc8 1D97      		sbiw r26,12+1
 1795 0bca 9AA7      		std Y+42,r25
 1796 0bcc 89A7      		std Y+41,r24
 192:lp_solve_5.5/lp_scale.c ****   for(i = 0; i < nz;
 1797               		.loc 1 192 0
 1798 0bce 1A82      		std Y+2,__zero_reg__
 1799 0bd0 1982      		std Y+1,__zero_reg__
 1800 0bd2 00C0      		rjmp .L57
 1801               	.L60:
 193:lp_solve_5.5/lp_scale.c ****       i++, value += matValueStep, rownr += matRowColStep, colnr += matRowColStep) {
 194:lp_solve_5.5/lp_scale.c ****     absvalue=fabs(*value);
 1802               		.loc 1 194 0
 1803 0bd4 8DA1      		ldd r24,Y+37
 1804 0bd6 9EA1      		ldd r25,Y+38
 1805 0bd8 FC01      		movw r30,r24
 1806 0bda 8081      		ld r24,Z
 1807 0bdc 9181      		ldd r25,Z+1
 1808 0bde A281      		ldd r26,Z+2
 1809 0be0 B381      		ldd r27,Z+3
 1810 0be2 BF77      		andi r27,0x7f
 1811 0be4 8F8F      		std Y+31,r24
 1812 0be6 98A3      		std Y+32,r25
 1813 0be8 A9A3      		std Y+33,r26
 1814 0bea BAA3      		std Y+34,r27
 195:lp_solve_5.5/lp_scale.c ****     if(absvalue>0) {
 1815               		.loc 1 195 0
 1816 0bec 20E0      		ldi r18,0
 1817 0bee 30E0      		ldi r19,0
 1818 0bf0 A901      		movw r20,r18
 1819 0bf2 6F8D      		ldd r22,Y+31
 1820 0bf4 78A1      		ldd r23,Y+32
 1821 0bf6 89A1      		ldd r24,Y+33
 1822 0bf8 9AA1      		ldd r25,Y+34
 1823 0bfa 0E94 0000 		call __gtsf2
 1824 0bfe 1816      		cp __zero_reg__,r24
 1825 0c00 04F0      		brlt .+2
 1826 0c02 00C0      		rjmp .L58
 196:lp_solve_5.5/lp_scale.c ****       logvalue = log(absvalue);
 1827               		.loc 1 196 0
 1828 0c04 8F8D      		ldd r24,Y+31
 1829 0c06 98A1      		ldd r25,Y+32
 1830 0c08 A9A1      		ldd r26,Y+33
 1831 0c0a BAA1      		ldd r27,Y+34
 1832 0c0c BC01      		movw r22,r24
 1833 0c0e CD01      		movw r24,r26
 1834 0c10 0E94 0000 		call log
 1835 0c14 DC01      		movw r26,r24
 1836 0c16 CB01      		movw r24,r22
 1837 0c18 89AB      		std Y+49,r24
 1838 0c1a 9AAB      		std Y+50,r25
 1839 0c1c ABAB      		std Y+51,r26
 1840 0c1e BCAB      		std Y+52,r27
 197:lp_solve_5.5/lp_scale.c ****       ColSum[*colnr] += logvalue;
 1841               		.loc 1 197 0
 1842 0c20 CE01      		movw r24,r28
 1843 0c22 8F5A      		subi r24,-81
 1844 0c24 9F4F      		sbci r25,-1
 1845 0c26 DC01      		movw r26,r24
 1846 0c28 2D91      		ld r18,X+
 1847 0c2a 3C91      		ld r19,X
 1848 0c2c 89A5      		ldd r24,Y+41
 1849 0c2e 9AA5      		ldd r25,Y+42
 1850 0c30 FC01      		movw r30,r24
 1851 0c32 8081      		ld r24,Z
 1852 0c34 9181      		ldd r25,Z+1
 1853 0c36 880F      		lsl r24
 1854 0c38 991F      		rol r25
 1855 0c3a 880F      		lsl r24
 1856 0c3c 991F      		rol r25
 1857 0c3e 8901      		movw r16,r18
 1858 0c40 080F      		add r16,r24
 1859 0c42 191F      		adc r17,r25
 1860 0c44 CE01      		movw r24,r28
 1861 0c46 8F5A      		subi r24,-81
 1862 0c48 9F4F      		sbci r25,-1
 1863 0c4a DC01      		movw r26,r24
 1864 0c4c 2D91      		ld r18,X+
 1865 0c4e 3C91      		ld r19,X
 1866 0c50 89A5      		ldd r24,Y+41
 1867 0c52 9AA5      		ldd r25,Y+42
 1868 0c54 FC01      		movw r30,r24
 1869 0c56 8081      		ld r24,Z
 1870 0c58 9181      		ldd r25,Z+1
 1871 0c5a 880F      		lsl r24
 1872 0c5c 991F      		rol r25
 1873 0c5e 880F      		lsl r24
 1874 0c60 991F      		rol r25
 1875 0c62 820F      		add r24,r18
 1876 0c64 931F      		adc r25,r19
 1877 0c66 FC01      		movw r30,r24
 1878 0c68 8081      		ld r24,Z
 1879 0c6a 9181      		ldd r25,Z+1
 1880 0c6c A281      		ldd r26,Z+2
 1881 0c6e B381      		ldd r27,Z+3
 1882 0c70 29A9      		ldd r18,Y+49
 1883 0c72 3AA9      		ldd r19,Y+50
 1884 0c74 4BA9      		ldd r20,Y+51
 1885 0c76 5CA9      		ldd r21,Y+52
 1886 0c78 BC01      		movw r22,r24
 1887 0c7a CD01      		movw r24,r26
 1888 0c7c 0E94 0000 		call __addsf3
 1889 0c80 DC01      		movw r26,r24
 1890 0c82 CB01      		movw r24,r22
 1891 0c84 F801      		movw r30,r16
 1892 0c86 8083      		st Z,r24
 1893 0c88 9183      		std Z+1,r25
 1894 0c8a A283      		std Z+2,r26
 1895 0c8c B383      		std Z+3,r27
 198:lp_solve_5.5/lp_scale.c ****       RowSum[*rownr] += logvalue;
 1896               		.loc 1 198 0
 1897 0c8e CE01      		movw r24,r28
 1898 0c90 815B      		subi r24,-79
 1899 0c92 9F4F      		sbci r25,-1
 1900 0c94 DC01      		movw r26,r24
 1901 0c96 2D91      		ld r18,X+
 1902 0c98 3C91      		ld r19,X
 1903 0c9a 8FA1      		ldd r24,Y+39
 1904 0c9c 98A5      		ldd r25,Y+40
 1905 0c9e FC01      		movw r30,r24
 1906 0ca0 8081      		ld r24,Z
 1907 0ca2 9181      		ldd r25,Z+1
 1908 0ca4 880F      		lsl r24
 1909 0ca6 991F      		rol r25
 1910 0ca8 880F      		lsl r24
 1911 0caa 991F      		rol r25
 1912 0cac 8901      		movw r16,r18
 1913 0cae 080F      		add r16,r24
 1914 0cb0 191F      		adc r17,r25
 1915 0cb2 CE01      		movw r24,r28
 1916 0cb4 815B      		subi r24,-79
 1917 0cb6 9F4F      		sbci r25,-1
 1918 0cb8 DC01      		movw r26,r24
 1919 0cba 2D91      		ld r18,X+
 1920 0cbc 3C91      		ld r19,X
 1921 0cbe 8FA1      		ldd r24,Y+39
 1922 0cc0 98A5      		ldd r25,Y+40
 1923 0cc2 FC01      		movw r30,r24
 1924 0cc4 8081      		ld r24,Z
 1925 0cc6 9181      		ldd r25,Z+1
 1926 0cc8 880F      		lsl r24
 1927 0cca 991F      		rol r25
 1928 0ccc 880F      		lsl r24
 1929 0cce 991F      		rol r25
 1930 0cd0 820F      		add r24,r18
 1931 0cd2 931F      		adc r25,r19
 1932 0cd4 FC01      		movw r30,r24
 1933 0cd6 8081      		ld r24,Z
 1934 0cd8 9181      		ldd r25,Z+1
 1935 0cda A281      		ldd r26,Z+2
 1936 0cdc B381      		ldd r27,Z+3
 1937 0cde 29A9      		ldd r18,Y+49
 1938 0ce0 3AA9      		ldd r19,Y+50
 1939 0ce2 4BA9      		ldd r20,Y+51
 1940 0ce4 5CA9      		ldd r21,Y+52
 1941 0ce6 BC01      		movw r22,r24
 1942 0ce8 CD01      		movw r24,r26
 1943 0cea 0E94 0000 		call __addsf3
 1944 0cee DC01      		movw r26,r24
 1945 0cf0 CB01      		movw r24,r22
 1946 0cf2 F801      		movw r30,r16
 1947 0cf4 8083      		st Z,r24
 1948 0cf6 9183      		std Z+1,r25
 1949 0cf8 A283      		std Z+2,r26
 1950 0cfa B383      		std Z+3,r27
 199:lp_solve_5.5/lp_scale.c ****       ColCount[*colnr]++;
 1951               		.loc 1 199 0
 1952 0cfc CE01      		movw r24,r28
 1953 0cfe 875A      		subi r24,-89
 1954 0d00 9F4F      		sbci r25,-1
 1955 0d02 DC01      		movw r26,r24
 1956 0d04 2D91      		ld r18,X+
 1957 0d06 3C91      		ld r19,X
 1958 0d08 89A5      		ldd r24,Y+41
 1959 0d0a 9AA5      		ldd r25,Y+42
 1960 0d0c FC01      		movw r30,r24
 1961 0d0e 8081      		ld r24,Z
 1962 0d10 9181      		ldd r25,Z+1
 1963 0d12 880F      		lsl r24
 1964 0d14 991F      		rol r25
 1965 0d16 820F      		add r24,r18
 1966 0d18 931F      		adc r25,r19
 1967 0d1a DC01      		movw r26,r24
 1968 0d1c 2D91      		ld r18,X+
 1969 0d1e 3C91      		ld r19,X
 1970 0d20 2F5F      		subi r18,-1
 1971 0d22 3F4F      		sbci r19,-1
 1972 0d24 FC01      		movw r30,r24
 1973 0d26 3183      		std Z+1,r19
 1974 0d28 2083      		st Z,r18
 200:lp_solve_5.5/lp_scale.c ****       RowCount[*rownr]++;
 1975               		.loc 1 200 0
 1976 0d2a CE01      		movw r24,r28
 1977 0d2c 895A      		subi r24,-87
 1978 0d2e 9F4F      		sbci r25,-1
 1979 0d30 DC01      		movw r26,r24
 1980 0d32 2D91      		ld r18,X+
 1981 0d34 3C91      		ld r19,X
 1982 0d36 8FA1      		ldd r24,Y+39
 1983 0d38 98A5      		ldd r25,Y+40
 1984 0d3a FC01      		movw r30,r24
 1985 0d3c 8081      		ld r24,Z
 1986 0d3e 9181      		ldd r25,Z+1
 1987 0d40 880F      		lsl r24
 1988 0d42 991F      		rol r25
 1989 0d44 820F      		add r24,r18
 1990 0d46 931F      		adc r25,r19
 1991 0d48 DC01      		movw r26,r24
 1992 0d4a 2D91      		ld r18,X+
 1993 0d4c 3C91      		ld r19,X
 1994 0d4e 2F5F      		subi r18,-1
 1995 0d50 3F4F      		sbci r19,-1
 1996 0d52 FC01      		movw r30,r24
 1997 0d54 3183      		std Z+1,r19
 1998 0d56 2083      		st Z,r18
 1999               	.L58:
 193:lp_solve_5.5/lp_scale.c ****     absvalue=fabs(*value);
 2000               		.loc 1 193 0
 2001 0d58 8981      		ldd r24,Y+1
 2002 0d5a 9A81      		ldd r25,Y+2
 2003 0d5c 0196      		adiw r24,1
 2004 0d5e 9A83      		std Y+2,r25
 2005 0d60 8983      		std Y+1,r24
 2006 0d62 8DA1      		ldd r24,Y+37
 2007 0d64 9EA1      		ldd r25,Y+38
 2008 0d66 0496      		adiw r24,4
 2009 0d68 9EA3      		std Y+38,r25
 2010 0d6a 8DA3      		std Y+37,r24
 2011 0d6c 8FA1      		ldd r24,Y+39
 2012 0d6e 98A5      		ldd r25,Y+40
 2013 0d70 0296      		adiw r24,2
 2014 0d72 98A7      		std Y+40,r25
 2015 0d74 8FA3      		std Y+39,r24
 2016 0d76 89A5      		ldd r24,Y+41
 2017 0d78 9AA5      		ldd r25,Y+42
 2018 0d7a 0296      		adiw r24,2
 2019 0d7c 9AA7      		std Y+42,r25
 2020 0d7e 89A7      		std Y+41,r24
 2021               	.L57:
 192:lp_solve_5.5/lp_scale.c ****       i++, value += matValueStep, rownr += matRowColStep, colnr += matRowColStep) {
 2022               		.loc 1 192 0 discriminator 1
 2023 0d80 2981      		ldd r18,Y+1
 2024 0d82 3A81      		ldd r19,Y+2
 2025 0d84 8DA5      		ldd r24,Y+45
 2026 0d86 9EA5      		ldd r25,Y+46
 2027 0d88 2817      		cp r18,r24
 2028 0d8a 3907      		cpc r19,r25
 2029 0d8c 04F4      		brge .+2
 2030 0d8e 00C0      		rjmp .L60
 201:lp_solve_5.5/lp_scale.c ****     }
 202:lp_solve_5.5/lp_scale.c ****   }
 203:lp_solve_5.5/lp_scale.c **** 
 204:lp_solve_5.5/lp_scale.c ****   /* Make sure we dont't have division by zero errors */
 205:lp_solve_5.5/lp_scale.c ****   for(row = 0; row <= lp->rows; row++)
 2031               		.loc 1 205 0
 2032 0d90 1C82      		std Y+4,__zero_reg__
 2033 0d92 1B82      		std Y+3,__zero_reg__
 2034 0d94 00C0      		rjmp .L61
 2035               	.L63:
 206:lp_solve_5.5/lp_scale.c ****     if(RowCount[row] == 0)
 2036               		.loc 1 206 0
 2037 0d96 CE01      		movw r24,r28
 2038 0d98 895A      		subi r24,-87
 2039 0d9a 9F4F      		sbci r25,-1
 2040 0d9c DC01      		movw r26,r24
 2041 0d9e 2D91      		ld r18,X+
 2042 0da0 3C91      		ld r19,X
 2043 0da2 8B81      		ldd r24,Y+3
 2044 0da4 9C81      		ldd r25,Y+4
 2045 0da6 880F      		lsl r24
 2046 0da8 991F      		rol r25
 2047 0daa 820F      		add r24,r18
 2048 0dac 931F      		adc r25,r19
 2049 0dae FC01      		movw r30,r24
 2050 0db0 8081      		ld r24,Z
 2051 0db2 9181      		ldd r25,Z+1
 2052 0db4 892B      		or r24,r25
 2053 0db6 01F4      		brne .L62
 207:lp_solve_5.5/lp_scale.c ****       RowCount[row] = 1;
 2054               		.loc 1 207 0
 2055 0db8 CE01      		movw r24,r28
 2056 0dba 895A      		subi r24,-87
 2057 0dbc 9F4F      		sbci r25,-1
 2058 0dbe DC01      		movw r26,r24
 2059 0dc0 2D91      		ld r18,X+
 2060 0dc2 3C91      		ld r19,X
 2061 0dc4 8B81      		ldd r24,Y+3
 2062 0dc6 9C81      		ldd r25,Y+4
 2063 0dc8 880F      		lsl r24
 2064 0dca 991F      		rol r25
 2065 0dcc 820F      		add r24,r18
 2066 0dce 931F      		adc r25,r19
 2067 0dd0 21E0      		ldi r18,lo8(1)
 2068 0dd2 30E0      		ldi r19,0
 2069 0dd4 FC01      		movw r30,r24
 2070 0dd6 3183      		std Z+1,r19
 2071 0dd8 2083      		st Z,r18
 2072               	.L62:
 205:lp_solve_5.5/lp_scale.c ****     if(RowCount[row] == 0)
 2073               		.loc 1 205 0 discriminator 2
 2074 0dda 8B81      		ldd r24,Y+3
 2075 0ddc 9C81      		ldd r25,Y+4
 2076 0dde 0196      		adiw r24,1
 2077 0de0 9C83      		std Y+4,r25
 2078 0de2 8B83      		std Y+3,r24
 2079               	.L61:
 205:lp_solve_5.5/lp_scale.c ****     if(RowCount[row] == 0)
 2080               		.loc 1 205 0 is_stmt 0 discriminator 1
 2081 0de4 CE01      		movw r24,r28
 2082 0de6 855A      		subi r24,-91
 2083 0de8 9F4F      		sbci r25,-1
 2084 0dea DC01      		movw r26,r24
 2085 0dec 8D91      		ld r24,X+
 2086 0dee 9C91      		ld r25,X
 2087 0df0 8651      		subi r24,22
 2088 0df2 9E4F      		sbci r25,-2
 2089 0df4 FC01      		movw r30,r24
 2090 0df6 2081      		ld r18,Z
 2091 0df8 3181      		ldd r19,Z+1
 2092 0dfa 8B81      		ldd r24,Y+3
 2093 0dfc 9C81      		ldd r25,Y+4
 2094 0dfe 2817      		cp r18,r24
 2095 0e00 3907      		cpc r19,r25
 2096 0e02 04F4      		brge .L63
 208:lp_solve_5.5/lp_scale.c ****   for(col = 1; col <= colMax; col++)
 2097               		.loc 1 208 0 is_stmt 1
 2098 0e04 81E0      		ldi r24,lo8(1)
 2099 0e06 90E0      		ldi r25,0
 2100 0e08 9E83      		std Y+6,r25
 2101 0e0a 8D83      		std Y+5,r24
 2102 0e0c 00C0      		rjmp .L64
 2103               	.L66:
 209:lp_solve_5.5/lp_scale.c ****     if(ColCount[col] == 0)
 2104               		.loc 1 209 0
 2105 0e0e CE01      		movw r24,r28
 2106 0e10 875A      		subi r24,-89
 2107 0e12 9F4F      		sbci r25,-1
 2108 0e14 DC01      		movw r26,r24
 2109 0e16 2D91      		ld r18,X+
 2110 0e18 3C91      		ld r19,X
 2111 0e1a 8D81      		ldd r24,Y+5
 2112 0e1c 9E81      		ldd r25,Y+6
 2113 0e1e 880F      		lsl r24
 2114 0e20 991F      		rol r25
 2115 0e22 820F      		add r24,r18
 2116 0e24 931F      		adc r25,r19
 2117 0e26 FC01      		movw r30,r24
 2118 0e28 8081      		ld r24,Z
 2119 0e2a 9181      		ldd r25,Z+1
 2120 0e2c 892B      		or r24,r25
 2121 0e2e 01F4      		brne .L65
 210:lp_solve_5.5/lp_scale.c ****       ColCount[col] = 1;
 2122               		.loc 1 210 0
 2123 0e30 CE01      		movw r24,r28
 2124 0e32 875A      		subi r24,-89
 2125 0e34 9F4F      		sbci r25,-1
 2126 0e36 DC01      		movw r26,r24
 2127 0e38 2D91      		ld r18,X+
 2128 0e3a 3C91      		ld r19,X
 2129 0e3c 8D81      		ldd r24,Y+5
 2130 0e3e 9E81      		ldd r25,Y+6
 2131 0e40 880F      		lsl r24
 2132 0e42 991F      		rol r25
 2133 0e44 820F      		add r24,r18
 2134 0e46 931F      		adc r25,r19
 2135 0e48 21E0      		ldi r18,lo8(1)
 2136 0e4a 30E0      		ldi r19,0
 2137 0e4c FC01      		movw r30,r24
 2138 0e4e 3183      		std Z+1,r19
 2139 0e50 2083      		st Z,r18
 2140               	.L65:
 208:lp_solve_5.5/lp_scale.c ****   for(col = 1; col <= colMax; col++)
 2141               		.loc 1 208 0 discriminator 2
 2142 0e52 8D81      		ldd r24,Y+5
 2143 0e54 9E81      		ldd r25,Y+6
 2144 0e56 0196      		adiw r24,1
 2145 0e58 9E83      		std Y+6,r25
 2146 0e5a 8D83      		std Y+5,r24
 2147               	.L64:
 208:lp_solve_5.5/lp_scale.c ****   for(col = 1; col <= colMax; col++)
 2148               		.loc 1 208 0 is_stmt 0 discriminator 1
 2149 0e5c 2D81      		ldd r18,Y+5
 2150 0e5e 3E81      		ldd r19,Y+6
 2151 0e60 8FA5      		ldd r24,Y+47
 2152 0e62 98A9      		ldd r25,Y+48
 2153 0e64 8217      		cp r24,r18
 2154 0e66 9307      		cpc r25,r19
 2155 0e68 04F4      		brge .L66
 211:lp_solve_5.5/lp_scale.c **** 
 212:lp_solve_5.5/lp_scale.c ****   /* Initialize to RowScale = RowCount-1 RowSum
 213:lp_solve_5.5/lp_scale.c ****                    ColScale = 0.0
 214:lp_solve_5.5/lp_scale.c ****                    residual = ColSum - ET RowCount-1 RowSum */
 215:lp_solve_5.5/lp_scale.c **** 
 216:lp_solve_5.5/lp_scale.c ****   StopTolerance= MAX(lp->scalelimit-floor(lp->scalelimit), DEF_SCALINGEPS);
 2156               		.loc 1 216 0 is_stmt 1
 2157 0e6a CE01      		movw r24,r28
 2158 0e6c 855A      		subi r24,-91
 2159 0e6e 9F4F      		sbci r25,-1
 2160 0e70 DC01      		movw r26,r24
 2161 0e72 8D91      		ld r24,X+
 2162 0e74 9C91      		ld r25,X
 2163 0e76 8659      		subi r24,-106
 2164 0e78 9D4F      		sbci r25,-3
 2165 0e7a FC01      		movw r30,r24
 2166 0e7c C080      		ld r12,Z
 2167 0e7e D180      		ldd r13,Z+1
 2168 0e80 E280      		ldd r14,Z+2
 2169 0e82 F380      		ldd r15,Z+3
 2170 0e84 CE01      		movw r24,r28
 2171 0e86 855A      		subi r24,-91
 2172 0e88 9F4F      		sbci r25,-1
 2173 0e8a DC01      		movw r26,r24
 2174 0e8c 8D91      		ld r24,X+
 2175 0e8e 9C91      		ld r25,X
 2176 0e90 8659      		subi r24,-106
 2177 0e92 9D4F      		sbci r25,-3
 2178 0e94 FC01      		movw r30,r24
 2179 0e96 8081      		ld r24,Z
 2180 0e98 9181      		ldd r25,Z+1
 2181 0e9a A281      		ldd r26,Z+2
 2182 0e9c B381      		ldd r27,Z+3
 2183 0e9e BC01      		movw r22,r24
 2184 0ea0 CD01      		movw r24,r26
 2185 0ea2 0E94 0000 		call floor
 2186 0ea6 DC01      		movw r26,r24
 2187 0ea8 CB01      		movw r24,r22
 2188 0eaa 9C01      		movw r18,r24
 2189 0eac AD01      		movw r20,r26
 2190 0eae C701      		movw r24,r14
 2191 0eb0 B601      		movw r22,r12
 2192 0eb2 0E94 0000 		call __subsf3
 2193 0eb6 DC01      		movw r26,r24
 2194 0eb8 CB01      		movw r24,r22
 2195 0eba 2AE0      		ldi r18,lo8(10)
 2196 0ebc 37ED      		ldi r19,lo8(-41)
 2197 0ebe 43E2      		ldi r20,lo8(35)
 2198 0ec0 5CE3      		ldi r21,lo8(60)
 2199 0ec2 BC01      		movw r22,r24
 2200 0ec4 CD01      		movw r24,r26
 2201 0ec6 0E94 0000 		call __gtsf2
 2202 0eca 1816      		cp __zero_reg__,r24
 2203 0ecc 04F4      		brge .L175
 2204               		.loc 1 216 0 is_stmt 0 discriminator 1
 2205 0ece CE01      		movw r24,r28
 2206 0ed0 855A      		subi r24,-91
 2207 0ed2 9F4F      		sbci r25,-1
 2208 0ed4 DC01      		movw r26,r24
 2209 0ed6 8D91      		ld r24,X+
 2210 0ed8 9C91      		ld r25,X
 2211 0eda 8659      		subi r24,-106
 2212 0edc 9D4F      		sbci r25,-3
 2213 0ede FC01      		movw r30,r24
 2214 0ee0 C080      		ld r12,Z
 2215 0ee2 D180      		ldd r13,Z+1
 2216 0ee4 E280      		ldd r14,Z+2
 2217 0ee6 F380      		ldd r15,Z+3
 2218 0ee8 CE01      		movw r24,r28
 2219 0eea 855A      		subi r24,-91
 2220 0eec 9F4F      		sbci r25,-1
 2221 0eee DC01      		movw r26,r24
 2222 0ef0 8D91      		ld r24,X+
 2223 0ef2 9C91      		ld r25,X
 2224 0ef4 8659      		subi r24,-106
 2225 0ef6 9D4F      		sbci r25,-3
 2226 0ef8 FC01      		movw r30,r24
 2227 0efa 8081      		ld r24,Z
 2228 0efc 9181      		ldd r25,Z+1
 2229 0efe A281      		ldd r26,Z+2
 2230 0f00 B381      		ldd r27,Z+3
 2231 0f02 BC01      		movw r22,r24
 2232 0f04 CD01      		movw r24,r26
 2233 0f06 0E94 0000 		call floor
 2234 0f0a DC01      		movw r26,r24
 2235 0f0c CB01      		movw r24,r22
 2236 0f0e 9C01      		movw r18,r24
 2237 0f10 AD01      		movw r20,r26
 2238 0f12 C701      		movw r24,r14
 2239 0f14 B601      		movw r22,r12
 2240 0f16 0E94 0000 		call __subsf3
 2241 0f1a DC01      		movw r26,r24
 2242 0f1c CB01      		movw r24,r22
 2243 0f1e 00C0      		rjmp .L69
 2244               	.L175:
 2245               		.loc 1 216 0 discriminator 2
 2246 0f20 8AE0      		ldi r24,lo8(10)
 2247 0f22 97ED      		ldi r25,lo8(-41)
 2248 0f24 A3E2      		ldi r26,lo8(35)
 2249 0f26 BCE3      		ldi r27,lo8(60)
 2250               	.L69:
 2251               		.loc 1 216 0 discriminator 4
 2252 0f28 8DAB      		std Y+53,r24
 2253 0f2a 9EAB      		std Y+54,r25
 2254 0f2c AFAB      		std Y+55,r26
 2255 0f2e B8AF      		std Y+56,r27
 217:lp_solve_5.5/lp_scale.c ****   StopTolerance *= (REAL) nz;
 2256               		.loc 1 217 0 is_stmt 1 discriminator 4
 2257 0f30 8DA5      		ldd r24,Y+45
 2258 0f32 9EA5      		ldd r25,Y+46
 2259 0f34 092E      		mov __tmp_reg__,r25
 2260 0f36 000C      		lsl r0
 2261 0f38 AA0B      		sbc r26,r26
 2262 0f3a BB0B      		sbc r27,r27
 2263 0f3c BC01      		movw r22,r24
 2264 0f3e CD01      		movw r24,r26
 2265 0f40 0E94 0000 		call __floatsisf
 2266 0f44 DC01      		movw r26,r24
 2267 0f46 CB01      		movw r24,r22
 2268 0f48 9C01      		movw r18,r24
 2269 0f4a AD01      		movw r20,r26
 2270 0f4c 6DA9      		ldd r22,Y+53
 2271 0f4e 7EA9      		ldd r23,Y+54
 2272 0f50 8FA9      		ldd r24,Y+55
 2273 0f52 98AD      		ldd r25,Y+56
 2274 0f54 0E94 0000 		call __mulsf3
 2275 0f58 DC01      		movw r26,r24
 2276 0f5a CB01      		movw r24,r22
 2277 0f5c 8DAB      		std Y+53,r24
 2278 0f5e 9EAB      		std Y+54,r25
 2279 0f60 AFAB      		std Y+55,r26
 2280 0f62 B8AF      		std Y+56,r27
 218:lp_solve_5.5/lp_scale.c ****   for(row = 0; row <= lp->rows; row++) {
 2281               		.loc 1 218 0 discriminator 4
 2282 0f64 1C82      		std Y+4,__zero_reg__
 2283 0f66 1B82      		std Y+3,__zero_reg__
 2284 0f68 00C0      		rjmp .L70
 2285               	.L71:
 219:lp_solve_5.5/lp_scale.c ****     FRowScale[row] = RowSum[row] / (REAL) RowCount[row];
 2286               		.loc 1 219 0 discriminator 3
 2287 0f6a 8B81      		ldd r24,Y+3
 2288 0f6c 9C81      		ldd r25,Y+4
 2289 0f6e 880F      		lsl r24
 2290 0f70 991F      		rol r25
 2291 0f72 880F      		lsl r24
 2292 0f74 991F      		rol r25
 2293 0f76 9E01      		movw r18,r28
 2294 0f78 225A      		subi r18,-94
 2295 0f7a 3F4F      		sbci r19,-1
 2296 0f7c D901      		movw r26,r18
 2297 0f7e 2D91      		ld r18,X+
 2298 0f80 3C91      		ld r19,X
 2299 0f82 8901      		movw r16,r18
 2300 0f84 080F      		add r16,r24
 2301 0f86 191F      		adc r17,r25
 2302 0f88 CE01      		movw r24,r28
 2303 0f8a 815B      		subi r24,-79
 2304 0f8c 9F4F      		sbci r25,-1
 2305 0f8e FC01      		movw r30,r24
 2306 0f90 2081      		ld r18,Z
 2307 0f92 3181      		ldd r19,Z+1
 2308 0f94 8B81      		ldd r24,Y+3
 2309 0f96 9C81      		ldd r25,Y+4
 2310 0f98 880F      		lsl r24
 2311 0f9a 991F      		rol r25
 2312 0f9c 880F      		lsl r24
 2313 0f9e 991F      		rol r25
 2314 0fa0 820F      		add r24,r18
 2315 0fa2 931F      		adc r25,r19
 2316 0fa4 DC01      		movw r26,r24
 2317 0fa6 CD90      		ld r12,X+
 2318 0fa8 DD90      		ld r13,X+
 2319 0faa ED90      		ld r14,X+
 2320 0fac FC90      		ld r15,X
 2321 0fae CE01      		movw r24,r28
 2322 0fb0 895A      		subi r24,-87
 2323 0fb2 9F4F      		sbci r25,-1
 2324 0fb4 FC01      		movw r30,r24
 2325 0fb6 2081      		ld r18,Z
 2326 0fb8 3181      		ldd r19,Z+1
 2327 0fba 8B81      		ldd r24,Y+3
 2328 0fbc 9C81      		ldd r25,Y+4
 2329 0fbe 880F      		lsl r24
 2330 0fc0 991F      		rol r25
 2331 0fc2 820F      		add r24,r18
 2332 0fc4 931F      		adc r25,r19
 2333 0fc6 DC01      		movw r26,r24
 2334 0fc8 8D91      		ld r24,X+
 2335 0fca 9C91      		ld r25,X
 2336 0fcc 092E      		mov __tmp_reg__,r25
 2337 0fce 000C      		lsl r0
 2338 0fd0 AA0B      		sbc r26,r26
 2339 0fd2 BB0B      		sbc r27,r27
 2340 0fd4 BC01      		movw r22,r24
 2341 0fd6 CD01      		movw r24,r26
 2342 0fd8 0E94 0000 		call __floatsisf
 2343 0fdc DC01      		movw r26,r24
 2344 0fde CB01      		movw r24,r22
 2345 0fe0 9C01      		movw r18,r24
 2346 0fe2 AD01      		movw r20,r26
 2347 0fe4 C701      		movw r24,r14
 2348 0fe6 B601      		movw r22,r12
 2349 0fe8 0E94 0000 		call __divsf3
 2350 0fec DC01      		movw r26,r24
 2351 0fee CB01      		movw r24,r22
 2352 0ff0 F801      		movw r30,r16
 2353 0ff2 8083      		st Z,r24
 2354 0ff4 9183      		std Z+1,r25
 2355 0ff6 A283      		std Z+2,r26
 2356 0ff8 B383      		std Z+3,r27
 220:lp_solve_5.5/lp_scale.c ****     RowScalem2[row] = FRowScale[row];
 2357               		.loc 1 220 0 discriminator 3
 2358 0ffa CE01      		movw r24,r28
 2359 0ffc 855B      		subi r24,-75
 2360 0ffe 9F4F      		sbci r25,-1
 2361 1000 DC01      		movw r26,r24
 2362 1002 2D91      		ld r18,X+
 2363 1004 3C91      		ld r19,X
 2364 1006 8B81      		ldd r24,Y+3
 2365 1008 9C81      		ldd r25,Y+4
 2366 100a 880F      		lsl r24
 2367 100c 991F      		rol r25
 2368 100e 880F      		lsl r24
 2369 1010 991F      		rol r25
 2370 1012 280F      		add r18,r24
 2371 1014 391F      		adc r19,r25
 2372 1016 8B81      		ldd r24,Y+3
 2373 1018 9C81      		ldd r25,Y+4
 2374 101a 880F      		lsl r24
 2375 101c 991F      		rol r25
 2376 101e 880F      		lsl r24
 2377 1020 991F      		rol r25
 2378 1022 AE01      		movw r20,r28
 2379 1024 425A      		subi r20,-94
 2380 1026 5F4F      		sbci r21,-1
 2381 1028 FA01      		movw r30,r20
 2382 102a 4081      		ld r20,Z
 2383 102c 5181      		ldd r21,Z+1
 2384 102e 840F      		add r24,r20
 2385 1030 951F      		adc r25,r21
 2386 1032 FC01      		movw r30,r24
 2387 1034 8081      		ld r24,Z
 2388 1036 9181      		ldd r25,Z+1
 2389 1038 A281      		ldd r26,Z+2
 2390 103a B381      		ldd r27,Z+3
 2391 103c F901      		movw r30,r18
 2392 103e 8083      		st Z,r24
 2393 1040 9183      		std Z+1,r25
 2394 1042 A283      		std Z+2,r26
 2395 1044 B383      		std Z+3,r27
 218:lp_solve_5.5/lp_scale.c ****   for(row = 0; row <= lp->rows; row++) {
 2396               		.loc 1 218 0 discriminator 3
 2397 1046 8B81      		ldd r24,Y+3
 2398 1048 9C81      		ldd r25,Y+4
 2399 104a 0196      		adiw r24,1
 2400 104c 9C83      		std Y+4,r25
 2401 104e 8B83      		std Y+3,r24
 2402               	.L70:
 218:lp_solve_5.5/lp_scale.c ****   for(row = 0; row <= lp->rows; row++) {
 2403               		.loc 1 218 0 is_stmt 0 discriminator 1
 2404 1050 CE01      		movw r24,r28
 2405 1052 855A      		subi r24,-91
 2406 1054 9F4F      		sbci r25,-1
 2407 1056 DC01      		movw r26,r24
 2408 1058 8D91      		ld r24,X+
 2409 105a 9C91      		ld r25,X
 2410 105c 8651      		subi r24,22
 2411 105e 9E4F      		sbci r25,-2
 2412 1060 FC01      		movw r30,r24
 2413 1062 2081      		ld r18,Z
 2414 1064 3181      		ldd r19,Z+1
 2415 1066 8B81      		ldd r24,Y+3
 2416 1068 9C81      		ldd r25,Y+4
 2417 106a 2817      		cp r18,r24
 2418 106c 3907      		cpc r19,r25
 2419 106e 04F0      		brlt .+2
 2420 1070 00C0      		rjmp .L71
 221:lp_solve_5.5/lp_scale.c ****   }
 222:lp_solve_5.5/lp_scale.c **** 
 223:lp_solve_5.5/lp_scale.c ****   /* Compute initial residual */
 224:lp_solve_5.5/lp_scale.c ****   for(col = 1; col <= colMax; col++) {
 2421               		.loc 1 224 0 is_stmt 1
 2422 1072 81E0      		ldi r24,lo8(1)
 2423 1074 90E0      		ldi r25,0
 2424 1076 9E83      		std Y+6,r25
 2425 1078 8D83      		std Y+5,r24
 2426 107a 00C0      		rjmp .L72
 2427               	.L77:
 225:lp_solve_5.5/lp_scale.c ****     FColScale[col] = 0;
 2428               		.loc 1 225 0
 2429 107c 8D81      		ldd r24,Y+5
 2430 107e 9E81      		ldd r25,Y+6
 2431 1080 880F      		lsl r24
 2432 1082 991F      		rol r25
 2433 1084 880F      		lsl r24
 2434 1086 991F      		rol r25
 2435 1088 9E01      		movw r18,r28
 2436 108a 205A      		subi r18,-96
 2437 108c 3F4F      		sbci r19,-1
 2438 108e D901      		movw r26,r18
 2439 1090 2D91      		ld r18,X+
 2440 1092 3C91      		ld r19,X
 2441 1094 820F      		add r24,r18
 2442 1096 931F      		adc r25,r19
 2443 1098 FC01      		movw r30,r24
 2444 109a 1082      		st Z,__zero_reg__
 2445 109c 1182      		std Z+1,__zero_reg__
 2446 109e 1282      		std Z+2,__zero_reg__
 2447 10a0 1382      		std Z+3,__zero_reg__
 226:lp_solve_5.5/lp_scale.c ****     ColScalem2[col] = 0;
 2448               		.loc 1 226 0
 2449 10a2 CE01      		movw r24,r28
 2450 10a4 835B      		subi r24,-77
 2451 10a6 9F4F      		sbci r25,-1
 2452 10a8 DC01      		movw r26,r24
 2453 10aa 2D91      		ld r18,X+
 2454 10ac 3C91      		ld r19,X
 2455 10ae 8D81      		ldd r24,Y+5
 2456 10b0 9E81      		ldd r25,Y+6
 2457 10b2 880F      		lsl r24
 2458 10b4 991F      		rol r25
 2459 10b6 880F      		lsl r24
 2460 10b8 991F      		rol r25
 2461 10ba 820F      		add r24,r18
 2462 10bc 931F      		adc r25,r19
 2463 10be FC01      		movw r30,r24
 2464 10c0 1082      		st Z,__zero_reg__
 2465 10c2 1182      		std Z+1,__zero_reg__
 2466 10c4 1282      		std Z+2,__zero_reg__
 2467 10c6 1382      		std Z+3,__zero_reg__
 227:lp_solve_5.5/lp_scale.c ****     residual_even[col] = ColSum[col];
 2468               		.loc 1 227 0
 2469 10c8 CE01      		movw r24,r28
 2470 10ca 8D5A      		subi r24,-83
 2471 10cc 9F4F      		sbci r25,-1
 2472 10ce DC01      		movw r26,r24
 2473 10d0 2D91      		ld r18,X+
 2474 10d2 3C91      		ld r19,X
 2475 10d4 8D81      		ldd r24,Y+5
 2476 10d6 9E81      		ldd r25,Y+6
 2477 10d8 880F      		lsl r24
 2478 10da 991F      		rol r25
 2479 10dc 880F      		lsl r24
 2480 10de 991F      		rol r25
 2481 10e0 280F      		add r18,r24
 2482 10e2 391F      		adc r19,r25
 2483 10e4 CE01      		movw r24,r28
 2484 10e6 8F5A      		subi r24,-81
 2485 10e8 9F4F      		sbci r25,-1
 2486 10ea FC01      		movw r30,r24
 2487 10ec 4081      		ld r20,Z
 2488 10ee 5181      		ldd r21,Z+1
 2489 10f0 8D81      		ldd r24,Y+5
 2490 10f2 9E81      		ldd r25,Y+6
 2491 10f4 880F      		lsl r24
 2492 10f6 991F      		rol r25
 2493 10f8 880F      		lsl r24
 2494 10fa 991F      		rol r25
 2495 10fc 840F      		add r24,r20
 2496 10fe 951F      		adc r25,r21
 2497 1100 FC01      		movw r30,r24
 2498 1102 8081      		ld r24,Z
 2499 1104 9181      		ldd r25,Z+1
 2500 1106 A281      		ldd r26,Z+2
 2501 1108 B381      		ldd r27,Z+3
 2502 110a F901      		movw r30,r18
 2503 110c 8083      		st Z,r24
 2504 110e 9183      		std Z+1,r25
 2505 1110 A283      		std Z+2,r26
 2506 1112 B383      		std Z+3,r27
 228:lp_solve_5.5/lp_scale.c **** 
 229:lp_solve_5.5/lp_scale.c ****     if(lp->orig_obj[col] != 0)
 2507               		.loc 1 229 0
 2508 1114 CE01      		movw r24,r28
 2509 1116 855A      		subi r24,-91
 2510 1118 9F4F      		sbci r25,-1
 2511 111a DC01      		movw r26,r24
 2512 111c 8D91      		ld r24,X+
 2513 111e 9C91      		ld r25,X
 2514 1120 845D      		subi r24,-44
 2515 1122 9D4F      		sbci r25,-3
 2516 1124 FC01      		movw r30,r24
 2517 1126 2081      		ld r18,Z
 2518 1128 3181      		ldd r19,Z+1
 2519 112a 8D81      		ldd r24,Y+5
 2520 112c 9E81      		ldd r25,Y+6
 2521 112e 880F      		lsl r24
 2522 1130 991F      		rol r25
 2523 1132 880F      		lsl r24
 2524 1134 991F      		rol r25
 2525 1136 820F      		add r24,r18
 2526 1138 931F      		adc r25,r19
 2527 113a FC01      		movw r30,r24
 2528 113c 8081      		ld r24,Z
 2529 113e 9181      		ldd r25,Z+1
 2530 1140 A281      		ldd r26,Z+2
 2531 1142 B381      		ldd r27,Z+3
 2532 1144 20E0      		ldi r18,0
 2533 1146 30E0      		ldi r19,0
 2534 1148 A901      		movw r20,r18
 2535 114a BC01      		movw r22,r24
 2536 114c CD01      		movw r24,r26
 2537 114e 0E94 0000 		call __nesf2
 2538 1152 8823      		tst r24
 2539 1154 01F4      		brne .+2
 2540 1156 00C0      		rjmp .L73
 230:lp_solve_5.5/lp_scale.c ****       residual_even[col] -= RowSum[0] / (REAL) RowCount[0];
 2541               		.loc 1 230 0
 2542 1158 CE01      		movw r24,r28
 2543 115a 8D5A      		subi r24,-83
 2544 115c 9F4F      		sbci r25,-1
 2545 115e DC01      		movw r26,r24
 2546 1160 2D91      		ld r18,X+
 2547 1162 3C91      		ld r19,X
 2548 1164 8D81      		ldd r24,Y+5
 2549 1166 9E81      		ldd r25,Y+6
 2550 1168 880F      		lsl r24
 2551 116a 991F      		rol r25
 2552 116c 880F      		lsl r24
 2553 116e 991F      		rol r25
 2554 1170 8901      		movw r16,r18
 2555 1172 080F      		add r16,r24
 2556 1174 191F      		adc r17,r25
 2557 1176 CE01      		movw r24,r28
 2558 1178 8D5A      		subi r24,-83
 2559 117a 9F4F      		sbci r25,-1
 2560 117c FC01      		movw r30,r24
 2561 117e 2081      		ld r18,Z
 2562 1180 3181      		ldd r19,Z+1
 2563 1182 8D81      		ldd r24,Y+5
 2564 1184 9E81      		ldd r25,Y+6
 2565 1186 880F      		lsl r24
 2566 1188 991F      		rol r25
 2567 118a 880F      		lsl r24
 2568 118c 991F      		rol r25
 2569 118e 820F      		add r24,r18
 2570 1190 931F      		adc r25,r19
 2571 1192 DC01      		movw r26,r24
 2572 1194 CD90      		ld r12,X+
 2573 1196 DD90      		ld r13,X+
 2574 1198 ED90      		ld r14,X+
 2575 119a FC90      		ld r15,X
 2576 119c CE01      		movw r24,r28
 2577 119e 815B      		subi r24,-79
 2578 11a0 9F4F      		sbci r25,-1
 2579 11a2 FC01      		movw r30,r24
 2580 11a4 8081      		ld r24,Z
 2581 11a6 9181      		ldd r25,Z+1
 2582 11a8 DC01      		movw r26,r24
 2583 11aa 8D90      		ld r8,X+
 2584 11ac 9D90      		ld r9,X+
 2585 11ae AD90      		ld r10,X+
 2586 11b0 BC90      		ld r11,X
 2587 11b2 CE01      		movw r24,r28
 2588 11b4 895A      		subi r24,-87
 2589 11b6 9F4F      		sbci r25,-1
 2590 11b8 FC01      		movw r30,r24
 2591 11ba 8081      		ld r24,Z
 2592 11bc 9181      		ldd r25,Z+1
 2593 11be DC01      		movw r26,r24
 2594 11c0 8D91      		ld r24,X+
 2595 11c2 9C91      		ld r25,X
 2596 11c4 092E      		mov __tmp_reg__,r25
 2597 11c6 000C      		lsl r0
 2598 11c8 AA0B      		sbc r26,r26
 2599 11ca BB0B      		sbc r27,r27
 2600 11cc BC01      		movw r22,r24
 2601 11ce CD01      		movw r24,r26
 2602 11d0 0E94 0000 		call __floatsisf
 2603 11d4 DC01      		movw r26,r24
 2604 11d6 CB01      		movw r24,r22
 2605 11d8 9C01      		movw r18,r24
 2606 11da AD01      		movw r20,r26
 2607 11dc C501      		movw r24,r10
 2608 11de B401      		movw r22,r8
 2609 11e0 0E94 0000 		call __divsf3
 2610 11e4 DC01      		movw r26,r24
 2611 11e6 CB01      		movw r24,r22
 2612 11e8 9C01      		movw r18,r24
 2613 11ea AD01      		movw r20,r26
 2614 11ec C701      		movw r24,r14
 2615 11ee B601      		movw r22,r12
 2616 11f0 0E94 0000 		call __subsf3
 2617 11f4 DC01      		movw r26,r24
 2618 11f6 CB01      		movw r24,r22
 2619 11f8 F801      		movw r30,r16
 2620 11fa 8083      		st Z,r24
 2621 11fc 9183      		std Z+1,r25
 2622 11fe A283      		std Z+2,r26
 2623 1200 B383      		std Z+3,r27
 2624               	.L73:
 231:lp_solve_5.5/lp_scale.c **** 
 232:lp_solve_5.5/lp_scale.c ****     i = mat->col_end[col-1];
 2625               		.loc 1 232 0
 2626 1202 8BA5      		ldd r24,Y+43
 2627 1204 9CA5      		ldd r25,Y+44
 2628 1206 DC01      		movw r26,r24
 2629 1208 5296      		adiw r26,18
 2630 120a 2D91      		ld r18,X+
 2631 120c 3C91      		ld r19,X
 2632 120e 5397      		sbiw r26,18+1
 2633 1210 8D81      		ldd r24,Y+5
 2634 1212 9E81      		ldd r25,Y+6
 2635 1214 8150      		subi r24,1
 2636 1216 9048      		sbci r25,-128
 2637 1218 880F      		lsl r24
 2638 121a 991F      		rol r25
 2639 121c 820F      		add r24,r18
 2640 121e 931F      		adc r25,r19
 2641 1220 FC01      		movw r30,r24
 2642 1222 8081      		ld r24,Z
 2643 1224 9181      		ldd r25,Z+1
 2644 1226 9A83      		std Y+2,r25
 2645 1228 8983      		std Y+1,r24
 233:lp_solve_5.5/lp_scale.c ****     rownr = &(COL_MAT_ROWNR(i));
 2646               		.loc 1 233 0
 2647 122a 8BA5      		ldd r24,Y+43
 2648 122c 9CA5      		ldd r25,Y+44
 2649 122e DC01      		movw r26,r24
 2650 1230 1E96      		adiw r26,14
 2651 1232 2D91      		ld r18,X+
 2652 1234 3C91      		ld r19,X
 2653 1236 1F97      		sbiw r26,14+1
 2654 1238 8981      		ldd r24,Y+1
 2655 123a 9A81      		ldd r25,Y+2
 2656 123c 880F      		lsl r24
 2657 123e 991F      		rol r25
 2658 1240 820F      		add r24,r18
 2659 1242 931F      		adc r25,r19
 2660 1244 98A7      		std Y+40,r25
 2661 1246 8FA3      		std Y+39,r24
 234:lp_solve_5.5/lp_scale.c ****     ent = mat->col_end[col];
 2662               		.loc 1 234 0
 2663 1248 8BA5      		ldd r24,Y+43
 2664 124a 9CA5      		ldd r25,Y+44
 2665 124c FC01      		movw r30,r24
 2666 124e 2289      		ldd r18,Z+18
 2667 1250 3389      		ldd r19,Z+19
 2668 1252 8D81      		ldd r24,Y+5
 2669 1254 9E81      		ldd r25,Y+6
 2670 1256 880F      		lsl r24
 2671 1258 991F      		rol r25
 2672 125a 820F      		add r24,r18
 2673 125c 931F      		adc r25,r19
 2674 125e DC01      		movw r26,r24
 2675 1260 8D91      		ld r24,X+
 2676 1262 9C91      		ld r25,X
 2677 1264 9AAF      		std Y+58,r25
 2678 1266 89AF      		std Y+57,r24
 235:lp_solve_5.5/lp_scale.c ****     for(; i < ent;
 2679               		.loc 1 235 0
 2680 1268 00C0      		rjmp .L75
 2681               	.L76:
 236:lp_solve_5.5/lp_scale.c ****         i++, rownr += matRowColStep) {
 237:lp_solve_5.5/lp_scale.c ****       residual_even[col] -= RowSum[*rownr] / (REAL) RowCount[*rownr];
 2682               		.loc 1 237 0
 2683 126a CE01      		movw r24,r28
 2684 126c 8D5A      		subi r24,-83
 2685 126e 9F4F      		sbci r25,-1
 2686 1270 FC01      		movw r30,r24
 2687 1272 2081      		ld r18,Z
 2688 1274 3181      		ldd r19,Z+1
 2689 1276 8D81      		ldd r24,Y+5
 2690 1278 9E81      		ldd r25,Y+6
 2691 127a 880F      		lsl r24
 2692 127c 991F      		rol r25
 2693 127e 880F      		lsl r24
 2694 1280 991F      		rol r25
 2695 1282 8901      		movw r16,r18
 2696 1284 080F      		add r16,r24
 2697 1286 191F      		adc r17,r25
 2698 1288 CE01      		movw r24,r28
 2699 128a 8D5A      		subi r24,-83
 2700 128c 9F4F      		sbci r25,-1
 2701 128e DC01      		movw r26,r24
 2702 1290 2D91      		ld r18,X+
 2703 1292 3C91      		ld r19,X
 2704 1294 8D81      		ldd r24,Y+5
 2705 1296 9E81      		ldd r25,Y+6
 2706 1298 880F      		lsl r24
 2707 129a 991F      		rol r25
 2708 129c 880F      		lsl r24
 2709 129e 991F      		rol r25
 2710 12a0 820F      		add r24,r18
 2711 12a2 931F      		adc r25,r19
 2712 12a4 FC01      		movw r30,r24
 2713 12a6 C080      		ld r12,Z
 2714 12a8 D180      		ldd r13,Z+1
 2715 12aa E280      		ldd r14,Z+2
 2716 12ac F380      		ldd r15,Z+3
 2717 12ae CE01      		movw r24,r28
 2718 12b0 815B      		subi r24,-79
 2719 12b2 9F4F      		sbci r25,-1
 2720 12b4 DC01      		movw r26,r24
 2721 12b6 2D91      		ld r18,X+
 2722 12b8 3C91      		ld r19,X
 2723 12ba 8FA1      		ldd r24,Y+39
 2724 12bc 98A5      		ldd r25,Y+40
 2725 12be FC01      		movw r30,r24
 2726 12c0 8081      		ld r24,Z
 2727 12c2 9181      		ldd r25,Z+1
 2728 12c4 880F      		lsl r24
 2729 12c6 991F      		rol r25
 2730 12c8 880F      		lsl r24
 2731 12ca 991F      		rol r25
 2732 12cc 820F      		add r24,r18
 2733 12ce 931F      		adc r25,r19
 2734 12d0 DC01      		movw r26,r24
 2735 12d2 8D90      		ld r8,X+
 2736 12d4 9D90      		ld r9,X+
 2737 12d6 AD90      		ld r10,X+
 2738 12d8 BC90      		ld r11,X
 2739 12da CE01      		movw r24,r28
 2740 12dc 895A      		subi r24,-87
 2741 12de 9F4F      		sbci r25,-1
 2742 12e0 FC01      		movw r30,r24
 2743 12e2 2081      		ld r18,Z
 2744 12e4 3181      		ldd r19,Z+1
 2745 12e6 8FA1      		ldd r24,Y+39
 2746 12e8 98A5      		ldd r25,Y+40
 2747 12ea DC01      		movw r26,r24
 2748 12ec 8D91      		ld r24,X+
 2749 12ee 9C91      		ld r25,X
 2750 12f0 880F      		lsl r24
 2751 12f2 991F      		rol r25
 2752 12f4 820F      		add r24,r18
 2753 12f6 931F      		adc r25,r19
 2754 12f8 FC01      		movw r30,r24
 2755 12fa 8081      		ld r24,Z
 2756 12fc 9181      		ldd r25,Z+1
 2757 12fe 092E      		mov __tmp_reg__,r25
 2758 1300 000C      		lsl r0
 2759 1302 AA0B      		sbc r26,r26
 2760 1304 BB0B      		sbc r27,r27
 2761 1306 BC01      		movw r22,r24
 2762 1308 CD01      		movw r24,r26
 2763 130a 0E94 0000 		call __floatsisf
 2764 130e DC01      		movw r26,r24
 2765 1310 CB01      		movw r24,r22
 2766 1312 9C01      		movw r18,r24
 2767 1314 AD01      		movw r20,r26
 2768 1316 C501      		movw r24,r10
 2769 1318 B401      		movw r22,r8
 2770 131a 0E94 0000 		call __divsf3
 2771 131e DC01      		movw r26,r24
 2772 1320 CB01      		movw r24,r22
 2773 1322 9C01      		movw r18,r24
 2774 1324 AD01      		movw r20,r26
 2775 1326 C701      		movw r24,r14
 2776 1328 B601      		movw r22,r12
 2777 132a 0E94 0000 		call __subsf3
 2778 132e DC01      		movw r26,r24
 2779 1330 CB01      		movw r24,r22
 2780 1332 F801      		movw r30,r16
 2781 1334 8083      		st Z,r24
 2782 1336 9183      		std Z+1,r25
 2783 1338 A283      		std Z+2,r26
 2784 133a B383      		std Z+3,r27
 236:lp_solve_5.5/lp_scale.c ****         i++, rownr += matRowColStep) {
 2785               		.loc 1 236 0
 2786 133c 8981      		ldd r24,Y+1
 2787 133e 9A81      		ldd r25,Y+2
 2788 1340 0196      		adiw r24,1
 2789 1342 9A83      		std Y+2,r25
 2790 1344 8983      		std Y+1,r24
 2791 1346 8FA1      		ldd r24,Y+39
 2792 1348 98A5      		ldd r25,Y+40
 2793 134a 0296      		adiw r24,2
 2794 134c 98A7      		std Y+40,r25
 2795 134e 8FA3      		std Y+39,r24
 2796               	.L75:
 235:lp_solve_5.5/lp_scale.c ****     for(; i < ent;
 2797               		.loc 1 235 0
 2798 1350 2981      		ldd r18,Y+1
 2799 1352 3A81      		ldd r19,Y+2
 2800 1354 89AD      		ldd r24,Y+57
 2801 1356 9AAD      		ldd r25,Y+58
 2802 1358 2817      		cp r18,r24
 2803 135a 3907      		cpc r19,r25
 2804 135c 04F4      		brge .+2
 2805 135e 00C0      		rjmp .L76
 224:lp_solve_5.5/lp_scale.c ****     FColScale[col] = 0;
 2806               		.loc 1 224 0 discriminator 2
 2807 1360 8D81      		ldd r24,Y+5
 2808 1362 9E81      		ldd r25,Y+6
 2809 1364 0196      		adiw r24,1
 2810 1366 9E83      		std Y+6,r25
 2811 1368 8D83      		std Y+5,r24
 2812               	.L72:
 224:lp_solve_5.5/lp_scale.c ****     FColScale[col] = 0;
 2813               		.loc 1 224 0 is_stmt 0 discriminator 1
 2814 136a 2D81      		ldd r18,Y+5
 2815 136c 3E81      		ldd r19,Y+6
 2816 136e 8FA5      		ldd r24,Y+47
 2817 1370 98A9      		ldd r25,Y+48
 2818 1372 8217      		cp r24,r18
 2819 1374 9307      		cpc r25,r19
 2820 1376 04F0      		brlt .+2
 2821 1378 00C0      		rjmp .L77
 238:lp_solve_5.5/lp_scale.c ****     }
 239:lp_solve_5.5/lp_scale.c ****   }
 240:lp_solve_5.5/lp_scale.c **** 
 241:lp_solve_5.5/lp_scale.c ****   /* Compute sk */
 242:lp_solve_5.5/lp_scale.c ****   sk = 0;
 2822               		.loc 1 242 0 is_stmt 1
 2823 137a 1F82      		std Y+7,__zero_reg__
 2824 137c 1886      		std Y+8,__zero_reg__
 2825 137e 1986      		std Y+9,__zero_reg__
 2826 1380 1A86      		std Y+10,__zero_reg__
 243:lp_solve_5.5/lp_scale.c ****   skm1 = 0;
 2827               		.loc 1 243 0
 2828 1382 1B8A      		std Y+19,__zero_reg__
 2829 1384 1C8A      		std Y+20,__zero_reg__
 2830 1386 1D8A      		std Y+21,__zero_reg__
 2831 1388 1E8A      		std Y+22,__zero_reg__
 244:lp_solve_5.5/lp_scale.c ****   for(col = 1; col <= colMax; col++)
 2832               		.loc 1 244 0
 2833 138a 81E0      		ldi r24,lo8(1)
 2834 138c 90E0      		ldi r25,0
 2835 138e 9E83      		std Y+6,r25
 2836 1390 8D83      		std Y+5,r24
 2837 1392 00C0      		rjmp .L78
 2838               	.L79:
 245:lp_solve_5.5/lp_scale.c ****     sk += (residual_even[col]*residual_even[col]) / (REAL) ColCount[col];
 2839               		.loc 1 245 0 discriminator 3
 2840 1394 CE01      		movw r24,r28
 2841 1396 8D5A      		subi r24,-83
 2842 1398 9F4F      		sbci r25,-1
 2843 139a DC01      		movw r26,r24
 2844 139c 2D91      		ld r18,X+
 2845 139e 3C91      		ld r19,X
 2846 13a0 8D81      		ldd r24,Y+5
 2847 13a2 9E81      		ldd r25,Y+6
 2848 13a4 880F      		lsl r24
 2849 13a6 991F      		rol r25
 2850 13a8 880F      		lsl r24
 2851 13aa 991F      		rol r25
 2852 13ac 820F      		add r24,r18
 2853 13ae 931F      		adc r25,r19
 2854 13b0 FC01      		movw r30,r24
 2855 13b2 8081      		ld r24,Z
 2856 13b4 9181      		ldd r25,Z+1
 2857 13b6 A281      		ldd r26,Z+2
 2858 13b8 B381      		ldd r27,Z+3
 2859 13ba 9E01      		movw r18,r28
 2860 13bc 2D5A      		subi r18,-83
 2861 13be 3F4F      		sbci r19,-1
 2862 13c0 F901      		movw r30,r18
 2863 13c2 4081      		ld r20,Z
 2864 13c4 5181      		ldd r21,Z+1
 2865 13c6 2D81      		ldd r18,Y+5
 2866 13c8 3E81      		ldd r19,Y+6
 2867 13ca 220F      		lsl r18
 2868 13cc 331F      		rol r19
 2869 13ce 220F      		lsl r18
 2870 13d0 331F      		rol r19
 2871 13d2 240F      		add r18,r20
 2872 13d4 351F      		adc r19,r21
 2873 13d6 F901      		movw r30,r18
 2874 13d8 2081      		ld r18,Z
 2875 13da 3181      		ldd r19,Z+1
 2876 13dc 4281      		ldd r20,Z+2
 2877 13de 5381      		ldd r21,Z+3
 2878 13e0 BC01      		movw r22,r24
 2879 13e2 CD01      		movw r24,r26
 2880 13e4 0E94 0000 		call __mulsf3
 2881 13e8 DC01      		movw r26,r24
 2882 13ea CB01      		movw r24,r22
 2883 13ec 6C01      		movw r12,r24
 2884 13ee 7D01      		movw r14,r26
 2885 13f0 CE01      		movw r24,r28
 2886 13f2 875A      		subi r24,-89
 2887 13f4 9F4F      		sbci r25,-1
 2888 13f6 DC01      		movw r26,r24
 2889 13f8 2D91      		ld r18,X+
 2890 13fa 3C91      		ld r19,X
 2891 13fc 8D81      		ldd r24,Y+5
 2892 13fe 9E81      		ldd r25,Y+6
 2893 1400 880F      		lsl r24
 2894 1402 991F      		rol r25
 2895 1404 820F      		add r24,r18
 2896 1406 931F      		adc r25,r19
 2897 1408 FC01      		movw r30,r24
 2898 140a 8081      		ld r24,Z
 2899 140c 9181      		ldd r25,Z+1
 2900 140e 092E      		mov __tmp_reg__,r25
 2901 1410 000C      		lsl r0
 2902 1412 AA0B      		sbc r26,r26
 2903 1414 BB0B      		sbc r27,r27
 2904 1416 BC01      		movw r22,r24
 2905 1418 CD01      		movw r24,r26
 2906 141a 0E94 0000 		call __floatsisf
 2907 141e DC01      		movw r26,r24
 2908 1420 CB01      		movw r24,r22
 2909 1422 9C01      		movw r18,r24
 2910 1424 AD01      		movw r20,r26
 2911 1426 C701      		movw r24,r14
 2912 1428 B601      		movw r22,r12
 2913 142a 0E94 0000 		call __divsf3
 2914 142e DC01      		movw r26,r24
 2915 1430 CB01      		movw r24,r22
 2916 1432 9C01      		movw r18,r24
 2917 1434 AD01      		movw r20,r26
 2918 1436 6F81      		ldd r22,Y+7
 2919 1438 7885      		ldd r23,Y+8
 2920 143a 8985      		ldd r24,Y+9
 2921 143c 9A85      		ldd r25,Y+10
 2922 143e 0E94 0000 		call __addsf3
 2923 1442 DC01      		movw r26,r24
 2924 1444 CB01      		movw r24,r22
 2925 1446 8F83      		std Y+7,r24
 2926 1448 9887      		std Y+8,r25
 2927 144a A987      		std Y+9,r26
 2928 144c BA87      		std Y+10,r27
 244:lp_solve_5.5/lp_scale.c ****   for(col = 1; col <= colMax; col++)
 2929               		.loc 1 244 0 discriminator 3
 2930 144e 8D81      		ldd r24,Y+5
 2931 1450 9E81      		ldd r25,Y+6
 2932 1452 0196      		adiw r24,1
 2933 1454 9E83      		std Y+6,r25
 2934 1456 8D83      		std Y+5,r24
 2935               	.L78:
 244:lp_solve_5.5/lp_scale.c ****   for(col = 1; col <= colMax; col++)
 2936               		.loc 1 244 0 is_stmt 0 discriminator 1
 2937 1458 2D81      		ldd r18,Y+5
 2938 145a 3E81      		ldd r19,Y+6
 2939 145c 8FA5      		ldd r24,Y+47
 2940 145e 98A9      		ldd r25,Y+48
 2941 1460 8217      		cp r24,r18
 2942 1462 9307      		cpc r25,r19
 2943 1464 04F0      		brlt .+2
 2944 1466 00C0      		rjmp .L79
 246:lp_solve_5.5/lp_scale.c **** 
 247:lp_solve_5.5/lp_scale.c ****   Result = 0;
 2945               		.loc 1 247 0 is_stmt 1
 2946 1468 1CA2      		std Y+36,__zero_reg__
 2947 146a 1BA2      		std Y+35,__zero_reg__
 248:lp_solve_5.5/lp_scale.c ****   qk=1; qkm1=0; qkm2=0;
 2948               		.loc 1 248 0
 2949 146c 80E0      		ldi r24,0
 2950 146e 90E0      		ldi r25,0
 2951 1470 A0E8      		ldi r26,lo8(-128)
 2952 1472 BFE3      		ldi r27,lo8(63)
 2953 1474 8B87      		std Y+11,r24
 2954 1476 9C87      		std Y+12,r25
 2955 1478 AD87      		std Y+13,r26
 2956 147a BE87      		std Y+14,r27
 2957 147c 1F8A      		std Y+23,__zero_reg__
 2958 147e 188E      		std Y+24,__zero_reg__
 2959 1480 198E      		std Y+25,__zero_reg__
 2960 1482 1A8E      		std Y+26,__zero_reg__
 2961 1484 1BAE      		std Y+59,__zero_reg__
 2962 1486 1CAE      		std Y+60,__zero_reg__
 2963 1488 1DAE      		std Y+61,__zero_reg__
 2964 148a 1EAE      		std Y+62,__zero_reg__
 249:lp_solve_5.5/lp_scale.c ****   ek=0; ekm1=0; ekm2=0;
 2965               		.loc 1 249 0
 2966 148c 1F86      		std Y+15,__zero_reg__
 2967 148e 188A      		std Y+16,__zero_reg__
 2968 1490 198A      		std Y+17,__zero_reg__
 2969 1492 1A8A      		std Y+18,__zero_reg__
 2970 1494 1B8E      		std Y+27,__zero_reg__
 2971 1496 1C8E      		std Y+28,__zero_reg__
 2972 1498 1D8E      		std Y+29,__zero_reg__
 2973 149a 1E8E      		std Y+30,__zero_reg__
 2974 149c CE01      		movw r24,r28
 2975 149e CF96      		adiw r24,63
 2976 14a0 DC01      		movw r26,r24
 2977 14a2 1D92      		st X+,__zero_reg__
 2978 14a4 1D92      		st X+,__zero_reg__
 2979 14a6 1D92      		st X+,__zero_reg__
 2980 14a8 1C92      		st X,__zero_reg__
 2981 14aa 1397      		sbiw r26,3
 250:lp_solve_5.5/lp_scale.c **** 
 251:lp_solve_5.5/lp_scale.c ****   while(sk>StopTolerance) {
 2982               		.loc 1 251 0
 2983 14ac 0C94 0000 		jmp .L80
 2984               	.L123:
 252:lp_solve_5.5/lp_scale.c ****   /* Given the values of residual and sk, construct
 253:lp_solve_5.5/lp_scale.c ****      ColScale (when pass is even)
 254:lp_solve_5.5/lp_scale.c ****      RowScale (when pass is odd)  */
 255:lp_solve_5.5/lp_scale.c **** 
 256:lp_solve_5.5/lp_scale.c ****     qkqkm1 = qk * qkm1;
 2985               		.loc 1 256 0
 2986 14b0 8E01      		movw r16,r28
 2987 14b2 0D5B      		subi r16,-67
 2988 14b4 1F4F      		sbci r17,-1
 2989 14b6 2F89      		ldd r18,Y+23
 2990 14b8 388D      		ldd r19,Y+24
 2991 14ba 498D      		ldd r20,Y+25
 2992 14bc 5A8D      		ldd r21,Y+26
 2993 14be 6B85      		ldd r22,Y+11
 2994 14c0 7C85      		ldd r23,Y+12
 2995 14c2 8D85      		ldd r24,Y+13
 2996 14c4 9E85      		ldd r25,Y+14
 2997 14c6 0E94 0000 		call __mulsf3
 2998 14ca DC01      		movw r26,r24
 2999 14cc CB01      		movw r24,r22
 3000 14ce F801      		movw r30,r16
 3001 14d0 8083      		st Z,r24
 3002 14d2 9183      		std Z+1,r25
 3003 14d4 A283      		std Z+2,r26
 3004 14d6 B383      		std Z+3,r27
 257:lp_solve_5.5/lp_scale.c ****     ekekm1 = ek * ekm1;
 3005               		.loc 1 257 0
 3006 14d8 8E01      		movw r16,r28
 3007 14da 095B      		subi r16,-71
 3008 14dc 1F4F      		sbci r17,-1
 3009 14de 2B8D      		ldd r18,Y+27
 3010 14e0 3C8D      		ldd r19,Y+28
 3011 14e2 4D8D      		ldd r20,Y+29
 3012 14e4 5E8D      		ldd r21,Y+30
 3013 14e6 6F85      		ldd r22,Y+15
 3014 14e8 7889      		ldd r23,Y+16
 3015 14ea 8989      		ldd r24,Y+17
 3016 14ec 9A89      		ldd r25,Y+18
 3017 14ee 0E94 0000 		call __mulsf3
 3018 14f2 DC01      		movw r26,r24
 3019 14f4 CB01      		movw r24,r22
 3020 14f6 F801      		movw r30,r16
 3021 14f8 8083      		st Z,r24
 3022 14fa 9183      		std Z+1,r25
 3023 14fc A283      		std Z+2,r26
 3024 14fe B383      		std Z+3,r27
 258:lp_solve_5.5/lp_scale.c ****     if((Result % 2) == 0) { /* pass is even; construct RowScale[pass+1] */
 3025               		.loc 1 258 0
 3026 1500 8BA1      		ldd r24,Y+35
 3027 1502 9CA1      		ldd r25,Y+36
 3028 1504 8170      		andi r24,1
 3029 1506 9927      		clr r25
 3030 1508 892B      		or r24,r25
 3031 150a 01F0      		breq .+2
 3032 150c 00C0      		rjmp .L81
 259:lp_solve_5.5/lp_scale.c ****       if(Result != 0) {
 3033               		.loc 1 259 0
 3034 150e 8BA1      		ldd r24,Y+35
 3035 1510 9CA1      		ldd r25,Y+36
 3036 1512 892B      		or r24,r25
 3037 1514 01F4      		brne .+2
 3038 1516 00C0      		rjmp .L82
 260:lp_solve_5.5/lp_scale.c ****         for(row = 0; row <= lp->rows; row++)
 3039               		.loc 1 260 0
 3040 1518 1C82      		std Y+4,__zero_reg__
 3041 151a 1B82      		std Y+3,__zero_reg__
 3042 151c 00C0      		rjmp .L83
 3043               	.L84:
 261:lp_solve_5.5/lp_scale.c ****           RowScalem2[row] = FRowScale[row];
 3044               		.loc 1 261 0 discriminator 3
 3045 151e CE01      		movw r24,r28
 3046 1520 855B      		subi r24,-75
 3047 1522 9F4F      		sbci r25,-1
 3048 1524 DC01      		movw r26,r24
 3049 1526 2D91      		ld r18,X+
 3050 1528 3C91      		ld r19,X
 3051 152a 8B81      		ldd r24,Y+3
 3052 152c 9C81      		ldd r25,Y+4
 3053 152e 880F      		lsl r24
 3054 1530 991F      		rol r25
 3055 1532 880F      		lsl r24
 3056 1534 991F      		rol r25
 3057 1536 280F      		add r18,r24
 3058 1538 391F      		adc r19,r25
 3059 153a 8B81      		ldd r24,Y+3
 3060 153c 9C81      		ldd r25,Y+4
 3061 153e 880F      		lsl r24
 3062 1540 991F      		rol r25
 3063 1542 880F      		lsl r24
 3064 1544 991F      		rol r25
 3065 1546 AE01      		movw r20,r28
 3066 1548 425A      		subi r20,-94
 3067 154a 5F4F      		sbci r21,-1
 3068 154c FA01      		movw r30,r20
 3069 154e 4081      		ld r20,Z
 3070 1550 5181      		ldd r21,Z+1
 3071 1552 840F      		add r24,r20
 3072 1554 951F      		adc r25,r21
 3073 1556 FC01      		movw r30,r24
 3074 1558 8081      		ld r24,Z
 3075 155a 9181      		ldd r25,Z+1
 3076 155c A281      		ldd r26,Z+2
 3077 155e B381      		ldd r27,Z+3
 3078 1560 F901      		movw r30,r18
 3079 1562 8083      		st Z,r24
 3080 1564 9183      		std Z+1,r25
 3081 1566 A283      		std Z+2,r26
 3082 1568 B383      		std Z+3,r27
 260:lp_solve_5.5/lp_scale.c ****         for(row = 0; row <= lp->rows; row++)
 3083               		.loc 1 260 0 discriminator 3
 3084 156a 8B81      		ldd r24,Y+3
 3085 156c 9C81      		ldd r25,Y+4
 3086 156e 0196      		adiw r24,1
 3087 1570 9C83      		std Y+4,r25
 3088 1572 8B83      		std Y+3,r24
 3089               	.L83:
 260:lp_solve_5.5/lp_scale.c ****         for(row = 0; row <= lp->rows; row++)
 3090               		.loc 1 260 0 is_stmt 0 discriminator 1
 3091 1574 CE01      		movw r24,r28
 3092 1576 855A      		subi r24,-91
 3093 1578 9F4F      		sbci r25,-1
 3094 157a DC01      		movw r26,r24
 3095 157c 8D91      		ld r24,X+
 3096 157e 9C91      		ld r25,X
 3097 1580 8651      		subi r24,22
 3098 1582 9E4F      		sbci r25,-2
 3099 1584 FC01      		movw r30,r24
 3100 1586 2081      		ld r18,Z
 3101 1588 3181      		ldd r19,Z+1
 3102 158a 8B81      		ldd r24,Y+3
 3103 158c 9C81      		ldd r25,Y+4
 3104 158e 2817      		cp r18,r24
 3105 1590 3907      		cpc r19,r25
 3106 1592 04F4      		brge .L84
 262:lp_solve_5.5/lp_scale.c ****         if(qkqkm1 != 0) {
 3107               		.loc 1 262 0 is_stmt 1
 3108 1594 CE01      		movw r24,r28
 3109 1596 8D5B      		subi r24,-67
 3110 1598 9F4F      		sbci r25,-1
 3111 159a 20E0      		ldi r18,0
 3112 159c 30E0      		ldi r19,0
 3113 159e A901      		movw r20,r18
 3114 15a0 DC01      		movw r26,r24
 3115 15a2 6D91      		ld r22,X+
 3116 15a4 7D91      		ld r23,X+
 3117 15a6 8D91      		ld r24,X+
 3118 15a8 9C91      		ld r25,X
 3119 15aa 0E94 0000 		call __nesf2
 3120 15ae 8823      		tst r24
 3121 15b0 01F4      		brne .+2
 3122 15b2 00C0      		rjmp .L82
 263:lp_solve_5.5/lp_scale.c ****           for(row = 0; row <= lp->rows; row++)
 3123               		.loc 1 263 0
 3124 15b4 1C82      		std Y+4,__zero_reg__
 3125 15b6 1B82      		std Y+3,__zero_reg__
 3126 15b8 00C0      		rjmp .L86
 3127               	.L87:
 264:lp_solve_5.5/lp_scale.c ****             FRowScale[row]*=(1 + ekekm1 / qkqkm1);
 3128               		.loc 1 264 0 discriminator 3
 3129 15ba 8B81      		ldd r24,Y+3
 3130 15bc 9C81      		ldd r25,Y+4
 3131 15be 880F      		lsl r24
 3132 15c0 991F      		rol r25
 3133 15c2 880F      		lsl r24
 3134 15c4 991F      		rol r25
 3135 15c6 9E01      		movw r18,r28
 3136 15c8 225A      		subi r18,-94
 3137 15ca 3F4F      		sbci r19,-1
 3138 15cc F901      		movw r30,r18
 3139 15ce 2081      		ld r18,Z
 3140 15d0 3181      		ldd r19,Z+1
 3141 15d2 8901      		movw r16,r18
 3142 15d4 080F      		add r16,r24
 3143 15d6 191F      		adc r17,r25
 3144 15d8 8B81      		ldd r24,Y+3
 3145 15da 9C81      		ldd r25,Y+4
 3146 15dc 880F      		lsl r24
 3147 15de 991F      		rol r25
 3148 15e0 880F      		lsl r24
 3149 15e2 991F      		rol r25
 3150 15e4 9E01      		movw r18,r28
 3151 15e6 225A      		subi r18,-94
 3152 15e8 3F4F      		sbci r19,-1
 3153 15ea D901      		movw r26,r18
 3154 15ec 2D91      		ld r18,X+
 3155 15ee 3C91      		ld r19,X
 3156 15f0 820F      		add r24,r18
 3157 15f2 931F      		adc r25,r19
 3158 15f4 FC01      		movw r30,r24
 3159 15f6 C080      		ld r12,Z
 3160 15f8 D180      		ldd r13,Z+1
 3161 15fa E280      		ldd r14,Z+2
 3162 15fc F380      		ldd r15,Z+3
 3163 15fe CE01      		movw r24,r28
 3164 1600 895B      		subi r24,-71
 3165 1602 9F4F      		sbci r25,-1
 3166 1604 9E01      		movw r18,r28
 3167 1606 2D5B      		subi r18,-67
 3168 1608 3F4F      		sbci r19,-1
 3169 160a D901      		movw r26,r18
 3170 160c 2D91      		ld r18,X+
 3171 160e 3D91      		ld r19,X+
 3172 1610 4D91      		ld r20,X+
 3173 1612 5C91      		ld r21,X
 3174 1614 FC01      		movw r30,r24
 3175 1616 6081      		ld r22,Z
 3176 1618 7181      		ldd r23,Z+1
 3177 161a 8281      		ldd r24,Z+2
 3178 161c 9381      		ldd r25,Z+3
 3179 161e 0E94 0000 		call __divsf3
 3180 1622 DC01      		movw r26,r24
 3181 1624 CB01      		movw r24,r22
 3182 1626 20E0      		ldi r18,0
 3183 1628 30E0      		ldi r19,0
 3184 162a 40E8      		ldi r20,lo8(-128)
 3185 162c 5FE3      		ldi r21,lo8(63)
 3186 162e BC01      		movw r22,r24
 3187 1630 CD01      		movw r24,r26
 3188 1632 0E94 0000 		call __addsf3
 3189 1636 DC01      		movw r26,r24
 3190 1638 CB01      		movw r24,r22
 3191 163a 9C01      		movw r18,r24
 3192 163c AD01      		movw r20,r26
 3193 163e C701      		movw r24,r14
 3194 1640 B601      		movw r22,r12
 3195 1642 0E94 0000 		call __mulsf3
 3196 1646 DC01      		movw r26,r24
 3197 1648 CB01      		movw r24,r22
 3198 164a F801      		movw r30,r16
 3199 164c 8083      		st Z,r24
 3200 164e 9183      		std Z+1,r25
 3201 1650 A283      		std Z+2,r26
 3202 1652 B383      		std Z+3,r27
 263:lp_solve_5.5/lp_scale.c ****           for(row = 0; row <= lp->rows; row++)
 3203               		.loc 1 263 0 discriminator 3
 3204 1654 8B81      		ldd r24,Y+3
 3205 1656 9C81      		ldd r25,Y+4
 3206 1658 0196      		adiw r24,1
 3207 165a 9C83      		std Y+4,r25
 3208 165c 8B83      		std Y+3,r24
 3209               	.L86:
 263:lp_solve_5.5/lp_scale.c ****           for(row = 0; row <= lp->rows; row++)
 3210               		.loc 1 263 0 is_stmt 0 discriminator 1
 3211 165e CE01      		movw r24,r28
 3212 1660 855A      		subi r24,-91
 3213 1662 9F4F      		sbci r25,-1
 3214 1664 DC01      		movw r26,r24
 3215 1666 8D91      		ld r24,X+
 3216 1668 9C91      		ld r25,X
 3217 166a 8651      		subi r24,22
 3218 166c 9E4F      		sbci r25,-2
 3219 166e FC01      		movw r30,r24
 3220 1670 2081      		ld r18,Z
 3221 1672 3181      		ldd r19,Z+1
 3222 1674 8B81      		ldd r24,Y+3
 3223 1676 9C81      		ldd r25,Y+4
 3224 1678 2817      		cp r18,r24
 3225 167a 3907      		cpc r19,r25
 3226 167c 04F0      		brlt .+2
 3227 167e 00C0      		rjmp .L87
 265:lp_solve_5.5/lp_scale.c ****           for(row = 0; row<=lp->rows; row++)
 3228               		.loc 1 265 0 is_stmt 1
 3229 1680 1C82      		std Y+4,__zero_reg__
 3230 1682 1B82      		std Y+3,__zero_reg__
 3231 1684 00C0      		rjmp .L88
 3232               	.L89:
 266:lp_solve_5.5/lp_scale.c ****             FRowScale[row]+=(residual_odd[row] / (qkqkm1 * (REAL) RowCount[row]) -
 3233               		.loc 1 266 0 discriminator 3
 3234 1686 8B81      		ldd r24,Y+3
 3235 1688 9C81      		ldd r25,Y+4
 3236 168a 880F      		lsl r24
 3237 168c 991F      		rol r25
 3238 168e 880F      		lsl r24
 3239 1690 991F      		rol r25
 3240 1692 9E01      		movw r18,r28
 3241 1694 225A      		subi r18,-94
 3242 1696 3F4F      		sbci r19,-1
 3243 1698 D901      		movw r26,r18
 3244 169a 2D91      		ld r18,X+
 3245 169c 3C91      		ld r19,X
 3246 169e 8901      		movw r16,r18
 3247 16a0 080F      		add r16,r24
 3248 16a2 191F      		adc r17,r25
 3249 16a4 8B81      		ldd r24,Y+3
 3250 16a6 9C81      		ldd r25,Y+4
 3251 16a8 880F      		lsl r24
 3252 16aa 991F      		rol r25
 3253 16ac 880F      		lsl r24
 3254 16ae 991F      		rol r25
 3255 16b0 9E01      		movw r18,r28
 3256 16b2 225A      		subi r18,-94
 3257 16b4 3F4F      		sbci r19,-1
 3258 16b6 F901      		movw r30,r18
 3259 16b8 2081      		ld r18,Z
 3260 16ba 3181      		ldd r19,Z+1
 3261 16bc 820F      		add r24,r18
 3262 16be 931F      		adc r25,r19
 3263 16c0 DC01      		movw r26,r24
 3264 16c2 CD90      		ld r12,X+
 3265 16c4 DD90      		ld r13,X+
 3266 16c6 ED90      		ld r14,X+
 3267 16c8 FC90      		ld r15,X
 3268 16ca CE01      		movw r24,r28
 3269 16cc 8B5A      		subi r24,-85
 3270 16ce 9F4F      		sbci r25,-1
 3271 16d0 FC01      		movw r30,r24
 3272 16d2 2081      		ld r18,Z
 3273 16d4 3181      		ldd r19,Z+1
 3274 16d6 8B81      		ldd r24,Y+3
 3275 16d8 9C81      		ldd r25,Y+4
 3276 16da 880F      		lsl r24
 3277 16dc 991F      		rol r25
 3278 16de 880F      		lsl r24
 3279 16e0 991F      		rol r25
 3280 16e2 820F      		add r24,r18
 3281 16e4 931F      		adc r25,r19
 3282 16e6 DC01      		movw r26,r24
 3283 16e8 8D90      		ld r8,X+
 3284 16ea 9D90      		ld r9,X+
 3285 16ec AD90      		ld r10,X+
 3286 16ee BC90      		ld r11,X
 3287 16f0 CE01      		movw r24,r28
 3288 16f2 895A      		subi r24,-87
 3289 16f4 9F4F      		sbci r25,-1
 3290 16f6 FC01      		movw r30,r24
 3291 16f8 2081      		ld r18,Z
 3292 16fa 3181      		ldd r19,Z+1
 3293 16fc 8B81      		ldd r24,Y+3
 3294 16fe 9C81      		ldd r25,Y+4
 3295 1700 880F      		lsl r24
 3296 1702 991F      		rol r25
 3297 1704 820F      		add r24,r18
 3298 1706 931F      		adc r25,r19
 3299 1708 DC01      		movw r26,r24
 3300 170a 8D91      		ld r24,X+
 3301 170c 9C91      		ld r25,X
 3302 170e 092E      		mov __tmp_reg__,r25
 3303 1710 000C      		lsl r0
 3304 1712 AA0B      		sbc r26,r26
 3305 1714 BB0B      		sbc r27,r27
 3306 1716 BC01      		movw r22,r24
 3307 1718 CD01      		movw r24,r26
 3308 171a 0E94 0000 		call __floatsisf
 3309 171e 2B01      		movw r4,r22
 3310 1720 3C01      		movw r6,r24
 3311 1722 CE01      		movw r24,r28
 3312 1724 8D5B      		subi r24,-67
 3313 1726 9F4F      		sbci r25,-1
 3314 1728 FC01      		movw r30,r24
 3315 172a 2081      		ld r18,Z
 3316 172c 3181      		ldd r19,Z+1
 3317 172e 4281      		ldd r20,Z+2
 3318 1730 5381      		ldd r21,Z+3
 3319 1732 C301      		movw r24,r6
 3320 1734 B201      		movw r22,r4
 3321 1736 0E94 0000 		call __mulsf3
 3322 173a DC01      		movw r26,r24
 3323 173c CB01      		movw r24,r22
 3324 173e 9C01      		movw r18,r24
 3325 1740 AD01      		movw r20,r26
 3326 1742 C501      		movw r24,r10
 3327 1744 B401      		movw r22,r8
 3328 1746 0E94 0000 		call __divsf3
 3329 174a DC01      		movw r26,r24
 3330 174c CB01      		movw r24,r22
 3331 174e 4C01      		movw r8,r24
 3332 1750 5D01      		movw r10,r26
 267:lp_solve_5.5/lp_scale.c ****                              RowScalem2[row] * ekekm1 / qkqkm1);
 3333               		.loc 1 267 0 discriminator 3
 3334 1752 CE01      		movw r24,r28
 3335 1754 855B      		subi r24,-75
 3336 1756 9F4F      		sbci r25,-1
 3337 1758 DC01      		movw r26,r24
 3338 175a 2D91      		ld r18,X+
 3339 175c 3C91      		ld r19,X
 3340 175e 8B81      		ldd r24,Y+3
 3341 1760 9C81      		ldd r25,Y+4
 3342 1762 880F      		lsl r24
 3343 1764 991F      		rol r25
 3344 1766 880F      		lsl r24
 3345 1768 991F      		rol r25
 3346 176a 820F      		add r24,r18
 3347 176c 931F      		adc r25,r19
 3348 176e FC01      		movw r30,r24
 3349 1770 8081      		ld r24,Z
 3350 1772 9181      		ldd r25,Z+1
 3351 1774 A281      		ldd r26,Z+2
 3352 1776 B381      		ldd r27,Z+3
 3353 1778 9E01      		movw r18,r28
 3354 177a 295B      		subi r18,-71
 3355 177c 3F4F      		sbci r19,-1
 3356 177e F901      		movw r30,r18
 3357 1780 2081      		ld r18,Z
 3358 1782 3181      		ldd r19,Z+1
 3359 1784 4281      		ldd r20,Z+2
 3360 1786 5381      		ldd r21,Z+3
 3361 1788 BC01      		movw r22,r24
 3362 178a CD01      		movw r24,r26
 3363 178c 0E94 0000 		call __mulsf3
 3364 1790 DC01      		movw r26,r24
 3365 1792 CB01      		movw r24,r22
 3366 1794 2C01      		movw r4,r24
 3367 1796 3D01      		movw r6,r26
 3368 1798 CE01      		movw r24,r28
 3369 179a 8D5B      		subi r24,-67
 3370 179c 9F4F      		sbci r25,-1
 3371 179e DC01      		movw r26,r24
 3372 17a0 2D91      		ld r18,X+
 3373 17a2 3D91      		ld r19,X+
 3374 17a4 4D91      		ld r20,X+
 3375 17a6 5C91      		ld r21,X
 3376 17a8 C301      		movw r24,r6
 3377 17aa B201      		movw r22,r4
 3378 17ac 0E94 0000 		call __divsf3
 3379 17b0 DC01      		movw r26,r24
 3380 17b2 CB01      		movw r24,r22
 266:lp_solve_5.5/lp_scale.c ****             FRowScale[row]+=(residual_odd[row] / (qkqkm1 * (REAL) RowCount[row]) -
 3381               		.loc 1 266 0 discriminator 3
 3382 17b4 9C01      		movw r18,r24
 3383 17b6 AD01      		movw r20,r26
 3384 17b8 C501      		movw r24,r10
 3385 17ba B401      		movw r22,r8
 3386 17bc 0E94 0000 		call __subsf3
 3387 17c0 DC01      		movw r26,r24
 3388 17c2 CB01      		movw r24,r22
 3389 17c4 9C01      		movw r18,r24
 3390 17c6 AD01      		movw r20,r26
 3391 17c8 C701      		movw r24,r14
 3392 17ca B601      		movw r22,r12
 3393 17cc 0E94 0000 		call __addsf3
 3394 17d0 DC01      		movw r26,r24
 3395 17d2 CB01      		movw r24,r22
 3396 17d4 F801      		movw r30,r16
 3397 17d6 8083      		st Z,r24
 3398 17d8 9183      		std Z+1,r25
 3399 17da A283      		std Z+2,r26
 3400 17dc B383      		std Z+3,r27
 265:lp_solve_5.5/lp_scale.c ****           for(row = 0; row<=lp->rows; row++)
 3401               		.loc 1 265 0 discriminator 3
 3402 17de 8B81      		ldd r24,Y+3
 3403 17e0 9C81      		ldd r25,Y+4
 3404 17e2 0196      		adiw r24,1
 3405 17e4 9C83      		std Y+4,r25
 3406 17e6 8B83      		std Y+3,r24
 3407               	.L88:
 265:lp_solve_5.5/lp_scale.c ****           for(row = 0; row<=lp->rows; row++)
 3408               		.loc 1 265 0 is_stmt 0 discriminator 1
 3409 17e8 CE01      		movw r24,r28
 3410 17ea 855A      		subi r24,-91
 3411 17ec 9F4F      		sbci r25,-1
 3412 17ee DC01      		movw r26,r24
 3413 17f0 8D91      		ld r24,X+
 3414 17f2 9C91      		ld r25,X
 3415 17f4 8651      		subi r24,22
 3416 17f6 9E4F      		sbci r25,-2
 3417 17f8 FC01      		movw r30,r24
 3418 17fa 2081      		ld r18,Z
 3419 17fc 3181      		ldd r19,Z+1
 3420 17fe 8B81      		ldd r24,Y+3
 3421 1800 9C81      		ldd r25,Y+4
 3422 1802 2817      		cp r18,r24
 3423 1804 3907      		cpc r19,r25
 3424 1806 04F0      		brlt .+2
 3425 1808 00C0      		rjmp .L89
 3426 180a 00C0      		rjmp .L82
 3427               	.L81:
 268:lp_solve_5.5/lp_scale.c ****         }
 269:lp_solve_5.5/lp_scale.c ****       }
 270:lp_solve_5.5/lp_scale.c ****     }
 271:lp_solve_5.5/lp_scale.c ****     else { /* pass is odd; construct ColScale[pass+1] */
 272:lp_solve_5.5/lp_scale.c ****       for(col = 1; col <= colMax; col++)
 3428               		.loc 1 272 0 is_stmt 1
 3429 180c 81E0      		ldi r24,lo8(1)
 3430 180e 90E0      		ldi r25,0
 3431 1810 9E83      		std Y+6,r25
 3432 1812 8D83      		std Y+5,r24
 3433 1814 00C0      		rjmp .L90
 3434               	.L91:
 273:lp_solve_5.5/lp_scale.c ****         ColScalem2[col] = FColScale[col];
 3435               		.loc 1 273 0 discriminator 3
 3436 1816 CE01      		movw r24,r28
 3437 1818 835B      		subi r24,-77
 3438 181a 9F4F      		sbci r25,-1
 3439 181c DC01      		movw r26,r24
 3440 181e 2D91      		ld r18,X+
 3441 1820 3C91      		ld r19,X
 3442 1822 8D81      		ldd r24,Y+5
 3443 1824 9E81      		ldd r25,Y+6
 3444 1826 880F      		lsl r24
 3445 1828 991F      		rol r25
 3446 182a 880F      		lsl r24
 3447 182c 991F      		rol r25
 3448 182e 280F      		add r18,r24
 3449 1830 391F      		adc r19,r25
 3450 1832 8D81      		ldd r24,Y+5
 3451 1834 9E81      		ldd r25,Y+6
 3452 1836 880F      		lsl r24
 3453 1838 991F      		rol r25
 3454 183a 880F      		lsl r24
 3455 183c 991F      		rol r25
 3456 183e AE01      		movw r20,r28
 3457 1840 405A      		subi r20,-96
 3458 1842 5F4F      		sbci r21,-1
 3459 1844 FA01      		movw r30,r20
 3460 1846 4081      		ld r20,Z
 3461 1848 5181      		ldd r21,Z+1
 3462 184a 840F      		add r24,r20
 3463 184c 951F      		adc r25,r21
 3464 184e FC01      		movw r30,r24
 3465 1850 8081      		ld r24,Z
 3466 1852 9181      		ldd r25,Z+1
 3467 1854 A281      		ldd r26,Z+2
 3468 1856 B381      		ldd r27,Z+3
 3469 1858 F901      		movw r30,r18
 3470 185a 8083      		st Z,r24
 3471 185c 9183      		std Z+1,r25
 3472 185e A283      		std Z+2,r26
 3473 1860 B383      		std Z+3,r27
 272:lp_solve_5.5/lp_scale.c ****         ColScalem2[col] = FColScale[col];
 3474               		.loc 1 272 0 discriminator 3
 3475 1862 8D81      		ldd r24,Y+5
 3476 1864 9E81      		ldd r25,Y+6
 3477 1866 0196      		adiw r24,1
 3478 1868 9E83      		std Y+6,r25
 3479 186a 8D83      		std Y+5,r24
 3480               	.L90:
 272:lp_solve_5.5/lp_scale.c ****         ColScalem2[col] = FColScale[col];
 3481               		.loc 1 272 0 is_stmt 0 discriminator 1
 3482 186c 2D81      		ldd r18,Y+5
 3483 186e 3E81      		ldd r19,Y+6
 3484 1870 8FA5      		ldd r24,Y+47
 3485 1872 98A9      		ldd r25,Y+48
 3486 1874 8217      		cp r24,r18
 3487 1876 9307      		cpc r25,r19
 3488 1878 04F4      		brge .L91
 274:lp_solve_5.5/lp_scale.c ****       if(qkqkm1 != 0) {
 3489               		.loc 1 274 0 is_stmt 1
 3490 187a CE01      		movw r24,r28
 3491 187c 8D5B      		subi r24,-67
 3492 187e 9F4F      		sbci r25,-1
 3493 1880 20E0      		ldi r18,0
 3494 1882 30E0      		ldi r19,0
 3495 1884 A901      		movw r20,r18
 3496 1886 DC01      		movw r26,r24
 3497 1888 6D91      		ld r22,X+
 3498 188a 7D91      		ld r23,X+
 3499 188c 8D91      		ld r24,X+
 3500 188e 9C91      		ld r25,X
 3501 1890 0E94 0000 		call __nesf2
 3502 1894 8823      		tst r24
 3503 1896 01F4      		brne .+2
 3504 1898 00C0      		rjmp .L82
 275:lp_solve_5.5/lp_scale.c ****         for(col = 1; col <= colMax; col++)
 3505               		.loc 1 275 0
 3506 189a 81E0      		ldi r24,lo8(1)
 3507 189c 90E0      		ldi r25,0
 3508 189e 9E83      		std Y+6,r25
 3509 18a0 8D83      		std Y+5,r24
 3510 18a2 00C0      		rjmp .L93
 3511               	.L94:
 276:lp_solve_5.5/lp_scale.c ****           FColScale[col] *= (1 + ekekm1 / qkqkm1);
 3512               		.loc 1 276 0 discriminator 3
 3513 18a4 8D81      		ldd r24,Y+5
 3514 18a6 9E81      		ldd r25,Y+6
 3515 18a8 880F      		lsl r24
 3516 18aa 991F      		rol r25
 3517 18ac 880F      		lsl r24
 3518 18ae 991F      		rol r25
 3519 18b0 9E01      		movw r18,r28
 3520 18b2 205A      		subi r18,-96
 3521 18b4 3F4F      		sbci r19,-1
 3522 18b6 F901      		movw r30,r18
 3523 18b8 2081      		ld r18,Z
 3524 18ba 3181      		ldd r19,Z+1
 3525 18bc 8901      		movw r16,r18
 3526 18be 080F      		add r16,r24
 3527 18c0 191F      		adc r17,r25
 3528 18c2 8D81      		ldd r24,Y+5
 3529 18c4 9E81      		ldd r25,Y+6
 3530 18c6 880F      		lsl r24
 3531 18c8 991F      		rol r25
 3532 18ca 880F      		lsl r24
 3533 18cc 991F      		rol r25
 3534 18ce 9E01      		movw r18,r28
 3535 18d0 205A      		subi r18,-96
 3536 18d2 3F4F      		sbci r19,-1
 3537 18d4 D901      		movw r26,r18
 3538 18d6 2D91      		ld r18,X+
 3539 18d8 3C91      		ld r19,X
 3540 18da 820F      		add r24,r18
 3541 18dc 931F      		adc r25,r19
 3542 18de FC01      		movw r30,r24
 3543 18e0 C080      		ld r12,Z
 3544 18e2 D180      		ldd r13,Z+1
 3545 18e4 E280      		ldd r14,Z+2
 3546 18e6 F380      		ldd r15,Z+3
 3547 18e8 CE01      		movw r24,r28
 3548 18ea 895B      		subi r24,-71
 3549 18ec 9F4F      		sbci r25,-1
 3550 18ee 9E01      		movw r18,r28
 3551 18f0 2D5B      		subi r18,-67
 3552 18f2 3F4F      		sbci r19,-1
 3553 18f4 D901      		movw r26,r18
 3554 18f6 2D91      		ld r18,X+
 3555 18f8 3D91      		ld r19,X+
 3556 18fa 4D91      		ld r20,X+
 3557 18fc 5C91      		ld r21,X
 3558 18fe FC01      		movw r30,r24
 3559 1900 6081      		ld r22,Z
 3560 1902 7181      		ldd r23,Z+1
 3561 1904 8281      		ldd r24,Z+2
 3562 1906 9381      		ldd r25,Z+3
 3563 1908 0E94 0000 		call __divsf3
 3564 190c DC01      		movw r26,r24
 3565 190e CB01      		movw r24,r22
 3566 1910 20E0      		ldi r18,0
 3567 1912 30E0      		ldi r19,0
 3568 1914 40E8      		ldi r20,lo8(-128)
 3569 1916 5FE3      		ldi r21,lo8(63)
 3570 1918 BC01      		movw r22,r24
 3571 191a CD01      		movw r24,r26
 3572 191c 0E94 0000 		call __addsf3
 3573 1920 DC01      		movw r26,r24
 3574 1922 CB01      		movw r24,r22
 3575 1924 9C01      		movw r18,r24
 3576 1926 AD01      		movw r20,r26
 3577 1928 C701      		movw r24,r14
 3578 192a B601      		movw r22,r12
 3579 192c 0E94 0000 		call __mulsf3
 3580 1930 DC01      		movw r26,r24
 3581 1932 CB01      		movw r24,r22
 3582 1934 F801      		movw r30,r16
 3583 1936 8083      		st Z,r24
 3584 1938 9183      		std Z+1,r25
 3585 193a A283      		std Z+2,r26
 3586 193c B383      		std Z+3,r27
 275:lp_solve_5.5/lp_scale.c ****         for(col = 1; col <= colMax; col++)
 3587               		.loc 1 275 0 discriminator 3
 3588 193e 8D81      		ldd r24,Y+5
 3589 1940 9E81      		ldd r25,Y+6
 3590 1942 0196      		adiw r24,1
 3591 1944 9E83      		std Y+6,r25
 3592 1946 8D83      		std Y+5,r24
 3593               	.L93:
 275:lp_solve_5.5/lp_scale.c ****         for(col = 1; col <= colMax; col++)
 3594               		.loc 1 275 0 is_stmt 0 discriminator 1
 3595 1948 2D81      		ldd r18,Y+5
 3596 194a 3E81      		ldd r19,Y+6
 3597 194c 8FA5      		ldd r24,Y+47
 3598 194e 98A9      		ldd r25,Y+48
 3599 1950 8217      		cp r24,r18
 3600 1952 9307      		cpc r25,r19
 3601 1954 04F0      		brlt .+2
 3602 1956 00C0      		rjmp .L94
 277:lp_solve_5.5/lp_scale.c ****         for(col = 1; col <= colMax; col++)
 3603               		.loc 1 277 0 is_stmt 1
 3604 1958 81E0      		ldi r24,lo8(1)
 3605 195a 90E0      		ldi r25,0
 3606 195c 9E83      		std Y+6,r25
 3607 195e 8D83      		std Y+5,r24
 3608 1960 00C0      		rjmp .L95
 3609               	.L96:
 278:lp_solve_5.5/lp_scale.c ****           FColScale[col] += (residual_even[col] / ((REAL) ColCount[col] * qkqkm1) -
 3610               		.loc 1 278 0 discriminator 3
 3611 1962 8D81      		ldd r24,Y+5
 3612 1964 9E81      		ldd r25,Y+6
 3613 1966 880F      		lsl r24
 3614 1968 991F      		rol r25
 3615 196a 880F      		lsl r24
 3616 196c 991F      		rol r25
 3617 196e 9E01      		movw r18,r28
 3618 1970 205A      		subi r18,-96
 3619 1972 3F4F      		sbci r19,-1
 3620 1974 D901      		movw r26,r18
 3621 1976 2D91      		ld r18,X+
 3622 1978 3C91      		ld r19,X
 3623 197a 8901      		movw r16,r18
 3624 197c 080F      		add r16,r24
 3625 197e 191F      		adc r17,r25
 3626 1980 8D81      		ldd r24,Y+5
 3627 1982 9E81      		ldd r25,Y+6
 3628 1984 880F      		lsl r24
 3629 1986 991F      		rol r25
 3630 1988 880F      		lsl r24
 3631 198a 991F      		rol r25
 3632 198c 9E01      		movw r18,r28
 3633 198e 205A      		subi r18,-96
 3634 1990 3F4F      		sbci r19,-1
 3635 1992 F901      		movw r30,r18
 3636 1994 2081      		ld r18,Z
 3637 1996 3181      		ldd r19,Z+1
 3638 1998 820F      		add r24,r18
 3639 199a 931F      		adc r25,r19
 3640 199c DC01      		movw r26,r24
 3641 199e CD90      		ld r12,X+
 3642 19a0 DD90      		ld r13,X+
 3643 19a2 ED90      		ld r14,X+
 3644 19a4 FC90      		ld r15,X
 3645 19a6 CE01      		movw r24,r28
 3646 19a8 8D5A      		subi r24,-83
 3647 19aa 9F4F      		sbci r25,-1
 3648 19ac FC01      		movw r30,r24
 3649 19ae 2081      		ld r18,Z
 3650 19b0 3181      		ldd r19,Z+1
 3651 19b2 8D81      		ldd r24,Y+5
 3652 19b4 9E81      		ldd r25,Y+6
 3653 19b6 880F      		lsl r24
 3654 19b8 991F      		rol r25
 3655 19ba 880F      		lsl r24
 3656 19bc 991F      		rol r25
 3657 19be 820F      		add r24,r18
 3658 19c0 931F      		adc r25,r19
 3659 19c2 DC01      		movw r26,r24
 3660 19c4 8D90      		ld r8,X+
 3661 19c6 9D90      		ld r9,X+
 3662 19c8 AD90      		ld r10,X+
 3663 19ca BC90      		ld r11,X
 3664 19cc CE01      		movw r24,r28
 3665 19ce 875A      		subi r24,-89
 3666 19d0 9F4F      		sbci r25,-1
 3667 19d2 FC01      		movw r30,r24
 3668 19d4 2081      		ld r18,Z
 3669 19d6 3181      		ldd r19,Z+1
 3670 19d8 8D81      		ldd r24,Y+5
 3671 19da 9E81      		ldd r25,Y+6
 3672 19dc 880F      		lsl r24
 3673 19de 991F      		rol r25
 3674 19e0 820F      		add r24,r18
 3675 19e2 931F      		adc r25,r19
 3676 19e4 DC01      		movw r26,r24
 3677 19e6 8D91      		ld r24,X+
 3678 19e8 9C91      		ld r25,X
 3679 19ea 092E      		mov __tmp_reg__,r25
 3680 19ec 000C      		lsl r0
 3681 19ee AA0B      		sbc r26,r26
 3682 19f0 BB0B      		sbc r27,r27
 3683 19f2 BC01      		movw r22,r24
 3684 19f4 CD01      		movw r24,r26
 3685 19f6 0E94 0000 		call __floatsisf
 3686 19fa 2B01      		movw r4,r22
 3687 19fc 3C01      		movw r6,r24
 3688 19fe CE01      		movw r24,r28
 3689 1a00 8D5B      		subi r24,-67
 3690 1a02 9F4F      		sbci r25,-1
 3691 1a04 FC01      		movw r30,r24
 3692 1a06 2081      		ld r18,Z
 3693 1a08 3181      		ldd r19,Z+1
 3694 1a0a 4281      		ldd r20,Z+2
 3695 1a0c 5381      		ldd r21,Z+3
 3696 1a0e C301      		movw r24,r6
 3697 1a10 B201      		movw r22,r4
 3698 1a12 0E94 0000 		call __mulsf3
 3699 1a16 DC01      		movw r26,r24
 3700 1a18 CB01      		movw r24,r22
 3701 1a1a 9C01      		movw r18,r24
 3702 1a1c AD01      		movw r20,r26
 3703 1a1e C501      		movw r24,r10
 3704 1a20 B401      		movw r22,r8
 3705 1a22 0E94 0000 		call __divsf3
 3706 1a26 DC01      		movw r26,r24
 3707 1a28 CB01      		movw r24,r22
 3708 1a2a 4C01      		movw r8,r24
 3709 1a2c 5D01      		movw r10,r26
 279:lp_solve_5.5/lp_scale.c ****                              ColScalem2[col] * ekekm1 / qkqkm1);
 3710               		.loc 1 279 0 discriminator 3
 3711 1a2e CE01      		movw r24,r28
 3712 1a30 835B      		subi r24,-77
 3713 1a32 9F4F      		sbci r25,-1
 3714 1a34 DC01      		movw r26,r24
 3715 1a36 2D91      		ld r18,X+
 3716 1a38 3C91      		ld r19,X
 3717 1a3a 8D81      		ldd r24,Y+5
 3718 1a3c 9E81      		ldd r25,Y+6
 3719 1a3e 880F      		lsl r24
 3720 1a40 991F      		rol r25
 3721 1a42 880F      		lsl r24
 3722 1a44 991F      		rol r25
 3723 1a46 820F      		add r24,r18
 3724 1a48 931F      		adc r25,r19
 3725 1a4a FC01      		movw r30,r24
 3726 1a4c 8081      		ld r24,Z
 3727 1a4e 9181      		ldd r25,Z+1
 3728 1a50 A281      		ldd r26,Z+2
 3729 1a52 B381      		ldd r27,Z+3
 3730 1a54 9E01      		movw r18,r28
 3731 1a56 295B      		subi r18,-71
 3732 1a58 3F4F      		sbci r19,-1
 3733 1a5a F901      		movw r30,r18
 3734 1a5c 2081      		ld r18,Z
 3735 1a5e 3181      		ldd r19,Z+1
 3736 1a60 4281      		ldd r20,Z+2
 3737 1a62 5381      		ldd r21,Z+3
 3738 1a64 BC01      		movw r22,r24
 3739 1a66 CD01      		movw r24,r26
 3740 1a68 0E94 0000 		call __mulsf3
 3741 1a6c DC01      		movw r26,r24
 3742 1a6e CB01      		movw r24,r22
 3743 1a70 2C01      		movw r4,r24
 3744 1a72 3D01      		movw r6,r26
 3745 1a74 CE01      		movw r24,r28
 3746 1a76 8D5B      		subi r24,-67
 3747 1a78 9F4F      		sbci r25,-1
 3748 1a7a DC01      		movw r26,r24
 3749 1a7c 2D91      		ld r18,X+
 3750 1a7e 3D91      		ld r19,X+
 3751 1a80 4D91      		ld r20,X+
 3752 1a82 5C91      		ld r21,X
 3753 1a84 C301      		movw r24,r6
 3754 1a86 B201      		movw r22,r4
 3755 1a88 0E94 0000 		call __divsf3
 3756 1a8c DC01      		movw r26,r24
 3757 1a8e CB01      		movw r24,r22
 278:lp_solve_5.5/lp_scale.c ****           FColScale[col] += (residual_even[col] / ((REAL) ColCount[col] * qkqkm1) -
 3758               		.loc 1 278 0 discriminator 3
 3759 1a90 9C01      		movw r18,r24
 3760 1a92 AD01      		movw r20,r26
 3761 1a94 C501      		movw r24,r10
 3762 1a96 B401      		movw r22,r8
 3763 1a98 0E94 0000 		call __subsf3
 3764 1a9c DC01      		movw r26,r24
 3765 1a9e CB01      		movw r24,r22
 3766 1aa0 9C01      		movw r18,r24
 3767 1aa2 AD01      		movw r20,r26
 3768 1aa4 C701      		movw r24,r14
 3769 1aa6 B601      		movw r22,r12
 3770 1aa8 0E94 0000 		call __addsf3
 3771 1aac DC01      		movw r26,r24
 3772 1aae CB01      		movw r24,r22
 3773 1ab0 F801      		movw r30,r16
 3774 1ab2 8083      		st Z,r24
 3775 1ab4 9183      		std Z+1,r25
 3776 1ab6 A283      		std Z+2,r26
 3777 1ab8 B383      		std Z+3,r27
 277:lp_solve_5.5/lp_scale.c ****         for(col = 1; col <= colMax; col++)
 3778               		.loc 1 277 0 discriminator 3
 3779 1aba 8D81      		ldd r24,Y+5
 3780 1abc 9E81      		ldd r25,Y+6
 3781 1abe 0196      		adiw r24,1
 3782 1ac0 9E83      		std Y+6,r25
 3783 1ac2 8D83      		std Y+5,r24
 3784               	.L95:
 277:lp_solve_5.5/lp_scale.c ****         for(col = 1; col <= colMax; col++)
 3785               		.loc 1 277 0 is_stmt 0 discriminator 1
 3786 1ac4 2D81      		ldd r18,Y+5
 3787 1ac6 3E81      		ldd r19,Y+6
 3788 1ac8 8FA5      		ldd r24,Y+47
 3789 1aca 98A9      		ldd r25,Y+48
 3790 1acc 8217      		cp r24,r18
 3791 1ace 9307      		cpc r25,r19
 3792 1ad0 04F0      		brlt .+2
 3793 1ad2 00C0      		rjmp .L96
 3794               	.L82:
 280:lp_solve_5.5/lp_scale.c ****       }
 281:lp_solve_5.5/lp_scale.c ****     }
 282:lp_solve_5.5/lp_scale.c **** 
 283:lp_solve_5.5/lp_scale.c ****     /* update residual and sk (pass + 1) */
 284:lp_solve_5.5/lp_scale.c ****     if((Result % 2) == 0) { /* even */
 3795               		.loc 1 284 0 is_stmt 1
 3796 1ad4 8BA1      		ldd r24,Y+35
 3797 1ad6 9CA1      		ldd r25,Y+36
 3798 1ad8 8170      		andi r24,1
 3799 1ada 9927      		clr r25
 3800 1adc 892B      		or r24,r25
 3801 1ade 01F0      		breq .+2
 3802 1ae0 00C0      		rjmp .L97
 285:lp_solve_5.5/lp_scale.c ****        /* residual */
 286:lp_solve_5.5/lp_scale.c ****       for(row = 0; row <= lp->rows; row++)
 3803               		.loc 1 286 0
 3804 1ae2 1C82      		std Y+4,__zero_reg__
 3805 1ae4 1B82      		std Y+3,__zero_reg__
 3806 1ae6 00C0      		rjmp .L98
 3807               	.L99:
 287:lp_solve_5.5/lp_scale.c ****         residual_odd[row] *= ek;
 3808               		.loc 1 287 0 discriminator 3
 3809 1ae8 CE01      		movw r24,r28
 3810 1aea 8B5A      		subi r24,-85
 3811 1aec 9F4F      		sbci r25,-1
 3812 1aee DC01      		movw r26,r24
 3813 1af0 2D91      		ld r18,X+
 3814 1af2 3C91      		ld r19,X
 3815 1af4 8B81      		ldd r24,Y+3
 3816 1af6 9C81      		ldd r25,Y+4
 3817 1af8 880F      		lsl r24
 3818 1afa 991F      		rol r25
 3819 1afc 880F      		lsl r24
 3820 1afe 991F      		rol r25
 3821 1b00 8901      		movw r16,r18
 3822 1b02 080F      		add r16,r24
 3823 1b04 191F      		adc r17,r25
 3824 1b06 CE01      		movw r24,r28
 3825 1b08 8B5A      		subi r24,-85
 3826 1b0a 9F4F      		sbci r25,-1
 3827 1b0c FC01      		movw r30,r24
 3828 1b0e 2081      		ld r18,Z
 3829 1b10 3181      		ldd r19,Z+1
 3830 1b12 8B81      		ldd r24,Y+3
 3831 1b14 9C81      		ldd r25,Y+4
 3832 1b16 880F      		lsl r24
 3833 1b18 991F      		rol r25
 3834 1b1a 880F      		lsl r24
 3835 1b1c 991F      		rol r25
 3836 1b1e 820F      		add r24,r18
 3837 1b20 931F      		adc r25,r19
 3838 1b22 FC01      		movw r30,r24
 3839 1b24 8081      		ld r24,Z
 3840 1b26 9181      		ldd r25,Z+1
 3841 1b28 A281      		ldd r26,Z+2
 3842 1b2a B381      		ldd r27,Z+3
 3843 1b2c 2F85      		ldd r18,Y+15
 3844 1b2e 3889      		ldd r19,Y+16
 3845 1b30 4989      		ldd r20,Y+17
 3846 1b32 5A89      		ldd r21,Y+18
 3847 1b34 BC01      		movw r22,r24
 3848 1b36 CD01      		movw r24,r26
 3849 1b38 0E94 0000 		call __mulsf3
 3850 1b3c DC01      		movw r26,r24
 3851 1b3e CB01      		movw r24,r22
 3852 1b40 F801      		movw r30,r16
 3853 1b42 8083      		st Z,r24
 3854 1b44 9183      		std Z+1,r25
 3855 1b46 A283      		std Z+2,r26
 3856 1b48 B383      		std Z+3,r27
 286:lp_solve_5.5/lp_scale.c ****         residual_odd[row] *= ek;
 3857               		.loc 1 286 0 discriminator 3
 3858 1b4a 8B81      		ldd r24,Y+3
 3859 1b4c 9C81      		ldd r25,Y+4
 3860 1b4e 0196      		adiw r24,1
 3861 1b50 9C83      		std Y+4,r25
 3862 1b52 8B83      		std Y+3,r24
 3863               	.L98:
 286:lp_solve_5.5/lp_scale.c ****         residual_odd[row] *= ek;
 3864               		.loc 1 286 0 is_stmt 0 discriminator 1
 3865 1b54 CE01      		movw r24,r28
 3866 1b56 855A      		subi r24,-91
 3867 1b58 9F4F      		sbci r25,-1
 3868 1b5a DC01      		movw r26,r24
 3869 1b5c 8D91      		ld r24,X+
 3870 1b5e 9C91      		ld r25,X
 3871 1b60 8651      		subi r24,22
 3872 1b62 9E4F      		sbci r25,-2
 3873 1b64 FC01      		movw r30,r24
 3874 1b66 2081      		ld r18,Z
 3875 1b68 3181      		ldd r19,Z+1
 3876 1b6a 8B81      		ldd r24,Y+3
 3877 1b6c 9C81      		ldd r25,Y+4
 3878 1b6e 2817      		cp r18,r24
 3879 1b70 3907      		cpc r19,r25
 3880 1b72 04F0      		brlt .+2
 3881 1b74 00C0      		rjmp .L99
 288:lp_solve_5.5/lp_scale.c **** 
 289:lp_solve_5.5/lp_scale.c ****       for(i = 1; i <= colMax; i++)
 3882               		.loc 1 289 0 is_stmt 1
 3883 1b76 81E0      		ldi r24,lo8(1)
 3884 1b78 90E0      		ldi r25,0
 3885 1b7a 9A83      		std Y+2,r25
 3886 1b7c 8983      		std Y+1,r24
 3887 1b7e 00C0      		rjmp .L100
 3888               	.L103:
 290:lp_solve_5.5/lp_scale.c ****         if(lp->orig_obj[i] != 0)
 3889               		.loc 1 290 0
 3890 1b80 CE01      		movw r24,r28
 3891 1b82 855A      		subi r24,-91
 3892 1b84 9F4F      		sbci r25,-1
 3893 1b86 DC01      		movw r26,r24
 3894 1b88 8D91      		ld r24,X+
 3895 1b8a 9C91      		ld r25,X
 3896 1b8c 845D      		subi r24,-44
 3897 1b8e 9D4F      		sbci r25,-3
 3898 1b90 FC01      		movw r30,r24
 3899 1b92 2081      		ld r18,Z
 3900 1b94 3181      		ldd r19,Z+1
 3901 1b96 8981      		ldd r24,Y+1
 3902 1b98 9A81      		ldd r25,Y+2
 3903 1b9a 880F      		lsl r24
 3904 1b9c 991F      		rol r25
 3905 1b9e 880F      		lsl r24
 3906 1ba0 991F      		rol r25
 3907 1ba2 820F      		add r24,r18
 3908 1ba4 931F      		adc r25,r19
 3909 1ba6 FC01      		movw r30,r24
 3910 1ba8 8081      		ld r24,Z
 3911 1baa 9181      		ldd r25,Z+1
 3912 1bac A281      		ldd r26,Z+2
 3913 1bae B381      		ldd r27,Z+3
 3914 1bb0 20E0      		ldi r18,0
 3915 1bb2 30E0      		ldi r19,0
 3916 1bb4 A901      		movw r20,r18
 3917 1bb6 BC01      		movw r22,r24
 3918 1bb8 CD01      		movw r24,r26
 3919 1bba 0E94 0000 		call __nesf2
 3920 1bbe 8823      		tst r24
 3921 1bc0 01F4      		brne .+2
 3922 1bc2 00C0      		rjmp .L101
 291:lp_solve_5.5/lp_scale.c ****           residual_odd[0] += (residual_even[i] / (REAL) ColCount[i]);
 3923               		.loc 1 291 0
 3924 1bc4 CE01      		movw r24,r28
 3925 1bc6 8B5A      		subi r24,-85
 3926 1bc8 9F4F      		sbci r25,-1
 3927 1bca DC01      		movw r26,r24
 3928 1bcc 0D91      		ld r16,X+
 3929 1bce 1C91      		ld r17,X
 3930 1bd0 CE01      		movw r24,r28
 3931 1bd2 8B5A      		subi r24,-85
 3932 1bd4 9F4F      		sbci r25,-1
 3933 1bd6 FC01      		movw r30,r24
 3934 1bd8 8081      		ld r24,Z
 3935 1bda 9181      		ldd r25,Z+1
 3936 1bdc DC01      		movw r26,r24
 3937 1bde CD90      		ld r12,X+
 3938 1be0 DD90      		ld r13,X+
 3939 1be2 ED90      		ld r14,X+
 3940 1be4 FC90      		ld r15,X
 3941 1be6 CE01      		movw r24,r28
 3942 1be8 8D5A      		subi r24,-83
 3943 1bea 9F4F      		sbci r25,-1
 3944 1bec FC01      		movw r30,r24
 3945 1bee 2081      		ld r18,Z
 3946 1bf0 3181      		ldd r19,Z+1
 3947 1bf2 8981      		ldd r24,Y+1
 3948 1bf4 9A81      		ldd r25,Y+2
 3949 1bf6 880F      		lsl r24
 3950 1bf8 991F      		rol r25
 3951 1bfa 880F      		lsl r24
 3952 1bfc 991F      		rol r25
 3953 1bfe 820F      		add r24,r18
 3954 1c00 931F      		adc r25,r19
 3955 1c02 DC01      		movw r26,r24
 3956 1c04 8D90      		ld r8,X+
 3957 1c06 9D90      		ld r9,X+
 3958 1c08 AD90      		ld r10,X+
 3959 1c0a BC90      		ld r11,X
 3960 1c0c CE01      		movw r24,r28
 3961 1c0e 875A      		subi r24,-89
 3962 1c10 9F4F      		sbci r25,-1
 3963 1c12 FC01      		movw r30,r24
 3964 1c14 2081      		ld r18,Z
 3965 1c16 3181      		ldd r19,Z+1
 3966 1c18 8981      		ldd r24,Y+1
 3967 1c1a 9A81      		ldd r25,Y+2
 3968 1c1c 880F      		lsl r24
 3969 1c1e 991F      		rol r25
 3970 1c20 820F      		add r24,r18
 3971 1c22 931F      		adc r25,r19
 3972 1c24 DC01      		movw r26,r24
 3973 1c26 8D91      		ld r24,X+
 3974 1c28 9C91      		ld r25,X
 3975 1c2a 092E      		mov __tmp_reg__,r25
 3976 1c2c 000C      		lsl r0
 3977 1c2e AA0B      		sbc r26,r26
 3978 1c30 BB0B      		sbc r27,r27
 3979 1c32 BC01      		movw r22,r24
 3980 1c34 CD01      		movw r24,r26
 3981 1c36 0E94 0000 		call __floatsisf
 3982 1c3a DC01      		movw r26,r24
 3983 1c3c CB01      		movw r24,r22
 3984 1c3e 9C01      		movw r18,r24
 3985 1c40 AD01      		movw r20,r26
 3986 1c42 C501      		movw r24,r10
 3987 1c44 B401      		movw r22,r8
 3988 1c46 0E94 0000 		call __divsf3
 3989 1c4a DC01      		movw r26,r24
 3990 1c4c CB01      		movw r24,r22
 3991 1c4e 9C01      		movw r18,r24
 3992 1c50 AD01      		movw r20,r26
 3993 1c52 C701      		movw r24,r14
 3994 1c54 B601      		movw r22,r12
 3995 1c56 0E94 0000 		call __addsf3
 3996 1c5a DC01      		movw r26,r24
 3997 1c5c CB01      		movw r24,r22
 3998 1c5e F801      		movw r30,r16
 3999 1c60 8083      		st Z,r24
 4000 1c62 9183      		std Z+1,r25
 4001 1c64 A283      		std Z+2,r26
 4002 1c66 B383      		std Z+3,r27
 4003               	.L101:
 289:lp_solve_5.5/lp_scale.c ****         if(lp->orig_obj[i] != 0)
 4004               		.loc 1 289 0 discriminator 2
 4005 1c68 8981      		ldd r24,Y+1
 4006 1c6a 9A81      		ldd r25,Y+2
 4007 1c6c 0196      		adiw r24,1
 4008 1c6e 9A83      		std Y+2,r25
 4009 1c70 8983      		std Y+1,r24
 4010               	.L100:
 289:lp_solve_5.5/lp_scale.c ****         if(lp->orig_obj[i] != 0)
 4011               		.loc 1 289 0 is_stmt 0 discriminator 1
 4012 1c72 2981      		ldd r18,Y+1
 4013 1c74 3A81      		ldd r19,Y+2
 4014 1c76 8FA5      		ldd r24,Y+47
 4015 1c78 98A9      		ldd r25,Y+48
 4016 1c7a 8217      		cp r24,r18
 4017 1c7c 9307      		cpc r25,r19
 4018 1c7e 04F0      		brlt .+2
 4019 1c80 00C0      		rjmp .L103
 292:lp_solve_5.5/lp_scale.c **** 
 293:lp_solve_5.5/lp_scale.c ****       rownr = &(COL_MAT_ROWNR(0));
 4020               		.loc 1 293 0 is_stmt 1
 4021 1c82 8BA5      		ldd r24,Y+43
 4022 1c84 9CA5      		ldd r25,Y+44
 4023 1c86 DC01      		movw r26,r24
 4024 1c88 1E96      		adiw r26,14
 4025 1c8a 8D91      		ld r24,X+
 4026 1c8c 9C91      		ld r25,X
 4027 1c8e 1F97      		sbiw r26,14+1
 4028 1c90 98A7      		std Y+40,r25
 4029 1c92 8FA3      		std Y+39,r24
 294:lp_solve_5.5/lp_scale.c ****       colnr = &(COL_MAT_COLNR(0));
 4030               		.loc 1 294 0
 4031 1c94 8BA5      		ldd r24,Y+43
 4032 1c96 9CA5      		ldd r25,Y+44
 4033 1c98 FC01      		movw r30,r24
 4034 1c9a 8485      		ldd r24,Z+12
 4035 1c9c 9585      		ldd r25,Z+13
 4036 1c9e 9AA7      		std Y+42,r25
 4037 1ca0 89A7      		std Y+41,r24
 295:lp_solve_5.5/lp_scale.c ****       for(i = 0; i < nz;
 4038               		.loc 1 295 0
 4039 1ca2 1A82      		std Y+2,__zero_reg__
 4040 1ca4 1982      		std Y+1,__zero_reg__
 4041 1ca6 00C0      		rjmp .L104
 4042               	.L105:
 296:lp_solve_5.5/lp_scale.c ****           i++, rownr += matRowColStep, colnr += matRowColStep) {
 297:lp_solve_5.5/lp_scale.c ****         residual_odd[*rownr] += (residual_even[*colnr] / (REAL) ColCount[*colnr]);
 4043               		.loc 1 297 0
 4044 1ca8 CE01      		movw r24,r28
 4045 1caa 8B5A      		subi r24,-85
 4046 1cac 9F4F      		sbci r25,-1
 4047 1cae DC01      		movw r26,r24
 4048 1cb0 2D91      		ld r18,X+
 4049 1cb2 3C91      		ld r19,X
 4050 1cb4 8FA1      		ldd r24,Y+39
 4051 1cb6 98A5      		ldd r25,Y+40
 4052 1cb8 FC01      		movw r30,r24
 4053 1cba 8081      		ld r24,Z
 4054 1cbc 9181      		ldd r25,Z+1
 4055 1cbe 880F      		lsl r24
 4056 1cc0 991F      		rol r25
 4057 1cc2 880F      		lsl r24
 4058 1cc4 991F      		rol r25
 4059 1cc6 8901      		movw r16,r18
 4060 1cc8 080F      		add r16,r24
 4061 1cca 191F      		adc r17,r25
 4062 1ccc CE01      		movw r24,r28
 4063 1cce 8B5A      		subi r24,-85
 4064 1cd0 9F4F      		sbci r25,-1
 4065 1cd2 DC01      		movw r26,r24
 4066 1cd4 2D91      		ld r18,X+
 4067 1cd6 3C91      		ld r19,X
 4068 1cd8 8FA1      		ldd r24,Y+39
 4069 1cda 98A5      		ldd r25,Y+40
 4070 1cdc FC01      		movw r30,r24
 4071 1cde 8081      		ld r24,Z
 4072 1ce0 9181      		ldd r25,Z+1
 4073 1ce2 880F      		lsl r24
 4074 1ce4 991F      		rol r25
 4075 1ce6 880F      		lsl r24
 4076 1ce8 991F      		rol r25
 4077 1cea 820F      		add r24,r18
 4078 1cec 931F      		adc r25,r19
 4079 1cee DC01      		movw r26,r24
 4080 1cf0 CD90      		ld r12,X+
 4081 1cf2 DD90      		ld r13,X+
 4082 1cf4 ED90      		ld r14,X+
 4083 1cf6 FC90      		ld r15,X
 4084 1cf8 CE01      		movw r24,r28
 4085 1cfa 8D5A      		subi r24,-83
 4086 1cfc 9F4F      		sbci r25,-1
 4087 1cfe FC01      		movw r30,r24
 4088 1d00 2081      		ld r18,Z
 4089 1d02 3181      		ldd r19,Z+1
 4090 1d04 89A5      		ldd r24,Y+41
 4091 1d06 9AA5      		ldd r25,Y+42
 4092 1d08 DC01      		movw r26,r24
 4093 1d0a 8D91      		ld r24,X+
 4094 1d0c 9C91      		ld r25,X
 4095 1d0e 880F      		lsl r24
 4096 1d10 991F      		rol r25
 4097 1d12 880F      		lsl r24
 4098 1d14 991F      		rol r25
 4099 1d16 820F      		add r24,r18
 4100 1d18 931F      		adc r25,r19
 4101 1d1a FC01      		movw r30,r24
 4102 1d1c 8080      		ld r8,Z
 4103 1d1e 9180      		ldd r9,Z+1
 4104 1d20 A280      		ldd r10,Z+2
 4105 1d22 B380      		ldd r11,Z+3
 4106 1d24 CE01      		movw r24,r28
 4107 1d26 875A      		subi r24,-89
 4108 1d28 9F4F      		sbci r25,-1
 4109 1d2a DC01      		movw r26,r24
 4110 1d2c 2D91      		ld r18,X+
 4111 1d2e 3C91      		ld r19,X
 4112 1d30 89A5      		ldd r24,Y+41
 4113 1d32 9AA5      		ldd r25,Y+42
 4114 1d34 FC01      		movw r30,r24
 4115 1d36 8081      		ld r24,Z
 4116 1d38 9181      		ldd r25,Z+1
 4117 1d3a 880F      		lsl r24
 4118 1d3c 991F      		rol r25
 4119 1d3e 820F      		add r24,r18
 4120 1d40 931F      		adc r25,r19
 4121 1d42 DC01      		movw r26,r24
 4122 1d44 8D91      		ld r24,X+
 4123 1d46 9C91      		ld r25,X
 4124 1d48 092E      		mov __tmp_reg__,r25
 4125 1d4a 000C      		lsl r0
 4126 1d4c AA0B      		sbc r26,r26
 4127 1d4e BB0B      		sbc r27,r27
 4128 1d50 BC01      		movw r22,r24
 4129 1d52 CD01      		movw r24,r26
 4130 1d54 0E94 0000 		call __floatsisf
 4131 1d58 DC01      		movw r26,r24
 4132 1d5a CB01      		movw r24,r22
 4133 1d5c 9C01      		movw r18,r24
 4134 1d5e AD01      		movw r20,r26
 4135 1d60 C501      		movw r24,r10
 4136 1d62 B401      		movw r22,r8
 4137 1d64 0E94 0000 		call __divsf3
 4138 1d68 DC01      		movw r26,r24
 4139 1d6a CB01      		movw r24,r22
 4140 1d6c 9C01      		movw r18,r24
 4141 1d6e AD01      		movw r20,r26
 4142 1d70 C701      		movw r24,r14
 4143 1d72 B601      		movw r22,r12
 4144 1d74 0E94 0000 		call __addsf3
 4145 1d78 DC01      		movw r26,r24
 4146 1d7a CB01      		movw r24,r22
 4147 1d7c F801      		movw r30,r16
 4148 1d7e 8083      		st Z,r24
 4149 1d80 9183      		std Z+1,r25
 4150 1d82 A283      		std Z+2,r26
 4151 1d84 B383      		std Z+3,r27
 296:lp_solve_5.5/lp_scale.c ****           i++, rownr += matRowColStep, colnr += matRowColStep) {
 4152               		.loc 1 296 0
 4153 1d86 8981      		ldd r24,Y+1
 4154 1d88 9A81      		ldd r25,Y+2
 4155 1d8a 0196      		adiw r24,1
 4156 1d8c 9A83      		std Y+2,r25
 4157 1d8e 8983      		std Y+1,r24
 4158 1d90 8FA1      		ldd r24,Y+39
 4159 1d92 98A5      		ldd r25,Y+40
 4160 1d94 0296      		adiw r24,2
 4161 1d96 98A7      		std Y+40,r25
 4162 1d98 8FA3      		std Y+39,r24
 4163 1d9a 89A5      		ldd r24,Y+41
 4164 1d9c 9AA5      		ldd r25,Y+42
 4165 1d9e 0296      		adiw r24,2
 4166 1da0 9AA7      		std Y+42,r25
 4167 1da2 89A7      		std Y+41,r24
 4168               	.L104:
 295:lp_solve_5.5/lp_scale.c ****       for(i = 0; i < nz;
 4169               		.loc 1 295 0 discriminator 1
 4170 1da4 2981      		ldd r18,Y+1
 4171 1da6 3A81      		ldd r19,Y+2
 4172 1da8 8DA5      		ldd r24,Y+45
 4173 1daa 9EA5      		ldd r25,Y+46
 4174 1dac 2817      		cp r18,r24
 4175 1dae 3907      		cpc r19,r25
 4176 1db0 04F4      		brge .+2
 4177 1db2 00C0      		rjmp .L105
 298:lp_solve_5.5/lp_scale.c ****       }
 299:lp_solve_5.5/lp_scale.c ****       for(row = 0; row <= lp->rows; row++)
 4178               		.loc 1 299 0
 4179 1db4 1C82      		std Y+4,__zero_reg__
 4180 1db6 1B82      		std Y+3,__zero_reg__
 4181 1db8 00C0      		rjmp .L106
 4182               	.L107:
 300:lp_solve_5.5/lp_scale.c ****         residual_odd[row] *= (-1 / qk);
 4183               		.loc 1 300 0 discriminator 3
 4184 1dba CE01      		movw r24,r28
 4185 1dbc 8B5A      		subi r24,-85
 4186 1dbe 9F4F      		sbci r25,-1
 4187 1dc0 DC01      		movw r26,r24
 4188 1dc2 2D91      		ld r18,X+
 4189 1dc4 3C91      		ld r19,X
 4190 1dc6 8B81      		ldd r24,Y+3
 4191 1dc8 9C81      		ldd r25,Y+4
 4192 1dca 880F      		lsl r24
 4193 1dcc 991F      		rol r25
 4194 1dce 880F      		lsl r24
 4195 1dd0 991F      		rol r25
 4196 1dd2 8901      		movw r16,r18
 4197 1dd4 080F      		add r16,r24
 4198 1dd6 191F      		adc r17,r25
 4199 1dd8 CE01      		movw r24,r28
 4200 1dda 8B5A      		subi r24,-85
 4201 1ddc 9F4F      		sbci r25,-1
 4202 1dde FC01      		movw r30,r24
 4203 1de0 2081      		ld r18,Z
 4204 1de2 3181      		ldd r19,Z+1
 4205 1de4 8B81      		ldd r24,Y+3
 4206 1de6 9C81      		ldd r25,Y+4
 4207 1de8 880F      		lsl r24
 4208 1dea 991F      		rol r25
 4209 1dec 880F      		lsl r24
 4210 1dee 991F      		rol r25
 4211 1df0 820F      		add r24,r18
 4212 1df2 931F      		adc r25,r19
 4213 1df4 DC01      		movw r26,r24
 4214 1df6 CD90      		ld r12,X+
 4215 1df8 DD90      		ld r13,X+
 4216 1dfa ED90      		ld r14,X+
 4217 1dfc FC90      		ld r15,X
 4218 1dfe 2B85      		ldd r18,Y+11
 4219 1e00 3C85      		ldd r19,Y+12
 4220 1e02 4D85      		ldd r20,Y+13
 4221 1e04 5E85      		ldd r21,Y+14
 4222 1e06 60E0      		ldi r22,0
 4223 1e08 70E0      		ldi r23,0
 4224 1e0a 80E8      		ldi r24,lo8(-128)
 4225 1e0c 9FEB      		ldi r25,lo8(-65)
 4226 1e0e 0E94 0000 		call __divsf3
 4227 1e12 DC01      		movw r26,r24
 4228 1e14 CB01      		movw r24,r22
 4229 1e16 9C01      		movw r18,r24
 4230 1e18 AD01      		movw r20,r26
 4231 1e1a C701      		movw r24,r14
 4232 1e1c B601      		movw r22,r12
 4233 1e1e 0E94 0000 		call __mulsf3
 4234 1e22 DC01      		movw r26,r24
 4235 1e24 CB01      		movw r24,r22
 4236 1e26 F801      		movw r30,r16
 4237 1e28 8083      		st Z,r24
 4238 1e2a 9183      		std Z+1,r25
 4239 1e2c A283      		std Z+2,r26
 4240 1e2e B383      		std Z+3,r27
 299:lp_solve_5.5/lp_scale.c ****         residual_odd[row] *= (-1 / qk);
 4241               		.loc 1 299 0 discriminator 3
 4242 1e30 8B81      		ldd r24,Y+3
 4243 1e32 9C81      		ldd r25,Y+4
 4244 1e34 0196      		adiw r24,1
 4245 1e36 9C83      		std Y+4,r25
 4246 1e38 8B83      		std Y+3,r24
 4247               	.L106:
 299:lp_solve_5.5/lp_scale.c ****         residual_odd[row] *= (-1 / qk);
 4248               		.loc 1 299 0 is_stmt 0 discriminator 1
 4249 1e3a CE01      		movw r24,r28
 4250 1e3c 855A      		subi r24,-91
 4251 1e3e 9F4F      		sbci r25,-1
 4252 1e40 DC01      		movw r26,r24
 4253 1e42 8D91      		ld r24,X+
 4254 1e44 9C91      		ld r25,X
 4255 1e46 8651      		subi r24,22
 4256 1e48 9E4F      		sbci r25,-2
 4257 1e4a FC01      		movw r30,r24
 4258 1e4c 2081      		ld r18,Z
 4259 1e4e 3181      		ldd r19,Z+1
 4260 1e50 8B81      		ldd r24,Y+3
 4261 1e52 9C81      		ldd r25,Y+4
 4262 1e54 2817      		cp r18,r24
 4263 1e56 3907      		cpc r19,r25
 4264 1e58 04F0      		brlt .+2
 4265 1e5a 00C0      		rjmp .L107
 301:lp_solve_5.5/lp_scale.c **** 
 302:lp_solve_5.5/lp_scale.c ****       /* sk */
 303:lp_solve_5.5/lp_scale.c ****       skm1 = sk;
 4266               		.loc 1 303 0 is_stmt 1
 4267 1e5c 8F81      		ldd r24,Y+7
 4268 1e5e 9885      		ldd r25,Y+8
 4269 1e60 A985      		ldd r26,Y+9
 4270 1e62 BA85      		ldd r27,Y+10
 4271 1e64 8B8B      		std Y+19,r24
 4272 1e66 9C8B      		std Y+20,r25
 4273 1e68 AD8B      		std Y+21,r26
 4274 1e6a BE8B      		std Y+22,r27
 304:lp_solve_5.5/lp_scale.c ****       sk = 0;
 4275               		.loc 1 304 0
 4276 1e6c 1F82      		std Y+7,__zero_reg__
 4277 1e6e 1886      		std Y+8,__zero_reg__
 4278 1e70 1986      		std Y+9,__zero_reg__
 4279 1e72 1A86      		std Y+10,__zero_reg__
 305:lp_solve_5.5/lp_scale.c ****       for(row = 0; row <= lp->rows; row++)
 4280               		.loc 1 305 0
 4281 1e74 1C82      		std Y+4,__zero_reg__
 4282 1e76 1B82      		std Y+3,__zero_reg__
 4283 1e78 00C0      		rjmp .L108
 4284               	.L109:
 306:lp_solve_5.5/lp_scale.c ****         sk += (residual_odd[row]*residual_odd[row]) / (REAL) RowCount[row];
 4285               		.loc 1 306 0 discriminator 3
 4286 1e7a CE01      		movw r24,r28
 4287 1e7c 8B5A      		subi r24,-85
 4288 1e7e 9F4F      		sbci r25,-1
 4289 1e80 DC01      		movw r26,r24
 4290 1e82 2D91      		ld r18,X+
 4291 1e84 3C91      		ld r19,X
 4292 1e86 8B81      		ldd r24,Y+3
 4293 1e88 9C81      		ldd r25,Y+4
 4294 1e8a 880F      		lsl r24
 4295 1e8c 991F      		rol r25
 4296 1e8e 880F      		lsl r24
 4297 1e90 991F      		rol r25
 4298 1e92 820F      		add r24,r18
 4299 1e94 931F      		adc r25,r19
 4300 1e96 FC01      		movw r30,r24
 4301 1e98 8081      		ld r24,Z
 4302 1e9a 9181      		ldd r25,Z+1
 4303 1e9c A281      		ldd r26,Z+2
 4304 1e9e B381      		ldd r27,Z+3
 4305 1ea0 9E01      		movw r18,r28
 4306 1ea2 2B5A      		subi r18,-85
 4307 1ea4 3F4F      		sbci r19,-1
 4308 1ea6 F901      		movw r30,r18
 4309 1ea8 4081      		ld r20,Z
 4310 1eaa 5181      		ldd r21,Z+1
 4311 1eac 2B81      		ldd r18,Y+3
 4312 1eae 3C81      		ldd r19,Y+4
 4313 1eb0 220F      		lsl r18
 4314 1eb2 331F      		rol r19
 4315 1eb4 220F      		lsl r18
 4316 1eb6 331F      		rol r19
 4317 1eb8 240F      		add r18,r20
 4318 1eba 351F      		adc r19,r21
 4319 1ebc F901      		movw r30,r18
 4320 1ebe 2081      		ld r18,Z
 4321 1ec0 3181      		ldd r19,Z+1
 4322 1ec2 4281      		ldd r20,Z+2
 4323 1ec4 5381      		ldd r21,Z+3
 4324 1ec6 BC01      		movw r22,r24
 4325 1ec8 CD01      		movw r24,r26
 4326 1eca 0E94 0000 		call __mulsf3
 4327 1ece DC01      		movw r26,r24
 4328 1ed0 CB01      		movw r24,r22
 4329 1ed2 6C01      		movw r12,r24
 4330 1ed4 7D01      		movw r14,r26
 4331 1ed6 CE01      		movw r24,r28
 4332 1ed8 895A      		subi r24,-87
 4333 1eda 9F4F      		sbci r25,-1
 4334 1edc DC01      		movw r26,r24
 4335 1ede 2D91      		ld r18,X+
 4336 1ee0 3C91      		ld r19,X
 4337 1ee2 8B81      		ldd r24,Y+3
 4338 1ee4 9C81      		ldd r25,Y+4
 4339 1ee6 880F      		lsl r24
 4340 1ee8 991F      		rol r25
 4341 1eea 820F      		add r24,r18
 4342 1eec 931F      		adc r25,r19
 4343 1eee FC01      		movw r30,r24
 4344 1ef0 8081      		ld r24,Z
 4345 1ef2 9181      		ldd r25,Z+1
 4346 1ef4 092E      		mov __tmp_reg__,r25
 4347 1ef6 000C      		lsl r0
 4348 1ef8 AA0B      		sbc r26,r26
 4349 1efa BB0B      		sbc r27,r27
 4350 1efc BC01      		movw r22,r24
 4351 1efe CD01      		movw r24,r26
 4352 1f00 0E94 0000 		call __floatsisf
 4353 1f04 DC01      		movw r26,r24
 4354 1f06 CB01      		movw r24,r22
 4355 1f08 9C01      		movw r18,r24
 4356 1f0a AD01      		movw r20,r26
 4357 1f0c C701      		movw r24,r14
 4358 1f0e B601      		movw r22,r12
 4359 1f10 0E94 0000 		call __divsf3
 4360 1f14 DC01      		movw r26,r24
 4361 1f16 CB01      		movw r24,r22
 4362 1f18 9C01      		movw r18,r24
 4363 1f1a AD01      		movw r20,r26
 4364 1f1c 6F81      		ldd r22,Y+7
 4365 1f1e 7885      		ldd r23,Y+8
 4366 1f20 8985      		ldd r24,Y+9
 4367 1f22 9A85      		ldd r25,Y+10
 4368 1f24 0E94 0000 		call __addsf3
 4369 1f28 DC01      		movw r26,r24
 4370 1f2a CB01      		movw r24,r22
 4371 1f2c 8F83      		std Y+7,r24
 4372 1f2e 9887      		std Y+8,r25
 4373 1f30 A987      		std Y+9,r26
 4374 1f32 BA87      		std Y+10,r27
 305:lp_solve_5.5/lp_scale.c ****       for(row = 0; row <= lp->rows; row++)
 4375               		.loc 1 305 0 discriminator 3
 4376 1f34 8B81      		ldd r24,Y+3
 4377 1f36 9C81      		ldd r25,Y+4
 4378 1f38 0196      		adiw r24,1
 4379 1f3a 9C83      		std Y+4,r25
 4380 1f3c 8B83      		std Y+3,r24
 4381               	.L108:
 305:lp_solve_5.5/lp_scale.c ****       for(row = 0; row <= lp->rows; row++)
 4382               		.loc 1 305 0 is_stmt 0 discriminator 1
 4383 1f3e CE01      		movw r24,r28
 4384 1f40 855A      		subi r24,-91
 4385 1f42 9F4F      		sbci r25,-1
 4386 1f44 DC01      		movw r26,r24
 4387 1f46 8D91      		ld r24,X+
 4388 1f48 9C91      		ld r25,X
 4389 1f4a 8651      		subi r24,22
 4390 1f4c 9E4F      		sbci r25,-2
 4391 1f4e FC01      		movw r30,r24
 4392 1f50 2081      		ld r18,Z
 4393 1f52 3181      		ldd r19,Z+1
 4394 1f54 8B81      		ldd r24,Y+3
 4395 1f56 9C81      		ldd r25,Y+4
 4396 1f58 2817      		cp r18,r24
 4397 1f5a 3907      		cpc r19,r25
 4398 1f5c 04F0      		brlt .+2
 4399 1f5e 00C0      		rjmp .L109
 4400 1f60 00C0      		rjmp .L110
 4401               	.L97:
 307:lp_solve_5.5/lp_scale.c ****     }
 308:lp_solve_5.5/lp_scale.c ****     else { /* odd */
 309:lp_solve_5.5/lp_scale.c ****       /* residual */
 310:lp_solve_5.5/lp_scale.c ****       for(col = 1; col <= colMax; col++)
 4402               		.loc 1 310 0 is_stmt 1
 4403 1f62 81E0      		ldi r24,lo8(1)
 4404 1f64 90E0      		ldi r25,0
 4405 1f66 9E83      		std Y+6,r25
 4406 1f68 8D83      		std Y+5,r24
 4407 1f6a 00C0      		rjmp .L111
 4408               	.L112:
 311:lp_solve_5.5/lp_scale.c ****         residual_even[col] *= ek;
 4409               		.loc 1 311 0 discriminator 3
 4410 1f6c CE01      		movw r24,r28
 4411 1f6e 8D5A      		subi r24,-83
 4412 1f70 9F4F      		sbci r25,-1
 4413 1f72 DC01      		movw r26,r24
 4414 1f74 2D91      		ld r18,X+
 4415 1f76 3C91      		ld r19,X
 4416 1f78 8D81      		ldd r24,Y+5
 4417 1f7a 9E81      		ldd r25,Y+6
 4418 1f7c 880F      		lsl r24
 4419 1f7e 991F      		rol r25
 4420 1f80 880F      		lsl r24
 4421 1f82 991F      		rol r25
 4422 1f84 8901      		movw r16,r18
 4423 1f86 080F      		add r16,r24
 4424 1f88 191F      		adc r17,r25
 4425 1f8a CE01      		movw r24,r28
 4426 1f8c 8D5A      		subi r24,-83
 4427 1f8e 9F4F      		sbci r25,-1
 4428 1f90 FC01      		movw r30,r24
 4429 1f92 2081      		ld r18,Z
 4430 1f94 3181      		ldd r19,Z+1
 4431 1f96 8D81      		ldd r24,Y+5
 4432 1f98 9E81      		ldd r25,Y+6
 4433 1f9a 880F      		lsl r24
 4434 1f9c 991F      		rol r25
 4435 1f9e 880F      		lsl r24
 4436 1fa0 991F      		rol r25
 4437 1fa2 820F      		add r24,r18
 4438 1fa4 931F      		adc r25,r19
 4439 1fa6 FC01      		movw r30,r24
 4440 1fa8 8081      		ld r24,Z
 4441 1faa 9181      		ldd r25,Z+1
 4442 1fac A281      		ldd r26,Z+2
 4443 1fae B381      		ldd r27,Z+3
 4444 1fb0 2F85      		ldd r18,Y+15
 4445 1fb2 3889      		ldd r19,Y+16
 4446 1fb4 4989      		ldd r20,Y+17
 4447 1fb6 5A89      		ldd r21,Y+18
 4448 1fb8 BC01      		movw r22,r24
 4449 1fba CD01      		movw r24,r26
 4450 1fbc 0E94 0000 		call __mulsf3
 4451 1fc0 DC01      		movw r26,r24
 4452 1fc2 CB01      		movw r24,r22
 4453 1fc4 F801      		movw r30,r16
 4454 1fc6 8083      		st Z,r24
 4455 1fc8 9183      		std Z+1,r25
 4456 1fca A283      		std Z+2,r26
 4457 1fcc B383      		std Z+3,r27
 310:lp_solve_5.5/lp_scale.c ****         residual_even[col] *= ek;
 4458               		.loc 1 310 0 discriminator 3
 4459 1fce 8D81      		ldd r24,Y+5
 4460 1fd0 9E81      		ldd r25,Y+6
 4461 1fd2 0196      		adiw r24,1
 4462 1fd4 9E83      		std Y+6,r25
 4463 1fd6 8D83      		std Y+5,r24
 4464               	.L111:
 310:lp_solve_5.5/lp_scale.c ****         residual_even[col] *= ek;
 4465               		.loc 1 310 0 is_stmt 0 discriminator 1
 4466 1fd8 2D81      		ldd r18,Y+5
 4467 1fda 3E81      		ldd r19,Y+6
 4468 1fdc 8FA5      		ldd r24,Y+47
 4469 1fde 98A9      		ldd r25,Y+48
 4470 1fe0 8217      		cp r24,r18
 4471 1fe2 9307      		cpc r25,r19
 4472 1fe4 04F4      		brge .L112
 312:lp_solve_5.5/lp_scale.c **** 
 313:lp_solve_5.5/lp_scale.c ****       for(i = 1; i <= colMax; i++)
 4473               		.loc 1 313 0 is_stmt 1
 4474 1fe6 81E0      		ldi r24,lo8(1)
 4475 1fe8 90E0      		ldi r25,0
 4476 1fea 9A83      		std Y+2,r25
 4477 1fec 8983      		std Y+1,r24
 4478 1fee 00C0      		rjmp .L113
 4479               	.L116:
 314:lp_solve_5.5/lp_scale.c ****         if(lp->orig_obj[i] != 0)
 4480               		.loc 1 314 0
 4481 1ff0 CE01      		movw r24,r28
 4482 1ff2 855A      		subi r24,-91
 4483 1ff4 9F4F      		sbci r25,-1
 4484 1ff6 DC01      		movw r26,r24
 4485 1ff8 8D91      		ld r24,X+
 4486 1ffa 9C91      		ld r25,X
 4487 1ffc 845D      		subi r24,-44
 4488 1ffe 9D4F      		sbci r25,-3
 4489 2000 FC01      		movw r30,r24
 4490 2002 2081      		ld r18,Z
 4491 2004 3181      		ldd r19,Z+1
 4492 2006 8981      		ldd r24,Y+1
 4493 2008 9A81      		ldd r25,Y+2
 4494 200a 880F      		lsl r24
 4495 200c 991F      		rol r25
 4496 200e 880F      		lsl r24
 4497 2010 991F      		rol r25
 4498 2012 820F      		add r24,r18
 4499 2014 931F      		adc r25,r19
 4500 2016 FC01      		movw r30,r24
 4501 2018 8081      		ld r24,Z
 4502 201a 9181      		ldd r25,Z+1
 4503 201c A281      		ldd r26,Z+2
 4504 201e B381      		ldd r27,Z+3
 4505 2020 20E0      		ldi r18,0
 4506 2022 30E0      		ldi r19,0
 4507 2024 A901      		movw r20,r18
 4508 2026 BC01      		movw r22,r24
 4509 2028 CD01      		movw r24,r26
 4510 202a 0E94 0000 		call __nesf2
 4511 202e 8823      		tst r24
 4512 2030 01F4      		brne .+2
 4513 2032 00C0      		rjmp .L114
 315:lp_solve_5.5/lp_scale.c ****           residual_even[i] += (residual_odd[0] / (REAL) RowCount[0]);
 4514               		.loc 1 315 0
 4515 2034 CE01      		movw r24,r28
 4516 2036 8D5A      		subi r24,-83
 4517 2038 9F4F      		sbci r25,-1
 4518 203a DC01      		movw r26,r24
 4519 203c 2D91      		ld r18,X+
 4520 203e 3C91      		ld r19,X
 4521 2040 8981      		ldd r24,Y+1
 4522 2042 9A81      		ldd r25,Y+2
 4523 2044 880F      		lsl r24
 4524 2046 991F      		rol r25
 4525 2048 880F      		lsl r24
 4526 204a 991F      		rol r25
 4527 204c 8901      		movw r16,r18
 4528 204e 080F      		add r16,r24
 4529 2050 191F      		adc r17,r25
 4530 2052 CE01      		movw r24,r28
 4531 2054 8D5A      		subi r24,-83
 4532 2056 9F4F      		sbci r25,-1
 4533 2058 FC01      		movw r30,r24
 4534 205a 2081      		ld r18,Z
 4535 205c 3181      		ldd r19,Z+1
 4536 205e 8981      		ldd r24,Y+1
 4537 2060 9A81      		ldd r25,Y+2
 4538 2062 880F      		lsl r24
 4539 2064 991F      		rol r25
 4540 2066 880F      		lsl r24
 4541 2068 991F      		rol r25
 4542 206a 820F      		add r24,r18
 4543 206c 931F      		adc r25,r19
 4544 206e DC01      		movw r26,r24
 4545 2070 CD90      		ld r12,X+
 4546 2072 DD90      		ld r13,X+
 4547 2074 ED90      		ld r14,X+
 4548 2076 FC90      		ld r15,X
 4549 2078 CE01      		movw r24,r28
 4550 207a 8B5A      		subi r24,-85
 4551 207c 9F4F      		sbci r25,-1
 4552 207e FC01      		movw r30,r24
 4553 2080 8081      		ld r24,Z
 4554 2082 9181      		ldd r25,Z+1
 4555 2084 DC01      		movw r26,r24
 4556 2086 8D90      		ld r8,X+
 4557 2088 9D90      		ld r9,X+
 4558 208a AD90      		ld r10,X+
 4559 208c BC90      		ld r11,X
 4560 208e CE01      		movw r24,r28
 4561 2090 895A      		subi r24,-87
 4562 2092 9F4F      		sbci r25,-1
 4563 2094 FC01      		movw r30,r24
 4564 2096 8081      		ld r24,Z
 4565 2098 9181      		ldd r25,Z+1
 4566 209a DC01      		movw r26,r24
 4567 209c 8D91      		ld r24,X+
 4568 209e 9C91      		ld r25,X
 4569 20a0 092E      		mov __tmp_reg__,r25
 4570 20a2 000C      		lsl r0
 4571 20a4 AA0B      		sbc r26,r26
 4572 20a6 BB0B      		sbc r27,r27
 4573 20a8 BC01      		movw r22,r24
 4574 20aa CD01      		movw r24,r26
 4575 20ac 0E94 0000 		call __floatsisf
 4576 20b0 DC01      		movw r26,r24
 4577 20b2 CB01      		movw r24,r22
 4578 20b4 9C01      		movw r18,r24
 4579 20b6 AD01      		movw r20,r26
 4580 20b8 C501      		movw r24,r10
 4581 20ba B401      		movw r22,r8
 4582 20bc 0E94 0000 		call __divsf3
 4583 20c0 DC01      		movw r26,r24
 4584 20c2 CB01      		movw r24,r22
 4585 20c4 9C01      		movw r18,r24
 4586 20c6 AD01      		movw r20,r26
 4587 20c8 C701      		movw r24,r14
 4588 20ca B601      		movw r22,r12
 4589 20cc 0E94 0000 		call __addsf3
 4590 20d0 DC01      		movw r26,r24
 4591 20d2 CB01      		movw r24,r22
 4592 20d4 F801      		movw r30,r16
 4593 20d6 8083      		st Z,r24
 4594 20d8 9183      		std Z+1,r25
 4595 20da A283      		std Z+2,r26
 4596 20dc B383      		std Z+3,r27
 4597               	.L114:
 313:lp_solve_5.5/lp_scale.c ****         if(lp->orig_obj[i] != 0)
 4598               		.loc 1 313 0 discriminator 2
 4599 20de 8981      		ldd r24,Y+1
 4600 20e0 9A81      		ldd r25,Y+2
 4601 20e2 0196      		adiw r24,1
 4602 20e4 9A83      		std Y+2,r25
 4603 20e6 8983      		std Y+1,r24
 4604               	.L113:
 313:lp_solve_5.5/lp_scale.c ****         if(lp->orig_obj[i] != 0)
 4605               		.loc 1 313 0 is_stmt 0 discriminator 1
 4606 20e8 2981      		ldd r18,Y+1
 4607 20ea 3A81      		ldd r19,Y+2
 4608 20ec 8FA5      		ldd r24,Y+47
 4609 20ee 98A9      		ldd r25,Y+48
 4610 20f0 8217      		cp r24,r18
 4611 20f2 9307      		cpc r25,r19
 4612 20f4 04F0      		brlt .+2
 4613 20f6 00C0      		rjmp .L116
 316:lp_solve_5.5/lp_scale.c **** 
 317:lp_solve_5.5/lp_scale.c ****       rownr = &(COL_MAT_ROWNR(0));
 4614               		.loc 1 317 0 is_stmt 1
 4615 20f8 8BA5      		ldd r24,Y+43
 4616 20fa 9CA5      		ldd r25,Y+44
 4617 20fc DC01      		movw r26,r24
 4618 20fe 1E96      		adiw r26,14
 4619 2100 8D91      		ld r24,X+
 4620 2102 9C91      		ld r25,X
 4621 2104 1F97      		sbiw r26,14+1
 4622 2106 98A7      		std Y+40,r25
 4623 2108 8FA3      		std Y+39,r24
 318:lp_solve_5.5/lp_scale.c ****       colnr = &(COL_MAT_COLNR(0));
 4624               		.loc 1 318 0
 4625 210a 8BA5      		ldd r24,Y+43
 4626 210c 9CA5      		ldd r25,Y+44
 4627 210e FC01      		movw r30,r24
 4628 2110 8485      		ldd r24,Z+12
 4629 2112 9585      		ldd r25,Z+13
 4630 2114 9AA7      		std Y+42,r25
 4631 2116 89A7      		std Y+41,r24
 319:lp_solve_5.5/lp_scale.c ****       for(i = 0; i < nz;
 4632               		.loc 1 319 0
 4633 2118 1A82      		std Y+2,__zero_reg__
 4634 211a 1982      		std Y+1,__zero_reg__
 4635 211c 00C0      		rjmp .L117
 4636               	.L118:
 320:lp_solve_5.5/lp_scale.c ****           i++, rownr += matRowColStep, colnr += matRowColStep) {
 321:lp_solve_5.5/lp_scale.c ****         residual_even[*colnr] += (residual_odd[*rownr] / (REAL) RowCount[*rownr]);
 4637               		.loc 1 321 0
 4638 211e CE01      		movw r24,r28
 4639 2120 8D5A      		subi r24,-83
 4640 2122 9F4F      		sbci r25,-1
 4641 2124 DC01      		movw r26,r24
 4642 2126 2D91      		ld r18,X+
 4643 2128 3C91      		ld r19,X
 4644 212a 89A5      		ldd r24,Y+41
 4645 212c 9AA5      		ldd r25,Y+42
 4646 212e FC01      		movw r30,r24
 4647 2130 8081      		ld r24,Z
 4648 2132 9181      		ldd r25,Z+1
 4649 2134 880F      		lsl r24
 4650 2136 991F      		rol r25
 4651 2138 880F      		lsl r24
 4652 213a 991F      		rol r25
 4653 213c 8901      		movw r16,r18
 4654 213e 080F      		add r16,r24
 4655 2140 191F      		adc r17,r25
 4656 2142 CE01      		movw r24,r28
 4657 2144 8D5A      		subi r24,-83
 4658 2146 9F4F      		sbci r25,-1
 4659 2148 DC01      		movw r26,r24
 4660 214a 2D91      		ld r18,X+
 4661 214c 3C91      		ld r19,X
 4662 214e 89A5      		ldd r24,Y+41
 4663 2150 9AA5      		ldd r25,Y+42
 4664 2152 FC01      		movw r30,r24
 4665 2154 8081      		ld r24,Z
 4666 2156 9181      		ldd r25,Z+1
 4667 2158 880F      		lsl r24
 4668 215a 991F      		rol r25
 4669 215c 880F      		lsl r24
 4670 215e 991F      		rol r25
 4671 2160 820F      		add r24,r18
 4672 2162 931F      		adc r25,r19
 4673 2164 DC01      		movw r26,r24
 4674 2166 CD90      		ld r12,X+
 4675 2168 DD90      		ld r13,X+
 4676 216a ED90      		ld r14,X+
 4677 216c FC90      		ld r15,X
 4678 216e CE01      		movw r24,r28
 4679 2170 8B5A      		subi r24,-85
 4680 2172 9F4F      		sbci r25,-1
 4681 2174 FC01      		movw r30,r24
 4682 2176 2081      		ld r18,Z
 4683 2178 3181      		ldd r19,Z+1
 4684 217a 8FA1      		ldd r24,Y+39
 4685 217c 98A5      		ldd r25,Y+40
 4686 217e DC01      		movw r26,r24
 4687 2180 8D91      		ld r24,X+
 4688 2182 9C91      		ld r25,X
 4689 2184 880F      		lsl r24
 4690 2186 991F      		rol r25
 4691 2188 880F      		lsl r24
 4692 218a 991F      		rol r25
 4693 218c 820F      		add r24,r18
 4694 218e 931F      		adc r25,r19
 4695 2190 FC01      		movw r30,r24
 4696 2192 8080      		ld r8,Z
 4697 2194 9180      		ldd r9,Z+1
 4698 2196 A280      		ldd r10,Z+2
 4699 2198 B380      		ldd r11,Z+3
 4700 219a CE01      		movw r24,r28
 4701 219c 895A      		subi r24,-87
 4702 219e 9F4F      		sbci r25,-1
 4703 21a0 DC01      		movw r26,r24
 4704 21a2 2D91      		ld r18,X+
 4705 21a4 3C91      		ld r19,X
 4706 21a6 8FA1      		ldd r24,Y+39
 4707 21a8 98A5      		ldd r25,Y+40
 4708 21aa FC01      		movw r30,r24
 4709 21ac 8081      		ld r24,Z
 4710 21ae 9181      		ldd r25,Z+1
 4711 21b0 880F      		lsl r24
 4712 21b2 991F      		rol r25
 4713 21b4 820F      		add r24,r18
 4714 21b6 931F      		adc r25,r19
 4715 21b8 DC01      		movw r26,r24
 4716 21ba 8D91      		ld r24,X+
 4717 21bc 9C91      		ld r25,X
 4718 21be 092E      		mov __tmp_reg__,r25
 4719 21c0 000C      		lsl r0
 4720 21c2 AA0B      		sbc r26,r26
 4721 21c4 BB0B      		sbc r27,r27
 4722 21c6 BC01      		movw r22,r24
 4723 21c8 CD01      		movw r24,r26
 4724 21ca 0E94 0000 		call __floatsisf
 4725 21ce DC01      		movw r26,r24
 4726 21d0 CB01      		movw r24,r22
 4727 21d2 9C01      		movw r18,r24
 4728 21d4 AD01      		movw r20,r26
 4729 21d6 C501      		movw r24,r10
 4730 21d8 B401      		movw r22,r8
 4731 21da 0E94 0000 		call __divsf3
 4732 21de DC01      		movw r26,r24
 4733 21e0 CB01      		movw r24,r22
 4734 21e2 9C01      		movw r18,r24
 4735 21e4 AD01      		movw r20,r26
 4736 21e6 C701      		movw r24,r14
 4737 21e8 B601      		movw r22,r12
 4738 21ea 0E94 0000 		call __addsf3
 4739 21ee DC01      		movw r26,r24
 4740 21f0 CB01      		movw r24,r22
 4741 21f2 F801      		movw r30,r16
 4742 21f4 8083      		st Z,r24
 4743 21f6 9183      		std Z+1,r25
 4744 21f8 A283      		std Z+2,r26
 4745 21fa B383      		std Z+3,r27
 320:lp_solve_5.5/lp_scale.c ****           i++, rownr += matRowColStep, colnr += matRowColStep) {
 4746               		.loc 1 320 0
 4747 21fc 8981      		ldd r24,Y+1
 4748 21fe 9A81      		ldd r25,Y+2
 4749 2200 0196      		adiw r24,1
 4750 2202 9A83      		std Y+2,r25
 4751 2204 8983      		std Y+1,r24
 4752 2206 8FA1      		ldd r24,Y+39
 4753 2208 98A5      		ldd r25,Y+40
 4754 220a 0296      		adiw r24,2
 4755 220c 98A7      		std Y+40,r25
 4756 220e 8FA3      		std Y+39,r24
 4757 2210 89A5      		ldd r24,Y+41
 4758 2212 9AA5      		ldd r25,Y+42
 4759 2214 0296      		adiw r24,2
 4760 2216 9AA7      		std Y+42,r25
 4761 2218 89A7      		std Y+41,r24
 4762               	.L117:
 319:lp_solve_5.5/lp_scale.c ****       for(i = 0; i < nz;
 4763               		.loc 1 319 0 discriminator 1
 4764 221a 2981      		ldd r18,Y+1
 4765 221c 3A81      		ldd r19,Y+2
 4766 221e 8DA5      		ldd r24,Y+45
 4767 2220 9EA5      		ldd r25,Y+46
 4768 2222 2817      		cp r18,r24
 4769 2224 3907      		cpc r19,r25
 4770 2226 04F4      		brge .+2
 4771 2228 00C0      		rjmp .L118
 322:lp_solve_5.5/lp_scale.c ****       }
 323:lp_solve_5.5/lp_scale.c ****       for(col = 1; col <= colMax; col++)
 4772               		.loc 1 323 0
 4773 222a 81E0      		ldi r24,lo8(1)
 4774 222c 90E0      		ldi r25,0
 4775 222e 9E83      		std Y+6,r25
 4776 2230 8D83      		std Y+5,r24
 4777 2232 00C0      		rjmp .L119
 4778               	.L120:
 324:lp_solve_5.5/lp_scale.c ****         residual_even[col] *= (-1 / qk);
 4779               		.loc 1 324 0 discriminator 3
 4780 2234 CE01      		movw r24,r28
 4781 2236 8D5A      		subi r24,-83
 4782 2238 9F4F      		sbci r25,-1
 4783 223a DC01      		movw r26,r24
 4784 223c 2D91      		ld r18,X+
 4785 223e 3C91      		ld r19,X
 4786 2240 8D81      		ldd r24,Y+5
 4787 2242 9E81      		ldd r25,Y+6
 4788 2244 880F      		lsl r24
 4789 2246 991F      		rol r25
 4790 2248 880F      		lsl r24
 4791 224a 991F      		rol r25
 4792 224c 8901      		movw r16,r18
 4793 224e 080F      		add r16,r24
 4794 2250 191F      		adc r17,r25
 4795 2252 CE01      		movw r24,r28
 4796 2254 8D5A      		subi r24,-83
 4797 2256 9F4F      		sbci r25,-1
 4798 2258 FC01      		movw r30,r24
 4799 225a 2081      		ld r18,Z
 4800 225c 3181      		ldd r19,Z+1
 4801 225e 8D81      		ldd r24,Y+5
 4802 2260 9E81      		ldd r25,Y+6
 4803 2262 880F      		lsl r24
 4804 2264 991F      		rol r25
 4805 2266 880F      		lsl r24
 4806 2268 991F      		rol r25
 4807 226a 820F      		add r24,r18
 4808 226c 931F      		adc r25,r19
 4809 226e DC01      		movw r26,r24
 4810 2270 CD90      		ld r12,X+
 4811 2272 DD90      		ld r13,X+
 4812 2274 ED90      		ld r14,X+
 4813 2276 FC90      		ld r15,X
 4814 2278 2B85      		ldd r18,Y+11
 4815 227a 3C85      		ldd r19,Y+12
 4816 227c 4D85      		ldd r20,Y+13
 4817 227e 5E85      		ldd r21,Y+14
 4818 2280 60E0      		ldi r22,0
 4819 2282 70E0      		ldi r23,0
 4820 2284 80E8      		ldi r24,lo8(-128)
 4821 2286 9FEB      		ldi r25,lo8(-65)
 4822 2288 0E94 0000 		call __divsf3
 4823 228c DC01      		movw r26,r24
 4824 228e CB01      		movw r24,r22
 4825 2290 9C01      		movw r18,r24
 4826 2292 AD01      		movw r20,r26
 4827 2294 C701      		movw r24,r14
 4828 2296 B601      		movw r22,r12
 4829 2298 0E94 0000 		call __mulsf3
 4830 229c DC01      		movw r26,r24
 4831 229e CB01      		movw r24,r22
 4832 22a0 F801      		movw r30,r16
 4833 22a2 8083      		st Z,r24
 4834 22a4 9183      		std Z+1,r25
 4835 22a6 A283      		std Z+2,r26
 4836 22a8 B383      		std Z+3,r27
 323:lp_solve_5.5/lp_scale.c ****         residual_even[col] *= (-1 / qk);
 4837               		.loc 1 323 0 discriminator 3
 4838 22aa 8D81      		ldd r24,Y+5
 4839 22ac 9E81      		ldd r25,Y+6
 4840 22ae 0196      		adiw r24,1
 4841 22b0 9E83      		std Y+6,r25
 4842 22b2 8D83      		std Y+5,r24
 4843               	.L119:
 323:lp_solve_5.5/lp_scale.c ****         residual_even[col] *= (-1 / qk);
 4844               		.loc 1 323 0 is_stmt 0 discriminator 1
 4845 22b4 2D81      		ldd r18,Y+5
 4846 22b6 3E81      		ldd r19,Y+6
 4847 22b8 8FA5      		ldd r24,Y+47
 4848 22ba 98A9      		ldd r25,Y+48
 4849 22bc 8217      		cp r24,r18
 4850 22be 9307      		cpc r25,r19
 4851 22c0 04F0      		brlt .+2
 4852 22c2 00C0      		rjmp .L120
 325:lp_solve_5.5/lp_scale.c **** 
 326:lp_solve_5.5/lp_scale.c ****       /* sk */
 327:lp_solve_5.5/lp_scale.c ****       skm1 = sk;
 4853               		.loc 1 327 0 is_stmt 1
 4854 22c4 8F81      		ldd r24,Y+7
 4855 22c6 9885      		ldd r25,Y+8
 4856 22c8 A985      		ldd r26,Y+9
 4857 22ca BA85      		ldd r27,Y+10
 4858 22cc 8B8B      		std Y+19,r24
 4859 22ce 9C8B      		std Y+20,r25
 4860 22d0 AD8B      		std Y+21,r26
 4861 22d2 BE8B      		std Y+22,r27
 328:lp_solve_5.5/lp_scale.c ****       sk = 0;
 4862               		.loc 1 328 0
 4863 22d4 1F82      		std Y+7,__zero_reg__
 4864 22d6 1886      		std Y+8,__zero_reg__
 4865 22d8 1986      		std Y+9,__zero_reg__
 4866 22da 1A86      		std Y+10,__zero_reg__
 329:lp_solve_5.5/lp_scale.c ****       for(col = 1; col <= colMax; col++)
 4867               		.loc 1 329 0
 4868 22dc 81E0      		ldi r24,lo8(1)
 4869 22de 90E0      		ldi r25,0
 4870 22e0 9E83      		std Y+6,r25
 4871 22e2 8D83      		std Y+5,r24
 4872 22e4 00C0      		rjmp .L121
 4873               	.L122:
 330:lp_solve_5.5/lp_scale.c ****         sk += (residual_even[col]*residual_even[col]) / (REAL) ColCount[col];
 4874               		.loc 1 330 0 discriminator 3
 4875 22e6 CE01      		movw r24,r28
 4876 22e8 8D5A      		subi r24,-83
 4877 22ea 9F4F      		sbci r25,-1
 4878 22ec DC01      		movw r26,r24
 4879 22ee 2D91      		ld r18,X+
 4880 22f0 3C91      		ld r19,X
 4881 22f2 8D81      		ldd r24,Y+5
 4882 22f4 9E81      		ldd r25,Y+6
 4883 22f6 880F      		lsl r24
 4884 22f8 991F      		rol r25
 4885 22fa 880F      		lsl r24
 4886 22fc 991F      		rol r25
 4887 22fe 820F      		add r24,r18
 4888 2300 931F      		adc r25,r19
 4889 2302 FC01      		movw r30,r24
 4890 2304 8081      		ld r24,Z
 4891 2306 9181      		ldd r25,Z+1
 4892 2308 A281      		ldd r26,Z+2
 4893 230a B381      		ldd r27,Z+3
 4894 230c 9E01      		movw r18,r28
 4895 230e 2D5A      		subi r18,-83
 4896 2310 3F4F      		sbci r19,-1
 4897 2312 F901      		movw r30,r18
 4898 2314 4081      		ld r20,Z
 4899 2316 5181      		ldd r21,Z+1
 4900 2318 2D81      		ldd r18,Y+5
 4901 231a 3E81      		ldd r19,Y+6
 4902 231c 220F      		lsl r18
 4903 231e 331F      		rol r19
 4904 2320 220F      		lsl r18
 4905 2322 331F      		rol r19
 4906 2324 240F      		add r18,r20
 4907 2326 351F      		adc r19,r21
 4908 2328 F901      		movw r30,r18
 4909 232a 2081      		ld r18,Z
 4910 232c 3181      		ldd r19,Z+1
 4911 232e 4281      		ldd r20,Z+2
 4912 2330 5381      		ldd r21,Z+3
 4913 2332 BC01      		movw r22,r24
 4914 2334 CD01      		movw r24,r26
 4915 2336 0E94 0000 		call __mulsf3
 4916 233a DC01      		movw r26,r24
 4917 233c CB01      		movw r24,r22
 4918 233e 6C01      		movw r12,r24
 4919 2340 7D01      		movw r14,r26
 4920 2342 CE01      		movw r24,r28
 4921 2344 875A      		subi r24,-89
 4922 2346 9F4F      		sbci r25,-1
 4923 2348 DC01      		movw r26,r24
 4924 234a 2D91      		ld r18,X+
 4925 234c 3C91      		ld r19,X
 4926 234e 8D81      		ldd r24,Y+5
 4927 2350 9E81      		ldd r25,Y+6
 4928 2352 880F      		lsl r24
 4929 2354 991F      		rol r25
 4930 2356 820F      		add r24,r18
 4931 2358 931F      		adc r25,r19
 4932 235a FC01      		movw r30,r24
 4933 235c 8081      		ld r24,Z
 4934 235e 9181      		ldd r25,Z+1
 4935 2360 092E      		mov __tmp_reg__,r25
 4936 2362 000C      		lsl r0
 4937 2364 AA0B      		sbc r26,r26
 4938 2366 BB0B      		sbc r27,r27
 4939 2368 BC01      		movw r22,r24
 4940 236a CD01      		movw r24,r26
 4941 236c 0E94 0000 		call __floatsisf
 4942 2370 DC01      		movw r26,r24
 4943 2372 CB01      		movw r24,r22
 4944 2374 9C01      		movw r18,r24
 4945 2376 AD01      		movw r20,r26
 4946 2378 C701      		movw r24,r14
 4947 237a B601      		movw r22,r12
 4948 237c 0E94 0000 		call __divsf3
 4949 2380 DC01      		movw r26,r24
 4950 2382 CB01      		movw r24,r22
 4951 2384 9C01      		movw r18,r24
 4952 2386 AD01      		movw r20,r26
 4953 2388 6F81      		ldd r22,Y+7
 4954 238a 7885      		ldd r23,Y+8
 4955 238c 8985      		ldd r24,Y+9
 4956 238e 9A85      		ldd r25,Y+10
 4957 2390 0E94 0000 		call __addsf3
 4958 2394 DC01      		movw r26,r24
 4959 2396 CB01      		movw r24,r22
 4960 2398 8F83      		std Y+7,r24
 4961 239a 9887      		std Y+8,r25
 4962 239c A987      		std Y+9,r26
 4963 239e BA87      		std Y+10,r27
 329:lp_solve_5.5/lp_scale.c ****       for(col = 1; col <= colMax; col++)
 4964               		.loc 1 329 0 discriminator 3
 4965 23a0 8D81      		ldd r24,Y+5
 4966 23a2 9E81      		ldd r25,Y+6
 4967 23a4 0196      		adiw r24,1
 4968 23a6 9E83      		std Y+6,r25
 4969 23a8 8D83      		std Y+5,r24
 4970               	.L121:
 329:lp_solve_5.5/lp_scale.c ****       for(col = 1; col <= colMax; col++)
 4971               		.loc 1 329 0 is_stmt 0 discriminator 1
 4972 23aa 2D81      		ldd r18,Y+5
 4973 23ac 3E81      		ldd r19,Y+6
 4974 23ae 8FA5      		ldd r24,Y+47
 4975 23b0 98A9      		ldd r25,Y+48
 4976 23b2 8217      		cp r24,r18
 4977 23b4 9307      		cpc r25,r19
 4978 23b6 04F0      		brlt .+2
 4979 23b8 00C0      		rjmp .L122
 4980               	.L110:
 331:lp_solve_5.5/lp_scale.c ****     }
 332:lp_solve_5.5/lp_scale.c **** 
 333:lp_solve_5.5/lp_scale.c ****     /* Compute ek and qk */
 334:lp_solve_5.5/lp_scale.c ****     ekm2=ekm1;
 4981               		.loc 1 334 0 is_stmt 1
 4982 23ba 9E01      		movw r18,r28
 4983 23bc 215C      		subi r18,-63
 4984 23be 3F4F      		sbci r19,-1
 4985 23c0 8B8D      		ldd r24,Y+27
 4986 23c2 9C8D      		ldd r25,Y+28
 4987 23c4 AD8D      		ldd r26,Y+29
 4988 23c6 BE8D      		ldd r27,Y+30
 4989 23c8 F901      		movw r30,r18
 4990 23ca 8083      		st Z,r24
 4991 23cc 9183      		std Z+1,r25
 4992 23ce A283      		std Z+2,r26
 4993 23d0 B383      		std Z+3,r27
 335:lp_solve_5.5/lp_scale.c ****     ekm1=ek;
 4994               		.loc 1 335 0
 4995 23d2 8F85      		ldd r24,Y+15
 4996 23d4 9889      		ldd r25,Y+16
 4997 23d6 A989      		ldd r26,Y+17
 4998 23d8 BA89      		ldd r27,Y+18
 4999 23da 8B8F      		std Y+27,r24
 5000 23dc 9C8F      		std Y+28,r25
 5001 23de AD8F      		std Y+29,r26
 5002 23e0 BE8F      		std Y+30,r27
 336:lp_solve_5.5/lp_scale.c ****     ek=qk * sk / skm1;
 5003               		.loc 1 336 0
 5004 23e2 2F81      		ldd r18,Y+7
 5005 23e4 3885      		ldd r19,Y+8
 5006 23e6 4985      		ldd r20,Y+9
 5007 23e8 5A85      		ldd r21,Y+10
 5008 23ea 6B85      		ldd r22,Y+11
 5009 23ec 7C85      		ldd r23,Y+12
 5010 23ee 8D85      		ldd r24,Y+13
 5011 23f0 9E85      		ldd r25,Y+14
 5012 23f2 0E94 0000 		call __mulsf3
 5013 23f6 DC01      		movw r26,r24
 5014 23f8 CB01      		movw r24,r22
 5015 23fa 2B89      		ldd r18,Y+19
 5016 23fc 3C89      		ldd r19,Y+20
 5017 23fe 4D89      		ldd r20,Y+21
 5018 2400 5E89      		ldd r21,Y+22
 5019 2402 BC01      		movw r22,r24
 5020 2404 CD01      		movw r24,r26
 5021 2406 0E94 0000 		call __divsf3
 5022 240a DC01      		movw r26,r24
 5023 240c CB01      		movw r24,r22
 5024 240e 8F87      		std Y+15,r24
 5025 2410 988B      		std Y+16,r25
 5026 2412 A98B      		std Y+17,r26
 5027 2414 BA8B      		std Y+18,r27
 337:lp_solve_5.5/lp_scale.c **** 
 338:lp_solve_5.5/lp_scale.c ****     qkm2=qkm1;
 5028               		.loc 1 338 0
 5029 2416 8F89      		ldd r24,Y+23
 5030 2418 988D      		ldd r25,Y+24
 5031 241a A98D      		ldd r26,Y+25
 5032 241c BA8D      		ldd r27,Y+26
 5033 241e 8BAF      		std Y+59,r24
 5034 2420 9CAF      		std Y+60,r25
 5035 2422 ADAF      		std Y+61,r26
 5036 2424 BEAF      		std Y+62,r27
 339:lp_solve_5.5/lp_scale.c ****     qkm1=qk;
 5037               		.loc 1 339 0
 5038 2426 8B85      		ldd r24,Y+11
 5039 2428 9C85      		ldd r25,Y+12
 5040 242a AD85      		ldd r26,Y+13
 5041 242c BE85      		ldd r27,Y+14
 5042 242e 8F8B      		std Y+23,r24
 5043 2430 988F      		std Y+24,r25
 5044 2432 A98F      		std Y+25,r26
 5045 2434 BA8F      		std Y+26,r27
 340:lp_solve_5.5/lp_scale.c ****     qk=1-ek;
 5046               		.loc 1 340 0
 5047 2436 2F85      		ldd r18,Y+15
 5048 2438 3889      		ldd r19,Y+16
 5049 243a 4989      		ldd r20,Y+17
 5050 243c 5A89      		ldd r21,Y+18
 5051 243e 60E0      		ldi r22,0
 5052 2440 70E0      		ldi r23,0
 5053 2442 80E8      		ldi r24,lo8(-128)
 5054 2444 9FE3      		ldi r25,lo8(63)
 5055 2446 0E94 0000 		call __subsf3
 5056 244a DC01      		movw r26,r24
 5057 244c CB01      		movw r24,r22
 5058 244e 8B87      		std Y+11,r24
 5059 2450 9C87      		std Y+12,r25
 5060 2452 AD87      		std Y+13,r26
 5061 2454 BE87      		std Y+14,r27
 341:lp_solve_5.5/lp_scale.c **** 
 342:lp_solve_5.5/lp_scale.c ****     Result++;
 5062               		.loc 1 342 0
 5063 2456 8BA1      		ldd r24,Y+35
 5064 2458 9CA1      		ldd r25,Y+36
 5065 245a 0196      		adiw r24,1
 5066 245c 9CA3      		std Y+36,r25
 5067 245e 8BA3      		std Y+35,r24
 5068               	.L80:
 251:lp_solve_5.5/lp_scale.c ****   /* Given the values of residual and sk, construct
 5069               		.loc 1 251 0
 5070 2460 2DA9      		ldd r18,Y+53
 5071 2462 3EA9      		ldd r19,Y+54
 5072 2464 4FA9      		ldd r20,Y+55
 5073 2466 58AD      		ldd r21,Y+56
 5074 2468 6F81      		ldd r22,Y+7
 5075 246a 7885      		ldd r23,Y+8
 5076 246c 8985      		ldd r24,Y+9
 5077 246e 9A85      		ldd r25,Y+10
 5078 2470 0E94 0000 		call __gtsf2
 5079 2474 1816      		cp __zero_reg__,r24
 5080 2476 04F4      		brge .+2
 5081 2478 00C0      		rjmp .L123
 343:lp_solve_5.5/lp_scale.c ****   }
 344:lp_solve_5.5/lp_scale.c **** 
 345:lp_solve_5.5/lp_scale.c ****   /* Synchronize the RowScale and ColScale vectors */
 346:lp_solve_5.5/lp_scale.c ****   ekekm1 = ek * ekm1;
 5082               		.loc 1 346 0
 5083 247a 8E01      		movw r16,r28
 5084 247c 095B      		subi r16,-71
 5085 247e 1F4F      		sbci r17,-1
 5086 2480 2B8D      		ldd r18,Y+27
 5087 2482 3C8D      		ldd r19,Y+28
 5088 2484 4D8D      		ldd r20,Y+29
 5089 2486 5E8D      		ldd r21,Y+30
 5090 2488 6F85      		ldd r22,Y+15
 5091 248a 7889      		ldd r23,Y+16
 5092 248c 8989      		ldd r24,Y+17
 5093 248e 9A89      		ldd r25,Y+18
 5094 2490 0E94 0000 		call __mulsf3
 5095 2494 DC01      		movw r26,r24
 5096 2496 CB01      		movw r24,r22
 5097 2498 F801      		movw r30,r16
 5098 249a 8083      		st Z,r24
 5099 249c 9183      		std Z+1,r25
 5100 249e A283      		std Z+2,r26
 5101 24a0 B383      		std Z+3,r27
 347:lp_solve_5.5/lp_scale.c ****   if(qkm1 != 0) {
 5102               		.loc 1 347 0
 5103 24a2 20E0      		ldi r18,0
 5104 24a4 30E0      		ldi r19,0
 5105 24a6 A901      		movw r20,r18
 5106 24a8 6F89      		ldd r22,Y+23
 5107 24aa 788D      		ldd r23,Y+24
 5108 24ac 898D      		ldd r24,Y+25
 5109 24ae 9A8D      		ldd r25,Y+26
 5110 24b0 0E94 0000 		call __nesf2
 5111 24b4 8823      		tst r24
 5112 24b6 01F4      		brne .+2
 5113 24b8 00C0      		rjmp .L169
 348:lp_solve_5.5/lp_scale.c ****   if((Result % 2) == 0) { /* pass is even, compute RowScale */
 5114               		.loc 1 348 0
 5115 24ba 8BA1      		ldd r24,Y+35
 5116 24bc 9CA1      		ldd r25,Y+36
 5117 24be 8170      		andi r24,1
 5118 24c0 9927      		clr r25
 5119 24c2 892B      		or r24,r25
 5120 24c4 01F0      		breq .+2
 5121 24c6 00C0      		rjmp .L126
 349:lp_solve_5.5/lp_scale.c ****     for(row = 0; row<=lp->rows; row++)
 5122               		.loc 1 349 0
 5123 24c8 1C82      		std Y+4,__zero_reg__
 5124 24ca 1B82      		std Y+3,__zero_reg__
 5125 24cc 00C0      		rjmp .L127
 5126               	.L128:
 350:lp_solve_5.5/lp_scale.c ****       FRowScale[row]*=(1.0 + ekekm1 / qkm1);
 5127               		.loc 1 350 0 discriminator 3
 5128 24ce 8B81      		ldd r24,Y+3
 5129 24d0 9C81      		ldd r25,Y+4
 5130 24d2 880F      		lsl r24
 5131 24d4 991F      		rol r25
 5132 24d6 880F      		lsl r24
 5133 24d8 991F      		rol r25
 5134 24da 9E01      		movw r18,r28
 5135 24dc 225A      		subi r18,-94
 5136 24de 3F4F      		sbci r19,-1
 5137 24e0 D901      		movw r26,r18
 5138 24e2 2D91      		ld r18,X+
 5139 24e4 3C91      		ld r19,X
 5140 24e6 8901      		movw r16,r18
 5141 24e8 080F      		add r16,r24
 5142 24ea 191F      		adc r17,r25
 5143 24ec 8B81      		ldd r24,Y+3
 5144 24ee 9C81      		ldd r25,Y+4
 5145 24f0 880F      		lsl r24
 5146 24f2 991F      		rol r25
 5147 24f4 880F      		lsl r24
 5148 24f6 991F      		rol r25
 5149 24f8 9E01      		movw r18,r28
 5150 24fa 225A      		subi r18,-94
 5151 24fc 3F4F      		sbci r19,-1
 5152 24fe F901      		movw r30,r18
 5153 2500 2081      		ld r18,Z
 5154 2502 3181      		ldd r19,Z+1
 5155 2504 820F      		add r24,r18
 5156 2506 931F      		adc r25,r19
 5157 2508 DC01      		movw r26,r24
 5158 250a CD90      		ld r12,X+
 5159 250c DD90      		ld r13,X+
 5160 250e ED90      		ld r14,X+
 5161 2510 FC90      		ld r15,X
 5162 2512 CE01      		movw r24,r28
 5163 2514 895B      		subi r24,-71
 5164 2516 9F4F      		sbci r25,-1
 5165 2518 2F89      		ldd r18,Y+23
 5166 251a 388D      		ldd r19,Y+24
 5167 251c 498D      		ldd r20,Y+25
 5168 251e 5A8D      		ldd r21,Y+26
 5169 2520 FC01      		movw r30,r24
 5170 2522 6081      		ld r22,Z
 5171 2524 7181      		ldd r23,Z+1
 5172 2526 8281      		ldd r24,Z+2
 5173 2528 9381      		ldd r25,Z+3
 5174 252a 0E94 0000 		call __divsf3
 5175 252e DC01      		movw r26,r24
 5176 2530 CB01      		movw r24,r22
 5177 2532 20E0      		ldi r18,0
 5178 2534 30E0      		ldi r19,0
 5179 2536 40E8      		ldi r20,lo8(-128)
 5180 2538 5FE3      		ldi r21,lo8(63)
 5181 253a BC01      		movw r22,r24
 5182 253c CD01      		movw r24,r26
 5183 253e 0E94 0000 		call __addsf3
 5184 2542 DC01      		movw r26,r24
 5185 2544 CB01      		movw r24,r22
 5186 2546 9C01      		movw r18,r24
 5187 2548 AD01      		movw r20,r26
 5188 254a C701      		movw r24,r14
 5189 254c B601      		movw r22,r12
 5190 254e 0E94 0000 		call __mulsf3
 5191 2552 DC01      		movw r26,r24
 5192 2554 CB01      		movw r24,r22
 5193 2556 F801      		movw r30,r16
 5194 2558 8083      		st Z,r24
 5195 255a 9183      		std Z+1,r25
 5196 255c A283      		std Z+2,r26
 5197 255e B383      		std Z+3,r27
 349:lp_solve_5.5/lp_scale.c ****     for(row = 0; row<=lp->rows; row++)
 5198               		.loc 1 349 0 discriminator 3
 5199 2560 8B81      		ldd r24,Y+3
 5200 2562 9C81      		ldd r25,Y+4
 5201 2564 0196      		adiw r24,1
 5202 2566 9C83      		std Y+4,r25
 5203 2568 8B83      		std Y+3,r24
 5204               	.L127:
 349:lp_solve_5.5/lp_scale.c ****     for(row = 0; row<=lp->rows; row++)
 5205               		.loc 1 349 0 is_stmt 0 discriminator 1
 5206 256a CE01      		movw r24,r28
 5207 256c 855A      		subi r24,-91
 5208 256e 9F4F      		sbci r25,-1
 5209 2570 DC01      		movw r26,r24
 5210 2572 8D91      		ld r24,X+
 5211 2574 9C91      		ld r25,X
 5212 2576 8651      		subi r24,22
 5213 2578 9E4F      		sbci r25,-2
 5214 257a FC01      		movw r30,r24
 5215 257c 2081      		ld r18,Z
 5216 257e 3181      		ldd r19,Z+1
 5217 2580 8B81      		ldd r24,Y+3
 5218 2582 9C81      		ldd r25,Y+4
 5219 2584 2817      		cp r18,r24
 5220 2586 3907      		cpc r19,r25
 5221 2588 04F0      		brlt .+2
 5222 258a 00C0      		rjmp .L128
 351:lp_solve_5.5/lp_scale.c ****     for(row = 0; row<=lp->rows; row++)
 5223               		.loc 1 351 0 is_stmt 1
 5224 258c 1C82      		std Y+4,__zero_reg__
 5225 258e 1B82      		std Y+3,__zero_reg__
 5226 2590 00C0      		rjmp .L129
 5227               	.L130:
 352:lp_solve_5.5/lp_scale.c ****       FRowScale[row]+=(residual_odd[row] / (qkm1 * (REAL) RowCount[row]) -
 5228               		.loc 1 352 0 discriminator 3
 5229 2592 8B81      		ldd r24,Y+3
 5230 2594 9C81      		ldd r25,Y+4
 5231 2596 880F      		lsl r24
 5232 2598 991F      		rol r25
 5233 259a 880F      		lsl r24
 5234 259c 991F      		rol r25
 5235 259e 9E01      		movw r18,r28
 5236 25a0 225A      		subi r18,-94
 5237 25a2 3F4F      		sbci r19,-1
 5238 25a4 D901      		movw r26,r18
 5239 25a6 2D91      		ld r18,X+
 5240 25a8 3C91      		ld r19,X
 5241 25aa 8901      		movw r16,r18
 5242 25ac 080F      		add r16,r24
 5243 25ae 191F      		adc r17,r25
 5244 25b0 8B81      		ldd r24,Y+3
 5245 25b2 9C81      		ldd r25,Y+4
 5246 25b4 880F      		lsl r24
 5247 25b6 991F      		rol r25
 5248 25b8 880F      		lsl r24
 5249 25ba 991F      		rol r25
 5250 25bc 9E01      		movw r18,r28
 5251 25be 225A      		subi r18,-94
 5252 25c0 3F4F      		sbci r19,-1
 5253 25c2 F901      		movw r30,r18
 5254 25c4 2081      		ld r18,Z
 5255 25c6 3181      		ldd r19,Z+1
 5256 25c8 820F      		add r24,r18
 5257 25ca 931F      		adc r25,r19
 5258 25cc DC01      		movw r26,r24
 5259 25ce CD90      		ld r12,X+
 5260 25d0 DD90      		ld r13,X+
 5261 25d2 ED90      		ld r14,X+
 5262 25d4 FC90      		ld r15,X
 5263 25d6 CE01      		movw r24,r28
 5264 25d8 8B5A      		subi r24,-85
 5265 25da 9F4F      		sbci r25,-1
 5266 25dc FC01      		movw r30,r24
 5267 25de 2081      		ld r18,Z
 5268 25e0 3181      		ldd r19,Z+1
 5269 25e2 8B81      		ldd r24,Y+3
 5270 25e4 9C81      		ldd r25,Y+4
 5271 25e6 880F      		lsl r24
 5272 25e8 991F      		rol r25
 5273 25ea 880F      		lsl r24
 5274 25ec 991F      		rol r25
 5275 25ee 820F      		add r24,r18
 5276 25f0 931F      		adc r25,r19
 5277 25f2 DC01      		movw r26,r24
 5278 25f4 8D90      		ld r8,X+
 5279 25f6 9D90      		ld r9,X+
 5280 25f8 AD90      		ld r10,X+
 5281 25fa BC90      		ld r11,X
 5282 25fc CE01      		movw r24,r28
 5283 25fe 895A      		subi r24,-87
 5284 2600 9F4F      		sbci r25,-1
 5285 2602 FC01      		movw r30,r24
 5286 2604 2081      		ld r18,Z
 5287 2606 3181      		ldd r19,Z+1
 5288 2608 8B81      		ldd r24,Y+3
 5289 260a 9C81      		ldd r25,Y+4
 5290 260c 880F      		lsl r24
 5291 260e 991F      		rol r25
 5292 2610 820F      		add r24,r18
 5293 2612 931F      		adc r25,r19
 5294 2614 DC01      		movw r26,r24
 5295 2616 8D91      		ld r24,X+
 5296 2618 9C91      		ld r25,X
 5297 261a 092E      		mov __tmp_reg__,r25
 5298 261c 000C      		lsl r0
 5299 261e AA0B      		sbc r26,r26
 5300 2620 BB0B      		sbc r27,r27
 5301 2622 BC01      		movw r22,r24
 5302 2624 CD01      		movw r24,r26
 5303 2626 0E94 0000 		call __floatsisf
 5304 262a DC01      		movw r26,r24
 5305 262c CB01      		movw r24,r22
 5306 262e 2F89      		ldd r18,Y+23
 5307 2630 388D      		ldd r19,Y+24
 5308 2632 498D      		ldd r20,Y+25
 5309 2634 5A8D      		ldd r21,Y+26
 5310 2636 BC01      		movw r22,r24
 5311 2638 CD01      		movw r24,r26
 5312 263a 0E94 0000 		call __mulsf3
 5313 263e DC01      		movw r26,r24
 5314 2640 CB01      		movw r24,r22
 5315 2642 9C01      		movw r18,r24
 5316 2644 AD01      		movw r20,r26
 5317 2646 C501      		movw r24,r10
 5318 2648 B401      		movw r22,r8
 5319 264a 0E94 0000 		call __divsf3
 5320 264e DC01      		movw r26,r24
 5321 2650 CB01      		movw r24,r22
 5322 2652 4C01      		movw r8,r24
 5323 2654 5D01      		movw r10,r26
 353:lp_solve_5.5/lp_scale.c ****                       RowScalem2[row] * ekekm1 / qkm1);
 5324               		.loc 1 353 0 discriminator 3
 5325 2656 CE01      		movw r24,r28
 5326 2658 855B      		subi r24,-75
 5327 265a 9F4F      		sbci r25,-1
 5328 265c FC01      		movw r30,r24
 5329 265e 2081      		ld r18,Z
 5330 2660 3181      		ldd r19,Z+1
 5331 2662 8B81      		ldd r24,Y+3
 5332 2664 9C81      		ldd r25,Y+4
 5333 2666 880F      		lsl r24
 5334 2668 991F      		rol r25
 5335 266a 880F      		lsl r24
 5336 266c 991F      		rol r25
 5337 266e 820F      		add r24,r18
 5338 2670 931F      		adc r25,r19
 5339 2672 FC01      		movw r30,r24
 5340 2674 8081      		ld r24,Z
 5341 2676 9181      		ldd r25,Z+1
 5342 2678 A281      		ldd r26,Z+2
 5343 267a B381      		ldd r27,Z+3
 5344 267c 9E01      		movw r18,r28
 5345 267e 295B      		subi r18,-71
 5346 2680 3F4F      		sbci r19,-1
 5347 2682 F901      		movw r30,r18
 5348 2684 2081      		ld r18,Z
 5349 2686 3181      		ldd r19,Z+1
 5350 2688 4281      		ldd r20,Z+2
 5351 268a 5381      		ldd r21,Z+3
 5352 268c BC01      		movw r22,r24
 5353 268e CD01      		movw r24,r26
 5354 2690 0E94 0000 		call __mulsf3
 5355 2694 DC01      		movw r26,r24
 5356 2696 CB01      		movw r24,r22
 5357 2698 2F89      		ldd r18,Y+23
 5358 269a 388D      		ldd r19,Y+24
 5359 269c 498D      		ldd r20,Y+25
 5360 269e 5A8D      		ldd r21,Y+26
 5361 26a0 BC01      		movw r22,r24
 5362 26a2 CD01      		movw r24,r26
 5363 26a4 0E94 0000 		call __divsf3
 5364 26a8 DC01      		movw r26,r24
 5365 26aa CB01      		movw r24,r22
 352:lp_solve_5.5/lp_scale.c ****       FRowScale[row]+=(residual_odd[row] / (qkm1 * (REAL) RowCount[row]) -
 5366               		.loc 1 352 0 discriminator 3
 5367 26ac 9C01      		movw r18,r24
 5368 26ae AD01      		movw r20,r26
 5369 26b0 C501      		movw r24,r10
 5370 26b2 B401      		movw r22,r8
 5371 26b4 0E94 0000 		call __subsf3
 5372 26b8 DC01      		movw r26,r24
 5373 26ba CB01      		movw r24,r22
 5374 26bc 9C01      		movw r18,r24
 5375 26be AD01      		movw r20,r26
 5376 26c0 C701      		movw r24,r14
 5377 26c2 B601      		movw r22,r12
 5378 26c4 0E94 0000 		call __addsf3
 5379 26c8 DC01      		movw r26,r24
 5380 26ca CB01      		movw r24,r22
 5381 26cc F801      		movw r30,r16
 5382 26ce 8083      		st Z,r24
 5383 26d0 9183      		std Z+1,r25
 5384 26d2 A283      		std Z+2,r26
 5385 26d4 B383      		std Z+3,r27
 351:lp_solve_5.5/lp_scale.c ****     for(row = 0; row<=lp->rows; row++)
 5386               		.loc 1 351 0 discriminator 3
 5387 26d6 8B81      		ldd r24,Y+3
 5388 26d8 9C81      		ldd r25,Y+4
 5389 26da 0196      		adiw r24,1
 5390 26dc 9C83      		std Y+4,r25
 5391 26de 8B83      		std Y+3,r24
 5392               	.L129:
 351:lp_solve_5.5/lp_scale.c ****     for(row = 0; row<=lp->rows; row++)
 5393               		.loc 1 351 0 is_stmt 0 discriminator 1
 5394 26e0 CE01      		movw r24,r28
 5395 26e2 855A      		subi r24,-91
 5396 26e4 9F4F      		sbci r25,-1
 5397 26e6 DC01      		movw r26,r24
 5398 26e8 8D91      		ld r24,X+
 5399 26ea 9C91      		ld r25,X
 5400 26ec 8651      		subi r24,22
 5401 26ee 9E4F      		sbci r25,-2
 5402 26f0 FC01      		movw r30,r24
 5403 26f2 2081      		ld r18,Z
 5404 26f4 3181      		ldd r19,Z+1
 5405 26f6 8B81      		ldd r24,Y+3
 5406 26f8 9C81      		ldd r25,Y+4
 5407 26fa 2817      		cp r18,r24
 5408 26fc 3907      		cpc r19,r25
 5409 26fe 04F0      		brlt .+2
 5410 2700 00C0      		rjmp .L130
 5411 2702 00C0      		rjmp .L169
 5412               	.L126:
 354:lp_solve_5.5/lp_scale.c ****   }
 355:lp_solve_5.5/lp_scale.c ****   else { /* pass is odd, compute ColScale */
 356:lp_solve_5.5/lp_scale.c ****     for(col=1; col<=colMax; col++)
 5413               		.loc 1 356 0 is_stmt 1
 5414 2704 81E0      		ldi r24,lo8(1)
 5415 2706 90E0      		ldi r25,0
 5416 2708 9E83      		std Y+6,r25
 5417 270a 8D83      		std Y+5,r24
 5418 270c 00C0      		rjmp .L131
 5419               	.L132:
 357:lp_solve_5.5/lp_scale.c ****       FColScale[col]*=(1 + ekekm1 / qkm1);
 5420               		.loc 1 357 0 discriminator 3
 5421 270e 8D81      		ldd r24,Y+5
 5422 2710 9E81      		ldd r25,Y+6
 5423 2712 880F      		lsl r24
 5424 2714 991F      		rol r25
 5425 2716 880F      		lsl r24
 5426 2718 991F      		rol r25
 5427 271a 9E01      		movw r18,r28
 5428 271c 205A      		subi r18,-96
 5429 271e 3F4F      		sbci r19,-1
 5430 2720 D901      		movw r26,r18
 5431 2722 2D91      		ld r18,X+
 5432 2724 3C91      		ld r19,X
 5433 2726 8901      		movw r16,r18
 5434 2728 080F      		add r16,r24
 5435 272a 191F      		adc r17,r25
 5436 272c 8D81      		ldd r24,Y+5
 5437 272e 9E81      		ldd r25,Y+6
 5438 2730 880F      		lsl r24
 5439 2732 991F      		rol r25
 5440 2734 880F      		lsl r24
 5441 2736 991F      		rol r25
 5442 2738 9E01      		movw r18,r28
 5443 273a 205A      		subi r18,-96
 5444 273c 3F4F      		sbci r19,-1
 5445 273e F901      		movw r30,r18
 5446 2740 2081      		ld r18,Z
 5447 2742 3181      		ldd r19,Z+1
 5448 2744 820F      		add r24,r18
 5449 2746 931F      		adc r25,r19
 5450 2748 DC01      		movw r26,r24
 5451 274a CD90      		ld r12,X+
 5452 274c DD90      		ld r13,X+
 5453 274e ED90      		ld r14,X+
 5454 2750 FC90      		ld r15,X
 5455 2752 CE01      		movw r24,r28
 5456 2754 895B      		subi r24,-71
 5457 2756 9F4F      		sbci r25,-1
 5458 2758 2F89      		ldd r18,Y+23
 5459 275a 388D      		ldd r19,Y+24
 5460 275c 498D      		ldd r20,Y+25
 5461 275e 5A8D      		ldd r21,Y+26
 5462 2760 FC01      		movw r30,r24
 5463 2762 6081      		ld r22,Z
 5464 2764 7181      		ldd r23,Z+1
 5465 2766 8281      		ldd r24,Z+2
 5466 2768 9381      		ldd r25,Z+3
 5467 276a 0E94 0000 		call __divsf3
 5468 276e DC01      		movw r26,r24
 5469 2770 CB01      		movw r24,r22
 5470 2772 20E0      		ldi r18,0
 5471 2774 30E0      		ldi r19,0
 5472 2776 40E8      		ldi r20,lo8(-128)
 5473 2778 5FE3      		ldi r21,lo8(63)
 5474 277a BC01      		movw r22,r24
 5475 277c CD01      		movw r24,r26
 5476 277e 0E94 0000 		call __addsf3
 5477 2782 DC01      		movw r26,r24
 5478 2784 CB01      		movw r24,r22
 5479 2786 9C01      		movw r18,r24
 5480 2788 AD01      		movw r20,r26
 5481 278a C701      		movw r24,r14
 5482 278c B601      		movw r22,r12
 5483 278e 0E94 0000 		call __mulsf3
 5484 2792 DC01      		movw r26,r24
 5485 2794 CB01      		movw r24,r22
 5486 2796 F801      		movw r30,r16
 5487 2798 8083      		st Z,r24
 5488 279a 9183      		std Z+1,r25
 5489 279c A283      		std Z+2,r26
 5490 279e B383      		std Z+3,r27
 356:lp_solve_5.5/lp_scale.c ****       FColScale[col]*=(1 + ekekm1 / qkm1);
 5491               		.loc 1 356 0 discriminator 3
 5492 27a0 8D81      		ldd r24,Y+5
 5493 27a2 9E81      		ldd r25,Y+6
 5494 27a4 0196      		adiw r24,1
 5495 27a6 9E83      		std Y+6,r25
 5496 27a8 8D83      		std Y+5,r24
 5497               	.L131:
 356:lp_solve_5.5/lp_scale.c ****       FColScale[col]*=(1 + ekekm1 / qkm1);
 5498               		.loc 1 356 0 is_stmt 0 discriminator 1
 5499 27aa 2D81      		ldd r18,Y+5
 5500 27ac 3E81      		ldd r19,Y+6
 5501 27ae 8FA5      		ldd r24,Y+47
 5502 27b0 98A9      		ldd r25,Y+48
 5503 27b2 8217      		cp r24,r18
 5504 27b4 9307      		cpc r25,r19
 5505 27b6 04F0      		brlt .+2
 5506 27b8 00C0      		rjmp .L132
 358:lp_solve_5.5/lp_scale.c ****     for(col=1; col<=colMax; col++)
 5507               		.loc 1 358 0 is_stmt 1
 5508 27ba 81E0      		ldi r24,lo8(1)
 5509 27bc 90E0      		ldi r25,0
 5510 27be 9E83      		std Y+6,r25
 5511 27c0 8D83      		std Y+5,r24
 5512 27c2 00C0      		rjmp .L133
 5513               	.L134:
 359:lp_solve_5.5/lp_scale.c ****       FColScale[col]+=(residual_even[col] / ((REAL) ColCount[col] * qkm1) -
 5514               		.loc 1 359 0 discriminator 3
 5515 27c4 8D81      		ldd r24,Y+5
 5516 27c6 9E81      		ldd r25,Y+6
 5517 27c8 880F      		lsl r24
 5518 27ca 991F      		rol r25
 5519 27cc 880F      		lsl r24
 5520 27ce 991F      		rol r25
 5521 27d0 9E01      		movw r18,r28
 5522 27d2 205A      		subi r18,-96
 5523 27d4 3F4F      		sbci r19,-1
 5524 27d6 D901      		movw r26,r18
 5525 27d8 2D91      		ld r18,X+
 5526 27da 3C91      		ld r19,X
 5527 27dc 8901      		movw r16,r18
 5528 27de 080F      		add r16,r24
 5529 27e0 191F      		adc r17,r25
 5530 27e2 8D81      		ldd r24,Y+5
 5531 27e4 9E81      		ldd r25,Y+6
 5532 27e6 880F      		lsl r24
 5533 27e8 991F      		rol r25
 5534 27ea 880F      		lsl r24
 5535 27ec 991F      		rol r25
 5536 27ee 9E01      		movw r18,r28
 5537 27f0 205A      		subi r18,-96
 5538 27f2 3F4F      		sbci r19,-1
 5539 27f4 F901      		movw r30,r18
 5540 27f6 2081      		ld r18,Z
 5541 27f8 3181      		ldd r19,Z+1
 5542 27fa 820F      		add r24,r18
 5543 27fc 931F      		adc r25,r19
 5544 27fe DC01      		movw r26,r24
 5545 2800 CD90      		ld r12,X+
 5546 2802 DD90      		ld r13,X+
 5547 2804 ED90      		ld r14,X+
 5548 2806 FC90      		ld r15,X
 5549 2808 CE01      		movw r24,r28
 5550 280a 8D5A      		subi r24,-83
 5551 280c 9F4F      		sbci r25,-1
 5552 280e FC01      		movw r30,r24
 5553 2810 2081      		ld r18,Z
 5554 2812 3181      		ldd r19,Z+1
 5555 2814 8D81      		ldd r24,Y+5
 5556 2816 9E81      		ldd r25,Y+6
 5557 2818 880F      		lsl r24
 5558 281a 991F      		rol r25
 5559 281c 880F      		lsl r24
 5560 281e 991F      		rol r25
 5561 2820 820F      		add r24,r18
 5562 2822 931F      		adc r25,r19
 5563 2824 DC01      		movw r26,r24
 5564 2826 8D90      		ld r8,X+
 5565 2828 9D90      		ld r9,X+
 5566 282a AD90      		ld r10,X+
 5567 282c BC90      		ld r11,X
 5568 282e CE01      		movw r24,r28
 5569 2830 875A      		subi r24,-89
 5570 2832 9F4F      		sbci r25,-1
 5571 2834 FC01      		movw r30,r24
 5572 2836 2081      		ld r18,Z
 5573 2838 3181      		ldd r19,Z+1
 5574 283a 8D81      		ldd r24,Y+5
 5575 283c 9E81      		ldd r25,Y+6
 5576 283e 880F      		lsl r24
 5577 2840 991F      		rol r25
 5578 2842 820F      		add r24,r18
 5579 2844 931F      		adc r25,r19
 5580 2846 DC01      		movw r26,r24
 5581 2848 8D91      		ld r24,X+
 5582 284a 9C91      		ld r25,X
 5583 284c 092E      		mov __tmp_reg__,r25
 5584 284e 000C      		lsl r0
 5585 2850 AA0B      		sbc r26,r26
 5586 2852 BB0B      		sbc r27,r27
 5587 2854 BC01      		movw r22,r24
 5588 2856 CD01      		movw r24,r26
 5589 2858 0E94 0000 		call __floatsisf
 5590 285c DC01      		movw r26,r24
 5591 285e CB01      		movw r24,r22
 5592 2860 2F89      		ldd r18,Y+23
 5593 2862 388D      		ldd r19,Y+24
 5594 2864 498D      		ldd r20,Y+25
 5595 2866 5A8D      		ldd r21,Y+26
 5596 2868 BC01      		movw r22,r24
 5597 286a CD01      		movw r24,r26
 5598 286c 0E94 0000 		call __mulsf3
 5599 2870 DC01      		movw r26,r24
 5600 2872 CB01      		movw r24,r22
 5601 2874 9C01      		movw r18,r24
 5602 2876 AD01      		movw r20,r26
 5603 2878 C501      		movw r24,r10
 5604 287a B401      		movw r22,r8
 5605 287c 0E94 0000 		call __divsf3
 5606 2880 DC01      		movw r26,r24
 5607 2882 CB01      		movw r24,r22
 5608 2884 4C01      		movw r8,r24
 5609 2886 5D01      		movw r10,r26
 360:lp_solve_5.5/lp_scale.c ****                        ColScalem2[col] * ekekm1 / qkm1);
 5610               		.loc 1 360 0 discriminator 3
 5611 2888 CE01      		movw r24,r28
 5612 288a 835B      		subi r24,-77
 5613 288c 9F4F      		sbci r25,-1
 5614 288e FC01      		movw r30,r24
 5615 2890 2081      		ld r18,Z
 5616 2892 3181      		ldd r19,Z+1
 5617 2894 8D81      		ldd r24,Y+5
 5618 2896 9E81      		ldd r25,Y+6
 5619 2898 880F      		lsl r24
 5620 289a 991F      		rol r25
 5621 289c 880F      		lsl r24
 5622 289e 991F      		rol r25
 5623 28a0 820F      		add r24,r18
 5624 28a2 931F      		adc r25,r19
 5625 28a4 FC01      		movw r30,r24
 5626 28a6 8081      		ld r24,Z
 5627 28a8 9181      		ldd r25,Z+1
 5628 28aa A281      		ldd r26,Z+2
 5629 28ac B381      		ldd r27,Z+3
 5630 28ae 9E01      		movw r18,r28
 5631 28b0 295B      		subi r18,-71
 5632 28b2 3F4F      		sbci r19,-1
 5633 28b4 F901      		movw r30,r18
 5634 28b6 2081      		ld r18,Z
 5635 28b8 3181      		ldd r19,Z+1
 5636 28ba 4281      		ldd r20,Z+2
 5637 28bc 5381      		ldd r21,Z+3
 5638 28be BC01      		movw r22,r24
 5639 28c0 CD01      		movw r24,r26
 5640 28c2 0E94 0000 		call __mulsf3
 5641 28c6 DC01      		movw r26,r24
 5642 28c8 CB01      		movw r24,r22
 5643 28ca 2F89      		ldd r18,Y+23
 5644 28cc 388D      		ldd r19,Y+24
 5645 28ce 498D      		ldd r20,Y+25
 5646 28d0 5A8D      		ldd r21,Y+26
 5647 28d2 BC01      		movw r22,r24
 5648 28d4 CD01      		movw r24,r26
 5649 28d6 0E94 0000 		call __divsf3
 5650 28da DC01      		movw r26,r24
 5651 28dc CB01      		movw r24,r22
 359:lp_solve_5.5/lp_scale.c ****       FColScale[col]+=(residual_even[col] / ((REAL) ColCount[col] * qkm1) -
 5652               		.loc 1 359 0 discriminator 3
 5653 28de 9C01      		movw r18,r24
 5654 28e0 AD01      		movw r20,r26
 5655 28e2 C501      		movw r24,r10
 5656 28e4 B401      		movw r22,r8
 5657 28e6 0E94 0000 		call __subsf3
 5658 28ea DC01      		movw r26,r24
 5659 28ec CB01      		movw r24,r22
 5660 28ee 9C01      		movw r18,r24
 5661 28f0 AD01      		movw r20,r26
 5662 28f2 C701      		movw r24,r14
 5663 28f4 B601      		movw r22,r12
 5664 28f6 0E94 0000 		call __addsf3
 5665 28fa DC01      		movw r26,r24
 5666 28fc CB01      		movw r24,r22
 5667 28fe F801      		movw r30,r16
 5668 2900 8083      		st Z,r24
 5669 2902 9183      		std Z+1,r25
 5670 2904 A283      		std Z+2,r26
 5671 2906 B383      		std Z+3,r27
 358:lp_solve_5.5/lp_scale.c ****     for(col=1; col<=colMax; col++)
 5672               		.loc 1 358 0 discriminator 3
 5673 2908 8D81      		ldd r24,Y+5
 5674 290a 9E81      		ldd r25,Y+6
 5675 290c 0196      		adiw r24,1
 5676 290e 9E83      		std Y+6,r25
 5677 2910 8D83      		std Y+5,r24
 5678               	.L133:
 358:lp_solve_5.5/lp_scale.c ****     for(col=1; col<=colMax; col++)
 5679               		.loc 1 358 0 is_stmt 0 discriminator 1
 5680 2912 2D81      		ldd r18,Y+5
 5681 2914 3E81      		ldd r19,Y+6
 5682 2916 8FA5      		ldd r24,Y+47
 5683 2918 98A9      		ldd r25,Y+48
 5684 291a 8217      		cp r24,r18
 5685 291c 9307      		cpc r25,r19
 5686 291e 04F0      		brlt .+2
 5687 2920 00C0      		rjmp .L134
 5688               	.L169:
 361:lp_solve_5.5/lp_scale.c ****   }
 362:lp_solve_5.5/lp_scale.c ****   }
 363:lp_solve_5.5/lp_scale.c **** 
 364:lp_solve_5.5/lp_scale.c ****   /* Do validation, if indicated */
 365:lp_solve_5.5/lp_scale.c ****   if(FALSE && mat_validate(mat)){
 366:lp_solve_5.5/lp_scale.c ****     double check, error;
 367:lp_solve_5.5/lp_scale.c **** 
 368:lp_solve_5.5/lp_scale.c ****     /* CHECK: M RowScale + E ColScale = RowSum */
 369:lp_solve_5.5/lp_scale.c ****     error = 0;
 370:lp_solve_5.5/lp_scale.c ****     for(row = 0; row <= lp->rows; row++) {
 371:lp_solve_5.5/lp_scale.c ****       check = (REAL) RowCount[row] * FRowScale[row];
 372:lp_solve_5.5/lp_scale.c ****       if(row == 0) {
 373:lp_solve_5.5/lp_scale.c ****         for(i = 1; i <= colMax; i++) {
 374:lp_solve_5.5/lp_scale.c ****           if(lp->orig_obj[i] != 0)
 375:lp_solve_5.5/lp_scale.c ****             check += FColScale[i];
 376:lp_solve_5.5/lp_scale.c ****         }
 377:lp_solve_5.5/lp_scale.c ****       }
 378:lp_solve_5.5/lp_scale.c ****       else {
 379:lp_solve_5.5/lp_scale.c ****         i = mat->row_end[row-1];
 380:lp_solve_5.5/lp_scale.c ****         ent = mat->row_end[row];
 381:lp_solve_5.5/lp_scale.c ****         for(; i < ent; i++) {
 382:lp_solve_5.5/lp_scale.c ****           col = ROW_MAT_COLNR(i);
 383:lp_solve_5.5/lp_scale.c ****           check += FColScale[col];
 384:lp_solve_5.5/lp_scale.c ****         }
 385:lp_solve_5.5/lp_scale.c ****       }
 386:lp_solve_5.5/lp_scale.c ****       check -= RowSum[row];
 387:lp_solve_5.5/lp_scale.c ****       error += check*check;
 388:lp_solve_5.5/lp_scale.c ****     }
 389:lp_solve_5.5/lp_scale.c **** 
 390:lp_solve_5.5/lp_scale.c ****     /* CHECK: E^T RowScale + N ColScale = ColSum */
 391:lp_solve_5.5/lp_scale.c ****     error = 0;
 392:lp_solve_5.5/lp_scale.c ****     for(col = 1; col <= colMax; col++) {
 393:lp_solve_5.5/lp_scale.c ****       check = (REAL) ColCount[col] * FColScale[col];
 394:lp_solve_5.5/lp_scale.c **** 
 395:lp_solve_5.5/lp_scale.c ****       if(lp->orig_obj[col] != 0)
 396:lp_solve_5.5/lp_scale.c ****         check += FRowScale[0];
 397:lp_solve_5.5/lp_scale.c **** 
 398:lp_solve_5.5/lp_scale.c ****       i = mat->col_end[col-1];
 399:lp_solve_5.5/lp_scale.c ****       ent = mat->col_end[col];
 400:lp_solve_5.5/lp_scale.c ****       rownr = &(COL_MAT_ROWNR(i));
 401:lp_solve_5.5/lp_scale.c ****       for(; i < ent;
 402:lp_solve_5.5/lp_scale.c ****           i++, rownr += matRowColStep) {
 403:lp_solve_5.5/lp_scale.c ****         check += FRowScale[*rownr];
 404:lp_solve_5.5/lp_scale.c ****       }
 405:lp_solve_5.5/lp_scale.c ****       check -= ColSum[col];
 406:lp_solve_5.5/lp_scale.c ****       error += check*check;
 407:lp_solve_5.5/lp_scale.c ****     }
 408:lp_solve_5.5/lp_scale.c ****   }
 409:lp_solve_5.5/lp_scale.c **** 
 410:lp_solve_5.5/lp_scale.c ****   /* Convert to scaling factors (rounding to nearest power
 411:lp_solve_5.5/lp_scale.c ****      of 2 can optionally be done as a separate step later) */
 412:lp_solve_5.5/lp_scale.c ****   for(col = 1; col <= colMax; col++) {
 5689               		.loc 1 412 0 is_stmt 1
 5690 2922 81E0      		ldi r24,lo8(1)
 5691 2924 90E0      		ldi r25,0
 5692 2926 9E83      		std Y+6,r25
 5693 2928 8D83      		std Y+5,r24
 5694 292a 00C0      		rjmp .L135
 5695               	.L143:
 413:lp_solve_5.5/lp_scale.c ****     absvalue = exp(-FColScale[col]);
 5696               		.loc 1 413 0
 5697 292c 8D81      		ldd r24,Y+5
 5698 292e 9E81      		ldd r25,Y+6
 5699 2930 880F      		lsl r24
 5700 2932 991F      		rol r25
 5701 2934 880F      		lsl r24
 5702 2936 991F      		rol r25
 5703 2938 9E01      		movw r18,r28
 5704 293a 205A      		subi r18,-96
 5705 293c 3F4F      		sbci r19,-1
 5706 293e D901      		movw r26,r18
 5707 2940 2D91      		ld r18,X+
 5708 2942 3C91      		ld r19,X
 5709 2944 820F      		add r24,r18
 5710 2946 931F      		adc r25,r19
 5711 2948 FC01      		movw r30,r24
 5712 294a 8081      		ld r24,Z
 5713 294c 9181      		ldd r25,Z+1
 5714 294e A281      		ldd r26,Z+2
 5715 2950 B381      		ldd r27,Z+3
 5716 2952 B058      		subi r27,0x80
 5717 2954 BC01      		movw r22,r24
 5718 2956 CD01      		movw r24,r26
 5719 2958 0E94 0000 		call exp
 5720 295c DC01      		movw r26,r24
 5721 295e CB01      		movw r24,r22
 5722 2960 8F8F      		std Y+31,r24
 5723 2962 98A3      		std Y+32,r25
 5724 2964 A9A3      		std Y+33,r26
 5725 2966 BAA3      		std Y+34,r27
 414:lp_solve_5.5/lp_scale.c ****     if(absvalue < MIN_SCALAR) absvalue = MIN_SCALAR;
 5726               		.loc 1 414 0
 5727 2968 2FEF      		ldi r18,lo8(-1)
 5728 296a 36EE      		ldi r19,lo8(-26)
 5729 296c 4BED      		ldi r20,lo8(-37)
 5730 296e 5EE2      		ldi r21,lo8(46)
 5731 2970 6F8D      		ldd r22,Y+31
 5732 2972 78A1      		ldd r23,Y+32
 5733 2974 89A1      		ldd r24,Y+33
 5734 2976 9AA1      		ldd r25,Y+34
 5735 2978 0E94 0000 		call __ltsf2
 5736 297c 8823      		tst r24
 5737 297e 04F4      		brge .L136
 5738               		.loc 1 414 0 is_stmt 0 discriminator 1
 5739 2980 8FEF      		ldi r24,lo8(-1)
 5740 2982 96EE      		ldi r25,lo8(-26)
 5741 2984 ABED      		ldi r26,lo8(-37)
 5742 2986 BEE2      		ldi r27,lo8(46)
 5743 2988 8F8F      		std Y+31,r24
 5744 298a 98A3      		std Y+32,r25
 5745 298c A9A3      		std Y+33,r26
 5746 298e BAA3      		std Y+34,r27
 5747               	.L136:
 415:lp_solve_5.5/lp_scale.c ****     if(absvalue > MAX_SCALAR) absvalue = MAX_SCALAR;
 5748               		.loc 1 415 0 is_stmt 1
 5749 2990 29EF      		ldi r18,lo8(-7)
 5750 2992 32E0      		ldi r19,lo8(2)
 5751 2994 45E1      		ldi r20,lo8(21)
 5752 2996 50E5      		ldi r21,lo8(80)
 5753 2998 6F8D      		ldd r22,Y+31
 5754 299a 78A1      		ldd r23,Y+32
 5755 299c 89A1      		ldd r24,Y+33
 5756 299e 9AA1      		ldd r25,Y+34
 5757 29a0 0E94 0000 		call __gtsf2
 5758 29a4 1816      		cp __zero_reg__,r24
 5759 29a6 04F4      		brge .L138
 5760               		.loc 1 415 0 is_stmt 0 discriminator 1
 5761 29a8 89EF      		ldi r24,lo8(-7)
 5762 29aa 92E0      		ldi r25,lo8(2)
 5763 29ac A5E1      		ldi r26,lo8(21)
 5764 29ae B0E5      		ldi r27,lo8(80)
 5765 29b0 8F8F      		std Y+31,r24
 5766 29b2 98A3      		std Y+32,r25
 5767 29b4 A9A3      		std Y+33,r26
 5768 29b6 BAA3      		std Y+34,r27
 5769               	.L138:
 416:lp_solve_5.5/lp_scale.c ****     if(!is_int(lp,col) || is_integerscaling(lp))
 5770               		.loc 1 416 0 is_stmt 1
 5771 29b8 2D81      		ldd r18,Y+5
 5772 29ba 3E81      		ldd r19,Y+6
 5773 29bc CE01      		movw r24,r28
 5774 29be 855A      		subi r24,-91
 5775 29c0 9F4F      		sbci r25,-1
 5776 29c2 DC01      		movw r26,r24
 5777 29c4 8D91      		ld r24,X+
 5778 29c6 9C91      		ld r25,X
 5779 29c8 B901      		movw r22,r18
 5780 29ca 0E94 0000 		call is_int
 5781 29ce 8823      		tst r24
 5782 29d0 01F0      		breq .L140
 5783               		.loc 1 416 0 is_stmt 0 discriminator 1
 5784 29d2 CE01      		movw r24,r28
 5785 29d4 855A      		subi r24,-91
 5786 29d6 9F4F      		sbci r25,-1
 5787 29d8 FC01      		movw r30,r24
 5788 29da 8081      		ld r24,Z
 5789 29dc 9181      		ldd r25,Z+1
 5790 29de 0E94 0000 		call is_integerscaling
 5791 29e2 8823      		tst r24
 5792 29e4 01F0      		breq .L141
 5793               	.L140:
 417:lp_solve_5.5/lp_scale.c ****         FColScale[col] = absvalue;
 5794               		.loc 1 417 0 is_stmt 1
 5795 29e6 8D81      		ldd r24,Y+5
 5796 29e8 9E81      		ldd r25,Y+6
 5797 29ea 880F      		lsl r24
 5798 29ec 991F      		rol r25
 5799 29ee 880F      		lsl r24
 5800 29f0 991F      		rol r25
 5801 29f2 9E01      		movw r18,r28
 5802 29f4 205A      		subi r18,-96
 5803 29f6 3F4F      		sbci r19,-1
 5804 29f8 D901      		movw r26,r18
 5805 29fa 2D91      		ld r18,X+
 5806 29fc 3C91      		ld r19,X
 5807 29fe 280F      		add r18,r24
 5808 2a00 391F      		adc r19,r25
 5809 2a02 8F8D      		ldd r24,Y+31
 5810 2a04 98A1      		ldd r25,Y+32
 5811 2a06 A9A1      		ldd r26,Y+33
 5812 2a08 BAA1      		ldd r27,Y+34
 5813 2a0a F901      		movw r30,r18
 5814 2a0c 8083      		st Z,r24
 5815 2a0e 9183      		std Z+1,r25
 5816 2a10 A283      		std Z+2,r26
 5817 2a12 B383      		std Z+3,r27
 5818 2a14 00C0      		rjmp .L142
 5819               	.L141:
 418:lp_solve_5.5/lp_scale.c ****     else
 419:lp_solve_5.5/lp_scale.c ****         FColScale[col] = 1;
 5820               		.loc 1 419 0
 5821 2a16 8D81      		ldd r24,Y+5
 5822 2a18 9E81      		ldd r25,Y+6
 5823 2a1a 880F      		lsl r24
 5824 2a1c 991F      		rol r25
 5825 2a1e 880F      		lsl r24
 5826 2a20 991F      		rol r25
 5827 2a22 9E01      		movw r18,r28
 5828 2a24 205A      		subi r18,-96
 5829 2a26 3F4F      		sbci r19,-1
 5830 2a28 D901      		movw r26,r18
 5831 2a2a 2D91      		ld r18,X+
 5832 2a2c 3C91      		ld r19,X
 5833 2a2e 280F      		add r18,r24
 5834 2a30 391F      		adc r19,r25
 5835 2a32 80E0      		ldi r24,0
 5836 2a34 90E0      		ldi r25,0
 5837 2a36 A0E8      		ldi r26,lo8(-128)
 5838 2a38 BFE3      		ldi r27,lo8(63)
 5839 2a3a F901      		movw r30,r18
 5840 2a3c 8083      		st Z,r24
 5841 2a3e 9183      		std Z+1,r25
 5842 2a40 A283      		std Z+2,r26
 5843 2a42 B383      		std Z+3,r27
 5844               	.L142:
 412:lp_solve_5.5/lp_scale.c ****     absvalue = exp(-FColScale[col]);
 5845               		.loc 1 412 0 discriminator 2
 5846 2a44 8D81      		ldd r24,Y+5
 5847 2a46 9E81      		ldd r25,Y+6
 5848 2a48 0196      		adiw r24,1
 5849 2a4a 9E83      		std Y+6,r25
 5850 2a4c 8D83      		std Y+5,r24
 5851               	.L135:
 412:lp_solve_5.5/lp_scale.c ****     absvalue = exp(-FColScale[col]);
 5852               		.loc 1 412 0 is_stmt 0 discriminator 1
 5853 2a4e 2D81      		ldd r18,Y+5
 5854 2a50 3E81      		ldd r19,Y+6
 5855 2a52 8FA5      		ldd r24,Y+47
 5856 2a54 98A9      		ldd r25,Y+48
 5857 2a56 8217      		cp r24,r18
 5858 2a58 9307      		cpc r25,r19
 5859 2a5a 04F0      		brlt .+2
 5860 2a5c 00C0      		rjmp .L143
 420:lp_solve_5.5/lp_scale.c ****   }
 421:lp_solve_5.5/lp_scale.c ****   for(row = 0; row <= lp->rows; row++) {
 5861               		.loc 1 421 0 is_stmt 1
 5862 2a5e 1C82      		std Y+4,__zero_reg__
 5863 2a60 1B82      		std Y+3,__zero_reg__
 5864 2a62 00C0      		rjmp .L144
 5865               	.L149:
 422:lp_solve_5.5/lp_scale.c ****     absvalue = exp(-FRowScale[row]);
 5866               		.loc 1 422 0
 5867 2a64 8B81      		ldd r24,Y+3
 5868 2a66 9C81      		ldd r25,Y+4
 5869 2a68 880F      		lsl r24
 5870 2a6a 991F      		rol r25
 5871 2a6c 880F      		lsl r24
 5872 2a6e 991F      		rol r25
 5873 2a70 9E01      		movw r18,r28
 5874 2a72 225A      		subi r18,-94
 5875 2a74 3F4F      		sbci r19,-1
 5876 2a76 D901      		movw r26,r18
 5877 2a78 2D91      		ld r18,X+
 5878 2a7a 3C91      		ld r19,X
 5879 2a7c 820F      		add r24,r18
 5880 2a7e 931F      		adc r25,r19
 5881 2a80 FC01      		movw r30,r24
 5882 2a82 8081      		ld r24,Z
 5883 2a84 9181      		ldd r25,Z+1
 5884 2a86 A281      		ldd r26,Z+2
 5885 2a88 B381      		ldd r27,Z+3
 5886 2a8a B058      		subi r27,0x80
 5887 2a8c BC01      		movw r22,r24
 5888 2a8e CD01      		movw r24,r26
 5889 2a90 0E94 0000 		call exp
 5890 2a94 DC01      		movw r26,r24
 5891 2a96 CB01      		movw r24,r22
 5892 2a98 8F8F      		std Y+31,r24
 5893 2a9a 98A3      		std Y+32,r25
 5894 2a9c A9A3      		std Y+33,r26
 5895 2a9e BAA3      		std Y+34,r27
 423:lp_solve_5.5/lp_scale.c ****     if(absvalue < MIN_SCALAR) absvalue = MIN_SCALAR;
 5896               		.loc 1 423 0
 5897 2aa0 2FEF      		ldi r18,lo8(-1)
 5898 2aa2 36EE      		ldi r19,lo8(-26)
 5899 2aa4 4BED      		ldi r20,lo8(-37)
 5900 2aa6 5EE2      		ldi r21,lo8(46)
 5901 2aa8 6F8D      		ldd r22,Y+31
 5902 2aaa 78A1      		ldd r23,Y+32
 5903 2aac 89A1      		ldd r24,Y+33
 5904 2aae 9AA1      		ldd r25,Y+34
 5905 2ab0 0E94 0000 		call __ltsf2
 5906 2ab4 8823      		tst r24
 5907 2ab6 04F4      		brge .L145
 5908               		.loc 1 423 0 is_stmt 0 discriminator 1
 5909 2ab8 8FEF      		ldi r24,lo8(-1)
 5910 2aba 96EE      		ldi r25,lo8(-26)
 5911 2abc ABED      		ldi r26,lo8(-37)
 5912 2abe BEE2      		ldi r27,lo8(46)
 5913 2ac0 8F8F      		std Y+31,r24
 5914 2ac2 98A3      		std Y+32,r25
 5915 2ac4 A9A3      		std Y+33,r26
 5916 2ac6 BAA3      		std Y+34,r27
 5917               	.L145:
 424:lp_solve_5.5/lp_scale.c ****     if(absvalue > MAX_SCALAR) absvalue = MAX_SCALAR;
 5918               		.loc 1 424 0 is_stmt 1
 5919 2ac8 29EF      		ldi r18,lo8(-7)
 5920 2aca 32E0      		ldi r19,lo8(2)
 5921 2acc 45E1      		ldi r20,lo8(21)
 5922 2ace 50E5      		ldi r21,lo8(80)
 5923 2ad0 6F8D      		ldd r22,Y+31
 5924 2ad2 78A1      		ldd r23,Y+32
 5925 2ad4 89A1      		ldd r24,Y+33
 5926 2ad6 9AA1      		ldd r25,Y+34
 5927 2ad8 0E94 0000 		call __gtsf2
 5928 2adc 1816      		cp __zero_reg__,r24
 5929 2ade 04F4      		brge .L147
 5930               		.loc 1 424 0 is_stmt 0 discriminator 1
 5931 2ae0 89EF      		ldi r24,lo8(-7)
 5932 2ae2 92E0      		ldi r25,lo8(2)
 5933 2ae4 A5E1      		ldi r26,lo8(21)
 5934 2ae6 B0E5      		ldi r27,lo8(80)
 5935 2ae8 8F8F      		std Y+31,r24
 5936 2aea 98A3      		std Y+32,r25
 5937 2aec A9A3      		std Y+33,r26
 5938 2aee BAA3      		std Y+34,r27
 5939               	.L147:
 425:lp_solve_5.5/lp_scale.c ****     FRowScale[row] = absvalue;
 5940               		.loc 1 425 0 is_stmt 1 discriminator 2
 5941 2af0 8B81      		ldd r24,Y+3
 5942 2af2 9C81      		ldd r25,Y+4
 5943 2af4 880F      		lsl r24
 5944 2af6 991F      		rol r25
 5945 2af8 880F      		lsl r24
 5946 2afa 991F      		rol r25
 5947 2afc 9E01      		movw r18,r28
 5948 2afe 225A      		subi r18,-94
 5949 2b00 3F4F      		sbci r19,-1
 5950 2b02 D901      		movw r26,r18
 5951 2b04 2D91      		ld r18,X+
 5952 2b06 3C91      		ld r19,X
 5953 2b08 280F      		add r18,r24
 5954 2b0a 391F      		adc r19,r25
 5955 2b0c 8F8D      		ldd r24,Y+31
 5956 2b0e 98A1      		ldd r25,Y+32
 5957 2b10 A9A1      		ldd r26,Y+33
 5958 2b12 BAA1      		ldd r27,Y+34
 5959 2b14 F901      		movw r30,r18
 5960 2b16 8083      		st Z,r24
 5961 2b18 9183      		std Z+1,r25
 5962 2b1a A283      		std Z+2,r26
 5963 2b1c B383      		std Z+3,r27
 421:lp_solve_5.5/lp_scale.c ****     absvalue = exp(-FRowScale[row]);
 5964               		.loc 1 421 0 discriminator 2
 5965 2b1e 8B81      		ldd r24,Y+3
 5966 2b20 9C81      		ldd r25,Y+4
 5967 2b22 0196      		adiw r24,1
 5968 2b24 9C83      		std Y+4,r25
 5969 2b26 8B83      		std Y+3,r24
 5970               	.L144:
 421:lp_solve_5.5/lp_scale.c ****     absvalue = exp(-FRowScale[row]);
 5971               		.loc 1 421 0 is_stmt 0 discriminator 1
 5972 2b28 CE01      		movw r24,r28
 5973 2b2a 855A      		subi r24,-91
 5974 2b2c 9F4F      		sbci r25,-1
 5975 2b2e DC01      		movw r26,r24
 5976 2b30 8D91      		ld r24,X+
 5977 2b32 9C91      		ld r25,X
 5978 2b34 8651      		subi r24,22
 5979 2b36 9E4F      		sbci r25,-2
 5980 2b38 FC01      		movw r30,r24
 5981 2b3a 2081      		ld r18,Z
 5982 2b3c 3181      		ldd r19,Z+1
 5983 2b3e 8B81      		ldd r24,Y+3
 5984 2b40 9C81      		ldd r25,Y+4
 5985 2b42 2817      		cp r18,r24
 5986 2b44 3907      		cpc r19,r25
 5987 2b46 04F0      		brlt .+2
 5988 2b48 00C0      		rjmp .L149
 426:lp_solve_5.5/lp_scale.c ****   }
 427:lp_solve_5.5/lp_scale.c **** 
 428:lp_solve_5.5/lp_scale.c ****  /* free temporary memory */
 429:lp_solve_5.5/lp_scale.c ****   FREE(RowSum);
 5989               		.loc 1 429 0 is_stmt 1
 5990 2b4a CE01      		movw r24,r28
 5991 2b4c 815B      		subi r24,-79
 5992 2b4e 9F4F      		sbci r25,-1
 5993 2b50 DC01      		movw r26,r24
 5994 2b52 8D91      		ld r24,X+
 5995 2b54 9C91      		ld r25,X
 5996 2b56 892B      		or r24,r25
 5997 2b58 01F0      		breq .L150
 5998               		.loc 1 429 0 is_stmt 0 discriminator 1
 5999 2b5a CE01      		movw r24,r28
 6000 2b5c 815B      		subi r24,-79
 6001 2b5e 9F4F      		sbci r25,-1
 6002 2b60 FC01      		movw r30,r24
 6003 2b62 8081      		ld r24,Z
 6004 2b64 9181      		ldd r25,Z+1
 6005 2b66 0E94 0000 		call free
 6006 2b6a CE01      		movw r24,r28
 6007 2b6c 815B      		subi r24,-79
 6008 2b6e 9F4F      		sbci r25,-1
 6009 2b70 DC01      		movw r26,r24
 6010 2b72 1D92      		st X+,__zero_reg__
 6011 2b74 1C92      		st X,__zero_reg__
 6012               	.L150:
 430:lp_solve_5.5/lp_scale.c ****   FREE(ColSum);
 6013               		.loc 1 430 0 is_stmt 1
 6014 2b76 CE01      		movw r24,r28
 6015 2b78 8F5A      		subi r24,-81
 6016 2b7a 9F4F      		sbci r25,-1
 6017 2b7c FC01      		movw r30,r24
 6018 2b7e 8081      		ld r24,Z
 6019 2b80 9181      		ldd r25,Z+1
 6020 2b82 892B      		or r24,r25
 6021 2b84 01F0      		breq .L151
 6022               		.loc 1 430 0 is_stmt 0 discriminator 1
 6023 2b86 CE01      		movw r24,r28
 6024 2b88 8F5A      		subi r24,-81
 6025 2b8a 9F4F      		sbci r25,-1
 6026 2b8c DC01      		movw r26,r24
 6027 2b8e 8D91      		ld r24,X+
 6028 2b90 9C91      		ld r25,X
 6029 2b92 0E94 0000 		call free
 6030 2b96 CE01      		movw r24,r28
 6031 2b98 8F5A      		subi r24,-81
 6032 2b9a 9F4F      		sbci r25,-1
 6033 2b9c FC01      		movw r30,r24
 6034 2b9e 1182      		std Z+1,__zero_reg__
 6035 2ba0 1082      		st Z,__zero_reg__
 6036               	.L151:
 431:lp_solve_5.5/lp_scale.c ****   FREE(RowCount);
 6037               		.loc 1 431 0 is_stmt 1
 6038 2ba2 CE01      		movw r24,r28
 6039 2ba4 895A      		subi r24,-87
 6040 2ba6 9F4F      		sbci r25,-1
 6041 2ba8 DC01      		movw r26,r24
 6042 2baa 8D91      		ld r24,X+
 6043 2bac 9C91      		ld r25,X
 6044 2bae 892B      		or r24,r25
 6045 2bb0 01F0      		breq .L152
 6046               		.loc 1 431 0 is_stmt 0 discriminator 1
 6047 2bb2 CE01      		movw r24,r28
 6048 2bb4 895A      		subi r24,-87
 6049 2bb6 9F4F      		sbci r25,-1
 6050 2bb8 FC01      		movw r30,r24
 6051 2bba 8081      		ld r24,Z
 6052 2bbc 9181      		ldd r25,Z+1
 6053 2bbe 0E94 0000 		call free
 6054 2bc2 CE01      		movw r24,r28
 6055 2bc4 895A      		subi r24,-87
 6056 2bc6 9F4F      		sbci r25,-1
 6057 2bc8 DC01      		movw r26,r24
 6058 2bca 1D92      		st X+,__zero_reg__
 6059 2bcc 1C92      		st X,__zero_reg__
 6060               	.L152:
 432:lp_solve_5.5/lp_scale.c ****   FREE(ColCount);
 6061               		.loc 1 432 0 is_stmt 1
 6062 2bce CE01      		movw r24,r28
 6063 2bd0 875A      		subi r24,-89
 6064 2bd2 9F4F      		sbci r25,-1
 6065 2bd4 FC01      		movw r30,r24
 6066 2bd6 8081      		ld r24,Z
 6067 2bd8 9181      		ldd r25,Z+1
 6068 2bda 892B      		or r24,r25
 6069 2bdc 01F0      		breq .L153
 6070               		.loc 1 432 0 is_stmt 0 discriminator 1
 6071 2bde CE01      		movw r24,r28
 6072 2be0 875A      		subi r24,-89
 6073 2be2 9F4F      		sbci r25,-1
 6074 2be4 DC01      		movw r26,r24
 6075 2be6 8D91      		ld r24,X+
 6076 2be8 9C91      		ld r25,X
 6077 2bea 0E94 0000 		call free
 6078 2bee CE01      		movw r24,r28
 6079 2bf0 875A      		subi r24,-89
 6080 2bf2 9F4F      		sbci r25,-1
 6081 2bf4 FC01      		movw r30,r24
 6082 2bf6 1182      		std Z+1,__zero_reg__
 6083 2bf8 1082      		st Z,__zero_reg__
 6084               	.L153:
 433:lp_solve_5.5/lp_scale.c ****   FREE(residual_even);
 6085               		.loc 1 433 0 is_stmt 1
 6086 2bfa CE01      		movw r24,r28
 6087 2bfc 8D5A      		subi r24,-83
 6088 2bfe 9F4F      		sbci r25,-1
 6089 2c00 DC01      		movw r26,r24
 6090 2c02 8D91      		ld r24,X+
 6091 2c04 9C91      		ld r25,X
 6092 2c06 892B      		or r24,r25
 6093 2c08 01F0      		breq .L154
 6094               		.loc 1 433 0 is_stmt 0 discriminator 1
 6095 2c0a CE01      		movw r24,r28
 6096 2c0c 8D5A      		subi r24,-83
 6097 2c0e 9F4F      		sbci r25,-1
 6098 2c10 FC01      		movw r30,r24
 6099 2c12 8081      		ld r24,Z
 6100 2c14 9181      		ldd r25,Z+1
 6101 2c16 0E94 0000 		call free
 6102 2c1a CE01      		movw r24,r28
 6103 2c1c 8D5A      		subi r24,-83
 6104 2c1e 9F4F      		sbci r25,-1
 6105 2c20 DC01      		movw r26,r24
 6106 2c22 1D92      		st X+,__zero_reg__
 6107 2c24 1C92      		st X,__zero_reg__
 6108               	.L154:
 434:lp_solve_5.5/lp_scale.c ****   FREE(residual_odd);
 6109               		.loc 1 434 0 is_stmt 1
 6110 2c26 CE01      		movw r24,r28
 6111 2c28 8B5A      		subi r24,-85
 6112 2c2a 9F4F      		sbci r25,-1
 6113 2c2c FC01      		movw r30,r24
 6114 2c2e 8081      		ld r24,Z
 6115 2c30 9181      		ldd r25,Z+1
 6116 2c32 892B      		or r24,r25
 6117 2c34 01F0      		breq .L155
 6118               		.loc 1 434 0 is_stmt 0 discriminator 1
 6119 2c36 CE01      		movw r24,r28
 6120 2c38 8B5A      		subi r24,-85
 6121 2c3a 9F4F      		sbci r25,-1
 6122 2c3c DC01      		movw r26,r24
 6123 2c3e 8D91      		ld r24,X+
 6124 2c40 9C91      		ld r25,X
 6125 2c42 0E94 0000 		call free
 6126 2c46 CE01      		movw r24,r28
 6127 2c48 8B5A      		subi r24,-85
 6128 2c4a 9F4F      		sbci r25,-1
 6129 2c4c FC01      		movw r30,r24
 6130 2c4e 1182      		std Z+1,__zero_reg__
 6131 2c50 1082      		st Z,__zero_reg__
 6132               	.L155:
 435:lp_solve_5.5/lp_scale.c ****   FREE(RowScalem2);
 6133               		.loc 1 435 0 is_stmt 1
 6134 2c52 CE01      		movw r24,r28
 6135 2c54 855B      		subi r24,-75
 6136 2c56 9F4F      		sbci r25,-1
 6137 2c58 DC01      		movw r26,r24
 6138 2c5a 8D91      		ld r24,X+
 6139 2c5c 9C91      		ld r25,X
 6140 2c5e 892B      		or r24,r25
 6141 2c60 01F0      		breq .L156
 6142               		.loc 1 435 0 is_stmt 0 discriminator 1
 6143 2c62 CE01      		movw r24,r28
 6144 2c64 855B      		subi r24,-75
 6145 2c66 9F4F      		sbci r25,-1
 6146 2c68 FC01      		movw r30,r24
 6147 2c6a 8081      		ld r24,Z
 6148 2c6c 9181      		ldd r25,Z+1
 6149 2c6e 0E94 0000 		call free
 6150 2c72 CE01      		movw r24,r28
 6151 2c74 855B      		subi r24,-75
 6152 2c76 9F4F      		sbci r25,-1
 6153 2c78 DC01      		movw r26,r24
 6154 2c7a 1D92      		st X+,__zero_reg__
 6155 2c7c 1C92      		st X,__zero_reg__
 6156               	.L156:
 436:lp_solve_5.5/lp_scale.c ****   FREE(ColScalem2);
 6157               		.loc 1 436 0 is_stmt 1
 6158 2c7e CE01      		movw r24,r28
 6159 2c80 835B      		subi r24,-77
 6160 2c82 9F4F      		sbci r25,-1
 6161 2c84 FC01      		movw r30,r24
 6162 2c86 8081      		ld r24,Z
 6163 2c88 9181      		ldd r25,Z+1
 6164 2c8a 892B      		or r24,r25
 6165 2c8c 01F0      		breq .L157
 6166               		.loc 1 436 0 is_stmt 0 discriminator 1
 6167 2c8e CE01      		movw r24,r28
 6168 2c90 835B      		subi r24,-77
 6169 2c92 9F4F      		sbci r25,-1
 6170 2c94 DC01      		movw r26,r24
 6171 2c96 8D91      		ld r24,X+
 6172 2c98 9C91      		ld r25,X
 6173 2c9a 0E94 0000 		call free
 6174 2c9e CE01      		movw r24,r28
 6175 2ca0 835B      		subi r24,-77
 6176 2ca2 9F4F      		sbci r25,-1
 6177 2ca4 FC01      		movw r30,r24
 6178 2ca6 1182      		std Z+1,__zero_reg__
 6179 2ca8 1082      		st Z,__zero_reg__
 6180               	.L157:
 437:lp_solve_5.5/lp_scale.c **** 
 438:lp_solve_5.5/lp_scale.c ****   return(Result);
 6181               		.loc 1 438 0 is_stmt 1
