   1               		.file	"lp_SOS.c"
   2               	__SP_H__ = 0x3e
   3               	__SP_L__ = 0x3d
   4               	__SREG__ = 0x3f
   5               	__RAMPZ__ = 0x3b
   6               	__tmp_reg__ = 0
   7               	__zero_reg__ = 1
   8               		.text
   9               	.Ltext0:
  10               		.cfi_sections	.debug_frame
  11               	.global	create_SOSgroup
  13               	create_SOSgroup:
  14               	.LFB7:
  15               		.file 1 "lp_solve_5.5/lp_SOS.c"
   1:lp_solve_5.5/lp_SOS.c **** 
   2:lp_solve_5.5/lp_SOS.c **** #include <string.h>
   3:lp_solve_5.5/lp_SOS.c **** #include "commonlib.h"
   4:lp_solve_5.5/lp_SOS.c **** #include "lp_lib.h"
   5:lp_solve_5.5/lp_SOS.c **** #include "lp_report.h"
   6:lp_solve_5.5/lp_SOS.c **** #include "lp_SOS.h"
   7:lp_solve_5.5/lp_SOS.c **** 
   8:lp_solve_5.5/lp_SOS.c **** #ifdef FORTIFY
   9:lp_solve_5.5/lp_SOS.c **** # include "lp_fortify.h"
  10:lp_solve_5.5/lp_SOS.c **** #endif
  11:lp_solve_5.5/lp_SOS.c **** 
  12:lp_solve_5.5/lp_SOS.c **** 
  13:lp_solve_5.5/lp_SOS.c **** /*
  14:lp_solve_5.5/lp_SOS.c ****     Specially Ordered Set (SOS) routines - w/interface for lp_solve v5.0+
  15:lp_solve_5.5/lp_SOS.c ****    ----------------------------------------------------------------------------------
  16:lp_solve_5.5/lp_SOS.c ****     Author:        Kjell Eikland
  17:lp_solve_5.5/lp_SOS.c ****     Contact:       kjell.eikland@broadpark.no
  18:lp_solve_5.5/lp_SOS.c ****     License terms: LGPL.
  19:lp_solve_5.5/lp_SOS.c **** 
  20:lp_solve_5.5/lp_SOS.c ****     Requires:      lp_lib.h
  21:lp_solve_5.5/lp_SOS.c **** 
  22:lp_solve_5.5/lp_SOS.c ****     Release notes:
  23:lp_solve_5.5/lp_SOS.c ****     v1.0    1 September 2003    Complete package for SOS creation and use in a LP
  24:lp_solve_5.5/lp_SOS.c ****                                 setting.  Notable feature of this implementation
  25:lp_solve_5.5/lp_SOS.c ****                                 compared to those in other commercial systems is
  26:lp_solve_5.5/lp_SOS.c ****                                 the generalization to SOS'es of "unlimited" order.
  27:lp_solve_5.5/lp_SOS.c ****     v1.1     8 December 2003    Added variable (index) deletion method.
  28:lp_solve_5.5/lp_SOS.c ****     v1.2    17 December 2004    Added bound change tracking functionality.
  29:lp_solve_5.5/lp_SOS.c ****     v1.3    18 September 2005   Added sparse SOS handling to speed up processing
  30:lp_solve_5.5/lp_SOS.c ****                                 of large number of SOS'es.
  31:lp_solve_5.5/lp_SOS.c **** 
  32:lp_solve_5.5/lp_SOS.c ****    ----------------------------------------------------------------------------------
  33:lp_solve_5.5/lp_SOS.c **** */
  34:lp_solve_5.5/lp_SOS.c **** 
  35:lp_solve_5.5/lp_SOS.c **** /* SOS group functions */
  36:lp_solve_5.5/lp_SOS.c **** STATIC SOSgroup *create_SOSgroup(lprec *lp)
  37:lp_solve_5.5/lp_SOS.c **** {
  16               		.loc 1 37 0
  17               		.cfi_startproc
  18 0000 CF93      		push r28
  19               	.LCFI0:
  20               		.cfi_def_cfa_offset 3
  21               		.cfi_offset 28, -2
  22 0002 DF93      		push r29
  23               	.LCFI1:
  24               		.cfi_def_cfa_offset 4
  25               		.cfi_offset 29, -3
  26 0004 00D0      		rcall .
  27 0006 00D0      		rcall .
  28               	.LCFI2:
  29               		.cfi_def_cfa_offset 8
  30 0008 CDB7      		in r28,__SP_L__
  31 000a DEB7      		in r29,__SP_H__
  32               	.LCFI3:
  33               		.cfi_def_cfa_register 28
  34               	/* prologue: function */
  35               	/* frame size = 4 */
  36               	/* stack size = 6 */
  37               	.L__stack_usage = 6
  38 000c 9C83      		std Y+4,r25
  39 000e 8B83      		std Y+3,r24
  38:lp_solve_5.5/lp_SOS.c ****   SOSgroup *group;
  39:lp_solve_5.5/lp_SOS.c **** 
  40:lp_solve_5.5/lp_SOS.c ****   group = (SOSgroup *) calloc(1, sizeof(*group));
  40               		.loc 1 40 0
  41 0010 60E1      		ldi r22,lo8(16)
  42 0012 70E0      		ldi r23,0
  43 0014 81E0      		ldi r24,lo8(1)
  44 0016 90E0      		ldi r25,0
  45 0018 0E94 0000 		call calloc
  46 001c 9A83      		std Y+2,r25
  47 001e 8983      		std Y+1,r24
  41:lp_solve_5.5/lp_SOS.c ****   group->lp = lp;
  48               		.loc 1 41 0
  49 0020 8981      		ldd r24,Y+1
  50 0022 9A81      		ldd r25,Y+2
  51 0024 2B81      		ldd r18,Y+3
  52 0026 3C81      		ldd r19,Y+4
  53 0028 FC01      		movw r30,r24
  54 002a 3183      		std Z+1,r19
  55 002c 2083      		st Z,r18
  42:lp_solve_5.5/lp_SOS.c ****   group->sos_alloc = SOS_START_SIZE;
  56               		.loc 1 42 0
  57 002e 8981      		ldd r24,Y+1
  58 0030 9A81      		ldd r25,Y+2
  59 0032 2AE0      		ldi r18,lo8(10)
  60 0034 30E0      		ldi r19,0
  61 0036 FC01      		movw r30,r24
  62 0038 3583      		std Z+5,r19
  63 003a 2483      		std Z+4,r18
  43:lp_solve_5.5/lp_SOS.c ****   group->sos_list = (SOSrec **) malloc((group->sos_alloc) * sizeof(*group->sos_list));
  64               		.loc 1 43 0
  65 003c 8981      		ldd r24,Y+1
  66 003e 9A81      		ldd r25,Y+2
  67 0040 FC01      		movw r30,r24
  68 0042 8481      		ldd r24,Z+4
  69 0044 9581      		ldd r25,Z+5
  70 0046 880F      		lsl r24
  71 0048 991F      		rol r25
  72 004a 0E94 0000 		call malloc
  73 004e 9C01      		movw r18,r24
  74 0050 8981      		ldd r24,Y+1
  75 0052 9A81      		ldd r25,Y+2
  76 0054 FC01      		movw r30,r24
  77 0056 3383      		std Z+3,r19
  78 0058 2283      		std Z+2,r18
  44:lp_solve_5.5/lp_SOS.c ****   return(group);
  79               		.loc 1 44 0
  80 005a 8981      		ldd r24,Y+1
  81 005c 9A81      		ldd r25,Y+2
  82               	/* epilogue start */
  45:lp_solve_5.5/lp_SOS.c **** }
  83               		.loc 1 45 0
  84 005e 0F90      		pop __tmp_reg__
  85 0060 0F90      		pop __tmp_reg__
  86 0062 0F90      		pop __tmp_reg__
  87 0064 0F90      		pop __tmp_reg__
  88 0066 DF91      		pop r29
  89 0068 CF91      		pop r28
  90 006a 0895      		ret
  91               		.cfi_endproc
  92               	.LFE7:
  94               	.global	__floatsisf
  95               	.global	__mulsf3
  96               	.global	__fixsfsi
  97               	.global	resize_SOSgroup
  99               	resize_SOSgroup:
 100               	.LFB8:
  46:lp_solve_5.5/lp_SOS.c **** 
  47:lp_solve_5.5/lp_SOS.c **** STATIC void resize_SOSgroup(SOSgroup *group)
  48:lp_solve_5.5/lp_SOS.c **** {
 101               		.loc 1 48 0
 102               		.cfi_startproc
 103 006c CF93      		push r28
 104               	.LCFI4:
 105               		.cfi_def_cfa_offset 3
 106               		.cfi_offset 28, -2
 107 006e DF93      		push r29
 108               	.LCFI5:
 109               		.cfi_def_cfa_offset 4
 110               		.cfi_offset 29, -3
 111 0070 00D0      		rcall .
 112               	.LCFI6:
 113               		.cfi_def_cfa_offset 6
 114 0072 CDB7      		in r28,__SP_L__
 115 0074 DEB7      		in r29,__SP_H__
 116               	.LCFI7:
 117               		.cfi_def_cfa_register 28
 118               	/* prologue: function */
 119               	/* frame size = 2 */
 120               	/* stack size = 4 */
 121               	.L__stack_usage = 4
 122 0076 9A83      		std Y+2,r25
 123 0078 8983      		std Y+1,r24
  49:lp_solve_5.5/lp_SOS.c ****   if(group->sos_count == group->sos_alloc) {
 124               		.loc 1 49 0
 125 007a 8981      		ldd r24,Y+1
 126 007c 9A81      		ldd r25,Y+2
 127 007e FC01      		movw r30,r24
 128 0080 2681      		ldd r18,Z+6
 129 0082 3781      		ldd r19,Z+7
 130 0084 8981      		ldd r24,Y+1
 131 0086 9A81      		ldd r25,Y+2
 132 0088 FC01      		movw r30,r24
 133 008a 8481      		ldd r24,Z+4
 134 008c 9581      		ldd r25,Z+5
 135 008e 2817      		cp r18,r24
 136 0090 3907      		cpc r19,r25
 137 0092 01F4      		brne .L5
  50:lp_solve_5.5/lp_SOS.c ****     group->sos_alloc = (int)((double) group->sos_alloc*RESIZEFACTOR);
 138               		.loc 1 50 0
 139 0094 8981      		ldd r24,Y+1
 140 0096 9A81      		ldd r25,Y+2
 141 0098 FC01      		movw r30,r24
 142 009a 8481      		ldd r24,Z+4
 143 009c 9581      		ldd r25,Z+5
 144 009e 092E      		mov __tmp_reg__,r25
 145 00a0 000C      		lsl r0
 146 00a2 AA0B      		sbc r26,r26
 147 00a4 BB0B      		sbc r27,r27
 148 00a6 BC01      		movw r22,r24
 149 00a8 CD01      		movw r24,r26
 150 00aa 0E94 0000 		call __floatsisf
 151 00ae DC01      		movw r26,r24
 152 00b0 CB01      		movw r24,r22
 153 00b2 20E0      		ldi r18,0
 154 00b4 30E0      		ldi r19,0
 155 00b6 40E8      		ldi r20,lo8(-128)
 156 00b8 50E4      		ldi r21,lo8(64)
 157 00ba BC01      		movw r22,r24
 158 00bc CD01      		movw r24,r26
 159 00be 0E94 0000 		call __mulsf3
 160 00c2 DC01      		movw r26,r24
 161 00c4 CB01      		movw r24,r22
 162 00c6 BC01      		movw r22,r24
 163 00c8 CD01      		movw r24,r26
 164 00ca 0E94 0000 		call __fixsfsi
 165 00ce DC01      		movw r26,r24
 166 00d0 CB01      		movw r24,r22
 167 00d2 9C01      		movw r18,r24
 168 00d4 8981      		ldd r24,Y+1
 169 00d6 9A81      		ldd r25,Y+2
 170 00d8 FC01      		movw r30,r24
 171 00da 3583      		std Z+5,r19
 172 00dc 2483      		std Z+4,r18
  51:lp_solve_5.5/lp_SOS.c ****     group->sos_list = (SOSrec **) realloc(group->sos_list,
  52:lp_solve_5.5/lp_SOS.c ****                                           (group->sos_alloc) * sizeof(*group->sos_list));
 173               		.loc 1 52 0
 174 00de 8981      		ldd r24,Y+1
 175 00e0 9A81      		ldd r25,Y+2
 176 00e2 FC01      		movw r30,r24
 177 00e4 8481      		ldd r24,Z+4
 178 00e6 9581      		ldd r25,Z+5
  51:lp_solve_5.5/lp_SOS.c ****     group->sos_list = (SOSrec **) realloc(group->sos_list,
 179               		.loc 1 51 0
 180 00e8 9C01      		movw r18,r24
 181 00ea 220F      		lsl r18
 182 00ec 331F      		rol r19
 183 00ee 8981      		ldd r24,Y+1
 184 00f0 9A81      		ldd r25,Y+2
 185 00f2 FC01      		movw r30,r24
 186 00f4 8281      		ldd r24,Z+2
 187 00f6 9381      		ldd r25,Z+3
 188 00f8 B901      		movw r22,r18
 189 00fa 0E94 0000 		call realloc
 190 00fe 9C01      		movw r18,r24
 191 0100 8981      		ldd r24,Y+1
 192 0102 9A81      		ldd r25,Y+2
 193 0104 FC01      		movw r30,r24
 194 0106 3383      		std Z+3,r19
 195 0108 2283      		std Z+2,r18
 196               	.L5:
  53:lp_solve_5.5/lp_SOS.c ****   }
  54:lp_solve_5.5/lp_SOS.c **** }
 197               		.loc 1 54 0
 198 010a 0000      		nop
 199               	/* epilogue start */
 200 010c 0F90      		pop __tmp_reg__
 201 010e 0F90      		pop __tmp_reg__
 202 0110 DF91      		pop r29
 203 0112 CF91      		pop r28
 204 0114 0895      		ret
 205               		.cfi_endproc
 206               	.LFE8:
 208               	.global	append_SOSgroup
 210               	append_SOSgroup:
 211               	.LFB9:
  55:lp_solve_5.5/lp_SOS.c **** 
  56:lp_solve_5.5/lp_SOS.c **** STATIC int append_SOSgroup(SOSgroup *group, SOSrec *SOS)
  57:lp_solve_5.5/lp_SOS.c **** {
 212               		.loc 1 57 0
 213               		.cfi_startproc
 214 0116 CF93      		push r28
 215               	.LCFI8:
 216               		.cfi_def_cfa_offset 3
 217               		.cfi_offset 28, -2
 218 0118 DF93      		push r29
 219               	.LCFI9:
 220               		.cfi_def_cfa_offset 4
 221               		.cfi_offset 29, -3
 222 011a CDB7      		in r28,__SP_L__
 223 011c DEB7      		in r29,__SP_H__
 224               	.LCFI10:
 225               		.cfi_def_cfa_register 28
 226 011e 2A97      		sbiw r28,10
 227               	.LCFI11:
 228               		.cfi_def_cfa_offset 14
 229 0120 0FB6      		in __tmp_reg__,__SREG__
 230 0122 F894      		cli
 231 0124 DEBF      		out __SP_H__,r29
 232 0126 0FBE      		out __SREG__,__tmp_reg__
 233 0128 CDBF      		out __SP_L__,r28
 234               	/* prologue: function */
 235               	/* frame size = 10 */
 236               	/* stack size = 12 */
 237               	.L__stack_usage = 12
 238 012a 9887      		std Y+8,r25
 239 012c 8F83      		std Y+7,r24
 240 012e 7A87      		std Y+10,r23
 241 0130 6987      		std Y+9,r22
  58:lp_solve_5.5/lp_SOS.c ****   int    i, k;
  59:lp_solve_5.5/lp_SOS.c ****   SOSrec *SOSHold;
  60:lp_solve_5.5/lp_SOS.c **** 
  61:lp_solve_5.5/lp_SOS.c ****   /* Check if we should resize */
  62:lp_solve_5.5/lp_SOS.c ****   resize_SOSgroup(group);
 242               		.loc 1 62 0
 243 0132 8F81      		ldd r24,Y+7
 244 0134 9885      		ldd r25,Y+8
 245 0136 0E94 0000 		call resize_SOSgroup
  63:lp_solve_5.5/lp_SOS.c **** 
  64:lp_solve_5.5/lp_SOS.c ****   /* First append to the end of the list */
  65:lp_solve_5.5/lp_SOS.c ****   group->sos_list[group->sos_count] = SOS;
 246               		.loc 1 65 0
 247 013a 8F81      		ldd r24,Y+7
 248 013c 9885      		ldd r25,Y+8
 249 013e FC01      		movw r30,r24
 250 0140 2281      		ldd r18,Z+2
 251 0142 3381      		ldd r19,Z+3
 252 0144 8F81      		ldd r24,Y+7
 253 0146 9885      		ldd r25,Y+8
 254 0148 FC01      		movw r30,r24
 255 014a 8681      		ldd r24,Z+6
 256 014c 9781      		ldd r25,Z+7
 257 014e 880F      		lsl r24
 258 0150 991F      		rol r25
 259 0152 820F      		add r24,r18
 260 0154 931F      		adc r25,r19
 261 0156 2985      		ldd r18,Y+9
 262 0158 3A85      		ldd r19,Y+10
 263 015a FC01      		movw r30,r24
 264 015c 3183      		std Z+1,r19
 265 015e 2083      		st Z,r18
  66:lp_solve_5.5/lp_SOS.c ****   group->sos_count++;
 266               		.loc 1 66 0
 267 0160 8F81      		ldd r24,Y+7
 268 0162 9885      		ldd r25,Y+8
 269 0164 FC01      		movw r30,r24
 270 0166 8681      		ldd r24,Z+6
 271 0168 9781      		ldd r25,Z+7
 272 016a 9C01      		movw r18,r24
 273 016c 2F5F      		subi r18,-1
 274 016e 3F4F      		sbci r19,-1
 275 0170 8F81      		ldd r24,Y+7
 276 0172 9885      		ldd r25,Y+8
 277 0174 FC01      		movw r30,r24
 278 0176 3783      		std Z+7,r19
 279 0178 2683      		std Z+6,r18
  67:lp_solve_5.5/lp_SOS.c ****   i = abs(SOS->type);
 280               		.loc 1 67 0
 281 017a 8985      		ldd r24,Y+9
 282 017c 9A85      		ldd r25,Y+10
 283 017e FC01      		movw r30,r24
 284 0180 8681      		ldd r24,Z+6
 285 0182 9781      		ldd r25,Z+7
 286 0184 9923      		tst r25
 287 0186 04F4      		brge .L7
 288 0188 9195      		neg r25
 289 018a 8195      		neg r24
 290 018c 9109      		sbc r25,__zero_reg__
 291               	.L7:
 292 018e 9A83      		std Y+2,r25
 293 0190 8983      		std Y+1,r24
  68:lp_solve_5.5/lp_SOS.c ****   SETMAX(group->maxorder, i);
 294               		.loc 1 68 0
 295 0192 8F81      		ldd r24,Y+7
 296 0194 9885      		ldd r25,Y+8
 297 0196 FC01      		movw r30,r24
 298 0198 2085      		ldd r18,Z+8
 299 019a 3185      		ldd r19,Z+9
 300 019c 8981      		ldd r24,Y+1
 301 019e 9A81      		ldd r25,Y+2
 302 01a0 2817      		cp r18,r24
 303 01a2 3907      		cpc r19,r25
 304 01a4 04F4      		brge .L8
 305               		.loc 1 68 0 is_stmt 0 discriminator 1
 306 01a6 8F81      		ldd r24,Y+7
 307 01a8 9885      		ldd r25,Y+8
 308 01aa 2981      		ldd r18,Y+1
 309 01ac 3A81      		ldd r19,Y+2
 310 01ae FC01      		movw r30,r24
 311 01b0 3187      		std Z+9,r19
 312 01b2 2087      		std Z+8,r18
 313               	.L8:
  69:lp_solve_5.5/lp_SOS.c ****   if(i == 1)
 314               		.loc 1 69 0 is_stmt 1
 315 01b4 8981      		ldd r24,Y+1
 316 01b6 9A81      		ldd r25,Y+2
 317 01b8 0197      		sbiw r24,1
 318 01ba 01F4      		brne .L9
  70:lp_solve_5.5/lp_SOS.c ****     group->sos1_count++;
 319               		.loc 1 70 0
 320 01bc 8F81      		ldd r24,Y+7
 321 01be 9885      		ldd r25,Y+8
 322 01c0 FC01      		movw r30,r24
 323 01c2 8285      		ldd r24,Z+10
 324 01c4 9385      		ldd r25,Z+11
 325 01c6 9C01      		movw r18,r24
 326 01c8 2F5F      		subi r18,-1
 327 01ca 3F4F      		sbci r19,-1
 328 01cc 8F81      		ldd r24,Y+7
 329 01ce 9885      		ldd r25,Y+8
 330 01d0 FC01      		movw r30,r24
 331 01d2 3387      		std Z+11,r19
 332 01d4 2287      		std Z+10,r18
 333               	.L9:
  71:lp_solve_5.5/lp_SOS.c ****   k = group->sos_count;
 334               		.loc 1 71 0
 335 01d6 8F81      		ldd r24,Y+7
 336 01d8 9885      		ldd r25,Y+8
 337 01da FC01      		movw r30,r24
 338 01dc 8681      		ldd r24,Z+6
 339 01de 9781      		ldd r25,Z+7
 340 01e0 9C83      		std Y+4,r25
 341 01e2 8B83      		std Y+3,r24
  72:lp_solve_5.5/lp_SOS.c ****   SOS->tagorder = k;
 342               		.loc 1 72 0
 343 01e4 8985      		ldd r24,Y+9
 344 01e6 9A85      		ldd r25,Y+10
 345 01e8 2B81      		ldd r18,Y+3
 346 01ea 3C81      		ldd r19,Y+4
 347 01ec FC01      		movw r30,r24
 348 01ee 3383      		std Z+3,r19
 349 01f0 2283      		std Z+2,r18
  73:lp_solve_5.5/lp_SOS.c **** 
  74:lp_solve_5.5/lp_SOS.c ****   /* Sort the SOS list by given priority */
  75:lp_solve_5.5/lp_SOS.c ****   for(i = group->sos_count-1; i > 0; i--) {
 350               		.loc 1 75 0
 351 01f2 8F81      		ldd r24,Y+7
 352 01f4 9885      		ldd r25,Y+8
 353 01f6 FC01      		movw r30,r24
 354 01f8 8681      		ldd r24,Z+6
 355 01fa 9781      		ldd r25,Z+7
 356 01fc 0197      		sbiw r24,1
 357 01fe 9A83      		std Y+2,r25
 358 0200 8983      		std Y+1,r24
 359 0202 00C0      		rjmp .L10
 360               	.L15:
  76:lp_solve_5.5/lp_SOS.c ****     if(group->sos_list[i]->priority < group->sos_list[i-1]->priority) {
 361               		.loc 1 76 0
 362 0204 8F81      		ldd r24,Y+7
 363 0206 9885      		ldd r25,Y+8
 364 0208 FC01      		movw r30,r24
 365 020a 2281      		ldd r18,Z+2
 366 020c 3381      		ldd r19,Z+3
 367 020e 8981      		ldd r24,Y+1
 368 0210 9A81      		ldd r25,Y+2
 369 0212 880F      		lsl r24
 370 0214 991F      		rol r25
 371 0216 820F      		add r24,r18
 372 0218 931F      		adc r25,r19
 373 021a FC01      		movw r30,r24
 374 021c 8081      		ld r24,Z
 375 021e 9181      		ldd r25,Z+1
 376 0220 FC01      		movw r30,r24
 377 0222 2385      		ldd r18,Z+11
 378 0224 3485      		ldd r19,Z+12
 379 0226 8F81      		ldd r24,Y+7
 380 0228 9885      		ldd r25,Y+8
 381 022a FC01      		movw r30,r24
 382 022c 4281      		ldd r20,Z+2
 383 022e 5381      		ldd r21,Z+3
 384 0230 8981      		ldd r24,Y+1
 385 0232 9A81      		ldd r25,Y+2
 386 0234 8150      		subi r24,1
 387 0236 9048      		sbci r25,-128
 388 0238 880F      		lsl r24
 389 023a 991F      		rol r25
 390 023c 840F      		add r24,r20
 391 023e 951F      		adc r25,r21
 392 0240 FC01      		movw r30,r24
 393 0242 8081      		ld r24,Z
 394 0244 9181      		ldd r25,Z+1
 395 0246 FC01      		movw r30,r24
 396 0248 8385      		ldd r24,Z+11
 397 024a 9485      		ldd r25,Z+12
 398 024c 2817      		cp r18,r24
 399 024e 3907      		cpc r19,r25
 400 0250 04F0      		brlt .+2
 401 0252 00C0      		rjmp .L17
  77:lp_solve_5.5/lp_SOS.c ****       SOSHold = group->sos_list[i];
 402               		.loc 1 77 0
 403 0254 8F81      		ldd r24,Y+7
 404 0256 9885      		ldd r25,Y+8
 405 0258 FC01      		movw r30,r24
 406 025a 2281      		ldd r18,Z+2
 407 025c 3381      		ldd r19,Z+3
 408 025e 8981      		ldd r24,Y+1
 409 0260 9A81      		ldd r25,Y+2
 410 0262 880F      		lsl r24
 411 0264 991F      		rol r25
 412 0266 820F      		add r24,r18
 413 0268 931F      		adc r25,r19
 414 026a FC01      		movw r30,r24
 415 026c 8081      		ld r24,Z
 416 026e 9181      		ldd r25,Z+1
 417 0270 9E83      		std Y+6,r25
 418 0272 8D83      		std Y+5,r24
  78:lp_solve_5.5/lp_SOS.c ****       group->sos_list[i] = group->sos_list[i-1];
 419               		.loc 1 78 0
 420 0274 8F81      		ldd r24,Y+7
 421 0276 9885      		ldd r25,Y+8
 422 0278 FC01      		movw r30,r24
 423 027a 2281      		ldd r18,Z+2
 424 027c 3381      		ldd r19,Z+3
 425 027e 8981      		ldd r24,Y+1
 426 0280 9A81      		ldd r25,Y+2
 427 0282 880F      		lsl r24
 428 0284 991F      		rol r25
 429 0286 820F      		add r24,r18
 430 0288 931F      		adc r25,r19
 431 028a 2F81      		ldd r18,Y+7
 432 028c 3885      		ldd r19,Y+8
 433 028e F901      		movw r30,r18
 434 0290 4281      		ldd r20,Z+2
 435 0292 5381      		ldd r21,Z+3
 436 0294 2981      		ldd r18,Y+1
 437 0296 3A81      		ldd r19,Y+2
 438 0298 2150      		subi r18,1
 439 029a 3048      		sbci r19,-128
 440 029c 220F      		lsl r18
 441 029e 331F      		rol r19
 442 02a0 240F      		add r18,r20
 443 02a2 351F      		adc r19,r21
 444 02a4 F901      		movw r30,r18
 445 02a6 2081      		ld r18,Z
 446 02a8 3181      		ldd r19,Z+1
 447 02aa FC01      		movw r30,r24
 448 02ac 3183      		std Z+1,r19
 449 02ae 2083      		st Z,r18
  79:lp_solve_5.5/lp_SOS.c ****       group->sos_list[i-1] = SOSHold;
 450               		.loc 1 79 0
 451 02b0 8F81      		ldd r24,Y+7
 452 02b2 9885      		ldd r25,Y+8
 453 02b4 FC01      		movw r30,r24
 454 02b6 2281      		ldd r18,Z+2
 455 02b8 3381      		ldd r19,Z+3
 456 02ba 8981      		ldd r24,Y+1
 457 02bc 9A81      		ldd r25,Y+2
 458 02be 8150      		subi r24,1
 459 02c0 9048      		sbci r25,-128
 460 02c2 880F      		lsl r24
 461 02c4 991F      		rol r25
 462 02c6 820F      		add r24,r18
 463 02c8 931F      		adc r25,r19
 464 02ca 2D81      		ldd r18,Y+5
 465 02cc 3E81      		ldd r19,Y+6
 466 02ce FC01      		movw r30,r24
 467 02d0 3183      		std Z+1,r19
 468 02d2 2083      		st Z,r18
  80:lp_solve_5.5/lp_SOS.c ****       if(SOSHold == SOS)
 469               		.loc 1 80 0
 470 02d4 2D81      		ldd r18,Y+5
 471 02d6 3E81      		ldd r19,Y+6
 472 02d8 8985      		ldd r24,Y+9
 473 02da 9A85      		ldd r25,Y+10
 474 02dc 2817      		cp r18,r24
 475 02de 3907      		cpc r19,r25
 476 02e0 01F4      		brne .L13
  81:lp_solve_5.5/lp_SOS.c ****         k = i; /* This is the index in the [1..> range */
 477               		.loc 1 81 0
 478 02e2 8981      		ldd r24,Y+1
 479 02e4 9A81      		ldd r25,Y+2
 480 02e6 9C83      		std Y+4,r25
 481 02e8 8B83      		std Y+3,r24
 482               	.L13:
  75:lp_solve_5.5/lp_SOS.c ****     if(group->sos_list[i]->priority < group->sos_list[i-1]->priority) {
 483               		.loc 1 75 0 discriminator 2
 484 02ea 8981      		ldd r24,Y+1
 485 02ec 9A81      		ldd r25,Y+2
 486 02ee 0197      		sbiw r24,1
 487 02f0 9A83      		std Y+2,r25
 488 02f2 8983      		std Y+1,r24
 489               	.L10:
  75:lp_solve_5.5/lp_SOS.c ****     if(group->sos_list[i]->priority < group->sos_list[i-1]->priority) {
 490               		.loc 1 75 0 is_stmt 0 discriminator 1
 491 02f4 8981      		ldd r24,Y+1
 492 02f6 9A81      		ldd r25,Y+2
 493 02f8 1816      		cp __zero_reg__,r24
 494 02fa 1906      		cpc __zero_reg__,r25
 495 02fc 04F4      		brge .+2
 496 02fe 00C0      		rjmp .L15
 497 0300 00C0      		rjmp .L14
 498               	.L17:
  82:lp_solve_5.5/lp_SOS.c ****     }
  83:lp_solve_5.5/lp_SOS.c ****     else
  84:lp_solve_5.5/lp_SOS.c ****       break;
 499               		.loc 1 84 0 is_stmt 1
 500 0302 0000      		nop
 501               	.L14:
  85:lp_solve_5.5/lp_SOS.c ****   }
  86:lp_solve_5.5/lp_SOS.c ****   /* Return the list index of the new SOS */
  87:lp_solve_5.5/lp_SOS.c ****   return( k );
 502               		.loc 1 87 0
 503 0304 8B81      		ldd r24,Y+3
 504 0306 9C81      		ldd r25,Y+4
 505               	/* epilogue start */
  88:lp_solve_5.5/lp_SOS.c **** }
 506               		.loc 1 88 0
 507 0308 2A96      		adiw r28,10
 508 030a 0FB6      		in __tmp_reg__,__SREG__
 509 030c F894      		cli
 510 030e DEBF      		out __SP_H__,r29
 511 0310 0FBE      		out __SREG__,__tmp_reg__
 512 0312 CDBF      		out __SP_L__,r28
 513 0314 DF91      		pop r29
 514 0316 CF91      		pop r28
 515 0318 0895      		ret
 516               		.cfi_endproc
 517               	.LFE9:
 519               	.global	clean_SOSgroup
 521               	clean_SOSgroup:
 522               	.LFB10:
  89:lp_solve_5.5/lp_SOS.c **** 
  90:lp_solve_5.5/lp_SOS.c **** 
  91:lp_solve_5.5/lp_SOS.c **** STATIC int clean_SOSgroup(SOSgroup *group, MYBOOL forceupdatemap)
  92:lp_solve_5.5/lp_SOS.c **** {
 523               		.loc 1 92 0
 524               		.cfi_startproc
 525 031a CF93      		push r28
 526               	.LCFI12:
 527               		.cfi_def_cfa_offset 3
 528               		.cfi_offset 28, -2
 529 031c DF93      		push r29
 530               	.LCFI13:
 531               		.cfi_def_cfa_offset 4
 532               		.cfi_offset 29, -3
 533 031e CDB7      		in r28,__SP_L__
 534 0320 DEB7      		in r29,__SP_H__
 535               	.LCFI14:
 536               		.cfi_def_cfa_register 28
 537 0322 2B97      		sbiw r28,11
 538               	.LCFI15:
 539               		.cfi_def_cfa_offset 15
 540 0324 0FB6      		in __tmp_reg__,__SREG__
 541 0326 F894      		cli
 542 0328 DEBF      		out __SP_H__,r29
 543 032a 0FBE      		out __SREG__,__tmp_reg__
 544 032c CDBF      		out __SP_L__,r28
 545               	/* prologue: function */
 546               	/* frame size = 11 */
 547               	/* stack size = 13 */
 548               	.L__stack_usage = 13
 549 032e 9A87      		std Y+10,r25
 550 0330 8987      		std Y+9,r24
 551 0332 6B87      		std Y+11,r22
  93:lp_solve_5.5/lp_SOS.c ****   int    i, n, k;
  94:lp_solve_5.5/lp_SOS.c ****   SOSrec *SOS;
  95:lp_solve_5.5/lp_SOS.c **** 
  96:lp_solve_5.5/lp_SOS.c ****   if(group == NULL)
 552               		.loc 1 96 0
 553 0334 8985      		ldd r24,Y+9
 554 0336 9A85      		ldd r25,Y+10
 555 0338 892B      		or r24,r25
 556 033a 01F4      		brne .L19
  97:lp_solve_5.5/lp_SOS.c ****     return( 0 );
 557               		.loc 1 97 0
 558 033c 80E0      		ldi r24,0
 559 033e 90E0      		ldi r25,0
 560 0340 00C0      		rjmp .L20
 561               	.L19:
  98:lp_solve_5.5/lp_SOS.c **** 
  99:lp_solve_5.5/lp_SOS.c ****   /* Delete any SOS without members or trivial member count */
 100:lp_solve_5.5/lp_SOS.c ****   n = 0;
 562               		.loc 1 100 0
 563 0342 1C82      		std Y+4,__zero_reg__
 564 0344 1B82      		std Y+3,__zero_reg__
 101:lp_solve_5.5/lp_SOS.c ****   if(group->sos_alloc > 0) {
 565               		.loc 1 101 0
 566 0346 8985      		ldd r24,Y+9
 567 0348 9A85      		ldd r25,Y+10
 568 034a FC01      		movw r30,r24
 569 034c 8481      		ldd r24,Z+4
 570 034e 9581      		ldd r25,Z+5
 571 0350 1816      		cp __zero_reg__,r24
 572 0352 1906      		cpc __zero_reg__,r25
 573 0354 04F0      		brlt .+2
 574 0356 00C0      		rjmp .L21
 102:lp_solve_5.5/lp_SOS.c ****     group->maxorder = 0;
 575               		.loc 1 102 0
 576 0358 8985      		ldd r24,Y+9
 577 035a 9A85      		ldd r25,Y+10
 578 035c FC01      		movw r30,r24
 579 035e 1186      		std Z+9,__zero_reg__
 580 0360 1086      		std Z+8,__zero_reg__
 103:lp_solve_5.5/lp_SOS.c ****     for(i = group->sos_count; i > 0; i--) {
 581               		.loc 1 103 0
 582 0362 8985      		ldd r24,Y+9
 583 0364 9A85      		ldd r25,Y+10
 584 0366 FC01      		movw r30,r24
 585 0368 8681      		ldd r24,Z+6
 586 036a 9781      		ldd r25,Z+7
 587 036c 9A83      		std Y+2,r25
 588 036e 8983      		std Y+1,r24
 589 0370 00C0      		rjmp .L22
 590               	.L29:
 104:lp_solve_5.5/lp_SOS.c ****       SOS = group->sos_list[i-1];
 591               		.loc 1 104 0
 592 0372 8985      		ldd r24,Y+9
 593 0374 9A85      		ldd r25,Y+10
 594 0376 FC01      		movw r30,r24
 595 0378 2281      		ldd r18,Z+2
 596 037a 3381      		ldd r19,Z+3
 597 037c 8981      		ldd r24,Y+1
 598 037e 9A81      		ldd r25,Y+2
 599 0380 8150      		subi r24,1
 600 0382 9048      		sbci r25,-128
 601 0384 880F      		lsl r24
 602 0386 991F      		rol r25
 603 0388 820F      		add r24,r18
 604 038a 931F      		adc r25,r19
 605 038c FC01      		movw r30,r24
 606 038e 8081      		ld r24,Z
 607 0390 9181      		ldd r25,Z+1
 608 0392 9E83      		std Y+6,r25
 609 0394 8D83      		std Y+5,r24
 105:lp_solve_5.5/lp_SOS.c ****       k = SOS->members[0];
 610               		.loc 1 105 0
 611 0396 8D81      		ldd r24,Y+5
 612 0398 9E81      		ldd r25,Y+6
 613 039a FC01      		movw r30,r24
 614 039c 8585      		ldd r24,Z+13
 615 039e 9685      		ldd r25,Z+14
 616 03a0 FC01      		movw r30,r24
 617 03a2 8081      		ld r24,Z
 618 03a4 9181      		ldd r25,Z+1
 619 03a6 9887      		std Y+8,r25
 620 03a8 8F83      		std Y+7,r24
 106:lp_solve_5.5/lp_SOS.c ****       if((k == 0) ||                              /* Empty */
 621               		.loc 1 106 0
 622 03aa 8F81      		ldd r24,Y+7
 623 03ac 9885      		ldd r25,Y+8
 624 03ae 892B      		or r24,r25
 625 03b0 01F0      		breq .L23
 107:lp_solve_5.5/lp_SOS.c ****          ((k == abs(SOS->type)) && (k <= 2))) {   /* Trivial */
 626               		.loc 1 107 0 discriminator 1
 627 03b2 8D81      		ldd r24,Y+5
 628 03b4 9E81      		ldd r25,Y+6
 629 03b6 FC01      		movw r30,r24
 630 03b8 8681      		ldd r24,Z+6
 631 03ba 9781      		ldd r25,Z+7
 632 03bc 9923      		tst r25
 633 03be 04F4      		brge .L24
 634 03c0 9195      		neg r25
 635 03c2 8195      		neg r24
 636 03c4 9109      		sbc r25,__zero_reg__
 637               	.L24:
 638 03c6 9C01      		movw r18,r24
 106:lp_solve_5.5/lp_SOS.c ****       if((k == 0) ||                              /* Empty */
 639               		.loc 1 106 0 discriminator 1
 640 03c8 8F81      		ldd r24,Y+7
 641 03ca 9885      		ldd r25,Y+8
 642 03cc 2817      		cp r18,r24
 643 03ce 3907      		cpc r19,r25
 644 03d0 01F4      		brne .L25
 645               		.loc 1 107 0
 646 03d2 8F81      		ldd r24,Y+7
 647 03d4 9885      		ldd r25,Y+8
 648 03d6 0397      		sbiw r24,3
 649 03d8 04F4      		brge .L25
 650               	.L23:
 108:lp_solve_5.5/lp_SOS.c ****         delete_SOSrec(group, i);
 651               		.loc 1 108 0
 652 03da 2981      		ldd r18,Y+1
 653 03dc 3A81      		ldd r19,Y+2
 654 03de 8985      		ldd r24,Y+9
 655 03e0 9A85      		ldd r25,Y+10
 656 03e2 B901      		movw r22,r18
 657 03e4 0E94 0000 		call delete_SOSrec
 109:lp_solve_5.5/lp_SOS.c ****         n++;
 658               		.loc 1 109 0
 659 03e8 8B81      		ldd r24,Y+3
 660 03ea 9C81      		ldd r25,Y+4
 661 03ec 0196      		adiw r24,1
 662 03ee 9C83      		std Y+4,r25
 663 03f0 8B83      		std Y+3,r24
 664 03f2 00C0      		rjmp .L26
 665               	.L25:
 110:lp_solve_5.5/lp_SOS.c ****       }
 111:lp_solve_5.5/lp_SOS.c ****       else {
 112:lp_solve_5.5/lp_SOS.c ****         SETMAX(group->maxorder, abs(SOS->type));
 666               		.loc 1 112 0
 667 03f4 8985      		ldd r24,Y+9
 668 03f6 9A85      		ldd r25,Y+10
 669 03f8 FC01      		movw r30,r24
 670 03fa 2085      		ldd r18,Z+8
 671 03fc 3185      		ldd r19,Z+9
 672 03fe 8D81      		ldd r24,Y+5
 673 0400 9E81      		ldd r25,Y+6
 674 0402 FC01      		movw r30,r24
 675 0404 8681      		ldd r24,Z+6
 676 0406 9781      		ldd r25,Z+7
 677 0408 9923      		tst r25
 678 040a 04F4      		brge .L27
 679 040c 9195      		neg r25
 680 040e 8195      		neg r24
 681 0410 9109      		sbc r25,__zero_reg__
 682               	.L27:
 683 0412 2817      		cp r18,r24
 684 0414 3907      		cpc r19,r25
 685 0416 04F4      		brge .L26
 686               		.loc 1 112 0 is_stmt 0 discriminator 1
 687 0418 8D81      		ldd r24,Y+5
 688 041a 9E81      		ldd r25,Y+6
 689 041c FC01      		movw r30,r24
 690 041e 8681      		ldd r24,Z+6
 691 0420 9781      		ldd r25,Z+7
 692 0422 9923      		tst r25
 693 0424 04F4      		brge .L28
 694 0426 9195      		neg r25
 695 0428 8195      		neg r24
 696 042a 9109      		sbc r25,__zero_reg__
 697               	.L28:
 698 042c 9C01      		movw r18,r24
 699 042e 8985      		ldd r24,Y+9
 700 0430 9A85      		ldd r25,Y+10
 701 0432 FC01      		movw r30,r24
 702 0434 3187      		std Z+9,r19
 703 0436 2087      		std Z+8,r18
 704               	.L26:
 103:lp_solve_5.5/lp_SOS.c ****       SOS = group->sos_list[i-1];
 705               		.loc 1 103 0 is_stmt 1 discriminator 2
 706 0438 8981      		ldd r24,Y+1
 707 043a 9A81      		ldd r25,Y+2
 708 043c 0197      		sbiw r24,1
 709 043e 9A83      		std Y+2,r25
 710 0440 8983      		std Y+1,r24
 711               	.L22:
 103:lp_solve_5.5/lp_SOS.c ****       SOS = group->sos_list[i-1];
 712               		.loc 1 103 0 is_stmt 0 discriminator 1
 713 0442 8981      		ldd r24,Y+1
 714 0444 9A81      		ldd r25,Y+2
 715 0446 1816      		cp __zero_reg__,r24
 716 0448 1906      		cpc __zero_reg__,r25
 717 044a 04F4      		brge .+2
 718 044c 00C0      		rjmp .L29
 113:lp_solve_5.5/lp_SOS.c ****       }
 114:lp_solve_5.5/lp_SOS.c ****     }
 115:lp_solve_5.5/lp_SOS.c ****     if((n > 0) || forceupdatemap)
 719               		.loc 1 115 0 is_stmt 1
 720 044e 8B81      		ldd r24,Y+3
 721 0450 9C81      		ldd r25,Y+4
 722 0452 1816      		cp __zero_reg__,r24
 723 0454 1906      		cpc __zero_reg__,r25
 724 0456 04F0      		brlt .L30
 725               		.loc 1 115 0 is_stmt 0 discriminator 1
 726 0458 8B85      		ldd r24,Y+11
 727 045a 8823      		tst r24
 728 045c 01F0      		breq .L21
 729               	.L30:
 116:lp_solve_5.5/lp_SOS.c ****       SOS_member_updatemap(group);
 730               		.loc 1 116 0 is_stmt 1
 731 045e 8985      		ldd r24,Y+9
 732 0460 9A85      		ldd r25,Y+10
 733 0462 0E94 0000 		call SOS_member_updatemap
 734               	.L21:
 117:lp_solve_5.5/lp_SOS.c ****   }
 118:lp_solve_5.5/lp_SOS.c ****   return( n );
 735               		.loc 1 118 0
 736 0466 8B81      		ldd r24,Y+3
 737 0468 9C81      		ldd r25,Y+4
 738               	.L20:
 739               	/* epilogue start */
 119:lp_solve_5.5/lp_SOS.c **** }
 740               		.loc 1 119 0
 741 046a 2B96      		adiw r28,11
 742 046c 0FB6      		in __tmp_reg__,__SREG__
 743 046e F894      		cli
 744 0470 DEBF      		out __SP_H__,r29
 745 0472 0FBE      		out __SREG__,__tmp_reg__
 746 0474 CDBF      		out __SP_L__,r28
 747 0476 DF91      		pop r29
 748 0478 CF91      		pop r28
 749 047a 0895      		ret
 750               		.cfi_endproc
 751               	.LFE10:
 753               	.global	free_SOSgroup
 755               	free_SOSgroup:
 756               	.LFB11:
 120:lp_solve_5.5/lp_SOS.c **** 
 121:lp_solve_5.5/lp_SOS.c **** 
 122:lp_solve_5.5/lp_SOS.c **** STATIC void free_SOSgroup(SOSgroup **group)
 123:lp_solve_5.5/lp_SOS.c **** {
 757               		.loc 1 123 0
 758               		.cfi_startproc
 759 047c CF93      		push r28
 760               	.LCFI16:
 761               		.cfi_def_cfa_offset 3
 762               		.cfi_offset 28, -2
 763 047e DF93      		push r29
 764               	.LCFI17:
 765               		.cfi_def_cfa_offset 4
 766               		.cfi_offset 29, -3
 767 0480 00D0      		rcall .
 768 0482 00D0      		rcall .
 769               	.LCFI18:
 770               		.cfi_def_cfa_offset 8
 771 0484 CDB7      		in r28,__SP_L__
 772 0486 DEB7      		in r29,__SP_H__
 773               	.LCFI19:
 774               		.cfi_def_cfa_register 28
 775               	/* prologue: function */
 776               	/* frame size = 4 */
 777               	/* stack size = 6 */
 778               	.L__stack_usage = 6
 779 0488 9C83      		std Y+4,r25
 780 048a 8B83      		std Y+3,r24
 124:lp_solve_5.5/lp_SOS.c ****   int i;
 125:lp_solve_5.5/lp_SOS.c **** 
 126:lp_solve_5.5/lp_SOS.c ****   if((group == NULL) || (*group == NULL))
 781               		.loc 1 126 0
 782 048c 8B81      		ldd r24,Y+3
 783 048e 9C81      		ldd r25,Y+4
 784 0490 892B      		or r24,r25
 785 0492 01F4      		brne .+2
 786 0494 00C0      		rjmp .L40
 787               		.loc 1 126 0 is_stmt 0 discriminator 1
 788 0496 8B81      		ldd r24,Y+3
 789 0498 9C81      		ldd r25,Y+4
 790 049a FC01      		movw r30,r24
 791 049c 8081      		ld r24,Z
 792 049e 9181      		ldd r25,Z+1
 793 04a0 892B      		or r24,r25
 794 04a2 01F4      		brne .+2
 795 04a4 00C0      		rjmp .L40
 127:lp_solve_5.5/lp_SOS.c ****     return;
 128:lp_solve_5.5/lp_SOS.c ****   if((*group)->sos_alloc > 0) {
 796               		.loc 1 128 0 is_stmt 1
 797 04a6 8B81      		ldd r24,Y+3
 798 04a8 9C81      		ldd r25,Y+4
 799 04aa FC01      		movw r30,r24
 800 04ac 8081      		ld r24,Z
 801 04ae 9181      		ldd r25,Z+1
 802 04b0 FC01      		movw r30,r24
 803 04b2 8481      		ldd r24,Z+4
 804 04b4 9581      		ldd r25,Z+5
 805 04b6 1816      		cp __zero_reg__,r24
 806 04b8 1906      		cpc __zero_reg__,r25
 807 04ba 04F0      		brlt .+2
 808 04bc 00C0      		rjmp .L35
 129:lp_solve_5.5/lp_SOS.c ****     for(i = 0; i < (*group)->sos_count; i++)
 809               		.loc 1 129 0
 810 04be 1A82      		std Y+2,__zero_reg__
 811 04c0 1982      		std Y+1,__zero_reg__
 812 04c2 00C0      		rjmp .L36
 813               	.L37:
 130:lp_solve_5.5/lp_SOS.c ****       free_SOSrec((*group)->sos_list[i]);
 814               		.loc 1 130 0 discriminator 3
 815 04c4 8B81      		ldd r24,Y+3
 816 04c6 9C81      		ldd r25,Y+4
 817 04c8 FC01      		movw r30,r24
 818 04ca 8081      		ld r24,Z
 819 04cc 9181      		ldd r25,Z+1
 820 04ce FC01      		movw r30,r24
 821 04d0 2281      		ldd r18,Z+2
 822 04d2 3381      		ldd r19,Z+3
 823 04d4 8981      		ldd r24,Y+1
 824 04d6 9A81      		ldd r25,Y+2
 825 04d8 880F      		lsl r24
 826 04da 991F      		rol r25
 827 04dc 820F      		add r24,r18
 828 04de 931F      		adc r25,r19
 829 04e0 FC01      		movw r30,r24
 830 04e2 8081      		ld r24,Z
 831 04e4 9181      		ldd r25,Z+1
 832 04e6 0E94 0000 		call free_SOSrec
 129:lp_solve_5.5/lp_SOS.c ****     for(i = 0; i < (*group)->sos_count; i++)
 833               		.loc 1 129 0 discriminator 3
 834 04ea 8981      		ldd r24,Y+1
 835 04ec 9A81      		ldd r25,Y+2
 836 04ee 0196      		adiw r24,1
 837 04f0 9A83      		std Y+2,r25
 838 04f2 8983      		std Y+1,r24
 839               	.L36:
 129:lp_solve_5.5/lp_SOS.c ****     for(i = 0; i < (*group)->sos_count; i++)
 840               		.loc 1 129 0 is_stmt 0 discriminator 1
 841 04f4 8B81      		ldd r24,Y+3
 842 04f6 9C81      		ldd r25,Y+4
 843 04f8 FC01      		movw r30,r24
 844 04fa 8081      		ld r24,Z
 845 04fc 9181      		ldd r25,Z+1
 846 04fe FC01      		movw r30,r24
 847 0500 2681      		ldd r18,Z+6
 848 0502 3781      		ldd r19,Z+7
 849 0504 8981      		ldd r24,Y+1
 850 0506 9A81      		ldd r25,Y+2
 851 0508 8217      		cp r24,r18
 852 050a 9307      		cpc r25,r19
 853 050c 04F0      		brlt .L37
 131:lp_solve_5.5/lp_SOS.c ****     FREE((*group)->sos_list);
 854               		.loc 1 131 0 is_stmt 1
 855 050e 8B81      		ldd r24,Y+3
 856 0510 9C81      		ldd r25,Y+4
 857 0512 FC01      		movw r30,r24
 858 0514 8081      		ld r24,Z
 859 0516 9181      		ldd r25,Z+1
 860 0518 FC01      		movw r30,r24
 861 051a 8281      		ldd r24,Z+2
 862 051c 9381      		ldd r25,Z+3
 863 051e 892B      		or r24,r25
 864 0520 01F0      		breq .L38
 865               		.loc 1 131 0 is_stmt 0 discriminator 1
 866 0522 8B81      		ldd r24,Y+3
 867 0524 9C81      		ldd r25,Y+4
 868 0526 FC01      		movw r30,r24
 869 0528 8081      		ld r24,Z
 870 052a 9181      		ldd r25,Z+1
 871 052c FC01      		movw r30,r24
 872 052e 8281      		ldd r24,Z+2
 873 0530 9381      		ldd r25,Z+3
 874 0532 0E94 0000 		call free
 875 0536 8B81      		ldd r24,Y+3
 876 0538 9C81      		ldd r25,Y+4
 877 053a FC01      		movw r30,r24
 878 053c 8081      		ld r24,Z
 879 053e 9181      		ldd r25,Z+1
 880 0540 FC01      		movw r30,r24
 881 0542 1382      		std Z+3,__zero_reg__
 882 0544 1282      		std Z+2,__zero_reg__
 883               	.L38:
 132:lp_solve_5.5/lp_SOS.c ****     FREE((*group)->membership);
 884               		.loc 1 132 0 is_stmt 1
 885 0546 8B81      		ldd r24,Y+3
 886 0548 9C81      		ldd r25,Y+4
 887 054a FC01      		movw r30,r24
 888 054c 8081      		ld r24,Z
 889 054e 9181      		ldd r25,Z+1
 890 0550 FC01      		movw r30,r24
 891 0552 8485      		ldd r24,Z+12
 892 0554 9585      		ldd r25,Z+13
 893 0556 892B      		or r24,r25
 894 0558 01F0      		breq .L39
 895               		.loc 1 132 0 is_stmt 0 discriminator 1
 896 055a 8B81      		ldd r24,Y+3
 897 055c 9C81      		ldd r25,Y+4
 898 055e FC01      		movw r30,r24
 899 0560 8081      		ld r24,Z
 900 0562 9181      		ldd r25,Z+1
 901 0564 FC01      		movw r30,r24
 902 0566 8485      		ldd r24,Z+12
 903 0568 9585      		ldd r25,Z+13
 904 056a 0E94 0000 		call free
 905 056e 8B81      		ldd r24,Y+3
 906 0570 9C81      		ldd r25,Y+4
 907 0572 FC01      		movw r30,r24
 908 0574 8081      		ld r24,Z
 909 0576 9181      		ldd r25,Z+1
 910 0578 FC01      		movw r30,r24
 911 057a 1586      		std Z+13,__zero_reg__
 912 057c 1486      		std Z+12,__zero_reg__
 913               	.L39:
 133:lp_solve_5.5/lp_SOS.c ****     FREE((*group)->memberpos);
 914               		.loc 1 133 0 is_stmt 1
 915 057e 8B81      		ldd r24,Y+3
 916 0580 9C81      		ldd r25,Y+4
 917 0582 FC01      		movw r30,r24
 918 0584 8081      		ld r24,Z
 919 0586 9181      		ldd r25,Z+1
 920 0588 FC01      		movw r30,r24
 921 058a 8685      		ldd r24,Z+14
 922 058c 9785      		ldd r25,Z+15
 923 058e 892B      		or r24,r25
 924 0590 01F0      		breq .L35
 925               		.loc 1 133 0 is_stmt 0 discriminator 1
 926 0592 8B81      		ldd r24,Y+3
 927 0594 9C81      		ldd r25,Y+4
 928 0596 FC01      		movw r30,r24
 929 0598 8081      		ld r24,Z
 930 059a 9181      		ldd r25,Z+1
 931 059c FC01      		movw r30,r24
 932 059e 8685      		ldd r24,Z+14
 933 05a0 9785      		ldd r25,Z+15
 934 05a2 0E94 0000 		call free
 935 05a6 8B81      		ldd r24,Y+3
 936 05a8 9C81      		ldd r25,Y+4
 937 05aa FC01      		movw r30,r24
 938 05ac 8081      		ld r24,Z
 939 05ae 9181      		ldd r25,Z+1
 940 05b0 FC01      		movw r30,r24
 941 05b2 1786      		std Z+15,__zero_reg__
 942 05b4 1686      		std Z+14,__zero_reg__
 943               	.L35:
 134:lp_solve_5.5/lp_SOS.c ****   }
 135:lp_solve_5.5/lp_SOS.c ****   FREE(*group);
 944               		.loc 1 135 0 is_stmt 1
 945 05b6 8B81      		ldd r24,Y+3
 946 05b8 9C81      		ldd r25,Y+4
 947 05ba FC01      		movw r30,r24
 948 05bc 8081      		ld r24,Z
 949 05be 9181      		ldd r25,Z+1
 950 05c0 892B      		or r24,r25
 951 05c2 01F0      		breq .L31
 952               		.loc 1 135 0 is_stmt 0 discriminator 1
 953 05c4 8B81      		ldd r24,Y+3
 954 05c6 9C81      		ldd r25,Y+4
 955 05c8 FC01      		movw r30,r24
 956 05ca 8081      		ld r24,Z
 957 05cc 9181      		ldd r25,Z+1
 958 05ce 0E94 0000 		call free
 959 05d2 8B81      		ldd r24,Y+3
 960 05d4 9C81      		ldd r25,Y+4
 961 05d6 FC01      		movw r30,r24
 962 05d8 1182      		std Z+1,__zero_reg__
 963 05da 1082      		st Z,__zero_reg__
 964 05dc 00C0      		rjmp .L31
 965               	.L40:
 127:lp_solve_5.5/lp_SOS.c ****   if((*group)->sos_alloc > 0) {
 966               		.loc 1 127 0 is_stmt 1
 967 05de 0000      		nop
 968               	.L31:
 969               	/* epilogue start */
 136:lp_solve_5.5/lp_SOS.c **** }
 970               		.loc 1 136 0
 971 05e0 0F90      		pop __tmp_reg__
 972 05e2 0F90      		pop __tmp_reg__
 973 05e4 0F90      		pop __tmp_reg__
 974 05e6 0F90      		pop __tmp_reg__
 975 05e8 DF91      		pop r29
 976 05ea CF91      		pop r28
 977 05ec 0895      		ret
 978               		.cfi_endproc
 979               	.LFE11:
 981               	.global	create_SOSrec
 983               	create_SOSrec:
 984               	.LFB12:
 137:lp_solve_5.5/lp_SOS.c **** 
 138:lp_solve_5.5/lp_SOS.c **** /* SOS record functions */
 139:lp_solve_5.5/lp_SOS.c **** STATIC SOSrec *create_SOSrec(SOSgroup *group, char *name, int type, int priority, int size, int *va
 140:lp_solve_5.5/lp_SOS.c **** {
 985               		.loc 1 140 0
 986               		.cfi_startproc
 987 05ee CF92      		push r12
 988               	.LCFI20:
 989               		.cfi_def_cfa_offset 3
 990               		.cfi_offset 12, -2
 991 05f0 DF92      		push r13
 992               	.LCFI21:
 993               		.cfi_def_cfa_offset 4
 994               		.cfi_offset 13, -3
 995 05f2 EF92      		push r14
 996               	.LCFI22:
 997               		.cfi_def_cfa_offset 5
 998               		.cfi_offset 14, -4
 999 05f4 FF92      		push r15
 1000               	.LCFI23:
 1001               		.cfi_def_cfa_offset 6
 1002               		.cfi_offset 15, -5
 1003 05f6 0F93      		push r16
 1004               	.LCFI24:
 1005               		.cfi_def_cfa_offset 7
 1006               		.cfi_offset 16, -6
 1007 05f8 1F93      		push r17
 1008               	.LCFI25:
 1009               		.cfi_def_cfa_offset 8
 1010               		.cfi_offset 17, -7
 1011 05fa CF93      		push r28
 1012               	.LCFI26:
 1013               		.cfi_def_cfa_offset 9
 1014               		.cfi_offset 28, -8
 1015 05fc DF93      		push r29
 1016               	.LCFI27:
 1017               		.cfi_def_cfa_offset 10
 1018               		.cfi_offset 29, -9
 1019 05fe CDB7      		in r28,__SP_L__
 1020 0600 DEB7      		in r29,__SP_H__
 1021               	.LCFI28:
 1022               		.cfi_def_cfa_register 28
 1023 0602 6097      		sbiw r28,16
 1024               	.LCFI29:
 1025               		.cfi_def_cfa_offset 26
 1026 0604 0FB6      		in __tmp_reg__,__SREG__
 1027 0606 F894      		cli
 1028 0608 DEBF      		out __SP_H__,r29
 1029 060a 0FBE      		out __SREG__,__tmp_reg__
 1030 060c CDBF      		out __SP_L__,r28
 1031               	/* prologue: function */
 1032               	/* frame size = 16 */
 1033               	/* stack size = 24 */
 1034               	.L__stack_usage = 24
 1035 060e 9C83      		std Y+4,r25
 1036 0610 8B83      		std Y+3,r24
 1037 0612 7E83      		std Y+6,r23
 1038 0614 6D83      		std Y+5,r22
 1039 0616 5887      		std Y+8,r21
 1040 0618 4F83      		std Y+7,r20
 1041 061a 3A87      		std Y+10,r19
 1042 061c 2987      		std Y+9,r18
 1043 061e 1C87      		std Y+12,r17
 1044 0620 0B87      		std Y+11,r16
 1045 0622 FE86      		std Y+14,r15
 1046 0624 ED86      		std Y+13,r14
 1047 0626 D88A      		std Y+16,r13
 1048 0628 CF86      		std Y+15,r12
 141:lp_solve_5.5/lp_SOS.c ****   SOSrec *SOS;
 142:lp_solve_5.5/lp_SOS.c **** 
 143:lp_solve_5.5/lp_SOS.c ****   SOS = (SOSrec *) calloc(1 , sizeof(*SOS));
 1049               		.loc 1 143 0
 1050 062a 65E1      		ldi r22,lo8(21)
 1051 062c 70E0      		ldi r23,0
 1052 062e 81E0      		ldi r24,lo8(1)
 1053 0630 90E0      		ldi r25,0
 1054 0632 0E94 0000 		call calloc
 1055 0636 9A83      		std Y+2,r25
 1056 0638 8983      		std Y+1,r24
 144:lp_solve_5.5/lp_SOS.c ****   SOS->parent = group;
 1057               		.loc 1 144 0
 1058 063a 8981      		ldd r24,Y+1
 1059 063c 9A81      		ldd r25,Y+2
 1060 063e 2B81      		ldd r18,Y+3
 1061 0640 3C81      		ldd r19,Y+4
 1062 0642 FC01      		movw r30,r24
 1063 0644 3183      		std Z+1,r19
 1064 0646 2083      		st Z,r18
 145:lp_solve_5.5/lp_SOS.c ****   SOS->type = type;
 1065               		.loc 1 145 0
 1066 0648 8981      		ldd r24,Y+1
 1067 064a 9A81      		ldd r25,Y+2
 1068 064c 2F81      		ldd r18,Y+7
 1069 064e 3885      		ldd r19,Y+8
 1070 0650 FC01      		movw r30,r24
 1071 0652 3783      		std Z+7,r19
 1072 0654 2683      		std Z+6,r18
 146:lp_solve_5.5/lp_SOS.c ****   if(name == NULL)
 1073               		.loc 1 146 0
 1074 0656 8D81      		ldd r24,Y+5
 1075 0658 9E81      		ldd r25,Y+6
 1076 065a 892B      		or r24,r25
 1077 065c 01F4      		brne .L42
 147:lp_solve_5.5/lp_SOS.c ****     SOS->name = NULL;
 1078               		.loc 1 147 0
 1079 065e 8981      		ldd r24,Y+1
 1080 0660 9A81      		ldd r25,Y+2
 1081 0662 FC01      		movw r30,r24
 1082 0664 1582      		std Z+5,__zero_reg__
 1083 0666 1482      		std Z+4,__zero_reg__
 1084 0668 00C0      		rjmp .L43
 1085               	.L42:
 148:lp_solve_5.5/lp_SOS.c ****   else
 149:lp_solve_5.5/lp_SOS.c ****   {
 150:lp_solve_5.5/lp_SOS.c ****     allocCHAR(group->lp, &SOS->name, (int) (strlen(name)+1), FALSE);
 1086               		.loc 1 150 0
 1087 066a 8D81      		ldd r24,Y+5
 1088 066c 9E81      		ldd r25,Y+6
 1089 066e 0E94 0000 		call strlen
 1090 0672 0196      		adiw r24,1
 1091 0674 AC01      		movw r20,r24
 1092 0676 8981      		ldd r24,Y+1
 1093 0678 9A81      		ldd r25,Y+2
 1094 067a BC01      		movw r22,r24
 1095 067c 6C5F      		subi r22,-4
 1096 067e 7F4F      		sbci r23,-1
 1097 0680 8B81      		ldd r24,Y+3
 1098 0682 9C81      		ldd r25,Y+4
 1099 0684 FC01      		movw r30,r24
 1100 0686 8081      		ld r24,Z
 1101 0688 9181      		ldd r25,Z+1
 1102 068a 20E0      		ldi r18,0
 1103 068c 0E94 0000 		call allocCHAR
 151:lp_solve_5.5/lp_SOS.c ****     strcpy(SOS->name, name);
 1104               		.loc 1 151 0
 1105 0690 8981      		ldd r24,Y+1
 1106 0692 9A81      		ldd r25,Y+2
 1107 0694 FC01      		movw r30,r24
 1108 0696 8481      		ldd r24,Z+4
 1109 0698 9581      		ldd r25,Z+5
 1110 069a 2D81      		ldd r18,Y+5
 1111 069c 3E81      		ldd r19,Y+6
 1112 069e B901      		movw r22,r18
 1113 06a0 0E94 0000 		call strcpy
 1114               	.L43:
 152:lp_solve_5.5/lp_SOS.c ****   }
 153:lp_solve_5.5/lp_SOS.c ****   if(type < 0)
 1115               		.loc 1 153 0
 1116 06a4 8F81      		ldd r24,Y+7
 1117 06a6 9885      		ldd r25,Y+8
 1118 06a8 9923      		tst r25
 1119 06aa 04F4      		brge .L44
 154:lp_solve_5.5/lp_SOS.c ****     type = abs(type);
 1120               		.loc 1 154 0
 1121 06ac 8F81      		ldd r24,Y+7
 1122 06ae 9885      		ldd r25,Y+8
 1123 06b0 9923      		tst r25
 1124 06b2 04F4      		brge .L45
 1125 06b4 9195      		neg r25
 1126 06b6 8195      		neg r24
 1127 06b8 9109      		sbc r25,__zero_reg__
 1128               	.L45:
 1129 06ba 9887      		std Y+8,r25
 1130 06bc 8F83      		std Y+7,r24
 1131               	.L44:
 155:lp_solve_5.5/lp_SOS.c ****   SOS->tagorder = 0;
 1132               		.loc 1 155 0
 1133 06be 8981      		ldd r24,Y+1
 1134 06c0 9A81      		ldd r25,Y+2
 1135 06c2 FC01      		movw r30,r24
 1136 06c4 1382      		std Z+3,__zero_reg__
 1137 06c6 1282      		std Z+2,__zero_reg__
 156:lp_solve_5.5/lp_SOS.c ****   SOS->size = 0;
 1138               		.loc 1 156 0
 1139 06c8 8981      		ldd r24,Y+1
 1140 06ca 9A81      		ldd r25,Y+2
 1141 06cc FC01      		movw r30,r24
 1142 06ce 1286      		std Z+10,__zero_reg__
 1143 06d0 1186      		std Z+9,__zero_reg__
 157:lp_solve_5.5/lp_SOS.c ****   SOS->priority = priority;
 1144               		.loc 1 157 0
 1145 06d2 8981      		ldd r24,Y+1
 1146 06d4 9A81      		ldd r25,Y+2
 1147 06d6 2985      		ldd r18,Y+9
 1148 06d8 3A85      		ldd r19,Y+10
 1149 06da FC01      		movw r30,r24
 1150 06dc 3487      		std Z+12,r19
 1151 06de 2387      		std Z+11,r18
 158:lp_solve_5.5/lp_SOS.c ****   SOS->members = NULL;
 1152               		.loc 1 158 0
 1153 06e0 8981      		ldd r24,Y+1
 1154 06e2 9A81      		ldd r25,Y+2
 1155 06e4 FC01      		movw r30,r24
 1156 06e6 1686      		std Z+14,__zero_reg__
 1157 06e8 1586      		std Z+13,__zero_reg__
 159:lp_solve_5.5/lp_SOS.c ****   SOS->weights = NULL;
 1158               		.loc 1 159 0
 1159 06ea 8981      		ldd r24,Y+1
 1160 06ec 9A81      		ldd r25,Y+2
 1161 06ee FC01      		movw r30,r24
 1162 06f0 108A      		std Z+16,__zero_reg__
 1163 06f2 1786      		std Z+15,__zero_reg__
 160:lp_solve_5.5/lp_SOS.c ****   SOS->membersSorted = NULL;
 1164               		.loc 1 160 0
 1165 06f4 8981      		ldd r24,Y+1
 1166 06f6 9A81      		ldd r25,Y+2
 1167 06f8 FC01      		movw r30,r24
 1168 06fa 128A      		std Z+18,__zero_reg__
 1169 06fc 118A      		std Z+17,__zero_reg__
 161:lp_solve_5.5/lp_SOS.c ****   SOS->membersMapped = NULL;
 1170               		.loc 1 161 0
 1171 06fe 8981      		ldd r24,Y+1
 1172 0700 9A81      		ldd r25,Y+2
 1173 0702 FC01      		movw r30,r24
 1174 0704 148A      		std Z+20,__zero_reg__
 1175 0706 138A      		std Z+19,__zero_reg__
 162:lp_solve_5.5/lp_SOS.c **** 
 163:lp_solve_5.5/lp_SOS.c ****   if(size > 0)
 1176               		.loc 1 163 0
 1177 0708 8B85      		ldd r24,Y+11
 1178 070a 9C85      		ldd r25,Y+12
 1179 070c 1816      		cp __zero_reg__,r24
 1180 070e 1906      		cpc __zero_reg__,r25
 1181 0710 04F4      		brge .L46
 164:lp_solve_5.5/lp_SOS.c ****     size = append_SOSrec(SOS, size, variables, weights);
 1182               		.loc 1 164 0
 1183 0712 2F85      		ldd r18,Y+15
 1184 0714 3889      		ldd r19,Y+16
 1185 0716 4D85      		ldd r20,Y+13
 1186 0718 5E85      		ldd r21,Y+14
 1187 071a 6B85      		ldd r22,Y+11
 1188 071c 7C85      		ldd r23,Y+12
 1189 071e 8981      		ldd r24,Y+1
 1190 0720 9A81      		ldd r25,Y+2
 1191 0722 0E94 0000 		call append_SOSrec
 1192 0726 9C87      		std Y+12,r25
 1193 0728 8B87      		std Y+11,r24
 1194               	.L46:
 165:lp_solve_5.5/lp_SOS.c **** 
 166:lp_solve_5.5/lp_SOS.c ****   return(SOS);
 1195               		.loc 1 166 0
 1196 072a 8981      		ldd r24,Y+1
 1197 072c 9A81      		ldd r25,Y+2
 1198               	/* epilogue start */
 167:lp_solve_5.5/lp_SOS.c **** }
 1199               		.loc 1 167 0
 1200 072e 6096      		adiw r28,16
 1201 0730 0FB6      		in __tmp_reg__,__SREG__
 1202 0732 F894      		cli
 1203 0734 DEBF      		out __SP_H__,r29
 1204 0736 0FBE      		out __SREG__,__tmp_reg__
 1205 0738 CDBF      		out __SP_L__,r28
 1206 073a DF91      		pop r29
 1207 073c CF91      		pop r28
 1208 073e 1F91      		pop r17
 1209 0740 0F91      		pop r16
 1210 0742 FF90      		pop r15
 1211 0744 EF90      		pop r14
 1212 0746 DF90      		pop r13
 1213 0748 CF90      		pop r12
 1214 074a 0895      		ret
 1215               		.cfi_endproc
 1216               	.LFE12:
 1218               		.section	.rodata
 1219               	.LC0:
 1220 0000 6170 7065 		.string	"append_SOS_rec: Invalid SOS variable definition for index %d\n"
 1220      6E64 5F53 
 1220      4F53 5F72 
 1220      6563 3A20 
 1220      496E 7661 
 1221               	.global	__addsf3
 1222               	.LC1:
 1223 003e 6170 7065 		.string	"append_SOS_rec: Non-unique SOS variable weight for index %d\n"
 1223      6E64 5F53 
 1223      4F53 5F72 
 1223      6563 3A20 
 1223      4E6F 6E2D 
 1224               		.text
 1225               	.global	append_SOSrec
 1227               	append_SOSrec:
 1228               	.LFB13:
 168:lp_solve_5.5/lp_SOS.c **** 
 169:lp_solve_5.5/lp_SOS.c **** 
 170:lp_solve_5.5/lp_SOS.c **** STATIC int append_SOSrec(SOSrec *SOS, int size, int *variables, REAL *weights)
 171:lp_solve_5.5/lp_SOS.c **** {
 1229               		.loc 1 171 0
 1230               		.cfi_startproc
 1231 074c 0F93      		push r16
 1232               	.LCFI30:
 1233               		.cfi_def_cfa_offset 3
 1234               		.cfi_offset 16, -2
 1235 074e 1F93      		push r17
 1236               	.LCFI31:
 1237               		.cfi_def_cfa_offset 4
 1238               		.cfi_offset 17, -3
 1239 0750 CF93      		push r28
 1240               	.LCFI32:
 1241               		.cfi_def_cfa_offset 5
 1242               		.cfi_offset 28, -4
 1243 0752 DF93      		push r29
 1244               	.LCFI33:
 1245               		.cfi_def_cfa_offset 6
 1246               		.cfi_offset 29, -5
 1247 0754 CDB7      		in r28,__SP_L__
 1248 0756 DEB7      		in r29,__SP_H__
 1249               	.LCFI34:
 1250               		.cfi_def_cfa_register 28
 1251 0758 6297      		sbiw r28,18
 1252               	.LCFI35:
 1253               		.cfi_def_cfa_offset 24
 1254 075a 0FB6      		in __tmp_reg__,__SREG__
 1255 075c F894      		cli
 1256 075e DEBF      		out __SP_H__,r29
 1257 0760 0FBE      		out __SREG__,__tmp_reg__
 1258 0762 CDBF      		out __SP_L__,r28
 1259               	/* prologue: function */
 1260               	/* frame size = 18 */
 1261               	/* stack size = 22 */
 1262               	.L__stack_usage = 22
 1263 0764 9C87      		std Y+12,r25
 1264 0766 8B87      		std Y+11,r24
 1265 0768 7E87      		std Y+14,r23
 1266 076a 6D87      		std Y+13,r22
 1267 076c 588B      		std Y+16,r21
 1268 076e 4F87      		std Y+15,r20
 1269 0770 3A8B      		std Y+18,r19
 1270 0772 298B      		std Y+17,r18
 172:lp_solve_5.5/lp_SOS.c ****   int   i, oldsize, newsize, nn;
 173:lp_solve_5.5/lp_SOS.c ****   lprec *lp = SOS->parent->lp;
 1271               		.loc 1 173 0
 1272 0774 8B85      		ldd r24,Y+11
 1273 0776 9C85      		ldd r25,Y+12
 1274 0778 FC01      		movw r30,r24
 1275 077a 8081      		ld r24,Z
 1276 077c 9181      		ldd r25,Z+1
 1277 077e FC01      		movw r30,r24
 1278 0780 8081      		ld r24,Z
 1279 0782 9181      		ldd r25,Z+1
 1280 0784 9C83      		std Y+4,r25
 1281 0786 8B83      		std Y+3,r24
 174:lp_solve_5.5/lp_SOS.c **** 
 175:lp_solve_5.5/lp_SOS.c ****   oldsize = SOS->size;
 1282               		.loc 1 175 0
 1283 0788 8B85      		ldd r24,Y+11
 1284 078a 9C85      		ldd r25,Y+12
 1285 078c FC01      		movw r30,r24
 1286 078e 8185      		ldd r24,Z+9
 1287 0790 9285      		ldd r25,Z+10
 1288 0792 9E83      		std Y+6,r25
 1289 0794 8D83      		std Y+5,r24
 176:lp_solve_5.5/lp_SOS.c ****   newsize = oldsize + size;
 1290               		.loc 1 176 0
 1291 0796 2D81      		ldd r18,Y+5
 1292 0798 3E81      		ldd r19,Y+6
 1293 079a 8D85      		ldd r24,Y+13
 1294 079c 9E85      		ldd r25,Y+14
 1295 079e 820F      		add r24,r18
 1296 07a0 931F      		adc r25,r19
 1297 07a2 9887      		std Y+8,r25
 1298 07a4 8F83      		std Y+7,r24
 177:lp_solve_5.5/lp_SOS.c ****   nn = abs(SOS->type);
 1299               		.loc 1 177 0
 1300 07a6 8B85      		ldd r24,Y+11
 1301 07a8 9C85      		ldd r25,Y+12
 1302 07aa FC01      		movw r30,r24
 1303 07ac 8681      		ldd r24,Z+6
 1304 07ae 9781      		ldd r25,Z+7
 1305 07b0 9923      		tst r25
 1306 07b2 04F4      		brge .L49
 1307 07b4 9195      		neg r25
 1308 07b6 8195      		neg r24
 1309 07b8 9109      		sbc r25,__zero_reg__
 1310               	.L49:
 1311 07ba 9A87      		std Y+10,r25
 1312 07bc 8987      		std Y+9,r24
 178:lp_solve_5.5/lp_SOS.c **** 
 179:lp_solve_5.5/lp_SOS.c ****  /* Shift existing active data right (normally zero) */
 180:lp_solve_5.5/lp_SOS.c ****   if(SOS->members == NULL)
 1313               		.loc 1 180 0
 1314 07be 8B85      		ldd r24,Y+11
 1315 07c0 9C85      		ldd r25,Y+12
 1316 07c2 FC01      		movw r30,r24
 1317 07c4 8585      		ldd r24,Z+13
 1318 07c6 9685      		ldd r25,Z+14
 1319 07c8 892B      		or r24,r25
 1320 07ca 01F4      		brne .L50
 181:lp_solve_5.5/lp_SOS.c ****     allocINT(lp, &SOS->members, 1+newsize+1+nn, TRUE);
 1321               		.loc 1 181 0
 1322 07cc 8F81      		ldd r24,Y+7
 1323 07ce 9885      		ldd r25,Y+8
 1324 07d0 9C01      		movw r18,r24
 1325 07d2 2E5F      		subi r18,-2
 1326 07d4 3F4F      		sbci r19,-1
 1327 07d6 8985      		ldd r24,Y+9
 1328 07d8 9A85      		ldd r25,Y+10
 1329 07da A901      		movw r20,r18
 1330 07dc 480F      		add r20,r24
 1331 07de 591F      		adc r21,r25
 1332 07e0 8B85      		ldd r24,Y+11
 1333 07e2 9C85      		ldd r25,Y+12
 1334 07e4 BC01      		movw r22,r24
 1335 07e6 635F      		subi r22,-13
 1336 07e8 7F4F      		sbci r23,-1
 1337 07ea 8B81      		ldd r24,Y+3
 1338 07ec 9C81      		ldd r25,Y+4
 1339 07ee 21E0      		ldi r18,lo8(1)
 1340 07f0 0E94 0000 		call allocINT
 1341 07f4 00C0      		rjmp .L51
 1342               	.L50:
 182:lp_solve_5.5/lp_SOS.c ****   else {
 183:lp_solve_5.5/lp_SOS.c ****     allocINT(lp, &SOS->members, 1+newsize+1+nn, AUTOMATIC);
 1343               		.loc 1 183 0
 1344 07f6 8F81      		ldd r24,Y+7
 1345 07f8 9885      		ldd r25,Y+8
 1346 07fa 9C01      		movw r18,r24
 1347 07fc 2E5F      		subi r18,-2
 1348 07fe 3F4F      		sbci r19,-1
 1349 0800 8985      		ldd r24,Y+9
 1350 0802 9A85      		ldd r25,Y+10
 1351 0804 A901      		movw r20,r18
 1352 0806 480F      		add r20,r24
 1353 0808 591F      		adc r21,r25
 1354 080a 8B85      		ldd r24,Y+11
 1355 080c 9C85      		ldd r25,Y+12
 1356 080e BC01      		movw r22,r24
 1357 0810 635F      		subi r22,-13
 1358 0812 7F4F      		sbci r23,-1
 1359 0814 8B81      		ldd r24,Y+3
 1360 0816 9C81      		ldd r25,Y+4
 1361 0818 22E0      		ldi r18,lo8(2)
 1362 081a 0E94 0000 		call allocINT
 184:lp_solve_5.5/lp_SOS.c ****     for(i = newsize+1+nn; i > newsize+1; i--)
 1363               		.loc 1 184 0
 1364 081e 8F81      		ldd r24,Y+7
 1365 0820 9885      		ldd r25,Y+8
 1366 0822 9C01      		movw r18,r24
 1367 0824 2F5F      		subi r18,-1
 1368 0826 3F4F      		sbci r19,-1
 1369 0828 8985      		ldd r24,Y+9
 1370 082a 9A85      		ldd r25,Y+10
 1371 082c 820F      		add r24,r18
 1372 082e 931F      		adc r25,r19
 1373 0830 9A83      		std Y+2,r25
 1374 0832 8983      		std Y+1,r24
 1375 0834 00C0      		rjmp .L52
 1376               	.L53:
 185:lp_solve_5.5/lp_SOS.c ****     SOS->members[i] = SOS->members[i-size];
 1377               		.loc 1 185 0 discriminator 3
 1378 0836 8B85      		ldd r24,Y+11
 1379 0838 9C85      		ldd r25,Y+12
 1380 083a FC01      		movw r30,r24
 1381 083c 2585      		ldd r18,Z+13
 1382 083e 3685      		ldd r19,Z+14
 1383 0840 8981      		ldd r24,Y+1
 1384 0842 9A81      		ldd r25,Y+2
 1385 0844 880F      		lsl r24
 1386 0846 991F      		rol r25
 1387 0848 820F      		add r24,r18
 1388 084a 931F      		adc r25,r19
 1389 084c 2B85      		ldd r18,Y+11
 1390 084e 3C85      		ldd r19,Y+12
 1391 0850 F901      		movw r30,r18
 1392 0852 4585      		ldd r20,Z+13
 1393 0854 5685      		ldd r21,Z+14
 1394 0856 6981      		ldd r22,Y+1
 1395 0858 7A81      		ldd r23,Y+2
 1396 085a 2D85      		ldd r18,Y+13
 1397 085c 3E85      		ldd r19,Y+14
 1398 085e FB01      		movw r30,r22
 1399 0860 E21B      		sub r30,r18
 1400 0862 F30B      		sbc r31,r19
 1401 0864 9F01      		movw r18,r30
 1402 0866 220F      		lsl r18
 1403 0868 331F      		rol r19
 1404 086a 240F      		add r18,r20
 1405 086c 351F      		adc r19,r21
 1406 086e F901      		movw r30,r18
 1407 0870 2081      		ld r18,Z
 1408 0872 3181      		ldd r19,Z+1
 1409 0874 FC01      		movw r30,r24
 1410 0876 3183      		std Z+1,r19
 1411 0878 2083      		st Z,r18
 184:lp_solve_5.5/lp_SOS.c ****     for(i = newsize+1+nn; i > newsize+1; i--)
 1412               		.loc 1 184 0 discriminator 3
 1413 087a 8981      		ldd r24,Y+1
 1414 087c 9A81      		ldd r25,Y+2
 1415 087e 0197      		sbiw r24,1
 1416 0880 9A83      		std Y+2,r25
 1417 0882 8983      		std Y+1,r24
 1418               	.L52:
 184:lp_solve_5.5/lp_SOS.c ****     for(i = newsize+1+nn; i > newsize+1; i--)
 1419               		.loc 1 184 0 is_stmt 0 discriminator 1
 1420 0884 8F81      		ldd r24,Y+7
 1421 0886 9885      		ldd r25,Y+8
 1422 0888 9C01      		movw r18,r24
 1423 088a 2F5F      		subi r18,-1
 1424 088c 3F4F      		sbci r19,-1
 1425 088e 8981      		ldd r24,Y+1
 1426 0890 9A81      		ldd r25,Y+2
 1427 0892 2817      		cp r18,r24
 1428 0894 3907      		cpc r19,r25
 1429 0896 04F0      		brlt .L53
 1430               	.L51:
 186:lp_solve_5.5/lp_SOS.c ****   }
 187:lp_solve_5.5/lp_SOS.c ****   SOS->members[0] = newsize;
 1431               		.loc 1 187 0 is_stmt 1
 1432 0898 8B85      		ldd r24,Y+11
 1433 089a 9C85      		ldd r25,Y+12
 1434 089c FC01      		movw r30,r24
 1435 089e 8585      		ldd r24,Z+13
 1436 08a0 9685      		ldd r25,Z+14
 1437 08a2 2F81      		ldd r18,Y+7
 1438 08a4 3885      		ldd r19,Y+8
 1439 08a6 FC01      		movw r30,r24
 1440 08a8 3183      		std Z+1,r19
 1441 08aa 2083      		st Z,r18
 188:lp_solve_5.5/lp_SOS.c ****   SOS->members[newsize+1] = nn;
 1442               		.loc 1 188 0
 1443 08ac 8B85      		ldd r24,Y+11
 1444 08ae 9C85      		ldd r25,Y+12
 1445 08b0 FC01      		movw r30,r24
 1446 08b2 2585      		ldd r18,Z+13
 1447 08b4 3685      		ldd r19,Z+14
 1448 08b6 8F81      		ldd r24,Y+7
 1449 08b8 9885      		ldd r25,Y+8
 1450 08ba 0196      		adiw r24,1
 1451 08bc 880F      		lsl r24
 1452 08be 991F      		rol r25
 1453 08c0 820F      		add r24,r18
 1454 08c2 931F      		adc r25,r19
 1455 08c4 2985      		ldd r18,Y+9
 1456 08c6 3A85      		ldd r19,Y+10
 1457 08c8 FC01      		movw r30,r24
 1458 08ca 3183      		std Z+1,r19
 1459 08cc 2083      		st Z,r18
 189:lp_solve_5.5/lp_SOS.c **** 
 190:lp_solve_5.5/lp_SOS.c ****  /* Copy the new data into the arrays */
 191:lp_solve_5.5/lp_SOS.c ****   if(SOS->weights == NULL)
 1460               		.loc 1 191 0
 1461 08ce 8B85      		ldd r24,Y+11
 1462 08d0 9C85      		ldd r25,Y+12
 1463 08d2 FC01      		movw r30,r24
 1464 08d4 8785      		ldd r24,Z+15
 1465 08d6 9089      		ldd r25,Z+16
 1466 08d8 892B      		or r24,r25
 1467 08da 01F4      		brne .L54
 192:lp_solve_5.5/lp_SOS.c ****     allocREAL(lp, &SOS->weights, 1+newsize, TRUE);
 1468               		.loc 1 192 0
 1469 08dc 8F81      		ldd r24,Y+7
 1470 08de 9885      		ldd r25,Y+8
 1471 08e0 AC01      		movw r20,r24
 1472 08e2 4F5F      		subi r20,-1
 1473 08e4 5F4F      		sbci r21,-1
 1474 08e6 8B85      		ldd r24,Y+11
 1475 08e8 9C85      		ldd r25,Y+12
 1476 08ea BC01      		movw r22,r24
 1477 08ec 615F      		subi r22,-15
 1478 08ee 7F4F      		sbci r23,-1
 1479 08f0 8B81      		ldd r24,Y+3
 1480 08f2 9C81      		ldd r25,Y+4
 1481 08f4 21E0      		ldi r18,lo8(1)
 1482 08f6 0E94 0000 		call allocREAL
 1483 08fa 00C0      		rjmp .L55
 1484               	.L54:
 193:lp_solve_5.5/lp_SOS.c ****   else
 194:lp_solve_5.5/lp_SOS.c ****     allocREAL(lp, &SOS->weights, 1+newsize, AUTOMATIC);
 1485               		.loc 1 194 0
 1486 08fc 8F81      		ldd r24,Y+7
 1487 08fe 9885      		ldd r25,Y+8
 1488 0900 AC01      		movw r20,r24
 1489 0902 4F5F      		subi r20,-1
 1490 0904 5F4F      		sbci r21,-1
 1491 0906 8B85      		ldd r24,Y+11
 1492 0908 9C85      		ldd r25,Y+12
 1493 090a BC01      		movw r22,r24
 1494 090c 615F      		subi r22,-15
 1495 090e 7F4F      		sbci r23,-1
 1496 0910 8B81      		ldd r24,Y+3
 1497 0912 9C81      		ldd r25,Y+4
 1498 0914 22E0      		ldi r18,lo8(2)
 1499 0916 0E94 0000 		call allocREAL
 1500               	.L55:
 195:lp_solve_5.5/lp_SOS.c ****   for(i = oldsize+1; i <= newsize; i++) {
 1501               		.loc 1 195 0
 1502 091a 8D81      		ldd r24,Y+5
 1503 091c 9E81      		ldd r25,Y+6
 1504 091e 0196      		adiw r24,1
 1505 0920 9A83      		std Y+2,r25
 1506 0922 8983      		std Y+1,r24
 1507 0924 00C0      		rjmp .L56
 1508               	.L63:
 196:lp_solve_5.5/lp_SOS.c ****     SOS->members[i] = variables[i-oldsize-1];
 1509               		.loc 1 196 0
 1510 0926 8B85      		ldd r24,Y+11
 1511 0928 9C85      		ldd r25,Y+12
 1512 092a FC01      		movw r30,r24
 1513 092c 2585      		ldd r18,Z+13
 1514 092e 3685      		ldd r19,Z+14
 1515 0930 8981      		ldd r24,Y+1
 1516 0932 9A81      		ldd r25,Y+2
 1517 0934 880F      		lsl r24
 1518 0936 991F      		rol r25
 1519 0938 820F      		add r24,r18
 1520 093a 931F      		adc r25,r19
 1521 093c 4981      		ldd r20,Y+1
 1522 093e 5A81      		ldd r21,Y+2
 1523 0940 2D81      		ldd r18,Y+5
 1524 0942 3E81      		ldd r19,Y+6
 1525 0944 BA01      		movw r22,r20
 1526 0946 621B      		sub r22,r18
 1527 0948 730B      		sbc r23,r19
 1528 094a 9B01      		movw r18,r22
 1529 094c 2150      		subi r18,1
 1530 094e 3048      		sbci r19,-128
 1531 0950 220F      		lsl r18
 1532 0952 331F      		rol r19
 1533 0954 4F85      		ldd r20,Y+15
 1534 0956 5889      		ldd r21,Y+16
 1535 0958 240F      		add r18,r20
 1536 095a 351F      		adc r19,r21
 1537 095c F901      		movw r30,r18
 1538 095e 2081      		ld r18,Z
 1539 0960 3181      		ldd r19,Z+1
 1540 0962 FC01      		movw r30,r24
 1541 0964 3183      		std Z+1,r19
 1542 0966 2083      		st Z,r18
 197:lp_solve_5.5/lp_SOS.c ****     if((SOS->members[i] < 1) || (SOS->members[i] > lp->columns))
 1543               		.loc 1 197 0
 1544 0968 8B85      		ldd r24,Y+11
 1545 096a 9C85      		ldd r25,Y+12
 1546 096c FC01      		movw r30,r24
 1547 096e 2585      		ldd r18,Z+13
 1548 0970 3685      		ldd r19,Z+14
 1549 0972 8981      		ldd r24,Y+1
 1550 0974 9A81      		ldd r25,Y+2
 1551 0976 880F      		lsl r24
 1552 0978 991F      		rol r25
 1553 097a 820F      		add r24,r18
 1554 097c 931F      		adc r25,r19
 1555 097e FC01      		movw r30,r24
 1556 0980 8081      		ld r24,Z
 1557 0982 9181      		ldd r25,Z+1
 1558 0984 1816      		cp __zero_reg__,r24
 1559 0986 1906      		cpc __zero_reg__,r25
 1560 0988 04F4      		brge .L57
 1561               		.loc 1 197 0 is_stmt 0 discriminator 1
 1562 098a 8B85      		ldd r24,Y+11
 1563 098c 9C85      		ldd r25,Y+12
 1564 098e FC01      		movw r30,r24
 1565 0990 2585      		ldd r18,Z+13
 1566 0992 3685      		ldd r19,Z+14
 1567 0994 8981      		ldd r24,Y+1
 1568 0996 9A81      		ldd r25,Y+2
 1569 0998 880F      		lsl r24
 1570 099a 991F      		rol r25
 1571 099c 820F      		add r24,r18
 1572 099e 931F      		adc r25,r19
 1573 09a0 FC01      		movw r30,r24
 1574 09a2 2081      		ld r18,Z
 1575 09a4 3181      		ldd r19,Z+1
 1576 09a6 8B81      		ldd r24,Y+3
 1577 09a8 9C81      		ldd r25,Y+4
 1578 09aa 8451      		subi r24,20
 1579 09ac 9E4F      		sbci r25,-2
 1580 09ae FC01      		movw r30,r24
 1581 09b0 8081      		ld r24,Z
 1582 09b2 9181      		ldd r25,Z+1
 1583 09b4 8217      		cp r24,r18
 1584 09b6 9307      		cpc r25,r19
 1585 09b8 04F4      		brge .L58
 1586               	.L57:
 198:lp_solve_5.5/lp_SOS.c ****       report(lp, IMPORTANT, "append_SOS_rec: Invalid SOS variable definition for index %d\n", SOS->
 1587               		.loc 1 198 0 is_stmt 1
 1588 09ba 8B85      		ldd r24,Y+11
 1589 09bc 9C85      		ldd r25,Y+12
 1590 09be FC01      		movw r30,r24
 1591 09c0 2585      		ldd r18,Z+13
 1592 09c2 3685      		ldd r19,Z+14
 1593 09c4 8981      		ldd r24,Y+1
 1594 09c6 9A81      		ldd r25,Y+2
 1595 09c8 880F      		lsl r24
 1596 09ca 991F      		rol r25
 1597 09cc 820F      		add r24,r18
 1598 09ce 931F      		adc r25,r19
 1599 09d0 FC01      		movw r30,r24
 1600 09d2 8081      		ld r24,Z
 1601 09d4 9181      		ldd r25,Z+1
 1602 09d6 292F      		mov r18,r25
 1603 09d8 2F93      		push r18
 1604 09da 8F93      		push r24
 1605 09dc 80E0      		ldi r24,lo8(.LC0)
 1606 09de 90E0      		ldi r25,hi8(.LC0)
 1607 09e0 892F      		mov r24,r25
 1608 09e2 8F93      		push r24
 1609 09e4 80E0      		ldi r24,lo8(.LC0)
 1610 09e6 90E0      		ldi r25,hi8(.LC0)
 1611 09e8 8F93      		push r24
 1612 09ea 1F92      		push __zero_reg__
 1613 09ec 83E0      		ldi r24,lo8(3)
 1614 09ee 8F93      		push r24
 1615 09f0 8C81      		ldd r24,Y+4
 1616 09f2 8F93      		push r24
 1617 09f4 8B81      		ldd r24,Y+3
 1618 09f6 8F93      		push r24
 1619 09f8 0E94 0000 		call report
 1620 09fc 6DB7      		in r22,__SP_L__
 1621 09fe 7EB7      		in r23,__SP_H__
 1622 0a00 685F      		subi r22,-8
 1623 0a02 7F4F      		sbci r23,-1
 1624 0a04 0FB6      		in __tmp_reg__,__SREG__
 1625 0a06 F894      		cli
 1626 0a08 DEBF      		out __SP_H__,r29
 1627 0a0a 0FBE      		out __SREG__,__tmp_reg__
 1628 0a0c CDBF      		out __SP_L__,r28
 1629 0a0e 00C0      		rjmp .L59
 1630               	.L58:
 199:lp_solve_5.5/lp_SOS.c ****     else {
 200:lp_solve_5.5/lp_SOS.c ****       if(SOS->isGUB)
 1631               		.loc 1 200 0
 1632 0a10 8B85      		ldd r24,Y+11
 1633 0a12 9C85      		ldd r25,Y+12
 1634 0a14 FC01      		movw r30,r24
 1635 0a16 8085      		ldd r24,Z+8
 1636 0a18 8823      		tst r24
 1637 0a1a 01F0      		breq .L60
 201:lp_solve_5.5/lp_SOS.c ****         lp->var_type[SOS->members[i]] |= ISGUB;
 1638               		.loc 1 201 0
 1639 0a1c 8B81      		ldd r24,Y+3
 1640 0a1e 9C81      		ldd r25,Y+4
 1641 0a20 8A57      		subi r24,122
 1642 0a22 9D4F      		sbci r25,-3
 1643 0a24 FC01      		movw r30,r24
 1644 0a26 8081      		ld r24,Z
 1645 0a28 9181      		ldd r25,Z+1
 1646 0a2a 2B85      		ldd r18,Y+11
 1647 0a2c 3C85      		ldd r19,Y+12
 1648 0a2e F901      		movw r30,r18
 1649 0a30 4585      		ldd r20,Z+13
 1650 0a32 5685      		ldd r21,Z+14
 1651 0a34 2981      		ldd r18,Y+1
 1652 0a36 3A81      		ldd r19,Y+2
 1653 0a38 220F      		lsl r18
 1654 0a3a 331F      		rol r19
 1655 0a3c 240F      		add r18,r20
 1656 0a3e 351F      		adc r19,r21
 1657 0a40 F901      		movw r30,r18
 1658 0a42 2081      		ld r18,Z
 1659 0a44 3181      		ldd r19,Z+1
 1660 0a46 820F      		add r24,r18
 1661 0a48 931F      		adc r25,r19
 1662 0a4a 2B81      		ldd r18,Y+3
 1663 0a4c 3C81      		ldd r19,Y+4
 1664 0a4e 2A57      		subi r18,122
 1665 0a50 3D4F      		sbci r19,-3
 1666 0a52 F901      		movw r30,r18
 1667 0a54 2081      		ld r18,Z
 1668 0a56 3181      		ldd r19,Z+1
 1669 0a58 4B85      		ldd r20,Y+11
 1670 0a5a 5C85      		ldd r21,Y+12
 1671 0a5c FA01      		movw r30,r20
 1672 0a5e 6585      		ldd r22,Z+13
 1673 0a60 7685      		ldd r23,Z+14
 1674 0a62 4981      		ldd r20,Y+1
 1675 0a64 5A81      		ldd r21,Y+2
 1676 0a66 440F      		lsl r20
 1677 0a68 551F      		rol r21
 1678 0a6a 460F      		add r20,r22
 1679 0a6c 571F      		adc r21,r23
 1680 0a6e FA01      		movw r30,r20
 1681 0a70 4081      		ld r20,Z
 1682 0a72 5181      		ldd r21,Z+1
 1683 0a74 240F      		add r18,r20
 1684 0a76 351F      		adc r19,r21
 1685 0a78 F901      		movw r30,r18
 1686 0a7a 2081      		ld r18,Z
 1687 0a7c 2061      		ori r18,lo8(16)
 1688 0a7e FC01      		movw r30,r24
 1689 0a80 2083      		st Z,r18
 1690 0a82 00C0      		rjmp .L59
 1691               	.L60:
 202:lp_solve_5.5/lp_SOS.c ****       else
 203:lp_solve_5.5/lp_SOS.c ****         lp->var_type[SOS->members[i]] |= ISSOS;
 1692               		.loc 1 203 0
 1693 0a84 8B81      		ldd r24,Y+3
 1694 0a86 9C81      		ldd r25,Y+4
 1695 0a88 8A57      		subi r24,122
 1696 0a8a 9D4F      		sbci r25,-3
 1697 0a8c FC01      		movw r30,r24
 1698 0a8e 8081      		ld r24,Z
 1699 0a90 9181      		ldd r25,Z+1
 1700 0a92 2B85      		ldd r18,Y+11
 1701 0a94 3C85      		ldd r19,Y+12
 1702 0a96 F901      		movw r30,r18
 1703 0a98 4585      		ldd r20,Z+13
 1704 0a9a 5685      		ldd r21,Z+14
 1705 0a9c 2981      		ldd r18,Y+1
 1706 0a9e 3A81      		ldd r19,Y+2
 1707 0aa0 220F      		lsl r18
 1708 0aa2 331F      		rol r19
 1709 0aa4 240F      		add r18,r20
 1710 0aa6 351F      		adc r19,r21
 1711 0aa8 F901      		movw r30,r18
 1712 0aaa 2081      		ld r18,Z
 1713 0aac 3181      		ldd r19,Z+1
 1714 0aae 820F      		add r24,r18
 1715 0ab0 931F      		adc r25,r19
 1716 0ab2 2B81      		ldd r18,Y+3
 1717 0ab4 3C81      		ldd r19,Y+4
 1718 0ab6 2A57      		subi r18,122
 1719 0ab8 3D4F      		sbci r19,-3
 1720 0aba F901      		movw r30,r18
 1721 0abc 2081      		ld r18,Z
 1722 0abe 3181      		ldd r19,Z+1
 1723 0ac0 4B85      		ldd r20,Y+11
 1724 0ac2 5C85      		ldd r21,Y+12
 1725 0ac4 FA01      		movw r30,r20
 1726 0ac6 6585      		ldd r22,Z+13
 1727 0ac8 7685      		ldd r23,Z+14
 1728 0aca 4981      		ldd r20,Y+1
 1729 0acc 5A81      		ldd r21,Y+2
 1730 0ace 440F      		lsl r20
 1731 0ad0 551F      		rol r21
 1732 0ad2 460F      		add r20,r22
 1733 0ad4 571F      		adc r21,r23
 1734 0ad6 FA01      		movw r30,r20
 1735 0ad8 4081      		ld r20,Z
 1736 0ada 5181      		ldd r21,Z+1
 1737 0adc 240F      		add r18,r20
 1738 0ade 351F      		adc r19,r21
 1739 0ae0 F901      		movw r30,r18
 1740 0ae2 2081      		ld r18,Z
 1741 0ae4 2460      		ori r18,lo8(4)
 1742 0ae6 FC01      		movw r30,r24
 1743 0ae8 2083      		st Z,r18
 1744               	.L59:
 204:lp_solve_5.5/lp_SOS.c ****     }
 205:lp_solve_5.5/lp_SOS.c ****     if(weights == NULL)
 1745               		.loc 1 205 0
 1746 0aea 8989      		ldd r24,Y+17
 1747 0aec 9A89      		ldd r25,Y+18
 1748 0aee 892B      		or r24,r25
 1749 0af0 01F4      		brne .L61
 206:lp_solve_5.5/lp_SOS.c ****       SOS->weights[i] = i;  /* Follow standard, which is sorted ascending */
 1750               		.loc 1 206 0
 1751 0af2 8B85      		ldd r24,Y+11
 1752 0af4 9C85      		ldd r25,Y+12
 1753 0af6 FC01      		movw r30,r24
 1754 0af8 2785      		ldd r18,Z+15
 1755 0afa 3089      		ldd r19,Z+16
 1756 0afc 8981      		ldd r24,Y+1
 1757 0afe 9A81      		ldd r25,Y+2
 1758 0b00 880F      		lsl r24
 1759 0b02 991F      		rol r25
 1760 0b04 880F      		lsl r24
 1761 0b06 991F      		rol r25
 1762 0b08 8901      		movw r16,r18
 1763 0b0a 080F      		add r16,r24
 1764 0b0c 191F      		adc r17,r25
 1765 0b0e 8981      		ldd r24,Y+1
 1766 0b10 9A81      		ldd r25,Y+2
 1767 0b12 092E      		mov __tmp_reg__,r25
 1768 0b14 000C      		lsl r0
 1769 0b16 AA0B      		sbc r26,r26
 1770 0b18 BB0B      		sbc r27,r27
 1771 0b1a BC01      		movw r22,r24
 1772 0b1c CD01      		movw r24,r26
 1773 0b1e 0E94 0000 		call __floatsisf
 1774 0b22 DC01      		movw r26,r24
 1775 0b24 CB01      		movw r24,r22
 1776 0b26 F801      		movw r30,r16
 1777 0b28 8083      		st Z,r24
 1778 0b2a 9183      		std Z+1,r25
 1779 0b2c A283      		std Z+2,r26
 1780 0b2e B383      		std Z+3,r27
 1781 0b30 00C0      		rjmp .L62
 1782               	.L61:
 207:lp_solve_5.5/lp_SOS.c ****     else
 208:lp_solve_5.5/lp_SOS.c ****       SOS->weights[i] = weights[i-oldsize-1];
 1783               		.loc 1 208 0
 1784 0b32 8B85      		ldd r24,Y+11
 1785 0b34 9C85      		ldd r25,Y+12
 1786 0b36 FC01      		movw r30,r24
 1787 0b38 2785      		ldd r18,Z+15
 1788 0b3a 3089      		ldd r19,Z+16
 1789 0b3c 8981      		ldd r24,Y+1
 1790 0b3e 9A81      		ldd r25,Y+2
 1791 0b40 880F      		lsl r24
 1792 0b42 991F      		rol r25
 1793 0b44 880F      		lsl r24
 1794 0b46 991F      		rol r25
 1795 0b48 280F      		add r18,r24
 1796 0b4a 391F      		adc r19,r25
 1797 0b4c 4981      		ldd r20,Y+1
 1798 0b4e 5A81      		ldd r21,Y+2
 1799 0b50 8D81      		ldd r24,Y+5
 1800 0b52 9E81      		ldd r25,Y+6
 1801 0b54 BA01      		movw r22,r20
 1802 0b56 681B      		sub r22,r24
 1803 0b58 790B      		sbc r23,r25
 1804 0b5a CB01      		movw r24,r22
 1805 0b5c 8150      		subi r24,1
 1806 0b5e 904C      		sbci r25,-64
 1807 0b60 880F      		lsl r24
 1808 0b62 991F      		rol r25
 1809 0b64 880F      		lsl r24
 1810 0b66 991F      		rol r25
 1811 0b68 4989      		ldd r20,Y+17
 1812 0b6a 5A89      		ldd r21,Y+18
 1813 0b6c 840F      		add r24,r20
 1814 0b6e 951F      		adc r25,r21
 1815 0b70 FC01      		movw r30,r24
 1816 0b72 8081      		ld r24,Z
 1817 0b74 9181      		ldd r25,Z+1
 1818 0b76 A281      		ldd r26,Z+2
 1819 0b78 B381      		ldd r27,Z+3
 1820 0b7a F901      		movw r30,r18
 1821 0b7c 8083      		st Z,r24
 1822 0b7e 9183      		std Z+1,r25
 1823 0b80 A283      		std Z+2,r26
 1824 0b82 B383      		std Z+3,r27
 1825               	.L62:
 209:lp_solve_5.5/lp_SOS.c ****     SOS->weights[0] += SOS->weights[i];
 1826               		.loc 1 209 0 discriminator 2
 1827 0b84 8B85      		ldd r24,Y+11
 1828 0b86 9C85      		ldd r25,Y+12
 1829 0b88 FC01      		movw r30,r24
 1830 0b8a 0785      		ldd r16,Z+15
 1831 0b8c 1089      		ldd r17,Z+16
 1832 0b8e 8B85      		ldd r24,Y+11
 1833 0b90 9C85      		ldd r25,Y+12
 1834 0b92 FC01      		movw r30,r24
 1835 0b94 8785      		ldd r24,Z+15
 1836 0b96 9089      		ldd r25,Z+16
 1837 0b98 FC01      		movw r30,r24
 1838 0b9a 8081      		ld r24,Z
 1839 0b9c 9181      		ldd r25,Z+1
 1840 0b9e A281      		ldd r26,Z+2
 1841 0ba0 B381      		ldd r27,Z+3
 1842 0ba2 2B85      		ldd r18,Y+11
 1843 0ba4 3C85      		ldd r19,Y+12
 1844 0ba6 F901      		movw r30,r18
 1845 0ba8 4785      		ldd r20,Z+15
 1846 0baa 5089      		ldd r21,Z+16
 1847 0bac 2981      		ldd r18,Y+1
 1848 0bae 3A81      		ldd r19,Y+2
 1849 0bb0 220F      		lsl r18
 1850 0bb2 331F      		rol r19
 1851 0bb4 220F      		lsl r18
 1852 0bb6 331F      		rol r19
 1853 0bb8 240F      		add r18,r20
 1854 0bba 351F      		adc r19,r21
 1855 0bbc F901      		movw r30,r18
 1856 0bbe 2081      		ld r18,Z
 1857 0bc0 3181      		ldd r19,Z+1
 1858 0bc2 4281      		ldd r20,Z+2
 1859 0bc4 5381      		ldd r21,Z+3
 1860 0bc6 BC01      		movw r22,r24
 1861 0bc8 CD01      		movw r24,r26
 1862 0bca 0E94 0000 		call __addsf3
 1863 0bce DC01      		movw r26,r24
 1864 0bd0 CB01      		movw r24,r22
 1865 0bd2 F801      		movw r30,r16
 1866 0bd4 8083      		st Z,r24
 1867 0bd6 9183      		std Z+1,r25
 1868 0bd8 A283      		std Z+2,r26
 1869 0bda B383      		std Z+3,r27
 195:lp_solve_5.5/lp_SOS.c ****     SOS->members[i] = variables[i-oldsize-1];
 1870               		.loc 1 195 0 discriminator 2
 1871 0bdc 8981      		ldd r24,Y+1
 1872 0bde 9A81      		ldd r25,Y+2
 1873 0be0 0196      		adiw r24,1
 1874 0be2 9A83      		std Y+2,r25
 1875 0be4 8983      		std Y+1,r24
 1876               	.L56:
 195:lp_solve_5.5/lp_SOS.c ****     SOS->members[i] = variables[i-oldsize-1];
 1877               		.loc 1 195 0 is_stmt 0 discriminator 1
 1878 0be6 2981      		ldd r18,Y+1
 1879 0be8 3A81      		ldd r19,Y+2
 1880 0bea 8F81      		ldd r24,Y+7
 1881 0bec 9885      		ldd r25,Y+8
 1882 0bee 8217      		cp r24,r18
 1883 0bf0 9307      		cpc r25,r19
 1884 0bf2 04F0      		brlt .+2
 1885 0bf4 00C0      		rjmp .L63
 210:lp_solve_5.5/lp_SOS.c ****   }
 211:lp_solve_5.5/lp_SOS.c **** 
 212:lp_solve_5.5/lp_SOS.c ****  /* Sort the new paired lists ascending by weight (simple bubble sort) */
 213:lp_solve_5.5/lp_SOS.c ****   i = sortByREAL(SOS->members, SOS->weights, newsize, 1, TRUE);
 1886               		.loc 1 213 0 is_stmt 1
 1887 0bf6 8B85      		ldd r24,Y+11
 1888 0bf8 9C85      		ldd r25,Y+12
 1889 0bfa FC01      		movw r30,r24
 1890 0bfc 6785      		ldd r22,Z+15
 1891 0bfe 7089      		ldd r23,Z+16
 1892 0c00 8B85      		ldd r24,Y+11
 1893 0c02 9C85      		ldd r25,Y+12
 1894 0c04 FC01      		movw r30,r24
 1895 0c06 8585      		ldd r24,Z+13
 1896 0c08 9685      		ldd r25,Z+14
 1897 0c0a 4F81      		ldd r20,Y+7
 1898 0c0c 5885      		ldd r21,Y+8
 1899 0c0e 01E0      		ldi r16,lo8(1)
 1900 0c10 21E0      		ldi r18,lo8(1)
 1901 0c12 30E0      		ldi r19,0
 1902 0c14 0E94 0000 		call sortByREAL
 1903 0c18 9A83      		std Y+2,r25
 1904 0c1a 8983      		std Y+1,r24
 214:lp_solve_5.5/lp_SOS.c ****   if(i > 0)
 1905               		.loc 1 214 0
 1906 0c1c 8981      		ldd r24,Y+1
 1907 0c1e 9A81      		ldd r25,Y+2
 1908 0c20 1816      		cp __zero_reg__,r24
 1909 0c22 1906      		cpc __zero_reg__,r25
 1910 0c24 04F4      		brge .L64
 215:lp_solve_5.5/lp_SOS.c ****     report(lp, DETAILED, "append_SOS_rec: Non-unique SOS variable weight for index %d\n", i);
 1911               		.loc 1 215 0
 1912 0c26 8A81      		ldd r24,Y+2
 1913 0c28 8F93      		push r24
 1914 0c2a 8981      		ldd r24,Y+1
 1915 0c2c 8F93      		push r24
 1916 0c2e 80E0      		ldi r24,lo8(.LC1)
 1917 0c30 90E0      		ldi r25,hi8(.LC1)
 1918 0c32 892F      		mov r24,r25
 1919 0c34 8F93      		push r24
 1920 0c36 80E0      		ldi r24,lo8(.LC1)
 1921 0c38 90E0      		ldi r25,hi8(.LC1)
 1922 0c3a 8F93      		push r24
 1923 0c3c 1F92      		push __zero_reg__
 1924 0c3e 85E0      		ldi r24,lo8(5)
 1925 0c40 8F93      		push r24
 1926 0c42 8C81      		ldd r24,Y+4
 1927 0c44 8F93      		push r24
 1928 0c46 8B81      		ldd r24,Y+3
 1929 0c48 8F93      		push r24
 1930 0c4a 0E94 0000 		call report
 1931 0c4e 6DB7      		in r22,__SP_L__
 1932 0c50 7EB7      		in r23,__SP_H__
 1933 0c52 685F      		subi r22,-8
 1934 0c54 7F4F      		sbci r23,-1
 1935 0c56 0FB6      		in __tmp_reg__,__SREG__
 1936 0c58 F894      		cli
 1937 0c5a DEBF      		out __SP_H__,r29
 1938 0c5c 0FBE      		out __SREG__,__tmp_reg__
 1939 0c5e CDBF      		out __SP_L__,r28
 1940               	.L64:
 216:lp_solve_5.5/lp_SOS.c **** 
 217:lp_solve_5.5/lp_SOS.c ****  /* Define mapping arrays to search large SOS's faster */
 218:lp_solve_5.5/lp_SOS.c ****   allocINT(lp, &SOS->membersSorted, newsize, AUTOMATIC);
 1941               		.loc 1 218 0
 1942 0c60 8B85      		ldd r24,Y+11
 1943 0c62 9C85      		ldd r25,Y+12
 1944 0c64 BC01      		movw r22,r24
 1945 0c66 6F5E      		subi r22,-17
 1946 0c68 7F4F      		sbci r23,-1
 1947 0c6a 4F81      		ldd r20,Y+7
 1948 0c6c 5885      		ldd r21,Y+8
 1949 0c6e 8B81      		ldd r24,Y+3
 1950 0c70 9C81      		ldd r25,Y+4
 1951 0c72 22E0      		ldi r18,lo8(2)
 1952 0c74 0E94 0000 		call allocINT
 219:lp_solve_5.5/lp_SOS.c ****   allocINT(lp, &SOS->membersMapped, newsize, AUTOMATIC);
 1953               		.loc 1 219 0
 1954 0c78 8B85      		ldd r24,Y+11
 1955 0c7a 9C85      		ldd r25,Y+12
 1956 0c7c BC01      		movw r22,r24
 1957 0c7e 6D5E      		subi r22,-19
 1958 0c80 7F4F      		sbci r23,-1
 1959 0c82 4F81      		ldd r20,Y+7
 1960 0c84 5885      		ldd r21,Y+8
 1961 0c86 8B81      		ldd r24,Y+3
 1962 0c88 9C81      		ldd r25,Y+4
 1963 0c8a 22E0      		ldi r18,lo8(2)
 1964 0c8c 0E94 0000 		call allocINT
 220:lp_solve_5.5/lp_SOS.c ****   for(i = oldsize+1; i <= newsize; i++) {
 1965               		.loc 1 220 0
 1966 0c90 8D81      		ldd r24,Y+5
 1967 0c92 9E81      		ldd r25,Y+6
 1968 0c94 0196      		adiw r24,1
 1969 0c96 9A83      		std Y+2,r25
 1970 0c98 8983      		std Y+1,r24
 1971 0c9a 00C0      		rjmp .L65
 1972               	.L66:
 221:lp_solve_5.5/lp_SOS.c ****     SOS->membersSorted[i - 1] = SOS->members[i];
 1973               		.loc 1 221 0 discriminator 3
 1974 0c9c 8B85      		ldd r24,Y+11
 1975 0c9e 9C85      		ldd r25,Y+12
 1976 0ca0 FC01      		movw r30,r24
 1977 0ca2 2189      		ldd r18,Z+17
 1978 0ca4 3289      		ldd r19,Z+18
 1979 0ca6 8981      		ldd r24,Y+1
 1980 0ca8 9A81      		ldd r25,Y+2
 1981 0caa 8150      		subi r24,1
 1982 0cac 9048      		sbci r25,-128
 1983 0cae 880F      		lsl r24
 1984 0cb0 991F      		rol r25
 1985 0cb2 820F      		add r24,r18
 1986 0cb4 931F      		adc r25,r19
 1987 0cb6 2B85      		ldd r18,Y+11
 1988 0cb8 3C85      		ldd r19,Y+12
 1989 0cba F901      		movw r30,r18
 1990 0cbc 4585      		ldd r20,Z+13
 1991 0cbe 5685      		ldd r21,Z+14
 1992 0cc0 2981      		ldd r18,Y+1
 1993 0cc2 3A81      		ldd r19,Y+2
 1994 0cc4 220F      		lsl r18
 1995 0cc6 331F      		rol r19
 1996 0cc8 240F      		add r18,r20
 1997 0cca 351F      		adc r19,r21
 1998 0ccc F901      		movw r30,r18
 1999 0cce 2081      		ld r18,Z
 2000 0cd0 3181      		ldd r19,Z+1
 2001 0cd2 FC01      		movw r30,r24
 2002 0cd4 3183      		std Z+1,r19
 2003 0cd6 2083      		st Z,r18
 222:lp_solve_5.5/lp_SOS.c ****     SOS->membersMapped[i - 1] = i;
 2004               		.loc 1 222 0 discriminator 3
 2005 0cd8 8B85      		ldd r24,Y+11
 2006 0cda 9C85      		ldd r25,Y+12
 2007 0cdc FC01      		movw r30,r24
 2008 0cde 2389      		ldd r18,Z+19
 2009 0ce0 3489      		ldd r19,Z+20
 2010 0ce2 8981      		ldd r24,Y+1
 2011 0ce4 9A81      		ldd r25,Y+2
 2012 0ce6 8150      		subi r24,1
 2013 0ce8 9048      		sbci r25,-128
 2014 0cea 880F      		lsl r24
 2015 0cec 991F      		rol r25
 2016 0cee 820F      		add r24,r18
 2017 0cf0 931F      		adc r25,r19
 2018 0cf2 2981      		ldd r18,Y+1
 2019 0cf4 3A81      		ldd r19,Y+2
 2020 0cf6 FC01      		movw r30,r24
 2021 0cf8 3183      		std Z+1,r19
 2022 0cfa 2083      		st Z,r18
 220:lp_solve_5.5/lp_SOS.c ****   for(i = oldsize+1; i <= newsize; i++) {
 2023               		.loc 1 220 0 discriminator 3
 2024 0cfc 8981      		ldd r24,Y+1
 2025 0cfe 9A81      		ldd r25,Y+2
 2026 0d00 0196      		adiw r24,1
 2027 0d02 9A83      		std Y+2,r25
 2028 0d04 8983      		std Y+1,r24
 2029               	.L65:
 220:lp_solve_5.5/lp_SOS.c ****   for(i = oldsize+1; i <= newsize; i++) {
 2030               		.loc 1 220 0 is_stmt 0 discriminator 1
 2031 0d06 2981      		ldd r18,Y+1
 2032 0d08 3A81      		ldd r19,Y+2
 2033 0d0a 8F81      		ldd r24,Y+7
 2034 0d0c 9885      		ldd r25,Y+8
 2035 0d0e 8217      		cp r24,r18
 2036 0d10 9307      		cpc r25,r19
 2037 0d12 04F4      		brge .L66
 223:lp_solve_5.5/lp_SOS.c ****   }
 224:lp_solve_5.5/lp_SOS.c ****   sortByINT(SOS->membersMapped, SOS->membersSorted, newsize, 0, TRUE);
 2038               		.loc 1 224 0 is_stmt 1
 2039 0d14 8B85      		ldd r24,Y+11
 2040 0d16 9C85      		ldd r25,Y+12
 2041 0d18 FC01      		movw r30,r24
 2042 0d1a 6189      		ldd r22,Z+17
 2043 0d1c 7289      		ldd r23,Z+18
 2044 0d1e 8B85      		ldd r24,Y+11
 2045 0d20 9C85      		ldd r25,Y+12
 2046 0d22 FC01      		movw r30,r24
 2047 0d24 8389      		ldd r24,Z+19
 2048 0d26 9489      		ldd r25,Z+20
 2049 0d28 4F81      		ldd r20,Y+7
 2050 0d2a 5885      		ldd r21,Y+8
 2051 0d2c 01E0      		ldi r16,lo8(1)
 2052 0d2e 20E0      		ldi r18,0
 2053 0d30 30E0      		ldi r19,0
 2054 0d32 0E94 0000 		call sortByINT
 225:lp_solve_5.5/lp_SOS.c **** 
 226:lp_solve_5.5/lp_SOS.c ****  /* Confirm the new size */
 227:lp_solve_5.5/lp_SOS.c ****   SOS->size = newsize;
 2055               		.loc 1 227 0
 2056 0d36 8B85      		ldd r24,Y+11
 2057 0d38 9C85      		ldd r25,Y+12
 2058 0d3a 2F81      		ldd r18,Y+7
 2059 0d3c 3885      		ldd r19,Y+8
 2060 0d3e FC01      		movw r30,r24
 2061 0d40 3287      		std Z+10,r19
 2062 0d42 2187      		std Z+9,r18
 228:lp_solve_5.5/lp_SOS.c **** 
 229:lp_solve_5.5/lp_SOS.c ****   return(newsize);
 2063               		.loc 1 229 0
 2064 0d44 8F81      		ldd r24,Y+7
 2065 0d46 9885      		ldd r25,Y+8
 2066               	/* epilogue start */
 230:lp_solve_5.5/lp_SOS.c **** 
 231:lp_solve_5.5/lp_SOS.c **** }
 2067               		.loc 1 231 0
 2068 0d48 6296      		adiw r28,18
 2069 0d4a 0FB6      		in __tmp_reg__,__SREG__
 2070 0d4c F894      		cli
 2071 0d4e DEBF      		out __SP_H__,r29
 2072 0d50 0FBE      		out __SREG__,__tmp_reg__
 2073 0d52 CDBF      		out __SP_L__,r28
 2074 0d54 DF91      		pop r29
 2075 0d56 CF91      		pop r28
 2076 0d58 1F91      		pop r17
 2077 0d5a 0F91      		pop r16
 2078 0d5c 0895      		ret
 2079               		.cfi_endproc
 2080               	.LFE13:
 2082               	.global	make_SOSchain
 2084               	make_SOSchain:
 2085               	.LFB14:
 232:lp_solve_5.5/lp_SOS.c **** 
 233:lp_solve_5.5/lp_SOS.c **** STATIC int make_SOSchain(lprec *lp, MYBOOL forceresort)
 234:lp_solve_5.5/lp_SOS.c **** {
 2086               		.loc 1 234 0
 2087               		.cfi_startproc
 2088 0d5e CF92      		push r12
 2089               	.LCFI36:
 2090               		.cfi_def_cfa_offset 3
 2091               		.cfi_offset 12, -2
 2092 0d60 DF92      		push r13
 2093               	.LCFI37:
 2094               		.cfi_def_cfa_offset 4
 2095               		.cfi_offset 13, -3
 2096 0d62 EF92      		push r14
 2097               	.LCFI38:
 2098               		.cfi_def_cfa_offset 5
 2099               		.cfi_offset 14, -4
 2100 0d64 FF92      		push r15
 2101               	.LCFI39:
 2102               		.cfi_def_cfa_offset 6
 2103               		.cfi_offset 15, -5
 2104 0d66 0F93      		push r16
 2105               	.LCFI40:
 2106               		.cfi_def_cfa_offset 7
 2107               		.cfi_offset 16, -6
 2108 0d68 CF93      		push r28
 2109               	.LCFI41:
 2110               		.cfi_def_cfa_offset 8
 2111               		.cfi_offset 28, -7
 2112 0d6a DF93      		push r29
 2113               	.LCFI42:
 2114               		.cfi_def_cfa_offset 9
 2115               		.cfi_offset 29, -8
 2116 0d6c CDB7      		in r28,__SP_L__
 2117 0d6e DEB7      		in r29,__SP_H__
 2118               	.LCFI43:
 2119               		.cfi_def_cfa_register 28
 2120 0d70 6997      		sbiw r28,25
 2121               	.LCFI44:
 2122               		.cfi_def_cfa_offset 34
 2123 0d72 0FB6      		in __tmp_reg__,__SREG__
 2124 0d74 F894      		cli
 2125 0d76 DEBF      		out __SP_H__,r29
 2126 0d78 0FBE      		out __SREG__,__tmp_reg__
 2127 0d7a CDBF      		out __SP_L__,r28
 2128               	/* prologue: function */
 2129               	/* frame size = 25 */
 2130               	/* stack size = 32 */
 2131               	.L__stack_usage = 32
 2132 0d7c 988F      		std Y+24,r25
 2133 0d7e 8F8B      		std Y+23,r24
 2134 0d80 698F      		std Y+25,r22
 235:lp_solve_5.5/lp_SOS.c ****   int      i, j, k, n;
 236:lp_solve_5.5/lp_SOS.c ****   MYBOOL   *hold = NULL;
 2135               		.loc 1 236 0
 2136 0d82 1C8A      		std Y+20,__zero_reg__
 2137 0d84 1B8A      		std Y+19,__zero_reg__
 237:lp_solve_5.5/lp_SOS.c ****   REAL     *order, sum, weight;
 238:lp_solve_5.5/lp_SOS.c ****   SOSgroup *group = lp->SOS;
 2138               		.loc 1 238 0
 2139 0d86 8F89      		ldd r24,Y+23
 2140 0d88 988D      		ldd r25,Y+24
 2141 0d8a 8256      		subi r24,98
 2142 0d8c 9D4F      		sbci r25,-3
 2143 0d8e FC01      		movw r30,r24
 2144 0d90 8081      		ld r24,Z
 2145 0d92 9181      		ldd r25,Z+1
 2146 0d94 9E87      		std Y+14,r25
 2147 0d96 8D87      		std Y+13,r24
 239:lp_solve_5.5/lp_SOS.c **** 
 240:lp_solve_5.5/lp_SOS.c ****   /* PART A: Resort individual SOS member lists, if specified */
 241:lp_solve_5.5/lp_SOS.c ****   if(forceresort)
 2148               		.loc 1 241 0
 2149 0d98 898D      		ldd r24,Y+25
 2150 0d9a 8823      		tst r24
 2151 0d9c 01F0      		breq .L69
 242:lp_solve_5.5/lp_SOS.c ****     SOS_member_sortlist(group, 0);
 2152               		.loc 1 242 0
 2153 0d9e 8D85      		ldd r24,Y+13
 2154 0da0 9E85      		ldd r25,Y+14
 2155 0da2 60E0      		ldi r22,0
 2156 0da4 70E0      		ldi r23,0
 2157 0da6 0E94 0000 		call SOS_member_sortlist
 2158               	.L69:
 243:lp_solve_5.5/lp_SOS.c **** 
 244:lp_solve_5.5/lp_SOS.c ****   /* PART B: Tally SOS variables and create master SOS variable list */
 245:lp_solve_5.5/lp_SOS.c ****   n = 0;
 2159               		.loc 1 245 0
 2160 0daa 1886      		std Y+8,__zero_reg__
 2161 0dac 1F82      		std Y+7,__zero_reg__
 246:lp_solve_5.5/lp_SOS.c ****   for(i = 0; i < group->sos_count; i++)
 2162               		.loc 1 246 0
 2163 0dae 1A82      		std Y+2,__zero_reg__
 2164 0db0 1982      		std Y+1,__zero_reg__
 2165 0db2 00C0      		rjmp .L70
 2166               	.L71:
 247:lp_solve_5.5/lp_SOS.c ****     n += group->sos_list[i]->size;
 2167               		.loc 1 247 0 discriminator 3
 2168 0db4 8D85      		ldd r24,Y+13
 2169 0db6 9E85      		ldd r25,Y+14
 2170 0db8 FC01      		movw r30,r24
 2171 0dba 2281      		ldd r18,Z+2
 2172 0dbc 3381      		ldd r19,Z+3
 2173 0dbe 8981      		ldd r24,Y+1
 2174 0dc0 9A81      		ldd r25,Y+2
 2175 0dc2 880F      		lsl r24
 2176 0dc4 991F      		rol r25
 2177 0dc6 820F      		add r24,r18
 2178 0dc8 931F      		adc r25,r19
 2179 0dca FC01      		movw r30,r24
 2180 0dcc 8081      		ld r24,Z
 2181 0dce 9181      		ldd r25,Z+1
 2182 0dd0 FC01      		movw r30,r24
 2183 0dd2 8185      		ldd r24,Z+9
 2184 0dd4 9285      		ldd r25,Z+10
 2185 0dd6 2F81      		ldd r18,Y+7
 2186 0dd8 3885      		ldd r19,Y+8
 2187 0dda 820F      		add r24,r18
 2188 0ddc 931F      		adc r25,r19
 2189 0dde 9887      		std Y+8,r25
 2190 0de0 8F83      		std Y+7,r24
 246:lp_solve_5.5/lp_SOS.c ****   for(i = 0; i < group->sos_count; i++)
 2191               		.loc 1 246 0 discriminator 3
 2192 0de2 8981      		ldd r24,Y+1
 2193 0de4 9A81      		ldd r25,Y+2
 2194 0de6 0196      		adiw r24,1
 2195 0de8 9A83      		std Y+2,r25
 2196 0dea 8983      		std Y+1,r24
 2197               	.L70:
 246:lp_solve_5.5/lp_SOS.c ****   for(i = 0; i < group->sos_count; i++)
 2198               		.loc 1 246 0 is_stmt 0 discriminator 1
 2199 0dec 8D85      		ldd r24,Y+13
 2200 0dee 9E85      		ldd r25,Y+14
 2201 0df0 FC01      		movw r30,r24
 2202 0df2 2681      		ldd r18,Z+6
 2203 0df4 3781      		ldd r19,Z+7
 2204 0df6 8981      		ldd r24,Y+1
 2205 0df8 9A81      		ldd r25,Y+2
 2206 0dfa 8217      		cp r24,r18
 2207 0dfc 9307      		cpc r25,r19
 2208 0dfe 04F0      		brlt .L71
 248:lp_solve_5.5/lp_SOS.c ****   lp->sos_vars = n;
 2209               		.loc 1 248 0 is_stmt 1
 2210 0e00 8F89      		ldd r24,Y+23
 2211 0e02 988D      		ldd r25,Y+24
 2212 0e04 8656      		subi r24,102
 2213 0e06 9D4F      		sbci r25,-3
 2214 0e08 2F81      		ldd r18,Y+7
 2215 0e0a 3885      		ldd r19,Y+8
 2216 0e0c FC01      		movw r30,r24
 2217 0e0e 3183      		std Z+1,r19
 2218 0e10 2083      		st Z,r18
 249:lp_solve_5.5/lp_SOS.c ****   if(lp->sos_vars > 0) /* Prevent memory loss in case of multiple solves */
 2219               		.loc 1 249 0
 2220 0e12 8F89      		ldd r24,Y+23
 2221 0e14 988D      		ldd r25,Y+24
 2222 0e16 8656      		subi r24,102
 2223 0e18 9D4F      		sbci r25,-3
 2224 0e1a FC01      		movw r30,r24
 2225 0e1c 8081      		ld r24,Z
 2226 0e1e 9181      		ldd r25,Z+1
 2227 0e20 1816      		cp __zero_reg__,r24
 2228 0e22 1906      		cpc __zero_reg__,r25
 2229 0e24 04F4      		brge .L72
 250:lp_solve_5.5/lp_SOS.c ****     FREE(lp->sos_priority);
 2230               		.loc 1 250 0
 2231 0e26 8F89      		ldd r24,Y+23
 2232 0e28 988D      		ldd r25,Y+24
 2233 0e2a 8056      		subi r24,96
 2234 0e2c 9D4F      		sbci r25,-3
 2235 0e2e FC01      		movw r30,r24
 2236 0e30 8081      		ld r24,Z
 2237 0e32 9181      		ldd r25,Z+1
 2238 0e34 892B      		or r24,r25
 2239 0e36 01F0      		breq .L72
 2240               		.loc 1 250 0 is_stmt 0 discriminator 1
 2241 0e38 8F89      		ldd r24,Y+23
 2242 0e3a 988D      		ldd r25,Y+24
 2243 0e3c 8056      		subi r24,96
 2244 0e3e 9D4F      		sbci r25,-3
 2245 0e40 FC01      		movw r30,r24
 2246 0e42 8081      		ld r24,Z
 2247 0e44 9181      		ldd r25,Z+1
 2248 0e46 0E94 0000 		call free
 2249 0e4a 8F89      		ldd r24,Y+23
 2250 0e4c 988D      		ldd r25,Y+24
 2251 0e4e 8056      		subi r24,96
 2252 0e50 9D4F      		sbci r25,-3
 2253 0e52 FC01      		movw r30,r24
 2254 0e54 1182      		std Z+1,__zero_reg__
 2255 0e56 1082      		st Z,__zero_reg__
 2256               	.L72:
 251:lp_solve_5.5/lp_SOS.c ****   allocINT(lp, &lp->sos_priority, n, FALSE);
 2257               		.loc 1 251 0 is_stmt 1
 2258 0e58 8F89      		ldd r24,Y+23
 2259 0e5a 988D      		ldd r25,Y+24
 2260 0e5c BC01      		movw r22,r24
 2261 0e5e 6056      		subi r22,96
 2262 0e60 7D4F      		sbci r23,-3
 2263 0e62 4F81      		ldd r20,Y+7
 2264 0e64 5885      		ldd r21,Y+8
 2265 0e66 8F89      		ldd r24,Y+23
 2266 0e68 988D      		ldd r25,Y+24
 2267 0e6a 20E0      		ldi r18,0
 2268 0e6c 0E94 0000 		call allocINT
 252:lp_solve_5.5/lp_SOS.c ****   allocREAL(lp, &order, n, FALSE);
 2269               		.loc 1 252 0
 2270 0e70 4F81      		ldd r20,Y+7
 2271 0e72 5885      		ldd r21,Y+8
 2272 0e74 BE01      		movw r22,r28
 2273 0e76 6B5E      		subi r22,-21
 2274 0e78 7F4F      		sbci r23,-1
 2275 0e7a 8F89      		ldd r24,Y+23
 2276 0e7c 988D      		ldd r25,Y+24
 2277 0e7e 20E0      		ldi r18,0
 2278 0e80 0E94 0000 		call allocREAL
 253:lp_solve_5.5/lp_SOS.c **** 
 254:lp_solve_5.5/lp_SOS.c ****   /* Move variable data to the master SOS list and sort by ascending weight */
 255:lp_solve_5.5/lp_SOS.c ****   n = 0;
 2279               		.loc 1 255 0
 2280 0e84 1886      		std Y+8,__zero_reg__
 2281 0e86 1F82      		std Y+7,__zero_reg__
 256:lp_solve_5.5/lp_SOS.c ****   sum = 0;
 2282               		.loc 1 256 0
 2283 0e88 1986      		std Y+9,__zero_reg__
 2284 0e8a 1A86      		std Y+10,__zero_reg__
 2285 0e8c 1B86      		std Y+11,__zero_reg__
 2286 0e8e 1C86      		std Y+12,__zero_reg__
 257:lp_solve_5.5/lp_SOS.c ****   for(i = 0; i < group->sos_count; i++) {
 2287               		.loc 1 257 0
 2288 0e90 1A82      		std Y+2,__zero_reg__
 2289 0e92 1982      		std Y+1,__zero_reg__
 2290 0e94 00C0      		rjmp .L73
 2291               	.L76:
 258:lp_solve_5.5/lp_SOS.c ****     for(j = 1; j <= group->sos_list[i]->size; j++) {
 2292               		.loc 1 258 0
 2293 0e96 81E0      		ldi r24,lo8(1)
 2294 0e98 90E0      		ldi r25,0
 2295 0e9a 9C83      		std Y+4,r25
 2296 0e9c 8B83      		std Y+3,r24
 2297 0e9e 00C0      		rjmp .L74
 2298               	.L75:
 259:lp_solve_5.5/lp_SOS.c ****       lp->sos_priority[n] = group->sos_list[i]->members[j];
 2299               		.loc 1 259 0 discriminator 3
 2300 0ea0 8F89      		ldd r24,Y+23
 2301 0ea2 988D      		ldd r25,Y+24
 2302 0ea4 8056      		subi r24,96
 2303 0ea6 9D4F      		sbci r25,-3
 2304 0ea8 FC01      		movw r30,r24
 2305 0eaa 2081      		ld r18,Z
 2306 0eac 3181      		ldd r19,Z+1
 2307 0eae 8F81      		ldd r24,Y+7
 2308 0eb0 9885      		ldd r25,Y+8
 2309 0eb2 880F      		lsl r24
 2310 0eb4 991F      		rol r25
 2311 0eb6 820F      		add r24,r18
 2312 0eb8 931F      		adc r25,r19
 2313 0eba 2D85      		ldd r18,Y+13
 2314 0ebc 3E85      		ldd r19,Y+14
 2315 0ebe F901      		movw r30,r18
 2316 0ec0 4281      		ldd r20,Z+2
 2317 0ec2 5381      		ldd r21,Z+3
 2318 0ec4 2981      		ldd r18,Y+1
 2319 0ec6 3A81      		ldd r19,Y+2
 2320 0ec8 220F      		lsl r18
 2321 0eca 331F      		rol r19
 2322 0ecc 240F      		add r18,r20
 2323 0ece 351F      		adc r19,r21
 2324 0ed0 F901      		movw r30,r18
 2325 0ed2 2081      		ld r18,Z
 2326 0ed4 3181      		ldd r19,Z+1
 2327 0ed6 F901      		movw r30,r18
 2328 0ed8 4585      		ldd r20,Z+13
 2329 0eda 5685      		ldd r21,Z+14
 2330 0edc 2B81      		ldd r18,Y+3
 2331 0ede 3C81      		ldd r19,Y+4
 2332 0ee0 220F      		lsl r18
 2333 0ee2 331F      		rol r19
 2334 0ee4 240F      		add r18,r20
 2335 0ee6 351F      		adc r19,r21
 2336 0ee8 F901      		movw r30,r18
 2337 0eea 2081      		ld r18,Z
 2338 0eec 3181      		ldd r19,Z+1
 2339 0eee FC01      		movw r30,r24
 2340 0ef0 3183      		std Z+1,r19
 2341 0ef2 2083      		st Z,r18
 260:lp_solve_5.5/lp_SOS.c ****       weight = group->sos_list[i]->weights[j];
 2342               		.loc 1 260 0 discriminator 3
 2343 0ef4 8D85      		ldd r24,Y+13
 2344 0ef6 9E85      		ldd r25,Y+14
 2345 0ef8 FC01      		movw r30,r24
 2346 0efa 2281      		ldd r18,Z+2
 2347 0efc 3381      		ldd r19,Z+3
 2348 0efe 8981      		ldd r24,Y+1
 2349 0f00 9A81      		ldd r25,Y+2
 2350 0f02 880F      		lsl r24
 2351 0f04 991F      		rol r25
 2352 0f06 820F      		add r24,r18
 2353 0f08 931F      		adc r25,r19
 2354 0f0a FC01      		movw r30,r24
 2355 0f0c 8081      		ld r24,Z
 2356 0f0e 9181      		ldd r25,Z+1
 2357 0f10 FC01      		movw r30,r24
 2358 0f12 2785      		ldd r18,Z+15
 2359 0f14 3089      		ldd r19,Z+16
 2360 0f16 8B81      		ldd r24,Y+3
 2361 0f18 9C81      		ldd r25,Y+4
 2362 0f1a 880F      		lsl r24
 2363 0f1c 991F      		rol r25
 2364 0f1e 880F      		lsl r24
 2365 0f20 991F      		rol r25
 2366 0f22 820F      		add r24,r18
 2367 0f24 931F      		adc r25,r19
 2368 0f26 FC01      		movw r30,r24
 2369 0f28 8081      		ld r24,Z
 2370 0f2a 9181      		ldd r25,Z+1
 2371 0f2c A281      		ldd r26,Z+2
 2372 0f2e B381      		ldd r27,Z+3
 2373 0f30 8F87      		std Y+15,r24
 2374 0f32 988B      		std Y+16,r25
 2375 0f34 A98B      		std Y+17,r26
 2376 0f36 BA8B      		std Y+18,r27
 261:lp_solve_5.5/lp_SOS.c ****       sum += weight;
 2377               		.loc 1 261 0 discriminator 3
 2378 0f38 2F85      		ldd r18,Y+15
 2379 0f3a 3889      		ldd r19,Y+16
 2380 0f3c 4989      		ldd r20,Y+17
 2381 0f3e 5A89      		ldd r21,Y+18
 2382 0f40 6985      		ldd r22,Y+9
 2383 0f42 7A85      		ldd r23,Y+10
 2384 0f44 8B85      		ldd r24,Y+11
 2385 0f46 9C85      		ldd r25,Y+12
 2386 0f48 0E94 0000 		call __addsf3
 2387 0f4c DC01      		movw r26,r24
 2388 0f4e CB01      		movw r24,r22
 2389 0f50 8987      		std Y+9,r24
 2390 0f52 9A87      		std Y+10,r25
 2391 0f54 AB87      		std Y+11,r26
 2392 0f56 BC87      		std Y+12,r27
 262:lp_solve_5.5/lp_SOS.c ****       order[n] = sum;
 2393               		.loc 1 262 0 discriminator 3
 2394 0f58 2D89      		ldd r18,Y+21
 2395 0f5a 3E89      		ldd r19,Y+22
 2396 0f5c 8F81      		ldd r24,Y+7
 2397 0f5e 9885      		ldd r25,Y+8
 2398 0f60 880F      		lsl r24
 2399 0f62 991F      		rol r25
 2400 0f64 880F      		lsl r24
 2401 0f66 991F      		rol r25
 2402 0f68 280F      		add r18,r24
 2403 0f6a 391F      		adc r19,r25
 2404 0f6c 8985      		ldd r24,Y+9
 2405 0f6e 9A85      		ldd r25,Y+10
 2406 0f70 AB85      		ldd r26,Y+11
 2407 0f72 BC85      		ldd r27,Y+12
 2408 0f74 F901      		movw r30,r18
 2409 0f76 8083      		st Z,r24
 2410 0f78 9183      		std Z+1,r25
 2411 0f7a A283      		std Z+2,r26
 2412 0f7c B383      		std Z+3,r27
 263:lp_solve_5.5/lp_SOS.c ****       n++;
 2413               		.loc 1 263 0 discriminator 3
 2414 0f7e 8F81      		ldd r24,Y+7
 2415 0f80 9885      		ldd r25,Y+8
 2416 0f82 0196      		adiw r24,1
 2417 0f84 9887      		std Y+8,r25
 2418 0f86 8F83      		std Y+7,r24
 258:lp_solve_5.5/lp_SOS.c ****       lp->sos_priority[n] = group->sos_list[i]->members[j];
 2419               		.loc 1 258 0 discriminator 3
 2420 0f88 8B81      		ldd r24,Y+3
 2421 0f8a 9C81      		ldd r25,Y+4
 2422 0f8c 0196      		adiw r24,1
 2423 0f8e 9C83      		std Y+4,r25
 2424 0f90 8B83      		std Y+3,r24
 2425               	.L74:
 258:lp_solve_5.5/lp_SOS.c ****       lp->sos_priority[n] = group->sos_list[i]->members[j];
 2426               		.loc 1 258 0 is_stmt 0 discriminator 1
 2427 0f92 8D85      		ldd r24,Y+13
 2428 0f94 9E85      		ldd r25,Y+14
 2429 0f96 FC01      		movw r30,r24
 2430 0f98 2281      		ldd r18,Z+2
 2431 0f9a 3381      		ldd r19,Z+3
 2432 0f9c 8981      		ldd r24,Y+1
 2433 0f9e 9A81      		ldd r25,Y+2
 2434 0fa0 880F      		lsl r24
 2435 0fa2 991F      		rol r25
 2436 0fa4 820F      		add r24,r18
 2437 0fa6 931F      		adc r25,r19
 2438 0fa8 FC01      		movw r30,r24
 2439 0faa 8081      		ld r24,Z
 2440 0fac 9181      		ldd r25,Z+1
 2441 0fae FC01      		movw r30,r24
 2442 0fb0 2185      		ldd r18,Z+9
 2443 0fb2 3285      		ldd r19,Z+10
 2444 0fb4 8B81      		ldd r24,Y+3
 2445 0fb6 9C81      		ldd r25,Y+4
 2446 0fb8 2817      		cp r18,r24
 2447 0fba 3907      		cpc r19,r25
 2448 0fbc 04F0      		brlt .+2
 2449 0fbe 00C0      		rjmp .L75
 257:lp_solve_5.5/lp_SOS.c ****     for(j = 1; j <= group->sos_list[i]->size; j++) {
 2450               		.loc 1 257 0 is_stmt 1 discriminator 2
 2451 0fc0 8981      		ldd r24,Y+1
 2452 0fc2 9A81      		ldd r25,Y+2
 2453 0fc4 0196      		adiw r24,1
 2454 0fc6 9A83      		std Y+2,r25
 2455 0fc8 8983      		std Y+1,r24
 2456               	.L73:
 257:lp_solve_5.5/lp_SOS.c ****     for(j = 1; j <= group->sos_list[i]->size; j++) {
 2457               		.loc 1 257 0 is_stmt 0 discriminator 1
 2458 0fca 8D85      		ldd r24,Y+13
 2459 0fcc 9E85      		ldd r25,Y+14
 2460 0fce FC01      		movw r30,r24
 2461 0fd0 2681      		ldd r18,Z+6
 2462 0fd2 3781      		ldd r19,Z+7
 2463 0fd4 8981      		ldd r24,Y+1
 2464 0fd6 9A81      		ldd r25,Y+2
 2465 0fd8 8217      		cp r24,r18
 2466 0fda 9307      		cpc r25,r19
 2467 0fdc 04F4      		brge .+2
 2468 0fde 00C0      		rjmp .L76
 264:lp_solve_5.5/lp_SOS.c ****     }
 265:lp_solve_5.5/lp_SOS.c ****   }
 266:lp_solve_5.5/lp_SOS.c ****   hpsortex(order, n, 0, sizeof(*order), FALSE, compareREAL, lp->sos_priority);
 2469               		.loc 1 266 0 is_stmt 1
 2470 0fe0 8F89      		ldd r24,Y+23
 2471 0fe2 988D      		ldd r25,Y+24
 2472 0fe4 8056      		subi r24,96
 2473 0fe6 9D4F      		sbci r25,-3
 2474 0fe8 FC01      		movw r30,r24
 2475 0fea 2081      		ld r18,Z
 2476 0fec 3181      		ldd r19,Z+1
 2477 0fee 8D89      		ldd r24,Y+21
 2478 0ff0 9E89      		ldd r25,Y+22
 2479 0ff2 6F81      		ldd r22,Y+7
 2480 0ff4 7885      		ldd r23,Y+8
 2481 0ff6 6901      		movw r12,r18
 2482 0ff8 0F2E      		mov __tmp_reg__,r31
 2483 0ffa F0E0      		ldi r31,lo8(gs(compareREAL))
 2484 0ffc EF2E      		mov r14,r31
 2485 0ffe F0E0      		ldi r31,hi8(gs(compareREAL))
 2486 1000 FF2E      		mov r15,r31
 2487 1002 F02D      		mov r31,__tmp_reg__
 2488 1004 00E0      		ldi r16,0
 2489 1006 24E0      		ldi r18,lo8(4)
 2490 1008 30E0      		ldi r19,0
 2491 100a 40E0      		ldi r20,0
 2492 100c 50E0      		ldi r21,0
 2493 100e 0E94 0000 		call hpsortex
 267:lp_solve_5.5/lp_SOS.c ****   FREE(order);
 2494               		.loc 1 267 0
 2495 1012 8D89      		ldd r24,Y+21
 2496 1014 9E89      		ldd r25,Y+22
 2497 1016 892B      		or r24,r25
 2498 1018 01F0      		breq .L77
 2499               		.loc 1 267 0 is_stmt 0 discriminator 1
 2500 101a 8D89      		ldd r24,Y+21
 2501 101c 9E89      		ldd r25,Y+22
 2502 101e 0E94 0000 		call free
 2503 1022 1E8A      		std Y+22,__zero_reg__
 2504 1024 1D8A      		std Y+21,__zero_reg__
 2505               	.L77:
 268:lp_solve_5.5/lp_SOS.c **** 
 269:lp_solve_5.5/lp_SOS.c ****   /* Remove duplicate SOS variables */
 270:lp_solve_5.5/lp_SOS.c ****   allocMYBOOL(lp, &hold, lp->columns+1, TRUE);
 2506               		.loc 1 270 0 is_stmt 1
 2507 1026 8F89      		ldd r24,Y+23
 2508 1028 988D      		ldd r25,Y+24
 2509 102a 8451      		subi r24,20
 2510 102c 9E4F      		sbci r25,-2
 2511 102e FC01      		movw r30,r24
 2512 1030 8081      		ld r24,Z
 2513 1032 9181      		ldd r25,Z+1
 2514 1034 AC01      		movw r20,r24
 2515 1036 4F5F      		subi r20,-1
 2516 1038 5F4F      		sbci r21,-1
 2517 103a BE01      		movw r22,r28
 2518 103c 6D5E      		subi r22,-19
 2519 103e 7F4F      		sbci r23,-1
 2520 1040 8F89      		ldd r24,Y+23
 2521 1042 988D      		ldd r25,Y+24
 2522 1044 21E0      		ldi r18,lo8(1)
 2523 1046 0E94 0000 		call allocMYBOOL
 271:lp_solve_5.5/lp_SOS.c ****   k = 0;
 2524               		.loc 1 271 0
 2525 104a 1E82      		std Y+6,__zero_reg__
 2526 104c 1D82      		std Y+5,__zero_reg__
 272:lp_solve_5.5/lp_SOS.c ****   for(i = 0; i < n; i++) {
 2527               		.loc 1 272 0
 2528 104e 1A82      		std Y+2,__zero_reg__
 2529 1050 1982      		std Y+1,__zero_reg__
 2530 1052 00C0      		rjmp .L78
 2531               	.L81:
 273:lp_solve_5.5/lp_SOS.c ****     j = lp->sos_priority[i];
 2532               		.loc 1 273 0
 2533 1054 8F89      		ldd r24,Y+23
 2534 1056 988D      		ldd r25,Y+24
 2535 1058 8056      		subi r24,96
 2536 105a 9D4F      		sbci r25,-3
 2537 105c FC01      		movw r30,r24
 2538 105e 2081      		ld r18,Z
 2539 1060 3181      		ldd r19,Z+1
 2540 1062 8981      		ldd r24,Y+1
 2541 1064 9A81      		ldd r25,Y+2
 2542 1066 880F      		lsl r24
 2543 1068 991F      		rol r25
 2544 106a 820F      		add r24,r18
 2545 106c 931F      		adc r25,r19
 2546 106e FC01      		movw r30,r24
 2547 1070 8081      		ld r24,Z
 2548 1072 9181      		ldd r25,Z+1
 2549 1074 9C83      		std Y+4,r25
 2550 1076 8B83      		std Y+3,r24
 274:lp_solve_5.5/lp_SOS.c ****     if(!hold[j]) {
 2551               		.loc 1 274 0
 2552 1078 2B89      		ldd r18,Y+19
 2553 107a 3C89      		ldd r19,Y+20
 2554 107c 8B81      		ldd r24,Y+3
 2555 107e 9C81      		ldd r25,Y+4
 2556 1080 820F      		add r24,r18
 2557 1082 931F      		adc r25,r19
 2558 1084 FC01      		movw r30,r24
 2559 1086 8081      		ld r24,Z
 2560 1088 8823      		tst r24
 2561 108a 01F4      		brne .L79
 275:lp_solve_5.5/lp_SOS.c ****       hold[j] = TRUE;
 2562               		.loc 1 275 0
 2563 108c 2B89      		ldd r18,Y+19
 2564 108e 3C89      		ldd r19,Y+20
 2565 1090 8B81      		ldd r24,Y+3
 2566 1092 9C81      		ldd r25,Y+4
 2567 1094 820F      		add r24,r18
 2568 1096 931F      		adc r25,r19
 2569 1098 21E0      		ldi r18,lo8(1)
 2570 109a FC01      		movw r30,r24
 2571 109c 2083      		st Z,r18
 276:lp_solve_5.5/lp_SOS.c ****       if(k < i)
 2572               		.loc 1 276 0
 2573 109e 2D81      		ldd r18,Y+5
 2574 10a0 3E81      		ldd r19,Y+6
 2575 10a2 8981      		ldd r24,Y+1
 2576 10a4 9A81      		ldd r25,Y+2
 2577 10a6 2817      		cp r18,r24
 2578 10a8 3907      		cpc r19,r25
 2579 10aa 04F4      		brge .L80
 277:lp_solve_5.5/lp_SOS.c ****         lp->sos_priority[k] = j;
 2580               		.loc 1 277 0
 2581 10ac 8F89      		ldd r24,Y+23
 2582 10ae 988D      		ldd r25,Y+24
 2583 10b0 8056      		subi r24,96
 2584 10b2 9D4F      		sbci r25,-3
 2585 10b4 FC01      		movw r30,r24
 2586 10b6 2081      		ld r18,Z
 2587 10b8 3181      		ldd r19,Z+1
 2588 10ba 8D81      		ldd r24,Y+5
 2589 10bc 9E81      		ldd r25,Y+6
 2590 10be 880F      		lsl r24
 2591 10c0 991F      		rol r25
 2592 10c2 820F      		add r24,r18
 2593 10c4 931F      		adc r25,r19
 2594 10c6 2B81      		ldd r18,Y+3
 2595 10c8 3C81      		ldd r19,Y+4
 2596 10ca FC01      		movw r30,r24
 2597 10cc 3183      		std Z+1,r19
 2598 10ce 2083      		st Z,r18
 2599               	.L80:
 278:lp_solve_5.5/lp_SOS.c ****       k++;
 2600               		.loc 1 278 0
 2601 10d0 8D81      		ldd r24,Y+5
 2602 10d2 9E81      		ldd r25,Y+6
 2603 10d4 0196      		adiw r24,1
 2604 10d6 9E83      		std Y+6,r25
 2605 10d8 8D83      		std Y+5,r24
 2606               	.L79:
 272:lp_solve_5.5/lp_SOS.c ****     j = lp->sos_priority[i];
 2607               		.loc 1 272 0 discriminator 2
 2608 10da 8981      		ldd r24,Y+1
 2609 10dc 9A81      		ldd r25,Y+2
 2610 10de 0196      		adiw r24,1
 2611 10e0 9A83      		std Y+2,r25
 2612 10e2 8983      		std Y+1,r24
 2613               	.L78:
 272:lp_solve_5.5/lp_SOS.c ****     j = lp->sos_priority[i];
 2614               		.loc 1 272 0 is_stmt 0 discriminator 1
 2615 10e4 2981      		ldd r18,Y+1
 2616 10e6 3A81      		ldd r19,Y+2
 2617 10e8 8F81      		ldd r24,Y+7
 2618 10ea 9885      		ldd r25,Y+8
 2619 10ec 2817      		cp r18,r24
 2620 10ee 3907      		cpc r19,r25
 2621 10f0 04F4      		brge .+2
 2622 10f2 00C0      		rjmp .L81
 279:lp_solve_5.5/lp_SOS.c ****     }
 280:lp_solve_5.5/lp_SOS.c ****   }
 281:lp_solve_5.5/lp_SOS.c ****   FREE(hold);
 2623               		.loc 1 281 0 is_stmt 1
 2624 10f4 8B89      		ldd r24,Y+19
 2625 10f6 9C89      		ldd r25,Y+20
 2626 10f8 892B      		or r24,r25
 2627 10fa 01F0      		breq .L82
 2628               		.loc 1 281 0 is_stmt 0 discriminator 1
 2629 10fc 8B89      		ldd r24,Y+19
 2630 10fe 9C89      		ldd r25,Y+20
 2631 1100 0E94 0000 		call free
 2632 1104 1C8A      		std Y+20,__zero_reg__
 2633 1106 1B8A      		std Y+19,__zero_reg__
 2634               	.L82:
 282:lp_solve_5.5/lp_SOS.c **** 
 283:lp_solve_5.5/lp_SOS.c ****   /* Adjust the size of the master variable list, if necessary */
 284:lp_solve_5.5/lp_SOS.c ****   if(k < lp->sos_vars) {
 2635               		.loc 1 284 0 is_stmt 1
 2636 1108 8F89      		ldd r24,Y+23
 2637 110a 988D      		ldd r25,Y+24
 2638 110c 8656      		subi r24,102
 2639 110e 9D4F      		sbci r25,-3
 2640 1110 FC01      		movw r30,r24
 2641 1112 2081      		ld r18,Z
 2642 1114 3181      		ldd r19,Z+1
 2643 1116 8D81      		ldd r24,Y+5
 2644 1118 9E81      		ldd r25,Y+6
 2645 111a 8217      		cp r24,r18
 2646 111c 9307      		cpc r25,r19
 2647 111e 04F4      		brge .L83
 285:lp_solve_5.5/lp_SOS.c ****     allocINT(lp, &lp->sos_priority, k, AUTOMATIC);
 2648               		.loc 1 285 0
 2649 1120 8F89      		ldd r24,Y+23
 2650 1122 988D      		ldd r25,Y+24
 2651 1124 BC01      		movw r22,r24
 2652 1126 6056      		subi r22,96
 2653 1128 7D4F      		sbci r23,-3
 2654 112a 4D81      		ldd r20,Y+5
 2655 112c 5E81      		ldd r21,Y+6
 2656 112e 8F89      		ldd r24,Y+23
 2657 1130 988D      		ldd r25,Y+24
 2658 1132 22E0      		ldi r18,lo8(2)
 2659 1134 0E94 0000 		call allocINT
 286:lp_solve_5.5/lp_SOS.c ****     lp->sos_vars = k;
 2660               		.loc 1 286 0
 2661 1138 8F89      		ldd r24,Y+23
 2662 113a 988D      		ldd r25,Y+24
 2663 113c 8656      		subi r24,102
 2664 113e 9D4F      		sbci r25,-3
 2665 1140 2D81      		ldd r18,Y+5
 2666 1142 3E81      		ldd r19,Y+6
 2667 1144 FC01      		movw r30,r24
 2668 1146 3183      		std Z+1,r19
 2669 1148 2083      		st Z,r18
 2670               	.L83:
 287:lp_solve_5.5/lp_SOS.c ****   }
 288:lp_solve_5.5/lp_SOS.c **** 
 289:lp_solve_5.5/lp_SOS.c ****   return( k );
 2671               		.loc 1 289 0
 2672 114a 8D81      		ldd r24,Y+5
 2673 114c 9E81      		ldd r25,Y+6
 2674               	/* epilogue start */
 290:lp_solve_5.5/lp_SOS.c **** 
 291:lp_solve_5.5/lp_SOS.c **** }
 2675               		.loc 1 291 0
 2676 114e 6996      		adiw r28,25
 2677 1150 0FB6      		in __tmp_reg__,__SREG__
 2678 1152 F894      		cli
 2679 1154 DEBF      		out __SP_H__,r29
 2680 1156 0FBE      		out __SREG__,__tmp_reg__
 2681 1158 CDBF      		out __SP_L__,r28
 2682 115a DF91      		pop r29
 2683 115c CF91      		pop r28
 2684 115e 0F91      		pop r16
 2685 1160 FF90      		pop r15
 2686 1162 EF90      		pop r14
 2687 1164 DF90      		pop r13
 2688 1166 CF90      		pop r12
 2689 1168 0895      		ret
 2690               		.cfi_endproc
 2691               	.LFE14:
 2693               	.global	delete_SOSrec
 2695               	delete_SOSrec:
 2696               	.LFB15:
 292:lp_solve_5.5/lp_SOS.c **** 
 293:lp_solve_5.5/lp_SOS.c **** 
 294:lp_solve_5.5/lp_SOS.c **** STATIC MYBOOL delete_SOSrec(SOSgroup *group, int sosindex)
 295:lp_solve_5.5/lp_SOS.c **** {
 2697               		.loc 1 295 0
 2698               		.cfi_startproc
 2699 116a CF93      		push r28
 2700               	.LCFI45:
 2701               		.cfi_def_cfa_offset 3
 2702               		.cfi_offset 28, -2
 2703 116c DF93      		push r29
 2704               	.LCFI46:
 2705               		.cfi_def_cfa_offset 4
 2706               		.cfi_offset 29, -3
 2707 116e 00D0      		rcall .
 2708 1170 00D0      		rcall .
 2709               	.LCFI47:
 2710               		.cfi_def_cfa_offset 8
 2711 1172 CDB7      		in r28,__SP_L__
 2712 1174 DEB7      		in r29,__SP_H__
 2713               	.LCFI48:
 2714               		.cfi_def_cfa_register 28
 2715               	/* prologue: function */
 2716               	/* frame size = 4 */
 2717               	/* stack size = 6 */
 2718               	.L__stack_usage = 6
 2719 1176 9A83      		std Y+2,r25
 2720 1178 8983      		std Y+1,r24
 2721 117a 7C83      		std Y+4,r23
 2722 117c 6B83      		std Y+3,r22
 296:lp_solve_5.5/lp_SOS.c **** #ifdef Paranoia
 297:lp_solve_5.5/lp_SOS.c ****   if((sosindex <= 0) || (sosindex > group->sos_count)) {
 298:lp_solve_5.5/lp_SOS.c ****     report(group->lp, IMPORTANT, "delete_SOSrec: Invalid SOS index %d\n", sosindex);
 299:lp_solve_5.5/lp_SOS.c ****     return(FALSE);
 300:lp_solve_5.5/lp_SOS.c ****   }
 301:lp_solve_5.5/lp_SOS.c **** #endif
 302:lp_solve_5.5/lp_SOS.c **** 
 303:lp_solve_5.5/lp_SOS.c ****   /* Delete and free the SOS record */
 304:lp_solve_5.5/lp_SOS.c ****   if(abs(SOS_get_type(group, sosindex)) == 1)
 2723               		.loc 1 304 0
 2724 117e 2B81      		ldd r18,Y+3
 2725 1180 3C81      		ldd r19,Y+4
 2726 1182 8981      		ldd r24,Y+1
 2727 1184 9A81      		ldd r25,Y+2
 2728 1186 B901      		movw r22,r18
 2729 1188 0E94 0000 		call SOS_get_type
 2730 118c 9923      		tst r25
 2731 118e 04F4      		brge .L86
 2732 1190 9195      		neg r25
 2733 1192 8195      		neg r24
 2734 1194 9109      		sbc r25,__zero_reg__
 2735               	.L86:
 2736 1196 0197      		sbiw r24,1
 2737 1198 01F4      		brne .L87
 305:lp_solve_5.5/lp_SOS.c ****     group->sos1_count--;
 2738               		.loc 1 305 0
 2739 119a 8981      		ldd r24,Y+1
 2740 119c 9A81      		ldd r25,Y+2
 2741 119e FC01      		movw r30,r24
 2742 11a0 8285      		ldd r24,Z+10
 2743 11a2 9385      		ldd r25,Z+11
 2744 11a4 9C01      		movw r18,r24
 2745 11a6 2150      		subi r18,1
 2746 11a8 3109      		sbc r19,__zero_reg__
 2747 11aa 8981      		ldd r24,Y+1
 2748 11ac 9A81      		ldd r25,Y+2
 2749 11ae FC01      		movw r30,r24
 2750 11b0 3387      		std Z+11,r19
 2751 11b2 2287      		std Z+10,r18
 2752               	.L87:
 306:lp_solve_5.5/lp_SOS.c ****   free_SOSrec(group->sos_list[sosindex-1]);
 2753               		.loc 1 306 0
 2754 11b4 8981      		ldd r24,Y+1
 2755 11b6 9A81      		ldd r25,Y+2
 2756 11b8 FC01      		movw r30,r24
 2757 11ba 2281      		ldd r18,Z+2
 2758 11bc 3381      		ldd r19,Z+3
 2759 11be 8B81      		ldd r24,Y+3
 2760 11c0 9C81      		ldd r25,Y+4
 2761 11c2 8150      		subi r24,1
 2762 11c4 9048      		sbci r25,-128
 2763 11c6 880F      		lsl r24
 2764 11c8 991F      		rol r25
 2765 11ca 820F      		add r24,r18
 2766 11cc 931F      		adc r25,r19
 2767 11ce FC01      		movw r30,r24
 2768 11d0 8081      		ld r24,Z
 2769 11d2 9181      		ldd r25,Z+1
 2770 11d4 0E94 0000 		call free_SOSrec
 307:lp_solve_5.5/lp_SOS.c ****   while(sosindex < group->sos_count) {
 2771               		.loc 1 307 0
 2772 11d8 00C0      		rjmp .L88
 2773               	.L89:
 308:lp_solve_5.5/lp_SOS.c ****     group->sos_list[sosindex-1] = group->sos_list[sosindex];
 2774               		.loc 1 308 0
 2775 11da 8981      		ldd r24,Y+1
 2776 11dc 9A81      		ldd r25,Y+2
 2777 11de FC01      		movw r30,r24
 2778 11e0 2281      		ldd r18,Z+2
 2779 11e2 3381      		ldd r19,Z+3
 2780 11e4 8B81      		ldd r24,Y+3
 2781 11e6 9C81      		ldd r25,Y+4
 2782 11e8 8150      		subi r24,1
 2783 11ea 9048      		sbci r25,-128
 2784 11ec 880F      		lsl r24
 2785 11ee 991F      		rol r25
 2786 11f0 820F      		add r24,r18
 2787 11f2 931F      		adc r25,r19
 2788 11f4 2981      		ldd r18,Y+1
 2789 11f6 3A81      		ldd r19,Y+2
 2790 11f8 F901      		movw r30,r18
 2791 11fa 4281      		ldd r20,Z+2
 2792 11fc 5381      		ldd r21,Z+3
 2793 11fe 2B81      		ldd r18,Y+3
 2794 1200 3C81      		ldd r19,Y+4
 2795 1202 220F      		lsl r18
 2796 1204 331F      		rol r19
 2797 1206 240F      		add r18,r20
 2798 1208 351F      		adc r19,r21
 2799 120a F901      		movw r30,r18
 2800 120c 2081      		ld r18,Z
 2801 120e 3181      		ldd r19,Z+1
 2802 1210 FC01      		movw r30,r24
 2803 1212 3183      		std Z+1,r19
 2804 1214 2083      		st Z,r18
 309:lp_solve_5.5/lp_SOS.c ****     sosindex++;
 2805               		.loc 1 309 0
 2806 1216 8B81      		ldd r24,Y+3
 2807 1218 9C81      		ldd r25,Y+4
 2808 121a 0196      		adiw r24,1
 2809 121c 9C83      		std Y+4,r25
 2810 121e 8B83      		std Y+3,r24
 2811               	.L88:
 307:lp_solve_5.5/lp_SOS.c ****   while(sosindex < group->sos_count) {
 2812               		.loc 1 307 0
 2813 1220 8981      		ldd r24,Y+1
 2814 1222 9A81      		ldd r25,Y+2
 2815 1224 FC01      		movw r30,r24
 2816 1226 2681      		ldd r18,Z+6
 2817 1228 3781      		ldd r19,Z+7
 2818 122a 8B81      		ldd r24,Y+3
 2819 122c 9C81      		ldd r25,Y+4
 2820 122e 8217      		cp r24,r18
 2821 1230 9307      		cpc r25,r19
 2822 1232 04F0      		brlt .L89
 310:lp_solve_5.5/lp_SOS.c ****   }
 311:lp_solve_5.5/lp_SOS.c ****   group->sos_count--;
 2823               		.loc 1 311 0
 2824 1234 8981      		ldd r24,Y+1
 2825 1236 9A81      		ldd r25,Y+2
 2826 1238 FC01      		movw r30,r24
 2827 123a 8681      		ldd r24,Z+6
 2828 123c 9781      		ldd r25,Z+7
 2829 123e 9C01      		movw r18,r24
 2830 1240 2150      		subi r18,1
 2831 1242 3109      		sbc r19,__zero_reg__
 2832 1244 8981      		ldd r24,Y+1
 2833 1246 9A81      		ldd r25,Y+2
 2834 1248 FC01      		movw r30,r24
 2835 124a 3783      		std Z+7,r19
 2836 124c 2683      		std Z+6,r18
 312:lp_solve_5.5/lp_SOS.c **** 
 313:lp_solve_5.5/lp_SOS.c ****   /* Update maxorder */
 314:lp_solve_5.5/lp_SOS.c ****   group->maxorder = 0;
 2837               		.loc 1 314 0
 2838 124e 8981      		ldd r24,Y+1
 2839 1250 9A81      		ldd r25,Y+2
 2840 1252 FC01      		movw r30,r24
 2841 1254 1186      		std Z+9,__zero_reg__
 2842 1256 1086      		std Z+8,__zero_reg__
 315:lp_solve_5.5/lp_SOS.c ****   for(sosindex = 0; sosindex < group->sos_count; sosindex++) {
 2843               		.loc 1 315 0
 2844 1258 1C82      		std Y+4,__zero_reg__
 2845 125a 1B82      		std Y+3,__zero_reg__
 2846 125c 00C0      		rjmp .L90
 2847               	.L94:
 316:lp_solve_5.5/lp_SOS.c ****     SETMAX(group->maxorder, abs(group->sos_list[sosindex]->type));
 2848               		.loc 1 316 0
 2849 125e 8981      		ldd r24,Y+1
 2850 1260 9A81      		ldd r25,Y+2
 2851 1262 FC01      		movw r30,r24
 2852 1264 2085      		ldd r18,Z+8
 2853 1266 3185      		ldd r19,Z+9
 2854 1268 8981      		ldd r24,Y+1
 2855 126a 9A81      		ldd r25,Y+2
 2856 126c FC01      		movw r30,r24
 2857 126e 4281      		ldd r20,Z+2
 2858 1270 5381      		ldd r21,Z+3
 2859 1272 8B81      		ldd r24,Y+3
 2860 1274 9C81      		ldd r25,Y+4
 2861 1276 880F      		lsl r24
 2862 1278 991F      		rol r25
 2863 127a 840F      		add r24,r20
 2864 127c 951F      		adc r25,r21
 2865 127e FC01      		movw r30,r24
 2866 1280 8081      		ld r24,Z
 2867 1282 9181      		ldd r25,Z+1
 2868 1284 FC01      		movw r30,r24
 2869 1286 8681      		ldd r24,Z+6
 2870 1288 9781      		ldd r25,Z+7
 2871 128a 9923      		tst r25
 2872 128c 04F4      		brge .L91
 2873 128e 9195      		neg r25
 2874 1290 8195      		neg r24
 2875 1292 9109      		sbc r25,__zero_reg__
 2876               	.L91:
 2877 1294 2817      		cp r18,r24
 2878 1296 3907      		cpc r19,r25
 2879 1298 04F4      		brge .L92
 2880               		.loc 1 316 0 is_stmt 0 discriminator 1
 2881 129a 8981      		ldd r24,Y+1
 2882 129c 9A81      		ldd r25,Y+2
 2883 129e FC01      		movw r30,r24
 2884 12a0 2281      		ldd r18,Z+2
 2885 12a2 3381      		ldd r19,Z+3
 2886 12a4 8B81      		ldd r24,Y+3
 2887 12a6 9C81      		ldd r25,Y+4
 2888 12a8 880F      		lsl r24
 2889 12aa 991F      		rol r25
 2890 12ac 820F      		add r24,r18
 2891 12ae 931F      		adc r25,r19
 2892 12b0 FC01      		movw r30,r24
 2893 12b2 8081      		ld r24,Z
 2894 12b4 9181      		ldd r25,Z+1
 2895 12b6 FC01      		movw r30,r24
 2896 12b8 8681      		ldd r24,Z+6
 2897 12ba 9781      		ldd r25,Z+7
 2898 12bc 9923      		tst r25
 2899 12be 04F4      		brge .L93
 2900 12c0 9195      		neg r25
 2901 12c2 8195      		neg r24
 2902 12c4 9109      		sbc r25,__zero_reg__
 2903               	.L93:
 2904 12c6 9C01      		movw r18,r24
 2905 12c8 8981      		ldd r24,Y+1
 2906 12ca 9A81      		ldd r25,Y+2
 2907 12cc FC01      		movw r30,r24
 2908 12ce 3187      		std Z+9,r19
 2909 12d0 2087      		std Z+8,r18
 2910               	.L92:
 315:lp_solve_5.5/lp_SOS.c ****   for(sosindex = 0; sosindex < group->sos_count; sosindex++) {
 2911               		.loc 1 315 0 is_stmt 1 discriminator 2
 2912 12d2 8B81      		ldd r24,Y+3
 2913 12d4 9C81      		ldd r25,Y+4
 2914 12d6 0196      		adiw r24,1
 2915 12d8 9C83      		std Y+4,r25
 2916 12da 8B83      		std Y+3,r24
 2917               	.L90:
 315:lp_solve_5.5/lp_SOS.c ****   for(sosindex = 0; sosindex < group->sos_count; sosindex++) {
 2918               		.loc 1 315 0 is_stmt 0 discriminator 1
 2919 12dc 8981      		ldd r24,Y+1
 2920 12de 9A81      		ldd r25,Y+2
 2921 12e0 FC01      		movw r30,r24
 2922 12e2 2681      		ldd r18,Z+6
 2923 12e4 3781      		ldd r19,Z+7
 2924 12e6 8B81      		ldd r24,Y+3
 2925 12e8 9C81      		ldd r25,Y+4
 2926 12ea 8217      		cp r24,r18
 2927 12ec 9307      		cpc r25,r19
 2928 12ee 04F4      		brge .+2
 2929 12f0 00C0      		rjmp .L94
 317:lp_solve_5.5/lp_SOS.c ****   }
 318:lp_solve_5.5/lp_SOS.c **** 
 319:lp_solve_5.5/lp_SOS.c ****   return(TRUE);
 2930               		.loc 1 319 0 is_stmt 1
 2931 12f2 81E0      		ldi r24,lo8(1)
 2932               	/* epilogue start */
 320:lp_solve_5.5/lp_SOS.c **** }
 2933               		.loc 1 320 0
 2934 12f4 0F90      		pop __tmp_reg__
 2935 12f6 0F90      		pop __tmp_reg__
 2936 12f8 0F90      		pop __tmp_reg__
 2937 12fa 0F90      		pop __tmp_reg__
 2938 12fc DF91      		pop r29
 2939 12fe CF91      		pop r28
 2940 1300 0895      		ret
 2941               		.cfi_endproc
 2942               	.LFE15:
 2944               	.global	free_SOSrec
 2946               	free_SOSrec:
 2947               	.LFB16:
 321:lp_solve_5.5/lp_SOS.c **** 
 322:lp_solve_5.5/lp_SOS.c **** 
 323:lp_solve_5.5/lp_SOS.c **** STATIC void free_SOSrec(SOSrec *SOS)
 324:lp_solve_5.5/lp_SOS.c **** {
 2948               		.loc 1 324 0
 2949               		.cfi_startproc
 2950 1302 CF93      		push r28
 2951               	.LCFI49:
 2952               		.cfi_def_cfa_offset 3
 2953               		.cfi_offset 28, -2
 2954 1304 DF93      		push r29
 2955               	.LCFI50:
 2956               		.cfi_def_cfa_offset 4
 2957               		.cfi_offset 29, -3
 2958 1306 00D0      		rcall .
 2959               	.LCFI51:
 2960               		.cfi_def_cfa_offset 6
 2961 1308 CDB7      		in r28,__SP_L__
 2962 130a DEB7      		in r29,__SP_H__
 2963               	.LCFI52:
 2964               		.cfi_def_cfa_register 28
 2965               	/* prologue: function */
 2966               	/* frame size = 2 */
 2967               	/* stack size = 4 */
 2968               	.L__stack_usage = 4
 2969 130c 9A83      		std Y+2,r25
 2970 130e 8983      		std Y+1,r24
 325:lp_solve_5.5/lp_SOS.c ****   if(SOS->name != NULL)
 2971               		.loc 1 325 0
 2972 1310 8981      		ldd r24,Y+1
 2973 1312 9A81      		ldd r25,Y+2
 2974 1314 FC01      		movw r30,r24
 2975 1316 8481      		ldd r24,Z+4
 2976 1318 9581      		ldd r25,Z+5
 2977 131a 892B      		or r24,r25
 2978 131c 01F0      		breq .L97
 326:lp_solve_5.5/lp_SOS.c ****     FREE(SOS->name);
 2979               		.loc 1 326 0
 2980 131e 8981      		ldd r24,Y+1
 2981 1320 9A81      		ldd r25,Y+2
 2982 1322 FC01      		movw r30,r24
 2983 1324 8481      		ldd r24,Z+4
 2984 1326 9581      		ldd r25,Z+5
 2985 1328 892B      		or r24,r25
 2986 132a 01F0      		breq .L97
 2987               		.loc 1 326 0 is_stmt 0 discriminator 1
 2988 132c 8981      		ldd r24,Y+1
 2989 132e 9A81      		ldd r25,Y+2
 2990 1330 FC01      		movw r30,r24
 2991 1332 8481      		ldd r24,Z+4
 2992 1334 9581      		ldd r25,Z+5
 2993 1336 0E94 0000 		call free
 2994 133a 8981      		ldd r24,Y+1
 2995 133c 9A81      		ldd r25,Y+2
 2996 133e FC01      		movw r30,r24
 2997 1340 1582      		std Z+5,__zero_reg__
 2998 1342 1482      		std Z+4,__zero_reg__
 2999               	.L97:
 327:lp_solve_5.5/lp_SOS.c ****   if(SOS->size > 0) {
 3000               		.loc 1 327 0 is_stmt 1
 3001 1344 8981      		ldd r24,Y+1
 3002 1346 9A81      		ldd r25,Y+2
 3003 1348 FC01      		movw r30,r24
 3004 134a 8185      		ldd r24,Z+9
 3005 134c 9285      		ldd r25,Z+10
 3006 134e 1816      		cp __zero_reg__,r24
 3007 1350 1906      		cpc __zero_reg__,r25
 3008 1352 04F0      		brlt .+2
 3009 1354 00C0      		rjmp .L98
 328:lp_solve_5.5/lp_SOS.c ****     FREE(SOS->members);
 3010               		.loc 1 328 0
 3011 1356 8981      		ldd r24,Y+1
 3012 1358 9A81      		ldd r25,Y+2
 3013 135a FC01      		movw r30,r24
 3014 135c 8585      		ldd r24,Z+13
 3015 135e 9685      		ldd r25,Z+14
 3016 1360 892B      		or r24,r25
 3017 1362 01F0      		breq .L99
 3018               		.loc 1 328 0 is_stmt 0 discriminator 1
 3019 1364 8981      		ldd r24,Y+1
 3020 1366 9A81      		ldd r25,Y+2
 3021 1368 FC01      		movw r30,r24
 3022 136a 8585      		ldd r24,Z+13
 3023 136c 9685      		ldd r25,Z+14
 3024 136e 0E94 0000 		call free
 3025 1372 8981      		ldd r24,Y+1
 3026 1374 9A81      		ldd r25,Y+2
 3027 1376 FC01      		movw r30,r24
 3028 1378 1686      		std Z+14,__zero_reg__
 3029 137a 1586      		std Z+13,__zero_reg__
 3030               	.L99:
 329:lp_solve_5.5/lp_SOS.c ****     FREE(SOS->weights);
 3031               		.loc 1 329 0 is_stmt 1
 3032 137c 8981      		ldd r24,Y+1
 3033 137e 9A81      		ldd r25,Y+2
 3034 1380 FC01      		movw r30,r24
 3035 1382 8785      		ldd r24,Z+15
 3036 1384 9089      		ldd r25,Z+16
 3037 1386 892B      		or r24,r25
 3038 1388 01F0      		breq .L100
 3039               		.loc 1 329 0 is_stmt 0 discriminator 1
 3040 138a 8981      		ldd r24,Y+1
 3041 138c 9A81      		ldd r25,Y+2
 3042 138e FC01      		movw r30,r24
 3043 1390 8785      		ldd r24,Z+15
 3044 1392 9089      		ldd r25,Z+16
 3045 1394 0E94 0000 		call free
 3046 1398 8981      		ldd r24,Y+1
 3047 139a 9A81      		ldd r25,Y+2
 3048 139c FC01      		movw r30,r24
 3049 139e 108A      		std Z+16,__zero_reg__
 3050 13a0 1786      		std Z+15,__zero_reg__
 3051               	.L100:
 330:lp_solve_5.5/lp_SOS.c ****     FREE(SOS->membersSorted);
 3052               		.loc 1 330 0 is_stmt 1
 3053 13a2 8981      		ldd r24,Y+1
 3054 13a4 9A81      		ldd r25,Y+2
 3055 13a6 FC01      		movw r30,r24
 3056 13a8 8189      		ldd r24,Z+17
 3057 13aa 9289      		ldd r25,Z+18
 3058 13ac 892B      		or r24,r25
 3059 13ae 01F0      		breq .L101
 3060               		.loc 1 330 0 is_stmt 0 discriminator 1
 3061 13b0 8981      		ldd r24,Y+1
 3062 13b2 9A81      		ldd r25,Y+2
 3063 13b4 FC01      		movw r30,r24
 3064 13b6 8189      		ldd r24,Z+17
 3065 13b8 9289      		ldd r25,Z+18
 3066 13ba 0E94 0000 		call free
 3067 13be 8981      		ldd r24,Y+1
 3068 13c0 9A81      		ldd r25,Y+2
 3069 13c2 FC01      		movw r30,r24
 3070 13c4 128A      		std Z+18,__zero_reg__
 3071 13c6 118A      		std Z+17,__zero_reg__
 3072               	.L101:
 331:lp_solve_5.5/lp_SOS.c ****     FREE(SOS->membersMapped);
 3073               		.loc 1 331 0 is_stmt 1
 3074 13c8 8981      		ldd r24,Y+1
 3075 13ca 9A81      		ldd r25,Y+2
 3076 13cc FC01      		movw r30,r24
 3077 13ce 8389      		ldd r24,Z+19
 3078 13d0 9489      		ldd r25,Z+20
 3079 13d2 892B      		or r24,r25
 3080 13d4 01F0      		breq .L98
 3081               		.loc 1 331 0 is_stmt 0 discriminator 1
 3082 13d6 8981      		ldd r24,Y+1
 3083 13d8 9A81      		ldd r25,Y+2
 3084 13da FC01      		movw r30,r24
 3085 13dc 8389      		ldd r24,Z+19
 3086 13de 9489      		ldd r25,Z+20
 3087 13e0 0E94 0000 		call free
 3088 13e4 8981      		ldd r24,Y+1
 3089 13e6 9A81      		ldd r25,Y+2
 3090 13e8 FC01      		movw r30,r24
 3091 13ea 148A      		std Z+20,__zero_reg__
 3092 13ec 138A      		std Z+19,__zero_reg__
 3093               	.L98:
 332:lp_solve_5.5/lp_SOS.c ****   }
 333:lp_solve_5.5/lp_SOS.c ****   FREE(SOS);
 3094               		.loc 1 333 0 is_stmt 1
 3095 13ee 8981      		ldd r24,Y+1
 3096 13f0 9A81      		ldd r25,Y+2
 3097 13f2 892B      		or r24,r25
 3098 13f4 01F0      		breq .L103
 3099               		.loc 1 333 0 is_stmt 0 discriminator 1
 3100 13f6 8981      		ldd r24,Y+1
 3101 13f8 9A81      		ldd r25,Y+2
 3102 13fa 0E94 0000 		call free
 3103 13fe 1A82      		std Y+2,__zero_reg__
 3104 1400 1982      		std Y+1,__zero_reg__
 3105               	.L103:
 334:lp_solve_5.5/lp_SOS.c **** }
 3106               		.loc 1 334 0 is_stmt 1
 3107 1402 0000      		nop
 3108               	/* epilogue start */
 3109 1404 0F90      		pop __tmp_reg__
 3110 1406 0F90      		pop __tmp_reg__
 3111 1408 DF91      		pop r29
 3112 140a CF91      		pop r28
 3113 140c 0895      		ret
 3114               		.cfi_endproc
 3115               	.LFE16:
 3117               	.global	SOS_member_sortlist
 3119               	SOS_member_sortlist:
 3120               	.LFB17:
 335:lp_solve_5.5/lp_SOS.c **** 
 336:lp_solve_5.5/lp_SOS.c **** 
 337:lp_solve_5.5/lp_SOS.c **** STATIC MYBOOL SOS_member_sortlist(SOSgroup *group, int sosindex)
 338:lp_solve_5.5/lp_SOS.c **** /* Routine to (re-)sort SOS member arrays for faster access to large SOSes */
 339:lp_solve_5.5/lp_SOS.c **** {
 3121               		.loc 1 339 0
 3122               		.cfi_startproc
 3123 140e 0F93      		push r16
 3124               	.LCFI53:
 3125               		.cfi_def_cfa_offset 3
 3126               		.cfi_offset 16, -2
 3127 1410 CF93      		push r28
 3128               	.LCFI54:
 3129               		.cfi_def_cfa_offset 4
 3130               		.cfi_offset 28, -3
 3131 1412 DF93      		push r29
 3132               	.LCFI55:
 3133               		.cfi_def_cfa_offset 5
 3134               		.cfi_offset 29, -4
 3135 1414 CDB7      		in r28,__SP_L__
 3136 1416 DEB7      		in r29,__SP_H__
 3137               	.LCFI56:
 3138               		.cfi_def_cfa_register 28
 3139 1418 2E97      		sbiw r28,14
 3140               	.LCFI57:
 3141               		.cfi_def_cfa_offset 19
 3142 141a 0FB6      		in __tmp_reg__,__SREG__
 3143 141c F894      		cli
 3144 141e DEBF      		out __SP_H__,r29
 3145 1420 0FBE      		out __SREG__,__tmp_reg__
 3146 1422 CDBF      		out __SP_L__,r28
 3147               	/* prologue: function */
 3148               	/* frame size = 14 */
 3149               	/* stack size = 17 */
 3150               	.L__stack_usage = 17
 3151 1424 9C87      		std Y+12,r25
 3152 1426 8B87      		std Y+11,r24
 3153 1428 7E87      		std Y+14,r23
 3154 142a 6D87      		std Y+13,r22
 340:lp_solve_5.5/lp_SOS.c ****   int    i, n;
 341:lp_solve_5.5/lp_SOS.c ****   int    *list;
 342:lp_solve_5.5/lp_SOS.c ****   lprec  *lp = group->lp;
 3155               		.loc 1 342 0
 3156 142c 8B85      		ldd r24,Y+11
 3157 142e 9C85      		ldd r25,Y+12
 3158 1430 FC01      		movw r30,r24
 3159 1432 8081      		ld r24,Z
 3160 1434 9181      		ldd r25,Z+1
 3161 1436 9C83      		std Y+4,r25
 3162 1438 8B83      		std Y+3,r24
 343:lp_solve_5.5/lp_SOS.c ****   SOSrec *SOS;
 344:lp_solve_5.5/lp_SOS.c **** 
 345:lp_solve_5.5/lp_SOS.c **** #ifdef Paranoia
 346:lp_solve_5.5/lp_SOS.c ****   if((sosindex < 0) || (sosindex > group->sos_count)) {
 347:lp_solve_5.5/lp_SOS.c ****     report(lp, IMPORTANT, "SOS_member_sortlist: Invalid SOS index %d\n", sosindex);
 348:lp_solve_5.5/lp_SOS.c ****     return(FALSE);
 349:lp_solve_5.5/lp_SOS.c ****   }
 350:lp_solve_5.5/lp_SOS.c **** #endif
 351:lp_solve_5.5/lp_SOS.c **** 
 352:lp_solve_5.5/lp_SOS.c ****   if((sosindex == 0) && (group->sos_count == 1))
 3163               		.loc 1 352 0
 3164 143a 8D85      		ldd r24,Y+13
 3165 143c 9E85      		ldd r25,Y+14
 3166 143e 892B      		or r24,r25
 3167 1440 01F4      		brne .L105
 3168               		.loc 1 352 0 is_stmt 0 discriminator 1
 3169 1442 8B85      		ldd r24,Y+11
 3170 1444 9C85      		ldd r25,Y+12
 3171 1446 FC01      		movw r30,r24
 3172 1448 8681      		ldd r24,Z+6
 3173 144a 9781      		ldd r25,Z+7
 3174 144c 0197      		sbiw r24,1
 3175 144e 01F4      		brne .L105
 353:lp_solve_5.5/lp_SOS.c ****     sosindex = 1;
 3176               		.loc 1 353 0 is_stmt 1
 3177 1450 81E0      		ldi r24,lo8(1)
 3178 1452 90E0      		ldi r25,0
 3179 1454 9E87      		std Y+14,r25
 3180 1456 8D87      		std Y+13,r24
 3181               	.L105:
 354:lp_solve_5.5/lp_SOS.c **** 
 355:lp_solve_5.5/lp_SOS.c ****   if(sosindex == 0) {
 3182               		.loc 1 355 0
 3183 1458 8D85      		ldd r24,Y+13
 3184 145a 9E85      		ldd r25,Y+14
 3185 145c 892B      		or r24,r25
 3186 145e 01F4      		brne .L106
 356:lp_solve_5.5/lp_SOS.c ****     for(i = 1; i <= group->sos_count; i++) {
 3187               		.loc 1 356 0
 3188 1460 81E0      		ldi r24,lo8(1)
 3189 1462 90E0      		ldi r25,0
 3190 1464 9A83      		std Y+2,r25
 3191 1466 8983      		std Y+1,r24
 3192 1468 00C0      		rjmp .L107
 3193               	.L110:
 357:lp_solve_5.5/lp_SOS.c ****       if(!SOS_member_sortlist(group, i))
 3194               		.loc 1 357 0
 3195 146a 2981      		ldd r18,Y+1
 3196 146c 3A81      		ldd r19,Y+2
 3197 146e 8B85      		ldd r24,Y+11
 3198 1470 9C85      		ldd r25,Y+12
 3199 1472 B901      		movw r22,r18
 3200 1474 0E94 0000 		call SOS_member_sortlist
 3201 1478 8823      		tst r24
 3202 147a 01F4      		brne .L108
 358:lp_solve_5.5/lp_SOS.c ****         return(FALSE);
 3203               		.loc 1 358 0
 3204 147c 80E0      		ldi r24,0
 3205 147e 00C0      		rjmp .L109
 3206               	.L108:
 356:lp_solve_5.5/lp_SOS.c ****     for(i = 1; i <= group->sos_count; i++) {
 3207               		.loc 1 356 0 discriminator 2
 3208 1480 8981      		ldd r24,Y+1
 3209 1482 9A81      		ldd r25,Y+2
 3210 1484 0196      		adiw r24,1
 3211 1486 9A83      		std Y+2,r25
 3212 1488 8983      		std Y+1,r24
 3213               	.L107:
 356:lp_solve_5.5/lp_SOS.c ****     for(i = 1; i <= group->sos_count; i++) {
 3214               		.loc 1 356 0 is_stmt 0 discriminator 1
 3215 148a 8B85      		ldd r24,Y+11
 3216 148c 9C85      		ldd r25,Y+12
 3217 148e FC01      		movw r30,r24
 3218 1490 2681      		ldd r18,Z+6
 3219 1492 3781      		ldd r19,Z+7
 3220 1494 8981      		ldd r24,Y+1
 3221 1496 9A81      		ldd r25,Y+2
 3222 1498 2817      		cp r18,r24
 3223 149a 3907      		cpc r19,r25
 3224 149c 04F4      		brge .L110
 3225 149e 00C0      		rjmp .L111
 3226               	.L106:
 359:lp_solve_5.5/lp_SOS.c ****     }
 360:lp_solve_5.5/lp_SOS.c ****   }
 361:lp_solve_5.5/lp_SOS.c ****   else {
 362:lp_solve_5.5/lp_SOS.c ****     SOS = group->sos_list[sosindex-1];
 3227               		.loc 1 362 0 is_stmt 1
 3228 14a0 8B85      		ldd r24,Y+11
 3229 14a2 9C85      		ldd r25,Y+12
 3230 14a4 FC01      		movw r30,r24
 3231 14a6 2281      		ldd r18,Z+2
 3232 14a8 3381      		ldd r19,Z+3
 3233 14aa 8D85      		ldd r24,Y+13
 3234 14ac 9E85      		ldd r25,Y+14
 3235 14ae 8150      		subi r24,1
 3236 14b0 9048      		sbci r25,-128
 3237 14b2 880F      		lsl r24
 3238 14b4 991F      		rol r25
 3239 14b6 820F      		add r24,r18
 3240 14b8 931F      		adc r25,r19
 3241 14ba FC01      		movw r30,r24
 3242 14bc 8081      		ld r24,Z
 3243 14be 9181      		ldd r25,Z+1
 3244 14c0 9E83      		std Y+6,r25
 3245 14c2 8D83      		std Y+5,r24
 363:lp_solve_5.5/lp_SOS.c ****     list = SOS->members;
 3246               		.loc 1 363 0
 3247 14c4 8D81      		ldd r24,Y+5
 3248 14c6 9E81      		ldd r25,Y+6
 3249 14c8 FC01      		movw r30,r24
 3250 14ca 8585      		ldd r24,Z+13
 3251 14cc 9685      		ldd r25,Z+14
 3252 14ce 9887      		std Y+8,r25
 3253 14d0 8F83      		std Y+7,r24
 364:lp_solve_5.5/lp_SOS.c ****     n = list[0];
 3254               		.loc 1 364 0
 3255 14d2 8F81      		ldd r24,Y+7
 3256 14d4 9885      		ldd r25,Y+8
 3257 14d6 FC01      		movw r30,r24
 3258 14d8 8081      		ld r24,Z
 3259 14da 9181      		ldd r25,Z+1
 3260 14dc 9A87      		std Y+10,r25
 3261 14de 8987      		std Y+9,r24
 365:lp_solve_5.5/lp_SOS.c ****     /* Make sure that the arrays are properly allocated and sized */
 366:lp_solve_5.5/lp_SOS.c ****     if(n != group->sos_list[sosindex-1]->size) {
 3262               		.loc 1 366 0
 3263 14e0 8B85      		ldd r24,Y+11
 3264 14e2 9C85      		ldd r25,Y+12
 3265 14e4 FC01      		movw r30,r24
 3266 14e6 2281      		ldd r18,Z+2
 3267 14e8 3381      		ldd r19,Z+3
 3268 14ea 8D85      		ldd r24,Y+13
 3269 14ec 9E85      		ldd r25,Y+14
 3270 14ee 8150      		subi r24,1
 3271 14f0 9048      		sbci r25,-128
 3272 14f2 880F      		lsl r24
 3273 14f4 991F      		rol r25
 3274 14f6 820F      		add r24,r18
 3275 14f8 931F      		adc r25,r19
 3276 14fa FC01      		movw r30,r24
 3277 14fc 8081      		ld r24,Z
 3278 14fe 9181      		ldd r25,Z+1
 3279 1500 FC01      		movw r30,r24
 3280 1502 2185      		ldd r18,Z+9
 3281 1504 3285      		ldd r19,Z+10
 3282 1506 8985      		ldd r24,Y+9
 3283 1508 9A85      		ldd r25,Y+10
 3284 150a 2817      		cp r18,r24
 3285 150c 3907      		cpc r19,r25
 3286 150e 01F0      		breq .L112
 367:lp_solve_5.5/lp_SOS.c ****       allocINT(lp, &SOS->membersSorted, n, AUTOMATIC);
 3287               		.loc 1 367 0
 3288 1510 8D81      		ldd r24,Y+5
 3289 1512 9E81      		ldd r25,Y+6
 3290 1514 BC01      		movw r22,r24
 3291 1516 6F5E      		subi r22,-17
 3292 1518 7F4F      		sbci r23,-1
 3293 151a 4985      		ldd r20,Y+9
 3294 151c 5A85      		ldd r21,Y+10
 3295 151e 8B81      		ldd r24,Y+3
 3296 1520 9C81      		ldd r25,Y+4
 3297 1522 22E0      		ldi r18,lo8(2)
 3298 1524 0E94 0000 		call allocINT
 368:lp_solve_5.5/lp_SOS.c ****       allocINT(lp, &SOS->membersMapped, n, AUTOMATIC);
 3299               		.loc 1 368 0
 3300 1528 8D81      		ldd r24,Y+5
 3301 152a 9E81      		ldd r25,Y+6
 3302 152c BC01      		movw r22,r24
 3303 152e 6D5E      		subi r22,-19
 3304 1530 7F4F      		sbci r23,-1
 3305 1532 4985      		ldd r20,Y+9
 3306 1534 5A85      		ldd r21,Y+10
 3307 1536 8B81      		ldd r24,Y+3
 3308 1538 9C81      		ldd r25,Y+4
 3309 153a 22E0      		ldi r18,lo8(2)
 3310 153c 0E94 0000 		call allocINT
 369:lp_solve_5.5/lp_SOS.c ****       group->sos_list[sosindex-1]->size = n;
 3311               		.loc 1 369 0
 3312 1540 8B85      		ldd r24,Y+11
 3313 1542 9C85      		ldd r25,Y+12
 3314 1544 FC01      		movw r30,r24
 3315 1546 2281      		ldd r18,Z+2
 3316 1548 3381      		ldd r19,Z+3
 3317 154a 8D85      		ldd r24,Y+13
 3318 154c 9E85      		ldd r25,Y+14
 3319 154e 8150      		subi r24,1
 3320 1550 9048      		sbci r25,-128
 3321 1552 880F      		lsl r24
 3322 1554 991F      		rol r25
 3323 1556 820F      		add r24,r18
 3324 1558 931F      		adc r25,r19
 3325 155a FC01      		movw r30,r24
 3326 155c 8081      		ld r24,Z
 3327 155e 9181      		ldd r25,Z+1
 3328 1560 2985      		ldd r18,Y+9
 3329 1562 3A85      		ldd r19,Y+10
 3330 1564 FC01      		movw r30,r24
 3331 1566 3287      		std Z+10,r19
 3332 1568 2187      		std Z+9,r18
 3333               	.L112:
 370:lp_solve_5.5/lp_SOS.c ****     }
 371:lp_solve_5.5/lp_SOS.c ****     /* Reload the arrays and do the sorting */
 372:lp_solve_5.5/lp_SOS.c ****     for(i = 1; i <= n; i++) {
 3334               		.loc 1 372 0
 3335 156a 81E0      		ldi r24,lo8(1)
 3336 156c 90E0      		ldi r25,0
 3337 156e 9A83      		std Y+2,r25
 3338 1570 8983      		std Y+1,r24
 3339 1572 00C0      		rjmp .L113
 3340               	.L114:
 373:lp_solve_5.5/lp_SOS.c ****       SOS->membersSorted[i - 1] = list[i];
 3341               		.loc 1 373 0 discriminator 3
 3342 1574 8D81      		ldd r24,Y+5
 3343 1576 9E81      		ldd r25,Y+6
 3344 1578 FC01      		movw r30,r24
 3345 157a 2189      		ldd r18,Z+17
 3346 157c 3289      		ldd r19,Z+18
 3347 157e 8981      		ldd r24,Y+1
 3348 1580 9A81      		ldd r25,Y+2
 3349 1582 8150      		subi r24,1
 3350 1584 9048      		sbci r25,-128
 3351 1586 880F      		lsl r24
 3352 1588 991F      		rol r25
 3353 158a 820F      		add r24,r18
 3354 158c 931F      		adc r25,r19
 3355 158e 2981      		ldd r18,Y+1
 3356 1590 3A81      		ldd r19,Y+2
 3357 1592 220F      		lsl r18
 3358 1594 331F      		rol r19
 3359 1596 4F81      		ldd r20,Y+7
 3360 1598 5885      		ldd r21,Y+8
 3361 159a 240F      		add r18,r20
 3362 159c 351F      		adc r19,r21
 3363 159e F901      		movw r30,r18
 3364 15a0 2081      		ld r18,Z
 3365 15a2 3181      		ldd r19,Z+1
 3366 15a4 FC01      		movw r30,r24
 3367 15a6 3183      		std Z+1,r19
 3368 15a8 2083      		st Z,r18
 374:lp_solve_5.5/lp_SOS.c ****       SOS->membersMapped[i - 1] = i;
 3369               		.loc 1 374 0 discriminator 3
 3370 15aa 8D81      		ldd r24,Y+5
 3371 15ac 9E81      		ldd r25,Y+6
 3372 15ae FC01      		movw r30,r24
 3373 15b0 2389      		ldd r18,Z+19
 3374 15b2 3489      		ldd r19,Z+20
 3375 15b4 8981      		ldd r24,Y+1
 3376 15b6 9A81      		ldd r25,Y+2
 3377 15b8 8150      		subi r24,1
 3378 15ba 9048      		sbci r25,-128
 3379 15bc 880F      		lsl r24
 3380 15be 991F      		rol r25
 3381 15c0 820F      		add r24,r18
 3382 15c2 931F      		adc r25,r19
 3383 15c4 2981      		ldd r18,Y+1
 3384 15c6 3A81      		ldd r19,Y+2
 3385 15c8 FC01      		movw r30,r24
 3386 15ca 3183      		std Z+1,r19
 3387 15cc 2083      		st Z,r18
 372:lp_solve_5.5/lp_SOS.c ****       SOS->membersSorted[i - 1] = list[i];
 3388               		.loc 1 372 0 discriminator 3
 3389 15ce 8981      		ldd r24,Y+1
 3390 15d0 9A81      		ldd r25,Y+2
 3391 15d2 0196      		adiw r24,1
 3392 15d4 9A83      		std Y+2,r25
 3393 15d6 8983      		std Y+1,r24
 3394               	.L113:
 372:lp_solve_5.5/lp_SOS.c ****       SOS->membersSorted[i - 1] = list[i];
 3395               		.loc 1 372 0 is_stmt 0 discriminator 1
 3396 15d8 2981      		ldd r18,Y+1
 3397 15da 3A81      		ldd r19,Y+2
 3398 15dc 8985      		ldd r24,Y+9
 3399 15de 9A85      		ldd r25,Y+10
 3400 15e0 8217      		cp r24,r18
 3401 15e2 9307      		cpc r25,r19
 3402 15e4 04F4      		brge .L114
 375:lp_solve_5.5/lp_SOS.c ****     }
 376:lp_solve_5.5/lp_SOS.c ****     sortByINT(SOS->membersMapped, SOS->membersSorted, n, 0, TRUE);
 3403               		.loc 1 376 0 is_stmt 1
 3404 15e6 8D81      		ldd r24,Y+5
 3405 15e8 9E81      		ldd r25,Y+6
 3406 15ea FC01      		movw r30,r24
 3407 15ec 6189      		ldd r22,Z+17
 3408 15ee 7289      		ldd r23,Z+18
 3409 15f0 8D81      		ldd r24,Y+5
 3410 15f2 9E81      		ldd r25,Y+6
 3411 15f4 FC01      		movw r30,r24
 3412 15f6 8389      		ldd r24,Z+19
 3413 15f8 9489      		ldd r25,Z+20
 3414 15fa 4985      		ldd r20,Y+9
 3415 15fc 5A85      		ldd r21,Y+10
 3416 15fe 01E0      		ldi r16,lo8(1)
 3417 1600 20E0      		ldi r18,0
 3418 1602 30E0      		ldi r19,0
 3419 1604 0E94 0000 		call sortByINT
 3420               	.L111:
 377:lp_solve_5.5/lp_SOS.c ****   }
 378:lp_solve_5.5/lp_SOS.c ****   return( TRUE );
 3421               		.loc 1 378 0
 3422 1608 81E0      		ldi r24,lo8(1)
 3423               	.L109:
 3424               	/* epilogue start */
 379:lp_solve_5.5/lp_SOS.c **** }
 3425               		.loc 1 379 0
 3426 160a 2E96      		adiw r28,14
 3427 160c 0FB6      		in __tmp_reg__,__SREG__
 3428 160e F894      		cli
 3429 1610 DEBF      		out __SP_H__,r29
 3430 1612 0FBE      		out __SREG__,__tmp_reg__
 3431 1614 CDBF      		out __SP_L__,r28
 3432 1616 DF91      		pop r29
 3433 1618 CF91      		pop r28
 3434 161a 0F91      		pop r16
 3435 161c 0895      		ret
 3436               		.cfi_endproc
 3437               	.LFE17:
 3439               	.global	SOS_member_updatemap
 3441               	SOS_member_updatemap:
 3442               	.LFB18:
 380:lp_solve_5.5/lp_SOS.c **** 
 381:lp_solve_5.5/lp_SOS.c **** STATIC int SOS_member_updatemap(SOSgroup *group)
 382:lp_solve_5.5/lp_SOS.c **** {
 3443               		.loc 1 382 0
 3444               		.cfi_startproc
 3445 161e CF93      		push r28
 3446               	.LCFI58:
 3447               		.cfi_def_cfa_offset 3
 3448               		.cfi_offset 28, -2
 3449 1620 DF93      		push r29
 3450               	.LCFI59:
 3451               		.cfi_def_cfa_offset 4
 3452               		.cfi_offset 29, -3
 3453 1622 CDB7      		in r28,__SP_L__
 3454 1624 DEB7      		in r29,__SP_H__
 3455               	.LCFI60:
 3456               		.cfi_def_cfa_register 28
 3457 1626 6497      		sbiw r28,20
 3458               	.LCFI61:
 3459               		.cfi_def_cfa_offset 24
 3460 1628 0FB6      		in __tmp_reg__,__SREG__
 3461 162a F894      		cli
 3462 162c DEBF      		out __SP_H__,r29
 3463 162e 0FBE      		out __SREG__,__tmp_reg__
 3464 1630 CDBF      		out __SP_L__,r28
 3465               	/* prologue: function */
 3466               	/* frame size = 20 */
 3467               	/* stack size = 22 */
 3468               	.L__stack_usage = 22
 3469 1632 9C8B      		std Y+20,r25
 3470 1634 8B8B      		std Y+19,r24
 383:lp_solve_5.5/lp_SOS.c ****   int      i, j, k, n, nvars = 0,
 3471               		.loc 1 383 0
 3472 1636 1E82      		std Y+6,__zero_reg__
 3473 1638 1D82      		std Y+5,__zero_reg__
 384:lp_solve_5.5/lp_SOS.c ****            *list, *tally = NULL;
 3474               		.loc 1 384 0
 3475 163a 1A8A      		std Y+18,__zero_reg__
 3476 163c 198A      		std Y+17,__zero_reg__
 385:lp_solve_5.5/lp_SOS.c ****   SOSrec   *rec;
 386:lp_solve_5.5/lp_SOS.c ****   lprec    *lp = group->lp;
 3477               		.loc 1 386 0
 3478 163e 8B89      		ldd r24,Y+19
 3479 1640 9C89      		ldd r25,Y+20
 3480 1642 FC01      		movw r30,r24
 3481 1644 8081      		ld r24,Z
 3482 1646 9181      		ldd r25,Z+1
 3483 1648 9887      		std Y+8,r25
 3484 164a 8F83      		std Y+7,r24
 387:lp_solve_5.5/lp_SOS.c **** 
 388:lp_solve_5.5/lp_SOS.c ****   /* (Re)-initialize usage arrays */
 389:lp_solve_5.5/lp_SOS.c ****   allocINT(lp, &group->memberpos, lp->columns+1, AUTOMATIC);
 3485               		.loc 1 389 0
 3486 164c 8F81      		ldd r24,Y+7
 3487 164e 9885      		ldd r25,Y+8
 3488 1650 8451      		subi r24,20
 3489 1652 9E4F      		sbci r25,-2
 3490 1654 FC01      		movw r30,r24
 3491 1656 8081      		ld r24,Z
 3492 1658 9181      		ldd r25,Z+1
 3493 165a AC01      		movw r20,r24
 3494 165c 4F5F      		subi r20,-1
 3495 165e 5F4F      		sbci r21,-1
 3496 1660 8B89      		ldd r24,Y+19
 3497 1662 9C89      		ldd r25,Y+20
 3498 1664 BC01      		movw r22,r24
 3499 1666 625F      		subi r22,-14
 3500 1668 7F4F      		sbci r23,-1
 3501 166a 8F81      		ldd r24,Y+7
 3502 166c 9885      		ldd r25,Y+8
 3503 166e 22E0      		ldi r18,lo8(2)
 3504 1670 0E94 0000 		call allocINT
 390:lp_solve_5.5/lp_SOS.c ****   allocINT(lp, &tally, lp->columns+1, TRUE);
 3505               		.loc 1 390 0
 3506 1674 8F81      		ldd r24,Y+7
 3507 1676 9885      		ldd r25,Y+8
 3508 1678 8451      		subi r24,20
 3509 167a 9E4F      		sbci r25,-2
 3510 167c FC01      		movw r30,r24
 3511 167e 8081      		ld r24,Z
 3512 1680 9181      		ldd r25,Z+1
 3513 1682 AC01      		movw r20,r24
 3514 1684 4F5F      		subi r20,-1
 3515 1686 5F4F      		sbci r21,-1
 3516 1688 BE01      		movw r22,r28
 3517 168a 6F5E      		subi r22,-17
 3518 168c 7F4F      		sbci r23,-1
 3519 168e 8F81      		ldd r24,Y+7
 3520 1690 9885      		ldd r25,Y+8
 3521 1692 21E0      		ldi r18,lo8(1)
 3522 1694 0E94 0000 		call allocINT
 391:lp_solve_5.5/lp_SOS.c **** 
 392:lp_solve_5.5/lp_SOS.c ****   /* Get each variable's SOS membership count */
 393:lp_solve_5.5/lp_SOS.c ****   for(i = 0; i < group->sos_count; i++) {
 3523               		.loc 1 393 0
 3524 1698 1A82      		std Y+2,__zero_reg__
 3525 169a 1982      		std Y+1,__zero_reg__
 3526 169c 00C0      		rjmp .L116
 3527               	.L119:
 394:lp_solve_5.5/lp_SOS.c ****     rec = group->sos_list[i];
 3528               		.loc 1 394 0
 3529 169e 8B89      		ldd r24,Y+19
 3530 16a0 9C89      		ldd r25,Y+20
 3531 16a2 FC01      		movw r30,r24
 3532 16a4 2281      		ldd r18,Z+2
 3533 16a6 3381      		ldd r19,Z+3
 3534 16a8 8981      		ldd r24,Y+1
 3535 16aa 9A81      		ldd r25,Y+2
 3536 16ac 880F      		lsl r24
 3537 16ae 991F      		rol r25
 3538 16b0 820F      		add r24,r18
 3539 16b2 931F      		adc r25,r19
 3540 16b4 FC01      		movw r30,r24
 3541 16b6 8081      		ld r24,Z
 3542 16b8 9181      		ldd r25,Z+1
 3543 16ba 9A87      		std Y+10,r25
 3544 16bc 8987      		std Y+9,r24
 395:lp_solve_5.5/lp_SOS.c ****     n = rec->size;
 3545               		.loc 1 395 0
 3546 16be 8985      		ldd r24,Y+9
 3547 16c0 9A85      		ldd r25,Y+10
 3548 16c2 FC01      		movw r30,r24
 3549 16c4 8185      		ldd r24,Z+9
 3550 16c6 9285      		ldd r25,Z+10
 3551 16c8 9C87      		std Y+12,r25
 3552 16ca 8B87      		std Y+11,r24
 396:lp_solve_5.5/lp_SOS.c ****     list = rec->members;
 3553               		.loc 1 396 0
 3554 16cc 8985      		ldd r24,Y+9
 3555 16ce 9A85      		ldd r25,Y+10
 3556 16d0 FC01      		movw r30,r24
 3557 16d2 8585      		ldd r24,Z+13
 3558 16d4 9685      		ldd r25,Z+14
 3559 16d6 9E87      		std Y+14,r25
 3560 16d8 8D87      		std Y+13,r24
 397:lp_solve_5.5/lp_SOS.c ****     for(j = 1; j <= n; j++) {
 3561               		.loc 1 397 0
 3562 16da 81E0      		ldi r24,lo8(1)
 3563 16dc 90E0      		ldi r25,0
 3564 16de 9C83      		std Y+4,r25
 3565 16e0 8B83      		std Y+3,r24
 3566 16e2 00C0      		rjmp .L117
 3567               	.L118:
 398:lp_solve_5.5/lp_SOS.c ****       k = list[j];
 3568               		.loc 1 398 0 discriminator 3
 3569 16e4 8B81      		ldd r24,Y+3
 3570 16e6 9C81      		ldd r25,Y+4
 3571 16e8 880F      		lsl r24
 3572 16ea 991F      		rol r25
 3573 16ec 2D85      		ldd r18,Y+13
 3574 16ee 3E85      		ldd r19,Y+14
 3575 16f0 820F      		add r24,r18
 3576 16f2 931F      		adc r25,r19
 3577 16f4 FC01      		movw r30,r24
 3578 16f6 8081      		ld r24,Z
 3579 16f8 9181      		ldd r25,Z+1
 3580 16fa 988B      		std Y+16,r25
 3581 16fc 8F87      		std Y+15,r24
 399:lp_solve_5.5/lp_SOS.c **** #ifdef Paranoia
 400:lp_solve_5.5/lp_SOS.c ****       if((k < 1) || (k > lp->columns))
 401:lp_solve_5.5/lp_SOS.c ****         report(lp, SEVERE, "SOS_member_updatemap: Member %j of SOS number %d is out of column range
 402:lp_solve_5.5/lp_SOS.c ****                             j, i+1, k);
 403:lp_solve_5.5/lp_SOS.c **** #endif
 404:lp_solve_5.5/lp_SOS.c ****       tally[k]++;
 3582               		.loc 1 404 0 discriminator 3
 3583 16fe 2989      		ldd r18,Y+17
 3584 1700 3A89      		ldd r19,Y+18
 3585 1702 8F85      		ldd r24,Y+15
 3586 1704 9889      		ldd r25,Y+16
 3587 1706 880F      		lsl r24
 3588 1708 991F      		rol r25
 3589 170a 820F      		add r24,r18
 3590 170c 931F      		adc r25,r19
 3591 170e FC01      		movw r30,r24
 3592 1710 2081      		ld r18,Z
 3593 1712 3181      		ldd r19,Z+1
 3594 1714 2F5F      		subi r18,-1
 3595 1716 3F4F      		sbci r19,-1
 3596 1718 FC01      		movw r30,r24
 3597 171a 3183      		std Z+1,r19
 3598 171c 2083      		st Z,r18
 397:lp_solve_5.5/lp_SOS.c ****       k = list[j];
 3599               		.loc 1 397 0 discriminator 3
 3600 171e 8B81      		ldd r24,Y+3
 3601 1720 9C81      		ldd r25,Y+4
 3602 1722 0196      		adiw r24,1
 3603 1724 9C83      		std Y+4,r25
 3604 1726 8B83      		std Y+3,r24
 3605               	.L117:
 397:lp_solve_5.5/lp_SOS.c ****       k = list[j];
 3606               		.loc 1 397 0 is_stmt 0 discriminator 1
 3607 1728 2B81      		ldd r18,Y+3
 3608 172a 3C81      		ldd r19,Y+4
 3609 172c 8B85      		ldd r24,Y+11
 3610 172e 9C85      		ldd r25,Y+12
 3611 1730 8217      		cp r24,r18
 3612 1732 9307      		cpc r25,r19
 3613 1734 04F4      		brge .L118
 393:lp_solve_5.5/lp_SOS.c ****     rec = group->sos_list[i];
 3614               		.loc 1 393 0 is_stmt 1 discriminator 2
 3615 1736 8981      		ldd r24,Y+1
 3616 1738 9A81      		ldd r25,Y+2
 3617 173a 0196      		adiw r24,1
 3618 173c 9A83      		std Y+2,r25
 3619 173e 8983      		std Y+1,r24
 3620               	.L116:
 393:lp_solve_5.5/lp_SOS.c ****     rec = group->sos_list[i];
 3621               		.loc 1 393 0 is_stmt 0 discriminator 1
 3622 1740 8B89      		ldd r24,Y+19
 3623 1742 9C89      		ldd r25,Y+20
 3624 1744 FC01      		movw r30,r24
 3625 1746 2681      		ldd r18,Z+6
 3626 1748 3781      		ldd r19,Z+7
 3627 174a 8981      		ldd r24,Y+1
 3628 174c 9A81      		ldd r25,Y+2
 3629 174e 8217      		cp r24,r18
 3630 1750 9307      		cpc r25,r19
 3631 1752 04F4      		brge .+2
 3632 1754 00C0      		rjmp .L119
 405:lp_solve_5.5/lp_SOS.c ****     }
 406:lp_solve_5.5/lp_SOS.c **** 
 407:lp_solve_5.5/lp_SOS.c ****   }
 408:lp_solve_5.5/lp_SOS.c **** 
 409:lp_solve_5.5/lp_SOS.c ****   /* Compute pointer into column-sorted array */
 410:lp_solve_5.5/lp_SOS.c ****   group->memberpos[0] = 0;
 3633               		.loc 1 410 0 is_stmt 1
 3634 1756 8B89      		ldd r24,Y+19
 3635 1758 9C89      		ldd r25,Y+20
 3636 175a FC01      		movw r30,r24
 3637 175c 8685      		ldd r24,Z+14
 3638 175e 9785      		ldd r25,Z+15
 3639 1760 FC01      		movw r30,r24
 3640 1762 1182      		std Z+1,__zero_reg__
 3641 1764 1082      		st Z,__zero_reg__
 411:lp_solve_5.5/lp_SOS.c ****   for(i = 1; i <= lp->columns; i++) {
 3642               		.loc 1 411 0
 3643 1766 81E0      		ldi r24,lo8(1)
 3644 1768 90E0      		ldi r25,0
 3645 176a 9A83      		std Y+2,r25
 3646 176c 8983      		std Y+1,r24
 3647 176e 00C0      		rjmp .L120
 3648               	.L122:
 412:lp_solve_5.5/lp_SOS.c ****     n = tally[i];
 3649               		.loc 1 412 0
 3650 1770 2989      		ldd r18,Y+17
 3651 1772 3A89      		ldd r19,Y+18
 3652 1774 8981      		ldd r24,Y+1
 3653 1776 9A81      		ldd r25,Y+2
 3654 1778 880F      		lsl r24
 3655 177a 991F      		rol r25
 3656 177c 820F      		add r24,r18
 3657 177e 931F      		adc r25,r19
 3658 1780 FC01      		movw r30,r24
 3659 1782 8081      		ld r24,Z
 3660 1784 9181      		ldd r25,Z+1
 3661 1786 9C87      		std Y+12,r25
 3662 1788 8B87      		std Y+11,r24
 413:lp_solve_5.5/lp_SOS.c ****     if(n > 0)
 3663               		.loc 1 413 0
 3664 178a 8B85      		ldd r24,Y+11
 3665 178c 9C85      		ldd r25,Y+12
 3666 178e 1816      		cp __zero_reg__,r24
 3667 1790 1906      		cpc __zero_reg__,r25
 3668 1792 04F4      		brge .L121
 414:lp_solve_5.5/lp_SOS.c ****       nvars++;
 3669               		.loc 1 414 0
 3670 1794 8D81      		ldd r24,Y+5
 3671 1796 9E81      		ldd r25,Y+6
 3672 1798 0196      		adiw r24,1
 3673 179a 9E83      		std Y+6,r25
 3674 179c 8D83      		std Y+5,r24
 3675               	.L121:
 415:lp_solve_5.5/lp_SOS.c ****     group->memberpos[i] = group->memberpos[i-1] + n;
 3676               		.loc 1 415 0 discriminator 2
 3677 179e 8B89      		ldd r24,Y+19
 3678 17a0 9C89      		ldd r25,Y+20
 3679 17a2 FC01      		movw r30,r24
 3680 17a4 2685      		ldd r18,Z+14
 3681 17a6 3785      		ldd r19,Z+15
 3682 17a8 8981      		ldd r24,Y+1
 3683 17aa 9A81      		ldd r25,Y+2
 3684 17ac 880F      		lsl r24
 3685 17ae 991F      		rol r25
 3686 17b0 820F      		add r24,r18
 3687 17b2 931F      		adc r25,r19
 3688 17b4 2B89      		ldd r18,Y+19
 3689 17b6 3C89      		ldd r19,Y+20
 3690 17b8 F901      		movw r30,r18
 3691 17ba 4685      		ldd r20,Z+14
 3692 17bc 5785      		ldd r21,Z+15
 3693 17be 2981      		ldd r18,Y+1
 3694 17c0 3A81      		ldd r19,Y+2
 3695 17c2 2150      		subi r18,1
 3696 17c4 3048      		sbci r19,-128
 3697 17c6 220F      		lsl r18
 3698 17c8 331F      		rol r19
 3699 17ca 240F      		add r18,r20
 3700 17cc 351F      		adc r19,r21
 3701 17ce F901      		movw r30,r18
 3702 17d0 4081      		ld r20,Z
 3703 17d2 5181      		ldd r21,Z+1
 3704 17d4 2B85      		ldd r18,Y+11
 3705 17d6 3C85      		ldd r19,Y+12
 3706 17d8 240F      		add r18,r20
 3707 17da 351F      		adc r19,r21
 3708 17dc FC01      		movw r30,r24
 3709 17de 3183      		std Z+1,r19
 3710 17e0 2083      		st Z,r18
 411:lp_solve_5.5/lp_SOS.c ****     n = tally[i];
 3711               		.loc 1 411 0 discriminator 2
 3712 17e2 8981      		ldd r24,Y+1
 3713 17e4 9A81      		ldd r25,Y+2
 3714 17e6 0196      		adiw r24,1
 3715 17e8 9A83      		std Y+2,r25
 3716 17ea 8983      		std Y+1,r24
 3717               	.L120:
 411:lp_solve_5.5/lp_SOS.c ****     n = tally[i];
 3718               		.loc 1 411 0 is_stmt 0 discriminator 1
 3719 17ec 8F81      		ldd r24,Y+7
 3720 17ee 9885      		ldd r25,Y+8
 3721 17f0 8451      		subi r24,20
 3722 17f2 9E4F      		sbci r25,-2
 3723 17f4 FC01      		movw r30,r24
 3724 17f6 2081      		ld r18,Z
 3725 17f8 3181      		ldd r19,Z+1
 3726 17fa 8981      		ldd r24,Y+1
 3727 17fc 9A81      		ldd r25,Y+2
 3728 17fe 2817      		cp r18,r24
 3729 1800 3907      		cpc r19,r25
 3730 1802 04F0      		brlt .+2
 3731 1804 00C0      		rjmp .L122
 416:lp_solve_5.5/lp_SOS.c ****   }
 417:lp_solve_5.5/lp_SOS.c ****   n = group->memberpos[lp->columns];
 3732               		.loc 1 417 0 is_stmt 1
 3733 1806 8B89      		ldd r24,Y+19
 3734 1808 9C89      		ldd r25,Y+20
 3735 180a FC01      		movw r30,r24
 3736 180c 2685      		ldd r18,Z+14
 3737 180e 3785      		ldd r19,Z+15
 3738 1810 8F81      		ldd r24,Y+7
 3739 1812 9885      		ldd r25,Y+8
 3740 1814 8451      		subi r24,20
 3741 1816 9E4F      		sbci r25,-2
 3742 1818 FC01      		movw r30,r24
 3743 181a 8081      		ld r24,Z
 3744 181c 9181      		ldd r25,Z+1
 3745 181e 880F      		lsl r24
 3746 1820 991F      		rol r25
 3747 1822 820F      		add r24,r18
 3748 1824 931F      		adc r25,r19
 3749 1826 FC01      		movw r30,r24
 3750 1828 8081      		ld r24,Z
 3751 182a 9181      		ldd r25,Z+1
 3752 182c 9C87      		std Y+12,r25
 3753 182e 8B87      		std Y+11,r24
 418:lp_solve_5.5/lp_SOS.c ****   MEMCOPY(tally+1, group->memberpos, lp->columns);
 3754               		.loc 1 418 0
 3755 1830 8F81      		ldd r24,Y+7
 3756 1832 9885      		ldd r25,Y+8
 3757 1834 8451      		subi r24,20
 3758 1836 9E4F      		sbci r25,-2
 3759 1838 FC01      		movw r30,r24
 3760 183a 8081      		ld r24,Z
 3761 183c 9181      		ldd r25,Z+1
 3762 183e AC01      		movw r20,r24
 3763 1840 440F      		lsl r20
 3764 1842 551F      		rol r21
 3765 1844 8B89      		ldd r24,Y+19
 3766 1846 9C89      		ldd r25,Y+20
 3767 1848 FC01      		movw r30,r24
 3768 184a 2685      		ldd r18,Z+14
 3769 184c 3785      		ldd r19,Z+15
 3770 184e 8989      		ldd r24,Y+17
 3771 1850 9A89      		ldd r25,Y+18
 3772 1852 0296      		adiw r24,2
 3773 1854 B901      		movw r22,r18
 3774 1856 0E94 0000 		call memcpy
 419:lp_solve_5.5/lp_SOS.c **** 
 420:lp_solve_5.5/lp_SOS.c ****   /* Load the column-sorted SOS indeces / pointers */
 421:lp_solve_5.5/lp_SOS.c ****   allocINT(lp, &group->membership, n+1, AUTOMATIC);
 3775               		.loc 1 421 0
 3776 185a 8B85      		ldd r24,Y+11
 3777 185c 9C85      		ldd r25,Y+12
 3778 185e AC01      		movw r20,r24
 3779 1860 4F5F      		subi r20,-1
 3780 1862 5F4F      		sbci r21,-1
 3781 1864 8B89      		ldd r24,Y+19
 3782 1866 9C89      		ldd r25,Y+20
 3783 1868 BC01      		movw r22,r24
 3784 186a 645F      		subi r22,-12
 3785 186c 7F4F      		sbci r23,-1
 3786 186e 8F81      		ldd r24,Y+7
 3787 1870 9885      		ldd r25,Y+8
 3788 1872 22E0      		ldi r18,lo8(2)
 3789 1874 0E94 0000 		call allocINT
 422:lp_solve_5.5/lp_SOS.c ****   for(i = 0; i < group->sos_count; i++) {
 3790               		.loc 1 422 0
 3791 1878 1A82      		std Y+2,__zero_reg__
 3792 187a 1982      		std Y+1,__zero_reg__
 3793 187c 00C0      		rjmp .L123
 3794               	.L126:
 423:lp_solve_5.5/lp_SOS.c ****     rec = group->sos_list[i];
 3795               		.loc 1 423 0
 3796 187e 8B89      		ldd r24,Y+19
 3797 1880 9C89      		ldd r25,Y+20
 3798 1882 FC01      		movw r30,r24
 3799 1884 2281      		ldd r18,Z+2
 3800 1886 3381      		ldd r19,Z+3
 3801 1888 8981      		ldd r24,Y+1
 3802 188a 9A81      		ldd r25,Y+2
 3803 188c 880F      		lsl r24
 3804 188e 991F      		rol r25
 3805 1890 820F      		add r24,r18
 3806 1892 931F      		adc r25,r19
 3807 1894 FC01      		movw r30,r24
 3808 1896 8081      		ld r24,Z
 3809 1898 9181      		ldd r25,Z+1
 3810 189a 9A87      		std Y+10,r25
 3811 189c 8987      		std Y+9,r24
 424:lp_solve_5.5/lp_SOS.c ****     n = rec->size;
 3812               		.loc 1 424 0
 3813 189e 8985      		ldd r24,Y+9
 3814 18a0 9A85      		ldd r25,Y+10
 3815 18a2 FC01      		movw r30,r24
 3816 18a4 8185      		ldd r24,Z+9
 3817 18a6 9285      		ldd r25,Z+10
 3818 18a8 9C87      		std Y+12,r25
 3819 18aa 8B87      		std Y+11,r24
 425:lp_solve_5.5/lp_SOS.c ****     list = rec->members;
 3820               		.loc 1 425 0
 3821 18ac 8985      		ldd r24,Y+9
 3822 18ae 9A85      		ldd r25,Y+10
 3823 18b0 FC01      		movw r30,r24
 3824 18b2 8585      		ldd r24,Z+13
 3825 18b4 9685      		ldd r25,Z+14
 3826 18b6 9E87      		std Y+14,r25
 3827 18b8 8D87      		std Y+13,r24
 426:lp_solve_5.5/lp_SOS.c ****     for(j = 1; j <= n; j++) {
 3828               		.loc 1 426 0
 3829 18ba 81E0      		ldi r24,lo8(1)
 3830 18bc 90E0      		ldi r25,0
 3831 18be 9C83      		std Y+4,r25
 3832 18c0 8B83      		std Y+3,r24
 3833 18c2 00C0      		rjmp .L124
 3834               	.L125:
 427:lp_solve_5.5/lp_SOS.c ****       k = tally[list[j]]++;
 3835               		.loc 1 427 0 discriminator 3
 3836 18c4 2989      		ldd r18,Y+17
 3837 18c6 3A89      		ldd r19,Y+18
 3838 18c8 8B81      		ldd r24,Y+3
 3839 18ca 9C81      		ldd r25,Y+4
 3840 18cc 880F      		lsl r24
 3841 18ce 991F      		rol r25
 3842 18d0 4D85      		ldd r20,Y+13
 3843 18d2 5E85      		ldd r21,Y+14
 3844 18d4 840F      		add r24,r20
 3845 18d6 951F      		adc r25,r21
 3846 18d8 FC01      		movw r30,r24
 3847 18da 8081      		ld r24,Z
 3848 18dc 9181      		ldd r25,Z+1
 3849 18de 880F      		lsl r24
 3850 18e0 991F      		rol r25
 3851 18e2 280F      		add r18,r24
 3852 18e4 391F      		adc r19,r25
 3853 18e6 F901      		movw r30,r18
 3854 18e8 8081      		ld r24,Z
 3855 18ea 9181      		ldd r25,Z+1
 3856 18ec AC01      		movw r20,r24
 3857 18ee 4F5F      		subi r20,-1
 3858 18f0 5F4F      		sbci r21,-1
 3859 18f2 F901      		movw r30,r18
 3860 18f4 5183      		std Z+1,r21
 3861 18f6 4083      		st Z,r20
 3862 18f8 988B      		std Y+16,r25
 3863 18fa 8F87      		std Y+15,r24
 428:lp_solve_5.5/lp_SOS.c **** #ifdef Paranoia
 429:lp_solve_5.5/lp_SOS.c ****       if(k > group->memberpos[lp->columns])
 430:lp_solve_5.5/lp_SOS.c ****         report(lp, SEVERE, "SOS_member_updatemap: Member mapping for variable %j of SOS number %d i
 431:lp_solve_5.5/lp_SOS.c ****                             list[j], i+1);
 432:lp_solve_5.5/lp_SOS.c **** #endif
 433:lp_solve_5.5/lp_SOS.c ****       group->membership[k] = i+1;
 3864               		.loc 1 433 0 discriminator 3
 3865 18fc 8B89      		ldd r24,Y+19
 3866 18fe 9C89      		ldd r25,Y+20
 3867 1900 FC01      		movw r30,r24
 3868 1902 2485      		ldd r18,Z+12
 3869 1904 3585      		ldd r19,Z+13
 3870 1906 8F85      		ldd r24,Y+15
 3871 1908 9889      		ldd r25,Y+16
 3872 190a 880F      		lsl r24
 3873 190c 991F      		rol r25
 3874 190e 820F      		add r24,r18
 3875 1910 931F      		adc r25,r19
 3876 1912 2981      		ldd r18,Y+1
 3877 1914 3A81      		ldd r19,Y+2
 3878 1916 2F5F      		subi r18,-1
 3879 1918 3F4F      		sbci r19,-1
 3880 191a FC01      		movw r30,r24
 3881 191c 3183      		std Z+1,r19
 3882 191e 2083      		st Z,r18
 426:lp_solve_5.5/lp_SOS.c ****       k = tally[list[j]]++;
 3883               		.loc 1 426 0 discriminator 3
 3884 1920 8B81      		ldd r24,Y+3
 3885 1922 9C81      		ldd r25,Y+4
 3886 1924 0196      		adiw r24,1
 3887 1926 9C83      		std Y+4,r25
 3888 1928 8B83      		std Y+3,r24
 3889               	.L124:
 426:lp_solve_5.5/lp_SOS.c ****       k = tally[list[j]]++;
 3890               		.loc 1 426 0 is_stmt 0 discriminator 1
 3891 192a 2B81      		ldd r18,Y+3
 3892 192c 3C81      		ldd r19,Y+4
 3893 192e 8B85      		ldd r24,Y+11
 3894 1930 9C85      		ldd r25,Y+12
 3895 1932 8217      		cp r24,r18
 3896 1934 9307      		cpc r25,r19
 3897 1936 04F4      		brge .L125
 422:lp_solve_5.5/lp_SOS.c ****     rec = group->sos_list[i];
 3898               		.loc 1 422 0 is_stmt 1 discriminator 2
 3899 1938 8981      		ldd r24,Y+1
 3900 193a 9A81      		ldd r25,Y+2
 3901 193c 0196      		adiw r24,1
 3902 193e 9A83      		std Y+2,r25
 3903 1940 8983      		std Y+1,r24
 3904               	.L123:
 422:lp_solve_5.5/lp_SOS.c ****     rec = group->sos_list[i];
 3905               		.loc 1 422 0 is_stmt 0 discriminator 1
 3906 1942 8B89      		ldd r24,Y+19
 3907 1944 9C89      		ldd r25,Y+20
 3908 1946 FC01      		movw r30,r24
 3909 1948 2681      		ldd r18,Z+6
 3910 194a 3781      		ldd r19,Z+7
 3911 194c 8981      		ldd r24,Y+1
 3912 194e 9A81      		ldd r25,Y+2
 3913 1950 8217      		cp r24,r18
 3914 1952 9307      		cpc r25,r19
 3915 1954 04F4      		brge .+2
 3916 1956 00C0      		rjmp .L126
 434:lp_solve_5.5/lp_SOS.c ****     }
 435:lp_solve_5.5/lp_SOS.c ****   }
 436:lp_solve_5.5/lp_SOS.c ****   FREE(tally);
 3917               		.loc 1 436 0 is_stmt 1
 3918 1958 8989      		ldd r24,Y+17
 3919 195a 9A89      		ldd r25,Y+18
 3920 195c 892B      		or r24,r25
 3921 195e 01F0      		breq .L127
 3922               		.loc 1 436 0 is_stmt 0 discriminator 1
 3923 1960 8989      		ldd r24,Y+17
 3924 1962 9A89      		ldd r25,Y+18
 3925 1964 0E94 0000 		call free
 3926 1968 1A8A      		std Y+18,__zero_reg__
 3927 196a 198A      		std Y+17,__zero_reg__
 3928               	.L127:
 437:lp_solve_5.5/lp_SOS.c **** 
 438:lp_solve_5.5/lp_SOS.c ****   return( nvars );
 3929               		.loc 1 438 0 is_stmt 1
 3930 196c 8D81      		ldd r24,Y+5
 3931 196e 9E81      		ldd r25,Y+6
 3932               	/* epilogue start */
 439:lp_solve_5.5/lp_SOS.c **** }
 3933               		.loc 1 439 0
 3934 1970 6496      		adiw r28,20
 3935 1972 0FB6      		in __tmp_reg__,__SREG__
 3936 1974 F894      		cli
 3937 1976 DEBF      		out __SP_H__,r29
 3938 1978 0FBE      		out __SREG__,__tmp_reg__
 3939 197a CDBF      		out __SP_L__,r28
 3940 197c DF91      		pop r29
 3941 197e CF91      		pop r28
 3942 1980 0895      		ret
 3943               		.cfi_endproc
 3944               	.LFE18:
 3946               	.global	SOS_shift_col
 3948               	SOS_shift_col:
 3949               	.LFB19:
 440:lp_solve_5.5/lp_SOS.c **** 
 441:lp_solve_5.5/lp_SOS.c **** 
 442:lp_solve_5.5/lp_SOS.c **** STATIC MYBOOL SOS_shift_col(SOSgroup *group, int sosindex, int column, int delta, LLrec *usedmap, M
 443:lp_solve_5.5/lp_SOS.c **** /* Routine to adjust SOS indeces for variable insertions or deletions;
 444:lp_solve_5.5/lp_SOS.c ****    Note: SOS_shift_col must be called before make_SOSchain! */
 445:lp_solve_5.5/lp_SOS.c **** {
 3950               		.loc 1 445 0
 3951               		.cfi_startproc
 3952 1982 EF92      		push r14
 3953               	.LCFI62:
 3954               		.cfi_def_cfa_offset 3
 3955               		.cfi_offset 14, -2
 3956 1984 0F93      		push r16
 3957               	.LCFI63:
 3958               		.cfi_def_cfa_offset 4
 3959               		.cfi_offset 16, -3
 3960 1986 1F93      		push r17
 3961               	.LCFI64:
 3962               		.cfi_def_cfa_offset 5
 3963               		.cfi_offset 17, -4
 3964 1988 CF93      		push r28
 3965               	.LCFI65:
 3966               		.cfi_def_cfa_offset 6
 3967               		.cfi_offset 28, -5
 3968 198a DF93      		push r29
 3969               	.LCFI66:
 3970               		.cfi_def_cfa_offset 7
 3971               		.cfi_offset 29, -6
 3972 198c CDB7      		in r28,__SP_L__
 3973 198e DEB7      		in r29,__SP_H__
 3974               	.LCFI67:
 3975               		.cfi_def_cfa_register 28
 3976 1990 6D97      		sbiw r28,29
 3977               	.LCFI68:
 3978               		.cfi_def_cfa_offset 36
 3979 1992 0FB6      		in __tmp_reg__,__SREG__
 3980 1994 F894      		cli
 3981 1996 DEBF      		out __SP_H__,r29
 3982 1998 0FBE      		out __SREG__,__tmp_reg__
 3983 199a CDBF      		out __SP_L__,r28
 3984               	/* prologue: function */
 3985               	/* frame size = 29 */
 3986               	/* stack size = 34 */
 3987               	.L__stack_usage = 34
 3988 199c 9C8B      		std Y+20,r25
 3989 199e 8B8B      		std Y+19,r24
 3990 19a0 7E8B      		std Y+22,r23
 3991 19a2 6D8B      		std Y+21,r22
 3992 19a4 588F      		std Y+24,r21
 3993 19a6 4F8B      		std Y+23,r20
 3994 19a8 3A8F      		std Y+26,r19
 3995 19aa 298F      		std Y+25,r18
 3996 19ac 1C8F      		std Y+28,r17
 3997 19ae 0B8F      		std Y+27,r16
 3998 19b0 ED8E      		std Y+29,r14
 446:lp_solve_5.5/lp_SOS.c ****   int    i, ii, n, nn, nr;
 447:lp_solve_5.5/lp_SOS.c ****   int    changed;
 448:lp_solve_5.5/lp_SOS.c ****   int    *list;
 449:lp_solve_5.5/lp_SOS.c ****   REAL   *weights;
 450:lp_solve_5.5/lp_SOS.c **** 
 451:lp_solve_5.5/lp_SOS.c **** #ifdef Paranoia
 452:lp_solve_5.5/lp_SOS.c ****   lprec  *lp = group->lp;
 453:lp_solve_5.5/lp_SOS.c **** 
 454:lp_solve_5.5/lp_SOS.c ****   if((sosindex < 0) || (sosindex > group->sos_count)) {
 455:lp_solve_5.5/lp_SOS.c ****     report(lp, IMPORTANT, "SOS_shift_col: Invalid SOS index %d\n", sosindex);
 456:lp_solve_5.5/lp_SOS.c ****     return(FALSE);
 457:lp_solve_5.5/lp_SOS.c ****   }
 458:lp_solve_5.5/lp_SOS.c ****   else if((column < 1) || (delta == 0)) {
 459:lp_solve_5.5/lp_SOS.c ****     report(lp, IMPORTANT, "SOS_shift_col: Invalid column %d specified with delta %d\n",
 460:lp_solve_5.5/lp_SOS.c ****                           column, delta);
 461:lp_solve_5.5/lp_SOS.c ****     return(FALSE);
 462:lp_solve_5.5/lp_SOS.c ****   }
 463:lp_solve_5.5/lp_SOS.c **** #endif
 464:lp_solve_5.5/lp_SOS.c **** 
 465:lp_solve_5.5/lp_SOS.c ****   if((sosindex == 0) && (group->sos_count == 1))
 3999               		.loc 1 465 0
 4000 19b2 8D89      		ldd r24,Y+21
 4001 19b4 9E89      		ldd r25,Y+22
 4002 19b6 892B      		or r24,r25
 4003 19b8 01F4      		brne .L130
 4004               		.loc 1 465 0 is_stmt 0 discriminator 1
 4005 19ba 8B89      		ldd r24,Y+19
 4006 19bc 9C89      		ldd r25,Y+20
 4007 19be FC01      		movw r30,r24
 4008 19c0 8681      		ldd r24,Z+6
 4009 19c2 9781      		ldd r25,Z+7
 4010 19c4 0197      		sbiw r24,1
 4011 19c6 01F4      		brne .L130
 466:lp_solve_5.5/lp_SOS.c ****     sosindex = 1;
 4012               		.loc 1 466 0 is_stmt 1
 4013 19c8 81E0      		ldi r24,lo8(1)
 4014 19ca 90E0      		ldi r25,0
 4015 19cc 9E8B      		std Y+22,r25
 4016 19ce 8D8B      		std Y+21,r24
 4017               	.L130:
 467:lp_solve_5.5/lp_SOS.c **** 
 468:lp_solve_5.5/lp_SOS.c ****   if(sosindex == 0) {
 4018               		.loc 1 468 0
 4019 19d0 8D89      		ldd r24,Y+21
 4020 19d2 9E89      		ldd r25,Y+22
 4021 19d4 892B      		or r24,r25
 4022 19d6 01F4      		brne .L131
 469:lp_solve_5.5/lp_SOS.c ****     for(i = 1; i <= group->sos_count; i++) {
 4023               		.loc 1 469 0
 4024 19d8 81E0      		ldi r24,lo8(1)
 4025 19da 90E0      		ldi r25,0
 4026 19dc 9A83      		std Y+2,r25
 4027 19de 8983      		std Y+1,r24
 4028 19e0 00C0      		rjmp .L132
 4029               	.L135:
 470:lp_solve_5.5/lp_SOS.c ****       if(!SOS_shift_col(group, i, column, delta, usedmap, forceresort))
 4030               		.loc 1 470 0
 4031 19e2 EB8D      		ldd r30,Y+27
 4032 19e4 FC8D      		ldd r31,Y+28
 4033 19e6 298D      		ldd r18,Y+25
 4034 19e8 3A8D      		ldd r19,Y+26
 4035 19ea 4F89      		ldd r20,Y+23
 4036 19ec 588D      		ldd r21,Y+24
 4037 19ee 6981      		ldd r22,Y+1
 4038 19f0 7A81      		ldd r23,Y+2
 4039 19f2 8B89      		ldd r24,Y+19
 4040 19f4 9C89      		ldd r25,Y+20
 4041 19f6 ED8C      		ldd r14,Y+29
 4042 19f8 8F01      		movw r16,r30
 4043 19fa 0E94 0000 		call SOS_shift_col
 4044 19fe 8823      		tst r24
 4045 1a00 01F4      		brne .L133
 471:lp_solve_5.5/lp_SOS.c ****         return(FALSE);
 4046               		.loc 1 471 0
 4047 1a02 80E0      		ldi r24,0
 4048 1a04 00C0      		rjmp .L134
 4049               	.L133:
 469:lp_solve_5.5/lp_SOS.c ****     for(i = 1; i <= group->sos_count; i++) {
 4050               		.loc 1 469 0 discriminator 2
 4051 1a06 8981      		ldd r24,Y+1
 4052 1a08 9A81      		ldd r25,Y+2
 4053 1a0a 0196      		adiw r24,1
 4054 1a0c 9A83      		std Y+2,r25
 4055 1a0e 8983      		std Y+1,r24
 4056               	.L132:
 469:lp_solve_5.5/lp_SOS.c ****     for(i = 1; i <= group->sos_count; i++) {
 4057               		.loc 1 469 0 is_stmt 0 discriminator 1
 4058 1a10 8B89      		ldd r24,Y+19
 4059 1a12 9C89      		ldd r25,Y+20
 4060 1a14 FC01      		movw r30,r24
 4061 1a16 2681      		ldd r18,Z+6
 4062 1a18 3781      		ldd r19,Z+7
 4063 1a1a 8981      		ldd r24,Y+1
 4064 1a1c 9A81      		ldd r25,Y+2
 4065 1a1e 2817      		cp r18,r24
 4066 1a20 3907      		cpc r19,r25
 4067 1a22 04F4      		brge .L135
 4068 1a24 00C0      		rjmp .L136
 4069               	.L131:
 472:lp_solve_5.5/lp_SOS.c ****     }
 473:lp_solve_5.5/lp_SOS.c ****   }
 474:lp_solve_5.5/lp_SOS.c ****   else {
 475:lp_solve_5.5/lp_SOS.c ****     list = group->sos_list[sosindex-1]->members;
 4070               		.loc 1 475 0 is_stmt 1
 4071 1a26 8B89      		ldd r24,Y+19
 4072 1a28 9C89      		ldd r25,Y+20
 4073 1a2a FC01      		movw r30,r24
 4074 1a2c 2281      		ldd r18,Z+2
 4075 1a2e 3381      		ldd r19,Z+3
 4076 1a30 8D89      		ldd r24,Y+21
 4077 1a32 9E89      		ldd r25,Y+22
 4078 1a34 8150      		subi r24,1
 4079 1a36 9048      		sbci r25,-128
 4080 1a38 880F      		lsl r24
 4081 1a3a 991F      		rol r25
 4082 1a3c 820F      		add r24,r18
 4083 1a3e 931F      		adc r25,r19
 4084 1a40 FC01      		movw r30,r24
 4085 1a42 8081      		ld r24,Z
 4086 1a44 9181      		ldd r25,Z+1
 4087 1a46 FC01      		movw r30,r24
 4088 1a48 8585      		ldd r24,Z+13
 4089 1a4a 9685      		ldd r25,Z+14
 4090 1a4c 9A87      		std Y+10,r25
 4091 1a4e 8987      		std Y+9,r24
 476:lp_solve_5.5/lp_SOS.c ****     weights = group->sos_list[sosindex-1]->weights;
 4092               		.loc 1 476 0
 4093 1a50 8B89      		ldd r24,Y+19
 4094 1a52 9C89      		ldd r25,Y+20
 4095 1a54 FC01      		movw r30,r24
 4096 1a56 2281      		ldd r18,Z+2
 4097 1a58 3381      		ldd r19,Z+3
 4098 1a5a 8D89      		ldd r24,Y+21
 4099 1a5c 9E89      		ldd r25,Y+22
 4100 1a5e 8150      		subi r24,1
 4101 1a60 9048      		sbci r25,-128
 4102 1a62 880F      		lsl r24
 4103 1a64 991F      		rol r25
 4104 1a66 820F      		add r24,r18
 4105 1a68 931F      		adc r25,r19
 4106 1a6a FC01      		movw r30,r24
 4107 1a6c 8081      		ld r24,Z
 4108 1a6e 9181      		ldd r25,Z+1
 4109 1a70 FC01      		movw r30,r24
 4110 1a72 8785      		ldd r24,Z+15
 4111 1a74 9089      		ldd r25,Z+16
 4112 1a76 9C87      		std Y+12,r25
 4113 1a78 8B87      		std Y+11,r24
 477:lp_solve_5.5/lp_SOS.c ****     n = list[0];
 4114               		.loc 1 477 0
 4115 1a7a 8985      		ldd r24,Y+9
 4116 1a7c 9A85      		ldd r25,Y+10
 4117 1a7e FC01      		movw r30,r24
 4118 1a80 8081      		ld r24,Z
 4119 1a82 9181      		ldd r25,Z+1
 4120 1a84 9E87      		std Y+14,r25
 4121 1a86 8D87      		std Y+13,r24
 478:lp_solve_5.5/lp_SOS.c ****     nn = list[n+1];
 4122               		.loc 1 478 0
 4123 1a88 8D85      		ldd r24,Y+13
 4124 1a8a 9E85      		ldd r25,Y+14
 4125 1a8c 0196      		adiw r24,1
 4126 1a8e 880F      		lsl r24
 4127 1a90 991F      		rol r25
 4128 1a92 2985      		ldd r18,Y+9
 4129 1a94 3A85      		ldd r19,Y+10
 4130 1a96 820F      		add r24,r18
 4131 1a98 931F      		adc r25,r19
 4132 1a9a FC01      		movw r30,r24
 4133 1a9c 8081      		ld r24,Z
 4134 1a9e 9181      		ldd r25,Z+1
 4135 1aa0 988B      		std Y+16,r25
 4136 1aa2 8F87      		std Y+15,r24
 479:lp_solve_5.5/lp_SOS.c **** 
 480:lp_solve_5.5/lp_SOS.c ****     /* Case where variable indeces are to be incremented */
 481:lp_solve_5.5/lp_SOS.c ****     if(delta > 0) {
 4137               		.loc 1 481 0
 4138 1aa4 898D      		ldd r24,Y+25
 4139 1aa6 9A8D      		ldd r25,Y+26
 4140 1aa8 1816      		cp __zero_reg__,r24
 4141 1aaa 1906      		cpc __zero_reg__,r25
 4142 1aac 04F4      		brge .L137
 482:lp_solve_5.5/lp_SOS.c ****       for(i = 1; i <= n; i++) {
 4143               		.loc 1 482 0
 4144 1aae 81E0      		ldi r24,lo8(1)
 4145 1ab0 90E0      		ldi r25,0
 4146 1ab2 9A83      		std Y+2,r25
 4147 1ab4 8983      		std Y+1,r24
 4148 1ab6 00C0      		rjmp .L138
 4149               	.L140:
 483:lp_solve_5.5/lp_SOS.c ****         if(list[i] >= column)
 4150               		.loc 1 483 0
 4151 1ab8 8981      		ldd r24,Y+1
 4152 1aba 9A81      		ldd r25,Y+2
 4153 1abc 880F      		lsl r24
 4154 1abe 991F      		rol r25
 4155 1ac0 2985      		ldd r18,Y+9
 4156 1ac2 3A85      		ldd r19,Y+10
 4157 1ac4 820F      		add r24,r18
 4158 1ac6 931F      		adc r25,r19
 4159 1ac8 FC01      		movw r30,r24
 4160 1aca 2081      		ld r18,Z
 4161 1acc 3181      		ldd r19,Z+1
 4162 1ace 8F89      		ldd r24,Y+23
 4163 1ad0 988D      		ldd r25,Y+24
 4164 1ad2 2817      		cp r18,r24
 4165 1ad4 3907      		cpc r19,r25
 4166 1ad6 04F0      		brlt .L139
 484:lp_solve_5.5/lp_SOS.c ****           list[i] += delta;
 4167               		.loc 1 484 0
 4168 1ad8 8981      		ldd r24,Y+1
 4169 1ada 9A81      		ldd r25,Y+2
 4170 1adc 880F      		lsl r24
 4171 1ade 991F      		rol r25
 4172 1ae0 2985      		ldd r18,Y+9
 4173 1ae2 3A85      		ldd r19,Y+10
 4174 1ae4 820F      		add r24,r18
 4175 1ae6 931F      		adc r25,r19
 4176 1ae8 2981      		ldd r18,Y+1
 4177 1aea 3A81      		ldd r19,Y+2
 4178 1aec 220F      		lsl r18
 4179 1aee 331F      		rol r19
 4180 1af0 4985      		ldd r20,Y+9
 4181 1af2 5A85      		ldd r21,Y+10
 4182 1af4 240F      		add r18,r20
 4183 1af6 351F      		adc r19,r21
 4184 1af8 F901      		movw r30,r18
 4185 1afa 4081      		ld r20,Z
 4186 1afc 5181      		ldd r21,Z+1
 4187 1afe 298D      		ldd r18,Y+25
 4188 1b00 3A8D      		ldd r19,Y+26
 4189 1b02 240F      		add r18,r20
 4190 1b04 351F      		adc r19,r21
 4191 1b06 FC01      		movw r30,r24
 4192 1b08 3183      		std Z+1,r19
 4193 1b0a 2083      		st Z,r18
 4194               	.L139:
 482:lp_solve_5.5/lp_SOS.c ****       for(i = 1; i <= n; i++) {
 4195               		.loc 1 482 0 discriminator 2
 4196 1b0c 8981      		ldd r24,Y+1
 4197 1b0e 9A81      		ldd r25,Y+2
 4198 1b10 0196      		adiw r24,1
 4199 1b12 9A83      		std Y+2,r25
 4200 1b14 8983      		std Y+1,r24
 4201               	.L138:
 482:lp_solve_5.5/lp_SOS.c ****       for(i = 1; i <= n; i++) {
 4202               		.loc 1 482 0 is_stmt 0 discriminator 1
 4203 1b16 2981      		ldd r18,Y+1
 4204 1b18 3A81      		ldd r19,Y+2
 4205 1b1a 8D85      		ldd r24,Y+13
 4206 1b1c 9E85      		ldd r25,Y+14
 4207 1b1e 8217      		cp r24,r18
 4208 1b20 9307      		cpc r25,r19
 4209 1b22 04F4      		brge .L140
 4210 1b24 00C0      		rjmp .L136
 4211               	.L137:
 485:lp_solve_5.5/lp_SOS.c ****       }
 486:lp_solve_5.5/lp_SOS.c ****     }
 487:lp_solve_5.5/lp_SOS.c ****     /* Case where variables are to be deleted/indeces decremented */
 488:lp_solve_5.5/lp_SOS.c ****     else {
 489:lp_solve_5.5/lp_SOS.c ****       changed = 0;
 4212               		.loc 1 489 0 is_stmt 1
 4213 1b26 1886      		std Y+8,__zero_reg__
 4214 1b28 1F82      		std Y+7,__zero_reg__
 490:lp_solve_5.5/lp_SOS.c ****       if(usedmap != NULL) {
 4215               		.loc 1 490 0
 4216 1b2a 8B8D      		ldd r24,Y+27
 4217 1b2c 9C8D      		ldd r25,Y+28
 4218 1b2e 892B      		or r24,r25
 4219 1b30 01F4      		brne .+2
 4220 1b32 00C0      		rjmp .L141
 4221               	.LBB2:
 491:lp_solve_5.5/lp_SOS.c ****         int *newidx = NULL;
 4222               		.loc 1 491 0
 4223 1b34 1A8A      		std Y+18,__zero_reg__
 4224 1b36 198A      		std Y+17,__zero_reg__
 492:lp_solve_5.5/lp_SOS.c ****         /* Defer creation of index mapper until we are sure that a
 493:lp_solve_5.5/lp_SOS.c ****            member of this SOS is actually targeted for deletion */
 494:lp_solve_5.5/lp_SOS.c ****         if(newidx == NULL) {
 4225               		.loc 1 494 0
 4226 1b38 8989      		ldd r24,Y+17
 4227 1b3a 9A89      		ldd r25,Y+18
 4228 1b3c 892B      		or r24,r25
 4229 1b3e 01F0      		breq .+2
 4230 1b40 00C0      		rjmp .L142
 495:lp_solve_5.5/lp_SOS.c ****           allocINT(group->lp, &newidx, group->lp->columns+1, TRUE);
 4231               		.loc 1 495 0
 4232 1b42 8B89      		ldd r24,Y+19
 4233 1b44 9C89      		ldd r25,Y+20
 4234 1b46 FC01      		movw r30,r24
 4235 1b48 8081      		ld r24,Z
 4236 1b4a 9181      		ldd r25,Z+1
 4237 1b4c 8451      		subi r24,20
 4238 1b4e 9E4F      		sbci r25,-2
 4239 1b50 FC01      		movw r30,r24
 4240 1b52 8081      		ld r24,Z
 4241 1b54 9181      		ldd r25,Z+1
 4242 1b56 AC01      		movw r20,r24
 4243 1b58 4F5F      		subi r20,-1
 4244 1b5a 5F4F      		sbci r21,-1
 4245 1b5c 8B89      		ldd r24,Y+19
 4246 1b5e 9C89      		ldd r25,Y+20
 4247 1b60 FC01      		movw r30,r24
 4248 1b62 8081      		ld r24,Z
 4249 1b64 9181      		ldd r25,Z+1
 4250 1b66 BE01      		movw r22,r28
 4251 1b68 6F5E      		subi r22,-17
 4252 1b6a 7F4F      		sbci r23,-1
 4253 1b6c 21E0      		ldi r18,lo8(1)
 4254 1b6e 0E94 0000 		call allocINT
 496:lp_solve_5.5/lp_SOS.c ****           for(i = firstActiveLink(usedmap), ii = 1; i != 0;
 4255               		.loc 1 496 0
 4256 1b72 8B8D      		ldd r24,Y+27
 4257 1b74 9C8D      		ldd r25,Y+28
 4258 1b76 0E94 0000 		call firstActiveLink
 4259 1b7a 9A83      		std Y+2,r25
 4260 1b7c 8983      		std Y+1,r24
 4261 1b7e 81E0      		ldi r24,lo8(1)
 4262 1b80 90E0      		ldi r25,0
 4263 1b82 9C83      		std Y+4,r25
 4264 1b84 8B83      		std Y+3,r24
 4265 1b86 00C0      		rjmp .L143
 4266               	.L144:
 497:lp_solve_5.5/lp_SOS.c ****               i = nextActiveLink(usedmap, i), ii++)
 498:lp_solve_5.5/lp_SOS.c ****             newidx[i] = ii;
 4267               		.loc 1 498 0
 4268 1b88 2989      		ldd r18,Y+17
 4269 1b8a 3A89      		ldd r19,Y+18
 4270 1b8c 8981      		ldd r24,Y+1
 4271 1b8e 9A81      		ldd r25,Y+2
 4272 1b90 880F      		lsl r24
 4273 1b92 991F      		rol r25
 4274 1b94 820F      		add r24,r18
 4275 1b96 931F      		adc r25,r19
 4276 1b98 2B81      		ldd r18,Y+3
 4277 1b9a 3C81      		ldd r19,Y+4
 4278 1b9c FC01      		movw r30,r24
 4279 1b9e 3183      		std Z+1,r19
 4280 1ba0 2083      		st Z,r18
 497:lp_solve_5.5/lp_SOS.c ****               i = nextActiveLink(usedmap, i), ii++)
 4281               		.loc 1 497 0
 4282 1ba2 2981      		ldd r18,Y+1
 4283 1ba4 3A81      		ldd r19,Y+2
 4284 1ba6 8B8D      		ldd r24,Y+27
 4285 1ba8 9C8D      		ldd r25,Y+28
 4286 1baa B901      		movw r22,r18
 4287 1bac 0E94 0000 		call nextActiveLink
 4288 1bb0 9A83      		std Y+2,r25
 4289 1bb2 8983      		std Y+1,r24
 4290 1bb4 8B81      		ldd r24,Y+3
 4291 1bb6 9C81      		ldd r25,Y+4
 4292 1bb8 0196      		adiw r24,1
 4293 1bba 9C83      		std Y+4,r25
 4294 1bbc 8B83      		std Y+3,r24
 4295               	.L143:
 496:lp_solve_5.5/lp_SOS.c ****           for(i = firstActiveLink(usedmap), ii = 1; i != 0;
 4296               		.loc 1 496 0 discriminator 1
 4297 1bbe 8981      		ldd r24,Y+1
 4298 1bc0 9A81      		ldd r25,Y+2
 4299 1bc2 892B      		or r24,r25
 4300 1bc4 01F4      		brne .L144
 4301               	.L142:
 499:lp_solve_5.5/lp_SOS.c ****         }
 500:lp_solve_5.5/lp_SOS.c ****         for(i = 1, ii = 0; i <= n; i++) {
 4302               		.loc 1 500 0
 4303 1bc6 81E0      		ldi r24,lo8(1)
 4304 1bc8 90E0      		ldi r25,0
 4305 1bca 9A83      		std Y+2,r25
 4306 1bcc 8983      		std Y+1,r24
 4307 1bce 1C82      		std Y+4,__zero_reg__
 4308 1bd0 1B82      		std Y+3,__zero_reg__
 4309 1bd2 00C0      		rjmp .L145
 4310               	.L148:
 501:lp_solve_5.5/lp_SOS.c ****           nr = list[i];
 4311               		.loc 1 501 0
 4312 1bd4 8981      		ldd r24,Y+1
 4313 1bd6 9A81      		ldd r25,Y+2
 4314 1bd8 880F      		lsl r24
 4315 1bda 991F      		rol r25
 4316 1bdc 2985      		ldd r18,Y+9
 4317 1bde 3A85      		ldd r19,Y+10
 4318 1be0 820F      		add r24,r18
 4319 1be2 931F      		adc r25,r19
 4320 1be4 FC01      		movw r30,r24
 4321 1be6 8081      		ld r24,Z
 4322 1be8 9181      		ldd r25,Z+1
 4323 1bea 9E83      		std Y+6,r25
 4324 1bec 8D83      		std Y+5,r24
 502:lp_solve_5.5/lp_SOS.c ****           /* Check if this SOS variable should be deleted */
 503:lp_solve_5.5/lp_SOS.c ****           if(!isActiveLink(usedmap, nr))
 4325               		.loc 1 503 0
 4326 1bee 2D81      		ldd r18,Y+5
 4327 1bf0 3E81      		ldd r19,Y+6
 4328 1bf2 8B8D      		ldd r24,Y+27
 4329 1bf4 9C8D      		ldd r25,Y+28
 4330 1bf6 B901      		movw r22,r18
 4331 1bf8 0E94 0000 		call isActiveLink
 4332 1bfc 8823      		tst r24
 4333 1bfe 01F4      		brne .+2
 4334 1c00 00C0      		rjmp .L158
 504:lp_solve_5.5/lp_SOS.c ****             continue;
 505:lp_solve_5.5/lp_SOS.c **** 
 506:lp_solve_5.5/lp_SOS.c ****           /* If the index is "high" then make adjustment and shift */
 507:lp_solve_5.5/lp_SOS.c ****           changed++;
 4335               		.loc 1 507 0
 4336 1c02 8F81      		ldd r24,Y+7
 4337 1c04 9885      		ldd r25,Y+8
 4338 1c06 0196      		adiw r24,1
 4339 1c08 9887      		std Y+8,r25
 4340 1c0a 8F83      		std Y+7,r24
 508:lp_solve_5.5/lp_SOS.c ****           ii++;
 4341               		.loc 1 508 0
 4342 1c0c 8B81      		ldd r24,Y+3
 4343 1c0e 9C81      		ldd r25,Y+4
 4344 1c10 0196      		adiw r24,1
 4345 1c12 9C83      		std Y+4,r25
 4346 1c14 8B83      		std Y+3,r24
 509:lp_solve_5.5/lp_SOS.c ****           list[ii] = newidx[nr];
 4347               		.loc 1 509 0
 4348 1c16 8B81      		ldd r24,Y+3
 4349 1c18 9C81      		ldd r25,Y+4
 4350 1c1a 880F      		lsl r24
 4351 1c1c 991F      		rol r25
 4352 1c1e 2985      		ldd r18,Y+9
 4353 1c20 3A85      		ldd r19,Y+10
 4354 1c22 820F      		add r24,r18
 4355 1c24 931F      		adc r25,r19
 4356 1c26 4989      		ldd r20,Y+17
 4357 1c28 5A89      		ldd r21,Y+18
 4358 1c2a 2D81      		ldd r18,Y+5
 4359 1c2c 3E81      		ldd r19,Y+6
 4360 1c2e 220F      		lsl r18
 4361 1c30 331F      		rol r19
 4362 1c32 240F      		add r18,r20
 4363 1c34 351F      		adc r19,r21
 4364 1c36 F901      		movw r30,r18
 4365 1c38 2081      		ld r18,Z
 4366 1c3a 3181      		ldd r19,Z+1
 4367 1c3c FC01      		movw r30,r24
 4368 1c3e 3183      		std Z+1,r19
 4369 1c40 2083      		st Z,r18
 510:lp_solve_5.5/lp_SOS.c ****           weights[ii] = weights[i];
 4370               		.loc 1 510 0
 4371 1c42 8B81      		ldd r24,Y+3
 4372 1c44 9C81      		ldd r25,Y+4
 4373 1c46 880F      		lsl r24
 4374 1c48 991F      		rol r25
 4375 1c4a 880F      		lsl r24
 4376 1c4c 991F      		rol r25
 4377 1c4e 2B85      		ldd r18,Y+11
 4378 1c50 3C85      		ldd r19,Y+12
 4379 1c52 280F      		add r18,r24
 4380 1c54 391F      		adc r19,r25
 4381 1c56 8981      		ldd r24,Y+1
 4382 1c58 9A81      		ldd r25,Y+2
 4383 1c5a 880F      		lsl r24
 4384 1c5c 991F      		rol r25
 4385 1c5e 880F      		lsl r24
 4386 1c60 991F      		rol r25
 4387 1c62 4B85      		ldd r20,Y+11
 4388 1c64 5C85      		ldd r21,Y+12
 4389 1c66 840F      		add r24,r20
 4390 1c68 951F      		adc r25,r21
 4391 1c6a FC01      		movw r30,r24
 4392 1c6c 8081      		ld r24,Z
 4393 1c6e 9181      		ldd r25,Z+1
 4394 1c70 A281      		ldd r26,Z+2
 4395 1c72 B381      		ldd r27,Z+3
 4396 1c74 F901      		movw r30,r18
 4397 1c76 8083      		st Z,r24
 4398 1c78 9183      		std Z+1,r25
 4399 1c7a A283      		std Z+2,r26
 4400 1c7c B383      		std Z+3,r27
 4401 1c7e 00C0      		rjmp .L147
 4402               	.L158:
 504:lp_solve_5.5/lp_SOS.c **** 
 4403               		.loc 1 504 0
 4404 1c80 0000      		nop
 4405               	.L147:
 500:lp_solve_5.5/lp_SOS.c ****           nr = list[i];
 4406               		.loc 1 500 0 discriminator 2
 4407 1c82 8981      		ldd r24,Y+1
 4408 1c84 9A81      		ldd r25,Y+2
 4409 1c86 0196      		adiw r24,1
 4410 1c88 9A83      		std Y+2,r25
 4411 1c8a 8983      		std Y+1,r24
 4412               	.L145:
 500:lp_solve_5.5/lp_SOS.c ****           nr = list[i];
 4413               		.loc 1 500 0 is_stmt 0 discriminator 1
 4414 1c8c 2981      		ldd r18,Y+1
 4415 1c8e 3A81      		ldd r19,Y+2
 4416 1c90 8D85      		ldd r24,Y+13
 4417 1c92 9E85      		ldd r25,Y+14
 4418 1c94 8217      		cp r24,r18
 4419 1c96 9307      		cpc r25,r19
 4420 1c98 04F0      		brlt .+2
 4421 1c9a 00C0      		rjmp .L148
 511:lp_solve_5.5/lp_SOS.c ****         }
 512:lp_solve_5.5/lp_SOS.c ****         FREE(newidx);
 4422               		.loc 1 512 0 is_stmt 1
 4423 1c9c 8989      		ldd r24,Y+17
 4424 1c9e 9A89      		ldd r25,Y+18
 4425 1ca0 892B      		or r24,r25
 4426 1ca2 01F4      		brne .+2
 4427 1ca4 00C0      		rjmp .L150
 4428               		.loc 1 512 0 is_stmt 0 discriminator 1
 4429 1ca6 8989      		ldd r24,Y+17
 4430 1ca8 9A89      		ldd r25,Y+18
 4431 1caa 0E94 0000 		call free
 4432 1cae 1A8A      		std Y+18,__zero_reg__
 4433 1cb0 198A      		std Y+17,__zero_reg__
 4434 1cb2 00C0      		rjmp .L150
 4435               	.L141:
 4436               	.LBE2:
 513:lp_solve_5.5/lp_SOS.c ****       }
 514:lp_solve_5.5/lp_SOS.c ****       else
 515:lp_solve_5.5/lp_SOS.c ****         for(i = 1, ii = 0; i <= n; i++) {
 4437               		.loc 1 515 0 is_stmt 1
 4438 1cb4 81E0      		ldi r24,lo8(1)
 4439 1cb6 90E0      		ldi r25,0
 4440 1cb8 9A83      		std Y+2,r25
 4441 1cba 8983      		std Y+1,r24
 4442 1cbc 1C82      		std Y+4,__zero_reg__
 4443 1cbe 1B82      		std Y+3,__zero_reg__
 4444 1cc0 00C0      		rjmp .L151
 4445               	.L155:
 516:lp_solve_5.5/lp_SOS.c ****           nr = list[i];
 4446               		.loc 1 516 0
 4447 1cc2 8981      		ldd r24,Y+1
 4448 1cc4 9A81      		ldd r25,Y+2
 4449 1cc6 880F      		lsl r24
 4450 1cc8 991F      		rol r25
 4451 1cca 2985      		ldd r18,Y+9
 4452 1ccc 3A85      		ldd r19,Y+10
 4453 1cce 820F      		add r24,r18
 4454 1cd0 931F      		adc r25,r19
 4455 1cd2 FC01      		movw r30,r24
 4456 1cd4 8081      		ld r24,Z
 4457 1cd6 9181      		ldd r25,Z+1
 4458 1cd8 9E83      		std Y+6,r25
 4459 1cda 8D83      		std Y+5,r24
 517:lp_solve_5.5/lp_SOS.c ****           /* Check if this SOS variable should be deleted */
 518:lp_solve_5.5/lp_SOS.c ****           if((nr >= column) && (nr < column-delta))
 4460               		.loc 1 518 0
 4461 1cdc 2D81      		ldd r18,Y+5
 4462 1cde 3E81      		ldd r19,Y+6
 4463 1ce0 8F89      		ldd r24,Y+23
 4464 1ce2 988D      		ldd r25,Y+24
 4465 1ce4 2817      		cp r18,r24
 4466 1ce6 3907      		cpc r19,r25
 4467 1ce8 04F0      		brlt .L152
 4468               		.loc 1 518 0 is_stmt 0 discriminator 1
 4469 1cea 2F89      		ldd r18,Y+23
 4470 1cec 388D      		ldd r19,Y+24
 4471 1cee 898D      		ldd r24,Y+25
 4472 1cf0 9A8D      		ldd r25,Y+26
 4473 1cf2 281B      		sub r18,r24
 4474 1cf4 390B      		sbc r19,r25
 4475 1cf6 8D81      		ldd r24,Y+5
 4476 1cf8 9E81      		ldd r25,Y+6
 4477 1cfa 8217      		cp r24,r18
 4478 1cfc 9307      		cpc r25,r19
 4479 1cfe 04F4      		brge .+2
 4480 1d00 00C0      		rjmp .L159
 4481               	.L152:
 519:lp_solve_5.5/lp_SOS.c ****             continue;
 520:lp_solve_5.5/lp_SOS.c ****           /* If the index is "high" then decrement */
 521:lp_solve_5.5/lp_SOS.c ****           if(nr > column) {
 4482               		.loc 1 521 0 is_stmt 1
 4483 1d02 2D81      		ldd r18,Y+5
 4484 1d04 3E81      		ldd r19,Y+6
 4485 1d06 8F89      		ldd r24,Y+23
 4486 1d08 988D      		ldd r25,Y+24
 4487 1d0a 8217      		cp r24,r18
 4488 1d0c 9307      		cpc r25,r19
 4489 1d0e 04F4      		brge .L154
 522:lp_solve_5.5/lp_SOS.c ****             changed++;
 4490               		.loc 1 522 0
 4491 1d10 8F81      		ldd r24,Y+7
 4492 1d12 9885      		ldd r25,Y+8
 4493 1d14 0196      		adiw r24,1
 4494 1d16 9887      		std Y+8,r25
 4495 1d18 8F83      		std Y+7,r24
 523:lp_solve_5.5/lp_SOS.c ****             nr += delta;
 4496               		.loc 1 523 0
 4497 1d1a 2D81      		ldd r18,Y+5
 4498 1d1c 3E81      		ldd r19,Y+6
 4499 1d1e 898D      		ldd r24,Y+25
 4500 1d20 9A8D      		ldd r25,Y+26
 4501 1d22 820F      		add r24,r18
 4502 1d24 931F      		adc r25,r19
 4503 1d26 9E83      		std Y+6,r25
 4504 1d28 8D83      		std Y+5,r24
 4505               	.L154:
 524:lp_solve_5.5/lp_SOS.c ****           }
 525:lp_solve_5.5/lp_SOS.c ****           ii++;
 4506               		.loc 1 525 0
 4507 1d2a 8B81      		ldd r24,Y+3
 4508 1d2c 9C81      		ldd r25,Y+4
 4509 1d2e 0196      		adiw r24,1
 4510 1d30 9C83      		std Y+4,r25
 4511 1d32 8B83      		std Y+3,r24
 526:lp_solve_5.5/lp_SOS.c ****           list[ii] = nr;
 4512               		.loc 1 526 0
 4513 1d34 8B81      		ldd r24,Y+3
 4514 1d36 9C81      		ldd r25,Y+4
 4515 1d38 880F      		lsl r24
 4516 1d3a 991F      		rol r25
 4517 1d3c 2985      		ldd r18,Y+9
 4518 1d3e 3A85      		ldd r19,Y+10
 4519 1d40 820F      		add r24,r18
 4520 1d42 931F      		adc r25,r19
 4521 1d44 2D81      		ldd r18,Y+5
 4522 1d46 3E81      		ldd r19,Y+6
 4523 1d48 FC01      		movw r30,r24
 4524 1d4a 3183      		std Z+1,r19
 4525 1d4c 2083      		st Z,r18
 527:lp_solve_5.5/lp_SOS.c ****           weights[ii] = weights[i];
 4526               		.loc 1 527 0
 4527 1d4e 8B81      		ldd r24,Y+3
 4528 1d50 9C81      		ldd r25,Y+4
 4529 1d52 880F      		lsl r24
 4530 1d54 991F      		rol r25
 4531 1d56 880F      		lsl r24
 4532 1d58 991F      		rol r25
 4533 1d5a 2B85      		ldd r18,Y+11
 4534 1d5c 3C85      		ldd r19,Y+12
 4535 1d5e 280F      		add r18,r24
 4536 1d60 391F      		adc r19,r25
 4537 1d62 8981      		ldd r24,Y+1
 4538 1d64 9A81      		ldd r25,Y+2
 4539 1d66 880F      		lsl r24
 4540 1d68 991F      		rol r25
 4541 1d6a 880F      		lsl r24
 4542 1d6c 991F      		rol r25
 4543 1d6e 4B85      		ldd r20,Y+11
 4544 1d70 5C85      		ldd r21,Y+12
 4545 1d72 840F      		add r24,r20
 4546 1d74 951F      		adc r25,r21
 4547 1d76 FC01      		movw r30,r24
 4548 1d78 8081      		ld r24,Z
 4549 1d7a 9181      		ldd r25,Z+1
 4550 1d7c A281      		ldd r26,Z+2
 4551 1d7e B381      		ldd r27,Z+3
 4552 1d80 F901      		movw r30,r18
 4553 1d82 8083      		st Z,r24
 4554 1d84 9183      		std Z+1,r25
 4555 1d86 A283      		std Z+2,r26
 4556 1d88 B383      		std Z+3,r27
 4557 1d8a 00C0      		rjmp .L153
 4558               	.L159:
 519:lp_solve_5.5/lp_SOS.c ****           /* If the index is "high" then decrement */
 4559               		.loc 1 519 0
 4560 1d8c 0000      		nop
 4561               	.L153:
 515:lp_solve_5.5/lp_SOS.c ****           nr = list[i];
 4562               		.loc 1 515 0 discriminator 2
 4563 1d8e 8981      		ldd r24,Y+1
 4564 1d90 9A81      		ldd r25,Y+2
 4565 1d92 0196      		adiw r24,1
 4566 1d94 9A83      		std Y+2,r25
 4567 1d96 8983      		std Y+1,r24
 4568               	.L151:
 515:lp_solve_5.5/lp_SOS.c ****           nr = list[i];
 4569               		.loc 1 515 0 is_stmt 0 discriminator 1
 4570 1d98 2981      		ldd r18,Y+1
 4571 1d9a 3A81      		ldd r19,Y+2
 4572 1d9c 8D85      		ldd r24,Y+13
 4573 1d9e 9E85      		ldd r25,Y+14
 4574 1da0 8217      		cp r24,r18
 4575 1da2 9307      		cpc r25,r19
 4576 1da4 04F0      		brlt .+2
 4577 1da6 00C0      		rjmp .L155
 4578               	.L150:
 528:lp_solve_5.5/lp_SOS.c ****         }
 529:lp_solve_5.5/lp_SOS.c ****       /* Update the SOS length / type indicators */
 530:lp_solve_5.5/lp_SOS.c ****       if(ii < n) {
 4579               		.loc 1 530 0 is_stmt 1
 4580 1da8 2B81      		ldd r18,Y+3
 4581 1daa 3C81      		ldd r19,Y+4
 4582 1dac 8D85      		ldd r24,Y+13
 4583 1dae 9E85      		ldd r25,Y+14
 4584 1db0 2817      		cp r18,r24
 4585 1db2 3907      		cpc r19,r25
 4586 1db4 04F4      		brge .L156
 531:lp_solve_5.5/lp_SOS.c ****         list[0] = ii;
 4587               		.loc 1 531 0
 4588 1db6 8985      		ldd r24,Y+9
 4589 1db8 9A85      		ldd r25,Y+10
 4590 1dba 2B81      		ldd r18,Y+3
 4591 1dbc 3C81      		ldd r19,Y+4
 4592 1dbe FC01      		movw r30,r24
 4593 1dc0 3183      		std Z+1,r19
 4594 1dc2 2083      		st Z,r18
 532:lp_solve_5.5/lp_SOS.c ****         list[ii+1] = nn;
 4595               		.loc 1 532 0
 4596 1dc4 8B81      		ldd r24,Y+3
 4597 1dc6 9C81      		ldd r25,Y+4
 4598 1dc8 0196      		adiw r24,1
 4599 1dca 880F      		lsl r24
 4600 1dcc 991F      		rol r25
 4601 1dce 2985      		ldd r18,Y+9
 4602 1dd0 3A85      		ldd r19,Y+10
 4603 1dd2 820F      		add r24,r18
 4604 1dd4 931F      		adc r25,r19
 4605 1dd6 2F85      		ldd r18,Y+15
 4606 1dd8 3889      		ldd r19,Y+16
 4607 1dda FC01      		movw r30,r24
 4608 1ddc 3183      		std Z+1,r19
 4609 1dde 2083      		st Z,r18
 4610               	.L156:
 533:lp_solve_5.5/lp_SOS.c ****       }
 534:lp_solve_5.5/lp_SOS.c **** 
 535:lp_solve_5.5/lp_SOS.c ****      /* Update mapping arrays to search large SOS's faster */
 536:lp_solve_5.5/lp_SOS.c ****       if(forceresort && ((ii < n) || (changed > 0)))
 4611               		.loc 1 536 0
 4612 1de0 8D8D      		ldd r24,Y+29
 4613 1de2 8823      		tst r24
 4614 1de4 01F0      		breq .L136
 4615               		.loc 1 536 0 is_stmt 0 discriminator 1
 4616 1de6 2B81      		ldd r18,Y+3
 4617 1de8 3C81      		ldd r19,Y+4
 4618 1dea 8D85      		ldd r24,Y+13
 4619 1dec 9E85      		ldd r25,Y+14
 4620 1dee 2817      		cp r18,r24
 4621 1df0 3907      		cpc r19,r25
 4622 1df2 04F0      		brlt .L157
 4623               		.loc 1 536 0 discriminator 2
 4624 1df4 8F81      		ldd r24,Y+7
 4625 1df6 9885      		ldd r25,Y+8
 4626 1df8 1816      		cp __zero_reg__,r24
 4627 1dfa 1906      		cpc __zero_reg__,r25
 4628 1dfc 04F4      		brge .L136
 4629               	.L157:
 537:lp_solve_5.5/lp_SOS.c ****         SOS_member_sortlist(group, sosindex);
 4630               		.loc 1 537 0 is_stmt 1
 4631 1dfe 2D89      		ldd r18,Y+21
 4632 1e00 3E89      		ldd r19,Y+22
 4633 1e02 8B89      		ldd r24,Y+19
 4634 1e04 9C89      		ldd r25,Y+20
 4635 1e06 B901      		movw r22,r18
 4636 1e08 0E94 0000 		call SOS_member_sortlist
 4637               	.L136:
 538:lp_solve_5.5/lp_SOS.c ****     }
 539:lp_solve_5.5/lp_SOS.c **** 
 540:lp_solve_5.5/lp_SOS.c ****   }
 541:lp_solve_5.5/lp_SOS.c ****   return(TRUE);
 4638               		.loc 1 541 0
 4639 1e0c 81E0      		ldi r24,lo8(1)
 4640               	.L134:
 4641               	/* epilogue start */
 542:lp_solve_5.5/lp_SOS.c **** 
 543:lp_solve_5.5/lp_SOS.c **** }
 4642               		.loc 1 543 0
 4643 1e0e 6D96      		adiw r28,29
 4644 1e10 0FB6      		in __tmp_reg__,__SREG__
 4645 1e12 F894      		cli
 4646 1e14 DEBF      		out __SP_H__,r29
 4647 1e16 0FBE      		out __SREG__,__tmp_reg__
 4648 1e18 CDBF      		out __SP_L__,r28
 4649 1e1a DF91      		pop r29
 4650 1e1c CF91      		pop r28
 4651 1e1e 1F91      		pop r17
 4652 1e20 0F91      		pop r16
 4653 1e22 EF90      		pop r14
 4654 1e24 0895      		ret
 4655               		.cfi_endproc
 4656               	.LFE19:
 4658               	.global	SOS_member_count
 4660               	SOS_member_count:
 4661               	.LFB20:
 544:lp_solve_5.5/lp_SOS.c **** 
 545:lp_solve_5.5/lp_SOS.c **** int SOS_member_count(SOSgroup *group, int sosindex)
 546:lp_solve_5.5/lp_SOS.c **** {
 4662               		.loc 1 546 0
 4663               		.cfi_startproc
 4664 1e26 CF93      		push r28
 4665               	.LCFI69:
 4666               		.cfi_def_cfa_offset 3
 4667               		.cfi_offset 28, -2
 4668 1e28 DF93      		push r29
 4669               	.LCFI70:
 4670               		.cfi_def_cfa_offset 4
 4671               		.cfi_offset 29, -3
 4672 1e2a 00D0      		rcall .
 4673 1e2c 00D0      		rcall .
 4674 1e2e 00D0      		rcall .
 4675               	.LCFI71:
 4676               		.cfi_def_cfa_offset 10
 4677 1e30 CDB7      		in r28,__SP_L__
 4678 1e32 DEB7      		in r29,__SP_H__
 4679               	.LCFI72:
 4680               		.cfi_def_cfa_register 28
 4681               	/* prologue: function */
 4682               	/* frame size = 6 */
 4683               	/* stack size = 8 */
 4684               	.L__stack_usage = 8
 4685 1e34 9C83      		std Y+4,r25
 4686 1e36 8B83      		std Y+3,r24
 4687 1e38 7E83      		std Y+6,r23
 4688 1e3a 6D83      		std Y+5,r22
 547:lp_solve_5.5/lp_SOS.c ****   SOSrec *SOS;
 548:lp_solve_5.5/lp_SOS.c **** 
 549:lp_solve_5.5/lp_SOS.c **** #ifdef Paranoia
 550:lp_solve_5.5/lp_SOS.c ****   if((sosindex < 0) || (sosindex > group->sos_count)) {
 551:lp_solve_5.5/lp_SOS.c ****     report(group->lp, IMPORTANT, "SOS_member_count: Invalid SOS index %d\n", sosindex);
 552:lp_solve_5.5/lp_SOS.c ****     return( -1 );
 553:lp_solve_5.5/lp_SOS.c ****   }
 554:lp_solve_5.5/lp_SOS.c **** #endif
 555:lp_solve_5.5/lp_SOS.c ****   SOS = group->sos_list[sosindex-1];
 4689               		.loc 1 555 0
 4690 1e3c 8B81      		ldd r24,Y+3
 4691 1e3e 9C81      		ldd r25,Y+4
 4692 1e40 FC01      		movw r30,r24
 4693 1e42 2281      		ldd r18,Z+2
 4694 1e44 3381      		ldd r19,Z+3
 4695 1e46 8D81      		ldd r24,Y+5
 4696 1e48 9E81      		ldd r25,Y+6
 4697 1e4a 8150      		subi r24,1
 4698 1e4c 9048      		sbci r25,-128
 4699 1e4e 880F      		lsl r24
 4700 1e50 991F      		rol r25
 4701 1e52 820F      		add r24,r18
 4702 1e54 931F      		adc r25,r19
 4703 1e56 FC01      		movw r30,r24
 4704 1e58 8081      		ld r24,Z
 4705 1e5a 9181      		ldd r25,Z+1
 4706 1e5c 9A83      		std Y+2,r25
 4707 1e5e 8983      		std Y+1,r24
 556:lp_solve_5.5/lp_SOS.c ****   return( SOS->members[0] );
 4708               		.loc 1 556 0
 4709 1e60 8981      		ldd r24,Y+1
 4710 1e62 9A81      		ldd r25,Y+2
 4711 1e64 FC01      		movw r30,r24
 4712 1e66 8585      		ldd r24,Z+13
 4713 1e68 9685      		ldd r25,Z+14
 4714 1e6a FC01      		movw r30,r24
 4715 1e6c 8081      		ld r24,Z
 4716 1e6e 9181      		ldd r25,Z+1
 4717               	/* epilogue start */
 557:lp_solve_5.5/lp_SOS.c **** }
 4718               		.loc 1 557 0
 4719 1e70 2696      		adiw r28,6
 4720 1e72 0FB6      		in __tmp_reg__,__SREG__
 4721 1e74 F894      		cli
 4722 1e76 DEBF      		out __SP_H__,r29
 4723 1e78 0FBE      		out __SREG__,__tmp_reg__
 4724 1e7a CDBF      		out __SP_L__,r28
 4725 1e7c DF91      		pop r29
 4726 1e7e CF91      		pop r28
 4727 1e80 0895      		ret
 4728               		.cfi_endproc
 4729               	.LFE20:
 4731               	.global	SOS_member_delete
 4733               	SOS_member_delete:
 4734               	.LFB21:
 558:lp_solve_5.5/lp_SOS.c **** 
 559:lp_solve_5.5/lp_SOS.c **** int SOS_member_delete(SOSgroup *group, int sosindex, int member)
 560:lp_solve_5.5/lp_SOS.c **** {
 4735               		.loc 1 560 0
 4736               		.cfi_startproc
 4737 1e82 CF93      		push r28
 4738               	.LCFI73:
 4739               		.cfi_def_cfa_offset 3
 4740               		.cfi_offset 28, -2
 4741 1e84 DF93      		push r29
 4742               	.LCFI74:
 4743               		.cfi_def_cfa_offset 4
 4744               		.cfi_offset 29, -3
 4745 1e86 CDB7      		in r28,__SP_L__
 4746 1e88 DEB7      		in r29,__SP_H__
 4747               	.LCFI75:
 4748               		.cfi_def_cfa_register 28
 4749 1e8a 6697      		sbiw r28,22
 4750               	.LCFI76:
 4751               		.cfi_def_cfa_offset 26
 4752 1e8c 0FB6      		in __tmp_reg__,__SREG__
 4753 1e8e F894      		cli
 4754 1e90 DEBF      		out __SP_H__,r29
 4755 1e92 0FBE      		out __SREG__,__tmp_reg__
 4756 1e94 CDBF      		out __SP_L__,r28
 4757               	/* prologue: function */
 4758               	/* frame size = 22 */
 4759               	/* stack size = 24 */
 4760               	.L__stack_usage = 24
 4761 1e96 9A8B      		std Y+18,r25
 4762 1e98 898B      		std Y+17,r24
 4763 1e9a 7C8B      		std Y+20,r23
 4764 1e9c 6B8B      		std Y+19,r22
 4765 1e9e 5E8B      		std Y+22,r21
 4766 1ea0 4D8B      		std Y+21,r20
 561:lp_solve_5.5/lp_SOS.c ****   int   *list, i, i2, k, n, nn = 0;
 4767               		.loc 1 561 0
 4768 1ea2 1E82      		std Y+6,__zero_reg__
 4769 1ea4 1D82      		std Y+5,__zero_reg__
 562:lp_solve_5.5/lp_SOS.c ****   SOSrec *SOS;
 563:lp_solve_5.5/lp_SOS.c ****   lprec  *lp = group->lp;
 4770               		.loc 1 563 0
 4771 1ea6 8989      		ldd r24,Y+17
 4772 1ea8 9A89      		ldd r25,Y+18
 4773 1eaa FC01      		movw r30,r24
 4774 1eac 8081      		ld r24,Z
 4775 1eae 9181      		ldd r25,Z+1
 4776 1eb0 9887      		std Y+8,r25
 4777 1eb2 8F83      		std Y+7,r24
 564:lp_solve_5.5/lp_SOS.c **** 
 565:lp_solve_5.5/lp_SOS.c **** #ifdef Paranoia
 566:lp_solve_5.5/lp_SOS.c ****   if((sosindex < 0) || (sosindex > group->sos_count)) {
 567:lp_solve_5.5/lp_SOS.c ****     report(group->lp, IMPORTANT, "SOS_member_delete: Invalid SOS index %d\n", sosindex);
 568:lp_solve_5.5/lp_SOS.c ****     return( -1 );
 569:lp_solve_5.5/lp_SOS.c ****   }
 570:lp_solve_5.5/lp_SOS.c **** #endif
 571:lp_solve_5.5/lp_SOS.c **** 
 572:lp_solve_5.5/lp_SOS.c ****   if(sosindex == 0) {
 4778               		.loc 1 572 0
 4779 1eb4 8B89      		ldd r24,Y+19
 4780 1eb6 9C89      		ldd r25,Y+20
 4781 1eb8 892B      		or r24,r25
 4782 1eba 01F0      		breq .+2
 4783 1ebc 00C0      		rjmp .L163
 573:lp_solve_5.5/lp_SOS.c ****     for(i = group->memberpos[member-1]; i < group->memberpos[member]; i++) {
 4784               		.loc 1 573 0
 4785 1ebe 8989      		ldd r24,Y+17
 4786 1ec0 9A89      		ldd r25,Y+18
 4787 1ec2 FC01      		movw r30,r24
 4788 1ec4 2685      		ldd r18,Z+14
 4789 1ec6 3785      		ldd r19,Z+15
 4790 1ec8 8D89      		ldd r24,Y+21
 4791 1eca 9E89      		ldd r25,Y+22
 4792 1ecc 8150      		subi r24,1
 4793 1ece 9048      		sbci r25,-128
 4794 1ed0 880F      		lsl r24
 4795 1ed2 991F      		rol r25
 4796 1ed4 820F      		add r24,r18
 4797 1ed6 931F      		adc r25,r19
 4798 1ed8 FC01      		movw r30,r24
 4799 1eda 8081      		ld r24,Z
 4800 1edc 9181      		ldd r25,Z+1
 4801 1ede 9A83      		std Y+2,r25
 4802 1ee0 8983      		std Y+1,r24
 4803 1ee2 00C0      		rjmp .L164
 4804               	.L168:
 574:lp_solve_5.5/lp_SOS.c ****       k = group->membership[i];
 4805               		.loc 1 574 0
 4806 1ee4 8989      		ldd r24,Y+17
 4807 1ee6 9A89      		ldd r25,Y+18
 4808 1ee8 FC01      		movw r30,r24
 4809 1eea 2485      		ldd r18,Z+12
 4810 1eec 3585      		ldd r19,Z+13
 4811 1eee 8981      		ldd r24,Y+1
 4812 1ef0 9A81      		ldd r25,Y+2
 4813 1ef2 880F      		lsl r24
 4814 1ef4 991F      		rol r25
 4815 1ef6 820F      		add r24,r18
 4816 1ef8 931F      		adc r25,r19
 4817 1efa FC01      		movw r30,r24
 4818 1efc 8081      		ld r24,Z
 4819 1efe 9181      		ldd r25,Z+1
 4820 1f00 9C83      		std Y+4,r25
 4821 1f02 8B83      		std Y+3,r24
 575:lp_solve_5.5/lp_SOS.c ****       n = SOS_member_delete(group, k, member);
 4822               		.loc 1 575 0
 4823 1f04 4D89      		ldd r20,Y+21
 4824 1f06 5E89      		ldd r21,Y+22
 4825 1f08 2B81      		ldd r18,Y+3
 4826 1f0a 3C81      		ldd r19,Y+4
 4827 1f0c 8989      		ldd r24,Y+17
 4828 1f0e 9A89      		ldd r25,Y+18
 4829 1f10 B901      		movw r22,r18
 4830 1f12 0E94 0000 		call SOS_member_delete
 4831 1f16 9A87      		std Y+10,r25
 4832 1f18 8987      		std Y+9,r24
 576:lp_solve_5.5/lp_SOS.c ****       if(n >= 0)
 4833               		.loc 1 576 0
 4834 1f1a 8985      		ldd r24,Y+9
 4835 1f1c 9A85      		ldd r25,Y+10
 4836 1f1e 9923      		tst r25
 4837 1f20 04F0      		brlt .L165
 577:lp_solve_5.5/lp_SOS.c ****         nn += n;
 4838               		.loc 1 577 0
 4839 1f22 2D81      		ldd r18,Y+5
 4840 1f24 3E81      		ldd r19,Y+6
 4841 1f26 8985      		ldd r24,Y+9
 4842 1f28 9A85      		ldd r25,Y+10
 4843 1f2a 820F      		add r24,r18
 4844 1f2c 931F      		adc r25,r19
 4845 1f2e 9E83      		std Y+6,r25
 4846 1f30 8D83      		std Y+5,r24
 4847 1f32 00C0      		rjmp .L184
 4848               	.L165:
 578:lp_solve_5.5/lp_SOS.c ****       else
 579:lp_solve_5.5/lp_SOS.c ****         return( n );
 4849               		.loc 1 579 0
 4850 1f34 8985      		ldd r24,Y+9
 4851 1f36 9A85      		ldd r25,Y+10
 4852 1f38 00C0      		rjmp .L167
 4853               	.L184:
 573:lp_solve_5.5/lp_SOS.c ****       k = group->membership[i];
 4854               		.loc 1 573 0 discriminator 2
 4855 1f3a 8981      		ldd r24,Y+1
 4856 1f3c 9A81      		ldd r25,Y+2
 4857 1f3e 0196      		adiw r24,1
 4858 1f40 9A83      		std Y+2,r25
 4859 1f42 8983      		std Y+1,r24
 4860               	.L164:
 573:lp_solve_5.5/lp_SOS.c ****       k = group->membership[i];
 4861               		.loc 1 573 0 is_stmt 0 discriminator 1
 4862 1f44 8989      		ldd r24,Y+17
 4863 1f46 9A89      		ldd r25,Y+18
 4864 1f48 FC01      		movw r30,r24
 4865 1f4a 2685      		ldd r18,Z+14
 4866 1f4c 3785      		ldd r19,Z+15
 4867 1f4e 8D89      		ldd r24,Y+21
 4868 1f50 9E89      		ldd r25,Y+22
 4869 1f52 880F      		lsl r24
 4870 1f54 991F      		rol r25
 4871 1f56 820F      		add r24,r18
 4872 1f58 931F      		adc r25,r19
 4873 1f5a FC01      		movw r30,r24
 4874 1f5c 2081      		ld r18,Z
 4875 1f5e 3181      		ldd r19,Z+1
 4876 1f60 8981      		ldd r24,Y+1
 4877 1f62 9A81      		ldd r25,Y+2
 4878 1f64 8217      		cp r24,r18
 4879 1f66 9307      		cpc r25,r19
 4880 1f68 04F4      		brge .+2
 4881 1f6a 00C0      		rjmp .L168
 580:lp_solve_5.5/lp_SOS.c ****     }
 581:lp_solve_5.5/lp_SOS.c ****     /* We must update the mapper */
 582:lp_solve_5.5/lp_SOS.c ****     k = group->memberpos[member];
 4882               		.loc 1 582 0 is_stmt 1
 4883 1f6c 8989      		ldd r24,Y+17
 4884 1f6e 9A89      		ldd r25,Y+18
 4885 1f70 FC01      		movw r30,r24
 4886 1f72 2685      		ldd r18,Z+14
 4887 1f74 3785      		ldd r19,Z+15
 4888 1f76 8D89      		ldd r24,Y+21
 4889 1f78 9E89      		ldd r25,Y+22
 4890 1f7a 880F      		lsl r24
 4891 1f7c 991F      		rol r25
 4892 1f7e 820F      		add r24,r18
 4893 1f80 931F      		adc r25,r19
 4894 1f82 FC01      		movw r30,r24
 4895 1f84 8081      		ld r24,Z
 4896 1f86 9181      		ldd r25,Z+1
 4897 1f88 9C83      		std Y+4,r25
 4898 1f8a 8B83      		std Y+3,r24
 583:lp_solve_5.5/lp_SOS.c ****     i = group->memberpos[member-1];
 4899               		.loc 1 583 0
 4900 1f8c 8989      		ldd r24,Y+17
 4901 1f8e 9A89      		ldd r25,Y+18
 4902 1f90 FC01      		movw r30,r24
 4903 1f92 2685      		ldd r18,Z+14
 4904 1f94 3785      		ldd r19,Z+15
 4905 1f96 8D89      		ldd r24,Y+21
 4906 1f98 9E89      		ldd r25,Y+22
 4907 1f9a 8150      		subi r24,1
 4908 1f9c 9048      		sbci r25,-128
 4909 1f9e 880F      		lsl r24
 4910 1fa0 991F      		rol r25
 4911 1fa2 820F      		add r24,r18
 4912 1fa4 931F      		adc r25,r19
 4913 1fa6 FC01      		movw r30,r24
 4914 1fa8 8081      		ld r24,Z
 4915 1faa 9181      		ldd r25,Z+1
 4916 1fac 9A83      		std Y+2,r25
 4917 1fae 8983      		std Y+1,r24
 584:lp_solve_5.5/lp_SOS.c ****     n = group->memberpos[lp->columns] - k;
 4918               		.loc 1 584 0
 4919 1fb0 8989      		ldd r24,Y+17
 4920 1fb2 9A89      		ldd r25,Y+18
 4921 1fb4 FC01      		movw r30,r24
 4922 1fb6 2685      		ldd r18,Z+14
 4923 1fb8 3785      		ldd r19,Z+15
 4924 1fba 8F81      		ldd r24,Y+7
 4925 1fbc 9885      		ldd r25,Y+8
 4926 1fbe 8451      		subi r24,20
 4927 1fc0 9E4F      		sbci r25,-2
 4928 1fc2 FC01      		movw r30,r24
 4929 1fc4 8081      		ld r24,Z
 4930 1fc6 9181      		ldd r25,Z+1
 4931 1fc8 880F      		lsl r24
 4932 1fca 991F      		rol r25
 4933 1fcc 820F      		add r24,r18
 4934 1fce 931F      		adc r25,r19
 4935 1fd0 FC01      		movw r30,r24
 4936 1fd2 2081      		ld r18,Z
 4937 1fd4 3181      		ldd r19,Z+1
 4938 1fd6 8B81      		ldd r24,Y+3
 4939 1fd8 9C81      		ldd r25,Y+4
 4940 1fda A901      		movw r20,r18
 4941 1fdc 481B      		sub r20,r24
 4942 1fde 590B      		sbc r21,r25
 4943 1fe0 CA01      		movw r24,r20
 4944 1fe2 9A87      		std Y+10,r25
 4945 1fe4 8987      		std Y+9,r24
 585:lp_solve_5.5/lp_SOS.c ****     if(n > 0)
 4946               		.loc 1 585 0
 4947 1fe6 8985      		ldd r24,Y+9
 4948 1fe8 9A85      		ldd r25,Y+10
 4949 1fea 1816      		cp __zero_reg__,r24
 4950 1fec 1906      		cpc __zero_reg__,r25
 4951 1fee 04F4      		brge .L169
 586:lp_solve_5.5/lp_SOS.c ****       MEMCOPY(group->membership + i, group->membership + k, n);
 4952               		.loc 1 586 0
 4953 1ff0 8985      		ldd r24,Y+9
 4954 1ff2 9A85      		ldd r25,Y+10
 4955 1ff4 AC01      		movw r20,r24
 4956 1ff6 440F      		lsl r20
 4957 1ff8 551F      		rol r21
 4958 1ffa 8989      		ldd r24,Y+17
 4959 1ffc 9A89      		ldd r25,Y+18
 4960 1ffe FC01      		movw r30,r24
 4961 2000 2485      		ldd r18,Z+12
 4962 2002 3585      		ldd r19,Z+13
 4963 2004 8B81      		ldd r24,Y+3
 4964 2006 9C81      		ldd r25,Y+4
 4965 2008 880F      		lsl r24
 4966 200a 991F      		rol r25
 4967 200c B901      		movw r22,r18
 4968 200e 680F      		add r22,r24
 4969 2010 791F      		adc r23,r25
 4970 2012 8989      		ldd r24,Y+17
 4971 2014 9A89      		ldd r25,Y+18
 4972 2016 FC01      		movw r30,r24
 4973 2018 2485      		ldd r18,Z+12
 4974 201a 3585      		ldd r19,Z+13
 4975 201c 8981      		ldd r24,Y+1
 4976 201e 9A81      		ldd r25,Y+2
 4977 2020 880F      		lsl r24
 4978 2022 991F      		rol r25
 4979 2024 820F      		add r24,r18
 4980 2026 931F      		adc r25,r19
 4981 2028 0E94 0000 		call memcpy
 4982               	.L169:
 587:lp_solve_5.5/lp_SOS.c ****     for(i = member; i <= lp->columns; i++)
 4983               		.loc 1 587 0
 4984 202c 8D89      		ldd r24,Y+21
 4985 202e 9E89      		ldd r25,Y+22
 4986 2030 9A83      		std Y+2,r25
 4987 2032 8983      		std Y+1,r24
 4988 2034 00C0      		rjmp .L170
 4989               	.L171:
 588:lp_solve_5.5/lp_SOS.c ****       group->memberpos[i] = group->memberpos[i-1];
 4990               		.loc 1 588 0 discriminator 3
 4991 2036 8989      		ldd r24,Y+17
 4992 2038 9A89      		ldd r25,Y+18
 4993 203a FC01      		movw r30,r24
 4994 203c 2685      		ldd r18,Z+14
 4995 203e 3785      		ldd r19,Z+15
 4996 2040 8981      		ldd r24,Y+1
 4997 2042 9A81      		ldd r25,Y+2
 4998 2044 880F      		lsl r24
 4999 2046 991F      		rol r25
 5000 2048 820F      		add r24,r18
 5001 204a 931F      		adc r25,r19
 5002 204c 2989      		ldd r18,Y+17
 5003 204e 3A89      		ldd r19,Y+18
 5004 2050 F901      		movw r30,r18
 5005 2052 4685      		ldd r20,Z+14
 5006 2054 5785      		ldd r21,Z+15
 5007 2056 2981      		ldd r18,Y+1
 5008 2058 3A81      		ldd r19,Y+2
 5009 205a 2150      		subi r18,1
 5010 205c 3048      		sbci r19,-128
 5011 205e 220F      		lsl r18
 5012 2060 331F      		rol r19
 5013 2062 240F      		add r18,r20
 5014 2064 351F      		adc r19,r21
 5015 2066 F901      		movw r30,r18
 5016 2068 2081      		ld r18,Z
 5017 206a 3181      		ldd r19,Z+1
 5018 206c FC01      		movw r30,r24
 5019 206e 3183      		std Z+1,r19
 5020 2070 2083      		st Z,r18
 587:lp_solve_5.5/lp_SOS.c ****     for(i = member; i <= lp->columns; i++)
 5021               		.loc 1 587 0 discriminator 3
 5022 2072 8981      		ldd r24,Y+1
 5023 2074 9A81      		ldd r25,Y+2
 5024 2076 0196      		adiw r24,1
 5025 2078 9A83      		std Y+2,r25
 5026 207a 8983      		std Y+1,r24
 5027               	.L170:
 587:lp_solve_5.5/lp_SOS.c ****     for(i = member; i <= lp->columns; i++)
 5028               		.loc 1 587 0 is_stmt 0 discriminator 1
 5029 207c 8F81      		ldd r24,Y+7
 5030 207e 9885      		ldd r25,Y+8
 5031 2080 8451      		subi r24,20
 5032 2082 9E4F      		sbci r25,-2
 5033 2084 FC01      		movw r30,r24
 5034 2086 2081      		ld r18,Z
 5035 2088 3181      		ldd r19,Z+1
 5036 208a 8981      		ldd r24,Y+1
 5037 208c 9A81      		ldd r25,Y+2
 5038 208e 2817      		cp r18,r24
 5039 2090 3907      		cpc r19,r25
 5040 2092 04F4      		brge .L171
 5041 2094 00C0      		rjmp .L172
 5042               	.L163:
 589:lp_solve_5.5/lp_SOS.c ****   }
 590:lp_solve_5.5/lp_SOS.c ****   else {
 591:lp_solve_5.5/lp_SOS.c ****     SOS = group->sos_list[sosindex-1];
 5043               		.loc 1 591 0 is_stmt 1
 5044 2096 8989      		ldd r24,Y+17
 5045 2098 9A89      		ldd r25,Y+18
 5046 209a FC01      		movw r30,r24
 5047 209c 2281      		ldd r18,Z+2
 5048 209e 3381      		ldd r19,Z+3
 5049 20a0 8B89      		ldd r24,Y+19
 5050 20a2 9C89      		ldd r25,Y+20
 5051 20a4 8150      		subi r24,1
 5052 20a6 9048      		sbci r25,-128
 5053 20a8 880F      		lsl r24
 5054 20aa 991F      		rol r25
 5055 20ac 820F      		add r24,r18
 5056 20ae 931F      		adc r25,r19
 5057 20b0 FC01      		movw r30,r24
 5058 20b2 8081      		ld r24,Z
 5059 20b4 9181      		ldd r25,Z+1
 5060 20b6 9C87      		std Y+12,r25
 5061 20b8 8B87      		std Y+11,r24
 592:lp_solve_5.5/lp_SOS.c ****     list = SOS->members;
 5062               		.loc 1 592 0
 5063 20ba 8B85      		ldd r24,Y+11
 5064 20bc 9C85      		ldd r25,Y+12
 5065 20be FC01      		movw r30,r24
 5066 20c0 8585      		ldd r24,Z+13
 5067 20c2 9685      		ldd r25,Z+14
 5068 20c4 9E87      		std Y+14,r25
 5069 20c6 8D87      		std Y+13,r24
 593:lp_solve_5.5/lp_SOS.c ****     n = list[0];
 5070               		.loc 1 593 0
 5071 20c8 8D85      		ldd r24,Y+13
 5072 20ca 9E85      		ldd r25,Y+14
 5073 20cc FC01      		movw r30,r24
 5074 20ce 8081      		ld r24,Z
 5075 20d0 9181      		ldd r25,Z+1
 5076 20d2 9A87      		std Y+10,r25
 5077 20d4 8987      		std Y+9,r24
 594:lp_solve_5.5/lp_SOS.c **** 
 595:lp_solve_5.5/lp_SOS.c ****     /* Find the offset of the member */
 596:lp_solve_5.5/lp_SOS.c ****     i = 1;
 5078               		.loc 1 596 0
 5079 20d6 81E0      		ldi r24,lo8(1)
 5080 20d8 90E0      		ldi r25,0
 5081 20da 9A83      		std Y+2,r25
 5082 20dc 8983      		std Y+1,r24
 597:lp_solve_5.5/lp_SOS.c ****     while((i <= n) && (abs(list[i]) != member))
 5083               		.loc 1 597 0
 5084 20de 00C0      		rjmp .L173
 5085               	.L176:
 598:lp_solve_5.5/lp_SOS.c ****       i++;
 5086               		.loc 1 598 0
 5087 20e0 8981      		ldd r24,Y+1
 5088 20e2 9A81      		ldd r25,Y+2
 5089 20e4 0196      		adiw r24,1
 5090 20e6 9A83      		std Y+2,r25
 5091 20e8 8983      		std Y+1,r24
 5092               	.L173:
 597:lp_solve_5.5/lp_SOS.c ****     while((i <= n) && (abs(list[i]) != member))
 5093               		.loc 1 597 0
 5094 20ea 2981      		ldd r18,Y+1
 5095 20ec 3A81      		ldd r19,Y+2
 5096 20ee 8985      		ldd r24,Y+9
 5097 20f0 9A85      		ldd r25,Y+10
 5098 20f2 8217      		cp r24,r18
 5099 20f4 9307      		cpc r25,r19
 5100 20f6 04F0      		brlt .L174
 597:lp_solve_5.5/lp_SOS.c ****     while((i <= n) && (abs(list[i]) != member))
 5101               		.loc 1 597 0 is_stmt 0 discriminator 1
 5102 20f8 8981      		ldd r24,Y+1
 5103 20fa 9A81      		ldd r25,Y+2
 5104 20fc 880F      		lsl r24
 5105 20fe 991F      		rol r25
 5106 2100 2D85      		ldd r18,Y+13
 5107 2102 3E85      		ldd r19,Y+14
 5108 2104 820F      		add r24,r18
 5109 2106 931F      		adc r25,r19
 5110 2108 FC01      		movw r30,r24
 5111 210a 8081      		ld r24,Z
 5112 210c 9181      		ldd r25,Z+1
 5113 210e 9923      		tst r25
 5114 2110 04F4      		brge .L175
 5115 2112 9195      		neg r25
 5116 2114 8195      		neg r24
 5117 2116 9109      		sbc r25,__zero_reg__
 5118               	.L175:
 5119 2118 9C01      		movw r18,r24
 5120 211a 8D89      		ldd r24,Y+21
 5121 211c 9E89      		ldd r25,Y+22
 5122 211e 2817      		cp r18,r24
 5123 2120 3907      		cpc r19,r25
 5124 2122 01F4      		brne .L176
 5125               	.L174:
 599:lp_solve_5.5/lp_SOS.c ****     if(i > n)
 5126               		.loc 1 599 0 is_stmt 1
 5127 2124 2981      		ldd r18,Y+1
 5128 2126 3A81      		ldd r19,Y+2
 5129 2128 8985      		ldd r24,Y+9
 5130 212a 9A85      		ldd r25,Y+10
 5131 212c 8217      		cp r24,r18
 5132 212e 9307      		cpc r25,r19
 5133 2130 04F4      		brge .L177
 600:lp_solve_5.5/lp_SOS.c ****       return( -1 );
 5134               		.loc 1 600 0
 5135 2132 8FEF      		ldi r24,lo8(-1)
 5136 2134 9FEF      		ldi r25,lo8(-1)
 5137 2136 00C0      		rjmp .L167
 5138               	.L177:
 601:lp_solve_5.5/lp_SOS.c ****     nn++;
 5139               		.loc 1 601 0
 5140 2138 8D81      		ldd r24,Y+5
 5141 213a 9E81      		ldd r25,Y+6
 5142 213c 0196      		adiw r24,1
 5143 213e 9E83      		std Y+6,r25
 5144 2140 8D83      		std Y+5,r24
 602:lp_solve_5.5/lp_SOS.c **** 
 603:lp_solve_5.5/lp_SOS.c ****     /* Shift remaining members *and* the active count one position left */
 604:lp_solve_5.5/lp_SOS.c ****     while(i <= n) {
 5145               		.loc 1 604 0
 5146 2142 00C0      		rjmp .L178
 5147               	.L179:
 605:lp_solve_5.5/lp_SOS.c ****       list[i] = list[i+1];
 5148               		.loc 1 605 0
 5149 2144 8981      		ldd r24,Y+1
 5150 2146 9A81      		ldd r25,Y+2
 5151 2148 880F      		lsl r24
 5152 214a 991F      		rol r25
 5153 214c 2D85      		ldd r18,Y+13
 5154 214e 3E85      		ldd r19,Y+14
 5155 2150 820F      		add r24,r18
 5156 2152 931F      		adc r25,r19
 5157 2154 2981      		ldd r18,Y+1
 5158 2156 3A81      		ldd r19,Y+2
 5159 2158 2F5F      		subi r18,-1
 5160 215a 3F4F      		sbci r19,-1
 5161 215c 220F      		lsl r18
 5162 215e 331F      		rol r19
 5163 2160 4D85      		ldd r20,Y+13
 5164 2162 5E85      		ldd r21,Y+14
 5165 2164 240F      		add r18,r20
 5166 2166 351F      		adc r19,r21
 5167 2168 F901      		movw r30,r18
 5168 216a 2081      		ld r18,Z
 5169 216c 3181      		ldd r19,Z+1
 5170 216e FC01      		movw r30,r24
 5171 2170 3183      		std Z+1,r19
 5172 2172 2083      		st Z,r18
 606:lp_solve_5.5/lp_SOS.c ****       i++;
 5173               		.loc 1 606 0
 5174 2174 8981      		ldd r24,Y+1
 5175 2176 9A81      		ldd r25,Y+2
 5176 2178 0196      		adiw r24,1
 5177 217a 9A83      		std Y+2,r25
 5178 217c 8983      		std Y+1,r24
 5179               	.L178:
 604:lp_solve_5.5/lp_SOS.c ****       list[i] = list[i+1];
 5180               		.loc 1 604 0
 5181 217e 2981      		ldd r18,Y+1
 5182 2180 3A81      		ldd r19,Y+2
 5183 2182 8985      		ldd r24,Y+9
 5184 2184 9A85      		ldd r25,Y+10
 5185 2186 8217      		cp r24,r18
 5186 2188 9307      		cpc r25,r19
 5187 218a 04F4      		brge .L179
 607:lp_solve_5.5/lp_SOS.c ****     }
 608:lp_solve_5.5/lp_SOS.c ****     list[0]--;
 5188               		.loc 1 608 0
 5189 218c 8D85      		ldd r24,Y+13
 5190 218e 9E85      		ldd r25,Y+14
 5191 2190 FC01      		movw r30,r24
 5192 2192 8081      		ld r24,Z
 5193 2194 9181      		ldd r25,Z+1
 5194 2196 9C01      		movw r18,r24
 5195 2198 2150      		subi r18,1
 5196 219a 3109      		sbc r19,__zero_reg__
 5197 219c 8D85      		ldd r24,Y+13
 5198 219e 9E85      		ldd r25,Y+14
 5199 21a0 FC01      		movw r30,r24
 5200 21a2 3183      		std Z+1,r19
 5201 21a4 2083      		st Z,r18
 609:lp_solve_5.5/lp_SOS.c ****     SOS->size--;
 5202               		.loc 1 609 0
 5203 21a6 8B85      		ldd r24,Y+11
 5204 21a8 9C85      		ldd r25,Y+12
 5205 21aa FC01      		movw r30,r24
 5206 21ac 8185      		ldd r24,Z+9
 5207 21ae 9285      		ldd r25,Z+10
 5208 21b0 9C01      		movw r18,r24
 5209 21b2 2150      		subi r18,1
 5210 21b4 3109      		sbc r19,__zero_reg__
 5211 21b6 8B85      		ldd r24,Y+11
 5212 21b8 9C85      		ldd r25,Y+12
 5213 21ba FC01      		movw r30,r24
 5214 21bc 3287      		std Z+10,r19
 5215 21be 2187      		std Z+9,r18
 610:lp_solve_5.5/lp_SOS.c **** 
 611:lp_solve_5.5/lp_SOS.c ****     /* Do the same with the active list one position left */
 612:lp_solve_5.5/lp_SOS.c ****     i = n + 1;
 5216               		.loc 1 612 0
 5217 21c0 8985      		ldd r24,Y+9
 5218 21c2 9A85      		ldd r25,Y+10
 5219 21c4 0196      		adiw r24,1
 5220 21c6 9A83      		std Y+2,r25
 5221 21c8 8983      		std Y+1,r24
 613:lp_solve_5.5/lp_SOS.c ****     i2 = i + list[n];
 5222               		.loc 1 613 0
 5223 21ca 8985      		ldd r24,Y+9
 5224 21cc 9A85      		ldd r25,Y+10
 5225 21ce 880F      		lsl r24
 5226 21d0 991F      		rol r25
 5227 21d2 2D85      		ldd r18,Y+13
 5228 21d4 3E85      		ldd r19,Y+14
 5229 21d6 820F      		add r24,r18
 5230 21d8 931F      		adc r25,r19
 5231 21da FC01      		movw r30,r24
 5232 21dc 2081      		ld r18,Z
 5233 21de 3181      		ldd r19,Z+1
 5234 21e0 8981      		ldd r24,Y+1
 5235 21e2 9A81      		ldd r25,Y+2
 5236 21e4 820F      		add r24,r18
 5237 21e6 931F      		adc r25,r19
 5238 21e8 988B      		std Y+16,r25
 5239 21ea 8F87      		std Y+15,r24
 614:lp_solve_5.5/lp_SOS.c ****     k = i + 1;
 5240               		.loc 1 614 0
 5241 21ec 8981      		ldd r24,Y+1
 5242 21ee 9A81      		ldd r25,Y+2
 5243 21f0 0196      		adiw r24,1
 5244 21f2 9C83      		std Y+4,r25
 5245 21f4 8B83      		std Y+3,r24
 615:lp_solve_5.5/lp_SOS.c ****     while(i < i2) {
 5246               		.loc 1 615 0
 5247 21f6 00C0      		rjmp .L180
 5248               	.L183:
 616:lp_solve_5.5/lp_SOS.c ****       if(abs(list[k]) == member)
 5249               		.loc 1 616 0
 5250 21f8 8B81      		ldd r24,Y+3
 5251 21fa 9C81      		ldd r25,Y+4
 5252 21fc 880F      		lsl r24
 5253 21fe 991F      		rol r25
 5254 2200 2D85      		ldd r18,Y+13
 5255 2202 3E85      		ldd r19,Y+14
 5256 2204 820F      		add r24,r18
 5257 2206 931F      		adc r25,r19
 5258 2208 FC01      		movw r30,r24
 5259 220a 8081      		ld r24,Z
 5260 220c 9181      		ldd r25,Z+1
 5261 220e 9923      		tst r25
 5262 2210 04F4      		brge .L181
 5263 2212 9195      		neg r25
 5264 2214 8195      		neg r24
 5265 2216 9109      		sbc r25,__zero_reg__
 5266               	.L181:
 5267 2218 9C01      		movw r18,r24
 5268 221a 8D89      		ldd r24,Y+21
 5269 221c 9E89      		ldd r25,Y+22
 5270 221e 2817      		cp r18,r24
 5271 2220 3907      		cpc r19,r25
 5272 2222 01F4      		brne .L182
 617:lp_solve_5.5/lp_SOS.c ****         k++;
 5273               		.loc 1 617 0
 5274 2224 8B81      		ldd r24,Y+3
 5275 2226 9C81      		ldd r25,Y+4
 5276 2228 0196      		adiw r24,1
 5277 222a 9C83      		std Y+4,r25
 5278 222c 8B83      		std Y+3,r24
 5279               	.L182:
 618:lp_solve_5.5/lp_SOS.c ****       list[i] = list[k];
 5280               		.loc 1 618 0
 5281 222e 8981      		ldd r24,Y+1
 5282 2230 9A81      		ldd r25,Y+2
 5283 2232 880F      		lsl r24
 5284 2234 991F      		rol r25
 5285 2236 2D85      		ldd r18,Y+13
 5286 2238 3E85      		ldd r19,Y+14
 5287 223a 820F      		add r24,r18
 5288 223c 931F      		adc r25,r19
 5289 223e 2B81      		ldd r18,Y+3
 5290 2240 3C81      		ldd r19,Y+4
 5291 2242 220F      		lsl r18
 5292 2244 331F      		rol r19
 5293 2246 4D85      		ldd r20,Y+13
 5294 2248 5E85      		ldd r21,Y+14
 5295 224a 240F      		add r18,r20
 5296 224c 351F      		adc r19,r21
 5297 224e F901      		movw r30,r18
 5298 2250 2081      		ld r18,Z
 5299 2252 3181      		ldd r19,Z+1
 5300 2254 FC01      		movw r30,r24
 5301 2256 3183      		std Z+1,r19
 5302 2258 2083      		st Z,r18
 619:lp_solve_5.5/lp_SOS.c ****       i++;
 5303               		.loc 1 619 0
 5304 225a 8981      		ldd r24,Y+1
 5305 225c 9A81      		ldd r25,Y+2
 5306 225e 0196      		adiw r24,1
 5307 2260 9A83      		std Y+2,r25
 5308 2262 8983      		std Y+1,r24
 620:lp_solve_5.5/lp_SOS.c ****       k++;
 5309               		.loc 1 620 0
 5310 2264 8B81      		ldd r24,Y+3
 5311 2266 9C81      		ldd r25,Y+4
 5312 2268 0196      		adiw r24,1
 5313 226a 9C83      		std Y+4,r25
 5314 226c 8B83      		std Y+3,r24
 5315               	.L180:
 615:lp_solve_5.5/lp_SOS.c ****       if(abs(list[k]) == member)
 5316               		.loc 1 615 0
 5317 226e 2981      		ldd r18,Y+1
 5318 2270 3A81      		ldd r19,Y+2
 5319 2272 8F85      		ldd r24,Y+15
 5320 2274 9889      		ldd r25,Y+16
 5321 2276 2817      		cp r18,r24
 5322 2278 3907      		cpc r19,r25
 5323 227a 04F4      		brge .+2
 5324 227c 00C0      		rjmp .L183
 5325               	.L172:
 621:lp_solve_5.5/lp_SOS.c ****     }
 622:lp_solve_5.5/lp_SOS.c ****   }
 623:lp_solve_5.5/lp_SOS.c **** 
 624:lp_solve_5.5/lp_SOS.c ****   return( nn );
 5326               		.loc 1 624 0
 5327 227e 8D81      		ldd r24,Y+5
 5328 2280 9E81      		ldd r25,Y+6
 5329               	.L167:
 5330               	/* epilogue start */
 625:lp_solve_5.5/lp_SOS.c **** }
 5331               		.loc 1 625 0
 5332 2282 6696      		adiw r28,22
 5333 2284 0FB6      		in __tmp_reg__,__SREG__
 5334 2286 F894      		cli
 5335 2288 DEBF      		out __SP_H__,r29
 5336 228a 0FBE      		out __SREG__,__tmp_reg__
 5337 228c CDBF      		out __SP_L__,r28
 5338 228e DF91      		pop r29
 5339 2290 CF91      		pop r28
 5340 2292 0895      		ret
 5341               		.cfi_endproc
 5342               	.LFE21:
 5344               	.global	SOS_get_type
 5346               	SOS_get_type:
 5347               	.LFB22:
 626:lp_solve_5.5/lp_SOS.c **** 
 627:lp_solve_5.5/lp_SOS.c **** int SOS_get_type(SOSgroup *group, int sosindex)
 628:lp_solve_5.5/lp_SOS.c **** {
 5348               		.loc 1 628 0
 5349               		.cfi_startproc
 5350 2294 CF93      		push r28
 5351               	.LCFI77:
 5352               		.cfi_def_cfa_offset 3
 5353               		.cfi_offset 28, -2
 5354 2296 DF93      		push r29
 5355               	.LCFI78:
 5356               		.cfi_def_cfa_offset 4
 5357               		.cfi_offset 29, -3
 5358 2298 00D0      		rcall .
 5359 229a 00D0      		rcall .
 5360               	.LCFI79:
 5361               		.cfi_def_cfa_offset 8
 5362 229c CDB7      		in r28,__SP_L__
 5363 229e DEB7      		in r29,__SP_H__
 5364               	.LCFI80:
 5365               		.cfi_def_cfa_register 28
 5366               	/* prologue: function */
 5367               	/* frame size = 4 */
 5368               	/* stack size = 6 */
 5369               	.L__stack_usage = 6
 5370 22a0 9A83      		std Y+2,r25
 5371 22a2 8983      		std Y+1,r24
 5372 22a4 7C83      		std Y+4,r23
 5373 22a6 6B83      		std Y+3,r22
 629:lp_solve_5.5/lp_SOS.c **** #ifdef Paranoia
 630:lp_solve_5.5/lp_SOS.c ****   if((sosindex < 1) || (sosindex > group->sos_count)) {
 631:lp_solve_5.5/lp_SOS.c ****     report(group->lp, IMPORTANT, "SOS_get_type: Invalid SOS index %d\n", sosindex);
 632:lp_solve_5.5/lp_SOS.c ****     return(FALSE);
 633:lp_solve_5.5/lp_SOS.c ****   }
 634:lp_solve_5.5/lp_SOS.c **** #endif
 635:lp_solve_5.5/lp_SOS.c **** 
 636:lp_solve_5.5/lp_SOS.c ****   return(group->sos_list[sosindex-1]->type);
 5374               		.loc 1 636 0
 5375 22a8 8981      		ldd r24,Y+1
 5376 22aa 9A81      		ldd r25,Y+2
 5377 22ac FC01      		movw r30,r24
 5378 22ae 2281      		ldd r18,Z+2
 5379 22b0 3381      		ldd r19,Z+3
 5380 22b2 8B81      		ldd r24,Y+3
 5381 22b4 9C81      		ldd r25,Y+4
 5382 22b6 8150      		subi r24,1
 5383 22b8 9048      		sbci r25,-128
 5384 22ba 880F      		lsl r24
 5385 22bc 991F      		rol r25
 5386 22be 820F      		add r24,r18
 5387 22c0 931F      		adc r25,r19
 5388 22c2 FC01      		movw r30,r24
 5389 22c4 8081      		ld r24,Z
 5390 22c6 9181      		ldd r25,Z+1
 5391 22c8 FC01      		movw r30,r24
 5392 22ca 8681      		ldd r24,Z+6
 5393 22cc 9781      		ldd r25,Z+7
 5394               	/* epilogue start */
 637:lp_solve_5.5/lp_SOS.c **** }
 5395               		.loc 1 637 0
 5396 22ce 0F90      		pop __tmp_reg__
 5397 22d0 0F90      		pop __tmp_reg__
 5398 22d2 0F90      		pop __tmp_reg__
 5399 22d4 0F90      		pop __tmp_reg__
 5400 22d6 DF91      		pop r29
 5401 22d8 CF91      		pop r28
 5402 22da 0895      		ret
 5403               		.cfi_endproc
 5404               	.LFE22:
 5406               	.global	__gtsf2
 5407               	.global	SOS_infeasible
 5409               	SOS_infeasible:
 5410               	.LFB23:
 638:lp_solve_5.5/lp_SOS.c **** 
 639:lp_solve_5.5/lp_SOS.c **** 
 640:lp_solve_5.5/lp_SOS.c **** int SOS_infeasible(SOSgroup *group, int sosindex)
 641:lp_solve_5.5/lp_SOS.c **** {
 5411               		.loc 1 641 0
 5412               		.cfi_startproc
 5413 22dc CF93      		push r28
 5414               	.LCFI81:
 5415               		.cfi_def_cfa_offset 3
 5416               		.cfi_offset 28, -2
 5417 22de DF93      		push r29
 5418               	.LCFI82:
 5419               		.cfi_def_cfa_offset 4
 5420               		.cfi_offset 29, -3
 5421 22e0 CDB7      		in r28,__SP_L__
 5422 22e2 DEB7      		in r29,__SP_H__
 5423               	.LCFI83:
 5424               		.cfi_def_cfa_register 28
 5425 22e4 6297      		sbiw r28,18
 5426               	.LCFI84:
 5427               		.cfi_def_cfa_offset 22
 5428 22e6 0FB6      		in __tmp_reg__,__SREG__
 5429 22e8 F894      		cli
 5430 22ea DEBF      		out __SP_H__,r29
 5431 22ec 0FBE      		out __SREG__,__tmp_reg__
 5432 22ee CDBF      		out __SP_L__,r28
 5433               	/* prologue: function */
 5434               	/* frame size = 18 */
 5435               	/* stack size = 20 */
 5436               	.L__stack_usage = 20
 5437 22f0 988B      		std Y+16,r25
 5438 22f2 8F87      		std Y+15,r24
 5439 22f4 7A8B      		std Y+18,r23
 5440 22f6 698B      		std Y+17,r22
 642:lp_solve_5.5/lp_SOS.c ****   int    i, n, nn, varnr, failindex, *list;
 643:lp_solve_5.5/lp_SOS.c ****   lprec  *lp = group->lp;
 5441               		.loc 1 643 0
 5442 22f8 8F85      		ldd r24,Y+15
 5443 22fa 9889      		ldd r25,Y+16
 5444 22fc FC01      		movw r30,r24
 5445 22fe 8081      		ld r24,Z
 5446 2300 9181      		ldd r25,Z+1
 5447 2302 9E83      		std Y+6,r25
 5448 2304 8D83      		std Y+5,r24
 644:lp_solve_5.5/lp_SOS.c **** 
 645:lp_solve_5.5/lp_SOS.c **** #ifdef Paranoia
 646:lp_solve_5.5/lp_SOS.c ****   if((sosindex < 0) || (sosindex > group->sos_count)) {
 647:lp_solve_5.5/lp_SOS.c ****     report(lp, IMPORTANT, "SOS_infeasible: Invalid SOS index %d\n", sosindex);
 648:lp_solve_5.5/lp_SOS.c ****     return(FALSE);
 649:lp_solve_5.5/lp_SOS.c ****   }
 650:lp_solve_5.5/lp_SOS.c **** #endif
 651:lp_solve_5.5/lp_SOS.c **** 
 652:lp_solve_5.5/lp_SOS.c ****   if(sosindex == 0 && group->sos_count == 1)
 5449               		.loc 1 652 0
 5450 2306 8989      		ldd r24,Y+17
 5451 2308 9A89      		ldd r25,Y+18
 5452 230a 892B      		or r24,r25
 5453 230c 01F4      		brne .L188
 5454               		.loc 1 652 0 is_stmt 0 discriminator 1
 5455 230e 8F85      		ldd r24,Y+15
 5456 2310 9889      		ldd r25,Y+16
 5457 2312 FC01      		movw r30,r24
 5458 2314 8681      		ldd r24,Z+6
 5459 2316 9781      		ldd r25,Z+7
 5460 2318 0197      		sbiw r24,1
 5461 231a 01F4      		brne .L188
 653:lp_solve_5.5/lp_SOS.c ****     sosindex = 1;
 5462               		.loc 1 653 0 is_stmt 1
 5463 231c 81E0      		ldi r24,lo8(1)
 5464 231e 90E0      		ldi r25,0
 5465 2320 9A8B      		std Y+18,r25
 5466 2322 898B      		std Y+17,r24
 5467               	.L188:
 654:lp_solve_5.5/lp_SOS.c **** 
 655:lp_solve_5.5/lp_SOS.c ****   failindex = 0;
 5468               		.loc 1 655 0
 5469 2324 1C82      		std Y+4,__zero_reg__
 5470 2326 1B82      		std Y+3,__zero_reg__
 656:lp_solve_5.5/lp_SOS.c ****   if(sosindex == 0) {
 5471               		.loc 1 656 0
 5472 2328 8989      		ldd r24,Y+17
 5473 232a 9A89      		ldd r25,Y+18
 5474 232c 892B      		or r24,r25
 5475 232e 01F4      		brne .L189
 657:lp_solve_5.5/lp_SOS.c ****     for(i = 1; i <= group->sos_count; i++) {
 5476               		.loc 1 657 0
 5477 2330 81E0      		ldi r24,lo8(1)
 5478 2332 90E0      		ldi r25,0
 5479 2334 9A83      		std Y+2,r25
 5480 2336 8983      		std Y+1,r24
 5481 2338 00C0      		rjmp .L190
 5482               	.L193:
 658:lp_solve_5.5/lp_SOS.c ****       failindex = SOS_infeasible(group, i);
 5483               		.loc 1 658 0
 5484 233a 2981      		ldd r18,Y+1
 5485 233c 3A81      		ldd r19,Y+2
 5486 233e 8F85      		ldd r24,Y+15
 5487 2340 9889      		ldd r25,Y+16
 5488 2342 B901      		movw r22,r18
 5489 2344 0E94 0000 		call SOS_infeasible
 5490 2348 9C83      		std Y+4,r25
 5491 234a 8B83      		std Y+3,r24
 659:lp_solve_5.5/lp_SOS.c ****       if(failindex > 0) break;
 5492               		.loc 1 659 0
 5493 234c 8B81      		ldd r24,Y+3
 5494 234e 9C81      		ldd r25,Y+4
 5495 2350 1816      		cp __zero_reg__,r24
 5496 2352 1906      		cpc __zero_reg__,r25
 5497 2354 04F4      		brge .+2
 5498 2356 00C0      		rjmp .L211
 657:lp_solve_5.5/lp_SOS.c ****     for(i = 1; i <= group->sos_count; i++) {
 5499               		.loc 1 657 0 discriminator 2
 5500 2358 8981      		ldd r24,Y+1
 5501 235a 9A81      		ldd r25,Y+2
 5502 235c 0196      		adiw r24,1
 5503 235e 9A83      		std Y+2,r25
 5504 2360 8983      		std Y+1,r24
 5505               	.L190:
 657:lp_solve_5.5/lp_SOS.c ****     for(i = 1; i <= group->sos_count; i++) {
 5506               		.loc 1 657 0 is_stmt 0 discriminator 1
 5507 2362 8F85      		ldd r24,Y+15
 5508 2364 9889      		ldd r25,Y+16
 5509 2366 FC01      		movw r30,r24
 5510 2368 2681      		ldd r18,Z+6
 5511 236a 3781      		ldd r19,Z+7
 5512 236c 8981      		ldd r24,Y+1
 5513 236e 9A81      		ldd r25,Y+2
 5514 2370 2817      		cp r18,r24
 5515 2372 3907      		cpc r19,r25
 5516 2374 04F4      		brge .L193
 5517 2376 00C0      		rjmp .L194
 5518               	.L189:
 660:lp_solve_5.5/lp_SOS.c ****     }
 661:lp_solve_5.5/lp_SOS.c ****   }
 662:lp_solve_5.5/lp_SOS.c ****   else {
 663:lp_solve_5.5/lp_SOS.c ****     list = group->sos_list[sosindex-1]->members;
 5519               		.loc 1 663 0 is_stmt 1
 5520 2378 8F85      		ldd r24,Y+15
 5521 237a 9889      		ldd r25,Y+16
 5522 237c FC01      		movw r30,r24
 5523 237e 2281      		ldd r18,Z+2
 5524 2380 3381      		ldd r19,Z+3
 5525 2382 8989      		ldd r24,Y+17
 5526 2384 9A89      		ldd r25,Y+18
 5527 2386 8150      		subi r24,1
 5528 2388 9048      		sbci r25,-128
 5529 238a 880F      		lsl r24
 5530 238c 991F      		rol r25
 5531 238e 820F      		add r24,r18
 5532 2390 931F      		adc r25,r19
 5533 2392 FC01      		movw r30,r24
 5534 2394 8081      		ld r24,Z
 5535 2396 9181      		ldd r25,Z+1
 5536 2398 FC01      		movw r30,r24
 5537 239a 8585      		ldd r24,Z+13
 5538 239c 9685      		ldd r25,Z+14
 5539 239e 9887      		std Y+8,r25
 5540 23a0 8F83      		std Y+7,r24
 664:lp_solve_5.5/lp_SOS.c ****     n = list[0];
 5541               		.loc 1 664 0
 5542 23a2 8F81      		ldd r24,Y+7
 5543 23a4 9885      		ldd r25,Y+8
 5544 23a6 FC01      		movw r30,r24
 5545 23a8 8081      		ld r24,Z
 5546 23aa 9181      		ldd r25,Z+1
 5547 23ac 9A87      		std Y+10,r25
 5548 23ae 8987      		std Y+9,r24
 665:lp_solve_5.5/lp_SOS.c ****     nn = list[n+1];
 5549               		.loc 1 665 0
 5550 23b0 8985      		ldd r24,Y+9
 5551 23b2 9A85      		ldd r25,Y+10
 5552 23b4 0196      		adiw r24,1
 5553 23b6 880F      		lsl r24
 5554 23b8 991F      		rol r25
 5555 23ba 2F81      		ldd r18,Y+7
 5556 23bc 3885      		ldd r19,Y+8
 5557 23be 820F      		add r24,r18
 5558 23c0 931F      		adc r25,r19
 5559 23c2 FC01      		movw r30,r24
 5560 23c4 8081      		ld r24,Z
 5561 23c6 9181      		ldd r25,Z+1
 5562 23c8 9C87      		std Y+12,r25
 5563 23ca 8B87      		std Y+11,r24
 666:lp_solve_5.5/lp_SOS.c ****    /* Find index of next lower-bounded variable */
 667:lp_solve_5.5/lp_SOS.c ****     for(i = 1; i <= n; i++) {
 5564               		.loc 1 667 0
 5565 23cc 81E0      		ldi r24,lo8(1)
 5566 23ce 90E0      		ldi r25,0
 5567 23d0 9A83      		std Y+2,r25
 5568 23d2 8983      		std Y+1,r24
 5569 23d4 00C0      		rjmp .L195
 5570               	.L200:
 668:lp_solve_5.5/lp_SOS.c ****       varnr = abs(list[i]);
 5571               		.loc 1 668 0
 5572 23d6 8981      		ldd r24,Y+1
 5573 23d8 9A81      		ldd r25,Y+2
 5574 23da 880F      		lsl r24
 5575 23dc 991F      		rol r25
 5576 23de 2F81      		ldd r18,Y+7
 5577 23e0 3885      		ldd r19,Y+8
 5578 23e2 820F      		add r24,r18
 5579 23e4 931F      		adc r25,r19
 5580 23e6 FC01      		movw r30,r24
 5581 23e8 8081      		ld r24,Z
 5582 23ea 9181      		ldd r25,Z+1
 5583 23ec 9923      		tst r25
 5584 23ee 04F4      		brge .L196
 5585 23f0 9195      		neg r25
 5586 23f2 8195      		neg r24
 5587 23f4 9109      		sbc r25,__zero_reg__
 5588               	.L196:
 5589 23f6 9E87      		std Y+14,r25
 5590 23f8 8D87      		std Y+13,r24
 669:lp_solve_5.5/lp_SOS.c ****       if((lp->orig_lowbo[lp->rows + varnr] > 0) &&
 5591               		.loc 1 669 0
 5592 23fa 8D81      		ldd r24,Y+5
 5593 23fc 9E81      		ldd r25,Y+6
 5594 23fe 8E54      		subi r24,78
 5595 2400 9D4F      		sbci r25,-3
 5596 2402 FC01      		movw r30,r24
 5597 2404 2081      		ld r18,Z
 5598 2406 3181      		ldd r19,Z+1
 5599 2408 8D81      		ldd r24,Y+5
 5600 240a 9E81      		ldd r25,Y+6
 5601 240c 8651      		subi r24,22
 5602 240e 9E4F      		sbci r25,-2
 5603 2410 FC01      		movw r30,r24
 5604 2412 4081      		ld r20,Z
 5605 2414 5181      		ldd r21,Z+1
 5606 2416 8D85      		ldd r24,Y+13
 5607 2418 9E85      		ldd r25,Y+14
 5608 241a 840F      		add r24,r20
 5609 241c 951F      		adc r25,r21
 5610 241e 880F      		lsl r24
 5611 2420 991F      		rol r25
 5612 2422 880F      		lsl r24
 5613 2424 991F      		rol r25
 5614 2426 820F      		add r24,r18
 5615 2428 931F      		adc r25,r19
 5616 242a FC01      		movw r30,r24
 5617 242c 8081      		ld r24,Z
 5618 242e 9181      		ldd r25,Z+1
 5619 2430 A281      		ldd r26,Z+2
 5620 2432 B381      		ldd r27,Z+3
 5621 2434 20E0      		ldi r18,0
 5622 2436 30E0      		ldi r19,0
 5623 2438 A901      		movw r20,r18
 5624 243a BC01      		movw r22,r24
 5625 243c CD01      		movw r24,r26
 5626 243e 0E94 0000 		call __gtsf2
 5627 2442 1816      		cp __zero_reg__,r24
 5628 2444 04F4      		brge .L197
 670:lp_solve_5.5/lp_SOS.c ****          !((lp->sc_vars > 0) && is_semicont(lp, varnr)))
 5629               		.loc 1 670 0 discriminator 1
 5630 2446 8D81      		ldd r24,Y+5
 5631 2448 9E81      		ldd r25,Y+6
 5632 244a 8057      		subi r24,112
 5633 244c 9D4F      		sbci r25,-3
 5634 244e FC01      		movw r30,r24
 5635 2450 8081      		ld r24,Z
 5636 2452 9181      		ldd r25,Z+1
 669:lp_solve_5.5/lp_SOS.c ****       if((lp->orig_lowbo[lp->rows + varnr] > 0) &&
 5637               		.loc 1 669 0 discriminator 1
 5638 2454 1816      		cp __zero_reg__,r24
 5639 2456 1906      		cpc __zero_reg__,r25
 5640 2458 04F4      		brge .L199
 5641               		.loc 1 670 0
 5642 245a 2D85      		ldd r18,Y+13
 5643 245c 3E85      		ldd r19,Y+14
 5644 245e 8D81      		ldd r24,Y+5
 5645 2460 9E81      		ldd r25,Y+6
 5646 2462 B901      		movw r22,r18
 5647 2464 0E94 0000 		call is_semicont
 5648 2468 8823      		tst r24
 5649 246a 01F0      		breq .L199
 5650               	.L197:
 667:lp_solve_5.5/lp_SOS.c ****       varnr = abs(list[i]);
 5651               		.loc 1 667 0 discriminator 2
 5652 246c 8981      		ldd r24,Y+1
 5653 246e 9A81      		ldd r25,Y+2
 5654 2470 0196      		adiw r24,1
 5655 2472 9A83      		std Y+2,r25
 5656 2474 8983      		std Y+1,r24
 5657               	.L195:
 667:lp_solve_5.5/lp_SOS.c ****       varnr = abs(list[i]);
 5658               		.loc 1 667 0 is_stmt 0 discriminator 1
 5659 2476 2981      		ldd r18,Y+1
 5660 2478 3A81      		ldd r19,Y+2
 5661 247a 8985      		ldd r24,Y+9
 5662 247c 9A85      		ldd r25,Y+10
 5663 247e 8217      		cp r24,r18
 5664 2480 9307      		cpc r25,r19
 5665 2482 04F0      		brlt .+2
 5666 2484 00C0      		rjmp .L200
 5667               	.L199:
 671:lp_solve_5.5/lp_SOS.c ****         break;
 672:lp_solve_5.5/lp_SOS.c ****     }
 673:lp_solve_5.5/lp_SOS.c **** 
 674:lp_solve_5.5/lp_SOS.c ****    /* Find if there is another lower-bounded variable beyond the type window */
 675:lp_solve_5.5/lp_SOS.c ****     i = i+nn;
 5668               		.loc 1 675 0 is_stmt 1
 5669 2486 2981      		ldd r18,Y+1
 5670 2488 3A81      		ldd r19,Y+2
 5671 248a 8B85      		ldd r24,Y+11
 5672 248c 9C85      		ldd r25,Y+12
 5673 248e 820F      		add r24,r18
 5674 2490 931F      		adc r25,r19
 5675 2492 9A83      		std Y+2,r25
 5676 2494 8983      		std Y+1,r24
 676:lp_solve_5.5/lp_SOS.c ****     while(i <= n) {
 5677               		.loc 1 676 0
 5678 2496 00C0      		rjmp .L201
 5679               	.L206:
 677:lp_solve_5.5/lp_SOS.c ****       varnr = abs(list[i]);
 5680               		.loc 1 677 0
 5681 2498 8981      		ldd r24,Y+1
 5682 249a 9A81      		ldd r25,Y+2
 5683 249c 880F      		lsl r24
 5684 249e 991F      		rol r25
 5685 24a0 2F81      		ldd r18,Y+7
 5686 24a2 3885      		ldd r19,Y+8
 5687 24a4 820F      		add r24,r18
 5688 24a6 931F      		adc r25,r19
 5689 24a8 FC01      		movw r30,r24
 5690 24aa 8081      		ld r24,Z
 5691 24ac 9181      		ldd r25,Z+1
 5692 24ae 9923      		tst r25
 5693 24b0 04F4      		brge .L202
 5694 24b2 9195      		neg r25
 5695 24b4 8195      		neg r24
 5696 24b6 9109      		sbc r25,__zero_reg__
 5697               	.L202:
 5698 24b8 9E87      		std Y+14,r25
 5699 24ba 8D87      		std Y+13,r24
 678:lp_solve_5.5/lp_SOS.c ****       if((lp->orig_lowbo[lp->rows + varnr] > 0) &&
 5700               		.loc 1 678 0
 5701 24bc 8D81      		ldd r24,Y+5
 5702 24be 9E81      		ldd r25,Y+6
 5703 24c0 8E54      		subi r24,78
 5704 24c2 9D4F      		sbci r25,-3
 5705 24c4 FC01      		movw r30,r24
 5706 24c6 2081      		ld r18,Z
 5707 24c8 3181      		ldd r19,Z+1
 5708 24ca 8D81      		ldd r24,Y+5
 5709 24cc 9E81      		ldd r25,Y+6
 5710 24ce 8651      		subi r24,22
 5711 24d0 9E4F      		sbci r25,-2
 5712 24d2 FC01      		movw r30,r24
 5713 24d4 4081      		ld r20,Z
 5714 24d6 5181      		ldd r21,Z+1
 5715 24d8 8D85      		ldd r24,Y+13
 5716 24da 9E85      		ldd r25,Y+14
 5717 24dc 840F      		add r24,r20
 5718 24de 951F      		adc r25,r21
 5719 24e0 880F      		lsl r24
 5720 24e2 991F      		rol r25
 5721 24e4 880F      		lsl r24
 5722 24e6 991F      		rol r25
 5723 24e8 820F      		add r24,r18
 5724 24ea 931F      		adc r25,r19
 5725 24ec FC01      		movw r30,r24
 5726 24ee 8081      		ld r24,Z
 5727 24f0 9181      		ldd r25,Z+1
 5728 24f2 A281      		ldd r26,Z+2
 5729 24f4 B381      		ldd r27,Z+3
 5730 24f6 20E0      		ldi r18,0
 5731 24f8 30E0      		ldi r19,0
 5732 24fa A901      		movw r20,r18
 5733 24fc BC01      		movw r22,r24
 5734 24fe CD01      		movw r24,r26
 5735 2500 0E94 0000 		call __gtsf2
 5736 2504 1816      		cp __zero_reg__,r24
 5737 2506 04F4      		brge .L203
 679:lp_solve_5.5/lp_SOS.c ****          !((lp->sc_vars > 0) && is_semicont(lp, varnr)))
 5738               		.loc 1 679 0 discriminator 1
 5739 2508 8D81      		ldd r24,Y+5
 5740 250a 9E81      		ldd r25,Y+6
 5741 250c 8057      		subi r24,112
 5742 250e 9D4F      		sbci r25,-3
 5743 2510 FC01      		movw r30,r24
 5744 2512 8081      		ld r24,Z
 5745 2514 9181      		ldd r25,Z+1
 678:lp_solve_5.5/lp_SOS.c ****       if((lp->orig_lowbo[lp->rows + varnr] > 0) &&
 5746               		.loc 1 678 0 discriminator 1
 5747 2516 1816      		cp __zero_reg__,r24
 5748 2518 1906      		cpc __zero_reg__,r25
 5749 251a 04F4      		brge .L205
 5750               		.loc 1 679 0
 5751 251c 2D85      		ldd r18,Y+13
 5752 251e 3E85      		ldd r19,Y+14
 5753 2520 8D81      		ldd r24,Y+5
 5754 2522 9E81      		ldd r25,Y+6
 5755 2524 B901      		movw r22,r18
 5756 2526 0E94 0000 		call is_semicont
 5757 252a 8823      		tst r24
 5758 252c 01F0      		breq .L205
 5759               	.L203:
 680:lp_solve_5.5/lp_SOS.c ****         break;
 681:lp_solve_5.5/lp_SOS.c ****       i++;
 5760               		.loc 1 681 0
 5761 252e 8981      		ldd r24,Y+1
 5762 2530 9A81      		ldd r25,Y+2
 5763 2532 0196      		adiw r24,1
 5764 2534 9A83      		std Y+2,r25
 5765 2536 8983      		std Y+1,r24
 5766               	.L201:
 676:lp_solve_5.5/lp_SOS.c ****       varnr = abs(list[i]);
 5767               		.loc 1 676 0
 5768 2538 2981      		ldd r18,Y+1
 5769 253a 3A81      		ldd r19,Y+2
 5770 253c 8985      		ldd r24,Y+9
 5771 253e 9A85      		ldd r25,Y+10
 5772 2540 8217      		cp r24,r18
 5773 2542 9307      		cpc r25,r19
 5774 2544 04F0      		brlt .+2
 5775 2546 00C0      		rjmp .L206
 5776               	.L205:
 682:lp_solve_5.5/lp_SOS.c ****     }
 683:lp_solve_5.5/lp_SOS.c ****     if(i <= n)
 5777               		.loc 1 683 0
 5778 2548 2981      		ldd r18,Y+1
 5779 254a 3A81      		ldd r19,Y+2
 5780 254c 8985      		ldd r24,Y+9
 5781 254e 9A85      		ldd r25,Y+10
 5782 2550 8217      		cp r24,r18
 5783 2552 9307      		cpc r25,r19
 5784 2554 04F0      		brlt .L194
 684:lp_solve_5.5/lp_SOS.c ****       failindex = abs(list[i]);
 5785               		.loc 1 684 0
 5786 2556 8981      		ldd r24,Y+1
 5787 2558 9A81      		ldd r25,Y+2
 5788 255a 880F      		lsl r24
 5789 255c 991F      		rol r25
 5790 255e 2F81      		ldd r18,Y+7
 5791 2560 3885      		ldd r19,Y+8
 5792 2562 820F      		add r24,r18
 5793 2564 931F      		adc r25,r19
 5794 2566 FC01      		movw r30,r24
 5795 2568 8081      		ld r24,Z
 5796 256a 9181      		ldd r25,Z+1
 5797 256c 9923      		tst r25
 5798 256e 04F4      		brge .L207
