   1               		.file	"lp_simplex.c"
   2               	__SP_H__ = 0x3e
   3               	__SP_L__ = 0x3d
   4               	__SREG__ = 0x3f
   5               	__RAMPZ__ = 0x3b
   6               	__tmp_reg__ = 0
   7               	__zero_reg__ = 1
   8               		.text
   9               	.Ltext0:
  10               		.cfi_sections	.debug_frame
  12               	presolve_rowlength:
  13               	.LFB7:
  14               		.file 1 "lp_solve_5.5/lp_presolve.h"
   1:lp_solve_5.5/lp_presolve.h **** #ifndef HEADER_lp_presolve
   2:lp_solve_5.5/lp_presolve.h **** #define HEADER_lp_presolve
   3:lp_solve_5.5/lp_presolve.h **** 
   4:lp_solve_5.5/lp_presolve.h **** #include "lp_types.h"
   5:lp_solve_5.5/lp_presolve.h **** #include "lp_matrix.h"
   6:lp_solve_5.5/lp_presolve.h **** 
   7:lp_solve_5.5/lp_presolve.h **** /* -------------------------------------------------------------------------------------------- */
   8:lp_solve_5.5/lp_presolve.h **** /* Defines for various presolve options                                                         */
   9:lp_solve_5.5/lp_presolve.h **** /* -------------------------------------------------------------------------------------------- */
  10:lp_solve_5.5/lp_presolve.h **** 
  11:lp_solve_5.5/lp_presolve.h **** #define MAX_PSMERGELOOPS                2                 /* Max loops to merge compatible constrai
  12:lp_solve_5.5/lp_presolve.h **** #define MAX_PSLINDEPLOOPS               1   /* Max loops to detect linearly dependendent constraint
  13:lp_solve_5.5/lp_presolve.h **** #define MAX_PSBOUNDTIGHTENLOOPS         5     /* Maximumn number of loops to allow bound tightening
  14:lp_solve_5.5/lp_presolve.h **** #define MIN_SOS1LENGTH                  4   /* Minimum length of a constraint for conversion to SOS
  15:lp_solve_5.5/lp_presolve.h **** #if 1
  16:lp_solve_5.5/lp_presolve.h ****   #define PRESOLVE_EPSVALUE (0.1*lp->epsprimal)
  17:lp_solve_5.5/lp_presolve.h **** #else
  18:lp_solve_5.5/lp_presolve.h ****   #define PRESOLVE_EPSVALUE  lp->epsvalue
  19:lp_solve_5.5/lp_presolve.h **** #endif
  20:lp_solve_5.5/lp_presolve.h **** #define PRESOLVE_EPSPIVOT         1.0e-3        /* Looses robustness at values smaller than ~1.0e-3
  21:lp_solve_5.5/lp_presolve.h **** #define PRESOLVE_BOUNDSLACK           10                     /* Extra error recovery/tolerance marg
  22:lp_solve_5.5/lp_presolve.h **** 
  23:lp_solve_5.5/lp_presolve.h **** #define DoPresolveRounding              /* Use absolute and directed rounding (disable at own risk)
  24:lp_solve_5.5/lp_presolve.h **** /*#define DoPresolveRelativeTest*/
  25:lp_solve_5.5/lp_presolve.h **** 
  26:lp_solve_5.5/lp_presolve.h **** /*#define PresolveForceUpdateMax*/
  27:lp_solve_5.5/lp_presolve.h **** 
  28:lp_solve_5.5/lp_presolve.h **** /*#define DualFeasibilityLogicEQ2*/              /* Add low-order feasibility/accuracy logic to eli
  29:lp_solve_5.5/lp_presolve.h **** #define DivisorIntegralityLogicEQ2                                   /* Always prefer integer divis
  30:lp_solve_5.5/lp_presolve.h **** #define FindImpliedEqualities                               /* Detect equalities (default is enable
  31:lp_solve_5.5/lp_presolve.h **** #define Eq2Reldiff
  32:lp_solve_5.5/lp_presolve.h **** 
  33:lp_solve_5.5/lp_presolve.h **** /*#define SavePresolveEliminated */        /* Enable to activate storage of eliminated matrix data 
  34:lp_solve_5.5/lp_presolve.h **** /*#define UseDualPresolve */                    /* Enable to use full dual information for presolve
  35:lp_solve_5.5/lp_presolve.h **** 
  36:lp_solve_5.5/lp_presolve.h **** 
  37:lp_solve_5.5/lp_presolve.h **** typedef struct _psrec
  38:lp_solve_5.5/lp_presolve.h **** {
  39:lp_solve_5.5/lp_presolve.h ****   LLrec *varmap;
  40:lp_solve_5.5/lp_presolve.h ****   int  **next;
  41:lp_solve_5.5/lp_presolve.h ****   int  *empty;
  42:lp_solve_5.5/lp_presolve.h ****   int  *plucount;
  43:lp_solve_5.5/lp_presolve.h ****   int  *negcount;
  44:lp_solve_5.5/lp_presolve.h ****   int  *pluneg;
  45:lp_solve_5.5/lp_presolve.h ****   int  *infcount;
  46:lp_solve_5.5/lp_presolve.h ****   REAL  *plulower;
  47:lp_solve_5.5/lp_presolve.h ****   REAL  *neglower;
  48:lp_solve_5.5/lp_presolve.h ****   REAL  *pluupper;
  49:lp_solve_5.5/lp_presolve.h ****   REAL  *negupper;
  50:lp_solve_5.5/lp_presolve.h ****   int  allocsize;
  51:lp_solve_5.5/lp_presolve.h **** } psrec;
  52:lp_solve_5.5/lp_presolve.h **** 
  53:lp_solve_5.5/lp_presolve.h **** typedef struct _presolverec
  54:lp_solve_5.5/lp_presolve.h **** {
  55:lp_solve_5.5/lp_presolve.h ****   psrec *rows;
  56:lp_solve_5.5/lp_presolve.h ****   psrec *cols;
  57:lp_solve_5.5/lp_presolve.h ****   LLrec *EQmap;
  58:lp_solve_5.5/lp_presolve.h ****   LLrec *LTmap;
  59:lp_solve_5.5/lp_presolve.h ****   LLrec *INTmap;
  60:lp_solve_5.5/lp_presolve.h ****   REAL  *pv_upbo;
  61:lp_solve_5.5/lp_presolve.h ****   REAL  *pv_lobo;
  62:lp_solve_5.5/lp_presolve.h ****   REAL  *dv_upbo;
  63:lp_solve_5.5/lp_presolve.h ****   REAL  *dv_lobo;
  64:lp_solve_5.5/lp_presolve.h ****   lprec *lp;
  65:lp_solve_5.5/lp_presolve.h ****   REAL  epsvalue;
  66:lp_solve_5.5/lp_presolve.h ****   REAL  epspivot;
  67:lp_solve_5.5/lp_presolve.h ****   int   innerloops;
  68:lp_solve_5.5/lp_presolve.h ****   int   middleloops;
  69:lp_solve_5.5/lp_presolve.h ****   int   outerloops;
  70:lp_solve_5.5/lp_presolve.h ****   int   nzdeleted;
  71:lp_solve_5.5/lp_presolve.h ****   MYBOOL forceupdate;
  72:lp_solve_5.5/lp_presolve.h **** } presolverec;
  73:lp_solve_5.5/lp_presolve.h **** 
  74:lp_solve_5.5/lp_presolve.h **** #ifdef __cplusplus
  75:lp_solve_5.5/lp_presolve.h **** extern "C" {
  76:lp_solve_5.5/lp_presolve.h **** #endif
  77:lp_solve_5.5/lp_presolve.h **** 
  78:lp_solve_5.5/lp_presolve.h **** /* Put function headers here */
  79:lp_solve_5.5/lp_presolve.h **** 
  80:lp_solve_5.5/lp_presolve.h **** STATIC MYBOOL presolve_createUndo(lprec *lp);
  81:lp_solve_5.5/lp_presolve.h **** STATIC MYBOOL presolve_rebuildUndo(lprec *lp, MYBOOL isprimal);
  82:lp_solve_5.5/lp_presolve.h **** STATIC MYBOOL inc_presolve_space(lprec *lp, int delta, MYBOOL isrows);
  83:lp_solve_5.5/lp_presolve.h **** STATIC MYBOOL presolve_setOrig(lprec *lp, int orig_rows, int orig_cols);
  84:lp_solve_5.5/lp_presolve.h **** STATIC MYBOOL presolve_colfix(presolverec *psdata, int colnr, REAL newvalue, MYBOOL remove, int *ta
  85:lp_solve_5.5/lp_presolve.h **** STATIC MYBOOL presolve_fillUndo(lprec *lp, int orig_rows, int orig_cols, MYBOOL setOrig);
  86:lp_solve_5.5/lp_presolve.h **** STATIC MYBOOL presolve_freeUndo(lprec *lp);
  87:lp_solve_5.5/lp_presolve.h **** 
  88:lp_solve_5.5/lp_presolve.h **** STATIC MYBOOL presolve_updatesums(presolverec *psdata);
  89:lp_solve_5.5/lp_presolve.h **** 
  90:lp_solve_5.5/lp_presolve.h **** INLINE int presolve_nextrow(presolverec *psdata, int colnr, int *previtem);
  91:lp_solve_5.5/lp_presolve.h **** INLINE int presolve_nextcol(presolverec *psdata, int rownr, int *previtem);
  92:lp_solve_5.5/lp_presolve.h **** 
  93:lp_solve_5.5/lp_presolve.h **** STATIC presolverec *presolve_init(lprec *lp);
  94:lp_solve_5.5/lp_presolve.h **** STATIC void presolve_free(presolverec **psdata);
  95:lp_solve_5.5/lp_presolve.h **** STATIC int presolve_shrink(presolverec *psdata, int *nConRemove, int *nVarRemove);
  96:lp_solve_5.5/lp_presolve.h **** STATIC void presolve_rowremove(presolverec *psdata, int rownr, MYBOOL allowcoldelete);
  97:lp_solve_5.5/lp_presolve.h **** STATIC int presolve_colremove(presolverec *psdata, int colnr, MYBOOL allowrowdelete);
  98:lp_solve_5.5/lp_presolve.h **** 
  99:lp_solve_5.5/lp_presolve.h **** STATIC MYBOOL presolve_colfixdual(presolverec *psdata, int colnr, REAL *fixValue, int *status);
 100:lp_solve_5.5/lp_presolve.h **** 
 101:lp_solve_5.5/lp_presolve.h **** INLINE int presolve_rowlength(presolverec *psdata, int rownr)
 102:lp_solve_5.5/lp_presolve.h **** {
  15               		.loc 1 102 0
  16               		.cfi_startproc
  17 0000 CF93      		push r28
  18               	.LCFI0:
  19               		.cfi_def_cfa_offset 3
  20               		.cfi_offset 28, -2
  21 0002 DF93      		push r29
  22               	.LCFI1:
  23               		.cfi_def_cfa_offset 4
  24               		.cfi_offset 29, -3
  25 0004 00D0      		rcall .
  26 0006 00D0      		rcall .
  27 0008 00D0      		rcall .
  28               	.LCFI2:
  29               		.cfi_def_cfa_offset 10
  30 000a CDB7      		in r28,__SP_L__
  31 000c DEB7      		in r29,__SP_H__
  32               	.LCFI3:
  33               		.cfi_def_cfa_register 28
  34               	/* prologue: function */
  35               	/* frame size = 6 */
  36               	/* stack size = 8 */
  37               	.L__stack_usage = 8
  38 000e 9C83      		std Y+4,r25
  39 0010 8B83      		std Y+3,r24
  40 0012 7E83      		std Y+6,r23
  41 0014 6D83      		std Y+5,r22
 103:lp_solve_5.5/lp_presolve.h ****   int *items = psdata->rows->next[rownr];
  42               		.loc 1 103 0
  43 0016 8B81      		ldd r24,Y+3
  44 0018 9C81      		ldd r25,Y+4
  45 001a FC01      		movw r30,r24
  46 001c 8081      		ld r24,Z
  47 001e 9181      		ldd r25,Z+1
  48 0020 FC01      		movw r30,r24
  49 0022 2281      		ldd r18,Z+2
  50 0024 3381      		ldd r19,Z+3
  51 0026 8D81      		ldd r24,Y+5
  52 0028 9E81      		ldd r25,Y+6
  53 002a 880F      		lsl r24
  54 002c 991F      		rol r25
  55 002e 820F      		add r24,r18
  56 0030 931F      		adc r25,r19
  57 0032 FC01      		movw r30,r24
  58 0034 8081      		ld r24,Z
  59 0036 9181      		ldd r25,Z+1
  60 0038 9A83      		std Y+2,r25
  61 003a 8983      		std Y+1,r24
 104:lp_solve_5.5/lp_presolve.h **** 
 105:lp_solve_5.5/lp_presolve.h ****   if(items == NULL)
  62               		.loc 1 105 0
  63 003c 8981      		ldd r24,Y+1
  64 003e 9A81      		ldd r25,Y+2
  65 0040 892B      		or r24,r25
  66 0042 01F4      		brne .L2
 106:lp_solve_5.5/lp_presolve.h ****     return( 0 );
  67               		.loc 1 106 0
  68 0044 80E0      		ldi r24,0
  69 0046 90E0      		ldi r25,0
  70 0048 00C0      		rjmp .L3
  71               	.L2:
 107:lp_solve_5.5/lp_presolve.h ****   else
 108:lp_solve_5.5/lp_presolve.h ****     return( items[0] );
  72               		.loc 1 108 0
  73 004a 8981      		ldd r24,Y+1
  74 004c 9A81      		ldd r25,Y+2
  75 004e FC01      		movw r30,r24
  76 0050 8081      		ld r24,Z
  77 0052 9181      		ldd r25,Z+1
  78               	.L3:
  79               	/* epilogue start */
 109:lp_solve_5.5/lp_presolve.h **** }
  80               		.loc 1 109 0
  81 0054 2696      		adiw r28,6
  82 0056 0FB6      		in __tmp_reg__,__SREG__
  83 0058 F894      		cli
  84 005a DEBF      		out __SP_H__,r29
  85 005c 0FBE      		out __SREG__,__tmp_reg__
  86 005e CDBF      		out __SP_L__,r28
  87 0060 DF91      		pop r29
  88 0062 CF91      		pop r28
  89 0064 0895      		ret
  90               		.cfi_endproc
  91               	.LFE7:
  94               	presolve_collength:
  95               	.LFB8:
 110:lp_solve_5.5/lp_presolve.h **** INLINE int presolve_collength(presolverec *psdata, int colnr)
 111:lp_solve_5.5/lp_presolve.h **** {
  96               		.loc 1 111 0
  97               		.cfi_startproc
  98 0066 CF93      		push r28
  99               	.LCFI4:
 100               		.cfi_def_cfa_offset 3
 101               		.cfi_offset 28, -2
 102 0068 DF93      		push r29
 103               	.LCFI5:
 104               		.cfi_def_cfa_offset 4
 105               		.cfi_offset 29, -3
 106 006a 00D0      		rcall .
 107 006c 00D0      		rcall .
 108 006e 00D0      		rcall .
 109               	.LCFI6:
 110               		.cfi_def_cfa_offset 10
 111 0070 CDB7      		in r28,__SP_L__
 112 0072 DEB7      		in r29,__SP_H__
 113               	.LCFI7:
 114               		.cfi_def_cfa_register 28
 115               	/* prologue: function */
 116               	/* frame size = 6 */
 117               	/* stack size = 8 */
 118               	.L__stack_usage = 8
 119 0074 9C83      		std Y+4,r25
 120 0076 8B83      		std Y+3,r24
 121 0078 7E83      		std Y+6,r23
 122 007a 6D83      		std Y+5,r22
 112:lp_solve_5.5/lp_presolve.h ****   int *items = psdata->cols->next[colnr];
 123               		.loc 1 112 0
 124 007c 8B81      		ldd r24,Y+3
 125 007e 9C81      		ldd r25,Y+4
 126 0080 FC01      		movw r30,r24
 127 0082 8281      		ldd r24,Z+2
 128 0084 9381      		ldd r25,Z+3
 129 0086 FC01      		movw r30,r24
 130 0088 2281      		ldd r18,Z+2
 131 008a 3381      		ldd r19,Z+3
 132 008c 8D81      		ldd r24,Y+5
 133 008e 9E81      		ldd r25,Y+6
 134 0090 880F      		lsl r24
 135 0092 991F      		rol r25
 136 0094 820F      		add r24,r18
 137 0096 931F      		adc r25,r19
 138 0098 FC01      		movw r30,r24
 139 009a 8081      		ld r24,Z
 140 009c 9181      		ldd r25,Z+1
 141 009e 9A83      		std Y+2,r25
 142 00a0 8983      		std Y+1,r24
 113:lp_solve_5.5/lp_presolve.h ****   if(items == NULL)
 143               		.loc 1 113 0
 144 00a2 8981      		ldd r24,Y+1
 145 00a4 9A81      		ldd r25,Y+2
 146 00a6 892B      		or r24,r25
 147 00a8 01F4      		brne .L5
 114:lp_solve_5.5/lp_presolve.h ****     return( 0 );
 148               		.loc 1 114 0
 149 00aa 80E0      		ldi r24,0
 150 00ac 90E0      		ldi r25,0
 151 00ae 00C0      		rjmp .L6
 152               	.L5:
 115:lp_solve_5.5/lp_presolve.h ****   else
 116:lp_solve_5.5/lp_presolve.h ****     return( items[0] );
 153               		.loc 1 116 0
 154 00b0 8981      		ldd r24,Y+1
 155 00b2 9A81      		ldd r25,Y+2
 156 00b4 FC01      		movw r30,r24
 157 00b6 8081      		ld r24,Z
 158 00b8 9181      		ldd r25,Z+1
 159               	.L6:
 160               	/* epilogue start */
 117:lp_solve_5.5/lp_presolve.h **** }
 161               		.loc 1 117 0
 162 00ba 2696      		adiw r28,6
 163 00bc 0FB6      		in __tmp_reg__,__SREG__
 164 00be F894      		cli
 165 00c0 DEBF      		out __SP_H__,r29
 166 00c2 0FBE      		out __SREG__,__tmp_reg__
 167 00c4 CDBF      		out __SP_L__,r28
 168 00c6 DF91      		pop r29
 169 00c8 CF91      		pop r28
 170 00ca 0895      		ret
 171               		.cfi_endproc
 172               	.LFE8:
 174               	.global	stallMonitor_update
 176               	stallMonitor_update:
 177               	.LFB9:
 178               		.file 2 "lp_solve_5.5/lp_simplex.c"
   1:lp_solve_5.5/lp_simplex.c **** 
   2:lp_solve_5.5/lp_simplex.c **** /*
   3:lp_solve_5.5/lp_simplex.c ****     Core optimization drivers for lp_solve v5.0+
   4:lp_solve_5.5/lp_simplex.c ****    ----------------------------------------------------------------------------------
   5:lp_solve_5.5/lp_simplex.c ****     Author:        Michel Berkelaar (to lp_solve v3.2),
   6:lp_solve_5.5/lp_simplex.c ****                    Kjell Eikland    (v4.0 and forward)
   7:lp_solve_5.5/lp_simplex.c ****     Contact:
   8:lp_solve_5.5/lp_simplex.c ****     License terms: LGPL.
   9:lp_solve_5.5/lp_simplex.c **** 
  10:lp_solve_5.5/lp_simplex.c ****     Requires:      lp_lib.h, lp_simplex.h, lp_presolve.h, lp_pricerPSE.h
  11:lp_solve_5.5/lp_simplex.c **** 
  12:lp_solve_5.5/lp_simplex.c ****     Release notes:
  13:lp_solve_5.5/lp_simplex.c ****     v5.0.0  1 January 2004      New unit applying stacked basis and bounds storage.
  14:lp_solve_5.5/lp_simplex.c ****     v5.0.1 31 January 2004      Moved B&B routines to separate file and implemented
  15:lp_solve_5.5/lp_simplex.c ****                                 a new runsolver() general purpose call method.
  16:lp_solve_5.5/lp_simplex.c ****     v5.0.2  1 May 2004          Changed routine names to be more intuitive.
  17:lp_solve_5.5/lp_simplex.c ****     v5.1.0  10 January 2005     Created modular stalling/cycling functions.
  18:lp_solve_5.5/lp_simplex.c ****                                 Rewrote dualloop() to optimize long dual and
  19:lp_solve_5.5/lp_simplex.c ****                                 also streamlined primloop() correspondingly.
  20:lp_solve_5.5/lp_simplex.c ****     v5.2.0  20 March 2005       Reimplemented primal phase 1 logic.
  21:lp_solve_5.5/lp_simplex.c ****                                 Made multiple pricing finally work (primal simplex).
  22:lp_solve_5.5/lp_simplex.c **** 
  23:lp_solve_5.5/lp_simplex.c ****    ----------------------------------------------------------------------------------
  24:lp_solve_5.5/lp_simplex.c **** */
  25:lp_solve_5.5/lp_simplex.c **** 
  26:lp_solve_5.5/lp_simplex.c **** #include <string.h>
  27:lp_solve_5.5/lp_simplex.c **** #include "commonlib.h"
  28:lp_solve_5.5/lp_simplex.c **** #include "lp_lib.h"
  29:lp_solve_5.5/lp_simplex.c **** #include "lp_BFP.h"
  30:lp_solve_5.5/lp_simplex.c **** #include "lp_simplex.h"
  31:lp_solve_5.5/lp_simplex.c **** #include "lp_crash.h"
  32:lp_solve_5.5/lp_simplex.c **** #include "lp_presolve.h"
  33:lp_solve_5.5/lp_simplex.c **** #include "lp_price.h"
  34:lp_solve_5.5/lp_simplex.c **** #include "lp_pricePSE.h"
  35:lp_solve_5.5/lp_simplex.c **** #include "lp_report.h"
  36:lp_solve_5.5/lp_simplex.c **** 
  37:lp_solve_5.5/lp_simplex.c **** #ifdef FORTIFY
  38:lp_solve_5.5/lp_simplex.c **** # include "lp_fortify.h"
  39:lp_solve_5.5/lp_simplex.c **** #endif
  40:lp_solve_5.5/lp_simplex.c **** 
  41:lp_solve_5.5/lp_simplex.c **** 
  42:lp_solve_5.5/lp_simplex.c **** STATIC void stallMonitor_update(lprec *lp, REAL newOF)
  43:lp_solve_5.5/lp_simplex.c **** {
 179               		.loc 2 43 0
 180               		.cfi_startproc
 181 00cc CF93      		push r28
 182               	.LCFI8:
 183               		.cfi_def_cfa_offset 3
 184               		.cfi_offset 28, -2
 185 00ce DF93      		push r29
 186               	.LCFI9:
 187               		.cfi_def_cfa_offset 4
 188               		.cfi_offset 29, -3
 189 00d0 CDB7      		in r28,__SP_L__
 190 00d2 DEB7      		in r29,__SP_H__
 191               	.LCFI10:
 192               		.cfi_def_cfa_register 28
 193 00d4 2A97      		sbiw r28,10
 194               	.LCFI11:
 195               		.cfi_def_cfa_offset 14
 196 00d6 0FB6      		in __tmp_reg__,__SREG__
 197 00d8 F894      		cli
 198 00da DEBF      		out __SP_H__,r29
 199 00dc 0FBE      		out __SREG__,__tmp_reg__
 200 00de CDBF      		out __SP_L__,r28
 201               	/* prologue: function */
 202               	/* frame size = 10 */
 203               	/* stack size = 12 */
 204               	.L__stack_usage = 12
 205 00e0 9E83      		std Y+6,r25
 206 00e2 8D83      		std Y+5,r24
 207 00e4 4F83      		std Y+7,r20
 208 00e6 5887      		std Y+8,r21
 209 00e8 6987      		std Y+9,r22
 210 00ea 7A87      		std Y+10,r23
  44:lp_solve_5.5/lp_simplex.c ****   int newpos;
  45:lp_solve_5.5/lp_simplex.c ****   OBJmonrec *monitor = lp->monitor;
 211               		.loc 2 45 0
 212 00ec 8D81      		ldd r24,Y+5
 213 00ee 9E81      		ldd r25,Y+6
 214 00f0 8E53      		subi r24,62
 215 00f2 9D4F      		sbci r25,-3
 216 00f4 FC01      		movw r30,r24
 217 00f6 8081      		ld r24,Z
 218 00f8 9181      		ldd r25,Z+1
 219 00fa 9A83      		std Y+2,r25
 220 00fc 8983      		std Y+1,r24
  46:lp_solve_5.5/lp_simplex.c **** 
  47:lp_solve_5.5/lp_simplex.c ****   if(monitor->countstep < OBJ_STEPS)
 221               		.loc 2 47 0
 222 00fe 8981      		ldd r24,Y+1
 223 0100 9A81      		ldd r25,Y+2
 224 0102 FC01      		movw r30,r24
 225 0104 828D      		ldd r24,Z+26
 226 0106 938D      		ldd r25,Z+27
 227 0108 0597      		sbiw r24,5
 228 010a 04F4      		brge .L8
  48:lp_solve_5.5/lp_simplex.c ****     monitor->countstep++;
 229               		.loc 2 48 0
 230 010c 8981      		ldd r24,Y+1
 231 010e 9A81      		ldd r25,Y+2
 232 0110 FC01      		movw r30,r24
 233 0112 828D      		ldd r24,Z+26
 234 0114 938D      		ldd r25,Z+27
 235 0116 9C01      		movw r18,r24
 236 0118 2F5F      		subi r18,-1
 237 011a 3F4F      		sbci r19,-1
 238 011c 8981      		ldd r24,Y+1
 239 011e 9A81      		ldd r25,Y+2
 240 0120 FC01      		movw r30,r24
 241 0122 338F      		std Z+27,r19
 242 0124 228F      		std Z+26,r18
 243 0126 00C0      		rjmp .L9
 244               	.L8:
  49:lp_solve_5.5/lp_simplex.c ****   else
  50:lp_solve_5.5/lp_simplex.c ****     monitor->startstep = mod(monitor->startstep + 1, OBJ_STEPS);
 245               		.loc 2 50 0
 246 0128 8981      		ldd r24,Y+1
 247 012a 9A81      		ldd r25,Y+2
 248 012c FC01      		movw r30,r24
 249 012e 848D      		ldd r24,Z+28
 250 0130 958D      		ldd r25,Z+29
 251 0132 0196      		adiw r24,1
 252 0134 65E0      		ldi r22,lo8(5)
 253 0136 70E0      		ldi r23,0
 254 0138 0E94 0000 		call mod
 255 013c 9C01      		movw r18,r24
 256 013e 8981      		ldd r24,Y+1
 257 0140 9A81      		ldd r25,Y+2
 258 0142 FC01      		movw r30,r24
 259 0144 358F      		std Z+29,r19
 260 0146 248F      		std Z+28,r18
 261               	.L9:
  51:lp_solve_5.5/lp_simplex.c ****   newpos = mod(monitor->startstep + monitor->countstep - 1, OBJ_STEPS);
 262               		.loc 2 51 0
 263 0148 8981      		ldd r24,Y+1
 264 014a 9A81      		ldd r25,Y+2
 265 014c FC01      		movw r30,r24
 266 014e 248D      		ldd r18,Z+28
 267 0150 358D      		ldd r19,Z+29
 268 0152 8981      		ldd r24,Y+1
 269 0154 9A81      		ldd r25,Y+2
 270 0156 FC01      		movw r30,r24
 271 0158 828D      		ldd r24,Z+26
 272 015a 938D      		ldd r25,Z+27
 273 015c 820F      		add r24,r18
 274 015e 931F      		adc r25,r19
 275 0160 0197      		sbiw r24,1
 276 0162 65E0      		ldi r22,lo8(5)
 277 0164 70E0      		ldi r23,0
 278 0166 0E94 0000 		call mod
 279 016a 9C83      		std Y+4,r25
 280 016c 8B83      		std Y+3,r24
  52:lp_solve_5.5/lp_simplex.c ****   monitor->objstep[newpos] = newOF;
 281               		.loc 2 52 0
 282 016e 2981      		ldd r18,Y+1
 283 0170 3A81      		ldd r19,Y+2
 284 0172 8B81      		ldd r24,Y+3
 285 0174 9C81      		ldd r25,Y+4
 286 0176 880F      		lsl r24
 287 0178 991F      		rol r25
 288 017a 880F      		lsl r24
 289 017c 991F      		rol r25
 290 017e 820F      		add r24,r18
 291 0180 931F      		adc r25,r19
 292 0182 9C01      		movw r18,r24
 293 0184 2E5C      		subi r18,-50
 294 0186 3F4F      		sbci r19,-1
 295 0188 8F81      		ldd r24,Y+7
 296 018a 9885      		ldd r25,Y+8
 297 018c A985      		ldd r26,Y+9
 298 018e BA85      		ldd r27,Y+10
 299 0190 F901      		movw r30,r18
 300 0192 8083      		st Z,r24
 301 0194 9183      		std Z+1,r25
 302 0196 A283      		std Z+2,r26
 303 0198 B383      		std Z+3,r27
  53:lp_solve_5.5/lp_simplex.c ****   monitor->idxstep[newpos] = monitor->Icount;
 304               		.loc 2 53 0
 305 019a 8981      		ldd r24,Y+1
 306 019c 9A81      		ldd r25,Y+2
 307 019e FC01      		movw r30,r24
 308 01a0 20A5      		ldd r18,Z+40
 309 01a2 31A5      		ldd r19,Z+41
 310 01a4 4981      		ldd r20,Y+1
 311 01a6 5A81      		ldd r21,Y+2
 312 01a8 8B81      		ldd r24,Y+3
 313 01aa 9C81      		ldd r25,Y+4
 314 01ac 0896      		adiw r24,8
 315 01ae 880F      		lsl r24
 316 01b0 991F      		rol r25
 317 01b2 840F      		add r24,r20
 318 01b4 951F      		adc r25,r21
 319 01b6 FC01      		movw r30,r24
 320 01b8 3183      		std Z+1,r19
 321 01ba 2083      		st Z,r18
  54:lp_solve_5.5/lp_simplex.c ****   monitor->currentstep = newpos;
 322               		.loc 2 54 0
 323 01bc 8981      		ldd r24,Y+1
 324 01be 9A81      		ldd r25,Y+2
 325 01c0 2B81      		ldd r18,Y+3
 326 01c2 3C81      		ldd r19,Y+4
 327 01c4 FC01      		movw r30,r24
 328 01c6 378F      		std Z+31,r19
 329 01c8 268F      		std Z+30,r18
  55:lp_solve_5.5/lp_simplex.c **** }
 330               		.loc 2 55 0
 331 01ca 0000      		nop
 332               	/* epilogue start */
 333 01cc 2A96      		adiw r28,10
 334 01ce 0FB6      		in __tmp_reg__,__SREG__
 335 01d0 F894      		cli
 336 01d2 DEBF      		out __SP_H__,r29
 337 01d4 0FBE      		out __SREG__,__tmp_reg__
 338 01d6 CDBF      		out __SP_L__,r28
 339 01d8 DF91      		pop r29
 340 01da CF91      		pop r28
 341 01dc 0895      		ret
 342               		.cfi_endproc
 343               	.LFE9:
 345               	.global	__subsf3
 346               	.global	__floatsisf
 347               	.global	__divsf3
 348               	.global	__nesf2
 349               	.global	__gtsf2
 350               	.global	stallMonitor_creepingObj
 352               	stallMonitor_creepingObj:
 353               	.LFB10:
  56:lp_solve_5.5/lp_simplex.c **** 
  57:lp_solve_5.5/lp_simplex.c **** STATIC MYBOOL stallMonitor_creepingObj(lprec *lp)
  58:lp_solve_5.5/lp_simplex.c **** {
 354               		.loc 2 58 0
 355               		.cfi_startproc
 356 01de CF92      		push r12
 357               	.LCFI12:
 358               		.cfi_def_cfa_offset 3
 359               		.cfi_offset 12, -2
 360 01e0 DF92      		push r13
 361               	.LCFI13:
 362               		.cfi_def_cfa_offset 4
 363               		.cfi_offset 13, -3
 364 01e2 EF92      		push r14
 365               	.LCFI14:
 366               		.cfi_def_cfa_offset 5
 367               		.cfi_offset 14, -4
 368 01e4 FF92      		push r15
 369               	.LCFI15:
 370               		.cfi_def_cfa_offset 6
 371               		.cfi_offset 15, -5
 372 01e6 1F93      		push r17
 373               	.LCFI16:
 374               		.cfi_def_cfa_offset 7
 375               		.cfi_offset 17, -6
 376 01e8 CF93      		push r28
 377               	.LCFI17:
 378               		.cfi_def_cfa_offset 8
 379               		.cfi_offset 28, -7
 380 01ea DF93      		push r29
 381               	.LCFI18:
 382               		.cfi_def_cfa_offset 9
 383               		.cfi_offset 29, -8
 384 01ec CDB7      		in r28,__SP_L__
 385 01ee DEB7      		in r29,__SP_H__
 386               	.LCFI19:
 387               		.cfi_def_cfa_register 28
 388 01f0 2897      		sbiw r28,8
 389               	.LCFI20:
 390               		.cfi_def_cfa_offset 17
 391 01f2 0FB6      		in __tmp_reg__,__SREG__
 392 01f4 F894      		cli
 393 01f6 DEBF      		out __SP_H__,r29
 394 01f8 0FBE      		out __SREG__,__tmp_reg__
 395 01fa CDBF      		out __SP_L__,r28
 396               	/* prologue: function */
 397               	/* frame size = 8 */
 398               	/* stack size = 15 */
 399               	.L__stack_usage = 15
 400 01fc 9887      		std Y+8,r25
 401 01fe 8F83      		std Y+7,r24
  59:lp_solve_5.5/lp_simplex.c ****   OBJmonrec *monitor = lp->monitor;
 402               		.loc 2 59 0
 403 0200 8F81      		ldd r24,Y+7
 404 0202 9885      		ldd r25,Y+8
 405 0204 8E53      		subi r24,62
 406 0206 9D4F      		sbci r25,-3
 407 0208 FC01      		movw r30,r24
 408 020a 8081      		ld r24,Z
 409 020c 9181      		ldd r25,Z+1
 410 020e 9A83      		std Y+2,r25
 411 0210 8983      		std Y+1,r24
  60:lp_solve_5.5/lp_simplex.c **** 
  61:lp_solve_5.5/lp_simplex.c ****   if(monitor->countstep > 1) {
 412               		.loc 2 61 0
 413 0212 8981      		ldd r24,Y+1
 414 0214 9A81      		ldd r25,Y+2
 415 0216 FC01      		movw r30,r24
 416 0218 828D      		ldd r24,Z+26
 417 021a 938D      		ldd r25,Z+27
 418 021c 0297      		sbiw r24,2
 419 021e 04F4      		brge .+2
 420 0220 00C0      		rjmp .L11
 421               	.LBB2:
  62:lp_solve_5.5/lp_simplex.c ****     REAL deltaOF = (monitor->objstep[monitor->currentstep] -
 422               		.loc 2 62 0
 423 0222 8981      		ldd r24,Y+1
 424 0224 9A81      		ldd r25,Y+2
 425 0226 FC01      		movw r30,r24
 426 0228 868D      		ldd r24,Z+30
 427 022a 978D      		ldd r25,Z+31
 428 022c 2981      		ldd r18,Y+1
 429 022e 3A81      		ldd r19,Y+2
 430 0230 880F      		lsl r24
 431 0232 991F      		rol r25
 432 0234 880F      		lsl r24
 433 0236 991F      		rol r25
 434 0238 820F      		add r24,r18
 435 023a 931F      		adc r25,r19
 436 023c C296      		adiw r24,50
 437 023e FC01      		movw r30,r24
 438 0240 8081      		ld r24,Z
 439 0242 9181      		ldd r25,Z+1
 440 0244 A281      		ldd r26,Z+2
 441 0246 B381      		ldd r27,Z+3
  63:lp_solve_5.5/lp_simplex.c ****                     monitor->objstep[monitor->startstep]) / monitor->countstep;
 442               		.loc 2 63 0
 443 0248 2981      		ldd r18,Y+1
 444 024a 3A81      		ldd r19,Y+2
 445 024c F901      		movw r30,r18
 446 024e 248D      		ldd r18,Z+28
 447 0250 358D      		ldd r19,Z+29
 448 0252 4981      		ldd r20,Y+1
 449 0254 5A81      		ldd r21,Y+2
 450 0256 220F      		lsl r18
 451 0258 331F      		rol r19
 452 025a 220F      		lsl r18
 453 025c 331F      		rol r19
 454 025e 240F      		add r18,r20
 455 0260 351F      		adc r19,r21
 456 0262 2E5C      		subi r18,-50
 457 0264 3F4F      		sbci r19,-1
 458 0266 F901      		movw r30,r18
 459 0268 2081      		ld r18,Z
 460 026a 3181      		ldd r19,Z+1
 461 026c 4281      		ldd r20,Z+2
 462 026e 5381      		ldd r21,Z+3
  62:lp_solve_5.5/lp_simplex.c ****     REAL deltaOF = (monitor->objstep[monitor->currentstep] -
 463               		.loc 2 62 0
 464 0270 BC01      		movw r22,r24
 465 0272 CD01      		movw r24,r26
 466 0274 0E94 0000 		call __subsf3
 467 0278 DC01      		movw r26,r24
 468 027a CB01      		movw r24,r22
 469 027c 6C01      		movw r12,r24
 470 027e 7D01      		movw r14,r26
 471               		.loc 2 63 0
 472 0280 8981      		ldd r24,Y+1
 473 0282 9A81      		ldd r25,Y+2
 474 0284 FC01      		movw r30,r24
 475 0286 828D      		ldd r24,Z+26
 476 0288 938D      		ldd r25,Z+27
 477 028a 092E      		mov __tmp_reg__,r25
 478 028c 000C      		lsl r0
 479 028e AA0B      		sbc r26,r26
 480 0290 BB0B      		sbc r27,r27
 481 0292 BC01      		movw r22,r24
 482 0294 CD01      		movw r24,r26
 483 0296 0E94 0000 		call __floatsisf
 484 029a DC01      		movw r26,r24
 485 029c CB01      		movw r24,r22
  62:lp_solve_5.5/lp_simplex.c ****     REAL deltaOF = (monitor->objstep[monitor->currentstep] -
 486               		.loc 2 62 0
 487 029e 9C01      		movw r18,r24
 488 02a0 AD01      		movw r20,r26
 489 02a2 C701      		movw r24,r14
 490 02a4 B601      		movw r22,r12
 491 02a6 0E94 0000 		call __divsf3
 492 02aa DC01      		movw r26,r24
 493 02ac CB01      		movw r24,r22
 494 02ae 8B83      		std Y+3,r24
 495 02b0 9C83      		std Y+4,r25
 496 02b2 AD83      		std Y+5,r26
 497 02b4 BE83      		std Y+6,r27
  64:lp_solve_5.5/lp_simplex.c ****     deltaOF /= MAX(1, (monitor->idxstep[monitor->currentstep] -
 498               		.loc 2 64 0
 499 02b6 8981      		ldd r24,Y+1
 500 02b8 9A81      		ldd r25,Y+2
 501 02ba FC01      		movw r30,r24
 502 02bc 868D      		ldd r24,Z+30
 503 02be 978D      		ldd r25,Z+31
 504 02c0 2981      		ldd r18,Y+1
 505 02c2 3A81      		ldd r19,Y+2
 506 02c4 0896      		adiw r24,8
 507 02c6 880F      		lsl r24
 508 02c8 991F      		rol r25
 509 02ca 820F      		add r24,r18
 510 02cc 931F      		adc r25,r19
 511 02ce FC01      		movw r30,r24
 512 02d0 2081      		ld r18,Z
 513 02d2 3181      		ldd r19,Z+1
 514 02d4 8981      		ldd r24,Y+1
 515 02d6 9A81      		ldd r25,Y+2
 516 02d8 FC01      		movw r30,r24
 517 02da 848D      		ldd r24,Z+28
 518 02dc 958D      		ldd r25,Z+29
 519 02de 4981      		ldd r20,Y+1
 520 02e0 5A81      		ldd r21,Y+2
 521 02e2 0896      		adiw r24,8
 522 02e4 880F      		lsl r24
 523 02e6 991F      		rol r25
 524 02e8 840F      		add r24,r20
 525 02ea 951F      		adc r25,r21
 526 02ec FC01      		movw r30,r24
 527 02ee 8081      		ld r24,Z
 528 02f0 9181      		ldd r25,Z+1
 529 02f2 A901      		movw r20,r18
 530 02f4 481B      		sub r20,r24
 531 02f6 590B      		sbc r21,r25
 532 02f8 CA01      		movw r24,r20
 533 02fa 1816      		cp __zero_reg__,r24
 534 02fc 1906      		cpc __zero_reg__,r25
 535 02fe 04F4      		brge .L12
 536               		.loc 2 64 0 is_stmt 0 discriminator 1
 537 0300 8981      		ldd r24,Y+1
 538 0302 9A81      		ldd r25,Y+2
 539 0304 FC01      		movw r30,r24
 540 0306 868D      		ldd r24,Z+30
 541 0308 978D      		ldd r25,Z+31
 542 030a 2981      		ldd r18,Y+1
 543 030c 3A81      		ldd r19,Y+2
 544 030e 0896      		adiw r24,8
 545 0310 880F      		lsl r24
 546 0312 991F      		rol r25
 547 0314 820F      		add r24,r18
 548 0316 931F      		adc r25,r19
 549 0318 FC01      		movw r30,r24
 550 031a 2081      		ld r18,Z
 551 031c 3181      		ldd r19,Z+1
 552 031e 8981      		ldd r24,Y+1
 553 0320 9A81      		ldd r25,Y+2
 554 0322 FC01      		movw r30,r24
 555 0324 848D      		ldd r24,Z+28
 556 0326 958D      		ldd r25,Z+29
 557 0328 4981      		ldd r20,Y+1
 558 032a 5A81      		ldd r21,Y+2
 559 032c 0896      		adiw r24,8
 560 032e 880F      		lsl r24
 561 0330 991F      		rol r25
 562 0332 840F      		add r24,r20
 563 0334 951F      		adc r25,r21
 564 0336 FC01      		movw r30,r24
 565 0338 8081      		ld r24,Z
 566 033a 9181      		ldd r25,Z+1
 567 033c A901      		movw r20,r18
 568 033e 481B      		sub r20,r24
 569 0340 590B      		sbc r21,r25
 570 0342 CA01      		movw r24,r20
 571 0344 092E      		mov __tmp_reg__,r25
 572 0346 000C      		lsl r0
 573 0348 AA0B      		sbc r26,r26
 574 034a BB0B      		sbc r27,r27
 575 034c BC01      		movw r22,r24
 576 034e CD01      		movw r24,r26
 577 0350 0E94 0000 		call __floatsisf
 578 0354 DC01      		movw r26,r24
 579 0356 CB01      		movw r24,r22
 580 0358 00C0      		rjmp .L13
 581               	.L12:
 582               		.loc 2 64 0 discriminator 2
 583 035a 80E0      		ldi r24,0
 584 035c 90E0      		ldi r25,0
 585 035e A0E8      		ldi r26,lo8(-128)
 586 0360 BFE3      		ldi r27,lo8(63)
 587               	.L13:
 588               		.loc 2 64 0 discriminator 4
 589 0362 9C01      		movw r18,r24
 590 0364 AD01      		movw r20,r26
 591 0366 6B81      		ldd r22,Y+3
 592 0368 7C81      		ldd r23,Y+4
 593 036a 8D81      		ldd r24,Y+5
 594 036c 9E81      		ldd r25,Y+6
 595 036e 0E94 0000 		call __divsf3
 596 0372 DC01      		movw r26,r24
 597 0374 CB01      		movw r24,r22
 598 0376 8B83      		std Y+3,r24
 599 0378 9C83      		std Y+4,r25
 600 037a AD83      		std Y+5,r26
 601 037c BE83      		std Y+6,r27
  65:lp_solve_5.5/lp_simplex.c ****                        monitor->idxstep[monitor->startstep]));
  66:lp_solve_5.5/lp_simplex.c ****     deltaOF = my_chsign(monitor->isdual, deltaOF);
 602               		.loc 2 66 0 is_stmt 1 discriminator 4
 603 037e 8981      		ldd r24,Y+1
 604 0380 9A81      		ldd r25,Y+2
 605 0382 835A      		subi r24,-93
 606 0384 9F4F      		sbci r25,-1
 607 0386 FC01      		movw r30,r24
 608 0388 8081      		ld r24,Z
 609 038a 8823      		tst r24
 610 038c 01F0      		breq .L14
 611               		.loc 2 66 0 is_stmt 0 discriminator 1
 612 038e 20E0      		ldi r18,0
 613 0390 30E0      		ldi r19,0
 614 0392 A901      		movw r20,r18
 615 0394 6B81      		ldd r22,Y+3
 616 0396 7C81      		ldd r23,Y+4
 617 0398 8D81      		ldd r24,Y+5
 618 039a 9E81      		ldd r25,Y+6
 619 039c 0E94 0000 		call __nesf2
 620 03a0 8823      		tst r24
 621 03a2 01F0      		breq .L14
 622               		.loc 2 66 0 discriminator 3
 623 03a4 8B81      		ldd r24,Y+3
 624 03a6 9C81      		ldd r25,Y+4
 625 03a8 AD81      		ldd r26,Y+5
 626 03aa BE81      		ldd r27,Y+6
 627 03ac B058      		subi r27,0x80
 628 03ae 00C0      		rjmp .L16
 629               	.L14:
 630               		.loc 2 66 0 discriminator 4
 631 03b0 8B81      		ldd r24,Y+3
 632 03b2 9C81      		ldd r25,Y+4
 633 03b4 AD81      		ldd r26,Y+5
 634 03b6 BE81      		ldd r27,Y+6
 635               	.L16:
 636               		.loc 2 66 0 discriminator 6
 637 03b8 8B83      		std Y+3,r24
 638 03ba 9C83      		std Y+4,r25
 639 03bc AD83      		std Y+5,r26
 640 03be BE83      		std Y+6,r27
  67:lp_solve_5.5/lp_simplex.c ****     return( (MYBOOL) (deltaOF < monitor->epsvalue) );
 641               		.loc 2 67 0 is_stmt 1 discriminator 6
 642 03c0 8981      		ldd r24,Y+1
 643 03c2 9A81      		ldd r25,Y+2
 644 03c4 825B      		subi r24,-78
 645 03c6 9F4F      		sbci r25,-1
 646 03c8 FC01      		movw r30,r24
 647 03ca 8081      		ld r24,Z
 648 03cc 9181      		ldd r25,Z+1
 649 03ce A281      		ldd r26,Z+2
 650 03d0 B381      		ldd r27,Z+3
 651 03d2 11E0      		ldi r17,lo8(1)
 652 03d4 2B81      		ldd r18,Y+3
 653 03d6 3C81      		ldd r19,Y+4
 654 03d8 4D81      		ldd r20,Y+5
 655 03da 5E81      		ldd r21,Y+6
 656 03dc BC01      		movw r22,r24
 657 03de CD01      		movw r24,r26
 658 03e0 0E94 0000 		call __gtsf2
 659 03e4 1816      		cp __zero_reg__,r24
 660 03e6 04F0      		brlt .L17
 661 03e8 10E0      		ldi r17,0
 662               	.L17:
 663 03ea 812F      		mov r24,r17
 664 03ec 00C0      		rjmp .L18
 665               	.L11:
 666               	.LBE2:
  68:lp_solve_5.5/lp_simplex.c ****   }
  69:lp_solve_5.5/lp_simplex.c ****   else
  70:lp_solve_5.5/lp_simplex.c ****     return( FALSE );
 667               		.loc 2 70 0
 668 03ee 80E0      		ldi r24,0
 669               	.L18:
 670               	/* epilogue start */
  71:lp_solve_5.5/lp_simplex.c **** }
 671               		.loc 2 71 0
 672 03f0 2896      		adiw r28,8
 673 03f2 0FB6      		in __tmp_reg__,__SREG__
 674 03f4 F894      		cli
 675 03f6 DEBF      		out __SP_H__,r29
 676 03f8 0FBE      		out __SREG__,__tmp_reg__
 677 03fa CDBF      		out __SP_L__,r28
 678 03fc DF91      		pop r29
 679 03fe CF91      		pop r28
 680 0400 1F91      		pop r17
 681 0402 FF90      		pop r15
 682 0404 EF90      		pop r14
 683 0406 DF90      		pop r13
 684 0408 CF90      		pop r12
 685 040a 0895      		ret
 686               		.cfi_endproc
 687               	.LFE10:
 689               	.global	__mulsf3
 690               	.global	__ltsf2
 691               	.global	stallMonitor_shortSteps
 693               	stallMonitor_shortSteps:
 694               	.LFB11:
  72:lp_solve_5.5/lp_simplex.c **** 
  73:lp_solve_5.5/lp_simplex.c **** STATIC MYBOOL stallMonitor_shortSteps(lprec *lp)
  74:lp_solve_5.5/lp_simplex.c **** {
 695               		.loc 2 74 0
 696               		.cfi_startproc
 697 040c 1F93      		push r17
 698               	.LCFI21:
 699               		.cfi_def_cfa_offset 3
 700               		.cfi_offset 17, -2
 701 040e CF93      		push r28
 702               	.LCFI22:
 703               		.cfi_def_cfa_offset 4
 704               		.cfi_offset 28, -3
 705 0410 DF93      		push r29
 706               	.LCFI23:
 707               		.cfi_def_cfa_offset 5
 708               		.cfi_offset 29, -4
 709 0412 CDB7      		in r28,__SP_L__
 710 0414 DEB7      		in r29,__SP_H__
 711               	.LCFI24:
 712               		.cfi_def_cfa_register 28
 713 0416 2897      		sbiw r28,8
 714               	.LCFI25:
 715               		.cfi_def_cfa_offset 13
 716 0418 0FB6      		in __tmp_reg__,__SREG__
 717 041a F894      		cli
 718 041c DEBF      		out __SP_H__,r29
 719 041e 0FBE      		out __SREG__,__tmp_reg__
 720 0420 CDBF      		out __SP_L__,r28
 721               	/* prologue: function */
 722               	/* frame size = 8 */
 723               	/* stack size = 11 */
 724               	.L__stack_usage = 11
 725 0422 9887      		std Y+8,r25
 726 0424 8F83      		std Y+7,r24
  75:lp_solve_5.5/lp_simplex.c ****   OBJmonrec *monitor = lp->monitor;
 727               		.loc 2 75 0
 728 0426 8F81      		ldd r24,Y+7
 729 0428 9885      		ldd r25,Y+8
 730 042a 8E53      		subi r24,62
 731 042c 9D4F      		sbci r25,-3
 732 042e FC01      		movw r30,r24
 733 0430 8081      		ld r24,Z
 734 0432 9181      		ldd r25,Z+1
 735 0434 9A83      		std Y+2,r25
 736 0436 8983      		std Y+1,r24
  76:lp_solve_5.5/lp_simplex.c **** 
  77:lp_solve_5.5/lp_simplex.c ****   if(monitor->countstep == OBJ_STEPS) {
 737               		.loc 2 77 0
 738 0438 8981      		ldd r24,Y+1
 739 043a 9A81      		ldd r25,Y+2
 740 043c FC01      		movw r30,r24
 741 043e 828D      		ldd r24,Z+26
 742 0440 938D      		ldd r25,Z+27
 743 0442 0597      		sbiw r24,5
 744 0444 01F0      		breq .+2
 745 0446 00C0      		rjmp .L21
 746               	.LBB3:
  78:lp_solve_5.5/lp_simplex.c ****     REAL deltaOF = MAX(1, (monitor->idxstep[monitor->currentstep] -
 747               		.loc 2 78 0
 748 0448 8981      		ldd r24,Y+1
 749 044a 9A81      		ldd r25,Y+2
 750 044c FC01      		movw r30,r24
 751 044e 868D      		ldd r24,Z+30
 752 0450 978D      		ldd r25,Z+31
 753 0452 2981      		ldd r18,Y+1
 754 0454 3A81      		ldd r19,Y+2
 755 0456 0896      		adiw r24,8
 756 0458 880F      		lsl r24
 757 045a 991F      		rol r25
 758 045c 820F      		add r24,r18
 759 045e 931F      		adc r25,r19
 760 0460 FC01      		movw r30,r24
 761 0462 2081      		ld r18,Z
 762 0464 3181      		ldd r19,Z+1
 763 0466 8981      		ldd r24,Y+1
 764 0468 9A81      		ldd r25,Y+2
 765 046a FC01      		movw r30,r24
 766 046c 848D      		ldd r24,Z+28
 767 046e 958D      		ldd r25,Z+29
 768 0470 4981      		ldd r20,Y+1
 769 0472 5A81      		ldd r21,Y+2
 770 0474 0896      		adiw r24,8
 771 0476 880F      		lsl r24
 772 0478 991F      		rol r25
 773 047a 840F      		add r24,r20
 774 047c 951F      		adc r25,r21
 775 047e FC01      		movw r30,r24
 776 0480 8081      		ld r24,Z
 777 0482 9181      		ldd r25,Z+1
 778 0484 A901      		movw r20,r18
 779 0486 481B      		sub r20,r24
 780 0488 590B      		sbc r21,r25
 781 048a CA01      		movw r24,r20
 782 048c 1816      		cp __zero_reg__,r24
 783 048e 1906      		cpc __zero_reg__,r25
 784 0490 04F0      		brlt .L22
 785 0492 81E0      		ldi r24,lo8(1)
 786 0494 90E0      		ldi r25,0
 787               	.L22:
  79:lp_solve_5.5/lp_simplex.c ****                            monitor->idxstep[monitor->startstep])) / monitor->countstep;
 788               		.loc 2 79 0
 789 0496 2981      		ldd r18,Y+1
 790 0498 3A81      		ldd r19,Y+2
 791 049a F901      		movw r30,r18
 792 049c 228D      		ldd r18,Z+26
 793 049e 338D      		ldd r19,Z+27
 794 04a0 B901      		movw r22,r18
 795 04a2 0E94 0000 		call __divmodhi4
 796 04a6 CB01      		movw r24,r22
  78:lp_solve_5.5/lp_simplex.c ****     REAL deltaOF = MAX(1, (monitor->idxstep[monitor->currentstep] -
 797               		.loc 2 78 0
 798 04a8 092E      		mov __tmp_reg__,r25
 799 04aa 000C      		lsl r0
 800 04ac AA0B      		sbc r26,r26
 801 04ae BB0B      		sbc r27,r27
 802 04b0 BC01      		movw r22,r24
 803 04b2 CD01      		movw r24,r26
 804 04b4 0E94 0000 		call __floatsisf
 805 04b8 DC01      		movw r26,r24
 806 04ba CB01      		movw r24,r22
 807 04bc 8B83      		std Y+3,r24
 808 04be 9C83      		std Y+4,r25
 809 04c0 AD83      		std Y+5,r26
 810 04c2 BE83      		std Y+6,r27
  80:lp_solve_5.5/lp_simplex.c ****     deltaOF = pow(deltaOF*OBJ_STEPS, 0.66);
 811               		.loc 2 80 0
 812 04c4 20E0      		ldi r18,0
 813 04c6 30E0      		ldi r19,0
 814 04c8 40EA      		ldi r20,lo8(-96)
 815 04ca 50E4      		ldi r21,lo8(64)
 816 04cc 6B81      		ldd r22,Y+3
 817 04ce 7C81      		ldd r23,Y+4
 818 04d0 8D81      		ldd r24,Y+5
 819 04d2 9E81      		ldd r25,Y+6
 820 04d4 0E94 0000 		call __mulsf3
 821 04d8 DC01      		movw r26,r24
 822 04da CB01      		movw r24,r22
 823 04dc 23EC      		ldi r18,lo8(-61)
 824 04de 35EF      		ldi r19,lo8(-11)
 825 04e0 48E2      		ldi r20,lo8(40)
 826 04e2 5FE3      		ldi r21,lo8(63)
 827 04e4 BC01      		movw r22,r24
 828 04e6 CD01      		movw r24,r26
 829 04e8 0E94 0000 		call pow
 830 04ec DC01      		movw r26,r24
 831 04ee CB01      		movw r24,r22
 832 04f0 8B83      		std Y+3,r24
 833 04f2 9C83      		std Y+4,r25
 834 04f4 AD83      		std Y+5,r26
 835 04f6 BE83      		std Y+6,r27
  81:lp_solve_5.5/lp_simplex.c ****     return( (MYBOOL) (deltaOF > monitor->limitstall[TRUE]) );
 836               		.loc 2 81 0
 837 04f8 8981      		ldd r24,Y+1
 838 04fa 9A81      		ldd r25,Y+2
 839 04fc FC01      		movw r30,r24
 840 04fe 8485      		ldd r24,Z+12
 841 0500 9585      		ldd r25,Z+13
 842 0502 092E      		mov __tmp_reg__,r25
 843 0504 000C      		lsl r0
 844 0506 AA0B      		sbc r26,r26
 845 0508 BB0B      		sbc r27,r27
 846 050a BC01      		movw r22,r24
 847 050c CD01      		movw r24,r26
 848 050e 0E94 0000 		call __floatsisf
 849 0512 DC01      		movw r26,r24
 850 0514 CB01      		movw r24,r22
 851 0516 11E0      		ldi r17,lo8(1)
 852 0518 2B81      		ldd r18,Y+3
 853 051a 3C81      		ldd r19,Y+4
 854 051c 4D81      		ldd r20,Y+5
 855 051e 5E81      		ldd r21,Y+6
 856 0520 BC01      		movw r22,r24
 857 0522 CD01      		movw r24,r26
 858 0524 0E94 0000 		call __ltsf2
 859 0528 8823      		tst r24
 860 052a 04F0      		brlt .L23
 861 052c 10E0      		ldi r17,0
 862               	.L23:
 863 052e 812F      		mov r24,r17
 864 0530 00C0      		rjmp .L24
 865               	.L21:
 866               	.LBE3:
  82:lp_solve_5.5/lp_simplex.c ****   }
  83:lp_solve_5.5/lp_simplex.c ****   else
  84:lp_solve_5.5/lp_simplex.c ****     return( FALSE );
 867               		.loc 2 84 0
 868 0532 80E0      		ldi r24,0
 869               	.L24:
 870               	/* epilogue start */
  85:lp_solve_5.5/lp_simplex.c **** }
 871               		.loc 2 85 0
 872 0534 2896      		adiw r28,8
 873 0536 0FB6      		in __tmp_reg__,__SREG__
 874 0538 F894      		cli
 875 053a DEBF      		out __SP_H__,r29
 876 053c 0FBE      		out __SREG__,__tmp_reg__
 877 053e CDBF      		out __SP_L__,r28
 878 0540 DF91      		pop r29
 879 0542 CF91      		pop r28
 880 0544 1F91      		pop r17
 881 0546 0895      		ret
 882               		.cfi_endproc
 883               	.LFE11:
 885               	.global	stallMonitor_reset
 887               	stallMonitor_reset:
 888               	.LFB12:
  86:lp_solve_5.5/lp_simplex.c **** 
  87:lp_solve_5.5/lp_simplex.c **** STATIC void stallMonitor_reset(lprec *lp)
  88:lp_solve_5.5/lp_simplex.c **** {
 889               		.loc 2 88 0
 890               		.cfi_startproc
 891 0548 CF93      		push r28
 892               	.LCFI26:
 893               		.cfi_def_cfa_offset 3
 894               		.cfi_offset 28, -2
 895 054a DF93      		push r29
 896               	.LCFI27:
 897               		.cfi_def_cfa_offset 4
 898               		.cfi_offset 29, -3
 899 054c 00D0      		rcall .
 900 054e 00D0      		rcall .
 901               	.LCFI28:
 902               		.cfi_def_cfa_offset 8
 903 0550 CDB7      		in r28,__SP_L__
 904 0552 DEB7      		in r29,__SP_H__
 905               	.LCFI29:
 906               		.cfi_def_cfa_register 28
 907               	/* prologue: function */
 908               	/* frame size = 4 */
 909               	/* stack size = 6 */
 910               	.L__stack_usage = 6
 911 0554 9C83      		std Y+4,r25
 912 0556 8B83      		std Y+3,r24
  89:lp_solve_5.5/lp_simplex.c ****   OBJmonrec *monitor = lp->monitor;
 913               		.loc 2 89 0
 914 0558 8B81      		ldd r24,Y+3
 915 055a 9C81      		ldd r25,Y+4
 916 055c 8E53      		subi r24,62
 917 055e 9D4F      		sbci r25,-3
 918 0560 FC01      		movw r30,r24
 919 0562 8081      		ld r24,Z
 920 0564 9181      		ldd r25,Z+1
 921 0566 9A83      		std Y+2,r25
 922 0568 8983      		std Y+1,r24
  90:lp_solve_5.5/lp_simplex.c **** 
  91:lp_solve_5.5/lp_simplex.c ****   monitor->ruleswitches = 0;
 923               		.loc 2 91 0
 924 056a 8981      		ldd r24,Y+1
 925 056c 9A81      		ldd r25,Y+2
 926 056e FC01      		movw r30,r24
 927 0570 1186      		std Z+9,__zero_reg__
 928 0572 1086      		std Z+8,__zero_reg__
  92:lp_solve_5.5/lp_simplex.c ****   monitor->Ncycle = 0;
 929               		.loc 2 92 0
 930 0574 8981      		ldd r24,Y+1
 931 0576 9A81      		ldd r25,Y+2
 932 0578 FC01      		movw r30,r24
 933 057a 15A2      		std Z+37,__zero_reg__
 934 057c 14A2      		std Z+36,__zero_reg__
  93:lp_solve_5.5/lp_simplex.c ****   monitor->Mcycle = 0;
 935               		.loc 2 93 0
 936 057e 8981      		ldd r24,Y+1
 937 0580 9A81      		ldd r25,Y+2
 938 0582 FC01      		movw r30,r24
 939 0584 17A2      		std Z+39,__zero_reg__
 940 0586 16A2      		std Z+38,__zero_reg__
  94:lp_solve_5.5/lp_simplex.c ****   monitor->Icount = 0;
 941               		.loc 2 94 0
 942 0588 8981      		ldd r24,Y+1
 943 058a 9A81      		ldd r25,Y+2
 944 058c FC01      		movw r30,r24
 945 058e 11A6      		std Z+41,__zero_reg__
 946 0590 10A6      		std Z+40,__zero_reg__
  95:lp_solve_5.5/lp_simplex.c ****   monitor->startstep = 0;
 947               		.loc 2 95 0
 948 0592 8981      		ldd r24,Y+1
 949 0594 9A81      		ldd r25,Y+2
 950 0596 FC01      		movw r30,r24
 951 0598 158E      		std Z+29,__zero_reg__
 952 059a 148E      		std Z+28,__zero_reg__
  96:lp_solve_5.5/lp_simplex.c ****   monitor->objstep[monitor->startstep] = lp->infinite;
 953               		.loc 2 96 0
 954 059c 8981      		ldd r24,Y+1
 955 059e 9A81      		ldd r25,Y+2
 956 05a0 FC01      		movw r30,r24
 957 05a2 248D      		ldd r18,Z+28
 958 05a4 358D      		ldd r19,Z+29
 959 05a6 8B81      		ldd r24,Y+3
 960 05a8 9C81      		ldd r25,Y+4
 961 05aa 865F      		subi r24,-10
 962 05ac 9C4F      		sbci r25,-4
 963 05ae FC01      		movw r30,r24
 964 05b0 8081      		ld r24,Z
 965 05b2 9181      		ldd r25,Z+1
 966 05b4 A281      		ldd r26,Z+2
 967 05b6 B381      		ldd r27,Z+3
 968 05b8 4981      		ldd r20,Y+1
 969 05ba 5A81      		ldd r21,Y+2
 970 05bc 220F      		lsl r18
 971 05be 331F      		rol r19
 972 05c0 220F      		lsl r18
 973 05c2 331F      		rol r19
 974 05c4 240F      		add r18,r20
 975 05c6 351F      		adc r19,r21
 976 05c8 2E5C      		subi r18,-50
 977 05ca 3F4F      		sbci r19,-1
 978 05cc F901      		movw r30,r18
 979 05ce 8083      		st Z,r24
 980 05d0 9183      		std Z+1,r25
 981 05d2 A283      		std Z+2,r26
 982 05d4 B383      		std Z+3,r27
  97:lp_solve_5.5/lp_simplex.c ****   monitor->idxstep[monitor->startstep] = monitor->Icount;
 983               		.loc 2 97 0
 984 05d6 8981      		ldd r24,Y+1
 985 05d8 9A81      		ldd r25,Y+2
 986 05da FC01      		movw r30,r24
 987 05dc 848D      		ldd r24,Z+28
 988 05de 958D      		ldd r25,Z+29
 989 05e0 2981      		ldd r18,Y+1
 990 05e2 3A81      		ldd r19,Y+2
 991 05e4 F901      		movw r30,r18
 992 05e6 20A5      		ldd r18,Z+40
 993 05e8 31A5      		ldd r19,Z+41
 994 05ea 4981      		ldd r20,Y+1
 995 05ec 5A81      		ldd r21,Y+2
 996 05ee 0896      		adiw r24,8
 997 05f0 880F      		lsl r24
 998 05f2 991F      		rol r25
 999 05f4 840F      		add r24,r20
 1000 05f6 951F      		adc r25,r21
 1001 05f8 FC01      		movw r30,r24
 1002 05fa 3183      		std Z+1,r19
 1003 05fc 2083      		st Z,r18
  98:lp_solve_5.5/lp_simplex.c ****   monitor->prevobj = 0;
 1004               		.loc 2 98 0
 1005 05fe 8981      		ldd r24,Y+1
 1006 0600 9A81      		ldd r25,Y+2
 1007 0602 FC01      		movw r30,r24
 1008 0604 16A6      		std Z+46,__zero_reg__
 1009 0606 17A6      		std Z+47,__zero_reg__
 1010 0608 10AA      		std Z+48,__zero_reg__
 1011 060a 11AA      		std Z+49,__zero_reg__
  99:lp_solve_5.5/lp_simplex.c ****   monitor->countstep = 1;
 1012               		.loc 2 99 0
 1013 060c 8981      		ldd r24,Y+1
 1014 060e 9A81      		ldd r25,Y+2
 1015 0610 21E0      		ldi r18,lo8(1)
 1016 0612 30E0      		ldi r19,0
 1017 0614 FC01      		movw r30,r24
 1018 0616 338F      		std Z+27,r19
 1019 0618 228F      		std Z+26,r18
 100:lp_solve_5.5/lp_simplex.c **** }
 1020               		.loc 2 100 0
 1021 061a 0000      		nop
 1022               	/* epilogue start */
 1023 061c 0F90      		pop __tmp_reg__
 1024 061e 0F90      		pop __tmp_reg__
 1025 0620 0F90      		pop __tmp_reg__
 1026 0622 0F90      		pop __tmp_reg__
 1027 0624 DF91      		pop r29
 1028 0626 CF91      		pop r28
 1029 0628 0895      		ret
 1030               		.cfi_endproc
 1031               	.LFE12:
 1033               	.global	__fixsfsi
 1034               	.global	stallMonitor_create
 1036               	stallMonitor_create:
 1037               	.LFB13:
 101:lp_solve_5.5/lp_simplex.c **** 
 102:lp_solve_5.5/lp_simplex.c **** STATIC MYBOOL stallMonitor_create(lprec *lp, MYBOOL isdual, char *funcname)
 103:lp_solve_5.5/lp_simplex.c **** {
 1038               		.loc 2 103 0
 1039               		.cfi_startproc
 1040 062a CF93      		push r28
 1041               	.LCFI30:
 1042               		.cfi_def_cfa_offset 3
 1043               		.cfi_offset 28, -2
 1044 062c DF93      		push r29
 1045               	.LCFI31:
 1046               		.cfi_def_cfa_offset 4
 1047               		.cfi_offset 29, -3
 1048 062e CDB7      		in r28,__SP_L__
 1049 0630 DEB7      		in r29,__SP_H__
 1050               	.LCFI32:
 1051               		.cfi_def_cfa_register 28
 1052 0632 2797      		sbiw r28,7
 1053               	.LCFI33:
 1054               		.cfi_def_cfa_offset 11
 1055 0634 0FB6      		in __tmp_reg__,__SREG__
 1056 0636 F894      		cli
 1057 0638 DEBF      		out __SP_H__,r29
 1058 063a 0FBE      		out __SREG__,__tmp_reg__
 1059 063c CDBF      		out __SP_L__,r28
 1060               	/* prologue: function */
 1061               	/* frame size = 7 */
 1062               	/* stack size = 9 */
 1063               	.L__stack_usage = 9
 1064 063e 9C83      		std Y+4,r25
 1065 0640 8B83      		std Y+3,r24
 1066 0642 6D83      		std Y+5,r22
 1067 0644 5F83      		std Y+7,r21
 1068 0646 4E83      		std Y+6,r20
 104:lp_solve_5.5/lp_simplex.c ****   OBJmonrec *monitor = NULL;
 1069               		.loc 2 104 0
 1070 0648 1A82      		std Y+2,__zero_reg__
 1071 064a 1982      		std Y+1,__zero_reg__
 105:lp_solve_5.5/lp_simplex.c ****   if(lp->monitor != NULL)
 1072               		.loc 2 105 0
 1073 064c 8B81      		ldd r24,Y+3
 1074 064e 9C81      		ldd r25,Y+4
 1075 0650 8E53      		subi r24,62
 1076 0652 9D4F      		sbci r25,-3
 1077 0654 FC01      		movw r30,r24
 1078 0656 8081      		ld r24,Z
 1079 0658 9181      		ldd r25,Z+1
 1080 065a 892B      		or r24,r25
 1081 065c 01F0      		breq .L27
 106:lp_solve_5.5/lp_simplex.c ****     return( FALSE );
 1082               		.loc 2 106 0
 1083 065e 80E0      		ldi r24,0
 1084 0660 00C0      		rjmp .L28
 1085               	.L27:
 107:lp_solve_5.5/lp_simplex.c **** 
 108:lp_solve_5.5/lp_simplex.c ****   monitor = (OBJmonrec *) calloc(sizeof(*monitor), 1);
 1086               		.loc 2 108 0
 1087 0662 61E0      		ldi r22,lo8(1)
 1088 0664 70E0      		ldi r23,0
 1089 0666 8FE5      		ldi r24,lo8(95)
 1090 0668 90E0      		ldi r25,0
 1091 066a 0E94 0000 		call calloc
 1092 066e 9A83      		std Y+2,r25
 1093 0670 8983      		std Y+1,r24
 109:lp_solve_5.5/lp_simplex.c ****   if(monitor == NULL)
 1094               		.loc 2 109 0
 1095 0672 8981      		ldd r24,Y+1
 1096 0674 9A81      		ldd r25,Y+2
 1097 0676 892B      		or r24,r25
 1098 0678 01F4      		brne .L29
 110:lp_solve_5.5/lp_simplex.c ****     return( FALSE );
 1099               		.loc 2 110 0
 1100 067a 80E0      		ldi r24,0
 1101 067c 00C0      		rjmp .L28
 1102               	.L29:
 111:lp_solve_5.5/lp_simplex.c **** 
 112:lp_solve_5.5/lp_simplex.c ****   monitor->lp = lp;
 1103               		.loc 2 112 0
 1104 067e 8981      		ldd r24,Y+1
 1105 0680 9A81      		ldd r25,Y+2
 1106 0682 2B81      		ldd r18,Y+3
 1107 0684 3C81      		ldd r19,Y+4
 1108 0686 FC01      		movw r30,r24
 1109 0688 3183      		std Z+1,r19
 1110 068a 2083      		st Z,r18
 113:lp_solve_5.5/lp_simplex.c ****   strcpy(monitor->spxfunc, funcname);
 1111               		.loc 2 113 0
 1112 068c 8981      		ldd r24,Y+1
 1113 068e 9A81      		ldd r25,Y+2
 1114 0690 8E5A      		subi r24,-82
 1115 0692 9F4F      		sbci r25,-1
 1116 0694 2E81      		ldd r18,Y+6
 1117 0696 3F81      		ldd r19,Y+7
 1118 0698 B901      		movw r22,r18
 1119 069a 0E94 0000 		call strcpy
 114:lp_solve_5.5/lp_simplex.c ****   monitor->isdual = isdual;
 1120               		.loc 2 114 0
 1121 069e 8981      		ldd r24,Y+1
 1122 06a0 9A81      		ldd r25,Y+2
 1123 06a2 835A      		subi r24,-93
 1124 06a4 9F4F      		sbci r25,-1
 1125 06a6 2D81      		ldd r18,Y+5
 1126 06a8 FC01      		movw r30,r24
 1127 06aa 2083      		st Z,r18
 115:lp_solve_5.5/lp_simplex.c ****   monitor->pivdynamic = is_piv_mode(lp, PRICE_ADAPTIVE);
 1128               		.loc 2 115 0
 1129 06ac 8B81      		ldd r24,Y+3
 1130 06ae 9C81      		ldd r25,Y+4
 1131 06b0 60E2      		ldi r22,lo8(32)
 1132 06b2 70E0      		ldi r23,0
 1133 06b4 0E94 0000 		call is_piv_mode
 1134 06b8 282F      		mov r18,r24
 1135 06ba 8981      		ldd r24,Y+1
 1136 06bc 9A81      		ldd r25,Y+2
 1137 06be 845A      		subi r24,-92
 1138 06c0 9F4F      		sbci r25,-1
 1139 06c2 FC01      		movw r30,r24
 1140 06c4 2083      		st Z,r18
 116:lp_solve_5.5/lp_simplex.c ****   monitor->oldpivstrategy = lp->piv_strategy;
 1141               		.loc 2 116 0
 1142 06c6 8B81      		ldd r24,Y+3
 1143 06c8 9C81      		ldd r25,Y+4
 1144 06ca 805A      		subi r24,-96
 1145 06cc 9D4F      		sbci r25,-3
 1146 06ce FC01      		movw r30,r24
 1147 06d0 2081      		ld r18,Z
 1148 06d2 3181      		ldd r19,Z+1
 1149 06d4 8981      		ldd r24,Y+1
 1150 06d6 9A81      		ldd r25,Y+2
 1151 06d8 FC01      		movw r30,r24
 1152 06da 3383      		std Z+3,r19
 1153 06dc 2283      		std Z+2,r18
 117:lp_solve_5.5/lp_simplex.c ****   monitor->oldpivrule = get_piv_rule(lp);
 1154               		.loc 2 117 0
 1155 06de 8B81      		ldd r24,Y+3
 1156 06e0 9C81      		ldd r25,Y+4
 1157 06e2 0E94 0000 		call get_piv_rule
 1158 06e6 9C01      		movw r18,r24
 1159 06e8 8981      		ldd r24,Y+1
 1160 06ea 9A81      		ldd r25,Y+2
 1161 06ec FC01      		movw r30,r24
 1162 06ee 3583      		std Z+5,r19
 1163 06f0 2483      		std Z+4,r18
 118:lp_solve_5.5/lp_simplex.c ****   if(MAX_STALLCOUNT <= 1)
 119:lp_solve_5.5/lp_simplex.c ****     monitor->limitstall[FALSE] = 0;
 120:lp_solve_5.5/lp_simplex.c ****   else
 121:lp_solve_5.5/lp_simplex.c ****     monitor->limitstall[FALSE] = MAX(MAX_STALLCOUNT,
 1164               		.loc 2 121 0
 1165 06f2 8B81      		ldd r24,Y+3
 1166 06f4 9C81      		ldd r25,Y+4
 1167 06f6 8651      		subi r24,22
 1168 06f8 9E4F      		sbci r25,-2
 1169 06fa FC01      		movw r30,r24
 1170 06fc 2081      		ld r18,Z
 1171 06fe 3181      		ldd r19,Z+1
 1172 0700 8B81      		ldd r24,Y+3
 1173 0702 9C81      		ldd r25,Y+4
 1174 0704 8451      		subi r24,20
 1175 0706 9E4F      		sbci r25,-2
 1176 0708 FC01      		movw r30,r24
 1177 070a 8081      		ld r24,Z
 1178 070c 9181      		ldd r25,Z+1
 1179 070e 820F      		add r24,r18
 1180 0710 931F      		adc r25,r19
 1181 0712 092E      		mov __tmp_reg__,r25
 1182 0714 000C      		lsl r0
 1183 0716 AA0B      		sbc r26,r26
 1184 0718 BB0B      		sbc r27,r27
 1185 071a BC01      		movw r22,r24
 1186 071c CD01      		movw r24,r26
 1187 071e 0E94 0000 		call __floatsisf
 1188 0722 DC01      		movw r26,r24
 1189 0724 CB01      		movw r24,r22
 1190 0726 20E0      		ldi r18,0
 1191 0728 30E0      		ldi r19,0
 1192 072a 40E0      		ldi r20,0
 1193 072c 50E4      		ldi r21,lo8(64)
 1194 072e BC01      		movw r22,r24
 1195 0730 CD01      		movw r24,r26
 1196 0732 0E94 0000 		call __divsf3
 1197 0736 DC01      		movw r26,r24
 1198 0738 CB01      		movw r24,r22
 1199 073a 23E8      		ldi r18,lo8(-125)
 1200 073c 30EC      		ldi r19,lo8(-64)
 1201 073e 4AE2      		ldi r20,lo8(42)
 1202 0740 5FE3      		ldi r21,lo8(63)
 1203 0742 BC01      		movw r22,r24
 1204 0744 CD01      		movw r24,r26
 1205 0746 0E94 0000 		call pow
 1206 074a DC01      		movw r26,r24
 1207 074c CB01      		movw r24,r22
 1208 074e BC01      		movw r22,r24
 1209 0750 CD01      		movw r24,r26
 1210 0752 0E94 0000 		call __fixsfsi
 1211 0756 DC01      		movw r26,r24
 1212 0758 CB01      		movw r24,r22
 1213 075a 8C30      		cpi r24,12
 1214 075c 9105      		cpc r25,__zero_reg__
 1215 075e 04F4      		brge .L30
 1216 0760 8CE0      		ldi r24,lo8(12)
 1217 0762 90E0      		ldi r25,0
 1218               	.L30:
 1219 0764 2981      		ldd r18,Y+1
 1220 0766 3A81      		ldd r19,Y+2
 1221 0768 F901      		movw r30,r18
 1222 076a 9387      		std Z+11,r25
 1223 076c 8287      		std Z+10,r24
 122:lp_solve_5.5/lp_simplex.c ****                                      (int) pow((REAL) (lp->rows+lp->columns)/2, 0.667));
 123:lp_solve_5.5/lp_simplex.c **** #if 1
 124:lp_solve_5.5/lp_simplex.c ****   monitor->limitstall[FALSE] *= 2+2;  /* Expand degeneracy/stalling tolerance range */
 1224               		.loc 2 124 0
 1225 076e 8981      		ldd r24,Y+1
 1226 0770 9A81      		ldd r25,Y+2
 1227 0772 FC01      		movw r30,r24
 1228 0774 8285      		ldd r24,Z+10
 1229 0776 9385      		ldd r25,Z+11
 1230 0778 9C01      		movw r18,r24
 1231 077a 220F      		lsl r18
 1232 077c 331F      		rol r19
 1233 077e 220F      		lsl r18
 1234 0780 331F      		rol r19
 1235 0782 8981      		ldd r24,Y+1
 1236 0784 9A81      		ldd r25,Y+2
 1237 0786 FC01      		movw r30,r24
 1238 0788 3387      		std Z+11,r19
 1239 078a 2287      		std Z+10,r18
 125:lp_solve_5.5/lp_simplex.c **** #endif
 126:lp_solve_5.5/lp_simplex.c ****   monitor->limitstall[TRUE] = monitor->limitstall[FALSE];
 1240               		.loc 2 126 0
 1241 078c 8981      		ldd r24,Y+1
 1242 078e 9A81      		ldd r25,Y+2
 1243 0790 FC01      		movw r30,r24
 1244 0792 2285      		ldd r18,Z+10
 1245 0794 3385      		ldd r19,Z+11
 1246 0796 8981      		ldd r24,Y+1
 1247 0798 9A81      		ldd r25,Y+2
 1248 079a FC01      		movw r30,r24
 1249 079c 3587      		std Z+13,r19
 1250 079e 2487      		std Z+12,r18
 127:lp_solve_5.5/lp_simplex.c ****   if(monitor->oldpivrule == PRICER_DEVEX) /* Increase tolerance since primal Steepest Edge is expen
 1251               		.loc 2 127 0
 1252 07a0 8981      		ldd r24,Y+1
 1253 07a2 9A81      		ldd r25,Y+2
 1254 07a4 FC01      		movw r30,r24
 1255 07a6 8481      		ldd r24,Z+4
 1256 07a8 9581      		ldd r25,Z+5
 1257 07aa 0297      		sbiw r24,2
 1258 07ac 01F4      		brne .L34
 128:lp_solve_5.5/lp_simplex.c ****     monitor->limitstall[TRUE] *= 2;
 1259               		.loc 2 128 0
 1260 07ae 8981      		ldd r24,Y+1
 1261 07b0 9A81      		ldd r25,Y+2
 1262 07b2 FC01      		movw r30,r24
 1263 07b4 8485      		ldd r24,Z+12
 1264 07b6 9585      		ldd r25,Z+13
 1265 07b8 9C01      		movw r18,r24
 1266 07ba 220F      		lsl r18
 1267 07bc 331F      		rol r19
 1268 07be 8981      		ldd r24,Y+1
 1269 07c0 9A81      		ldd r25,Y+2
 1270 07c2 FC01      		movw r30,r24
 1271 07c4 3587      		std Z+13,r19
 1272 07c6 2487      		std Z+12,r18
 1273               	.L34:
 129:lp_solve_5.5/lp_simplex.c ****   if(MAX_RULESWITCH <= 0)
 130:lp_solve_5.5/lp_simplex.c ****     monitor->limitruleswitches = MAXINT32;
 131:lp_solve_5.5/lp_simplex.c ****   else
 132:lp_solve_5.5/lp_simplex.c ****     monitor->limitruleswitches = MAX(MAX_RULESWITCH,
 1274               		.loc 2 132 0
 1275 07c8 8B81      		ldd r24,Y+3
 1276 07ca 9C81      		ldd r25,Y+4
 1277 07cc 8651      		subi r24,22
 1278 07ce 9E4F      		sbci r25,-2
 1279 07d0 FC01      		movw r30,r24
 1280 07d2 8081      		ld r24,Z
 1281 07d4 9181      		ldd r25,Z+1
 1282 07d6 4997      		sbiw r24,25
 1283 07d8 04F0      		brlt .L32
 1284               		.loc 2 132 0 is_stmt 0 discriminator 1
 1285 07da 8B81      		ldd r24,Y+3
 1286 07dc 9C81      		ldd r25,Y+4
 1287 07de 8651      		subi r24,22
 1288 07e0 9E4F      		sbci r25,-2
 1289 07e2 FC01      		movw r30,r24
 1290 07e4 8081      		ld r24,Z
 1291 07e6 9181      		ldd r25,Z+1
 1292 07e8 25E0      		ldi r18,lo8(5)
 1293 07ea 30E0      		ldi r19,0
 1294 07ec B901      		movw r22,r18
 1295 07ee 0E94 0000 		call __divmodhi4
 1296 07f2 CB01      		movw r24,r22
 1297 07f4 00C0      		rjmp .L33
 1298               	.L32:
 1299               		.loc 2 132 0 discriminator 2
 1300 07f6 85E0      		ldi r24,lo8(5)
 1301 07f8 90E0      		ldi r25,0
 1302               	.L33:
 1303               		.loc 2 132 0 discriminator 4
 1304 07fa 2981      		ldd r18,Y+1
 1305 07fc 3A81      		ldd r19,Y+2
 1306 07fe F901      		movw r30,r18
 1307 0800 9787      		std Z+15,r25
 1308 0802 8687      		std Z+14,r24
 133:lp_solve_5.5/lp_simplex.c ****                                      lp->rows/MAX_RULESWITCH);
 134:lp_solve_5.5/lp_simplex.c ****   monitor->epsvalue = lp->epsprimal; /* lp->epsvalue; */
 1309               		.loc 2 134 0 is_stmt 1 discriminator 4
 1310 0804 8B81      		ldd r24,Y+3
 1311 0806 9C81      		ldd r25,Y+4
 1312 0808 865E      		subi r24,-26
 1313 080a 9C4F      		sbci r25,-4
 1314 080c FC01      		movw r30,r24
 1315 080e 8081      		ld r24,Z
 1316 0810 9181      		ldd r25,Z+1
 1317 0812 A281      		ldd r26,Z+2
 1318 0814 B381      		ldd r27,Z+3
 1319 0816 2981      		ldd r18,Y+1
 1320 0818 3A81      		ldd r19,Y+2
 1321 081a 225B      		subi r18,-78
 1322 081c 3F4F      		sbci r19,-1
 1323 081e F901      		movw r30,r18
 1324 0820 8083      		st Z,r24
 1325 0822 9183      		std Z+1,r25
 1326 0824 A283      		std Z+2,r26
 1327 0826 B383      		std Z+3,r27
 135:lp_solve_5.5/lp_simplex.c ****   lp->monitor = monitor;
 1328               		.loc 2 135 0 discriminator 4
 1329 0828 8B81      		ldd r24,Y+3
 1330 082a 9C81      		ldd r25,Y+4
 1331 082c 8E53      		subi r24,62
 1332 082e 9D4F      		sbci r25,-3
 1333 0830 2981      		ldd r18,Y+1
 1334 0832 3A81      		ldd r19,Y+2
 1335 0834 FC01      		movw r30,r24
 1336 0836 3183      		std Z+1,r19
 1337 0838 2083      		st Z,r18
 136:lp_solve_5.5/lp_simplex.c ****   stallMonitor_reset(lp);
 1338               		.loc 2 136 0 discriminator 4
 1339 083a 8B81      		ldd r24,Y+3
 1340 083c 9C81      		ldd r25,Y+4
 1341 083e 0E94 0000 		call stallMonitor_reset
 137:lp_solve_5.5/lp_simplex.c ****   lp->suminfeas = lp->infinite;
 1342               		.loc 2 137 0 discriminator 4
 1343 0842 8B81      		ldd r24,Y+3
 1344 0844 9C81      		ldd r25,Y+4
 1345 0846 865F      		subi r24,-10
 1346 0848 9C4F      		sbci r25,-4
 1347 084a FC01      		movw r30,r24
 1348 084c 8081      		ld r24,Z
 1349 084e 9181      		ldd r25,Z+1
 1350 0850 A281      		ldd r26,Z+2
 1351 0852 B381      		ldd r27,Z+3
 1352 0854 2B81      		ldd r18,Y+3
 1353 0856 3C81      		ldd r19,Y+4
 1354 0858 2C51      		subi r18,28
 1355 085a 3D4F      		sbci r19,-3
 1356 085c F901      		movw r30,r18
 1357 085e 8083      		st Z,r24
 1358 0860 9183      		std Z+1,r25
 1359 0862 A283      		std Z+2,r26
 1360 0864 B383      		std Z+3,r27
 138:lp_solve_5.5/lp_simplex.c ****   return( TRUE );
 1361               		.loc 2 138 0 discriminator 4
 1362 0866 81E0      		ldi r24,lo8(1)
 1363               	.L28:
 1364               	/* epilogue start */
 139:lp_solve_5.5/lp_simplex.c **** }
 1365               		.loc 2 139 0
 1366 0868 2796      		adiw r28,7
 1367 086a 0FB6      		in __tmp_reg__,__SREG__
 1368 086c F894      		cli
 1369 086e DEBF      		out __SP_H__,r29
 1370 0870 0FBE      		out __SREG__,__tmp_reg__
 1371 0872 CDBF      		out __SP_L__,r28
 1372 0874 DF91      		pop r29
 1373 0876 CF91      		pop r28
 1374 0878 0895      		ret
 1375               		.cfi_endproc
 1376               	.LFE13:
 1378               		.section	.rodata
 1379               	.LC0:
 1380 0000 3C00      		.string	"<"
 1381               	.LC1:
 1382 0002 7C00      		.string	"|"
 1383               	.global	__floatdisf
 1384               	.LC2:
 1385 0004 2573 3A20 		.string	"%s: Objective at iter %10.0f is %18.12g (%4d: %4d %s- %4d)\n"
 1385      4F62 6A65 
 1385      6374 6976 
 1385      6520 6174 
 1385      2069 7465 
 1386               	.global	__addsf3
 1387               	.LC3:
 1388 0040 2573 3A20 		.string	"%s: Stalling at iter %10.0f; no alternative strategy left.\n"
 1388      5374 616C 
 1388      6C69 6E67 
 1388      2061 7420 
 1388      6974 6572 
 1389               	.LC4:
 1390 007c 2573 3A20 		.string	"%s: Stalling at iter %10.0f; changed to '%s' rule.\n"
 1390      5374 616C 
 1390      6C69 6E67 
 1390      2061 7420 
 1390      6974 6572 
 1391               	.LC5:
 1392 00b0 2573 3A20 		.string	"%s: Stalling at iter %10.0f; proceed to bound relaxation.\n"
 1392      5374 616C 
 1392      6C69 6E67 
 1392      2061 7420 
 1392      6974 6572 
 1393               	.LC6:
 1394 00eb 2E2E 2E72 		.string	"...returned to original pivot selection rule at iter %.0f.\n"
 1394      6574 7572 
 1394      6E65 6420 
 1394      746F 206F 
 1394      7269 6769 
 1395               	.global	__lesf2
 1396               		.text
 1397               	.global	stallMonitor_check
 1399               	stallMonitor_check:
 1400               	.LFB14:
 140:lp_solve_5.5/lp_simplex.c **** 
 141:lp_solve_5.5/lp_simplex.c **** STATIC MYBOOL stallMonitor_check(lprec *lp, int rownr, int colnr, int lastnr,
 142:lp_solve_5.5/lp_simplex.c ****                                  MYBOOL minit, MYBOOL approved, MYBOOL *forceoutEQ)
 143:lp_solve_5.5/lp_simplex.c **** {
 1401               		.loc 2 143 0
 1402               		.cfi_startproc
 1403 087a 4F92      		push r4
 1404               	.LCFI34:
 1405               		.cfi_def_cfa_offset 3
 1406               		.cfi_offset 4, -2
 1407 087c 5F92      		push r5
 1408               	.LCFI35:
 1409               		.cfi_def_cfa_offset 4
 1410               		.cfi_offset 5, -3
 1411 087e 6F92      		push r6
 1412               	.LCFI36:
 1413               		.cfi_def_cfa_offset 5
 1414               		.cfi_offset 6, -4
 1415 0880 7F92      		push r7
 1416               	.LCFI37:
 1417               		.cfi_def_cfa_offset 6
 1418               		.cfi_offset 7, -5
 1419 0882 8F92      		push r8
 1420               	.LCFI38:
 1421               		.cfi_def_cfa_offset 7
 1422               		.cfi_offset 8, -6
 1423 0884 9F92      		push r9
 1424               	.LCFI39:
 1425               		.cfi_def_cfa_offset 8
 1426               		.cfi_offset 9, -7
 1427 0886 AF92      		push r10
 1428               	.LCFI40:
 1429               		.cfi_def_cfa_offset 9
 1430               		.cfi_offset 10, -8
 1431 0888 BF92      		push r11
 1432               	.LCFI41:
 1433               		.cfi_def_cfa_offset 10
 1434               		.cfi_offset 11, -9
 1435 088a CF92      		push r12
 1436               	.LCFI42:
 1437               		.cfi_def_cfa_offset 11
 1438               		.cfi_offset 12, -10
 1439 088c DF92      		push r13
 1440               	.LCFI43:
 1441               		.cfi_def_cfa_offset 12
 1442               		.cfi_offset 13, -11
 1443 088e EF92      		push r14
 1444               	.LCFI44:
 1445               		.cfi_def_cfa_offset 13
 1446               		.cfi_offset 14, -12
 1447 0890 FF92      		push r15
 1448               	.LCFI45:
 1449               		.cfi_def_cfa_offset 14
 1450               		.cfi_offset 15, -13
 1451 0892 0F93      		push r16
 1452               	.LCFI46:
 1453               		.cfi_def_cfa_offset 15
 1454               		.cfi_offset 16, -14
 1455 0894 1F93      		push r17
 1456               	.LCFI47:
 1457               		.cfi_def_cfa_offset 16
 1458               		.cfi_offset 17, -15
 1459 0896 CF93      		push r28
 1460               	.LCFI48:
 1461               		.cfi_def_cfa_offset 17
 1462               		.cfi_offset 28, -16
 1463 0898 DF93      		push r29
 1464               	.LCFI49:
 1465               		.cfi_def_cfa_offset 18
 1466               		.cfi_offset 29, -17
 1467 089a CDB7      		in r28,__SP_L__
 1468 089c DEB7      		in r29,__SP_H__
 1469               	.LCFI50:
 1470               		.cfi_def_cfa_register 28
 1471 089e A197      		sbiw r28,33
 1472               	.LCFI51:
 1473               		.cfi_def_cfa_offset 51
 1474 08a0 0FB6      		in __tmp_reg__,__SREG__
 1475 08a2 F894      		cli
 1476 08a4 DEBF      		out __SP_H__,r29
 1477 08a6 0FBE      		out __SREG__,__tmp_reg__
 1478 08a8 CDBF      		out __SP_L__,r28
 1479               	/* prologue: function */
 1480               	/* frame size = 33 */
 1481               	/* stack size = 49 */
 1482               	.L__stack_usage = 49
 1483 08aa 9F8B      		std Y+23,r25
 1484 08ac 8E8B      		std Y+22,r24
 1485 08ae 798F      		std Y+25,r23
 1486 08b0 688F      		std Y+24,r22
 1487 08b2 5B8F      		std Y+27,r21
 1488 08b4 4A8F      		std Y+26,r20
 1489 08b6 3D8F      		std Y+29,r19
 1490 08b8 2C8F      		std Y+28,r18
 1491 08ba 0E8F      		std Y+30,r16
 1492 08bc EF8E      		std Y+31,r14
 1493 08be D9A2      		std Y+33,r13
 1494 08c0 C8A2      		std Y+32,r12
 144:lp_solve_5.5/lp_simplex.c ****   OBJmonrec *monitor = lp->monitor;
 1495               		.loc 2 144 0
 1496 08c2 8E89      		ldd r24,Y+22
 1497 08c4 9F89      		ldd r25,Y+23
 1498 08c6 8E53      		subi r24,62
 1499 08c8 9D4F      		sbci r25,-3
 1500 08ca FC01      		movw r30,r24
 1501 08cc 8081      		ld r24,Z
 1502 08ce 9181      		ldd r25,Z+1
 1503 08d0 9A87      		std Y+10,r25
 1504 08d2 8987      		std Y+9,r24
 145:lp_solve_5.5/lp_simplex.c ****   MYBOOL    isStalled, isCreeping, acceptance = TRUE;
 1505               		.loc 2 145 0
 1506 08d4 81E0      		ldi r24,lo8(1)
 1507 08d6 8A83      		std Y+2,r24
 146:lp_solve_5.5/lp_simplex.c ****   int       altrule,
 147:lp_solve_5.5/lp_simplex.c **** #ifdef Paranoia
 148:lp_solve_5.5/lp_simplex.c ****          msglevel = NORMAL;
 149:lp_solve_5.5/lp_simplex.c **** #else
 150:lp_solve_5.5/lp_simplex.c ****          msglevel = DETAILED;
 1508               		.loc 2 150 0
 1509 08d8 85E0      		ldi r24,lo8(5)
 1510 08da 90E0      		ldi r25,0
 1511 08dc 9C87      		std Y+12,r25
 1512 08de 8B87      		std Y+11,r24
 151:lp_solve_5.5/lp_simplex.c **** #endif
 152:lp_solve_5.5/lp_simplex.c ****   REAL   deltaobj = lp->suminfeas;
 1513               		.loc 2 152 0
 1514 08e0 8E89      		ldd r24,Y+22
 1515 08e2 9F89      		ldd r25,Y+23
 1516 08e4 8C51      		subi r24,28
 1517 08e6 9D4F      		sbci r25,-3
 1518 08e8 FC01      		movw r30,r24
 1519 08ea 8081      		ld r24,Z
 1520 08ec 9181      		ldd r25,Z+1
 1521 08ee A281      		ldd r26,Z+2
 1522 08f0 B381      		ldd r27,Z+3
 1523 08f2 8D87      		std Y+13,r24
 1524 08f4 9E87      		std Y+14,r25
 1525 08f6 AF87      		std Y+15,r26
 1526 08f8 B88B      		std Y+16,r27
 153:lp_solve_5.5/lp_simplex.c **** 
 154:lp_solve_5.5/lp_simplex.c ****   /* Accept unconditionally if this is the first or second call */
 155:lp_solve_5.5/lp_simplex.c ****   monitor->active = FALSE;
 1527               		.loc 2 155 0
 1528 08fa 8985      		ldd r24,Y+9
 1529 08fc 9A85      		ldd r25,Y+10
 1530 08fe 825A      		subi r24,-94
 1531 0900 9F4F      		sbci r25,-1
 1532 0902 FC01      		movw r30,r24
 1533 0904 1082      		st Z,__zero_reg__
 156:lp_solve_5.5/lp_simplex.c ****   if(monitor->Icount <= 1) {
 1534               		.loc 2 156 0
 1535 0906 8985      		ldd r24,Y+9
 1536 0908 9A85      		ldd r25,Y+10
 1537 090a FC01      		movw r30,r24
 1538 090c 80A5      		ldd r24,Z+40
 1539 090e 91A5      		ldd r25,Z+41
 1540 0910 0297      		sbiw r24,2
 1541 0912 04F4      		brge .L36
 157:lp_solve_5.5/lp_simplex.c ****     if(monitor->Icount == 1) {
 1542               		.loc 2 157 0
 1543 0914 8985      		ldd r24,Y+9
 1544 0916 9A85      		ldd r25,Y+10
 1545 0918 FC01      		movw r30,r24
 1546 091a 80A5      		ldd r24,Z+40
 1547 091c 91A5      		ldd r25,Z+41
 1548 091e 0197      		sbiw r24,1
 1549 0920 01F4      		brne .L37
 158:lp_solve_5.5/lp_simplex.c ****       monitor->prevobj = lp->rhs[0];
 1550               		.loc 2 158 0
 1551 0922 8E89      		ldd r24,Y+22
 1552 0924 9F89      		ldd r25,Y+23
 1553 0926 8855      		subi r24,88
 1554 0928 9D4F      		sbci r25,-3
 1555 092a FC01      		movw r30,r24
 1556 092c 8081      		ld r24,Z
 1557 092e 9181      		ldd r25,Z+1
 1558 0930 FC01      		movw r30,r24
 1559 0932 8081      		ld r24,Z
 1560 0934 9181      		ldd r25,Z+1
 1561 0936 A281      		ldd r26,Z+2
 1562 0938 B381      		ldd r27,Z+3
 1563 093a 2985      		ldd r18,Y+9
 1564 093c 3A85      		ldd r19,Y+10
 1565 093e F901      		movw r30,r18
 1566 0940 86A7      		std Z+46,r24
 1567 0942 97A7      		std Z+47,r25
 1568 0944 A0AB      		std Z+48,r26
 1569 0946 B1AB      		std Z+49,r27
 159:lp_solve_5.5/lp_simplex.c ****       monitor->previnfeas = deltaobj;
 1570               		.loc 2 159 0
 1571 0948 8985      		ldd r24,Y+9
 1572 094a 9A85      		ldd r25,Y+10
 1573 094c 9C01      		movw r18,r24
 1574 094e 265B      		subi r18,-74
 1575 0950 3F4F      		sbci r19,-1
 1576 0952 8D85      		ldd r24,Y+13
 1577 0954 9E85      		ldd r25,Y+14
 1578 0956 AF85      		ldd r26,Y+15
 1579 0958 B889      		ldd r27,Y+16
 1580 095a F901      		movw r30,r18
 1581 095c 8083      		st Z,r24
 1582 095e 9183      		std Z+1,r25
 1583 0960 A283      		std Z+2,r26
 1584 0962 B383      		std Z+3,r27
 1585               	.L37:
 160:lp_solve_5.5/lp_simplex.c ****     }
 161:lp_solve_5.5/lp_simplex.c ****     monitor->Icount++;
 1586               		.loc 2 161 0
 1587 0964 8985      		ldd r24,Y+9
 1588 0966 9A85      		ldd r25,Y+10
 1589 0968 FC01      		movw r30,r24
 1590 096a 80A5      		ldd r24,Z+40
 1591 096c 91A5      		ldd r25,Z+41
 1592 096e 9C01      		movw r18,r24
 1593 0970 2F5F      		subi r18,-1
 1594 0972 3F4F      		sbci r19,-1
 1595 0974 8985      		ldd r24,Y+9
 1596 0976 9A85      		ldd r25,Y+10
 1597 0978 FC01      		movw r30,r24
 1598 097a 31A7      		std Z+41,r19
 1599 097c 20A7      		std Z+40,r18
 162:lp_solve_5.5/lp_simplex.c ****     return( acceptance );
 1600               		.loc 2 162 0
 1601 097e 8A81      		ldd r24,Y+2
 1602 0980 00C0      		rjmp .L38
 1603               	.L36:
 163:lp_solve_5.5/lp_simplex.c ****   }
 164:lp_solve_5.5/lp_simplex.c **** 
 165:lp_solve_5.5/lp_simplex.c ****   /* Define progress as primal objective less sum of (primal/dual) infeasibilities */
 166:lp_solve_5.5/lp_simplex.c ****   monitor->thisobj = lp->rhs[0];
 1604               		.loc 2 166 0
 1605 0982 8E89      		ldd r24,Y+22
 1606 0984 9F89      		ldd r25,Y+23
 1607 0986 8855      		subi r24,88
 1608 0988 9D4F      		sbci r25,-3
 1609 098a FC01      		movw r30,r24
 1610 098c 8081      		ld r24,Z
 1611 098e 9181      		ldd r25,Z+1
 1612 0990 FC01      		movw r30,r24
 1613 0992 8081      		ld r24,Z
 1614 0994 9181      		ldd r25,Z+1
 1615 0996 A281      		ldd r26,Z+2
 1616 0998 B381      		ldd r27,Z+3
 1617 099a 2985      		ldd r18,Y+9
 1618 099c 3A85      		ldd r19,Y+10
 1619 099e F901      		movw r30,r18
 1620 09a0 82A7      		std Z+42,r24
 1621 09a2 93A7      		std Z+43,r25
 1622 09a4 A4A7      		std Z+44,r26
 1623 09a6 B5A7      		std Z+45,r27
 167:lp_solve_5.5/lp_simplex.c ****   monitor->thisinfeas = deltaobj;
 1624               		.loc 2 167 0
 1625 09a8 8985      		ldd r24,Y+9
 1626 09aa 9A85      		ldd r25,Y+10
 1627 09ac 9C01      		movw r18,r24
 1628 09ae 2A5B      		subi r18,-70
 1629 09b0 3F4F      		sbci r19,-1
 1630 09b2 8D85      		ldd r24,Y+13
 1631 09b4 9E85      		ldd r25,Y+14
 1632 09b6 AF85      		ldd r26,Y+15
 1633 09b8 B889      		ldd r27,Y+16
 1634 09ba F901      		movw r30,r18
 1635 09bc 8083      		st Z,r24
 1636 09be 9183      		std Z+1,r25
 1637 09c0 A283      		std Z+2,r26
 1638 09c2 B383      		std Z+3,r27
 168:lp_solve_5.5/lp_simplex.c ****   if(lp->spx_trace &&
 1639               		.loc 2 168 0
 1640 09c4 8E89      		ldd r24,Y+22
 1641 09c6 9F89      		ldd r25,Y+23
 1642 09c8 8E5F      		subi r24,-2
 1643 09ca 9D4F      		sbci r25,-3
 1644 09cc FC01      		movw r30,r24
 1645 09ce 8081      		ld r24,Z
 1646 09d0 8823      		tst r24
 1647 09d2 01F4      		brne .+2
 1648 09d4 00C0      		rjmp .L39
 1649               		.loc 2 168 0 is_stmt 0 discriminator 1
 1650 09d6 8C8D      		ldd r24,Y+28
 1651 09d8 9D8D      		ldd r25,Y+29
 1652 09da 1816      		cp __zero_reg__,r24
 1653 09dc 1906      		cpc __zero_reg__,r25
 1654 09de 04F0      		brlt .+2
 1655 09e0 00C0      		rjmp .L39
 169:lp_solve_5.5/lp_simplex.c ****      (lastnr > 0))
 170:lp_solve_5.5/lp_simplex.c ****     report(lp, NORMAL, "%s: Objective at iter %10.0f is " RESULTVALUEMASK " (%4d: %4d %s- %4d)\n",
 1656               		.loc 2 170 0 is_stmt 1
 1657 09e2 8E8D      		ldd r24,Y+30
 1658 09e4 8823      		tst r24
 1659 09e6 01F4      		brne .L40
 1660               		.loc 2 170 0 is_stmt 0 discriminator 1
 1661 09e8 0F2E      		mov __tmp_reg__,r31
 1662 09ea F0E0      		ldi r31,lo8(.LC0)
 1663 09ec 4F2E      		mov r4,r31
 1664 09ee F0E0      		ldi r31,hi8(.LC0)
 1665 09f0 5F2E      		mov r5,r31
 1666 09f2 F02D      		mov r31,__tmp_reg__
 1667 09f4 00C0      		rjmp .L41
 1668               	.L40:
 1669               		.loc 2 170 0 discriminator 2
 1670 09f6 0F2E      		mov __tmp_reg__,r31
 1671 09f8 F0E0      		ldi r31,lo8(.LC1)
 1672 09fa 4F2E      		mov r4,r31
 1673 09fc F0E0      		ldi r31,hi8(.LC1)
 1674 09fe 5F2E      		mov r5,r31
 1675 0a00 F02D      		mov r31,__tmp_reg__
 1676               	.L41:
 1677               		.loc 2 170 0 discriminator 4
 1678 0a02 8985      		ldd r24,Y+9
 1679 0a04 9A85      		ldd r25,Y+10
 1680 0a06 FC01      		movw r30,r24
 1681 0a08 62A4      		ldd r6,Z+42
 1682 0a0a 73A4      		ldd r7,Z+43
 1683 0a0c 84A4      		ldd r8,Z+44
 1684 0a0e 95A4      		ldd r9,Z+45
 171:lp_solve_5.5/lp_simplex.c ****                        monitor->spxfunc,
 172:lp_solve_5.5/lp_simplex.c ****                        (double) get_total_iter(lp), monitor->thisobj, rownr, lastnr,
 1685               		.loc 2 172 0 is_stmt 1 discriminator 4
 1686 0a10 8E89      		ldd r24,Y+22
 1687 0a12 9F89      		ldd r25,Y+23
 1688 0a14 0E94 0000 		call get_total_iter
 1689 0a18 A22E      		mov r10,r18
 1690 0a1a B32E      		mov r11,r19
 1691 0a1c C42E      		mov r12,r20
 1692 0a1e D52E      		mov r13,r21
 1693 0a20 E62E      		mov r14,r22
 1694 0a22 F72E      		mov r15,r23
 1695 0a24 082F      		mov r16,r24
 1696 0a26 192F      		mov r17,r25
 170:lp_solve_5.5/lp_simplex.c ****                        monitor->spxfunc,
 1697               		.loc 2 170 0 discriminator 4
 1698 0a28 2A2D      		mov r18,r10
 1699 0a2a 3B2D      		mov r19,r11
 1700 0a2c 4C2D      		mov r20,r12
 1701 0a2e 5D2D      		mov r21,r13
 1702 0a30 6E2D      		mov r22,r14
 1703 0a32 7F2D      		mov r23,r15
 1704 0a34 802F      		mov r24,r16
 1705 0a36 912F      		mov r25,r17
 1706 0a38 0E94 0000 		call __floatdisf
 1707 0a3c DC01      		movw r26,r24
 1708 0a3e CB01      		movw r24,r22
 171:lp_solve_5.5/lp_simplex.c ****                        monitor->spxfunc,
 1709               		.loc 2 171 0 discriminator 4
 1710 0a40 2985      		ldd r18,Y+9
 1711 0a42 3A85      		ldd r19,Y+10
 1712 0a44 2E5A      		subi r18,-82
 1713 0a46 3F4F      		sbci r19,-1
 170:lp_solve_5.5/lp_simplex.c ****                        monitor->spxfunc,
 1714               		.loc 2 170 0 discriminator 4
 1715 0a48 4B8D      		ldd r20,Y+27
 1716 0a4a 4F93      		push r20
 1717 0a4c 4A8D      		ldd r20,Y+26
 1718 0a4e 4F93      		push r20
 1719 0a50 452D      		mov r20,r5
 1720 0a52 4F93      		push r20
 1721 0a54 442D      		mov r20,r4
 1722 0a56 4F93      		push r20
 1723 0a58 4D8D      		ldd r20,Y+29
 1724 0a5a 4F93      		push r20
 1725 0a5c 4C8D      		ldd r20,Y+28
 1726 0a5e 4F93      		push r20
 1727 0a60 498D      		ldd r20,Y+25
 1728 0a62 4F93      		push r20
 1729 0a64 488D      		ldd r20,Y+24
 1730 0a66 4F93      		push r20
 1731 0a68 492D      		mov r20,r9
 1732 0a6a 4F93      		push r20
 1733 0a6c 482D      		mov r20,r8
 1734 0a6e 4F93      		push r20
 1735 0a70 472D      		mov r20,r7
 1736 0a72 4F93      		push r20
 1737 0a74 462D      		mov r20,r6
 1738 0a76 4F93      		push r20
 1739 0a78 4B2F      		mov r20,r27
 1740 0a7a 4F93      		push r20
 1741 0a7c 4A2F      		mov r20,r26
 1742 0a7e 4F93      		push r20
 1743 0a80 492F      		mov r20,r25
 1744 0a82 4F93      		push r20
 1745 0a84 8F93      		push r24
 1746 0a86 832F      		mov r24,r19
 1747 0a88 8F93      		push r24
 1748 0a8a 822F      		mov r24,r18
 1749 0a8c 8F93      		push r24
 1750 0a8e 80E0      		ldi r24,lo8(.LC2)
 1751 0a90 90E0      		ldi r25,hi8(.LC2)
 1752 0a92 892F      		mov r24,r25
 1753 0a94 8F93      		push r24
 1754 0a96 80E0      		ldi r24,lo8(.LC2)
 1755 0a98 90E0      		ldi r25,hi8(.LC2)
 1756 0a9a 8F93      		push r24
 1757 0a9c 1F92      		push __zero_reg__
 1758 0a9e 84E0      		ldi r24,lo8(4)
 1759 0aa0 8F93      		push r24
 1760 0aa2 8F89      		ldd r24,Y+23
 1761 0aa4 8F93      		push r24
 1762 0aa6 8E89      		ldd r24,Y+22
 1763 0aa8 8F93      		push r24
 1764 0aaa 0E94 0000 		call report
 1765 0aae 8DB7      		in r24,__SP_L__
 1766 0ab0 9EB7      		in r25,__SP_H__
 1767 0ab2 4896      		adiw r24,24
 1768 0ab4 0FB6      		in __tmp_reg__,__SREG__
 1769 0ab6 F894      		cli
 1770 0ab8 DEBF      		out __SP_H__,r29
 1771 0aba 0FBE      		out __SREG__,__tmp_reg__
 1772 0abc CDBF      		out __SP_L__,r28
 1773               	.L39:
 173:lp_solve_5.5/lp_simplex.c ****                        my_if(minit == ITERATE_MAJORMAJOR, "<","|"), colnr);
 174:lp_solve_5.5/lp_simplex.c ****   monitor->pivrule = get_piv_rule(lp);
 1774               		.loc 2 174 0
 1775 0abe 8E89      		ldd r24,Y+22
 1776 0ac0 9F89      		ldd r25,Y+23
 1777 0ac2 0E94 0000 		call get_piv_rule
 1778 0ac6 9C01      		movw r18,r24
 1779 0ac8 8985      		ldd r24,Y+9
 1780 0aca 9A85      		ldd r25,Y+10
 1781 0acc FC01      		movw r30,r24
 1782 0ace 3783      		std Z+7,r19
 1783 0ad0 2683      		std Z+6,r18
 175:lp_solve_5.5/lp_simplex.c **** 
 176:lp_solve_5.5/lp_simplex.c ****   /* Check if we have a stationary solution at selected tolerance level;
 177:lp_solve_5.5/lp_simplex.c ****      allow some difference in case we just refactorized the basis. */
 178:lp_solve_5.5/lp_simplex.c ****   deltaobj = my_reldiff(monitor->thisobj, monitor->prevobj);
 1784               		.loc 2 178 0
 1785 0ad2 8985      		ldd r24,Y+9
 1786 0ad4 9A85      		ldd r25,Y+10
 1787 0ad6 FC01      		movw r30,r24
 1788 0ad8 82A5      		ldd r24,Z+42
 1789 0ada 93A5      		ldd r25,Z+43
 1790 0adc A4A5      		ldd r26,Z+44
 1791 0ade B5A5      		ldd r27,Z+45
 1792 0ae0 2985      		ldd r18,Y+9
 1793 0ae2 3A85      		ldd r19,Y+10
 1794 0ae4 F901      		movw r30,r18
 1795 0ae6 26A5      		ldd r18,Z+46
 1796 0ae8 37A5      		ldd r19,Z+47
 1797 0aea 40A9      		ldd r20,Z+48
 1798 0aec 51A9      		ldd r21,Z+49
 1799 0aee BC01      		movw r22,r24
 1800 0af0 CD01      		movw r24,r26
 1801 0af2 0E94 0000 		call __subsf3
 1802 0af6 DC01      		movw r26,r24
 1803 0af8 CB01      		movw r24,r22
 1804 0afa 6C01      		movw r12,r24
 1805 0afc 7D01      		movw r14,r26
 1806 0afe 8985      		ldd r24,Y+9
 1807 0b00 9A85      		ldd r25,Y+10
 1808 0b02 FC01      		movw r30,r24
 1809 0b04 86A5      		ldd r24,Z+46
 1810 0b06 97A5      		ldd r25,Z+47
 1811 0b08 A0A9      		ldd r26,Z+48
 1812 0b0a B1A9      		ldd r27,Z+49
 1813 0b0c BF77      		andi r27,0x7f
 1814 0b0e 20E0      		ldi r18,0
 1815 0b10 30E0      		ldi r19,0
 1816 0b12 40E8      		ldi r20,lo8(-128)
 1817 0b14 5FE3      		ldi r21,lo8(63)
 1818 0b16 BC01      		movw r22,r24
 1819 0b18 CD01      		movw r24,r26
 1820 0b1a 0E94 0000 		call __addsf3
 1821 0b1e DC01      		movw r26,r24
 1822 0b20 CB01      		movw r24,r22
 1823 0b22 9C01      		movw r18,r24
 1824 0b24 AD01      		movw r20,r26
 1825 0b26 C701      		movw r24,r14
 1826 0b28 B601      		movw r22,r12
 1827 0b2a 0E94 0000 		call __divsf3
 1828 0b2e DC01      		movw r26,r24
 1829 0b30 CB01      		movw r24,r22
 1830 0b32 8D87      		std Y+13,r24
 1831 0b34 9E87      		std Y+14,r25
 1832 0b36 AF87      		std Y+15,r26
 1833 0b38 B88B      		std Y+16,r27
 179:lp_solve_5.5/lp_simplex.c ****   deltaobj = fabs(deltaobj); /* Pre v5.2 version */
 1834               		.loc 2 179 0
 1835 0b3a 8D85      		ldd r24,Y+13
 1836 0b3c 9E85      		ldd r25,Y+14
 1837 0b3e AF85      		ldd r26,Y+15
 1838 0b40 B889      		ldd r27,Y+16
 1839 0b42 BF77      		andi r27,0x7f
 1840 0b44 8D87      		std Y+13,r24
 1841 0b46 9E87      		std Y+14,r25
 1842 0b48 AF87      		std Y+15,r26
 1843 0b4a B88B      		std Y+16,r27
 180:lp_solve_5.5/lp_simplex.c ****   isStalled = (MYBOOL) (deltaobj < monitor->epsvalue);
 1844               		.loc 2 180 0
 1845 0b4c 8985      		ldd r24,Y+9
 1846 0b4e 9A85      		ldd r25,Y+10
 1847 0b50 825B      		subi r24,-78
 1848 0b52 9F4F      		sbci r25,-1
 1849 0b54 FC01      		movw r30,r24
 1850 0b56 8081      		ld r24,Z
 1851 0b58 9181      		ldd r25,Z+1
 1852 0b5a A281      		ldd r26,Z+2
 1853 0b5c B381      		ldd r27,Z+3
 1854 0b5e 11E0      		ldi r17,lo8(1)
 1855 0b60 2D85      		ldd r18,Y+13
 1856 0b62 3E85      		ldd r19,Y+14
 1857 0b64 4F85      		ldd r20,Y+15
 1858 0b66 5889      		ldd r21,Y+16
 1859 0b68 BC01      		movw r22,r24
 1860 0b6a CD01      		movw r24,r26
 1861 0b6c 0E94 0000 		call __gtsf2
 1862 0b70 1816      		cp __zero_reg__,r24
 1863 0b72 04F0      		brlt .L42
 1864 0b74 10E0      		ldi r17,0
 1865               	.L42:
 1866 0b76 1983      		std Y+1,r17
 181:lp_solve_5.5/lp_simplex.c **** 
 182:lp_solve_5.5/lp_simplex.c ****   /* Also require that we have a measure of infeasibility-stalling */
 183:lp_solve_5.5/lp_simplex.c ****   if(isStalled) {
 1867               		.loc 2 183 0
 1868 0b78 8981      		ldd r24,Y+1
 1869 0b7a 8823      		tst r24
 1870 0b7c 01F4      		brne .+2
 1871 0b7e 00C0      		rjmp .L43
 1872               	.LBB4:
 184:lp_solve_5.5/lp_simplex.c ****     REAL testvalue, refvalue = monitor->epsvalue;
 1873               		.loc 2 184 0
 1874 0b80 8985      		ldd r24,Y+9
 1875 0b82 9A85      		ldd r25,Y+10
 1876 0b84 825B      		subi r24,-78
 1877 0b86 9F4F      		sbci r25,-1
 1878 0b88 FC01      		movw r30,r24
 1879 0b8a 8081      		ld r24,Z
 1880 0b8c 9181      		ldd r25,Z+1
 1881 0b8e A281      		ldd r26,Z+2
 1882 0b90 B381      		ldd r27,Z+3
 1883 0b92 8D83      		std Y+5,r24
 1884 0b94 9E83      		std Y+6,r25
 1885 0b96 AF83      		std Y+7,r26
 1886 0b98 B887      		std Y+8,r27
 185:lp_solve_5.5/lp_simplex.c **** #if 1
 186:lp_solve_5.5/lp_simplex.c ****     if(monitor->isdual)
 1887               		.loc 2 186 0
 1888 0b9a 8985      		ldd r24,Y+9
 1889 0b9c 9A85      		ldd r25,Y+10
 1890 0b9e 835A      		subi r24,-93
 1891 0ba0 9F4F      		sbci r25,-1
 1892 0ba2 FC01      		movw r30,r24
 1893 0ba4 8081      		ld r24,Z
 1894 0ba6 8823      		tst r24
 1895 0ba8 01F0      		breq .L44
 187:lp_solve_5.5/lp_simplex.c ****       refvalue *= 1000*log10(9.0+lp->rows);
 1896               		.loc 2 187 0
 1897 0baa 8E89      		ldd r24,Y+22
 1898 0bac 9F89      		ldd r25,Y+23
 1899 0bae 8651      		subi r24,22
 1900 0bb0 9E4F      		sbci r25,-2
 1901 0bb2 FC01      		movw r30,r24
 1902 0bb4 8081      		ld r24,Z
 1903 0bb6 9181      		ldd r25,Z+1
 1904 0bb8 092E      		mov __tmp_reg__,r25
 1905 0bba 000C      		lsl r0
 1906 0bbc AA0B      		sbc r26,r26
 1907 0bbe BB0B      		sbc r27,r27
 1908 0bc0 BC01      		movw r22,r24
 1909 0bc2 CD01      		movw r24,r26
 1910 0bc4 0E94 0000 		call __floatsisf
 1911 0bc8 DC01      		movw r26,r24
 1912 0bca CB01      		movw r24,r22
 1913 0bcc 20E0      		ldi r18,0
 1914 0bce 30E0      		ldi r19,0
 1915 0bd0 40E1      		ldi r20,lo8(16)
 1916 0bd2 51E4      		ldi r21,lo8(65)
 1917 0bd4 BC01      		movw r22,r24
 1918 0bd6 CD01      		movw r24,r26
 1919 0bd8 0E94 0000 		call __addsf3
 1920 0bdc DC01      		movw r26,r24
 1921 0bde CB01      		movw r24,r22
 1922 0be0 BC01      		movw r22,r24
 1923 0be2 CD01      		movw r24,r26
 1924 0be4 0E94 0000 		call log10
 1925 0be8 DC01      		movw r26,r24
 1926 0bea CB01      		movw r24,r22
 1927 0bec 20E0      		ldi r18,0
 1928 0bee 30E0      		ldi r19,0
 1929 0bf0 4AE7      		ldi r20,lo8(122)
 1930 0bf2 54E4      		ldi r21,lo8(68)
 1931 0bf4 BC01      		movw r22,r24
 1932 0bf6 CD01      		movw r24,r26
 1933 0bf8 0E94 0000 		call __mulsf3
 1934 0bfc DC01      		movw r26,r24
 1935 0bfe CB01      		movw r24,r22
 1936 0c00 9C01      		movw r18,r24
 1937 0c02 AD01      		movw r20,r26
 1938 0c04 6D81      		ldd r22,Y+5
 1939 0c06 7E81      		ldd r23,Y+6
 1940 0c08 8F81      		ldd r24,Y+7
 1941 0c0a 9885      		ldd r25,Y+8
 1942 0c0c 0E94 0000 		call __mulsf3
 1943 0c10 DC01      		movw r26,r24
 1944 0c12 CB01      		movw r24,r22
 1945 0c14 8D83      		std Y+5,r24
 1946 0c16 9E83      		std Y+6,r25
 1947 0c18 AF83      		std Y+7,r26
 1948 0c1a B887      		std Y+8,r27
 1949 0c1c 00C0      		rjmp .L45
 1950               	.L44:
 188:lp_solve_5.5/lp_simplex.c ****     else
 189:lp_solve_5.5/lp_simplex.c ****       refvalue *= 1000*log10(9.0+lp->columns);
 1951               		.loc 2 189 0
 1952 0c1e 8E89      		ldd r24,Y+22
 1953 0c20 9F89      		ldd r25,Y+23
 1954 0c22 8451      		subi r24,20
 1955 0c24 9E4F      		sbci r25,-2
 1956 0c26 FC01      		movw r30,r24
 1957 0c28 8081      		ld r24,Z
 1958 0c2a 9181      		ldd r25,Z+1
 1959 0c2c 092E      		mov __tmp_reg__,r25
 1960 0c2e 000C      		lsl r0
 1961 0c30 AA0B      		sbc r26,r26
 1962 0c32 BB0B      		sbc r27,r27
 1963 0c34 BC01      		movw r22,r24
 1964 0c36 CD01      		movw r24,r26
 1965 0c38 0E94 0000 		call __floatsisf
 1966 0c3c DC01      		movw r26,r24
 1967 0c3e CB01      		movw r24,r22
 1968 0c40 20E0      		ldi r18,0
 1969 0c42 30E0      		ldi r19,0
 1970 0c44 40E1      		ldi r20,lo8(16)
 1971 0c46 51E4      		ldi r21,lo8(65)
 1972 0c48 BC01      		movw r22,r24
 1973 0c4a CD01      		movw r24,r26
 1974 0c4c 0E94 0000 		call __addsf3
 1975 0c50 DC01      		movw r26,r24
 1976 0c52 CB01      		movw r24,r22
 1977 0c54 BC01      		movw r22,r24
 1978 0c56 CD01      		movw r24,r26
 1979 0c58 0E94 0000 		call log10
 1980 0c5c DC01      		movw r26,r24
 1981 0c5e CB01      		movw r24,r22
 1982 0c60 20E0      		ldi r18,0
 1983 0c62 30E0      		ldi r19,0
 1984 0c64 4AE7      		ldi r20,lo8(122)
 1985 0c66 54E4      		ldi r21,lo8(68)
 1986 0c68 BC01      		movw r22,r24
 1987 0c6a CD01      		movw r24,r26
 1988 0c6c 0E94 0000 		call __mulsf3
 1989 0c70 DC01      		movw r26,r24
 1990 0c72 CB01      		movw r24,r22
 1991 0c74 9C01      		movw r18,r24
 1992 0c76 AD01      		movw r20,r26
 1993 0c78 6D81      		ldd r22,Y+5
 1994 0c7a 7E81      		ldd r23,Y+6
 1995 0c7c 8F81      		ldd r24,Y+7
 1996 0c7e 9885      		ldd r25,Y+8
 1997 0c80 0E94 0000 		call __mulsf3
 1998 0c84 DC01      		movw r26,r24
 1999 0c86 CB01      		movw r24,r22
 2000 0c88 8D83      		std Y+5,r24
 2001 0c8a 9E83      		std Y+6,r25
 2002 0c8c AF83      		std Y+7,r26
 2003 0c8e B887      		std Y+8,r27
 2004               	.L45:
 190:lp_solve_5.5/lp_simplex.c **** #else
 191:lp_solve_5.5/lp_simplex.c ****       refvalue *= 1000*log10(9.0+lp->sum);
 192:lp_solve_5.5/lp_simplex.c **** #endif
 193:lp_solve_5.5/lp_simplex.c ****     testvalue = my_reldiff(monitor->thisinfeas, monitor->previnfeas);
 2005               		.loc 2 193 0
 2006 0c90 8985      		ldd r24,Y+9
 2007 0c92 9A85      		ldd r25,Y+10
 2008 0c94 8A5B      		subi r24,-70
 2009 0c96 9F4F      		sbci r25,-1
 2010 0c98 FC01      		movw r30,r24
 2011 0c9a 8081      		ld r24,Z
 2012 0c9c 9181      		ldd r25,Z+1
 2013 0c9e A281      		ldd r26,Z+2
 2014 0ca0 B381      		ldd r27,Z+3
 2015 0ca2 2985      		ldd r18,Y+9
 2016 0ca4 3A85      		ldd r19,Y+10
 2017 0ca6 265B      		subi r18,-74
 2018 0ca8 3F4F      		sbci r19,-1
 2019 0caa F901      		movw r30,r18
 2020 0cac 2081      		ld r18,Z
 2021 0cae 3181      		ldd r19,Z+1
 2022 0cb0 4281      		ldd r20,Z+2
 2023 0cb2 5381      		ldd r21,Z+3
 2024 0cb4 BC01      		movw r22,r24
 2025 0cb6 CD01      		movw r24,r26
 2026 0cb8 0E94 0000 		call __subsf3
 2027 0cbc DC01      		movw r26,r24
 2028 0cbe CB01      		movw r24,r22
 2029 0cc0 6C01      		movw r12,r24
 2030 0cc2 7D01      		movw r14,r26
 2031 0cc4 8985      		ldd r24,Y+9
 2032 0cc6 9A85      		ldd r25,Y+10
 2033 0cc8 865B      		subi r24,-74
 2034 0cca 9F4F      		sbci r25,-1
 2035 0ccc FC01      		movw r30,r24
 2036 0cce 8081      		ld r24,Z
 2037 0cd0 9181      		ldd r25,Z+1
 2038 0cd2 A281      		ldd r26,Z+2
 2039 0cd4 B381      		ldd r27,Z+3
 2040 0cd6 BF77      		andi r27,0x7f
 2041 0cd8 20E0      		ldi r18,0
 2042 0cda 30E0      		ldi r19,0
 2043 0cdc 40E8      		ldi r20,lo8(-128)
 2044 0cde 5FE3      		ldi r21,lo8(63)
 2045 0ce0 BC01      		movw r22,r24
 2046 0ce2 CD01      		movw r24,r26
 2047 0ce4 0E94 0000 		call __addsf3
 2048 0ce8 DC01      		movw r26,r24
 2049 0cea CB01      		movw r24,r22
 2050 0cec 9C01      		movw r18,r24
 2051 0cee AD01      		movw r20,r26
 2052 0cf0 C701      		movw r24,r14
 2053 0cf2 B601      		movw r22,r12
 2054 0cf4 0E94 0000 		call __divsf3
 2055 0cf8 DC01      		movw r26,r24
 2056 0cfa CB01      		movw r24,r22
 2057 0cfc 898B      		std Y+17,r24
 2058 0cfe 9A8B      		std Y+18,r25
 2059 0d00 AB8B      		std Y+19,r26
 2060 0d02 BC8B      		std Y+20,r27
 194:lp_solve_5.5/lp_simplex.c ****     isStalled &= (fabs(testvalue) < refvalue);
 2061               		.loc 2 194 0
 2062 0d04 8989      		ldd r24,Y+17
 2063 0d06 9A89      		ldd r25,Y+18
 2064 0d08 AB89      		ldd r26,Y+19
 2065 0d0a BC89      		ldd r27,Y+20
 2066 0d0c BF77      		andi r27,0x7f
 2067 0d0e 11E0      		ldi r17,lo8(1)
 2068 0d10 2D81      		ldd r18,Y+5
 2069 0d12 3E81      		ldd r19,Y+6
 2070 0d14 4F81      		ldd r20,Y+7
 2071 0d16 5885      		ldd r21,Y+8
 2072 0d18 BC01      		movw r22,r24
 2073 0d1a CD01      		movw r24,r26
 2074 0d1c 0E94 0000 		call __ltsf2
 2075 0d20 8823      		tst r24
 2076 0d22 04F0      		brlt .L46
 2077 0d24 10E0      		ldi r17,0
 2078               	.L46:
 2079 0d26 912F      		mov r25,r17
 2080 0d28 8981      		ldd r24,Y+1
 2081 0d2a 8923      		and r24,r25
 2082 0d2c 8983      		std Y+1,r24
 195:lp_solve_5.5/lp_simplex.c **** 
 196:lp_solve_5.5/lp_simplex.c ****     /* Check if we should force "major" pivoting, i.e. no bound flips;
 197:lp_solve_5.5/lp_simplex.c ****       this is activated when we see the feasibility deteriorate */
 198:lp_solve_5.5/lp_simplex.c **** /*    if(!isStalled && (testvalue > 0) && (TRUE || is_action(lp->anti_degen, ANTIDEGEN_BOUNDFLIP)))
 199:lp_solve_5.5/lp_simplex.c **** #if !defined _PRICE_NOBOUNDFLIP
 200:lp_solve_5.5/lp_simplex.c ****     if(!isStalled && (testvalue > 0) && is_action(lp->anti_degen, ANTIDEGEN_BOUNDFLIP))
 2083               		.loc 2 200 0
 2084 0d2e 8981      		ldd r24,Y+1
 2085 0d30 8823      		tst r24
 2086 0d32 01F4      		brne .L43
 2087               		.loc 2 200 0 is_stmt 0 discriminator 1
 2088 0d34 20E0      		ldi r18,0
 2089 0d36 30E0      		ldi r19,0
 2090 0d38 A901      		movw r20,r18
 2091 0d3a 6989      		ldd r22,Y+17
 2092 0d3c 7A89      		ldd r23,Y+18
 2093 0d3e 8B89      		ldd r24,Y+19
 2094 0d40 9C89      		ldd r25,Y+20
 2095 0d42 0E94 0000 		call __gtsf2
 2096 0d46 1816      		cp __zero_reg__,r24
 2097 0d48 04F4      		brge .L43
 2098               		.loc 2 200 0 discriminator 2
 2099 0d4a 8E89      		ldd r24,Y+22
 2100 0d4c 9F89      		ldd r25,Y+23
 2101 0d4e 8E58      		subi r24,-114
 2102 0d50 9D4F      		sbci r25,-3
 2103 0d52 FC01      		movw r30,r24
 2104 0d54 8081      		ld r24,Z
 2105 0d56 9181      		ldd r25,Z+1
 2106 0d58 60E0      		ldi r22,0
 2107 0d5a 72E0      		ldi r23,lo8(2)
 2108 0d5c 0E94 0000 		call is_action
 2109 0d60 8823      		tst r24
 2110 0d62 01F0      		breq .L43
 201:lp_solve_5.5/lp_simplex.c ****       acceptance = AUTOMATIC;
 2111               		.loc 2 201 0 is_stmt 1
 2112 0d64 82E0      		ldi r24,lo8(2)
 2113 0d66 8A83      		std Y+2,r24
 2114               	.L43:
 2115               	.LBE4:
 202:lp_solve_5.5/lp_simplex.c ****   }
 203:lp_solve_5.5/lp_simplex.c **** #else
 204:lp_solve_5.5/lp_simplex.c ****     if(!isStalled && (testvalue > 0) && !ISMASKSET(lp->piv_strategy, PRICE_NOBOUNDFLIP)) {
 205:lp_solve_5.5/lp_simplex.c ****       SETMASK(lp->piv_strategy, PRICE_NOBOUNDFLIP);
 206:lp_solve_5.5/lp_simplex.c ****       acceptance = AUTOMATIC;
 207:lp_solve_5.5/lp_simplex.c ****     }
 208:lp_solve_5.5/lp_simplex.c ****   }
 209:lp_solve_5.5/lp_simplex.c ****   else
 210:lp_solve_5.5/lp_simplex.c ****     CLEARMASK(lp->piv_strategy, PRICE_NOBOUNDFLIP);
 211:lp_solve_5.5/lp_simplex.c **** #endif
 212:lp_solve_5.5/lp_simplex.c **** 
 213:lp_solve_5.5/lp_simplex.c **** #if 1
 214:lp_solve_5.5/lp_simplex.c ****   isCreeping = FALSE;
 2116               		.loc 2 214 0
 2117 0d68 1D8A      		std Y+21,__zero_reg__
 215:lp_solve_5.5/lp_simplex.c **** #else
 216:lp_solve_5.5/lp_simplex.c ****   isCreeping |= stallMonitor_creepingObj(lp);
 217:lp_solve_5.5/lp_simplex.c **** /*  isCreeping |= stallMonitor_shortSteps(lp); */
 218:lp_solve_5.5/lp_simplex.c **** #endif
 219:lp_solve_5.5/lp_simplex.c ****   if(isStalled || isCreeping) {
 2118               		.loc 2 219 0
 2119 0d6a 8981      		ldd r24,Y+1
 2120 0d6c 8823      		tst r24
 2121 0d6e 01F4      		brne .L48
 2122               		.loc 2 219 0 is_stmt 0 discriminator 1
 2123 0d70 8D89      		ldd r24,Y+21
 2124 0d72 8823      		tst r24
 2125 0d74 01F4      		brne .+2
 2126 0d76 00C0      		rjmp .L49
 2127               	.L48:
 220:lp_solve_5.5/lp_simplex.c **** 
 221:lp_solve_5.5/lp_simplex.c ****     /* Update counters along with specific tolerance for bound flips */
 222:lp_solve_5.5/lp_simplex.c **** #if 1
 223:lp_solve_5.5/lp_simplex.c ****     if(minit != ITERATE_MAJORMAJOR) {
 2128               		.loc 2 223 0 is_stmt 1
 2129 0d78 8E8D      		ldd r24,Y+30
 2130 0d7a 8823      		tst r24
 2131 0d7c 01F0      		breq .L50
 224:lp_solve_5.5/lp_simplex.c ****       if(++monitor->Mcycle > 2) {
 2132               		.loc 2 224 0
 2133 0d7e 8985      		ldd r24,Y+9
 2134 0d80 9A85      		ldd r25,Y+10
 2135 0d82 FC01      		movw r30,r24
 2136 0d84 86A1      		ldd r24,Z+38
 2137 0d86 97A1      		ldd r25,Z+39
 2138 0d88 9C01      		movw r18,r24
 2139 0d8a 2F5F      		subi r18,-1
 2140 0d8c 3F4F      		sbci r19,-1
 2141 0d8e 8985      		ldd r24,Y+9
 2142 0d90 9A85      		ldd r25,Y+10
 2143 0d92 FC01      		movw r30,r24
 2144 0d94 37A3      		std Z+39,r19
 2145 0d96 26A3      		std Z+38,r18
 2146 0d98 8985      		ldd r24,Y+9
 2147 0d9a 9A85      		ldd r25,Y+10
 2148 0d9c FC01      		movw r30,r24
 2149 0d9e 86A1      		ldd r24,Z+38
 2150 0da0 97A1      		ldd r25,Z+39
 2151 0da2 0397      		sbiw r24,3
 2152 0da4 04F0      		brlt .L52
 225:lp_solve_5.5/lp_simplex.c ****         monitor->Mcycle = 0;
 2153               		.loc 2 225 0
 2154 0da6 8985      		ldd r24,Y+9
 2155 0da8 9A85      		ldd r25,Y+10
 2156 0daa FC01      		movw r30,r24
 2157 0dac 17A2      		std Z+39,__zero_reg__
 2158 0dae 16A2      		std Z+38,__zero_reg__
 226:lp_solve_5.5/lp_simplex.c ****         monitor->Ncycle++;
 2159               		.loc 2 226 0
 2160 0db0 8985      		ldd r24,Y+9
 2161 0db2 9A85      		ldd r25,Y+10
 2162 0db4 FC01      		movw r30,r24
 2163 0db6 84A1      		ldd r24,Z+36
 2164 0db8 95A1      		ldd r25,Z+37
 2165 0dba 9C01      		movw r18,r24
 2166 0dbc 2F5F      		subi r18,-1
 2167 0dbe 3F4F      		sbci r19,-1
 2168 0dc0 8985      		ldd r24,Y+9
 2169 0dc2 9A85      		ldd r25,Y+10
 2170 0dc4 FC01      		movw r30,r24
 2171 0dc6 35A3      		std Z+37,r19
 2172 0dc8 24A3      		std Z+36,r18
 2173 0dca 00C0      		rjmp .L52
 2174               	.L50:
 227:lp_solve_5.5/lp_simplex.c ****       }
 228:lp_solve_5.5/lp_simplex.c ****     }
 229:lp_solve_5.5/lp_simplex.c ****     else
 230:lp_solve_5.5/lp_simplex.c **** #endif
 231:lp_solve_5.5/lp_simplex.c ****       monitor->Ncycle++;
 2175               		.loc 2 231 0
 2176 0dcc 8985      		ldd r24,Y+9
 2177 0dce 9A85      		ldd r25,Y+10
 2178 0dd0 FC01      		movw r30,r24
 2179 0dd2 84A1      		ldd r24,Z+36
 2180 0dd4 95A1      		ldd r25,Z+37
 2181 0dd6 9C01      		movw r18,r24
 2182 0dd8 2F5F      		subi r18,-1
 2183 0dda 3F4F      		sbci r19,-1
 2184 0ddc 8985      		ldd r24,Y+9
 2185 0dde 9A85      		ldd r25,Y+10
 2186 0de0 FC01      		movw r30,r24
 2187 0de2 35A3      		std Z+37,r19
 2188 0de4 24A3      		std Z+36,r18
 2189               	.L52:
 232:lp_solve_5.5/lp_simplex.c **** 
 233:lp_solve_5.5/lp_simplex.c ****     /* Start to monitor for variable cycling if this is the initial stationarity */
 234:lp_solve_5.5/lp_simplex.c ****     if(monitor->Ncycle <= 1) {
 2190               		.loc 2 234 0
 2191 0de6 8985      		ldd r24,Y+9
 2192 0de8 9A85      		ldd r25,Y+10
 2193 0dea FC01      		movw r30,r24
 2194 0dec 84A1      		ldd r24,Z+36
 2195 0dee 95A1      		ldd r25,Z+37
 2196 0df0 0297      		sbiw r24,2
 2197 0df2 04F4      		brge .L53
 235:lp_solve_5.5/lp_simplex.c ****       monitor->Ccycle = colnr;
 2198               		.loc 2 235 0
 2199 0df4 8985      		ldd r24,Y+9
 2200 0df6 9A85      		ldd r25,Y+10
 2201 0df8 2A8D      		ldd r18,Y+26
 2202 0dfa 3B8D      		ldd r19,Y+27
 2203 0dfc FC01      		movw r30,r24
 2204 0dfe 33A3      		std Z+35,r19
 2205 0e00 22A3      		std Z+34,r18
 236:lp_solve_5.5/lp_simplex.c ****       monitor->Rcycle = rownr;
 2206               		.loc 2 236 0
 2207 0e02 8985      		ldd r24,Y+9
 2208 0e04 9A85      		ldd r25,Y+10
 2209 0e06 288D      		ldd r18,Y+24
 2210 0e08 398D      		ldd r19,Y+25
 2211 0e0a FC01      		movw r30,r24
 2212 0e0c 31A3      		std Z+33,r19
 2213 0e0e 20A3      		std Z+32,r18
 234:lp_solve_5.5/lp_simplex.c ****       monitor->Ccycle = colnr;
 2214               		.loc 2 234 0
 2215 0e10 00C0      		rjmp .L78
 2216               	.L53:
 237:lp_solve_5.5/lp_simplex.c ****     }
 238:lp_solve_5.5/lp_simplex.c **** 
 239:lp_solve_5.5/lp_simplex.c ****     /* Check if we should change pivoting strategy */
 240:lp_solve_5.5/lp_simplex.c ****     else if(isCreeping ||                                                 /* We have OF creep */
 2217               		.loc 2 240 0
 2218 0e12 8D89      		ldd r24,Y+21
 2219 0e14 8823      		tst r24
 2220 0e16 01F4      		brne .L55
 241:lp_solve_5.5/lp_simplex.c ****             (monitor->Ncycle > monitor->limitstall[monitor->isdual]) ||   /* KE empirical value */
 2221               		.loc 2 241 0 discriminator 1
 2222 0e18 8985      		ldd r24,Y+9
 2223 0e1a 9A85      		ldd r25,Y+10
 2224 0e1c FC01      		movw r30,r24
 2225 0e1e 24A1      		ldd r18,Z+36
 2226 0e20 35A1      		ldd r19,Z+37
 2227 0e22 8985      		ldd r24,Y+9
 2228 0e24 9A85      		ldd r25,Y+10
 2229 0e26 835A      		subi r24,-93
 2230 0e28 9F4F      		sbci r25,-1
 2231 0e2a FC01      		movw r30,r24
 2232 0e2c 8081      		ld r24,Z
 2233 0e2e 882F      		mov r24,r24
 2234 0e30 90E0      		ldi r25,0
 2235 0e32 4985      		ldd r20,Y+9
 2236 0e34 5A85      		ldd r21,Y+10
 2237 0e36 0596      		adiw r24,5
 2238 0e38 880F      		lsl r24
 2239 0e3a 991F      		rol r25
 2240 0e3c 840F      		add r24,r20
 2241 0e3e 951F      		adc r25,r21
 2242 0e40 FC01      		movw r30,r24
 2243 0e42 8081      		ld r24,Z
 2244 0e44 9181      		ldd r25,Z+1
 240:lp_solve_5.5/lp_simplex.c ****             (monitor->Ncycle > monitor->limitstall[monitor->isdual]) ||   /* KE empirical value */
 2245               		.loc 2 240 0 discriminator 1
 2246 0e46 8217      		cp r24,r18
 2247 0e48 9307      		cpc r25,r19
 2248 0e4a 04F0      		brlt .L55
 242:lp_solve_5.5/lp_simplex.c ****             ((monitor->Ccycle == rownr) && (monitor->Rcycle == colnr))) {   /* Obvious cycling */
 2249               		.loc 2 242 0
 2250 0e4c 8985      		ldd r24,Y+9
 2251 0e4e 9A85      		ldd r25,Y+10
 2252 0e50 FC01      		movw r30,r24
 2253 0e52 22A1      		ldd r18,Z+34
 2254 0e54 33A1      		ldd r19,Z+35
 241:lp_solve_5.5/lp_simplex.c ****             (monitor->Ncycle > monitor->limitstall[monitor->isdual]) ||   /* KE empirical value */
 2255               		.loc 2 241 0
 2256 0e56 888D      		ldd r24,Y+24
 2257 0e58 998D      		ldd r25,Y+25
 2258 0e5a 2817      		cp r18,r24
 2259 0e5c 3907      		cpc r19,r25
 2260 0e5e 01F0      		breq .+2
 2261 0e60 00C0      		rjmp .L78
 2262               		.loc 2 242 0
 2263 0e62 8985      		ldd r24,Y+9
 2264 0e64 9A85      		ldd r25,Y+10
 2265 0e66 FC01      		movw r30,r24
 2266 0e68 20A1      		ldd r18,Z+32
 2267 0e6a 31A1      		ldd r19,Z+33
 2268 0e6c 8A8D      		ldd r24,Y+26
 2269 0e6e 9B8D      		ldd r25,Y+27
 2270 0e70 2817      		cp r18,r24
 2271 0e72 3907      		cpc r19,r25
 2272 0e74 01F0      		breq .+2
 2273 0e76 00C0      		rjmp .L78
 2274               	.L55:
 243:lp_solve_5.5/lp_simplex.c **** 
 244:lp_solve_5.5/lp_simplex.c ****       monitor->active = TRUE;
 2275               		.loc 2 244 0
 2276 0e78 8985      		ldd r24,Y+9
 2277 0e7a 9A85      		ldd r25,Y+10
 2278 0e7c 825A      		subi r24,-94
 2279 0e7e 9F4F      		sbci r25,-1
 2280 0e80 21E0      		ldi r18,lo8(1)
 2281 0e82 FC01      		movw r30,r24
 2282 0e84 2083      		st Z,r18
 245:lp_solve_5.5/lp_simplex.c **** 
 246:lp_solve_5.5/lp_simplex.c ****       /* Try to force out equality slacks to combat degeneracy */
 247:lp_solve_5.5/lp_simplex.c ****       if((lp->fixedvars > 0) && (*forceoutEQ != TRUE)) {
 2283               		.loc 2 247 0
 2284 0e86 8E89      		ldd r24,Y+22
 2285 0e88 9F89      		ldd r25,Y+23
 2286 0e8a 8457      		subi r24,116
 2287 0e8c 9D4F      		sbci r25,-3
 2288 0e8e FC01      		movw r30,r24
 2289 0e90 8081      		ld r24,Z
 2290 0e92 9181      		ldd r25,Z+1
 2291 0e94 1816      		cp __zero_reg__,r24
 2292 0e96 1906      		cpc __zero_reg__,r25
 2293 0e98 04F4      		brge .L56
 2294               		.loc 2 247 0 is_stmt 0 discriminator 1
 2295 0e9a 88A1      		ldd r24,Y+32
 2296 0e9c 99A1      		ldd r25,Y+33
 2297 0e9e FC01      		movw r30,r24
 2298 0ea0 8081      		ld r24,Z
 2299 0ea2 8130      		cpi r24,lo8(1)
 2300 0ea4 01F0      		breq .L56
 248:lp_solve_5.5/lp_simplex.c ****         *forceoutEQ = TRUE;
 2301               		.loc 2 248 0 is_stmt 1
 2302 0ea6 88A1      		ldd r24,Y+32
 2303 0ea8 99A1      		ldd r25,Y+33
 2304 0eaa 21E0      		ldi r18,lo8(1)
 2305 0eac FC01      		movw r30,r24
 2306 0eae 2083      		st Z,r18
 249:lp_solve_5.5/lp_simplex.c ****         goto Proceed;
 2307               		.loc 2 249 0
 2308 0eb0 00C0      		rjmp .L57
 2309               	.L56:
 250:lp_solve_5.5/lp_simplex.c ****       }
 251:lp_solve_5.5/lp_simplex.c **** 
 252:lp_solve_5.5/lp_simplex.c ****       /* Our options are now to select an alternative rule or to do bound perturbation;
 253:lp_solve_5.5/lp_simplex.c ****          check if these options are available to us or if we must signal failure and break out. */
 254:lp_solve_5.5/lp_simplex.c ****       approved &= monitor->pivdynamic && (monitor->ruleswitches < monitor->limitruleswitches);
 2310               		.loc 2 254 0
 2311 0eb2 8985      		ldd r24,Y+9
 2312 0eb4 9A85      		ldd r25,Y+10
 2313 0eb6 845A      		subi r24,-92
 2314 0eb8 9F4F      		sbci r25,-1
 2315 0eba FC01      		movw r30,r24
 2316 0ebc 8081      		ld r24,Z
 2317 0ebe 8823      		tst r24
 2318 0ec0 01F0      		breq .L58
 2319               		.loc 2 254 0 is_stmt 0 discriminator 1
 2320 0ec2 8985      		ldd r24,Y+9
 2321 0ec4 9A85      		ldd r25,Y+10
 2322 0ec6 FC01      		movw r30,r24
 2323 0ec8 2085      		ldd r18,Z+8
 2324 0eca 3185      		ldd r19,Z+9
 2325 0ecc 8985      		ldd r24,Y+9
 2326 0ece 9A85      		ldd r25,Y+10
 2327 0ed0 FC01      		movw r30,r24
 2328 0ed2 8685      		ldd r24,Z+14
 2329 0ed4 9785      		ldd r25,Z+15
 2330 0ed6 2817      		cp r18,r24
 2331 0ed8 3907      		cpc r19,r25
 2332 0eda 04F4      		brge .L58
 2333               		.loc 2 254 0 discriminator 3
 2334 0edc 81E0      		ldi r24,lo8(1)
 2335 0ede 90E0      		ldi r25,0
 2336 0ee0 00C0      		rjmp .L59
 2337               	.L58:
 2338               		.loc 2 254 0 discriminator 4
 2339 0ee2 80E0      		ldi r24,0
 2340 0ee4 90E0      		ldi r25,0
 2341               	.L59:
 2342               		.loc 2 254 0 discriminator 6
 2343 0ee6 982F      		mov r25,r24
 2344 0ee8 8F8D      		ldd r24,Y+31
 2345 0eea 8923      		and r24,r25
 2346 0eec 8F8F      		std Y+31,r24
 255:lp_solve_5.5/lp_simplex.c ****       if(!approved && !is_anti_degen(lp, ANTIDEGEN_STALLING)) {
 2347               		.loc 2 255 0 is_stmt 1 discriminator 6
 2348 0eee 8F8D      		ldd r24,Y+31
 2349 0ef0 8823      		tst r24
 2350 0ef2 01F0      		breq .+2
 2351 0ef4 00C0      		rjmp .L60
 2352               		.loc 2 255 0 is_stmt 0 discriminator 1
 2353 0ef6 8E89      		ldd r24,Y+22
 2354 0ef8 9F89      		ldd r25,Y+23
 2355 0efa 64E0      		ldi r22,lo8(4)
 2356 0efc 70E0      		ldi r23,0
 2357 0efe 0E94 0000 		call is_anti_degen
 2358 0f02 8823      		tst r24
 2359 0f04 01F0      		breq .+2
 2360 0f06 00C0      		rjmp .L60
 256:lp_solve_5.5/lp_simplex.c ****         lp->spx_status = DEGENERATE;
 2361               		.loc 2 256 0 is_stmt 1
 2362 0f08 8E89      		ldd r24,Y+22
 2363 0f0a 9F89      		ldd r25,Y+23
 2364 0f0c 8A5F      		subi r24,-6
 2365 0f0e 9D4F      		sbci r25,-3
 2366 0f10 24E0      		ldi r18,lo8(4)
 2367 0f12 30E0      		ldi r19,0
 2368 0f14 FC01      		movw r30,r24
 2369 0f16 3183      		std Z+1,r19
 2370 0f18 2083      		st Z,r18
 257:lp_solve_5.5/lp_simplex.c ****         report(lp, msglevel, "%s: Stalling at iter %10.0f; no alternative strategy left.\n",
 258:lp_solve_5.5/lp_simplex.c ****                              monitor->spxfunc, (double) get_total_iter(lp));
 2371               		.loc 2 258 0
 2372 0f1a 8E89      		ldd r24,Y+22
 2373 0f1c 9F89      		ldd r25,Y+23
 2374 0f1e 0E94 0000 		call get_total_iter
 2375 0f22 A22E      		mov r10,r18
 2376 0f24 B32E      		mov r11,r19
 2377 0f26 C42E      		mov r12,r20
 2378 0f28 D52E      		mov r13,r21
 2379 0f2a E62E      		mov r14,r22
 2380 0f2c F72E      		mov r15,r23
 2381 0f2e 082F      		mov r16,r24
 2382 0f30 192F      		mov r17,r25
 257:lp_solve_5.5/lp_simplex.c ****         report(lp, msglevel, "%s: Stalling at iter %10.0f; no alternative strategy left.\n",
 2383               		.loc 2 257 0
 2384 0f32 2A2D      		mov r18,r10
 2385 0f34 3B2D      		mov r19,r11
 2386 0f36 4C2D      		mov r20,r12
 2387 0f38 5D2D      		mov r21,r13
 2388 0f3a 6E2D      		mov r22,r14
 2389 0f3c 7F2D      		mov r23,r15
 2390 0f3e 802F      		mov r24,r16
 2391 0f40 912F      		mov r25,r17
 2392 0f42 0E94 0000 		call __floatdisf
 2393 0f46 DC01      		movw r26,r24
 2394 0f48 CB01      		movw r24,r22
 2395               		.loc 2 258 0
 2396 0f4a 2985      		ldd r18,Y+9
 2397 0f4c 3A85      		ldd r19,Y+10
 2398 0f4e 2E5A      		subi r18,-82
 2399 0f50 3F4F      		sbci r19,-1
 257:lp_solve_5.5/lp_simplex.c ****         report(lp, msglevel, "%s: Stalling at iter %10.0f; no alternative strategy left.\n",
 2400               		.loc 2 257 0
 2401 0f52 4B2F      		mov r20,r27
 2402 0f54 4F93      		push r20
 2403 0f56 4A2F      		mov r20,r26
 2404 0f58 4F93      		push r20
 2405 0f5a 492F      		mov r20,r25
 2406 0f5c 4F93      		push r20
 2407 0f5e 8F93      		push r24
 2408 0f60 832F      		mov r24,r19
 2409 0f62 8F93      		push r24
 2410 0f64 822F      		mov r24,r18
 2411 0f66 8F93      		push r24
 2412 0f68 80E0      		ldi r24,lo8(.LC3)
 2413 0f6a 90E0      		ldi r25,hi8(.LC3)
 2414 0f6c 892F      		mov r24,r25
 2415 0f6e 8F93      		push r24
 2416 0f70 80E0      		ldi r24,lo8(.LC3)
 2417 0f72 90E0      		ldi r25,hi8(.LC3)
 2418 0f74 8F93      		push r24
 2419 0f76 8C85      		ldd r24,Y+12
 2420 0f78 8F93      		push r24
 2421 0f7a 8B85      		ldd r24,Y+11
 2422 0f7c 8F93      		push r24
 2423 0f7e 8F89      		ldd r24,Y+23
 2424 0f80 8F93      		push r24
 2425 0f82 8E89      		ldd r24,Y+22
 2426 0f84 8F93      		push r24
 2427 0f86 0E94 0000 		call report
 2428 0f8a 8DB7      		in r24,__SP_L__
 2429 0f8c 9EB7      		in r25,__SP_H__
 2430 0f8e 0C96      		adiw r24,12
 2431 0f90 0FB6      		in __tmp_reg__,__SREG__
 2432 0f92 F894      		cli
 2433 0f94 DEBF      		out __SP_H__,r29
 2434 0f96 0FBE      		out __SREG__,__tmp_reg__
 2435 0f98 CDBF      		out __SP_L__,r28
 259:lp_solve_5.5/lp_simplex.c ****         acceptance = FALSE;
 2436               		.loc 2 259 0
 2437 0f9a 1A82      		std Y+2,__zero_reg__
 260:lp_solve_5.5/lp_simplex.c ****         return( acceptance );
 2438               		.loc 2 260 0
 2439 0f9c 8A81      		ldd r24,Y+2
 2440 0f9e 00C0      		rjmp .L38
 2441               	.L60:
 261:lp_solve_5.5/lp_simplex.c ****       }
 262:lp_solve_5.5/lp_simplex.c **** 
 263:lp_solve_5.5/lp_simplex.c ****       /* See if we can do the appropriate alternative rule. */
 264:lp_solve_5.5/lp_simplex.c ****       switch (monitor->oldpivrule) {
 2442               		.loc 2 264 0
 2443 0fa0 8985      		ldd r24,Y+9
 2444 0fa2 9A85      		ldd r25,Y+10
 2445 0fa4 FC01      		movw r30,r24
 2446 0fa6 8481      		ldd r24,Z+4
 2447 0fa8 9581      		ldd r25,Z+5
 2448 0faa 8130      		cpi r24,1
 2449 0fac 9105      		cpc r25,__zero_reg__
 2450 0fae 01F0      		breq .L62
 2451 0fb0 8230      		cpi r24,2
 2452 0fb2 9105      		cpc r25,__zero_reg__
 2453 0fb4 04F4      		brge .L63
 2454 0fb6 892B      		or r24,r25
 2455 0fb8 01F0      		breq .L64
 2456 0fba 00C0      		rjmp .L61
 2457               	.L63:
 2458 0fbc 8230      		cpi r24,2
 2459 0fbe 9105      		cpc r25,__zero_reg__
 2460 0fc0 01F0      		breq .L65
 2461 0fc2 0397      		sbiw r24,3
 2462 0fc4 01F0      		breq .L66
 2463 0fc6 00C0      		rjmp .L61
 2464               	.L64:
 265:lp_solve_5.5/lp_simplex.c ****         case PRICER_FIRSTINDEX:    altrule = PRICER_DEVEX;
 2465               		.loc 2 265 0
 2466 0fc8 82E0      		ldi r24,lo8(2)
 2467 0fca 90E0      		ldi r25,0
 2468 0fcc 9C83      		std Y+4,r25
 2469 0fce 8B83      		std Y+3,r24
 266:lp_solve_5.5/lp_simplex.c ****                                    break;
 2470               		.loc 2 266 0
 2471 0fd0 00C0      		rjmp .L67
 2472               	.L62:
 267:lp_solve_5.5/lp_simplex.c ****         case PRICER_DANTZIG:       altrule = PRICER_DEVEX;
 2473               		.loc 2 267 0
 2474 0fd2 82E0      		ldi r24,lo8(2)
 2475 0fd4 90E0      		ldi r25,0
 2476 0fd6 9C83      		std Y+4,r25
 2477 0fd8 8B83      		std Y+3,r24
 268:lp_solve_5.5/lp_simplex.c ****                                    break;
 2478               		.loc 2 268 0
 2479 0fda 00C0      		rjmp .L67
 2480               	.L65:
 269:lp_solve_5.5/lp_simplex.c ****         case PRICER_DEVEX:         altrule = PRICER_STEEPESTEDGE;
 2481               		.loc 2 269 0
 2482 0fdc 83E0      		ldi r24,lo8(3)
 2483 0fde 90E0      		ldi r25,0
 2484 0fe0 9C83      		std Y+4,r25
 2485 0fe2 8B83      		std Y+3,r24
 270:lp_solve_5.5/lp_simplex.c ****                                    break;
 2486               		.loc 2 270 0
 2487 0fe4 00C0      		rjmp .L67
 2488               	.L66:
 271:lp_solve_5.5/lp_simplex.c ****         case PRICER_STEEPESTEDGE:  altrule = PRICER_DEVEX;
 2489               		.loc 2 271 0
 2490 0fe6 82E0      		ldi r24,lo8(2)
 2491 0fe8 90E0      		ldi r25,0
 2492 0fea 9C83      		std Y+4,r25
 2493 0fec 8B83      		std Y+3,r24
 272:lp_solve_5.5/lp_simplex.c ****                                    break;
 2494               		.loc 2 272 0
 2495 0fee 00C0      		rjmp .L67
 2496               	.L61:
 273:lp_solve_5.5/lp_simplex.c ****         default:                   altrule = PRICER_FIRSTINDEX;
 2497               		.loc 2 273 0
 2498 0ff0 1C82      		std Y+4,__zero_reg__
 2499 0ff2 1B82      		std Y+3,__zero_reg__
 2500               	.L67:
 274:lp_solve_5.5/lp_simplex.c ****       }
 275:lp_solve_5.5/lp_simplex.c ****       if(approved &&
 2501               		.loc 2 275 0
 2502 0ff4 8F8D      		ldd r24,Y+31
 2503 0ff6 8823      		tst r24
 2504 0ff8 01F4      		brne .+2
 2505 0ffa 00C0      		rjmp .L68
 276:lp_solve_5.5/lp_simplex.c ****          (monitor->pivrule != altrule) && (monitor->pivrule == monitor->oldpivrule)) {
 2506               		.loc 2 276 0 discriminator 1
 2507 0ffc 8985      		ldd r24,Y+9
 2508 0ffe 9A85      		ldd r25,Y+10
 2509 1000 FC01      		movw r30,r24
 2510 1002 2681      		ldd r18,Z+6
 2511 1004 3781      		ldd r19,Z+7
 275:lp_solve_5.5/lp_simplex.c ****          (monitor->pivrule != altrule) && (monitor->pivrule == monitor->oldpivrule)) {
 2512               		.loc 2 275 0 discriminator 1
 2513 1006 8B81      		ldd r24,Y+3
 2514 1008 9C81      		ldd r25,Y+4
 2515 100a 2817      		cp r18,r24
 2516 100c 3907      		cpc r19,r25
 2517 100e 01F4      		brne .+2
 2518 1010 00C0      		rjmp .L68
 2519               		.loc 2 276 0
 2520 1012 8985      		ldd r24,Y+9
 2521 1014 9A85      		ldd r25,Y+10
 2522 1016 FC01      		movw r30,r24
 2523 1018 2681      		ldd r18,Z+6
 2524 101a 3781      		ldd r19,Z+7
 2525 101c 8985      		ldd r24,Y+9
 2526 101e 9A85      		ldd r25,Y+10
 2527 1020 FC01      		movw r30,r24
 2528 1022 8481      		ldd r24,Z+4
 2529 1024 9581      		ldd r25,Z+5
 2530 1026 2817      		cp r18,r24
 2531 1028 3907      		cpc r19,r25
 2532 102a 01F0      		breq .+2
 2533 102c 00C0      		rjmp .L68
 277:lp_solve_5.5/lp_simplex.c **** 
 278:lp_solve_5.5/lp_simplex.c ****         /* Switch rule to combat degeneracy. */
 279:lp_solve_5.5/lp_simplex.c ****         monitor->ruleswitches++;
 2534               		.loc 2 279 0
 2535 102e 8985      		ldd r24,Y+9
 2536 1030 9A85      		ldd r25,Y+10
 2537 1032 FC01      		movw r30,r24
 2538 1034 8085      		ldd r24,Z+8
 2539 1036 9185      		ldd r25,Z+9
 2540 1038 9C01      		movw r18,r24
 2541 103a 2F5F      		subi r18,-1
 2542 103c 3F4F      		sbci r19,-1
 2543 103e 8985      		ldd r24,Y+9
 2544 1040 9A85      		ldd r25,Y+10
 2545 1042 FC01      		movw r30,r24
 2546 1044 3187      		std Z+9,r19
 2547 1046 2087      		std Z+8,r18
 280:lp_solve_5.5/lp_simplex.c ****         lp->piv_strategy = altrule;
 2548               		.loc 2 280 0
 2549 1048 8E89      		ldd r24,Y+22
 2550 104a 9F89      		ldd r25,Y+23
 2551 104c 805A      		subi r24,-96
 2552 104e 9D4F      		sbci r25,-3
 2553 1050 2B81      		ldd r18,Y+3
 2554 1052 3C81      		ldd r19,Y+4
 2555 1054 FC01      		movw r30,r24
 2556 1056 3183      		std Z+1,r19
 2557 1058 2083      		st Z,r18
 281:lp_solve_5.5/lp_simplex.c ****         monitor->Ccycle = 0;
 2558               		.loc 2 281 0
 2559 105a 8985      		ldd r24,Y+9
 2560 105c 9A85      		ldd r25,Y+10
 2561 105e FC01      		movw r30,r24
 2562 1060 13A2      		std Z+35,__zero_reg__
 2563 1062 12A2      		std Z+34,__zero_reg__
 282:lp_solve_5.5/lp_simplex.c ****         monitor->Rcycle = 0;
 2564               		.loc 2 282 0
 2565 1064 8985      		ldd r24,Y+9
 2566 1066 9A85      		ldd r25,Y+10
 2567 1068 FC01      		movw r30,r24
 2568 106a 11A2      		std Z+33,__zero_reg__
 2569 106c 10A2      		std Z+32,__zero_reg__
 283:lp_solve_5.5/lp_simplex.c ****         monitor->Ncycle = 0;
 2570               		.loc 2 283 0
 2571 106e 8985      		ldd r24,Y+9
 2572 1070 9A85      		ldd r25,Y+10
 2573 1072 FC01      		movw r30,r24
 2574 1074 15A2      		std Z+37,__zero_reg__
 2575 1076 14A2      		std Z+36,__zero_reg__
 284:lp_solve_5.5/lp_simplex.c ****         monitor->Mcycle = 0;
 2576               		.loc 2 284 0
 2577 1078 8985      		ldd r24,Y+9
 2578 107a 9A85      		ldd r25,Y+10
 2579 107c FC01      		movw r30,r24
 2580 107e 17A2      		std Z+39,__zero_reg__
 2581 1080 16A2      		std Z+38,__zero_reg__
 285:lp_solve_5.5/lp_simplex.c ****         report(lp, msglevel, "%s: Stalling at iter %10.0f; changed to '%s' rule.\n",
 2582               		.loc 2 285 0
 2583 1082 8E89      		ldd r24,Y+22
 2584 1084 9F89      		ldd r25,Y+23
 2585 1086 0E94 0000 		call get_piv_rule
 2586 108a 0E94 0000 		call get_str_piv_rule
 2587 108e 4C01      		movw r8,r24
 286:lp_solve_5.5/lp_simplex.c ****                              monitor->spxfunc, (double) get_total_iter(lp),
 2588               		.loc 2 286 0
 2589 1090 8E89      		ldd r24,Y+22
 2590 1092 9F89      		ldd r25,Y+23
 2591 1094 0E94 0000 		call get_total_iter
 2592 1098 A22E      		mov r10,r18
 2593 109a B32E      		mov r11,r19
 2594 109c C42E      		mov r12,r20
 2595 109e D52E      		mov r13,r21
 2596 10a0 E62E      		mov r14,r22
 2597 10a2 F72E      		mov r15,r23
 2598 10a4 082F      		mov r16,r24
 2599 10a6 192F      		mov r17,r25
 285:lp_solve_5.5/lp_simplex.c ****         report(lp, msglevel, "%s: Stalling at iter %10.0f; changed to '%s' rule.\n",
 2600               		.loc 2 285 0
 2601 10a8 2A2D      		mov r18,r10
 2602 10aa 3B2D      		mov r19,r11
 2603 10ac 4C2D      		mov r20,r12
 2604 10ae 5D2D      		mov r21,r13
 2605 10b0 6E2D      		mov r22,r14
 2606 10b2 7F2D      		mov r23,r15
 2607 10b4 802F      		mov r24,r16
 2608 10b6 912F      		mov r25,r17
 2609 10b8 0E94 0000 		call __floatdisf
 2610 10bc DC01      		movw r26,r24
 2611 10be CB01      		movw r24,r22
 2612               		.loc 2 286 0
 2613 10c0 2985      		ldd r18,Y+9
 2614 10c2 3A85      		ldd r19,Y+10
 2615 10c4 2E5A      		subi r18,-82
 2616 10c6 3F4F      		sbci r19,-1
 285:lp_solve_5.5/lp_simplex.c ****         report(lp, msglevel, "%s: Stalling at iter %10.0f; changed to '%s' rule.\n",
 2617               		.loc 2 285 0
 2618 10c8 492D      		mov r20,r9
 2619 10ca 4F93      		push r20
 2620 10cc 482D      		mov r20,r8
 2621 10ce 4F93      		push r20
 2622 10d0 4B2F      		mov r20,r27
 2623 10d2 4F93      		push r20
 2624 10d4 4A2F      		mov r20,r26
 2625 10d6 4F93      		push r20
 2626 10d8 492F      		mov r20,r25
 2627 10da 4F93      		push r20
 2628 10dc 8F93      		push r24
 2629 10de 832F      		mov r24,r19
 2630 10e0 8F93      		push r24
 2631 10e2 822F      		mov r24,r18
 2632 10e4 8F93      		push r24
 2633 10e6 80E0      		ldi r24,lo8(.LC4)
 2634 10e8 90E0      		ldi r25,hi8(.LC4)
 2635 10ea 892F      		mov r24,r25
 2636 10ec 8F93      		push r24
 2637 10ee 80E0      		ldi r24,lo8(.LC4)
 2638 10f0 90E0      		ldi r25,hi8(.LC4)
 2639 10f2 8F93      		push r24
 2640 10f4 8C85      		ldd r24,Y+12
 2641 10f6 8F93      		push r24
 2642 10f8 8B85      		ldd r24,Y+11
 2643 10fa 8F93      		push r24
 2644 10fc 8F89      		ldd r24,Y+23
 2645 10fe 8F93      		push r24
 2646 1100 8E89      		ldd r24,Y+22
 2647 1102 8F93      		push r24
 2648 1104 0E94 0000 		call report
 2649 1108 8DB7      		in r24,__SP_L__
 2650 110a 9EB7      		in r25,__SP_H__
 2651 110c 0E96      		adiw r24,14
 2652 110e 0FB6      		in __tmp_reg__,__SREG__
 2653 1110 F894      		cli
 2654 1112 DEBF      		out __SP_H__,r29
 2655 1114 0FBE      		out __SREG__,__tmp_reg__
 2656 1116 CDBF      		out __SP_L__,r28
 287:lp_solve_5.5/lp_simplex.c ****                              get_str_piv_rule(get_piv_rule(lp)));
 288:lp_solve_5.5/lp_simplex.c ****         if((altrule == PRICER_DEVEX) || (altrule == PRICER_STEEPESTEDGE))
 2657               		.loc 2 288 0
 2658 1118 8B81      		ldd r24,Y+3
 2659 111a 9C81      		ldd r25,Y+4
 2660 111c 0297      		sbiw r24,2
 2661 111e 01F0      		breq .L69
 2662               		.loc 2 288 0 is_stmt 0 discriminator 1
 2663 1120 8B81      		ldd r24,Y+3
 2664 1122 9C81      		ldd r25,Y+4
 2665 1124 0397      		sbiw r24,3
 2666 1126 01F0      		breq .+2
 2667 1128 00C0      		rjmp .L79
 2668               	.L69:
 289:lp_solve_5.5/lp_simplex.c ****           restartPricer(lp, AUTOMATIC);
 2669               		.loc 2 289 0 is_stmt 1
 2670 112a 8E89      		ldd r24,Y+22
 2671 112c 9F89      		ldd r25,Y+23
 2672 112e 62E0      		ldi r22,lo8(2)
 2673 1130 0E94 0000 		call restartPricer
 288:lp_solve_5.5/lp_simplex.c ****           restartPricer(lp, AUTOMATIC);
 2674               		.loc 2 288 0
 2675 1134 00C0      		rjmp .L79
 2676               	.L68:
 290:lp_solve_5.5/lp_simplex.c ****       }
 291:lp_solve_5.5/lp_simplex.c **** 
 292:lp_solve_5.5/lp_simplex.c ****       /* If not, code for bound relaxation/perturbation */
 293:lp_solve_5.5/lp_simplex.c ****       else {
 294:lp_solve_5.5/lp_simplex.c ****         report(lp, msglevel, "%s: Stalling at iter %10.0f; proceed to bound relaxation.\n",
 295:lp_solve_5.5/lp_simplex.c ****                              monitor->spxfunc, (double) get_total_iter(lp));
 2677               		.loc 2 295 0
 2678 1136 8E89      		ldd r24,Y+22
 2679 1138 9F89      		ldd r25,Y+23
 2680 113a 0E94 0000 		call get_total_iter
 2681 113e A22E      		mov r10,r18
 2682 1140 B32E      		mov r11,r19
 2683 1142 C42E      		mov r12,r20
 2684 1144 D52E      		mov r13,r21
 2685 1146 E62E      		mov r14,r22
 2686 1148 F72E      		mov r15,r23
 2687 114a 082F      		mov r16,r24
 2688 114c 192F      		mov r17,r25
 294:lp_solve_5.5/lp_simplex.c ****                              monitor->spxfunc, (double) get_total_iter(lp));
 2689               		.loc 2 294 0
 2690 114e 2A2D      		mov r18,r10
 2691 1150 3B2D      		mov r19,r11
 2692 1152 4C2D      		mov r20,r12
 2693 1154 5D2D      		mov r21,r13
 2694 1156 6E2D      		mov r22,r14
 2695 1158 7F2D      		mov r23,r15
 2696 115a 802F      		mov r24,r16
 2697 115c 912F      		mov r25,r17
 2698 115e 0E94 0000 		call __floatdisf
 2699 1162 DC01      		movw r26,r24
 2700 1164 CB01      		movw r24,r22
 2701               		.loc 2 295 0
 2702 1166 2985      		ldd r18,Y+9
 2703 1168 3A85      		ldd r19,Y+10
 2704 116a 2E5A      		subi r18,-82
 2705 116c 3F4F      		sbci r19,-1
 294:lp_solve_5.5/lp_simplex.c ****                              monitor->spxfunc, (double) get_total_iter(lp));
 2706               		.loc 2 294 0
 2707 116e 4B2F      		mov r20,r27
 2708 1170 4F93      		push r20
 2709 1172 4A2F      		mov r20,r26
 2710 1174 4F93      		push r20
 2711 1176 492F      		mov r20,r25
 2712 1178 4F93      		push r20
 2713 117a 8F93      		push r24
 2714 117c 832F      		mov r24,r19
 2715 117e 8F93      		push r24
 2716 1180 822F      		mov r24,r18
 2717 1182 8F93      		push r24
 2718 1184 80E0      		ldi r24,lo8(.LC5)
 2719 1186 90E0      		ldi r25,hi8(.LC5)
 2720 1188 892F      		mov r24,r25
 2721 118a 8F93      		push r24
 2722 118c 80E0      		ldi r24,lo8(.LC5)
 2723 118e 90E0      		ldi r25,hi8(.LC5)
 2724 1190 8F93      		push r24
 2725 1192 8C85      		ldd r24,Y+12
 2726 1194 8F93      		push r24
 2727 1196 8B85      		ldd r24,Y+11
 2728 1198 8F93      		push r24
 2729 119a 8F89      		ldd r24,Y+23
 2730 119c 8F93      		push r24
 2731 119e 8E89      		ldd r24,Y+22
 2732 11a0 8F93      		push r24
 2733 11a2 0E94 0000 		call report
 2734 11a6 EDB7      		in r30,__SP_L__
 2735 11a8 FEB7      		in r31,__SP_H__
 2736 11aa 3C96      		adiw r30,12
 2737 11ac 0FB6      		in __tmp_reg__,__SREG__
 2738 11ae F894      		cli
 2739 11b0 DEBF      		out __SP_H__,r29
 2740 11b2 0FBE      		out __SREG__,__tmp_reg__
 2741 11b4 CDBF      		out __SP_L__,r28
 296:lp_solve_5.5/lp_simplex.c ****         acceptance = FALSE;
 2742               		.loc 2 296 0
 2743 11b6 1A82      		std Y+2,__zero_reg__
 297:lp_solve_5.5/lp_simplex.c ****         lp->spx_status = DEGENERATE;
 2744               		.loc 2 297 0
 2745 11b8 8E89      		ldd r24,Y+22
 2746 11ba 9F89      		ldd r25,Y+23
 2747 11bc 8A5F      		subi r24,-6
 2748 11be 9D4F      		sbci r25,-3
 2749 11c0 24E0      		ldi r18,lo8(4)
 2750 11c2 30E0      		ldi r19,0
 2751 11c4 FC01      		movw r30,r24
 2752 11c6 3183      		std Z+1,r19
 2753 11c8 2083      		st Z,r18
 298:lp_solve_5.5/lp_simplex.c ****         return( acceptance );
 2754               		.loc 2 298 0
 2755 11ca 8A81      		ldd r24,Y+2
 2756 11cc 00C0      		rjmp .L38
 2757               	.L79:
 288:lp_solve_5.5/lp_simplex.c ****           restartPricer(lp, AUTOMATIC);
 2758               		.loc 2 288 0
 2759 11ce 0000      		nop
 234:lp_solve_5.5/lp_simplex.c ****       monitor->Ccycle = colnr;
 2760               		.loc 2 234 0
 2761 11d0 00C0      		rjmp .L78
 2762               	.L49:
 299:lp_solve_5.5/lp_simplex.c ****       }
 300:lp_solve_5.5/lp_simplex.c ****     }
 301:lp_solve_5.5/lp_simplex.c ****   }
 302:lp_solve_5.5/lp_simplex.c **** 
 303:lp_solve_5.5/lp_simplex.c ****   /* Otherwise change back to original selection strategy as soon as possible */
 304:lp_solve_5.5/lp_simplex.c ****   else {
 305:lp_solve_5.5/lp_simplex.c ****     if(monitor->pivrule != monitor->oldpivrule) {
 2763               		.loc 2 305 0
 2764 11d2 8985      		ldd r24,Y+9
 2765 11d4 9A85      		ldd r25,Y+10
 2766 11d6 FC01      		movw r30,r24
 2767 11d8 2681      		ldd r18,Z+6
 2768 11da 3781      		ldd r19,Z+7
 2769 11dc 8985      		ldd r24,Y+9
 2770 11de 9A85      		ldd r25,Y+10
 2771 11e0 FC01      		movw r30,r24
 2772 11e2 8481      		ldd r24,Z+4
 2773 11e4 9581      		ldd r25,Z+5
 2774 11e6 2817      		cp r18,r24
 2775 11e8 3907      		cpc r19,r25
 2776 11ea 01F4      		brne .+2
 2777 11ec 00C0      		rjmp .L71
 306:lp_solve_5.5/lp_simplex.c ****       lp->piv_strategy = monitor->oldpivstrategy;
 2778               		.loc 2 306 0
 2779 11ee 8985      		ldd r24,Y+9
 2780 11f0 9A85      		ldd r25,Y+10
 2781 11f2 FC01      		movw r30,r24
 2782 11f4 2281      		ldd r18,Z+2
 2783 11f6 3381      		ldd r19,Z+3
 2784 11f8 8E89      		ldd r24,Y+22
 2785 11fa 9F89      		ldd r25,Y+23
 2786 11fc 805A      		subi r24,-96
 2787 11fe 9D4F      		sbci r25,-3
 2788 1200 FC01      		movw r30,r24
 2789 1202 3183      		std Z+1,r19
 2790 1204 2083      		st Z,r18
 307:lp_solve_5.5/lp_simplex.c ****       altrule = monitor->oldpivrule;
 2791               		.loc 2 307 0
 2792 1206 8985      		ldd r24,Y+9
 2793 1208 9A85      		ldd r25,Y+10
 2794 120a FC01      		movw r30,r24
 2795 120c 8481      		ldd r24,Z+4
 2796 120e 9581      		ldd r25,Z+5
 2797 1210 9C83      		std Y+4,r25
 2798 1212 8B83      		std Y+3,r24
 308:lp_solve_5.5/lp_simplex.c ****       if((altrule == PRICER_DEVEX) || (altrule == PRICER_STEEPESTEDGE))
 2799               		.loc 2 308 0
 2800 1214 8B81      		ldd r24,Y+3
 2801 1216 9C81      		ldd r25,Y+4
 2802 1218 0297      		sbiw r24,2
 2803 121a 01F0      		breq .L72
 2804               		.loc 2 308 0 is_stmt 0 discriminator 1
 2805 121c 8B81      		ldd r24,Y+3
 2806 121e 9C81      		ldd r25,Y+4
 2807 1220 0397      		sbiw r24,3
 2808 1222 01F4      		brne .L73
 2809               	.L72:
 309:lp_solve_5.5/lp_simplex.c ****         restartPricer(lp, AUTOMATIC);
 2810               		.loc 2 309 0 is_stmt 1
 2811 1224 8E89      		ldd r24,Y+22
 2812 1226 9F89      		ldd r25,Y+23
 2813 1228 62E0      		ldi r22,lo8(2)
 2814 122a 0E94 0000 		call restartPricer
 2815               	.L73:
 310:lp_solve_5.5/lp_simplex.c ****       report(lp, msglevel, "...returned to original pivot selection rule at iter %.0f.\n",
 311:lp_solve_5.5/lp_simplex.c ****                            (double) get_total_iter(lp));
 2816               		.loc 2 311 0
 2817 122e 8E89      		ldd r24,Y+22
 2818 1230 9F89      		ldd r25,Y+23
 2819 1232 0E94 0000 		call get_total_iter
 2820 1236 A22E      		mov r10,r18
 2821 1238 B32E      		mov r11,r19
 2822 123a C42E      		mov r12,r20
 2823 123c D52E      		mov r13,r21
 2824 123e E62E      		mov r14,r22
 2825 1240 F72E      		mov r15,r23
 2826 1242 082F      		mov r16,r24
 2827 1244 192F      		mov r17,r25
 310:lp_solve_5.5/lp_simplex.c ****       report(lp, msglevel, "...returned to original pivot selection rule at iter %.0f.\n",
 2828               		.loc 2 310 0
 2829 1246 2A2D      		mov r18,r10
 2830 1248 3B2D      		mov r19,r11
 2831 124a 4C2D      		mov r20,r12
 2832 124c 5D2D      		mov r21,r13
 2833 124e 6E2D      		mov r22,r14
 2834 1250 7F2D      		mov r23,r15
 2835 1252 802F      		mov r24,r16
 2836 1254 912F      		mov r25,r17
 2837 1256 0E94 0000 		call __floatdisf
 2838 125a DC01      		movw r26,r24
 2839 125c CB01      		movw r24,r22
 2840 125e 2B2F      		mov r18,r27
 2841 1260 2F93      		push r18
 2842 1262 2A2F      		mov r18,r26
 2843 1264 2F93      		push r18
 2844 1266 292F      		mov r18,r25
 2845 1268 2F93      		push r18
 2846 126a 8F93      		push r24
 2847 126c 80E0      		ldi r24,lo8(.LC6)
 2848 126e 90E0      		ldi r25,hi8(.LC6)
 2849 1270 892F      		mov r24,r25
 2850 1272 8F93      		push r24
 2851 1274 80E0      		ldi r24,lo8(.LC6)
 2852 1276 90E0      		ldi r25,hi8(.LC6)
 2853 1278 8F93      		push r24
 2854 127a 8C85      		ldd r24,Y+12
 2855 127c 8F93      		push r24
 2856 127e 8B85      		ldd r24,Y+11
 2857 1280 8F93      		push r24
 2858 1282 8F89      		ldd r24,Y+23
 2859 1284 8F93      		push r24
 2860 1286 8E89      		ldd r24,Y+22
 2861 1288 8F93      		push r24
 2862 128a 0E94 0000 		call report
 2863 128e 8DB7      		in r24,__SP_L__
 2864 1290 9EB7      		in r25,__SP_H__
 2865 1292 0A96      		adiw r24,10
 2866 1294 0FB6      		in __tmp_reg__,__SREG__
 2867 1296 F894      		cli
 2868 1298 DEBF      		out __SP_H__,r29
 2869 129a 0FBE      		out __SREG__,__tmp_reg__
 2870 129c CDBF      		out __SP_L__,r28
 2871               	.L71:
 312:lp_solve_5.5/lp_simplex.c ****     }
 313:lp_solve_5.5/lp_simplex.c ****     stallMonitor_update(lp, monitor->thisobj);
 2872               		.loc 2 313 0
 2873 129e 8985      		ldd r24,Y+9
 2874 12a0 9A85      		ldd r25,Y+10
 2875 12a2 FC01      		movw r30,r24
 2876 12a4 82A5      		ldd r24,Z+42
 2877 12a6 93A5      		ldd r25,Z+43
 2878 12a8 A4A5      		ldd r26,Z+44
 2879 12aa B5A5      		ldd r27,Z+45
 2880 12ac 2E89      		ldd r18,Y+22
 2881 12ae 3F89      		ldd r19,Y+23
 2882 12b0 AC01      		movw r20,r24
 2883 12b2 BD01      		movw r22,r26
 2884 12b4 C901      		movw r24,r18
 2885 12b6 0E94 0000 		call stallMonitor_update
 314:lp_solve_5.5/lp_simplex.c ****     monitor->Ccycle = 0;
 2886               		.loc 2 314 0
 2887 12ba 8985      		ldd r24,Y+9
 2888 12bc 9A85      		ldd r25,Y+10
 2889 12be FC01      		movw r30,r24
 2890 12c0 13A2      		std Z+35,__zero_reg__
 2891 12c2 12A2      		std Z+34,__zero_reg__
 315:lp_solve_5.5/lp_simplex.c ****     monitor->Rcycle = 0;
 2892               		.loc 2 315 0
 2893 12c4 8985      		ldd r24,Y+9
 2894 12c6 9A85      		ldd r25,Y+10
 2895 12c8 FC01      		movw r30,r24
 2896 12ca 11A2      		std Z+33,__zero_reg__
 2897 12cc 10A2      		std Z+32,__zero_reg__
 316:lp_solve_5.5/lp_simplex.c ****     monitor->Ncycle = 0;
 2898               		.loc 2 316 0
 2899 12ce 8985      		ldd r24,Y+9
 2900 12d0 9A85      		ldd r25,Y+10
 2901 12d2 FC01      		movw r30,r24
 2902 12d4 15A2      		std Z+37,__zero_reg__
 2903 12d6 14A2      		std Z+36,__zero_reg__
 317:lp_solve_5.5/lp_simplex.c ****     monitor->Mcycle = 0;
 2904               		.loc 2 317 0
 2905 12d8 8985      		ldd r24,Y+9
 2906 12da 9A85      		ldd r25,Y+10
 2907 12dc FC01      		movw r30,r24
 2908 12de 17A2      		std Z+39,__zero_reg__
 2909 12e0 16A2      		std Z+38,__zero_reg__
 2910 12e2 00C0      		rjmp .L57
 2911               	.L78:
 234:lp_solve_5.5/lp_simplex.c ****       monitor->Ccycle = colnr;
 2912               		.loc 2 234 0
 2913 12e4 0000      		nop
 2914               	.L57:
 318:lp_solve_5.5/lp_simplex.c ****   }
 319:lp_solve_5.5/lp_simplex.c **** 
 320:lp_solve_5.5/lp_simplex.c ****   /* Update objective progress tracker */
 321:lp_solve_5.5/lp_simplex.c **** Proceed:
 322:lp_solve_5.5/lp_simplex.c ****   monitor->Icount++;
 2915               		.loc 2 322 0
 2916 12e6 8985      		ldd r24,Y+9
 2917 12e8 9A85      		ldd r25,Y+10
 2918 12ea FC01      		movw r30,r24
 2919 12ec 80A5      		ldd r24,Z+40
 2920 12ee 91A5      		ldd r25,Z+41
 2921 12f0 9C01      		movw r18,r24
 2922 12f2 2F5F      		subi r18,-1
 2923 12f4 3F4F      		sbci r19,-1
 2924 12f6 8985      		ldd r24,Y+9
 2925 12f8 9A85      		ldd r25,Y+10
 2926 12fa FC01      		movw r30,r24
 2927 12fc 31A7      		std Z+41,r19
 2928 12fe 20A7      		std Z+40,r18
 323:lp_solve_5.5/lp_simplex.c ****   if(deltaobj >= monitor->epsvalue)
 2929               		.loc 2 323 0
 2930 1300 8985      		ldd r24,Y+9
 2931 1302 9A85      		ldd r25,Y+10
 2932 1304 825B      		subi r24,-78
 2933 1306 9F4F      		sbci r25,-1
 2934 1308 FC01      		movw r30,r24
 2935 130a 8081      		ld r24,Z
 2936 130c 9181      		ldd r25,Z+1
 2937 130e A281      		ldd r26,Z+2
 2938 1310 B381      		ldd r27,Z+3
 2939 1312 2D85      		ldd r18,Y+13
 2940 1314 3E85      		ldd r19,Y+14
 2941 1316 4F85      		ldd r20,Y+15
 2942 1318 5889      		ldd r21,Y+16
 2943 131a BC01      		movw r22,r24
 2944 131c CD01      		movw r24,r26
 2945 131e 0E94 0000 		call __lesf2
 2946 1322 1816      		cp __zero_reg__,r24
 2947 1324 04F0      		brlt .L74
 324:lp_solve_5.5/lp_simplex.c ****     monitor->prevobj = monitor->thisobj;
 2948               		.loc 2 324 0
 2949 1326 8985      		ldd r24,Y+9
 2950 1328 9A85      		ldd r25,Y+10
 2951 132a FC01      		movw r30,r24
 2952 132c 82A5      		ldd r24,Z+42
 2953 132e 93A5      		ldd r25,Z+43
 2954 1330 A4A5      		ldd r26,Z+44
 2955 1332 B5A5      		ldd r27,Z+45
 2956 1334 2985      		ldd r18,Y+9
 2957 1336 3A85      		ldd r19,Y+10
 2958 1338 F901      		movw r30,r18
 2959 133a 86A7      		std Z+46,r24
 2960 133c 97A7      		std Z+47,r25
 2961 133e A0AB      		std Z+48,r26
 2962 1340 B1AB      		std Z+49,r27
 2963               	.L74:
 325:lp_solve_5.5/lp_simplex.c ****   monitor->previnfeas = monitor->thisinfeas;
 2964               		.loc 2 325 0
 2965 1342 8985      		ldd r24,Y+9
 2966 1344 9A85      		ldd r25,Y+10
 2967 1346 8A5B      		subi r24,-70
 2968 1348 9F4F      		sbci r25,-1
 2969 134a FC01      		movw r30,r24
 2970 134c 8081      		ld r24,Z
 2971 134e 9181      		ldd r25,Z+1
 2972 1350 A281      		ldd r26,Z+2
 2973 1352 B381      		ldd r27,Z+3
 2974 1354 2985      		ldd r18,Y+9
 2975 1356 3A85      		ldd r19,Y+10
 2976 1358 265B      		subi r18,-74
 2977 135a 3F4F      		sbci r19,-1
 2978 135c F901      		movw r30,r18
 2979 135e 8083      		st Z,r24
 2980 1360 9183      		std Z+1,r25
 2981 1362 A283      		std Z+2,r26
 2982 1364 B383      		std Z+3,r27
 326:lp_solve_5.5/lp_simplex.c **** 
 327:lp_solve_5.5/lp_simplex.c ****   return( acceptance );
 2983               		.loc 2 327 0
 2984 1366 8A81      		ldd r24,Y+2
 2985               	.L38:
 2986               	/* epilogue start */
 328:lp_solve_5.5/lp_simplex.c **** }
 2987               		.loc 2 328 0
 2988 1368 A196      		adiw r28,33
 2989 136a 0FB6      		in __tmp_reg__,__SREG__
 2990 136c F894      		cli
 2991 136e DEBF      		out __SP_H__,r29
 2992 1370 0FBE      		out __SREG__,__tmp_reg__
 2993 1372 CDBF      		out __SP_L__,r28
 2994 1374 DF91      		pop r29
 2995 1376 CF91      		pop r28
 2996 1378 1F91      		pop r17
 2997 137a 0F91      		pop r16
 2998 137c FF90      		pop r15
 2999 137e EF90      		pop r14
 3000 1380 DF90      		pop r13
 3001 1382 CF90      		pop r12
 3002 1384 BF90      		pop r11
 3003 1386 AF90      		pop r10
 3004 1388 9F90      		pop r9
 3005 138a 8F90      		pop r8
 3006 138c 7F90      		pop r7
 3007 138e 6F90      		pop r6
 3008 1390 5F90      		pop r5
 3009 1392 4F90      		pop r4
 3010 1394 0895      		ret
 3011               		.cfi_endproc
 3012               	.LFE14:
 3014               	.global	stallMonitor_finish
 3016               	stallMonitor_finish:
 3017               	.LFB15:
 329:lp_solve_5.5/lp_simplex.c **** 
 330:lp_solve_5.5/lp_simplex.c **** STATIC void stallMonitor_finish(lprec *lp)
 331:lp_solve_5.5/lp_simplex.c **** {
 3018               		.loc 2 331 0
 3019               		.cfi_startproc
 3020 1396 CF93      		push r28
 3021               	.LCFI52:
 3022               		.cfi_def_cfa_offset 3
 3023               		.cfi_offset 28, -2
 3024 1398 DF93      		push r29
 3025               	.LCFI53:
 3026               		.cfi_def_cfa_offset 4
 3027               		.cfi_offset 29, -3
 3028 139a 00D0      		rcall .
 3029 139c 00D0      		rcall .
 3030               	.LCFI54:
 3031               		.cfi_def_cfa_offset 8
 3032 139e CDB7      		in r28,__SP_L__
 3033 13a0 DEB7      		in r29,__SP_H__
 3034               	.LCFI55:
 3035               		.cfi_def_cfa_register 28
 3036               	/* prologue: function */
 3037               	/* frame size = 4 */
 3038               	/* stack size = 6 */
 3039               	.L__stack_usage = 6
 3040 13a2 9C83      		std Y+4,r25
 3041 13a4 8B83      		std Y+3,r24
 332:lp_solve_5.5/lp_simplex.c ****   OBJmonrec *monitor = lp->monitor;
 3042               		.loc 2 332 0
 3043 13a6 8B81      		ldd r24,Y+3
 3044 13a8 9C81      		ldd r25,Y+4
 3045 13aa 8E53      		subi r24,62
 3046 13ac 9D4F      		sbci r25,-3
 3047 13ae FC01      		movw r30,r24
 3048 13b0 8081      		ld r24,Z
 3049 13b2 9181      		ldd r25,Z+1
 3050 13b4 9A83      		std Y+2,r25
 3051 13b6 8983      		std Y+1,r24
 333:lp_solve_5.5/lp_simplex.c ****   if(monitor == NULL)
 3052               		.loc 2 333 0
 3053 13b8 8981      		ldd r24,Y+1
 3054 13ba 9A81      		ldd r25,Y+2
 3055 13bc 892B      		or r24,r25
 3056 13be 01F0      		breq .L85
 334:lp_solve_5.5/lp_simplex.c ****     return;
 335:lp_solve_5.5/lp_simplex.c ****   if(lp->piv_strategy != monitor->oldpivstrategy)
 3057               		.loc 2 335 0
 3058 13c0 8B81      		ldd r24,Y+3
 3059 13c2 9C81      		ldd r25,Y+4
 3060 13c4 805A      		subi r24,-96
 3061 13c6 9D4F      		sbci r25,-3
 3062 13c8 FC01      		movw r30,r24
 3063 13ca 2081      		ld r18,Z
 3064 13cc 3181      		ldd r19,Z+1
 3065 13ce 8981      		ldd r24,Y+1
 3066 13d0 9A81      		ldd r25,Y+2
 3067 13d2 FC01      		movw r30,r24
 3068 13d4 8281      		ldd r24,Z+2
 3069 13d6 9381      		ldd r25,Z+3
 3070 13d8 2817      		cp r18,r24
 3071 13da 3907      		cpc r19,r25
 3072 13dc 01F0      		breq .L83
 336:lp_solve_5.5/lp_simplex.c ****     lp->piv_strategy = monitor->oldpivstrategy;
 3073               		.loc 2 336 0
 3074 13de 8981      		ldd r24,Y+1
 3075 13e0 9A81      		ldd r25,Y+2
 3076 13e2 FC01      		movw r30,r24
 3077 13e4 2281      		ldd r18,Z+2
 3078 13e6 3381      		ldd r19,Z+3
 3079 13e8 8B81      		ldd r24,Y+3
 3080 13ea 9C81      		ldd r25,Y+4
 3081 13ec 805A      		subi r24,-96
 3082 13ee 9D4F      		sbci r25,-3
 3083 13f0 FC01      		movw r30,r24
 3084 13f2 3183      		std Z+1,r19
 3085 13f4 2083      		st Z,r18
 3086               	.L83:
 337:lp_solve_5.5/lp_simplex.c ****   FREE(monitor);
 3087               		.loc 2 337 0
 3088 13f6 8981      		ldd r24,Y+1
 3089 13f8 9A81      		ldd r25,Y+2
 3090 13fa 892B      		or r24,r25
 3091 13fc 01F0      		breq .L84
 3092               		.loc 2 337 0 is_stmt 0 discriminator 1
 3093 13fe 8981      		ldd r24,Y+1
 3094 1400 9A81      		ldd r25,Y+2
 3095 1402 0E94 0000 		call free
 3096 1406 1A82      		std Y+2,__zero_reg__
 3097 1408 1982      		std Y+1,__zero_reg__
 3098               	.L84:
 338:lp_solve_5.5/lp_simplex.c ****   lp->monitor = NULL;
 3099               		.loc 2 338 0 is_stmt 1
 3100 140a 8B81      		ldd r24,Y+3
 3101 140c 9C81      		ldd r25,Y+4
 3102 140e 8E53      		subi r24,62
 3103 1410 9D4F      		sbci r25,-3
 3104 1412 FC01      		movw r30,r24
 3105 1414 1182      		std Z+1,__zero_reg__
 3106 1416 1082      		st Z,__zero_reg__
 3107 1418 00C0      		rjmp .L80
 3108               	.L85:
 334:lp_solve_5.5/lp_simplex.c ****   if(lp->piv_strategy != monitor->oldpivstrategy)
 3109               		.loc 2 334 0
 3110 141a 0000      		nop
 3111               	.L80:
 3112               	/* epilogue start */
 339:lp_solve_5.5/lp_simplex.c **** }
 3113               		.loc 2 339 0
 3114 141c 0F90      		pop __tmp_reg__
 3115 141e 0F90      		pop __tmp_reg__
 3116 1420 0F90      		pop __tmp_reg__
 3117 1422 0F90      		pop __tmp_reg__
 3118 1424 DF91      		pop r29
 3119 1426 CF91      		pop r28
 3120 1428 0895      		ret
 3121               		.cfi_endproc
 3122               	.LFE15:
 3124               		.section	.rodata
 3125               	.LC7:
 3126 0127 6164 645F 		.string	"add_artificial: Could not find replacement basis variable for row %d\n"
 3126      6172 7469 
 3126      6669 6369 
 3126      616C 3A20 
 3126      436F 756C 
 3127               		.text
 3128               	.global	add_artificial
 3130               	add_artificial:
 3131               	.LFB16:
 340:lp_solve_5.5/lp_simplex.c **** 
 341:lp_solve_5.5/lp_simplex.c **** 
 342:lp_solve_5.5/lp_simplex.c **** STATIC MYBOOL add_artificial(lprec *lp, int forrownr, REAL *nzarray, int *idxarray)
 343:lp_solve_5.5/lp_simplex.c **** /* This routine is called for each constraint at the start of
 344:lp_solve_5.5/lp_simplex.c ****    primloop and the primal problem is infeasible. Its
 345:lp_solve_5.5/lp_simplex.c ****    purpose is to add artificial variables and associated
 346:lp_solve_5.5/lp_simplex.c ****    objective function values to populate primal phase 1. */
 347:lp_solve_5.5/lp_simplex.c **** {
 3132               		.loc 2 347 0
 3133               		.cfi_startproc
 3134 142a 0F93      		push r16
 3135               	.LCFI56:
 3136               		.cfi_def_cfa_offset 3
 3137               		.cfi_offset 16, -2
 3138 142c 1F93      		push r17
 3139               	.LCFI57:
 3140               		.cfi_def_cfa_offset 4
 3141               		.cfi_offset 17, -3
 3142 142e CF93      		push r28
 3143               	.LCFI58:
 3144               		.cfi_def_cfa_offset 5
 3145               		.cfi_offset 28, -4
 3146 1430 DF93      		push r29
 3147               	.LCFI59:
 3148               		.cfi_def_cfa_offset 6
 3149               		.cfi_offset 29, -5
 3150 1432 CDB7      		in r28,__SP_L__
 3151 1434 DEB7      		in r29,__SP_H__
 3152               	.LCFI60:
 3153               		.cfi_def_cfa_register 28
 3154 1436 6D97      		sbiw r28,29
 3155               	.LCFI61:
 3156               		.cfi_def_cfa_offset 35
 3157 1438 0FB6      		in __tmp_reg__,__SREG__
 3158 143a F894      		cli
 3159 143c DEBF      		out __SP_H__,r29
 3160 143e 0FBE      		out __SREG__,__tmp_reg__
 3161 1440 CDBF      		out __SP_L__,r28
 3162               	/* prologue: function */
 3163               	/* frame size = 29 */
 3164               	/* stack size = 33 */
 3165               	.L__stack_usage = 33
 3166 1442 9F8B      		std Y+23,r25
 3167 1444 8E8B      		std Y+22,r24
 3168 1446 798F      		std Y+25,r23
 3169 1448 688F      		std Y+24,r22
 3170 144a 5B8F      		std Y+27,r21
 3171 144c 4A8F      		std Y+26,r20
 3172 144e 3D8F      		std Y+29,r19
 3173 1450 2C8F      		std Y+28,r18
 348:lp_solve_5.5/lp_simplex.c ****   MYBOOL add;
 349:lp_solve_5.5/lp_simplex.c **** 
 350:lp_solve_5.5/lp_simplex.c ****   /* Make sure we don't add unnecessary artificials, i.e. avoid
 351:lp_solve_5.5/lp_simplex.c ****      cases where the slack variable is enough */
 352:lp_solve_5.5/lp_simplex.c ****   add = !isBasisVarFeasible(lp, lp->epspivot, forrownr);
 3174               		.loc 2 352 0
 3175 1452 8E89      		ldd r24,Y+22
 3176 1454 9F89      		ldd r25,Y+23
 3177 1456 8E5D      		subi r24,-34
 3178 1458 9C4F      		sbci r25,-4
 3179 145a FC01      		movw r30,r24
 3180 145c 8081      		ld r24,Z
 3181 145e 9181      		ldd r25,Z+1
 3182 1460 A281      		ldd r26,Z+2
 3183 1462 B381      		ldd r27,Z+3
 3184 1464 288D      		ldd r18,Y+24
 3185 1466 398D      		ldd r19,Y+25
 3186 1468 EE89      		ldd r30,Y+22
 3187 146a FF89      		ldd r31,Y+23
 3188 146c AC01      		movw r20,r24
 3189 146e BD01      		movw r22,r26
 3190 1470 CF01      		movw r24,r30
 3191 1472 0E94 0000 		call isBasisVarFeasible
 3192 1476 982F      		mov r25,r24
 3193 1478 81E0      		ldi r24,lo8(1)
 3194 147a 9923      		tst r25
 3195 147c 01F0      		breq .L87
 3196 147e 80E0      		ldi r24,0
 3197               	.L87:
 3198 1480 8983      		std Y+1,r24
 353:lp_solve_5.5/lp_simplex.c **** 
 354:lp_solve_5.5/lp_simplex.c ****   if(add) {
 3199               		.loc 2 354 0
 3200 1482 8981      		ldd r24,Y+1
 3201 1484 8823      		tst r24
 3202 1486 01F4      		brne .+2
 3203 1488 00C0      		rjmp .L88
 3204               	.LBB5:
 355:lp_solve_5.5/lp_simplex.c ****     int    *rownr = NULL, i, bvar, ii;
 3205               		.loc 2 355 0
 3206 148a 1B8A      		std Y+19,__zero_reg__
 3207 148c 1A8A      		std Y+18,__zero_reg__
 356:lp_solve_5.5/lp_simplex.c ****     REAL   *avalue = NULL, rhscoef, acoef;
 3208               		.loc 2 356 0
 3209 148e 1D8A      		std Y+21,__zero_reg__
 3210 1490 1C8A      		std Y+20,__zero_reg__
 357:lp_solve_5.5/lp_simplex.c ****     MATrec *mat = lp->matA;
 3211               		.loc 2 357 0
 3212 1492 8E89      		ldd r24,Y+22
 3213 1494 9F89      		ldd r25,Y+23
 3214 1496 8A54      		subi r24,74
 3215 1498 9D4F      		sbci r25,-3
 3216 149a FC01      		movw r30,r24
 3217 149c 8081      		ld r24,Z
 3218 149e 9181      		ldd r25,Z+1
 3219 14a0 9987      		std Y+9,r25
 3220 14a2 8887      		std Y+8,r24
 358:lp_solve_5.5/lp_simplex.c **** 
 359:lp_solve_5.5/lp_simplex.c ****     /* Check the simple case where a slack is basic */
 360:lp_solve_5.5/lp_simplex.c ****     for(i = 1; i <= lp->rows; i++) {
 3221               		.loc 2 360 0
 3222 14a4 81E0      		ldi r24,lo8(1)
 3223 14a6 90E0      		ldi r25,0
 3224 14a8 9B83      		std Y+3,r25
 3225 14aa 8A83      		std Y+2,r24
 3226 14ac 00C0      		rjmp .L89
 3227               	.L92:
 361:lp_solve_5.5/lp_simplex.c ****       if(lp->var_basic[i] == forrownr)
 3228               		.loc 2 361 0
 3229 14ae 8E89      		ldd r24,Y+22
 3230 14b0 9F89      		ldd r25,Y+23
 3231 14b2 8453      		subi r24,52
 3232 14b4 9D4F      		sbci r25,-3
 3233 14b6 FC01      		movw r30,r24
 3234 14b8 2081      		ld r18,Z
 3235 14ba 3181      		ldd r19,Z+1
 3236 14bc 8A81      		ldd r24,Y+2
 3237 14be 9B81      		ldd r25,Y+3
 3238 14c0 880F      		lsl r24
 3239 14c2 991F      		rol r25
 3240 14c4 820F      		add r24,r18
 3241 14c6 931F      		adc r25,r19
 3242 14c8 FC01      		movw r30,r24
 3243 14ca 2081      		ld r18,Z
 3244 14cc 3181      		ldd r19,Z+1
 3245 14ce 888D      		ldd r24,Y+24
 3246 14d0 998D      		ldd r25,Y+25
 3247 14d2 2817      		cp r18,r24
 3248 14d4 3907      		cpc r19,r25
 3249 14d6 01F0      		breq .L123
 360:lp_solve_5.5/lp_simplex.c ****       if(lp->var_basic[i] == forrownr)
 3250               		.loc 2 360 0 discriminator 2
 3251 14d8 8A81      		ldd r24,Y+2
 3252 14da 9B81      		ldd r25,Y+3
 3253 14dc 0196      		adiw r24,1
 3254 14de 9B83      		std Y+3,r25
 3255 14e0 8A83      		std Y+2,r24
 3256               	.L89:
 360:lp_solve_5.5/lp_simplex.c ****       if(lp->var_basic[i] == forrownr)
 3257               		.loc 2 360 0 is_stmt 0 discriminator 1
 3258 14e2 8E89      		ldd r24,Y+22
 3259 14e4 9F89      		ldd r25,Y+23
 3260 14e6 8651      		subi r24,22
 3261 14e8 9E4F      		sbci r25,-2
 3262 14ea FC01      		movw r30,r24
 3263 14ec 2081      		ld r18,Z
 3264 14ee 3181      		ldd r19,Z+1
 3265 14f0 8A81      		ldd r24,Y+2
 3266 14f2 9B81      		ldd r25,Y+3
 3267 14f4 2817      		cp r18,r24
 3268 14f6 3907      		cpc r19,r25
 3269 14f8 04F4      		brge .L92
 3270 14fa 00C0      		rjmp .L91
 3271               	.L123:
 362:lp_solve_5.5/lp_simplex.c ****         break;
 3272               		.loc 2 362 0 is_stmt 1
 3273 14fc 0000      		nop
 3274               	.L91:
 363:lp_solve_5.5/lp_simplex.c ****     }
 364:lp_solve_5.5/lp_simplex.c ****     acoef = 1;
 3275               		.loc 2 364 0
 3276 14fe 80E0      		ldi r24,0
 3277 1500 90E0      		ldi r25,0
 3278 1502 A0E8      		ldi r26,lo8(-128)
 3279 1504 BFE3      		ldi r27,lo8(63)
 3280 1506 8C83      		std Y+4,r24
 3281 1508 9D83      		std Y+5,r25
 3282 150a AE83      		std Y+6,r26
 3283 150c BF83      		std Y+7,r27
 365:lp_solve_5.5/lp_simplex.c **** 
 366:lp_solve_5.5/lp_simplex.c ****     /* If not, look for any basic user variable that has a
 367:lp_solve_5.5/lp_simplex.c ****        non-zero coefficient in the current constraint row */
 368:lp_solve_5.5/lp_simplex.c ****     if(i > lp->rows) {
 3284               		.loc 2 368 0
 3285 150e 8E89      		ldd r24,Y+22
 3286 1510 9F89      		ldd r25,Y+23
 3287 1512 8651      		subi r24,22
 3288 1514 9E4F      		sbci r25,-2
 3289 1516 FC01      		movw r30,r24
 3290 1518 2081      		ld r18,Z
 3291 151a 3181      		ldd r19,Z+1
 3292 151c 8A81      		ldd r24,Y+2
 3293 151e 9B81      		ldd r25,Y+3
 3294 1520 2817      		cp r18,r24
 3295 1522 3907      		cpc r19,r25
 3296 1524 04F0      		brlt .+2
 3297 1526 00C0      		rjmp .L93
 369:lp_solve_5.5/lp_simplex.c ****       for(i = 1; i <= lp->rows; i++) {
 3298               		.loc 2 369 0
 3299 1528 81E0      		ldi r24,lo8(1)
 3300 152a 90E0      		ldi r25,0
 3301 152c 9B83      		std Y+3,r25
 3302 152e 8A83      		std Y+2,r24
 3303 1530 00C0      		rjmp .L94
 3304               	.L98:
 370:lp_solve_5.5/lp_simplex.c ****         ii = lp->var_basic[i] - lp->rows;
 3305               		.loc 2 370 0
 3306 1532 8E89      		ldd r24,Y+22
 3307 1534 9F89      		ldd r25,Y+23
 3308 1536 8453      		subi r24,52
 3309 1538 9D4F      		sbci r25,-3
 3310 153a FC01      		movw r30,r24
 3311 153c 2081      		ld r18,Z
 3312 153e 3181      		ldd r19,Z+1
 3313 1540 8A81      		ldd r24,Y+2
 3314 1542 9B81      		ldd r25,Y+3
 3315 1544 880F      		lsl r24
 3316 1546 991F      		rol r25
 3317 1548 820F      		add r24,r18
 3318 154a 931F      		adc r25,r19
 3319 154c FC01      		movw r30,r24
 3320 154e 2081      		ld r18,Z
 3321 1550 3181      		ldd r19,Z+1
 3322 1552 8E89      		ldd r24,Y+22
 3323 1554 9F89      		ldd r25,Y+23
 3324 1556 8651      		subi r24,22
 3325 1558 9E4F      		sbci r25,-2
 3326 155a FC01      		movw r30,r24
 3327 155c 8081      		ld r24,Z
 3328 155e 9181      		ldd r25,Z+1
 3329 1560 A901      		movw r20,r18
 3330 1562 481B      		sub r20,r24
 3331 1564 590B      		sbc r21,r25
 3332 1566 CA01      		movw r24,r20
 3333 1568 9B87      		std Y+11,r25
 3334 156a 8A87      		std Y+10,r24
 371:lp_solve_5.5/lp_simplex.c ****         if((ii <= 0) || (ii > (lp->columns-lp->P1extraDim)))
 3335               		.loc 2 371 0
 3336 156c 8A85      		ldd r24,Y+10
 3337 156e 9B85      		ldd r25,Y+11
 3338 1570 1816      		cp __zero_reg__,r24
 3339 1572 1906      		cpc __zero_reg__,r25
 3340 1574 04F4      		brge .L124
 3341               		.loc 2 371 0 is_stmt 0 discriminator 1
 3342 1576 8E89      		ldd r24,Y+22
 3343 1578 9F89      		ldd r25,Y+23
 3344 157a 8451      		subi r24,20
 3345 157c 9E4F      		sbci r25,-2
 3346 157e FC01      		movw r30,r24
 3347 1580 2081      		ld r18,Z
 3348 1582 3181      		ldd r19,Z+1
 3349 1584 8E89      		ldd r24,Y+22
 3350 1586 9F89      		ldd r25,Y+23
 3351 1588 8051      		subi r24,16
 3352 158a 9D4F      		sbci r25,-3
 3353 158c FC01      		movw r30,r24
 3354 158e 8081      		ld r24,Z
 3355 1590 9181      		ldd r25,Z+1
 3356 1592 281B      		sub r18,r24
 3357 1594 390B      		sbc r19,r25
 3358 1596 8A85      		ldd r24,Y+10
 3359 1598 9B85      		ldd r25,Y+11
 3360 159a 2817      		cp r18,r24
 3361 159c 3907      		cpc r19,r25
 3362 159e 04F0      		brlt .L124
 372:lp_solve_5.5/lp_simplex.c ****           continue;
 373:lp_solve_5.5/lp_simplex.c ****         ii = mat_findelm(mat, forrownr, ii);
 3363               		.loc 2 373 0 is_stmt 1
 3364 15a0 4A85      		ldd r20,Y+10
 3365 15a2 5B85      		ldd r21,Y+11
 3366 15a4 288D      		ldd r18,Y+24
 3367 15a6 398D      		ldd r19,Y+25
 3368 15a8 8885      		ldd r24,Y+8
 3369 15aa 9985      		ldd r25,Y+9
 3370 15ac B901      		movw r22,r18
 3371 15ae 0E94 0000 		call mat_findelm
 3372 15b2 9B87      		std Y+11,r25
 3373 15b4 8A87      		std Y+10,r24
 374:lp_solve_5.5/lp_simplex.c ****         if(ii >= 0) {
 3374               		.loc 2 374 0
 3375 15b6 8A85      		ldd r24,Y+10
 3376 15b8 9B85      		ldd r25,Y+11
 3377 15ba 9923      		tst r25
 3378 15bc 04F0      		brlt .L97
 375:lp_solve_5.5/lp_simplex.c ****           acoef = COL_MAT_VALUE(ii);
 3379               		.loc 2 375 0
 3380 15be 8885      		ldd r24,Y+8
 3381 15c0 9985      		ldd r25,Y+9
 3382 15c2 FC01      		movw r30,r24
 3383 15c4 2089      		ldd r18,Z+16
 3384 15c6 3189      		ldd r19,Z+17
 3385 15c8 8A85      		ldd r24,Y+10
 3386 15ca 9B85      		ldd r25,Y+11
 3387 15cc 880F      		lsl r24
 3388 15ce 991F      		rol r25
 3389 15d0 880F      		lsl r24
 3390 15d2 991F      		rol r25
 3391 15d4 820F      		add r24,r18
 3392 15d6 931F      		adc r25,r19
 3393 15d8 FC01      		movw r30,r24
 3394 15da 8081      		ld r24,Z
 3395 15dc 9181      		ldd r25,Z+1
 3396 15de A281      		ldd r26,Z+2
 3397 15e0 B381      		ldd r27,Z+3
 3398 15e2 8C83      		std Y+4,r24
 3399 15e4 9D83      		std Y+5,r25
 3400 15e6 AE83      		std Y+6,r26
 3401 15e8 BF83      		std Y+7,r27
 376:lp_solve_5.5/lp_simplex.c ****           break;
 3402               		.loc 2 376 0
 3403 15ea 00C0      		rjmp .L93
 3404               	.L124:
 372:lp_solve_5.5/lp_simplex.c ****         ii = mat_findelm(mat, forrownr, ii);
 3405               		.loc 2 372 0
 3406 15ec 0000      		nop
 3407               	.L97:
 369:lp_solve_5.5/lp_simplex.c ****         ii = lp->var_basic[i] - lp->rows;
 3408               		.loc 2 369 0 discriminator 2
 3409 15ee 8A81      		ldd r24,Y+2
 3410 15f0 9B81      		ldd r25,Y+3
 3411 15f2 0196      		adiw r24,1
 3412 15f4 9B83      		std Y+3,r25
 3413 15f6 8A83      		std Y+2,r24
 3414               	.L94:
 369:lp_solve_5.5/lp_simplex.c ****         ii = lp->var_basic[i] - lp->rows;
 3415               		.loc 2 369 0 is_stmt 0 discriminator 1
 3416 15f8 8E89      		ldd r24,Y+22
 3417 15fa 9F89      		ldd r25,Y+23
 3418 15fc 8651      		subi r24,22
 3419 15fe 9E4F      		sbci r25,-2
 3420 1600 FC01      		movw r30,r24
 3421 1602 2081      		ld r18,Z
 3422 1604 3181      		ldd r19,Z+1
 3423 1606 8A81      		ldd r24,Y+2
 3424 1608 9B81      		ldd r25,Y+3
 3425 160a 2817      		cp r18,r24
 3426 160c 3907      		cpc r19,r25
 3427 160e 04F0      		brlt .+2
 3428 1610 00C0      		rjmp .L98
 3429               	.L93:
 377:lp_solve_5.5/lp_simplex.c ****         }
 378:lp_solve_5.5/lp_simplex.c ****       }
 379:lp_solve_5.5/lp_simplex.c ****     }
 380:lp_solve_5.5/lp_simplex.c **** 
 381:lp_solve_5.5/lp_simplex.c ****     /* If no candidate was found above, gamble on using the densest column available */
 382:lp_solve_5.5/lp_simplex.c **** #if 0
 383:lp_solve_5.5/lp_simplex.c ****     if(i > lp->rows) {
 384:lp_solve_5.5/lp_simplex.c ****       int len = 0;
 385:lp_solve_5.5/lp_simplex.c ****       bvar = 0;
 386:lp_solve_5.5/lp_simplex.c ****       for(i = 1; i <= lp->rows; i++) {
 387:lp_solve_5.5/lp_simplex.c ****         ii = lp->var_basic[i] - lp->rows;
 388:lp_solve_5.5/lp_simplex.c ****         if((ii <= 0) || (ii > (lp->columns-lp->P1extraDim)))
 389:lp_solve_5.5/lp_simplex.c ****           continue;
 390:lp_solve_5.5/lp_simplex.c ****         if(mat_collength(mat, ii) > len) {
 391:lp_solve_5.5/lp_simplex.c ****           len = mat_collength(mat, ii);
 392:lp_solve_5.5/lp_simplex.c ****           bvar = i;
 393:lp_solve_5.5/lp_simplex.c ****         }
 394:lp_solve_5.5/lp_simplex.c ****       }
 395:lp_solve_5.5/lp_simplex.c ****       i = bvar;
 396:lp_solve_5.5/lp_simplex.c ****       acoef = 1;
 397:lp_solve_5.5/lp_simplex.c ****     }
 398:lp_solve_5.5/lp_simplex.c **** #endif
 399:lp_solve_5.5/lp_simplex.c **** 
 400:lp_solve_5.5/lp_simplex.c ****     bvar = i;
 3430               		.loc 2 400 0 is_stmt 1
 3431 1612 8A81      		ldd r24,Y+2
 3432 1614 9B81      		ldd r25,Y+3
 3433 1616 9D87      		std Y+13,r25
 3434 1618 8C87      		std Y+12,r24
 401:lp_solve_5.5/lp_simplex.c **** 
 402:lp_solve_5.5/lp_simplex.c ****     add = (MYBOOL) (bvar <= lp->rows);
 3435               		.loc 2 402 0
 3436 161a 8E89      		ldd r24,Y+22
 3437 161c 9F89      		ldd r25,Y+23
 3438 161e 8651      		subi r24,22
 3439 1620 9E4F      		sbci r25,-2
 3440 1622 FC01      		movw r30,r24
 3441 1624 2081      		ld r18,Z
 3442 1626 3181      		ldd r19,Z+1
 3443 1628 41E0      		ldi r20,lo8(1)
 3444 162a 8C85      		ldd r24,Y+12
 3445 162c 9D85      		ldd r25,Y+13
 3446 162e 2817      		cp r18,r24
 3447 1630 3907      		cpc r19,r25
 3448 1632 04F4      		brge .L99
 3449 1634 40E0      		ldi r20,0
 3450               	.L99:
 3451 1636 4983      		std Y+1,r20
 403:lp_solve_5.5/lp_simplex.c ****     if(add) {
 3452               		.loc 2 403 0
 3453 1638 8981      		ldd r24,Y+1
 3454 163a 8823      		tst r24
 3455 163c 01F4      		brne .+2
 3456 163e 00C0      		rjmp .L100
 404:lp_solve_5.5/lp_simplex.c ****       rhscoef = lp->rhs[forrownr];
 3457               		.loc 2 404 0
 3458 1640 8E89      		ldd r24,Y+22
 3459 1642 9F89      		ldd r25,Y+23
 3460 1644 8855      		subi r24,88
 3461 1646 9D4F      		sbci r25,-3
 3462 1648 FC01      		movw r30,r24
 3463 164a 2081      		ld r18,Z
 3464 164c 3181      		ldd r19,Z+1
 3465 164e 888D      		ldd r24,Y+24
 3466 1650 998D      		ldd r25,Y+25
 3467 1652 880F      		lsl r24
 3468 1654 991F      		rol r25
 3469 1656 880F      		lsl r24
 3470 1658 991F      		rol r25
 3471 165a 820F      		add r24,r18
 3472 165c 931F      		adc r25,r19
 3473 165e FC01      		movw r30,r24
 3474 1660 8081      		ld r24,Z
 3475 1662 9181      		ldd r25,Z+1
 3476 1664 A281      		ldd r26,Z+2
 3477 1666 B381      		ldd r27,Z+3
 3478 1668 8E87      		std Y+14,r24
 3479 166a 9F87      		std Y+15,r25
 3480 166c A88B      		std Y+16,r26
 3481 166e B98B      		std Y+17,r27
 405:lp_solve_5.5/lp_simplex.c **** 
 406:lp_solve_5.5/lp_simplex.c ****      /* Create temporary sparse array storage */
 407:lp_solve_5.5/lp_simplex.c ****       if(nzarray == NULL)
 3482               		.loc 2 407 0
 3483 1670 8A8D      		ldd r24,Y+26
 3484 1672 9B8D      		ldd r25,Y+27
 3485 1674 892B      		or r24,r25
 3486 1676 01F4      		brne .L101
 408:lp_solve_5.5/lp_simplex.c ****         allocREAL(lp, &avalue, 2, FALSE);
 3487               		.loc 2 408 0
 3488 1678 BE01      		movw r22,r28
 3489 167a 6C5E      		subi r22,-20
 3490 167c 7F4F      		sbci r23,-1
 3491 167e 8E89      		ldd r24,Y+22
 3492 1680 9F89      		ldd r25,Y+23
 3493 1682 20E0      		ldi r18,0
 3494 1684 42E0      		ldi r20,lo8(2)
 3495 1686 50E0      		ldi r21,0
 3496 1688 0E94 0000 		call allocREAL
 3497 168c 00C0      		rjmp .L102
 3498               	.L101:
 409:lp_solve_5.5/lp_simplex.c ****       else
 410:lp_solve_5.5/lp_simplex.c ****         avalue = nzarray;
 3499               		.loc 2 410 0
 3500 168e 8A8D      		ldd r24,Y+26
 3501 1690 9B8D      		ldd r25,Y+27
 3502 1692 9D8B      		std Y+21,r25
 3503 1694 8C8B      		std Y+20,r24
 3504               	.L102:
 411:lp_solve_5.5/lp_simplex.c ****       if(idxarray == NULL)
 3505               		.loc 2 411 0
 3506 1696 8C8D      		ldd r24,Y+28
 3507 1698 9D8D      		ldd r25,Y+29
 3508 169a 892B      		or r24,r25
 3509 169c 01F4      		brne .L103
 412:lp_solve_5.5/lp_simplex.c ****         allocINT(lp, &rownr, 2, FALSE);
 3510               		.loc 2 412 0
 3511 169e BE01      		movw r22,r28
 3512 16a0 6E5E      		subi r22,-18
 3513 16a2 7F4F      		sbci r23,-1
 3514 16a4 8E89      		ldd r24,Y+22
 3515 16a6 9F89      		ldd r25,Y+23
 3516 16a8 20E0      		ldi r18,0
 3517 16aa 42E0      		ldi r20,lo8(2)
 3518 16ac 50E0      		ldi r21,0
 3519 16ae 0E94 0000 		call allocINT
 3520 16b2 00C0      		rjmp .L104
 3521               	.L103:
 413:lp_solve_5.5/lp_simplex.c ****       else
 414:lp_solve_5.5/lp_simplex.c ****         rownr = idxarray;
 3522               		.loc 2 414 0
 3523 16b4 8C8D      		ldd r24,Y+28
 3524 16b6 9D8D      		ldd r25,Y+29
 3525 16b8 9B8B      		std Y+19,r25
 3526 16ba 8A8B      		std Y+18,r24
 3527               	.L104:
 415:lp_solve_5.5/lp_simplex.c **** 
 416:lp_solve_5.5/lp_simplex.c ****      /* Set the objective coefficient */
 417:lp_solve_5.5/lp_simplex.c ****       rownr[0]  =  0;
 3528               		.loc 2 417 0
 3529 16bc 8A89      		ldd r24,Y+18
 3530 16be 9B89      		ldd r25,Y+19
 3531 16c0 FC01      		movw r30,r24
 3532 16c2 1182      		std Z+1,__zero_reg__
 3533 16c4 1082      		st Z,__zero_reg__
 418:lp_solve_5.5/lp_simplex.c ****       avalue[0] = my_chsign(is_chsign(lp, 0), 1);
 3534               		.loc 2 418 0
 3535 16c6 0C89      		ldd r16,Y+20
 3536 16c8 1D89      		ldd r17,Y+21
 3537 16ca 8E89      		ldd r24,Y+22
 3538 16cc 9F89      		ldd r25,Y+23
 3539 16ce 60E0      		ldi r22,0
 3540 16d0 70E0      		ldi r23,0
 3541 16d2 0E94 0000 		call is_chsign
 3542 16d6 8823      		tst r24
 3543 16d8 01F0      		breq .L105
 3544               		.loc 2 418 0 is_stmt 0 discriminator 3
 3545 16da 80E0      		ldi r24,0
 3546 16dc 90E0      		ldi r25,0
 3547 16de A0E8      		ldi r26,lo8(-128)
 3548 16e0 BFEB      		ldi r27,lo8(-65)
 3549 16e2 00C0      		rjmp .L106
 3550               	.L105:
 3551               		.loc 2 418 0 discriminator 4
 3552 16e4 80E0      		ldi r24,0
 3553 16e6 90E0      		ldi r25,0
 3554 16e8 A0E8      		ldi r26,lo8(-128)
 3555 16ea BFE3      		ldi r27,lo8(63)
 3556               	.L106:
 3557               		.loc 2 418 0 discriminator 6
 3558 16ec F801      		movw r30,r16
 3559 16ee 8083      		st Z,r24
 3560 16f0 9183      		std Z+1,r25
 3561 16f2 A283      		std Z+2,r26
 3562 16f4 B383      		std Z+3,r27
 419:lp_solve_5.5/lp_simplex.c **** 
 420:lp_solve_5.5/lp_simplex.c ****      /* Set the constraint row coefficient */
 421:lp_solve_5.5/lp_simplex.c ****       rownr[1]  = forrownr;
 3563               		.loc 2 421 0 is_stmt 1 discriminator 6
 3564 16f6 8A89      		ldd r24,Y+18
 3565 16f8 9B89      		ldd r25,Y+19
 3566 16fa 0296      		adiw r24,2
 3567 16fc 288D      		ldd r18,Y+24
 3568 16fe 398D      		ldd r19,Y+25
 3569 1700 FC01      		movw r30,r24
 3570 1702 3183      		std Z+1,r19
 3571 1704 2083      		st Z,r18
 422:lp_solve_5.5/lp_simplex.c ****       avalue[1] = my_chsign(is_chsign(lp, forrownr), my_sign(rhscoef/acoef));
 3572               		.loc 2 422 0 discriminator 6
 3573 1706 8C89      		ldd r24,Y+20
 3574 1708 9D89      		ldd r25,Y+21
 3575 170a 8C01      		movw r16,r24
 3576 170c 0C5F      		subi r16,-4
 3577 170e 1F4F      		sbci r17,-1
 3578 1710 288D      		ldd r18,Y+24
 3579 1712 398D      		ldd r19,Y+25
 3580 1714 8E89      		ldd r24,Y+22
 3581 1716 9F89      		ldd r25,Y+23
 3582 1718 B901      		movw r22,r18
 3583 171a 0E94 0000 		call is_chsign
 3584 171e 8823      		tst r24
 3585 1720 01F0      		breq .L107
 3586               		.loc 2 422 0 is_stmt 0 discriminator 3
 3587 1722 2C81      		ldd r18,Y+4
 3588 1724 3D81      		ldd r19,Y+5
 3589 1726 4E81      		ldd r20,Y+6
 3590 1728 5F81      		ldd r21,Y+7
 3591 172a 6E85      		ldd r22,Y+14
 3592 172c 7F85      		ldd r23,Y+15
 3593 172e 8889      		ldd r24,Y+16
 3594 1730 9989      		ldd r25,Y+17
 3595 1732 0E94 0000 		call __divsf3
 3596 1736 DC01      		movw r26,r24
 3597 1738 CB01      		movw r24,r22
 3598 173a 20E0      		ldi r18,0
 3599 173c 30E0      		ldi r19,0
 3600 173e A901      		movw r20,r18
 3601 1740 BC01      		movw r22,r24
 3602 1742 CD01      		movw r24,r26
 3603 1744 0E94 0000 		call __ltsf2
 3604 1748 8823      		tst r24
 3605 174a 04F4      		brge .L121
 3606               		.loc 2 422 0 discriminator 5
 3607 174c 80E0      		ldi r24,0
 3608 174e 90E0      		ldi r25,0
 3609 1750 A0E8      		ldi r26,lo8(-128)
 3610 1752 BFE3      		ldi r27,lo8(63)
 3611 1754 00C0      		rjmp .L111
 3612               	.L121:
 3613               		.loc 2 422 0 discriminator 6
 3614 1756 80E0      		ldi r24,0
 3615 1758 90E0      		ldi r25,0
 3616 175a A0E8      		ldi r26,lo8(-128)
 3617 175c BFEB      		ldi r27,lo8(-65)
 3618 175e 00C0      		rjmp .L111
 3619               	.L107:
 3620               		.loc 2 422 0 discriminator 4
 3621 1760 2C81      		ldd r18,Y+4
 3622 1762 3D81      		ldd r19,Y+5
 3623 1764 4E81      		ldd r20,Y+6
 3624 1766 5F81      		ldd r21,Y+7
 3625 1768 6E85      		ldd r22,Y+14
 3626 176a 7F85      		ldd r23,Y+15
 3627 176c 8889      		ldd r24,Y+16
 3628 176e 9989      		ldd r25,Y+17
 3629 1770 0E94 0000 		call __divsf3
 3630 1774 DC01      		movw r26,r24
 3631 1776 CB01      		movw r24,r22
 3632 1778 20E0      		ldi r18,0
 3633 177a 30E0      		ldi r19,0
 3634 177c A901      		movw r20,r18
 3635 177e BC01      		movw r22,r24
 3636 1780 CD01      		movw r24,r26
 3637 1782 0E94 0000 		call __ltsf2
 3638 1786 8823      		tst r24
 3639 1788 04F4      		brge .L122
 3640               		.loc 2 422 0 discriminator 10
 3641 178a 80E0      		ldi r24,0
 3642 178c 90E0      		ldi r25,0
 3643 178e A0E8      		ldi r26,lo8(-128)
 3644 1790 BFEB      		ldi r27,lo8(-65)
 3645 1792 00C0      		rjmp .L111
 3646               	.L122:
 3647               		.loc 2 422 0 discriminator 11
 3648 1794 80E0      		ldi r24,0
 3649 1796 90E0      		ldi r25,0
 3650 1798 A0E8      		ldi r26,lo8(-128)
 3651 179a BFE3      		ldi r27,lo8(63)
 3652               	.L111:
 3653               		.loc 2 422 0 discriminator 14
 3654 179c F801      		movw r30,r16
 3655 179e 8083      		st Z,r24
 3656 17a0 9183      		std Z+1,r25
 3657 17a2 A283      		std Z+2,r26
 3658 17a4 B383      		std Z+3,r27
 423:lp_solve_5.5/lp_simplex.c **** 
 424:lp_solve_5.5/lp_simplex.c ****      /* Add the column of artificial variable data to the user data matrix */
 425:lp_solve_5.5/lp_simplex.c ****       add_columnex(lp, 2, avalue, rownr);
 3659               		.loc 2 425 0 is_stmt 1 discriminator 14
 3660 17a6 2A89      		ldd r18,Y+18
 3661 17a8 3B89      		ldd r19,Y+19
 3662 17aa 4C89      		ldd r20,Y+20
 3663 17ac 5D89      		ldd r21,Y+21
 3664 17ae 8E89      		ldd r24,Y+22
 3665 17b0 9F89      		ldd r25,Y+23
 3666 17b2 62E0      		ldi r22,lo8(2)
 3667 17b4 70E0      		ldi r23,0
 3668 17b6 0E94 0000 		call add_columnex
 426:lp_solve_5.5/lp_simplex.c **** 
 427:lp_solve_5.5/lp_simplex.c ****      /* Free the temporary sparse array storage */
 428:lp_solve_5.5/lp_simplex.c ****       if(idxarray == NULL)
 3669               		.loc 2 428 0 discriminator 14
 3670 17ba 8C8D      		ldd r24,Y+28
 3671 17bc 9D8D      		ldd r25,Y+29
 3672 17be 892B      		or r24,r25
 3673 17c0 01F4      		brne .L115
 429:lp_solve_5.5/lp_simplex.c ****         FREE(rownr);
 3674               		.loc 2 429 0
 3675 17c2 8A89      		ldd r24,Y+18
 3676 17c4 9B89      		ldd r25,Y+19
 3677 17c6 892B      		or r24,r25
 3678 17c8 01F0      		breq .L115
 3679               		.loc 2 429 0 is_stmt 0 discriminator 1
 3680 17ca 8A89      		ldd r24,Y+18
 3681 17cc 9B89      		ldd r25,Y+19
 3682 17ce 0E94 0000 		call free
 3683 17d2 1B8A      		std Y+19,__zero_reg__
 3684 17d4 1A8A      		std Y+18,__zero_reg__
 3685               	.L115:
 430:lp_solve_5.5/lp_simplex.c ****       if(nzarray == NULL)
 3686               		.loc 2 430 0 is_stmt 1
 3687 17d6 8A8D      		ldd r24,Y+26
 3688 17d8 9B8D      		ldd r25,Y+27
 3689 17da 892B      		or r24,r25
 3690 17dc 01F4      		brne .L116
 431:lp_solve_5.5/lp_simplex.c ****         FREE(avalue);
 3691               		.loc 2 431 0
 3692 17de 8C89      		ldd r24,Y+20
 3693 17e0 9D89      		ldd r25,Y+21
 3694 17e2 892B      		or r24,r25
 3695 17e4 01F0      		breq .L116
 3696               		.loc 2 431 0 is_stmt 0 discriminator 1
 3697 17e6 8C89      		ldd r24,Y+20
 3698 17e8 9D89      		ldd r25,Y+21
 3699 17ea 0E94 0000 		call free
 3700 17ee 1D8A      		std Y+21,__zero_reg__
 3701 17f0 1C8A      		std Y+20,__zero_reg__
 3702               	.L116:
 432:lp_solve_5.5/lp_simplex.c **** 
 433:lp_solve_5.5/lp_simplex.c ****      /* Now set the artificial variable to be basic */
 434:lp_solve_5.5/lp_simplex.c ****       set_basisvar(lp, bvar, lp->sum);
 3703               		.loc 2 434 0 is_stmt 1
 3704 17f2 8E89      		ldd r24,Y+22
 3705 17f4 9F89      		ldd r25,Y+23
 3706 17f6 8851      		subi r24,24
 3707 17f8 9E4F      		sbci r25,-2
 3708 17fa FC01      		movw r30,r24
 3709 17fc 4081      		ld r20,Z
 3710 17fe 5181      		ldd r21,Z+1
 3711 1800 2C85      		ldd r18,Y+12
 3712 1802 3D85      		ldd r19,Y+13
 3713 1804 8E89      		ldd r24,Y+22
 3714 1806 9F89      		ldd r25,Y+23
 3715 1808 B901      		movw r22,r18
 3716 180a 0E94 0000 		call set_basisvar
 435:lp_solve_5.5/lp_simplex.c ****       lp->P1extraDim++;
 3717               		.loc 2 435 0
 3718 180e 8E89      		ldd r24,Y+22
 3719 1810 9F89      		ldd r25,Y+23
 3720 1812 8051      		subi r24,16
 3721 1814 9D4F      		sbci r25,-3
 3722 1816 FC01      		movw r30,r24
 3723 1818 8081      		ld r24,Z
 3724 181a 9181      		ldd r25,Z+1
 3725 181c 9C01      		movw r18,r24
 3726 181e 2F5F      		subi r18,-1
 3727 1820 3F4F      		sbci r19,-1
 3728 1822 8E89      		ldd r24,Y+22
 3729 1824 9F89      		ldd r25,Y+23
 3730 1826 8051      		subi r24,16
 3731 1828 9D4F      		sbci r25,-3
 3732 182a FC01      		movw r30,r24
 3733 182c 3183      		std Z+1,r19
 3734 182e 2083      		st Z,r18
 3735 1830 00C0      		rjmp .L88
 3736               	.L100:
 436:lp_solve_5.5/lp_simplex.c ****     }
 437:lp_solve_5.5/lp_simplex.c ****     else {
 438:lp_solve_5.5/lp_simplex.c ****       report(lp, CRITICAL, "add_artificial: Could not find replacement basis variable for row %d\n"
 3737               		.loc 2 438 0
 3738 1832 898D      		ldd r24,Y+25
 3739 1834 8F93      		push r24
 3740 1836 888D      		ldd r24,Y+24
 3741 1838 8F93      		push r24
 3742 183a 80E0      		ldi r24,lo8(.LC7)
 3743 183c 90E0      		ldi r25,hi8(.LC7)
 3744 183e 892F      		mov r24,r25
 3745 1840 8F93      		push r24
 3746 1842 80E0      		ldi r24,lo8(.LC7)
 3747 1844 90E0      		ldi r25,hi8(.LC7)
 3748 1846 8F93      		push r24
 3749 1848 1F92      		push __zero_reg__
 3750 184a 81E0      		ldi r24,lo8(1)
 3751 184c 8F93      		push r24
 3752 184e 8F89      		ldd r24,Y+23
 3753 1850 8F93      		push r24
 3754 1852 8E89      		ldd r24,Y+22
 3755 1854 8F93      		push r24
 3756 1856 0E94 0000 		call report
 3757 185a 4DB7      		in r20,__SP_L__
 3758 185c 5EB7      		in r21,__SP_H__
 3759 185e 485F      		subi r20,-8
 3760 1860 5F4F      		sbci r21,-1
 3761 1862 0FB6      		in __tmp_reg__,__SREG__
 3762 1864 F894      		cli
 3763 1866 DEBF      		out __SP_H__,r29
 3764 1868 0FBE      		out __SREG__,__tmp_reg__
 3765 186a CDBF      		out __SP_L__,r28
 439:lp_solve_5.5/lp_simplex.c ****                            forrownr);
 440:lp_solve_5.5/lp_simplex.c ****       lp->basis_valid = FALSE;
 3766               		.loc 2 440 0
 3767 186c 8E89      		ldd r24,Y+22
 3768 186e 9F89      		ldd r25,Y+23
 3769 1870 8753      		subi r24,55
 3770 1872 9D4F      		sbci r25,-3
 3771 1874 FC01      		movw r30,r24
 3772 1876 1082      		st Z,__zero_reg__
 3773               	.L88:
 3774               	.LBE5:
 441:lp_solve_5.5/lp_simplex.c ****     }
 442:lp_solve_5.5/lp_simplex.c **** 
 443:lp_solve_5.5/lp_simplex.c ****   }
 444:lp_solve_5.5/lp_simplex.c **** 
 445:lp_solve_5.5/lp_simplex.c ****   return(add);
 3775               		.loc 2 445 0
 3776 1878 8981      		ldd r24,Y+1
 3777               	/* epilogue start */
 446:lp_solve_5.5/lp_simplex.c **** 
 447:lp_solve_5.5/lp_simplex.c **** }
 3778               		.loc 2 447 0
 3779 187a 6D96      		adiw r28,29
 3780 187c 0FB6      		in __tmp_reg__,__SREG__
 3781 187e F894      		cli
 3782 1880 DEBF      		out __SP_H__,r29
 3783 1882 0FBE      		out __SREG__,__tmp_reg__
 3784 1884 CDBF      		out __SP_L__,r28
 3785 1886 DF91      		pop r29
 3786 1888 CF91      		pop r28
 3787 188a 1F91      		pop r17
 3788 188c 0F91      		pop r16
 3789 188e 0895      		ret
 3790               		.cfi_endproc
 3791               	.LFE16:
 3793               	.global	get_artificialRow
 3795               	get_artificialRow:
 3796               	.LFB17:
 448:lp_solve_5.5/lp_simplex.c **** 
 449:lp_solve_5.5/lp_simplex.c **** STATIC int get_artificialRow(lprec *lp, int colnr)
 450:lp_solve_5.5/lp_simplex.c **** {
 3797               		.loc 2 450 0
 3798               		.cfi_startproc
 3799 1890 CF93      		push r28
 3800               	.LCFI62:
 3801               		.cfi_def_cfa_offset 3
 3802               		.cfi_offset 28, -2
 3803 1892 DF93      		push r29
 3804               	.LCFI63:
 3805               		.cfi_def_cfa_offset 4
 3806               		.cfi_offset 29, -3
 3807 1894 00D0      		rcall .
 3808 1896 00D0      		rcall .
 3809 1898 00D0      		rcall .
 3810               	.LCFI64:
 3811               		.cfi_def_cfa_offset 10
 3812 189a CDB7      		in r28,__SP_L__
 3813 189c DEB7      		in r29,__SP_H__
 3814               	.LCFI65:
 3815               		.cfi_def_cfa_register 28
 3816               	/* prologue: function */
 3817               	/* frame size = 6 */
 3818               	/* stack size = 8 */
 3819               	.L__stack_usage = 8
 3820 189e 9C83      		std Y+4,r25
 3821 18a0 8B83      		std Y+3,r24
 3822 18a2 7E83      		std Y+6,r23
 3823 18a4 6D83      		std Y+5,r22
 451:lp_solve_5.5/lp_simplex.c ****   MATrec *mat = lp->matA;
 3824               		.loc 2 451 0
 3825 18a6 8B81      		ldd r24,Y+3
 3826 18a8 9C81      		ldd r25,Y+4
 3827 18aa 8A54      		subi r24,74
 3828 18ac 9D4F      		sbci r25,-3
 3829 18ae FC01      		movw r30,r24
 3830 18b0 8081      		ld r24,Z
 3831 18b2 9181      		ldd r25,Z+1
 3832 18b4 9A83      		std Y+2,r25
 3833 18b6 8983      		std Y+1,r24
 452:lp_solve_5.5/lp_simplex.c **** 
 453:lp_solve_5.5/lp_simplex.c **** #ifdef Paranoia
 454:lp_solve_5.5/lp_simplex.c ****   if((colnr <= lp->columns-abs(lp->P1extraDim)) || (colnr > lp->columns))
 455:lp_solve_5.5/lp_simplex.c ****     report(lp, SEVERE, "get_artificialRow: Invalid column index %d\n", colnr);
 456:lp_solve_5.5/lp_simplex.c ****   if(mat->col_end[colnr] - mat->col_end[colnr-1] != 1)
 457:lp_solve_5.5/lp_simplex.c ****     report(lp, SEVERE, "get_artificialRow: Invalid column non-zero count\n");
 458:lp_solve_5.5/lp_simplex.c **** #endif
 459:lp_solve_5.5/lp_simplex.c **** 
 460:lp_solve_5.5/lp_simplex.c ****   /* Return the row index of the singleton */
 461:lp_solve_5.5/lp_simplex.c ****   colnr = mat->col_end[colnr-1];
 3834               		.loc 2 461 0
 3835 18b8 8981      		ldd r24,Y+1
 3836 18ba 9A81      		ldd r25,Y+2
 3837 18bc FC01      		movw r30,r24
 3838 18be 2289      		ldd r18,Z+18
 3839 18c0 3389      		ldd r19,Z+19
 3840 18c2 8D81      		ldd r24,Y+5
 3841 18c4 9E81      		ldd r25,Y+6
 3842 18c6 8150      		subi r24,1
 3843 18c8 9048      		sbci r25,-128
 3844 18ca 880F      		lsl r24
 3845 18cc 991F      		rol r25
 3846 18ce 820F      		add r24,r18
 3847 18d0 931F      		adc r25,r19
 3848 18d2 FC01      		movw r30,r24
 3849 18d4 8081      		ld r24,Z
 3850 18d6 9181      		ldd r25,Z+1
 3851 18d8 9E83      		std Y+6,r25
 3852 18da 8D83      		std Y+5,r24
 462:lp_solve_5.5/lp_simplex.c ****   colnr = COL_MAT_ROWNR(colnr);
 3853               		.loc 2 462 0
 3854 18dc 8981      		ldd r24,Y+1
 3855 18de 9A81      		ldd r25,Y+2
 3856 18e0 FC01      		movw r30,r24
 3857 18e2 2685      		ldd r18,Z+14
 3858 18e4 3785      		ldd r19,Z+15
 3859 18e6 8D81      		ldd r24,Y+5
 3860 18e8 9E81      		ldd r25,Y+6
 3861 18ea 880F      		lsl r24
 3862 18ec 991F      		rol r25
 3863 18ee 820F      		add r24,r18
 3864 18f0 931F      		adc r25,r19
 3865 18f2 FC01      		movw r30,r24
 3866 18f4 8081      		ld r24,Z
 3867 18f6 9181      		ldd r25,Z+1
 3868 18f8 9E83      		std Y+6,r25
 3869 18fa 8D83      		std Y+5,r24
 463:lp_solve_5.5/lp_simplex.c ****   return( colnr );
 3870               		.loc 2 463 0
 3871 18fc 8D81      		ldd r24,Y+5
 3872 18fe 9E81      		ldd r25,Y+6
 3873               	/* epilogue start */
 464:lp_solve_5.5/lp_simplex.c **** }
 3874               		.loc 2 464 0
 3875 1900 2696      		adiw r28,6
 3876 1902 0FB6      		in __tmp_reg__,__SREG__
 3877 1904 F894      		cli
 3878 1906 DEBF      		out __SP_H__,r29
 3879 1908 0FBE      		out __SREG__,__tmp_reg__
 3880 190a CDBF      		out __SP_L__,r28
 3881 190c DF91      		pop r29
 3882 190e CF91      		pop r28
 3883 1910 0895      		ret
 3884               		.cfi_endproc
 3885               	.LFE17:
 3887               	.global	__eqsf2
 3888               	.global	findAnti_artificial
 3890               	findAnti_artificial:
 3891               	.LFB18:
 465:lp_solve_5.5/lp_simplex.c **** 
 466:lp_solve_5.5/lp_simplex.c **** STATIC int findAnti_artificial(lprec *lp, int colnr)
 467:lp_solve_5.5/lp_simplex.c **** /* Primal simplex: Find a basic artificial variable to swap
 468:lp_solve_5.5/lp_simplex.c ****    against the non-basic slack variable, if possible */
 469:lp_solve_5.5/lp_simplex.c **** {
 3892               		.loc 2 469 0
 3893               		.cfi_startproc
 3894 1912 CF93      		push r28
 3895               	.LCFI66:
 3896               		.cfi_def_cfa_offset 3
 3897               		.cfi_offset 28, -2
 3898 1914 DF93      		push r29
 3899               	.LCFI67:
 3900               		.cfi_def_cfa_offset 4
 3901               		.cfi_offset 29, -3
 3902 1916 CDB7      		in r28,__SP_L__
 3903 1918 DEB7      		in r29,__SP_H__
 3904               	.LCFI68:
 3905               		.cfi_def_cfa_register 28
 3906 191a 2C97      		sbiw r28,12
 3907               	.LCFI69:
 3908               		.cfi_def_cfa_offset 16
 3909 191c 0FB6      		in __tmp_reg__,__SREG__
 3910 191e F894      		cli
 3911 1920 DEBF      		out __SP_H__,r29
 3912 1922 0FBE      		out __SREG__,__tmp_reg__
 3913 1924 CDBF      		out __SP_L__,r28
 3914               	/* prologue: function */
 3915               	/* frame size = 12 */
 3916               	/* stack size = 14 */
 3917               	.L__stack_usage = 14
 3918 1926 9A87      		std Y+10,r25
 3919 1928 8987      		std Y+9,r24
 3920 192a 7C87      		std Y+12,r23
 3921 192c 6B87      		std Y+11,r22
 470:lp_solve_5.5/lp_simplex.c ****   int    i, k, rownr = 0, P1extraDim = abs(lp->P1extraDim);
 3922               		.loc 2 470 0
 3923 192e 1C82      		std Y+4,__zero_reg__
 3924 1930 1B82      		std Y+3,__zero_reg__
 3925 1932 8985      		ldd r24,Y+9
 3926 1934 9A85      		ldd r25,Y+10
 3927 1936 8051      		subi r24,16
 3928 1938 9D4F      		sbci r25,-3
 3929 193a FC01      		movw r30,r24
 3930 193c 8081      		ld r24,Z
 3931 193e 9181      		ldd r25,Z+1
 3932 1940 9923      		tst r25
 3933 1942 04F4      		brge .L128
 3934 1944 9195      		neg r25
 3935 1946 8195      		neg r24
 3936 1948 9109      		sbc r25,__zero_reg__
 3937               	.L128:
 3938 194a 9E83      		std Y+6,r25
 3939 194c 8D83      		std Y+5,r24
 471:lp_solve_5.5/lp_simplex.c **** 
 472:lp_solve_5.5/lp_simplex.c ****   if((P1extraDim == 0) || (colnr > lp->rows) || !lp->is_basic[colnr])
 3940               		.loc 2 472 0
 3941 194e 8D81      		ldd r24,Y+5
 3942 1950 9E81      		ldd r25,Y+6
 3943 1952 892B      		or r24,r25
 3944 1954 01F0      		breq .L129
 3945               		.loc 2 472 0 is_stmt 0 discriminator 1
 3946 1956 8985      		ldd r24,Y+9
 3947 1958 9A85      		ldd r25,Y+10
 3948 195a 8651      		subi r24,22
 3949 195c 9E4F      		sbci r25,-2
 3950 195e FC01      		movw r30,r24
 3951 1960 2081      		ld r18,Z
 3952 1962 3181      		ldd r19,Z+1
 3953 1964 8B85      		ldd r24,Y+11
 3954 1966 9C85      		ldd r25,Y+12
 3955 1968 2817      		cp r18,r24
 3956 196a 3907      		cpc r19,r25
 3957 196c 04F0      		brlt .L129
 3958               		.loc 2 472 0 discriminator 2
 3959 196e 8985      		ldd r24,Y+9
 3960 1970 9A85      		ldd r25,Y+10
 3961 1972 8053      		subi r24,48
 3962 1974 9D4F      		sbci r25,-3
 3963 1976 FC01      		movw r30,r24
 3964 1978 2081      		ld r18,Z
 3965 197a 3181      		ldd r19,Z+1
 3966 197c 8B85      		ldd r24,Y+11
 3967 197e 9C85      		ldd r25,Y+12
 3968 1980 820F      		add r24,r18
 3969 1982 931F      		adc r25,r19
 3970 1984 FC01      		movw r30,r24
 3971 1986 8081      		ld r24,Z
 3972 1988 8823      		tst r24
 3973 198a 01F4      		brne .L130
 3974               	.L129:
 473:lp_solve_5.5/lp_simplex.c ****     return( rownr );
 3975               		.loc 2 473 0 is_stmt 1
 3976 198c 8B81      		ldd r24,Y+3
 3977 198e 9C81      		ldd r25,Y+4
 3978 1990 00C0      		rjmp .L131
 3979               	.L130:
 474:lp_solve_5.5/lp_simplex.c **** 
 475:lp_solve_5.5/lp_simplex.c ****   for(i = 1; i <= lp->rows; i++) {
 3980               		.loc 2 475 0
 3981 1992 81E0      		ldi r24,lo8(1)
 3982 1994 90E0      		ldi r25,0
 3983 1996 9A83      		std Y+2,r25
 3984 1998 8983      		std Y+1,r24
 3985 199a 00C0      		rjmp .L132
 3986               	.L137:
 476:lp_solve_5.5/lp_simplex.c ****     k = lp->var_basic[i];
 3987               		.loc 2 476 0
 3988 199c 8985      		ldd r24,Y+9
 3989 199e 9A85      		ldd r25,Y+10
 3990 19a0 8453      		subi r24,52
 3991 19a2 9D4F      		sbci r25,-3
 3992 19a4 FC01      		movw r30,r24
 3993 19a6 2081      		ld r18,Z
 3994 19a8 3181      		ldd r19,Z+1
 3995 19aa 8981      		ldd r24,Y+1
 3996 19ac 9A81      		ldd r25,Y+2
 3997 19ae 880F      		lsl r24
 3998 19b0 991F      		rol r25
 3999 19b2 820F      		add r24,r18
 4000 19b4 931F      		adc r25,r19
 4001 19b6 FC01      		movw r30,r24
 4002 19b8 8081      		ld r24,Z
 4003 19ba 9181      		ldd r25,Z+1
 4004 19bc 9887      		std Y+8,r25
 4005 19be 8F83      		std Y+7,r24
 477:lp_solve_5.5/lp_simplex.c ****     if((k > lp->sum-P1extraDim) && (lp->rhs[i] == 0)) {
 4006               		.loc 2 477 0
 4007 19c0 8985      		ldd r24,Y+9
 4008 19c2 9A85      		ldd r25,Y+10
 4009 19c4 8851      		subi r24,24
 4010 19c6 9E4F      		sbci r25,-2
 4011 19c8 FC01      		movw r30,r24
 4012 19ca 2081      		ld r18,Z
 4013 19cc 3181      		ldd r19,Z+1
 4014 19ce 8D81      		ldd r24,Y+5
 4015 19d0 9E81      		ldd r25,Y+6
 4016 19d2 281B      		sub r18,r24
 4017 19d4 390B      		sbc r19,r25
 4018 19d6 8F81      		ldd r24,Y+7
 4019 19d8 9885      		ldd r25,Y+8
 4020 19da 2817      		cp r18,r24
 4021 19dc 3907      		cpc r19,r25
 4022 19de 04F4      		brge .L133
 4023               		.loc 2 477 0 is_stmt 0 discriminator 1
 4024 19e0 8985      		ldd r24,Y+9
 4025 19e2 9A85      		ldd r25,Y+10
 4026 19e4 8855      		subi r24,88
 4027 19e6 9D4F      		sbci r25,-3
 4028 19e8 FC01      		movw r30,r24
 4029 19ea 2081      		ld r18,Z
 4030 19ec 3181      		ldd r19,Z+1
 4031 19ee 8981      		ldd r24,Y+1
 4032 19f0 9A81      		ldd r25,Y+2
 4033 19f2 880F      		lsl r24
 4034 19f4 991F      		rol r25
 4035 19f6 880F      		lsl r24
 4036 19f8 991F      		rol r25
 4037 19fa 820F      		add r24,r18
 4038 19fc 931F      		adc r25,r19
 4039 19fe FC01      		movw r30,r24
 4040 1a00 8081      		ld r24,Z
 4041 1a02 9181      		ldd r25,Z+1
 4042 1a04 A281      		ldd r26,Z+2
 4043 1a06 B381      		ldd r27,Z+3
 4044 1a08 20E0      		ldi r18,0
 4045 1a0a 30E0      		ldi r19,0
 4046 1a0c A901      		movw r20,r18
 4047 1a0e BC01      		movw r22,r24
 4048 1a10 CD01      		movw r24,r26
 4049 1a12 0E94 0000 		call __eqsf2
 4050 1a16 8823      		tst r24
 4051 1a18 01F4      		brne .L133
 478:lp_solve_5.5/lp_simplex.c ****       rownr = get_artificialRow(lp, k-lp->rows);
 4052               		.loc 2 478 0 is_stmt 1
 4053 1a1a 8985      		ldd r24,Y+9
 4054 1a1c 9A85      		ldd r25,Y+10
 4055 1a1e 8651      		subi r24,22
 4056 1a20 9E4F      		sbci r25,-2
 4057 1a22 FC01      		movw r30,r24
 4058 1a24 8081      		ld r24,Z
 4059 1a26 9181      		ldd r25,Z+1
 4060 1a28 2F81      		ldd r18,Y+7
 4061 1a2a 3885      		ldd r19,Y+8
 4062 1a2c 281B      		sub r18,r24
 4063 1a2e 390B      		sbc r19,r25
 4064 1a30 8985      		ldd r24,Y+9
 4065 1a32 9A85      		ldd r25,Y+10
 4066 1a34 B901      		movw r22,r18
 4067 1a36 0E94 0000 		call get_artificialRow
 4068 1a3a 9C83      		std Y+4,r25
 4069 1a3c 8B83      		std Y+3,r24
 479:lp_solve_5.5/lp_simplex.c **** 
 480:lp_solve_5.5/lp_simplex.c ****       /* Should we find the artificial's slack direct "antibody"? */
 481:lp_solve_5.5/lp_simplex.c ****       if(rownr == colnr)
 4070               		.loc 2 481 0
 4071 1a3e 2B81      		ldd r18,Y+3
 4072 1a40 3C81      		ldd r19,Y+4
 4073 1a42 8B85      		ldd r24,Y+11
 4074 1a44 9C85      		ldd r25,Y+12
 4075 1a46 2817      		cp r18,r24
 4076 1a48 3907      		cpc r19,r25
 4077 1a4a 01F0      		breq .L139
 482:lp_solve_5.5/lp_simplex.c ****         break;
 483:lp_solve_5.5/lp_simplex.c ****       rownr = 0;
 4078               		.loc 2 483 0
 4079 1a4c 1C82      		std Y+4,__zero_reg__
 4080 1a4e 1B82      		std Y+3,__zero_reg__
 4081               	.L133:
 475:lp_solve_5.5/lp_simplex.c ****     k = lp->var_basic[i];
 4082               		.loc 2 475 0 discriminator 2
 4083 1a50 8981      		ldd r24,Y+1
 4084 1a52 9A81      		ldd r25,Y+2
 4085 1a54 0196      		adiw r24,1
 4086 1a56 9A83      		std Y+2,r25
 4087 1a58 8983      		std Y+1,r24
 4088               	.L132:
 475:lp_solve_5.5/lp_simplex.c ****     k = lp->var_basic[i];
 4089               		.loc 2 475 0 is_stmt 0 discriminator 1
 4090 1a5a 8985      		ldd r24,Y+9
 4091 1a5c 9A85      		ldd r25,Y+10
 4092 1a5e 8651      		subi r24,22
 4093 1a60 9E4F      		sbci r25,-2
 4094 1a62 FC01      		movw r30,r24
 4095 1a64 2081      		ld r18,Z
 4096 1a66 3181      		ldd r19,Z+1
 4097 1a68 8981      		ldd r24,Y+1
 4098 1a6a 9A81      		ldd r25,Y+2
 4099 1a6c 2817      		cp r18,r24
 4100 1a6e 3907      		cpc r19,r25
 4101 1a70 04F0      		brlt .+2
 4102 1a72 00C0      		rjmp .L137
 4103 1a74 00C0      		rjmp .L136
 4104               	.L139:
 482:lp_solve_5.5/lp_simplex.c ****         break;
 4105               		.loc 2 482 0 is_stmt 1
 4106 1a76 0000      		nop
 4107               	.L136:
 484:lp_solve_5.5/lp_simplex.c ****     }
 485:lp_solve_5.5/lp_simplex.c ****   }
 486:lp_solve_5.5/lp_simplex.c ****   return( rownr );
 4108               		.loc 2 486 0
 4109 1a78 8B81      		ldd r24,Y+3
 4110 1a7a 9C81      		ldd r25,Y+4
 4111               	.L131:
 4112               	/* epilogue start */
 487:lp_solve_5.5/lp_simplex.c **** }
 4113               		.loc 2 487 0
 4114 1a7c 2C96      		adiw r28,12
 4115 1a7e 0FB6      		in __tmp_reg__,__SREG__
 4116 1a80 F894      		cli
 4117 1a82 DEBF      		out __SP_H__,r29
 4118 1a84 0FBE      		out __SREG__,__tmp_reg__
 4119 1a86 CDBF      		out __SP_L__,r28
 4120 1a88 DF91      		pop r29
 4121 1a8a CF91      		pop r28
 4122 1a8c 0895      		ret
 4123               		.cfi_endproc
 4124               	.LFE18:
 4126               	.global	findBasicArtificial
 4128               	findBasicArtificial:
 4129               	.LFB19:
 488:lp_solve_5.5/lp_simplex.c **** 
 489:lp_solve_5.5/lp_simplex.c **** STATIC int findBasicArtificial(lprec *lp, int before)
 490:lp_solve_5.5/lp_simplex.c **** {
 4130               		.loc 2 490 0
 4131               		.cfi_startproc
 4132 1a8e CF93      		push r28
 4133               	.LCFI70:
 4134               		.cfi_def_cfa_offset 3
 4135               		.cfi_offset 28, -2
 4136 1a90 DF93      		push r29
 4137               	.LCFI71:
 4138               		.cfi_def_cfa_offset 4
 4139               		.cfi_offset 29, -3
 4140 1a92 CDB7      		in r28,__SP_L__
 4141 1a94 DEB7      		in r29,__SP_H__
 4142               	.LCFI72:
 4143               		.cfi_def_cfa_register 28
 4144 1a96 2897      		sbiw r28,8
 4145               	.LCFI73:
 4146               		.cfi_def_cfa_offset 12
 4147 1a98 0FB6      		in __tmp_reg__,__SREG__
 4148 1a9a F894      		cli
 4149 1a9c DEBF      		out __SP_H__,r29
 4150 1a9e 0FBE      		out __SREG__,__tmp_reg__
 4151 1aa0 CDBF      		out __SP_L__,r28
 4152               	/* prologue: function */
 4153               	/* frame size = 8 */
 4154               	/* stack size = 10 */
 4155               	.L__stack_usage = 10
 4156 1aa2 9E83      		std Y+6,r25
 4157 1aa4 8D83      		std Y+5,r24
 4158 1aa6 7887      		std Y+8,r23
 4159 1aa8 6F83      		std Y+7,r22
 491:lp_solve_5.5/lp_simplex.c ****   int i = 0, P1extraDim = abs(lp->P1extraDim);
 4160               		.loc 2 491 0
 4161 1aaa 1A82      		std Y+2,__zero_reg__
 4162 1aac 1982      		std Y+1,__zero_reg__
 4163 1aae 8D81      		ldd r24,Y+5
 4164 1ab0 9E81      		ldd r25,Y+6
 4165 1ab2 8051      		subi r24,16
 4166 1ab4 9D4F      		sbci r25,-3
 4167 1ab6 FC01      		movw r30,r24
 4168 1ab8 8081      		ld r24,Z
 4169 1aba 9181      		ldd r25,Z+1
 4170 1abc 9923      		tst r25
 4171 1abe 04F4      		brge .L141
 4172 1ac0 9195      		neg r25
 4173 1ac2 8195      		neg r24
 4174 1ac4 9109      		sbc r25,__zero_reg__
 4175               	.L141:
 4176 1ac6 9C83      		std Y+4,r25
 4177 1ac8 8B83      		std Y+3,r24
 492:lp_solve_5.5/lp_simplex.c **** 
 493:lp_solve_5.5/lp_simplex.c ****   if(P1extraDim > 0) {
 4178               		.loc 2 493 0
 4179 1aca 8B81      		ldd r24,Y+3
 4180 1acc 9C81      		ldd r25,Y+4
 4181 1ace 1816      		cp __zero_reg__,r24
 4182 1ad0 1906      		cpc __zero_reg__,r25
 4183 1ad2 04F0      		brlt .+2
 4184 1ad4 00C0      		rjmp .L142
 494:lp_solve_5.5/lp_simplex.c ****     if(before > lp->rows || before <= 1)
 4185               		.loc 2 494 0
 4186 1ad6 8D81      		ldd r24,Y+5
 4187 1ad8 9E81      		ldd r25,Y+6
 4188 1ada 8651      		subi r24,22
 4189 1adc 9E4F      		sbci r25,-2
 4190 1ade FC01      		movw r30,r24
 4191 1ae0 2081      		ld r18,Z
 4192 1ae2 3181      		ldd r19,Z+1
 4193 1ae4 8F81      		ldd r24,Y+7
 4194 1ae6 9885      		ldd r25,Y+8
 4195 1ae8 2817      		cp r18,r24
 4196 1aea 3907      		cpc r19,r25
 4197 1aec 04F0      		brlt .L143
 4198               		.loc 2 494 0 is_stmt 0 discriminator 1
 4199 1aee 8F81      		ldd r24,Y+7
 4200 1af0 9885      		ldd r25,Y+8
 4201 1af2 0297      		sbiw r24,2
 4202 1af4 04F4      		brge .L144
 4203               	.L143:
 495:lp_solve_5.5/lp_simplex.c ****       i = lp->rows;
 4204               		.loc 2 495 0 is_stmt 1
 4205 1af6 8D81      		ldd r24,Y+5
 4206 1af8 9E81      		ldd r25,Y+6
 4207 1afa 8651      		subi r24,22
 4208 1afc 9E4F      		sbci r25,-2
 4209 1afe FC01      		movw r30,r24
 4210 1b00 8081      		ld r24,Z
 4211 1b02 9181      		ldd r25,Z+1
 4212 1b04 9A83      		std Y+2,r25
 4213 1b06 8983      		std Y+1,r24
 4214 1b08 00C0      		rjmp .L145
 4215               	.L144:
 496:lp_solve_5.5/lp_simplex.c ****     else
 497:lp_solve_5.5/lp_simplex.c ****       i = before;
 4216               		.loc 2 497 0
 4217 1b0a 8F81      		ldd r24,Y+7
 4218 1b0c 9885      		ldd r25,Y+8
 4219 1b0e 9A83      		std Y+2,r25
 4220 1b10 8983      		std Y+1,r24
 4221               	.L145:
 498:lp_solve_5.5/lp_simplex.c **** 
 499:lp_solve_5.5/lp_simplex.c ****     while((i > 0) && (lp->var_basic[i] <= lp->sum-P1extraDim))
 4222               		.loc 2 499 0
 4223 1b12 00C0      		rjmp .L146
 4224               	.L147:
 500:lp_solve_5.5/lp_simplex.c ****       i--;
 4225               		.loc 2 500 0
 4226 1b14 8981      		ldd r24,Y+1
 4227 1b16 9A81      		ldd r25,Y+2
 4228 1b18 0197      		sbiw r24,1
 4229 1b1a 9A83      		std Y+2,r25
 4230 1b1c 8983      		std Y+1,r24
 4231               	.L146:
 499:lp_solve_5.5/lp_simplex.c ****       i--;
 4232               		.loc 2 499 0
 4233 1b1e 8981      		ldd r24,Y+1
 4234 1b20 9A81      		ldd r25,Y+2
 4235 1b22 1816      		cp __zero_reg__,r24
 4236 1b24 1906      		cpc __zero_reg__,r25
 4237 1b26 04F4      		brge .L142
 499:lp_solve_5.5/lp_simplex.c ****       i--;
 4238               		.loc 2 499 0 is_stmt 0 discriminator 1
 4239 1b28 8D81      		ldd r24,Y+5
 4240 1b2a 9E81      		ldd r25,Y+6
 4241 1b2c 8453      		subi r24,52
 4242 1b2e 9D4F      		sbci r25,-3
 4243 1b30 FC01      		movw r30,r24
 4244 1b32 2081      		ld r18,Z
 4245 1b34 3181      		ldd r19,Z+1
 4246 1b36 8981      		ldd r24,Y+1
 4247 1b38 9A81      		ldd r25,Y+2
 4248 1b3a 880F      		lsl r24
 4249 1b3c 991F      		rol r25
 4250 1b3e 820F      		add r24,r18
 4251 1b40 931F      		adc r25,r19
 4252 1b42 FC01      		movw r30,r24
 4253 1b44 2081      		ld r18,Z
 4254 1b46 3181      		ldd r19,Z+1
 4255 1b48 8D81      		ldd r24,Y+5
 4256 1b4a 9E81      		ldd r25,Y+6
 4257 1b4c 8851      		subi r24,24
 4258 1b4e 9E4F      		sbci r25,-2
 4259 1b50 FC01      		movw r30,r24
 4260 1b52 4081      		ld r20,Z
 4261 1b54 5181      		ldd r21,Z+1
 4262 1b56 8B81      		ldd r24,Y+3
 4263 1b58 9C81      		ldd r25,Y+4
 4264 1b5a BA01      		movw r22,r20
 4265 1b5c 681B      		sub r22,r24
 4266 1b5e 790B      		sbc r23,r25
 4267 1b60 CB01      		movw r24,r22
 4268 1b62 8217      		cp r24,r18
 4269 1b64 9307      		cpc r25,r19
 4270 1b66 04F4      		brge .L147
 4271               	.L142:
 501:lp_solve_5.5/lp_simplex.c ****   }
 502:lp_solve_5.5/lp_simplex.c **** 
 503:lp_solve_5.5/lp_simplex.c ****   return(i);
 4272               		.loc 2 503 0 is_stmt 1
 4273 1b68 8981      		ldd r24,Y+1
 4274 1b6a 9A81      		ldd r25,Y+2
 4275               	/* epilogue start */
 504:lp_solve_5.5/lp_simplex.c **** }
 4276               		.loc 2 504 0
 4277 1b6c 2896      		adiw r28,8
 4278 1b6e 0FB6      		in __tmp_reg__,__SREG__
 4279 1b70 F894      		cli
 4280 1b72 DEBF      		out __SP_H__,r29
 4281 1b74 0FBE      		out __SREG__,__tmp_reg__
 4282 1b76 CDBF      		out __SP_L__,r28
 4283 1b78 DF91      		pop r29
 4284 1b7a CF91      		pop r28
 4285 1b7c 0895      		ret
 4286               		.cfi_endproc
 4287               	.LFE19:
 4289               	.global	eliminate_artificials
 4291               	eliminate_artificials:
 4292               	.LFB20:
 505:lp_solve_5.5/lp_simplex.c **** 
 506:lp_solve_5.5/lp_simplex.c **** STATIC void eliminate_artificials(lprec *lp, REAL *prow)
 507:lp_solve_5.5/lp_simplex.c **** {
 4293               		.loc 2 507 0
 4294               		.cfi_startproc
 4295 1b7e CF93      		push r28
 4296               	.LCFI74:
 4297               		.cfi_def_cfa_offset 3
 4298               		.cfi_offset 28, -2
 4299 1b80 DF93      		push r29
 4300               	.LCFI75:
 4301               		.cfi_def_cfa_offset 4
 4302               		.cfi_offset 29, -3
 4303 1b82 CDB7      		in r28,__SP_L__
 4304 1b84 DEB7      		in r29,__SP_H__
 4305               	.LCFI76:
 4306               		.cfi_def_cfa_register 28
 4307 1b86 2E97      		sbiw r28,14
 4308               	.LCFI77:
 4309               		.cfi_def_cfa_offset 18
 4310 1b88 0FB6      		in __tmp_reg__,__SREG__
 4311 1b8a F894      		cli
 4312 1b8c DEBF      		out __SP_H__,r29
 4313 1b8e 0FBE      		out __SREG__,__tmp_reg__
 4314 1b90 CDBF      		out __SP_L__,r28
 4315               	/* prologue: function */
 4316               	/* frame size = 14 */
 4317               	/* stack size = 16 */
 4318               	.L__stack_usage = 16
 4319 1b92 9C87      		std Y+12,r25
 4320 1b94 8B87      		std Y+11,r24
 4321 1b96 7E87      		std Y+14,r23
 4322 1b98 6D87      		std Y+13,r22
 508:lp_solve_5.5/lp_simplex.c ****   int   i, j, colnr, rownr, P1extraDim = abs(lp->P1extraDim);
 4323               		.loc 2 508 0
 4324 1b9a 8B85      		ldd r24,Y+11
 4325 1b9c 9C85      		ldd r25,Y+12
 4326 1b9e 8051      		subi r24,16
 4327 1ba0 9D4F      		sbci r25,-3
 4328 1ba2 FC01      		movw r30,r24
 4329 1ba4 8081      		ld r24,Z
 4330 1ba6 9181      		ldd r25,Z+1
 4331 1ba8 9923      		tst r25
 4332 1baa 04F4      		brge .L150
 4333 1bac 9195      		neg r25
 4334 1bae 8195      		neg r24
 4335 1bb0 9109      		sbc r25,__zero_reg__
 4336               	.L150:
 4337 1bb2 9C83      		std Y+4,r25
 4338 1bb4 8B83      		std Y+3,r24
 509:lp_solve_5.5/lp_simplex.c **** 
 510:lp_solve_5.5/lp_simplex.c ****   for(i = 1; (i <= lp->rows) && (P1extraDim > 0); i++) {
 4339               		.loc 2 510 0
 4340 1bb6 81E0      		ldi r24,lo8(1)
 4341 1bb8 90E0      		ldi r25,0
 4342 1bba 9A83      		std Y+2,r25
 4343 1bbc 8983      		std Y+1,r24
 4344 1bbe 00C0      		rjmp .L151
 4345               	.L155:
 511:lp_solve_5.5/lp_simplex.c ****     j = lp->var_basic[i];
 4346               		.loc 2 511 0
 4347 1bc0 8B85      		ldd r24,Y+11
 4348 1bc2 9C85      		ldd r25,Y+12
 4349 1bc4 8453      		subi r24,52
 4350 1bc6 9D4F      		sbci r25,-3
 4351 1bc8 FC01      		movw r30,r24
 4352 1bca 2081      		ld r18,Z
 4353 1bcc 3181      		ldd r19,Z+1
 4354 1bce 8981      		ldd r24,Y+1
 4355 1bd0 9A81      		ldd r25,Y+2
 4356 1bd2 880F      		lsl r24
 4357 1bd4 991F      		rol r25
 4358 1bd6 820F      		add r24,r18
 4359 1bd8 931F      		adc r25,r19
 4360 1bda FC01      		movw r30,r24
 4361 1bdc 8081      		ld r24,Z
 4362 1bde 9181      		ldd r25,Z+1
 4363 1be0 9E83      		std Y+6,r25
 4364 1be2 8D83      		std Y+5,r24
 512:lp_solve_5.5/lp_simplex.c ****     if(j <= lp->sum-P1extraDim)
 4365               		.loc 2 512 0
 4366 1be4 8B85      		ldd r24,Y+11
 4367 1be6 9C85      		ldd r25,Y+12
 4368 1be8 8851      		subi r24,24
 4369 1bea 9E4F      		sbci r25,-2
 4370 1bec FC01      		movw r30,r24
 4371 1bee 2081      		ld r18,Z
 4372 1bf0 3181      		ldd r19,Z+1
 4373 1bf2 8B81      		ldd r24,Y+3
 4374 1bf4 9C81      		ldd r25,Y+4
 4375 1bf6 281B      		sub r18,r24
 4376 1bf8 390B      		sbc r19,r25
 4377 1bfa 8D81      		ldd r24,Y+5
 4378 1bfc 9E81      		ldd r25,Y+6
 4379 1bfe 2817      		cp r18,r24
 4380 1c00 3907      		cpc r19,r25
 4381 1c02 04F4      		brge .L156
 513:lp_solve_5.5/lp_simplex.c ****       continue;
 514:lp_solve_5.5/lp_simplex.c ****     j -= lp->rows;
 4382               		.loc 2 514 0
 4383 1c04 8B85      		ldd r24,Y+11
 4384 1c06 9C85      		ldd r25,Y+12
 4385 1c08 8651      		subi r24,22
 4386 1c0a 9E4F      		sbci r25,-2
 4387 1c0c FC01      		movw r30,r24
 4388 1c0e 8081      		ld r24,Z
 4389 1c10 9181      		ldd r25,Z+1
 4390 1c12 2D81      		ldd r18,Y+5
 4391 1c14 3E81      		ldd r19,Y+6
 4392 1c16 A901      		movw r20,r18
 4393 1c18 481B      		sub r20,r24
 4394 1c1a 590B      		sbc r21,r25
 4395 1c1c CA01      		movw r24,r20
 4396 1c1e 9E83      		std Y+6,r25
 4397 1c20 8D83      		std Y+5,r24
 515:lp_solve_5.5/lp_simplex.c ****     rownr = get_artificialRow(lp, j);
 4398               		.loc 2 515 0
 4399 1c22 2D81      		ldd r18,Y+5
 4400 1c24 3E81      		ldd r19,Y+6
 4401 1c26 8B85      		ldd r24,Y+11
 4402 1c28 9C85      		ldd r25,Y+12
 4403 1c2a B901      		movw r22,r18
 4404 1c2c 0E94 0000 		call get_artificialRow
 4405 1c30 9887      		std Y+8,r25
 4406 1c32 8F83      		std Y+7,r24
 516:lp_solve_5.5/lp_simplex.c ****     colnr = find_rowReplacement(lp, rownr, prow, NULL);
 4407               		.loc 2 516 0
 4408 1c34 4D85      		ldd r20,Y+13
 4409 1c36 5E85      		ldd r21,Y+14
 4410 1c38 6F81      		ldd r22,Y+7
 4411 1c3a 7885      		ldd r23,Y+8
 4412 1c3c 8B85      		ldd r24,Y+11
 4413 1c3e 9C85      		ldd r25,Y+12
 4414 1c40 20E0      		ldi r18,0
 4415 1c42 30E0      		ldi r19,0
 4416 1c44 0E94 0000 		call find_rowReplacement
 4417 1c48 9A87      		std Y+10,r25
 4418 1c4a 8987      		std Y+9,r24
 517:lp_solve_5.5/lp_simplex.c **** #if 0
 518:lp_solve_5.5/lp_simplex.c ****     performiteration(lp, rownr, colnr, 0.0, TRUE, FALSE, prow, NULL,
 519:lp_solve_5.5/lp_simplex.c ****                                                           NULL, NULL, NULL);
 520:lp_solve_5.5/lp_simplex.c **** #else
 521:lp_solve_5.5/lp_simplex.c ****     set_basisvar(lp, rownr, colnr);
 4419               		.loc 2 521 0
 4420 1c4c 4985      		ldd r20,Y+9
 4421 1c4e 5A85      		ldd r21,Y+10
 4422 1c50 2F81      		ldd r18,Y+7
 4423 1c52 3885      		ldd r19,Y+8
 4424 1c54 8B85      		ldd r24,Y+11
 4425 1c56 9C85      		ldd r25,Y+12
 4426 1c58 B901      		movw r22,r18
 4427 1c5a 0E94 0000 		call set_basisvar
 522:lp_solve_5.5/lp_simplex.c **** #endif
 523:lp_solve_5.5/lp_simplex.c ****     del_column(lp, j);
 4428               		.loc 2 523 0
 4429 1c5e 2D81      		ldd r18,Y+5
 4430 1c60 3E81      		ldd r19,Y+6
 4431 1c62 8B85      		ldd r24,Y+11
 4432 1c64 9C85      		ldd r25,Y+12
 4433 1c66 B901      		movw r22,r18
 4434 1c68 0E94 0000 		call del_column
 524:lp_solve_5.5/lp_simplex.c ****     P1extraDim--;
 4435               		.loc 2 524 0
 4436 1c6c 8B81      		ldd r24,Y+3
 4437 1c6e 9C81      		ldd r25,Y+4
 4438 1c70 0197      		sbiw r24,1
 4439 1c72 9C83      		std Y+4,r25
 4440 1c74 8B83      		std Y+3,r24
 4441 1c76 00C0      		rjmp .L153
 4442               	.L156:
 513:lp_solve_5.5/lp_simplex.c ****     j -= lp->rows;
 4443               		.loc 2 513 0
 4444 1c78 0000      		nop
 4445               	.L153:
 510:lp_solve_5.5/lp_simplex.c ****     j = lp->var_basic[i];
 4446               		.loc 2 510 0 discriminator 2
 4447 1c7a 8981      		ldd r24,Y+1
 4448 1c7c 9A81      		ldd r25,Y+2
 4449 1c7e 0196      		adiw r24,1
 4450 1c80 9A83      		std Y+2,r25
 4451 1c82 8983      		std Y+1,r24
 4452               	.L151:
 510:lp_solve_5.5/lp_simplex.c ****     j = lp->var_basic[i];
 4453               		.loc 2 510 0 is_stmt 0 discriminator 1
 4454 1c84 8B85      		ldd r24,Y+11
 4455 1c86 9C85      		ldd r25,Y+12
 4456 1c88 8651      		subi r24,22
 4457 1c8a 9E4F      		sbci r25,-2
 4458 1c8c FC01      		movw r30,r24
 4459 1c8e 2081      		ld r18,Z
 4460 1c90 3181      		ldd r19,Z+1
 4461 1c92 8981      		ldd r24,Y+1
 4462 1c94 9A81      		ldd r25,Y+2
 4463 1c96 2817      		cp r18,r24
 4464 1c98 3907      		cpc r19,r25
 4465 1c9a 04F0      		brlt .L154
 510:lp_solve_5.5/lp_simplex.c ****     j = lp->var_basic[i];
 4466               		.loc 2 510 0 discriminator 3
 4467 1c9c 8B81      		ldd r24,Y+3
 4468 1c9e 9C81      		ldd r25,Y+4
 4469 1ca0 1816      		cp __zero_reg__,r24
 4470 1ca2 1906      		cpc __zero_reg__,r25
 4471 1ca4 04F4      		brge .+2
 4472 1ca6 00C0      		rjmp .L155
 4473               	.L154:
 525:lp_solve_5.5/lp_simplex.c ****   }
 526:lp_solve_5.5/lp_simplex.c ****   lp->P1extraDim = 0;
 4474               		.loc 2 526 0 is_stmt 1
 4475 1ca8 8B85      		ldd r24,Y+11
 4476 1caa 9C85      		ldd r25,Y+12
 4477 1cac 8051      		subi r24,16
 4478 1cae 9D4F      		sbci r25,-3
 4479 1cb0 FC01      		movw r30,r24
 4480 1cb2 1182      		std Z+1,__zero_reg__
 4481 1cb4 1082      		st Z,__zero_reg__
 527:lp_solve_5.5/lp_simplex.c **** }
 4482               		.loc 2 527 0
 4483 1cb6 0000      		nop
 4484               	/* epilogue start */
 4485 1cb8 2E96      		adiw r28,14
 4486 1cba 0FB6      		in __tmp_reg__,__SREG__
 4487 1cbc F894      		cli
 4488 1cbe DEBF      		out __SP_H__,r29
 4489 1cc0 0FBE      		out __SREG__,__tmp_reg__
 4490 1cc2 CDBF      		out __SP_L__,r28
 4491 1cc4 DF91      		pop r29
 4492 1cc6 CF91      		pop r28
 4493 1cc8 0895      		ret
 4494               		.cfi_endproc
 4495               	.LFE20:
 4497               	.global	clear_artificials
 4499               	clear_artificials:
 4500               	.LFB21:
 528:lp_solve_5.5/lp_simplex.c **** 
 529:lp_solve_5.5/lp_simplex.c **** STATIC void clear_artificials(lprec *lp)
 530:lp_solve_5.5/lp_simplex.c **** {
 4501               		.loc 2 530 0
 4502               		.cfi_startproc
 4503 1cca CF93      		push r28
 4504               	.LCFI78:
 4505               		.cfi_def_cfa_offset 3
 4506               		.cfi_offset 28, -2
 4507 1ccc DF93      		push r29
 4508               	.LCFI79:
 4509               		.cfi_def_cfa_offset 4
 4510               		.cfi_offset 29, -3
 4511 1cce CDB7      		in r28,__SP_L__
 4512 1cd0 DEB7      		in r29,__SP_H__
 4513               	.LCFI80:
 4514               		.cfi_def_cfa_register 28
 4515 1cd2 2A97      		sbiw r28,10
 4516               	.LCFI81:
 4517               		.cfi_def_cfa_offset 14
 4518 1cd4 0FB6      		in __tmp_reg__,__SREG__
 4519 1cd6 F894      		cli
 4520 1cd8 DEBF      		out __SP_H__,r29
 4521 1cda 0FBE      		out __SREG__,__tmp_reg__
 4522 1cdc CDBF      		out __SP_L__,r28
 4523               	/* prologue: function */
 4524               	/* frame size = 10 */
 4525               	/* stack size = 12 */
 4526               	.L__stack_usage = 12
 4527 1cde 9A87      		std Y+10,r25
 4528 1ce0 8987      		std Y+9,r24
 531:lp_solve_5.5/lp_simplex.c ****   int i, j, n, P1extraDim;
 532:lp_solve_5.5/lp_simplex.c **** 
 533:lp_solve_5.5/lp_simplex.c ****   /* Substitute any basic artificial variable for its slack counterpart */
 534:lp_solve_5.5/lp_simplex.c ****   n = 0;
 4529               		.loc 2 534 0
 4530 1ce2 1C82      		std Y+4,__zero_reg__
 4531 1ce4 1B82      		std Y+3,__zero_reg__
 535:lp_solve_5.5/lp_simplex.c ****   P1extraDim = abs(lp->P1extraDim);
 4532               		.loc 2 535 0
 4533 1ce6 8985      		ldd r24,Y+9
 4534 1ce8 9A85      		ldd r25,Y+10
 4535 1cea 8051      		subi r24,16
 4536 1cec 9D4F      		sbci r25,-3
 4537 1cee FC01      		movw r30,r24
 4538 1cf0 8081      		ld r24,Z
 4539 1cf2 9181      		ldd r25,Z+1
 4540 1cf4 9923      		tst r25
 4541 1cf6 04F4      		brge .L158
 4542 1cf8 9195      		neg r25
 4543 1cfa 8195      		neg r24
 4544 1cfc 9109      		sbc r25,__zero_reg__
 4545               	.L158:
 4546 1cfe 9E83      		std Y+6,r25
 4547 1d00 8D83      		std Y+5,r24
 536:lp_solve_5.5/lp_simplex.c ****   for(i = 1; (i <= lp->rows) && (n < P1extraDim); i++) {
 4548               		.loc 2 536 0
 4549 1d02 81E0      		ldi r24,lo8(1)
 4550 1d04 90E0      		ldi r25,0
 4551 1d06 9A83      		std Y+2,r25
 4552 1d08 8983      		std Y+1,r24
 4553 1d0a 00C0      		rjmp .L159
 4554               	.L163:
 537:lp_solve_5.5/lp_simplex.c ****     j = lp->var_basic[i];
 4555               		.loc 2 537 0
 4556 1d0c 8985      		ldd r24,Y+9
 4557 1d0e 9A85      		ldd r25,Y+10
 4558 1d10 8453      		subi r24,52
 4559 1d12 9D4F      		sbci r25,-3
 4560 1d14 FC01      		movw r30,r24
 4561 1d16 2081      		ld r18,Z
 4562 1d18 3181      		ldd r19,Z+1
 4563 1d1a 8981      		ldd r24,Y+1
 4564 1d1c 9A81      		ldd r25,Y+2
 4565 1d1e 880F      		lsl r24
 4566 1d20 991F      		rol r25
 4567 1d22 820F      		add r24,r18
 4568 1d24 931F      		adc r25,r19
 4569 1d26 FC01      		movw r30,r24
 4570 1d28 8081      		ld r24,Z
 4571 1d2a 9181      		ldd r25,Z+1
 4572 1d2c 9887      		std Y+8,r25
 4573 1d2e 8F83      		std Y+7,r24
 538:lp_solve_5.5/lp_simplex.c ****     if(j <= lp->sum-P1extraDim)
 4574               		.loc 2 538 0
 4575 1d30 8985      		ldd r24,Y+9
 4576 1d32 9A85      		ldd r25,Y+10
 4577 1d34 8851      		subi r24,24
 4578 1d36 9E4F      		sbci r25,-2
 4579 1d38 FC01      		movw r30,r24
 4580 1d3a 2081      		ld r18,Z
 4581 1d3c 3181      		ldd r19,Z+1
 4582 1d3e 8D81      		ldd r24,Y+5
 4583 1d40 9E81      		ldd r25,Y+6
 4584 1d42 281B      		sub r18,r24
 4585 1d44 390B      		sbc r19,r25
 4586 1d46 8F81      		ldd r24,Y+7
 4587 1d48 9885      		ldd r25,Y+8
 4588 1d4a 2817      		cp r18,r24
 4589 1d4c 3907      		cpc r19,r25
 4590 1d4e 04F4      		brge .L167
 539:lp_solve_5.5/lp_simplex.c ****       continue;
 540:lp_solve_5.5/lp_simplex.c ****     j = get_artificialRow(lp, j-lp->rows);
 4591               		.loc 2 540 0
 4592 1d50 8985      		ldd r24,Y+9
 4593 1d52 9A85      		ldd r25,Y+10
 4594 1d54 8651      		subi r24,22
 4595 1d56 9E4F      		sbci r25,-2
 4596 1d58 FC01      		movw r30,r24
 4597 1d5a 8081      		ld r24,Z
 4598 1d5c 9181      		ldd r25,Z+1
 4599 1d5e 2F81      		ldd r18,Y+7
 4600 1d60 3885      		ldd r19,Y+8
 4601 1d62 281B      		sub r18,r24
 4602 1d64 390B      		sbc r19,r25
 4603 1d66 8985      		ldd r24,Y+9
 4604 1d68 9A85      		ldd r25,Y+10
 4605 1d6a B901      		movw r22,r18
 4606 1d6c 0E94 0000 		call get_artificialRow
 4607 1d70 9887      		std Y+8,r25
 4608 1d72 8F83      		std Y+7,r24
 541:lp_solve_5.5/lp_simplex.c ****     set_basisvar(lp, i, j);
 4609               		.loc 2 541 0
 4610 1d74 4F81      		ldd r20,Y+7
 4611 1d76 5885      		ldd r21,Y+8
 4612 1d78 2981      		ldd r18,Y+1
 4613 1d7a 3A81      		ldd r19,Y+2
 4614 1d7c 8985      		ldd r24,Y+9
 4615 1d7e 9A85      		ldd r25,Y+10
 4616 1d80 B901      		movw r22,r18
 4617 1d82 0E94 0000 		call set_basisvar
 542:lp_solve_5.5/lp_simplex.c ****     n++;
 4618               		.loc 2 542 0
 4619 1d86 8B81      		ldd r24,Y+3
 4620 1d88 9C81      		ldd r25,Y+4
 4621 1d8a 0196      		adiw r24,1
 4622 1d8c 9C83      		std Y+4,r25
 4623 1d8e 8B83      		std Y+3,r24
 4624 1d90 00C0      		rjmp .L161
 4625               	.L167:
 539:lp_solve_5.5/lp_simplex.c ****       continue;
 4626               		.loc 2 539 0
 4627 1d92 0000      		nop
 4628               	.L161:
 536:lp_solve_5.5/lp_simplex.c ****     j = lp->var_basic[i];
 4629               		.loc 2 536 0 discriminator 2
 4630 1d94 8981      		ldd r24,Y+1
 4631 1d96 9A81      		ldd r25,Y+2
 4632 1d98 0196      		adiw r24,1
 4633 1d9a 9A83      		std Y+2,r25
 4634 1d9c 8983      		std Y+1,r24
 4635               	.L159:
 536:lp_solve_5.5/lp_simplex.c ****     j = lp->var_basic[i];
 4636               		.loc 2 536 0 is_stmt 0 discriminator 1
 4637 1d9e 8985      		ldd r24,Y+9
 4638 1da0 9A85      		ldd r25,Y+10
 4639 1da2 8651      		subi r24,22
 4640 1da4 9E4F      		sbci r25,-2
 4641 1da6 FC01      		movw r30,r24
 4642 1da8 2081      		ld r18,Z
 4643 1daa 3181      		ldd r19,Z+1
 4644 1dac 8981      		ldd r24,Y+1
 4645 1dae 9A81      		ldd r25,Y+2
 4646 1db0 2817      		cp r18,r24
 4647 1db2 3907      		cpc r19,r25
 4648 1db4 04F0      		brlt .L164
 536:lp_solve_5.5/lp_simplex.c ****     j = lp->var_basic[i];
 4649               		.loc 2 536 0 discriminator 3
 4650 1db6 2B81      		ldd r18,Y+3
 4651 1db8 3C81      		ldd r19,Y+4
 4652 1dba 8D81      		ldd r24,Y+5
 4653 1dbc 9E81      		ldd r25,Y+6
 4654 1dbe 2817      		cp r18,r24
 4655 1dc0 3907      		cpc r19,r25
 4656 1dc2 04F4      		brge .+2
 4657 1dc4 00C0      		rjmp .L163
 543:lp_solve_5.5/lp_simplex.c ****   }
 544:lp_solve_5.5/lp_simplex.c **** #ifdef Paranoia
 545:lp_solve_5.5/lp_simplex.c ****   if(n != lp->P1extraDim)
 546:lp_solve_5.5/lp_simplex.c ****     report(lp, SEVERE, "clear_artificials: Unable to clear all basic artificial variables\n");
 547:lp_solve_5.5/lp_simplex.c **** #endif
 548:lp_solve_5.5/lp_simplex.c **** 
 549:lp_solve_5.5/lp_simplex.c ****   /* Delete any remaining non-basic artificial variables */
 550:lp_solve_5.5/lp_simplex.c ****   while(P1extraDim > 0) {
 4658               		.loc 2 550 0 is_stmt 1
 4659 1dc6 00C0      		rjmp .L164
 4660               	.L165:
 551:lp_solve_5.5/lp_simplex.c ****     i = lp->sum-lp->rows;
 4661               		.loc 2 551 0
 4662 1dc8 8985      		ldd r24,Y+9
 4663 1dca 9A85      		ldd r25,Y+10
 4664 1dcc 8851      		subi r24,24
 4665 1dce 9E4F      		sbci r25,-2
 4666 1dd0 FC01      		movw r30,r24
 4667 1dd2 2081      		ld r18,Z
 4668 1dd4 3181      		ldd r19,Z+1
 4669 1dd6 8985      		ldd r24,Y+9
 4670 1dd8 9A85      		ldd r25,Y+10
 4671 1dda 8651      		subi r24,22
 4672 1ddc 9E4F      		sbci r25,-2
 4673 1dde FC01      		movw r30,r24
 4674 1de0 8081      		ld r24,Z
 4675 1de2 9181      		ldd r25,Z+1
 4676 1de4 A901      		movw r20,r18
 4677 1de6 481B      		sub r20,r24
 4678 1de8 590B      		sbc r21,r25
 4679 1dea CA01      		movw r24,r20
 4680 1dec 9A83      		std Y+2,r25
 4681 1dee 8983      		std Y+1,r24
 552:lp_solve_5.5/lp_simplex.c ****     del_column(lp, i);
 4682               		.loc 2 552 0
 4683 1df0 2981      		ldd r18,Y+1
 4684 1df2 3A81      		ldd r19,Y+2
 4685 1df4 8985      		ldd r24,Y+9
 4686 1df6 9A85      		ldd r25,Y+10
 4687 1df8 B901      		movw r22,r18
 4688 1dfa 0E94 0000 		call del_column
 553:lp_solve_5.5/lp_simplex.c ****     P1extraDim--;
 4689               		.loc 2 553 0
 4690 1dfe 8D81      		ldd r24,Y+5
 4691 1e00 9E81      		ldd r25,Y+6
 4692 1e02 0197      		sbiw r24,1
 4693 1e04 9E83      		std Y+6,r25
 4694 1e06 8D83      		std Y+5,r24
 4695               	.L164:
 550:lp_solve_5.5/lp_simplex.c ****     i = lp->sum-lp->rows;
 4696               		.loc 2 550 0
 4697 1e08 8D81      		ldd r24,Y+5
 4698 1e0a 9E81      		ldd r25,Y+6
 4699 1e0c 1816      		cp __zero_reg__,r24
 4700 1e0e 1906      		cpc __zero_reg__,r25
 4701 1e10 04F0      		brlt .L165
 554:lp_solve_5.5/lp_simplex.c ****   }
 555:lp_solve_5.5/lp_simplex.c ****   lp->P1extraDim = 0;
 4702               		.loc 2 555 0
 4703 1e12 8985      		ldd r24,Y+9
 4704 1e14 9A85      		ldd r25,Y+10
 4705 1e16 8051      		subi r24,16
 4706 1e18 9D4F      		sbci r25,-3
 4707 1e1a FC01      		movw r30,r24
 4708 1e1c 1182      		std Z+1,__zero_reg__
 4709 1e1e 1082      		st Z,__zero_reg__
 556:lp_solve_5.5/lp_simplex.c ****   if(n > 0) {
 4710               		.loc 2 556 0
 4711 1e20 8B81      		ldd r24,Y+3
 4712 1e22 9C81      		ldd r25,Y+4
 4713 1e24 1816      		cp __zero_reg__,r24
 4714 1e26 1906      		cpc __zero_reg__,r25
 4715 1e28 04F4      		brge .L168
 557:lp_solve_5.5/lp_simplex.c ****     set_action(&lp->spx_action, ACTION_REINVERT);
 4716               		.loc 2 557 0
 4717 1e2a 8985      		ldd r24,Y+9
 4718 1e2c 9A85      		ldd r25,Y+10
 4719 1e2e 8E50      		subi r24,14
 4720 1e30 9D4F      		sbci r25,-3
 4721 1e32 60E1      		ldi r22,lo8(16)
 4722 1e34 70E0      		ldi r23,0
 4723 1e36 0E94 0000 		call set_action
 558:lp_solve_5.5/lp_simplex.c ****     lp->basis_valid = TRUE;
 4724               		.loc 2 558 0
 4725 1e3a 8985      		ldd r24,Y+9
 4726 1e3c 9A85      		ldd r25,Y+10
 4727 1e3e 8753      		subi r24,55
 4728 1e40 9D4F      		sbci r25,-3
 4729 1e42 21E0      		ldi r18,lo8(1)
 4730 1e44 FC01      		movw r30,r24
 4731 1e46 2083      		st Z,r18
 4732               	.L168:
 559:lp_solve_5.5/lp_simplex.c ****   }
 560:lp_solve_5.5/lp_simplex.c **** }
 4733               		.loc 2 560 0
 4734 1e48 0000      		nop
 4735               	/* epilogue start */
 4736 1e4a 2A96      		adiw r28,10
 4737 1e4c 0FB6      		in __tmp_reg__,__SREG__
 4738 1e4e F894      		cli
 4739 1e50 DEBF      		out __SP_H__,r29
 4740 1e52 0FBE      		out __SREG__,__tmp_reg__
 4741 1e54 CDBF      		out __SP_L__,r28
 4742 1e56 DF91      		pop r29
 4743 1e58 CF91      		pop r28
 4744 1e5a 0895      		ret
 4745               		.cfi_endproc
 4746               	.LFE21:
 4748               		.section	.rodata
 4749               	.LC8:
 4750 016d 4641 4C53 		.string	"FALSE"
 4750      4500 
 4751               	.LC9:
 4752 0173 5452 5545 		.string	"TRUE"
 4752      00
 4753               	.LC10:
 4754 0178 456E 7465 		.string	"Entered primal simplex algorithm with feasibility %s\n"
 4754      7265 6420 
 4754      7072 696D 
 4754      616C 2073 
 4754      696D 706C 
 4755               	.LC11:
 4756 01ae 5031 6578 		.string	"P1extraDim count = %d\n"
 4756      7472 6144 
 4756      696D 2063 
 4756      6F75 6E74 
 4756      203D 2025 
 4757               	.LC12:
 4758 01c5 7072 696D 		.string	"primloop"
 4758      6C6F 6F70 
 4758      00
 4759               	.LC13:
 4760 01ce 5468 6520 		.string	"The model is primal unbounded.\n"
 4760      6D6F 6465 
 4760      6C20 6973 
 4760      2070 7269 
 4760      6D61 6C20 
 4761               	.LC14:
 4762 01ee 456E 7465 		.string	"Entering column %d found to be non-improving due to degeneracy.\n"
 4762      7269 6E67 
 4762      2063 6F6C 
 4762      756D 6E20 
 4762      2564 2066 
 4763               	.LC15:
 4764 022f 4761 7665 		.string	"Gave up trying to find a strictly improving entering column.\n"
 4764      2075 7020 
 4764      7472 7969 
 4764      6E67 2074 
 4764      6F20 6669 
 4765               	.LC16:
 4766 026d 7072 696D 		.string	"primloop: Assuming convergence with reduced accuracy %g.\n"
 4766      6C6F 6F70 
 4766      3A20 4173 
 4766      7375 6D69 
 4766      6E67 2063 
 4767               	.LC17:
 4768 02a7 2E2E 2E74 		.string	"...trying to recover via another pivot column.\n"
 4768      7279 696E 
 4768      6720 746F 
 4768      2072 6563 
 4768      6F76 6572 
 4769               	.LC18:
 4770 02d7 466F 756E 		.string	"Found feasibility by primal simplex after  %10.0f iter.\n"
 4770      6420 6665 
 4770      6173 6962 
 4770      696C 6974 
 4770      7920 6279 
 4771               	.LC19:
 4772 0310 4D6F 6465 		.string	"Model infeasible by primal simplex at iter   %10.0f.\n"
 4772      6C20 696E 
 4772      6665 6173 
 4772      6962 6C65 
 4772      2062 7920 
 4773               	.LC20:
 4774 0346 7072 696D 		.string	"primloop: Lost primal feasibility at iter  %10.0f: will try to recover.\n"
 4774      6C6F 6F70 
 4774      3A20 4C6F 
 4774      7374 2070 
 4774      7269 6D61 
 4775               		.text
 4776               	.global	primloop
 4778               	primloop:
 4779               	.LFB22:
 561:lp_solve_5.5/lp_simplex.c **** 
 562:lp_solve_5.5/lp_simplex.c **** 
 563:lp_solve_5.5/lp_simplex.c **** STATIC int primloop(lprec *lp, MYBOOL primalfeasible, REAL primaloffset)
 564:lp_solve_5.5/lp_simplex.c **** {
 4780               		.loc 2 564 0
 4781               		.cfi_startproc
 4782 1e5c 8F92      		push r8
 4783               	.LCFI82:
 4784               		.cfi_def_cfa_offset 3
 4785               		.cfi_offset 8, -2
 4786 1e5e 9F92      		push r9
 4787               	.LCFI83:
 4788               		.cfi_def_cfa_offset 4
 4789               		.cfi_offset 9, -3
 4790 1e60 AF92      		push r10
 4791               	.LCFI84:
 4792               		.cfi_def_cfa_offset 5
 4793               		.cfi_offset 10, -4
 4794 1e62 BF92      		push r11
 4795               	.LCFI85:
 4796               		.cfi_def_cfa_offset 6
 4797               		.cfi_offset 11, -5
 4798 1e64 CF92      		push r12
 4799               	.LCFI86:
 4800               		.cfi_def_cfa_offset 7
 4801               		.cfi_offset 12, -6
 4802 1e66 DF92      		push r13
 4803               	.LCFI87:
 4804               		.cfi_def_cfa_offset 8
 4805               		.cfi_offset 13, -7
 4806 1e68 EF92      		push r14
 4807               	.LCFI88:
 4808               		.cfi_def_cfa_offset 9
 4809               		.cfi_offset 14, -8
 4810 1e6a FF92      		push r15
 4811               	.LCFI89:
 4812               		.cfi_def_cfa_offset 10
 4813               		.cfi_offset 15, -9
 4814 1e6c 0F93      		push r16
 4815               	.LCFI90:
 4816               		.cfi_def_cfa_offset 11
 4817               		.cfi_offset 16, -10
 4818 1e6e 1F93      		push r17
 4819               	.LCFI91:
 4820               		.cfi_def_cfa_offset 12
 4821               		.cfi_offset 17, -11
 4822 1e70 CF93      		push r28
 4823               	.LCFI92:
 4824               		.cfi_def_cfa_offset 13
 4825               		.cfi_offset 28, -12
 4826 1e72 DF93      		push r29
 4827               	.LCFI93:
 4828               		.cfi_def_cfa_offset 14
 4829               		.cfi_offset 29, -13
 4830 1e74 CDB7      		in r28,__SP_L__
 4831 1e76 DEB7      		in r29,__SP_H__
 4832               	.LCFI94:
 4833               		.cfi_def_cfa_register 28
 4834 1e78 EC97      		sbiw r28,60
 4835               	.LCFI95:
 4836               		.cfi_def_cfa_offset 74
 4837 1e7a 0FB6      		in __tmp_reg__,__SREG__
 4838 1e7c F894      		cli
 4839 1e7e DEBF      		out __SP_H__,r29
 4840 1e80 0FBE      		out __SREG__,__tmp_reg__
 4841 1e82 CDBF      		out __SP_L__,r28
 4842               	/* prologue: function */
 4843               	/* frame size = 60 */
 4844               	/* stack size = 72 */
 4845               	.L__stack_usage = 72
 4846 1e84 9FAB      		std Y+55,r25
 4847 1e86 8EAB      		std Y+54,r24
 4848 1e88 68AF      		std Y+56,r22
 4849 1e8a 29AF      		std Y+57,r18
 4850 1e8c 3AAF      		std Y+58,r19
 4851 1e8e 4BAF      		std Y+59,r20
 4852 1e90 5CAF      		std Y+60,r21
 565:lp_solve_5.5/lp_simplex.c ****   MYBOOL primal = TRUE, bfpfinal = FALSE, changedphase = FALSE, forceoutEQ = AUTOMATIC,
 4853               		.loc 2 565 0
 4854 1e92 81E0      		ldi r24,lo8(1)
 4855 1e94 8D8B      		std Y+21,r24
 4856 1e96 1982      		std Y+1,__zero_reg__
 4857 1e98 1A82      		std Y+2,__zero_reg__
 4858 1e9a 82E0      		ldi r24,lo8(2)
 4859 1e9c 8BA3      		std Y+35,r24
 566:lp_solve_5.5/lp_simplex.c ****          primalphase1, pricerCanChange, minit, stallaccept, pendingunbounded;
 567:lp_solve_5.5/lp_simplex.c ****   int    i, j, k, colnr = 0, rownr = 0, lastnr = 0,
 4860               		.loc 2 567 0
 4861 1e9e 1886      		std Y+8,__zero_reg__
 4862 1ea0 1F82      		std Y+7,__zero_reg__
 4863 1ea2 1A86      		std Y+10,__zero_reg__
 4864 1ea4 1986      		std Y+9,__zero_reg__
 4865 1ea6 1C86      		std Y+12,__zero_reg__
 4866 1ea8 1B86      		std Y+11,__zero_reg__
 568:lp_solve_5.5/lp_simplex.c ****          candidatecount = 0, minitcount = 0, ok = TRUE;
 4867               		.loc 2 568 0
 4868 1eaa 1DA2      		std Y+37,__zero_reg__
 4869 1eac 1CA2      		std Y+36,__zero_reg__
 4870 1eae 1E86      		std Y+14,__zero_reg__
 4871 1eb0 1D86      		std Y+13,__zero_reg__
 4872 1eb2 81E0      		ldi r24,lo8(1)
 4873 1eb4 90E0      		ldi r25,0
 4874 1eb6 988B      		std Y+16,r25
 4875 1eb8 8F87      		std Y+15,r24
 569:lp_solve_5.5/lp_simplex.c ****   LREAL  theta = 0.0;
 4876               		.loc 2 569 0
 4877 1eba 1EA2      		std Y+38,__zero_reg__
 4878 1ebc 1FA2      		std Y+39,__zero_reg__
 4879 1ebe 18A6      		std Y+40,__zero_reg__
 4880 1ec0 19A6      		std Y+41,__zero_reg__
 570:lp_solve_5.5/lp_simplex.c ****   REAL   epsvalue, xviolated = 0.0, cviolated = 0.0,
 4881               		.loc 2 570 0
 4882 1ec2 1AA6      		std Y+42,__zero_reg__
 4883 1ec4 1BA6      		std Y+43,__zero_reg__
 4884 1ec6 1CA6      		std Y+44,__zero_reg__
 4885 1ec8 1DA6      		std Y+45,__zero_reg__
 4886 1eca 1EA6      		std Y+46,__zero_reg__
 4887 1ecc 1FA6      		std Y+47,__zero_reg__
 4888 1ece 18AA      		std Y+48,__zero_reg__
 4889 1ed0 19AA      		std Y+49,__zero_reg__
 571:lp_solve_5.5/lp_simplex.c ****          *prow = NULL, *pcol = NULL,
 4890               		.loc 2 571 0
 4891 1ed2 1BAA      		std Y+51,__zero_reg__
 4892 1ed4 1AAA      		std Y+50,__zero_reg__
 4893 1ed6 1DAA      		std Y+53,__zero_reg__
 4894 1ed8 1CAA      		std Y+52,__zero_reg__
 572:lp_solve_5.5/lp_simplex.c ****          *drow = lp->drow;
 4895               		.loc 2 572 0
 4896 1eda 8EA9      		ldd r24,Y+54
 4897 1edc 9FA9      		ldd r25,Y+55
 4898 1ede 865E      		subi r24,-26
 4899 1ee0 9D4F      		sbci r25,-3
 4900 1ee2 DC01      		movw r26,r24
 4901 1ee4 8D91      		ld r24,X+
 4902 1ee6 9C91      		ld r25,X
 4903 1ee8 9A8B      		std Y+18,r25
 4904 1eea 898B      		std Y+17,r24
 573:lp_solve_5.5/lp_simplex.c ****   int    *workINT = NULL,
 4905               		.loc 2 573 0
 4906 1eec 1F8A      		std Y+23,__zero_reg__
 4907 1eee 1E8A      		std Y+22,__zero_reg__
 574:lp_solve_5.5/lp_simplex.c ****          *nzdrow = lp->nzdrow;
 4908               		.loc 2 574 0
 4909 1ef0 8EA9      		ldd r24,Y+54
 4910 1ef2 9FA9      		ldd r25,Y+55
 4911 1ef4 845E      		subi r24,-28
 4912 1ef6 9D4F      		sbci r25,-3
 4913 1ef8 FC01      		movw r30,r24
 4914 1efa 8081      		ld r24,Z
 4915 1efc 9181      		ldd r25,Z+1
 4916 1efe 9C8B      		std Y+20,r25
 4917 1f00 8B8B      		std Y+19,r24
 575:lp_solve_5.5/lp_simplex.c **** 
 576:lp_solve_5.5/lp_simplex.c ****   if(lp->spx_trace)
 4918               		.loc 2 576 0
 4919 1f02 8EA9      		ldd r24,Y+54
 4920 1f04 9FA9      		ldd r25,Y+55
 4921 1f06 8E5F      		subi r24,-2
 4922 1f08 9D4F      		sbci r25,-3
 4923 1f0a DC01      		movw r26,r24
 4924 1f0c 8C91      		ld r24,X
 4925 1f0e 8823      		tst r24
 4926 1f10 01F0      		breq .L170
 577:lp_solve_5.5/lp_simplex.c ****     report(lp, DETAILED, "Entered primal simplex algorithm with feasibility %s\n",
 4927               		.loc 2 577 0
 4928 1f12 88AD      		ldd r24,Y+56
 4929 1f14 8823      		tst r24
 4930 1f16 01F4      		brne .L171
 4931               		.loc 2 577 0 is_stmt 0 discriminator 1
 4932 1f18 80E0      		ldi r24,lo8(.LC8)
 4933 1f1a 90E0      		ldi r25,hi8(.LC8)
 4934 1f1c 00C0      		rjmp .L172
 4935               	.L171:
 4936               		.loc 2 577 0 discriminator 2
 4937 1f1e 80E0      		ldi r24,lo8(.LC9)
 4938 1f20 90E0      		ldi r25,hi8(.LC9)
 4939               	.L172:
 4940               		.loc 2 577 0 discriminator 4
 4941 1f22 292F      		mov r18,r25
 4942 1f24 2F93      		push r18
 4943 1f26 8F93      		push r24
 4944 1f28 80E0      		ldi r24,lo8(.LC10)
 4945 1f2a 90E0      		ldi r25,hi8(.LC10)
 4946 1f2c 892F      		mov r24,r25
 4947 1f2e 8F93      		push r24
 4948 1f30 80E0      		ldi r24,lo8(.LC10)
 4949 1f32 90E0      		ldi r25,hi8(.LC10)
 4950 1f34 8F93      		push r24
 4951 1f36 1F92      		push __zero_reg__
 4952 1f38 85E0      		ldi r24,lo8(5)
 4953 1f3a 8F93      		push r24
 4954 1f3c 8FA9      		ldd r24,Y+55
 4955 1f3e 8F93      		push r24
 4956 1f40 8EA9      		ldd r24,Y+54
 4957 1f42 8F93      		push r24
 4958 1f44 0E94 0000 		call report
 4959 1f48 EDB7      		in r30,__SP_L__
 4960 1f4a FEB7      		in r31,__SP_H__
 4961 1f4c 3896      		adiw r30,8
 4962 1f4e 0FB6      		in __tmp_reg__,__SREG__
 4963 1f50 F894      		cli
 4964 1f52 DEBF      		out __SP_H__,r29
 4965 1f54 0FBE      		out __SREG__,__tmp_reg__
 4966 1f56 CDBF      		out __SP_L__,r28
 4967               	.L170:
 578:lp_solve_5.5/lp_simplex.c ****                          my_boolstr(primalfeasible));
 579:lp_solve_5.5/lp_simplex.c **** 
 580:lp_solve_5.5/lp_simplex.c ****  /* Add sufficent number of artificial variables to make the problem feasible
 581:lp_solve_5.5/lp_simplex.c ****     through the first phase; delete when primal feasibility has been achieved */
 582:lp_solve_5.5/lp_simplex.c ****   lp->P1extraDim = 0;
 4968               		.loc 2 582 0 is_stmt 1
 4969 1f58 8EA9      		ldd r24,Y+54
 4970 1f5a 9FA9      		ldd r25,Y+55
 4971 1f5c 8051      		subi r24,16
 4972 1f5e 9D4F      		sbci r25,-3
 4973 1f60 DC01      		movw r26,r24
 4974 1f62 1D92      		st X+,__zero_reg__
 4975 1f64 1C92      		st X,__zero_reg__
 583:lp_solve_5.5/lp_simplex.c ****   if(!primalfeasible) {
 4976               		.loc 2 583 0
 4977 1f66 88AD      		ldd r24,Y+56
 4978 1f68 8823      		tst r24
 4979 1f6a 01F0      		breq .+2
 4980 1f6c 00C0      		rjmp .L173
 584:lp_solve_5.5/lp_simplex.c ****     lp->simplex_mode = SIMPLEX_Phase1_PRIMAL;
 4981               		.loc 2 584 0
 4982 1f6e 8EA9      		ldd r24,Y+54
 4983 1f70 9FA9      		ldd r25,Y+55
 4984 1f72 8A5A      		subi r24,-86
 4985 1f74 9D4F      		sbci r25,-3
 4986 1f76 21E0      		ldi r18,lo8(1)
 4987 1f78 30E0      		ldi r19,0
 4988 1f7a FC01      		movw r30,r24
 4989 1f7c 3183      		std Z+1,r19
 4990 1f7e 2083      		st Z,r18
 585:lp_solve_5.5/lp_simplex.c **** #ifdef Paranoia
 586:lp_solve_5.5/lp_simplex.c ****     if(!verify_basis(lp))
 587:lp_solve_5.5/lp_simplex.c ****       report(lp, SEVERE, "primloop: No valid basis for artificial variables\n");
 588:lp_solve_5.5/lp_simplex.c **** #endif
 589:lp_solve_5.5/lp_simplex.c **** #if 0
 590:lp_solve_5.5/lp_simplex.c ****     /* First check if we can get away with a single artificial variable */
 591:lp_solve_5.5/lp_simplex.c ****     if(lp->equalities == 0) {
 592:lp_solve_5.5/lp_simplex.c ****       i = (int) feasibilityOffset(lp, !primal);
 593:lp_solve_5.5/lp_simplex.c ****       add_artificial(lp, i, prow, (int *) pcol);
 594:lp_solve_5.5/lp_simplex.c ****     }
 595:lp_solve_5.5/lp_simplex.c ****     else
 596:lp_solve_5.5/lp_simplex.c **** #endif
 597:lp_solve_5.5/lp_simplex.c ****     /* Otherwise add as many artificial variables as is necessary
 598:lp_solve_5.5/lp_simplex.c ****        to force primal feasibility. */
 599:lp_solve_5.5/lp_simplex.c ****       for(i = 1; i <= lp->rows; i++) {
 4991               		.loc 2 599 0
 4992 1f80 81E0      		ldi r24,lo8(1)
 4993 1f82 90E0      		ldi r25,0
 4994 1f84 9E83      		std Y+6,r25
 4995 1f86 8D83      		std Y+5,r24
 4996 1f88 00C0      		rjmp .L174
 4997               	.L175:
 600:lp_solve_5.5/lp_simplex.c ****         add_artificial(lp, i, NULL, NULL);
 4998               		.loc 2 600 0 discriminator 3
 4999 1f8a 6D81      		ldd r22,Y+5
 5000 1f8c 7E81      		ldd r23,Y+6
 5001 1f8e 8EA9      		ldd r24,Y+54
 5002 1f90 9FA9      		ldd r25,Y+55
 5003 1f92 20E0      		ldi r18,0
 5004 1f94 30E0      		ldi r19,0
 5005 1f96 40E0      		ldi r20,0
 5006 1f98 50E0      		ldi r21,0
 5007 1f9a 0E94 0000 		call add_artificial
 599:lp_solve_5.5/lp_simplex.c ****         add_artificial(lp, i, NULL, NULL);
 5008               		.loc 2 599 0 discriminator 3
 5009 1f9e 8D81      		ldd r24,Y+5
 5010 1fa0 9E81      		ldd r25,Y+6
 5011 1fa2 0196      		adiw r24,1
 5012 1fa4 9E83      		std Y+6,r25
 5013 1fa6 8D83      		std Y+5,r24
 5014               	.L174:
 599:lp_solve_5.5/lp_simplex.c ****         add_artificial(lp, i, NULL, NULL);
 5015               		.loc 2 599 0 is_stmt 0 discriminator 1
 5016 1fa8 8EA9      		ldd r24,Y+54
 5017 1faa 9FA9      		ldd r25,Y+55
 5018 1fac 8651      		subi r24,22
 5019 1fae 9E4F      		sbci r25,-2
 5020 1fb0 DC01      		movw r26,r24
 5021 1fb2 2D91      		ld r18,X+
 5022 1fb4 3C91      		ld r19,X
 5023 1fb6 8D81      		ldd r24,Y+5
 5024 1fb8 9E81      		ldd r25,Y+6
 5025 1fba 2817      		cp r18,r24
 5026 1fbc 3907      		cpc r19,r25
 5027 1fbe 04F4      		brge .L175
 601:lp_solve_5.5/lp_simplex.c ****       }
 602:lp_solve_5.5/lp_simplex.c **** 
 603:lp_solve_5.5/lp_simplex.c ****     /* Make sure we update the working objective */
 604:lp_solve_5.5/lp_simplex.c ****     if(lp->P1extraDim > 0) {
 5028               		.loc 2 604 0 is_stmt 1
 5029 1fc0 8EA9      		ldd r24,Y+54
 5030 1fc2 9FA9      		ldd r25,Y+55
 5031 1fc4 8051      		subi r24,16
 5032 1fc6 9D4F      		sbci r25,-3
 5033 1fc8 FC01      		movw r30,r24
 5034 1fca 8081      		ld r24,Z
 5035 1fcc 9181      		ldd r25,Z+1
 5036 1fce 1816      		cp __zero_reg__,r24
 5037 1fd0 1906      		cpc __zero_reg__,r25
 5038 1fd2 04F0      		brlt .+2
 5039 1fd4 00C0      		rjmp .L176
 605:lp_solve_5.5/lp_simplex.c **** #if 1 /* v5.1 code: Not really necessary since we do not price the artificial
 606:lp_solve_5.5/lp_simplex.c ****         variables (stored at the end of the column list, they are initially
 607:lp_solve_5.5/lp_simplex.c ****         basic and are never allowed to enter the basis, once they exit) */
 608:lp_solve_5.5/lp_simplex.c ****       ok = allocREAL(lp, &(lp->drow), lp->sum+1, AUTOMATIC) &&
 5040               		.loc 2 608 0
 5041 1fd6 8EA9      		ldd r24,Y+54
 5042 1fd8 9FA9      		ldd r25,Y+55
 5043 1fda 8851      		subi r24,24
 5044 1fdc 9E4F      		sbci r25,-2
 5045 1fde DC01      		movw r26,r24
 5046 1fe0 8D91      		ld r24,X+
 5047 1fe2 9C91      		ld r25,X
 5048 1fe4 AC01      		movw r20,r24
 5049 1fe6 4F5F      		subi r20,-1
 5050 1fe8 5F4F      		sbci r21,-1
 5051 1fea 8EA9      		ldd r24,Y+54
 5052 1fec 9FA9      		ldd r25,Y+55
 5053 1fee BC01      		movw r22,r24
 5054 1ff0 665E      		subi r22,-26
 5055 1ff2 7D4F      		sbci r23,-3
 5056 1ff4 8EA9      		ldd r24,Y+54
 5057 1ff6 9FA9      		ldd r25,Y+55
 5058 1ff8 22E0      		ldi r18,lo8(2)
 5059 1ffa 0E94 0000 		call allocREAL
 5060 1ffe 8823      		tst r24
 5061 2000 01F0      		breq .L177
 609:lp_solve_5.5/lp_simplex.c ****            allocINT(lp, &(lp->nzdrow), lp->sum+1, AUTOMATIC);
 5062               		.loc 2 609 0 discriminator 1
 5063 2002 8EA9      		ldd r24,Y+54
 5064 2004 9FA9      		ldd r25,Y+55
 5065 2006 8851      		subi r24,24
 5066 2008 9E4F      		sbci r25,-2
 5067 200a FC01      		movw r30,r24
 5068 200c 8081      		ld r24,Z
 5069 200e 9181      		ldd r25,Z+1
 5070 2010 AC01      		movw r20,r24
 5071 2012 4F5F      		subi r20,-1
 5072 2014 5F4F      		sbci r21,-1
 5073 2016 8EA9      		ldd r24,Y+54
 5074 2018 9FA9      		ldd r25,Y+55
 5075 201a BC01      		movw r22,r24
 5076 201c 645E      		subi r22,-28
 5077 201e 7D4F      		sbci r23,-3
 5078 2020 8EA9      		ldd r24,Y+54
 5079 2022 9FA9      		ldd r25,Y+55
 5080 2024 22E0      		ldi r18,lo8(2)
 5081 2026 0E94 0000 		call allocINT
 608:lp_solve_5.5/lp_simplex.c ****            allocINT(lp, &(lp->nzdrow), lp->sum+1, AUTOMATIC);
 5082               		.loc 2 608 0 discriminator 1
 5083 202a 8823      		tst r24
 5084 202c 01F0      		breq .L177
 608:lp_solve_5.5/lp_simplex.c ****            allocINT(lp, &(lp->nzdrow), lp->sum+1, AUTOMATIC);
 5085               		.loc 2 608 0 is_stmt 0 discriminator 3
 5086 202e 81E0      		ldi r24,lo8(1)
 5087 2030 90E0      		ldi r25,0
 5088 2032 00C0      		rjmp .L178
 5089               	.L177:
 608:lp_solve_5.5/lp_simplex.c ****            allocINT(lp, &(lp->nzdrow), lp->sum+1, AUTOMATIC);
 5090               		.loc 2 608 0 discriminator 4
 5091 2034 80E0      		ldi r24,0
 5092 2036 90E0      		ldi r25,0
 5093               	.L178:
 608:lp_solve_5.5/lp_simplex.c ****            allocINT(lp, &(lp->nzdrow), lp->sum+1, AUTOMATIC);
 5094               		.loc 2 608 0 discriminator 6
 5095 2038 988B      		std Y+16,r25
 5096 203a 8F87      		std Y+15,r24
 610:lp_solve_5.5/lp_simplex.c ****       if(!ok)
 5097               		.loc 2 610 0 is_stmt 1 discriminator 6
 5098 203c 8F85      		ldd r24,Y+15
 5099 203e 9889      		ldd r25,Y+16
 5100 2040 892B      		or r24,r25
 5101 2042 01F4      		brne .+4
 5102 2044 0C94 0000 		jmp .L265
 611:lp_solve_5.5/lp_simplex.c ****         goto Finish;
 612:lp_solve_5.5/lp_simplex.c ****       lp->nzdrow[0] = 0;
 5103               		.loc 2 612 0
 5104 2048 8EA9      		ldd r24,Y+54
 5105 204a 9FA9      		ldd r25,Y+55
 5106 204c 845E      		subi r24,-28
 5107 204e 9D4F      		sbci r25,-3
 5108 2050 DC01      		movw r26,r24
 5109 2052 8D91      		ld r24,X+
 5110 2054 9C91      		ld r25,X
 5111 2056 FC01      		movw r30,r24
 5112 2058 1182      		std Z+1,__zero_reg__
 5113 205a 1082      		st Z,__zero_reg__
 613:lp_solve_5.5/lp_simplex.c ****       drow = lp->drow;
 5114               		.loc 2 613 0
 5115 205c 8EA9      		ldd r24,Y+54
 5116 205e 9FA9      		ldd r25,Y+55
 5117 2060 865E      		subi r24,-26
 5118 2062 9D4F      		sbci r25,-3
 5119 2064 DC01      		movw r26,r24
 5120 2066 8D91      		ld r24,X+
 5121 2068 9C91      		ld r25,X
 5122 206a 9A8B      		std Y+18,r25
 5123 206c 898B      		std Y+17,r24
 614:lp_solve_5.5/lp_simplex.c ****       nzdrow = lp->nzdrow;
 5124               		.loc 2 614 0
 5125 206e 8EA9      		ldd r24,Y+54
 5126 2070 9FA9      		ldd r25,Y+55
 5127 2072 845E      		subi r24,-28
 5128 2074 9D4F      		sbci r25,-3
 5129 2076 FC01      		movw r30,r24
 5130 2078 8081      		ld r24,Z
 5131 207a 9181      		ldd r25,Z+1
 5132 207c 9C8B      		std Y+20,r25
 5133 207e 8B8B      		std Y+19,r24
 615:lp_solve_5.5/lp_simplex.c **** #endif
 616:lp_solve_5.5/lp_simplex.c ****       mat_validate(lp->matA);
 5134               		.loc 2 616 0
 5135 2080 8EA9      		ldd r24,Y+54
 5136 2082 9FA9      		ldd r25,Y+55
 5137 2084 8A54      		subi r24,74
 5138 2086 9D4F      		sbci r25,-3
 5139 2088 DC01      		movw r26,r24
 5140 208a 8D91      		ld r24,X+
 5141 208c 9C91      		ld r25,X
 5142 208e 0E94 0000 		call mat_validate
 617:lp_solve_5.5/lp_simplex.c ****       set_OF_p1extra(lp, 0.0);
 5143               		.loc 2 617 0
 5144 2092 8EA9      		ldd r24,Y+54
 5145 2094 9FA9      		ldd r25,Y+55
 5146 2096 40E0      		ldi r20,0
 5147 2098 50E0      		ldi r21,0
 5148 209a BA01      		movw r22,r20
 5149 209c 0E94 0000 		call set_OF_p1extra
 5150               	.L176:
 618:lp_solve_5.5/lp_simplex.c ****     }
 619:lp_solve_5.5/lp_simplex.c ****     if(lp->spx_trace)
 5151               		.loc 2 619 0
 5152 20a0 8EA9      		ldd r24,Y+54
 5153 20a2 9FA9      		ldd r25,Y+55
 5154 20a4 8E5F      		subi r24,-2
 5155 20a6 9D4F      		sbci r25,-3
 5156 20a8 FC01      		movw r30,r24
 5157 20aa 8081      		ld r24,Z
 5158 20ac 8823      		tst r24
 5159 20ae 01F0      		breq .L181
 620:lp_solve_5.5/lp_simplex.c ****       report(lp, DETAILED, "P1extraDim count = %d\n", lp->P1extraDim);
 5160               		.loc 2 620 0
 5161 20b0 8EA9      		ldd r24,Y+54
 5162 20b2 9FA9      		ldd r25,Y+55
 5163 20b4 8051      		subi r24,16
 5164 20b6 9D4F      		sbci r25,-3
 5165 20b8 DC01      		movw r26,r24
 5166 20ba 8D91      		ld r24,X+
 5167 20bc 9C91      		ld r25,X
 5168 20be 292F      		mov r18,r25
 5169 20c0 2F93      		push r18
 5170 20c2 8F93      		push r24
 5171 20c4 80E0      		ldi r24,lo8(.LC11)
 5172 20c6 90E0      		ldi r25,hi8(.LC11)
 5173 20c8 892F      		mov r24,r25
 5174 20ca 8F93      		push r24
 5175 20cc 80E0      		ldi r24,lo8(.LC11)
 5176 20ce 90E0      		ldi r25,hi8(.LC11)
 5177 20d0 8F93      		push r24
 5178 20d2 1F92      		push __zero_reg__
 5179 20d4 85E0      		ldi r24,lo8(5)
 5180 20d6 8F93      		push r24
 5181 20d8 8FA9      		ldd r24,Y+55
 5182 20da 8F93      		push r24
 5183 20dc 8EA9      		ldd r24,Y+54
 5184 20de 8F93      		push r24
 5185 20e0 0E94 0000 		call report
 5186 20e4 EDB7      		in r30,__SP_L__
 5187 20e6 FEB7      		in r31,__SP_H__
 5188 20e8 3896      		adiw r30,8
 5189 20ea 0FB6      		in __tmp_reg__,__SREG__
 5190 20ec F894      		cli
 5191 20ee DEBF      		out __SP_H__,r29
 5192 20f0 0FBE      		out __SREG__,__tmp_reg__
 5193 20f2 CDBF      		out __SP_L__,r28
 5194               	.L181:
 621:lp_solve_5.5/lp_simplex.c **** 
 622:lp_solve_5.5/lp_simplex.c ****     simplexPricer(lp, (MYBOOL)!primal);
 5195               		.loc 2 622 0
 5196 20f4 81E0      		ldi r24,lo8(1)
 5197 20f6 9D89      		ldd r25,Y+21
 5198 20f8 9923      		tst r25
 5199 20fa 01F0      		breq .L182
 5200 20fc 80E0      		ldi r24,0
 5201               	.L182:
 5202 20fe 282F      		mov r18,r24
 5203 2100 8EA9      		ldd r24,Y+54
 5204 2102 9FA9      		ldd r25,Y+55
 5205 2104 622F      		mov r22,r18
 5206 2106 0E94 0000 		call simplexPricer
 623:lp_solve_5.5/lp_simplex.c ****     invert(lp, INITSOL_USEZERO, TRUE);
 5207               		.loc 2 623 0
 5208 210a 8EA9      		ldd r24,Y+54
 5209 210c 9FA9      		ldd r25,Y+55
 5210 210e 41E0      		ldi r20,lo8(1)
 5211 2110 61E0      		ldi r22,lo8(1)
 5212 2112 0E94 0000 		call invert
 5213 2116 00C0      		rjmp .L183
 5214               	.L173:
 624:lp_solve_5.5/lp_simplex.c ****   }
 625:lp_solve_5.5/lp_simplex.c ****   else {
 626:lp_solve_5.5/lp_simplex.c ****     lp->simplex_mode = SIMPLEX_Phase2_PRIMAL;
 5215               		.loc 2 626 0
 5216 2118 8EA9      		ldd r24,Y+54
 5217 211a 9FA9      		ldd r25,Y+55
 5218 211c 8A5A      		subi r24,-86
 5219 211e 9D4F      		sbci r25,-3
 5220 2120 24E0      		ldi r18,lo8(4)
 5221 2122 30E0      		ldi r19,0
 5222 2124 DC01      		movw r26,r24
 5223 2126 2D93      		st X+,r18
 5224 2128 3C93      		st X,r19
 627:lp_solve_5.5/lp_simplex.c ****     restartPricer(lp, (MYBOOL)!primal);
 5225               		.loc 2 627 0
 5226 212a 81E0      		ldi r24,lo8(1)
 5227 212c 9D89      		ldd r25,Y+21
 5228 212e 9923      		tst r25
 5229 2130 01F0      		breq .L184
 5230 2132 80E0      		ldi r24,0
 5231               	.L184:
 5232 2134 282F      		mov r18,r24
 5233 2136 8EA9      		ldd r24,Y+54
 5234 2138 9FA9      		ldd r25,Y+55
 5235 213a 622F      		mov r22,r18
 5236 213c 0E94 0000 		call restartPricer
 5237               	.L183:
 628:lp_solve_5.5/lp_simplex.c ****   }
 629:lp_solve_5.5/lp_simplex.c **** 
 630:lp_solve_5.5/lp_simplex.c ****   /* Create work arrays and optionally the multiple pricing structure */
 631:lp_solve_5.5/lp_simplex.c ****   ok = allocREAL(lp, &(lp->bsolveVal), lp->rows + 1, FALSE) &&
 5238               		.loc 2 631 0
 5239 2140 8EA9      		ldd r24,Y+54
 5240 2142 9FA9      		ldd r25,Y+55
 5241 2144 8651      		subi r24,22
 5242 2146 9E4F      		sbci r25,-2
 5243 2148 FC01      		movw r30,r24
 5244 214a 8081      		ld r24,Z
 5245 214c 9181      		ldd r25,Z+1
 5246 214e AC01      		movw r20,r24
 5247 2150 4F5F      		subi r20,-1
 5248 2152 5F4F      		sbci r21,-1
 5249 2154 8EA9      		ldd r24,Y+54
 5250 2156 9FA9      		ldd r25,Y+55
 5251 2158 BC01      		movw r22,r24
 5252 215a 6E55      		subi r22,94
 5253 215c 7D4F      		sbci r23,-3
 5254 215e 8EA9      		ldd r24,Y+54
 5255 2160 9FA9      		ldd r25,Y+55
 5256 2162 20E0      		ldi r18,0
 5257 2164 0E94 0000 		call allocREAL
 632:lp_solve_5.5/lp_simplex.c ****        allocREAL(lp, &prow, lp->sum + 1, TRUE) &&
 5258               		.loc 2 632 0
 5259 2168 8823      		tst r24
 5260 216a 01F0      		breq .L185
 5261               		.loc 2 632 0 is_stmt 0 discriminator 1
 5262 216c 8EA9      		ldd r24,Y+54
 5263 216e 9FA9      		ldd r25,Y+55
 5264 2170 8851      		subi r24,24
 5265 2172 9E4F      		sbci r25,-2
 5266 2174 DC01      		movw r26,r24
 5267 2176 8D91      		ld r24,X+
 5268 2178 9C91      		ld r25,X
 5269 217a AC01      		movw r20,r24
 5270 217c 4F5F      		subi r20,-1
 5271 217e 5F4F      		sbci r21,-1
 5272 2180 BE01      		movw r22,r28
 5273 2182 6E5C      		subi r22,-50
 5274 2184 7F4F      		sbci r23,-1
 5275 2186 8EA9      		ldd r24,Y+54
 5276 2188 9FA9      		ldd r25,Y+55
 5277 218a 21E0      		ldi r18,lo8(1)
 5278 218c 0E94 0000 		call allocREAL
 631:lp_solve_5.5/lp_simplex.c ****        allocREAL(lp, &prow, lp->sum + 1, TRUE) &&
 5279               		.loc 2 631 0 is_stmt 1 discriminator 1
 5280 2190 8823      		tst r24
 5281 2192 01F0      		breq .L185
 633:lp_solve_5.5/lp_simplex.c ****        allocREAL(lp, &pcol, lp->rows + 1, TRUE);
 5282               		.loc 2 633 0 discriminator 4
 5283 2194 8EA9      		ldd r24,Y+54
 5284 2196 9FA9      		ldd r25,Y+55
 5285 2198 8651      		subi r24,22
 5286 219a 9E4F      		sbci r25,-2
 5287 219c FC01      		movw r30,r24
 5288 219e 8081      		ld r24,Z
 5289 21a0 9181      		ldd r25,Z+1
 5290 21a2 AC01      		movw r20,r24
 5291 21a4 4F5F      		subi r20,-1
 5292 21a6 5F4F      		sbci r21,-1
 5293 21a8 BE01      		movw r22,r28
 5294 21aa 6C5C      		subi r22,-52
 5295 21ac 7F4F      		sbci r23,-1
 5296 21ae 8EA9      		ldd r24,Y+54
 5297 21b0 9FA9      		ldd r25,Y+55
 5298 21b2 21E0      		ldi r18,lo8(1)
 5299 21b4 0E94 0000 		call allocREAL
 632:lp_solve_5.5/lp_simplex.c ****        allocREAL(lp, &prow, lp->sum + 1, TRUE) &&
 5300               		.loc 2 632 0 discriminator 4
 5301 21b8 8823      		tst r24
 5302 21ba 01F0      		breq .L185
 632:lp_solve_5.5/lp_simplex.c ****        allocREAL(lp, &prow, lp->sum + 1, TRUE) &&
 5303               		.loc 2 632 0 is_stmt 0 discriminator 3
 5304 21bc 81E0      		ldi r24,lo8(1)
 5305 21be 90E0      		ldi r25,0
 5306 21c0 00C0      		rjmp .L186
 5307               	.L185:
 632:lp_solve_5.5/lp_simplex.c ****        allocREAL(lp, &prow, lp->sum + 1, TRUE) &&
 5308               		.loc 2 632 0 discriminator 2
 5309 21c2 80E0      		ldi r24,0
 5310 21c4 90E0      		ldi r25,0
 5311               	.L186:
 631:lp_solve_5.5/lp_simplex.c ****        allocREAL(lp, &prow, lp->sum + 1, TRUE) &&
 5312               		.loc 2 631 0 is_stmt 1
 5313 21c6 988B      		std Y+16,r25
 5314 21c8 8F87      		std Y+15,r24
 634:lp_solve_5.5/lp_simplex.c ****   if(is_piv_mode(lp, PRICE_MULTIPLE) && (lp->multiblockdiv > 1)) {
 5315               		.loc 2 634 0
 5316 21ca 8EA9      		ldd r24,Y+54
 5317 21cc 9FA9      		ldd r25,Y+55
 5318 21ce 68E0      		ldi r22,lo8(8)
 5319 21d0 70E0      		ldi r23,0
 5320 21d2 0E94 0000 		call is_piv_mode
 5321 21d6 8823      		tst r24
 5322 21d8 01F4      		brne .+2
 5323 21da 00C0      		rjmp .L187
 5324               		.loc 2 634 0 is_stmt 0 discriminator 1
 5325 21dc 8EA9      		ldd r24,Y+54
 5326 21de 9FA9      		ldd r25,Y+55
 5327 21e0 8657      		subi r24,118
 5328 21e2 9D4F      		sbci r25,-3
 5329 21e4 DC01      		movw r26,r24
 5330 21e6 8D91      		ld r24,X+
 5331 21e8 9C91      		ld r25,X
 5332 21ea 0297      		sbiw r24,2
 5333 21ec 04F4      		brge .+2
 5334 21ee 00C0      		rjmp .L187
 635:lp_solve_5.5/lp_simplex.c ****     lp->multivars = multi_create(lp, FALSE);
 5335               		.loc 2 635 0 is_stmt 1
 5336 21f0 8EA9      		ldd r24,Y+54
 5337 21f2 9FA9      		ldd r25,Y+55
 5338 21f4 60E0      		ldi r22,0
 5339 21f6 0E94 0000 		call multi_create
 5340 21fa 9C01      		movw r18,r24
 5341 21fc 8EA9      		ldd r24,Y+54
 5342 21fe 9FA9      		ldd r25,Y+55
 5343 2200 8857      		subi r24,120
 5344 2202 9D4F      		sbci r25,-3
 5345 2204 FC01      		movw r30,r24
 5346 2206 3183      		std Z+1,r19
 5347 2208 2083      		st Z,r18
 636:lp_solve_5.5/lp_simplex.c ****     ok &= (lp->multivars != NULL) &&
 5348               		.loc 2 636 0
 5349 220a 8EA9      		ldd r24,Y+54
 5350 220c 9FA9      		ldd r25,Y+55
 5351 220e 8857      		subi r24,120
 5352 2210 9D4F      		sbci r25,-3
 5353 2212 DC01      		movw r26,r24
 5354 2214 8D91      		ld r24,X+
 5355 2216 9C91      		ld r25,X
 5356 2218 892B      		or r24,r25
 5357 221a 01F0      		breq .L188
 637:lp_solve_5.5/lp_simplex.c ****           multi_resize(lp->multivars, lp->sum / lp->multiblockdiv, 2, FALSE, TRUE);
 5358               		.loc 2 637 0 discriminator 1
 5359 221c 8EA9      		ldd r24,Y+54
 5360 221e 9FA9      		ldd r25,Y+55
 5361 2220 8851      		subi r24,24
 5362 2222 9E4F      		sbci r25,-2
 5363 2224 FC01      		movw r30,r24
 5364 2226 4081      		ld r20,Z
 5365 2228 5181      		ldd r21,Z+1
 5366 222a 8EA9      		ldd r24,Y+54
 5367 222c 9FA9      		ldd r25,Y+55
 5368 222e 8657      		subi r24,118
 5369 2230 9D4F      		sbci r25,-3
 5370 2232 DC01      		movw r26,r24
 5371 2234 2D91      		ld r18,X+
 5372 2236 3C91      		ld r19,X
 5373 2238 CA01      		movw r24,r20
 5374 223a B901      		movw r22,r18
 5375 223c 0E94 0000 		call __divmodhi4
 5376 2240 CB01      		movw r24,r22
 5377 2242 BC01      		movw r22,r24
 5378 2244 8EA9      		ldd r24,Y+54
 5379 2246 9FA9      		ldd r25,Y+55
 5380 2248 8857      		subi r24,120
 5381 224a 9D4F      		sbci r25,-3
 5382 224c FC01      		movw r30,r24
 5383 224e 8081      		ld r24,Z
 5384 2250 9181      		ldd r25,Z+1
 5385 2252 01E0      		ldi r16,lo8(1)
 5386 2254 20E0      		ldi r18,0
 5387 2256 42E0      		ldi r20,lo8(2)
 5388 2258 50E0      		ldi r21,0
 5389 225a 0E94 0000 		call multi_resize
 636:lp_solve_5.5/lp_simplex.c ****     ok &= (lp->multivars != NULL) &&
 5390               		.loc 2 636 0 discriminator 1
 5391 225e 8823      		tst r24
 5392 2260 01F0      		breq .L188
 636:lp_solve_5.5/lp_simplex.c ****     ok &= (lp->multivars != NULL) &&
 5393               		.loc 2 636 0 is_stmt 0 discriminator 3
