   1              	 .cpu cortex-m4
   2              	 .eabi_attribute 20,1
   3              	 .eabi_attribute 21,1
   4              	 .eabi_attribute 23,3
   5              	 .eabi_attribute 24,1
   6              	 .eabi_attribute 25,1
   7              	 .eabi_attribute 26,1
   8              	 .eabi_attribute 30,6
   9              	 .eabi_attribute 34,1
  10              	 .eabi_attribute 18,4
  11              	 .file "startup_sam4l.c"
  12              	 .text
  13              	.Ltext0:
  14              	 .cfi_sections .debug_frame
  15              	 .global exception_table
  16              	 .section .vectors,"aw",%progbits
  17              	 .align 2
  20              	exception_table:
  21 0000 00000000 	 .word _estack
  22 0004 00000000 	 .word Reset_Handler
  23 0008 00000000 	 .word NMI_Handler
  24 000c 00000000 	 .word HardFault_Handler
  25 0010 00000000 	 .word MemManage_Handler
  26 0014 00000000 	 .word BusFault_Handler
  27 0018 00000000 	 .word UsageFault_Handler
  28 001c 00000000 	 .word 0
  29 0020 00000000 	 .word 0
  30 0024 00000000 	 .word 0
  31 0028 00000000 	 .word 0
  32 002c 00000000 	 .word SVC_Handler
  33 0030 00000000 	 .word DebugMon_Handler
  34 0034 00000000 	 .word 0
  35 0038 00000000 	 .word PendSV_Handler
  36 003c 00000000 	 .word SysTick_Handler
  37 0040 00000000 	 .word HFLASHC_Handler
  38 0044 00000000 	 .word PDCA_0_Handler
  39 0048 00000000 	 .word PDCA_1_Handler
  40 004c 00000000 	 .word PDCA_2_Handler
  41 0050 00000000 	 .word PDCA_3_Handler
  42 0054 00000000 	 .word PDCA_4_Handler
  43 0058 00000000 	 .word PDCA_5_Handler
  44 005c 00000000 	 .word PDCA_6_Handler
  45 0060 00000000 	 .word PDCA_7_Handler
  46 0064 00000000 	 .word PDCA_8_Handler
  47 0068 00000000 	 .word PDCA_9_Handler
  48 006c 00000000 	 .word PDCA_10_Handler
  49 0070 00000000 	 .word PDCA_11_Handler
  50 0074 00000000 	 .word PDCA_12_Handler
  51 0078 00000000 	 .word PDCA_13_Handler
  52 007c 00000000 	 .word PDCA_14_Handler
  53 0080 00000000 	 .word PDCA_15_Handler
  54 0084 00000000 	 .word CRCCU_Handler
  55 0088 00000000 	 .word USBC_Handler
  56 008c 00000000 	 .word PEVC_TR_Handler
  57 0090 00000000 	 .word PEVC_OV_Handler
  58 0094 00000000 	 .word AESA_Handler
  59 0098 00000000 	 .word PM_Handler
  60 009c 00000000 	 .word SCIF_Handler
  61 00a0 00000000 	 .word FREQM_Handler
  62 00a4 00000000 	 .word GPIO_0_Handler
  63 00a8 00000000 	 .word GPIO_1_Handler
  64 00ac 00000000 	 .word GPIO_2_Handler
  65 00b0 00000000 	 .word GPIO_3_Handler
  66 00b4 00000000 	 .word GPIO_4_Handler
  67 00b8 00000000 	 .word GPIO_5_Handler
  68 00bc 00000000 	 .word GPIO_6_Handler
  69 00c0 00000000 	 .word GPIO_7_Handler
  70 00c4 00000000 	 .word GPIO_8_Handler
  71 00c8 00000000 	 .word GPIO_9_Handler
  72 00cc 00000000 	 .word GPIO_10_Handler
  73 00d0 00000000 	 .word GPIO_11_Handler
  74 00d4 00000000 	 .word BPM_Handler
  75 00d8 00000000 	 .word BSCIF_Handler
  76 00dc 00000000 	 .word AST_ALARM_Handler
  77 00e0 00000000 	 .word AST_PER_Handler
  78 00e4 00000000 	 .word AST_OVF_Handler
  79 00e8 00000000 	 .word AST_READY_Handler
  80 00ec 00000000 	 .word AST_CLKREADY_Handler
  81 00f0 00000000 	 .word WDT_Handler
  82 00f4 00000000 	 .word EIC_1_Handler
  83 00f8 00000000 	 .word EIC_2_Handler
  84 00fc 00000000 	 .word EIC_3_Handler
  85 0100 00000000 	 .word EIC_4_Handler
  86 0104 00000000 	 .word EIC_5_Handler
  87 0108 00000000 	 .word EIC_6_Handler
  88 010c 00000000 	 .word EIC_7_Handler
  89 0110 00000000 	 .word EIC_8_Handler
  90 0114 00000000 	 .word IISC_Handler
  91 0118 00000000 	 .word SPI_Handler
  92 011c 00000000 	 .word TC00_Handler
  93 0120 00000000 	 .word TC01_Handler
  94 0124 00000000 	 .word TC02_Handler
  95 0128 00000000 	 .word TC10_Handler
  96 012c 00000000 	 .word TC11_Handler
  97 0130 00000000 	 .word TC12_Handler
  98 0134 00000000 	 .word TWIM0_Handler
  99 0138 00000000 	 .word TWIS0_Handler
 100 013c 00000000 	 .word TWIM1_Handler
 101 0140 00000000 	 .word TWIS1_Handler
 102 0144 00000000 	 .word USART0_Handler
 103 0148 00000000 	 .word USART1_Handler
 104 014c 00000000 	 .word USART2_Handler
 105 0150 00000000 	 .word USART3_Handler
 106 0154 00000000 	 .word ADCIFE_Handler
 107 0158 00000000 	 .word DACC_Handler
 108 015c 00000000 	 .word ACIFC_Handler
 109 0160 00000000 	 .word ABDACB_Handler
 110 0164 00000000 	 .word TRNG_Handler
 111 0168 00000000 	 .word PARC_Handler
 112 016c 00000000 	 .word CATB_Handler
 113 0170 00000000 	 .word Dummy_Handler
 114 0174 00000000 	 .word TWIM2_Handler
 115 0178 00000000 	 .word TWIM3_Handler
 116 017c 00000000 	 .word LCDCA_Handler
 117              	 .text
 118              	 .align 1
 119              	 .global Reset_Handler
 120              	 .syntax unified
 121              	 .thumb
 122              	 .thumb_func
 123              	 .fpu softvfp
 125              	Reset_Handler:
 126              	.LFB111:
 127              	 .file 1 "../../../platform/sam/utils/cmsis/sam4l/source/templates/gcc/startup_sam4l.c"
   1:../../../platform/sam/utils/cmsis/sam4l/source/templates/gcc/startup_sam4l.c **** /**
   2:../../../platform/sam/utils/cmsis/sam4l/source/templates/gcc/startup_sam4l.c ****  * \file
   3:../../../platform/sam/utils/cmsis/sam4l/source/templates/gcc/startup_sam4l.c ****  *
   4:../../../platform/sam/utils/cmsis/sam4l/source/templates/gcc/startup_sam4l.c ****  * \brief GCC Startup file for SAM4L.
   5:../../../platform/sam/utils/cmsis/sam4l/source/templates/gcc/startup_sam4l.c ****  *
   6:../../../platform/sam/utils/cmsis/sam4l/source/templates/gcc/startup_sam4l.c ****  * Copyright (c) 2012-2013 Atmel Corporation. All rights reserved.
   7:../../../platform/sam/utils/cmsis/sam4l/source/templates/gcc/startup_sam4l.c ****  *
   8:../../../platform/sam/utils/cmsis/sam4l/source/templates/gcc/startup_sam4l.c ****  * \asf_license_start
   9:../../../platform/sam/utils/cmsis/sam4l/source/templates/gcc/startup_sam4l.c ****  *
  10:../../../platform/sam/utils/cmsis/sam4l/source/templates/gcc/startup_sam4l.c ****  * \page License
  11:../../../platform/sam/utils/cmsis/sam4l/source/templates/gcc/startup_sam4l.c ****  *
  12:../../../platform/sam/utils/cmsis/sam4l/source/templates/gcc/startup_sam4l.c ****  * Redistribution and use in source and binary forms, with or without
  13:../../../platform/sam/utils/cmsis/sam4l/source/templates/gcc/startup_sam4l.c ****  * modification, are permitted provided that the following conditions are met:
  14:../../../platform/sam/utils/cmsis/sam4l/source/templates/gcc/startup_sam4l.c ****  *
  15:../../../platform/sam/utils/cmsis/sam4l/source/templates/gcc/startup_sam4l.c ****  * 1. Redistributions of source code must retain the above copyright notice,
  16:../../../platform/sam/utils/cmsis/sam4l/source/templates/gcc/startup_sam4l.c ****  *    this list of conditions and the following disclaimer.
  17:../../../platform/sam/utils/cmsis/sam4l/source/templates/gcc/startup_sam4l.c ****  *
  18:../../../platform/sam/utils/cmsis/sam4l/source/templates/gcc/startup_sam4l.c ****  * 2. Redistributions in binary form must reproduce the above copyright notice,
  19:../../../platform/sam/utils/cmsis/sam4l/source/templates/gcc/startup_sam4l.c ****  *    this list of conditions and the following disclaimer in the documentation
  20:../../../platform/sam/utils/cmsis/sam4l/source/templates/gcc/startup_sam4l.c ****  *    and/or other materials provided with the distribution.
  21:../../../platform/sam/utils/cmsis/sam4l/source/templates/gcc/startup_sam4l.c ****  *
  22:../../../platform/sam/utils/cmsis/sam4l/source/templates/gcc/startup_sam4l.c ****  * 3. The name of Atmel may not be used to endorse or promote products derived
  23:../../../platform/sam/utils/cmsis/sam4l/source/templates/gcc/startup_sam4l.c ****  *    from this software without specific prior written permission.
  24:../../../platform/sam/utils/cmsis/sam4l/source/templates/gcc/startup_sam4l.c ****  *
  25:../../../platform/sam/utils/cmsis/sam4l/source/templates/gcc/startup_sam4l.c ****  * 4. This software may only be redistributed and used in connection with an
  26:../../../platform/sam/utils/cmsis/sam4l/source/templates/gcc/startup_sam4l.c ****  *    Atmel microcontroller product.
  27:../../../platform/sam/utils/cmsis/sam4l/source/templates/gcc/startup_sam4l.c ****  *
  28:../../../platform/sam/utils/cmsis/sam4l/source/templates/gcc/startup_sam4l.c ****  * THIS SOFTWARE IS PROVIDED BY ATMEL "AS IS" AND ANY EXPRESS OR IMPLIED
  29:../../../platform/sam/utils/cmsis/sam4l/source/templates/gcc/startup_sam4l.c ****  * WARRANTIES, INCLUDING, BUT NOT LIMITED TO, THE IMPLIED WARRANTIES OF
  30:../../../platform/sam/utils/cmsis/sam4l/source/templates/gcc/startup_sam4l.c ****  * MERCHANTABILITY, FITNESS FOR A PARTICULAR PURPOSE AND NON-INFRINGEMENT ARE
  31:../../../platform/sam/utils/cmsis/sam4l/source/templates/gcc/startup_sam4l.c ****  * EXPRESSLY AND SPECIFICALLY DISCLAIMED. IN NO EVENT SHALL ATMEL BE LIABLE FOR
  32:../../../platform/sam/utils/cmsis/sam4l/source/templates/gcc/startup_sam4l.c ****  * ANY DIRECT, INDIRECT, INCIDENTAL, SPECIAL, EXEMPLARY, OR CONSEQUENTIAL
  33:../../../platform/sam/utils/cmsis/sam4l/source/templates/gcc/startup_sam4l.c ****  * DAMAGES (INCLUDING, BUT NOT LIMITED TO, PROCUREMENT OF SUBSTITUTE GOODS
  34:../../../platform/sam/utils/cmsis/sam4l/source/templates/gcc/startup_sam4l.c ****  * OR SERVICES; LOSS OF USE, DATA, OR PROFITS; OR BUSINESS INTERRUPTION)
  35:../../../platform/sam/utils/cmsis/sam4l/source/templates/gcc/startup_sam4l.c ****  * HOWEVER CAUSED AND ON ANY THEORY OF LIABILITY, WHETHER IN CONTRACT,
  36:../../../platform/sam/utils/cmsis/sam4l/source/templates/gcc/startup_sam4l.c ****  * STRICT LIABILITY, OR TORT (INCLUDING NEGLIGENCE OR OTHERWISE) ARISING IN
  37:../../../platform/sam/utils/cmsis/sam4l/source/templates/gcc/startup_sam4l.c ****  * ANY WAY OUT OF THE USE OF THIS SOFTWARE, EVEN IF ADVISED OF THE
  38:../../../platform/sam/utils/cmsis/sam4l/source/templates/gcc/startup_sam4l.c ****  * POSSIBILITY OF SUCH DAMAGE.
  39:../../../platform/sam/utils/cmsis/sam4l/source/templates/gcc/startup_sam4l.c ****  *
  40:../../../platform/sam/utils/cmsis/sam4l/source/templates/gcc/startup_sam4l.c ****  * \asf_license_stop
  41:../../../platform/sam/utils/cmsis/sam4l/source/templates/gcc/startup_sam4l.c ****  *
  42:../../../platform/sam/utils/cmsis/sam4l/source/templates/gcc/startup_sam4l.c ****  */
  43:../../../platform/sam/utils/cmsis/sam4l/source/templates/gcc/startup_sam4l.c **** 
  44:../../../platform/sam/utils/cmsis/sam4l/source/templates/gcc/startup_sam4l.c **** #include "exceptions.h"
  45:../../../platform/sam/utils/cmsis/sam4l/source/templates/gcc/startup_sam4l.c **** #include "sam4l.h"
  46:../../../platform/sam/utils/cmsis/sam4l/source/templates/gcc/startup_sam4l.c **** #include "system_sam4l.h"
  47:../../../platform/sam/utils/cmsis/sam4l/source/templates/gcc/startup_sam4l.c **** 
  48:../../../platform/sam/utils/cmsis/sam4l/source/templates/gcc/startup_sam4l.c **** /* Initialize segments */
  49:../../../platform/sam/utils/cmsis/sam4l/source/templates/gcc/startup_sam4l.c **** extern uint32_t _sfixed;
  50:../../../platform/sam/utils/cmsis/sam4l/source/templates/gcc/startup_sam4l.c **** extern uint32_t _efixed;
  51:../../../platform/sam/utils/cmsis/sam4l/source/templates/gcc/startup_sam4l.c **** extern uint32_t _etext;
  52:../../../platform/sam/utils/cmsis/sam4l/source/templates/gcc/startup_sam4l.c **** extern uint32_t _srelocate;
  53:../../../platform/sam/utils/cmsis/sam4l/source/templates/gcc/startup_sam4l.c **** extern uint32_t _erelocate;
  54:../../../platform/sam/utils/cmsis/sam4l/source/templates/gcc/startup_sam4l.c **** extern uint32_t _szero;
  55:../../../platform/sam/utils/cmsis/sam4l/source/templates/gcc/startup_sam4l.c **** extern uint32_t _ezero;
  56:../../../platform/sam/utils/cmsis/sam4l/source/templates/gcc/startup_sam4l.c **** extern uint32_t _sstack;
  57:../../../platform/sam/utils/cmsis/sam4l/source/templates/gcc/startup_sam4l.c **** extern uint32_t _estack;
  58:../../../platform/sam/utils/cmsis/sam4l/source/templates/gcc/startup_sam4l.c **** 
  59:../../../platform/sam/utils/cmsis/sam4l/source/templates/gcc/startup_sam4l.c **** /** \cond DOXYGEN_SHOULD_SKIP_THIS */
  60:../../../platform/sam/utils/cmsis/sam4l/source/templates/gcc/startup_sam4l.c **** int main(void);
  61:../../../platform/sam/utils/cmsis/sam4l/source/templates/gcc/startup_sam4l.c **** /** \endcond */
  62:../../../platform/sam/utils/cmsis/sam4l/source/templates/gcc/startup_sam4l.c **** 
  63:../../../platform/sam/utils/cmsis/sam4l/source/templates/gcc/startup_sam4l.c **** void __libc_init_array(void);
  64:../../../platform/sam/utils/cmsis/sam4l/source/templates/gcc/startup_sam4l.c **** 
  65:../../../platform/sam/utils/cmsis/sam4l/source/templates/gcc/startup_sam4l.c **** /* Exception Table */
  66:../../../platform/sam/utils/cmsis/sam4l/source/templates/gcc/startup_sam4l.c **** __attribute__ ((section(".vectors")))
  67:../../../platform/sam/utils/cmsis/sam4l/source/templates/gcc/startup_sam4l.c **** IntFunc exception_table[] = {
  68:../../../platform/sam/utils/cmsis/sam4l/source/templates/gcc/startup_sam4l.c **** 
  69:../../../platform/sam/utils/cmsis/sam4l/source/templates/gcc/startup_sam4l.c **** 	/* Configure Initial Stack Pointer, using linker-generated symbols */
  70:../../../platform/sam/utils/cmsis/sam4l/source/templates/gcc/startup_sam4l.c **** 	(IntFunc) (&_estack),
  71:../../../platform/sam/utils/cmsis/sam4l/source/templates/gcc/startup_sam4l.c **** 	Reset_Handler,
  72:../../../platform/sam/utils/cmsis/sam4l/source/templates/gcc/startup_sam4l.c **** 
  73:../../../platform/sam/utils/cmsis/sam4l/source/templates/gcc/startup_sam4l.c **** 	NMI_Handler,
  74:../../../platform/sam/utils/cmsis/sam4l/source/templates/gcc/startup_sam4l.c **** 	HardFault_Handler,
  75:../../../platform/sam/utils/cmsis/sam4l/source/templates/gcc/startup_sam4l.c **** 	MemManage_Handler,
  76:../../../platform/sam/utils/cmsis/sam4l/source/templates/gcc/startup_sam4l.c **** 	BusFault_Handler,
  77:../../../platform/sam/utils/cmsis/sam4l/source/templates/gcc/startup_sam4l.c **** 	UsageFault_Handler,
  78:../../../platform/sam/utils/cmsis/sam4l/source/templates/gcc/startup_sam4l.c **** 	0, 0, 0, 0,        /* Reserved */
  79:../../../platform/sam/utils/cmsis/sam4l/source/templates/gcc/startup_sam4l.c **** 	SVC_Handler,
  80:../../../platform/sam/utils/cmsis/sam4l/source/templates/gcc/startup_sam4l.c **** 	DebugMon_Handler,
  81:../../../platform/sam/utils/cmsis/sam4l/source/templates/gcc/startup_sam4l.c **** 	0,                 /* Reserved  */
  82:../../../platform/sam/utils/cmsis/sam4l/source/templates/gcc/startup_sam4l.c **** 	PendSV_Handler,
  83:../../../platform/sam/utils/cmsis/sam4l/source/templates/gcc/startup_sam4l.c **** 	SysTick_Handler,
  84:../../../platform/sam/utils/cmsis/sam4l/source/templates/gcc/startup_sam4l.c **** 
  85:../../../platform/sam/utils/cmsis/sam4l/source/templates/gcc/startup_sam4l.c **** 	// Configurable interrupts
  86:../../../platform/sam/utils/cmsis/sam4l/source/templates/gcc/startup_sam4l.c **** 	HFLASHC_Handler,      // 0
  87:../../../platform/sam/utils/cmsis/sam4l/source/templates/gcc/startup_sam4l.c **** 	PDCA_0_Handler,       // 1
  88:../../../platform/sam/utils/cmsis/sam4l/source/templates/gcc/startup_sam4l.c **** 	PDCA_1_Handler,       // 2
  89:../../../platform/sam/utils/cmsis/sam4l/source/templates/gcc/startup_sam4l.c **** 	PDCA_2_Handler,       // 3
  90:../../../platform/sam/utils/cmsis/sam4l/source/templates/gcc/startup_sam4l.c **** 	PDCA_3_Handler,       // 4
  91:../../../platform/sam/utils/cmsis/sam4l/source/templates/gcc/startup_sam4l.c **** 	PDCA_4_Handler,       // 5
  92:../../../platform/sam/utils/cmsis/sam4l/source/templates/gcc/startup_sam4l.c **** 	PDCA_5_Handler,       // 6
  93:../../../platform/sam/utils/cmsis/sam4l/source/templates/gcc/startup_sam4l.c **** 	PDCA_6_Handler,       // 7
  94:../../../platform/sam/utils/cmsis/sam4l/source/templates/gcc/startup_sam4l.c **** 	PDCA_7_Handler,       // 8
  95:../../../platform/sam/utils/cmsis/sam4l/source/templates/gcc/startup_sam4l.c **** 	PDCA_8_Handler,       // 9
  96:../../../platform/sam/utils/cmsis/sam4l/source/templates/gcc/startup_sam4l.c **** 	PDCA_9_Handler,       // 10
  97:../../../platform/sam/utils/cmsis/sam4l/source/templates/gcc/startup_sam4l.c **** 	PDCA_10_Handler,      // 11
  98:../../../platform/sam/utils/cmsis/sam4l/source/templates/gcc/startup_sam4l.c **** 	PDCA_11_Handler,      // 12
  99:../../../platform/sam/utils/cmsis/sam4l/source/templates/gcc/startup_sam4l.c **** 	PDCA_12_Handler,      // 13
 100:../../../platform/sam/utils/cmsis/sam4l/source/templates/gcc/startup_sam4l.c **** 	PDCA_13_Handler,      // 14
 101:../../../platform/sam/utils/cmsis/sam4l/source/templates/gcc/startup_sam4l.c **** 	PDCA_14_Handler,      // 15
 102:../../../platform/sam/utils/cmsis/sam4l/source/templates/gcc/startup_sam4l.c **** 	PDCA_15_Handler,      // 16
 103:../../../platform/sam/utils/cmsis/sam4l/source/templates/gcc/startup_sam4l.c **** 	CRCCU_Handler,        // 17
 104:../../../platform/sam/utils/cmsis/sam4l/source/templates/gcc/startup_sam4l.c **** 	USBC_Handler,         // 18
 105:../../../platform/sam/utils/cmsis/sam4l/source/templates/gcc/startup_sam4l.c **** 	PEVC_TR_Handler,      // 19
 106:../../../platform/sam/utils/cmsis/sam4l/source/templates/gcc/startup_sam4l.c **** 	PEVC_OV_Handler,      // 20
 107:../../../platform/sam/utils/cmsis/sam4l/source/templates/gcc/startup_sam4l.c **** 	#ifdef AESA
 108:../../../platform/sam/utils/cmsis/sam4l/source/templates/gcc/startup_sam4l.c **** 	AESA_Handler,         // 21
 109:../../../platform/sam/utils/cmsis/sam4l/source/templates/gcc/startup_sam4l.c **** 	#else
 110:../../../platform/sam/utils/cmsis/sam4l/source/templates/gcc/startup_sam4l.c **** 	Dummy_Handler,
 111:../../../platform/sam/utils/cmsis/sam4l/source/templates/gcc/startup_sam4l.c **** 	#endif
 112:../../../platform/sam/utils/cmsis/sam4l/source/templates/gcc/startup_sam4l.c **** 	PM_Handler,           // 22
 113:../../../platform/sam/utils/cmsis/sam4l/source/templates/gcc/startup_sam4l.c **** 	SCIF_Handler,         // 23
 114:../../../platform/sam/utils/cmsis/sam4l/source/templates/gcc/startup_sam4l.c **** 	FREQM_Handler,        // 24
 115:../../../platform/sam/utils/cmsis/sam4l/source/templates/gcc/startup_sam4l.c **** 	GPIO_0_Handler,       // 25
 116:../../../platform/sam/utils/cmsis/sam4l/source/templates/gcc/startup_sam4l.c **** 	GPIO_1_Handler,       // 26
 117:../../../platform/sam/utils/cmsis/sam4l/source/templates/gcc/startup_sam4l.c **** 	GPIO_2_Handler,       // 27
 118:../../../platform/sam/utils/cmsis/sam4l/source/templates/gcc/startup_sam4l.c **** 	GPIO_3_Handler,       // 28
 119:../../../platform/sam/utils/cmsis/sam4l/source/templates/gcc/startup_sam4l.c **** 	GPIO_4_Handler,       // 29
 120:../../../platform/sam/utils/cmsis/sam4l/source/templates/gcc/startup_sam4l.c **** 	GPIO_5_Handler,       // 30
 121:../../../platform/sam/utils/cmsis/sam4l/source/templates/gcc/startup_sam4l.c **** 	GPIO_6_Handler,       // 31
 122:../../../platform/sam/utils/cmsis/sam4l/source/templates/gcc/startup_sam4l.c **** 	GPIO_7_Handler,       // 32
 123:../../../platform/sam/utils/cmsis/sam4l/source/templates/gcc/startup_sam4l.c **** 	GPIO_8_Handler,       // 33
 124:../../../platform/sam/utils/cmsis/sam4l/source/templates/gcc/startup_sam4l.c **** 	GPIO_9_Handler,       // 34
 125:../../../platform/sam/utils/cmsis/sam4l/source/templates/gcc/startup_sam4l.c **** 	GPIO_10_Handler,      // 35
 126:../../../platform/sam/utils/cmsis/sam4l/source/templates/gcc/startup_sam4l.c **** 	GPIO_11_Handler,      // 36
 127:../../../platform/sam/utils/cmsis/sam4l/source/templates/gcc/startup_sam4l.c **** 	BPM_Handler,          // 37
 128:../../../platform/sam/utils/cmsis/sam4l/source/templates/gcc/startup_sam4l.c **** 	BSCIF_Handler,        // 38
 129:../../../platform/sam/utils/cmsis/sam4l/source/templates/gcc/startup_sam4l.c **** 	AST_ALARM_Handler,    // 39
 130:../../../platform/sam/utils/cmsis/sam4l/source/templates/gcc/startup_sam4l.c **** 	AST_PER_Handler,      // 40
 131:../../../platform/sam/utils/cmsis/sam4l/source/templates/gcc/startup_sam4l.c **** 	AST_OVF_Handler,      // 41
 132:../../../platform/sam/utils/cmsis/sam4l/source/templates/gcc/startup_sam4l.c **** 	AST_READY_Handler,    // 42
 133:../../../platform/sam/utils/cmsis/sam4l/source/templates/gcc/startup_sam4l.c **** 	AST_CLKREADY_Handler, // 43
 134:../../../platform/sam/utils/cmsis/sam4l/source/templates/gcc/startup_sam4l.c **** 	WDT_Handler,          // 44
 135:../../../platform/sam/utils/cmsis/sam4l/source/templates/gcc/startup_sam4l.c **** 	EIC_1_Handler,        // 45
 136:../../../platform/sam/utils/cmsis/sam4l/source/templates/gcc/startup_sam4l.c **** 	EIC_2_Handler,        // 46
 137:../../../platform/sam/utils/cmsis/sam4l/source/templates/gcc/startup_sam4l.c **** 	EIC_3_Handler,        // 47
 138:../../../platform/sam/utils/cmsis/sam4l/source/templates/gcc/startup_sam4l.c **** 	EIC_4_Handler,        // 48
 139:../../../platform/sam/utils/cmsis/sam4l/source/templates/gcc/startup_sam4l.c **** 	EIC_5_Handler,        // 49
 140:../../../platform/sam/utils/cmsis/sam4l/source/templates/gcc/startup_sam4l.c **** 	EIC_6_Handler,        // 50
 141:../../../platform/sam/utils/cmsis/sam4l/source/templates/gcc/startup_sam4l.c **** 	EIC_7_Handler,        // 51
 142:../../../platform/sam/utils/cmsis/sam4l/source/templates/gcc/startup_sam4l.c **** 	EIC_8_Handler,        // 52
 143:../../../platform/sam/utils/cmsis/sam4l/source/templates/gcc/startup_sam4l.c **** 	IISC_Handler,         // 53
 144:../../../platform/sam/utils/cmsis/sam4l/source/templates/gcc/startup_sam4l.c **** 	SPI_Handler,          // 54
 145:../../../platform/sam/utils/cmsis/sam4l/source/templates/gcc/startup_sam4l.c **** 	TC00_Handler,         // 55
 146:../../../platform/sam/utils/cmsis/sam4l/source/templates/gcc/startup_sam4l.c **** 	TC01_Handler,         // 56
 147:../../../platform/sam/utils/cmsis/sam4l/source/templates/gcc/startup_sam4l.c **** 	TC02_Handler,         // 57
 148:../../../platform/sam/utils/cmsis/sam4l/source/templates/gcc/startup_sam4l.c **** 	TC10_Handler,         // 58
 149:../../../platform/sam/utils/cmsis/sam4l/source/templates/gcc/startup_sam4l.c **** 	TC11_Handler,         // 59
 150:../../../platform/sam/utils/cmsis/sam4l/source/templates/gcc/startup_sam4l.c **** 	TC12_Handler,         // 60
 151:../../../platform/sam/utils/cmsis/sam4l/source/templates/gcc/startup_sam4l.c **** 	TWIM0_Handler,        // 61
 152:../../../platform/sam/utils/cmsis/sam4l/source/templates/gcc/startup_sam4l.c **** 	TWIS0_Handler,        // 62
 153:../../../platform/sam/utils/cmsis/sam4l/source/templates/gcc/startup_sam4l.c **** 	TWIM1_Handler,        // 63
 154:../../../platform/sam/utils/cmsis/sam4l/source/templates/gcc/startup_sam4l.c **** 	TWIS1_Handler,        // 64
 155:../../../platform/sam/utils/cmsis/sam4l/source/templates/gcc/startup_sam4l.c **** 	USART0_Handler,       // 65
 156:../../../platform/sam/utils/cmsis/sam4l/source/templates/gcc/startup_sam4l.c **** 	USART1_Handler,       // 66
 157:../../../platform/sam/utils/cmsis/sam4l/source/templates/gcc/startup_sam4l.c **** 	USART2_Handler,       // 67
 158:../../../platform/sam/utils/cmsis/sam4l/source/templates/gcc/startup_sam4l.c **** 	USART3_Handler,       // 68
 159:../../../platform/sam/utils/cmsis/sam4l/source/templates/gcc/startup_sam4l.c **** 	ADCIFE_Handler,       // 69
 160:../../../platform/sam/utils/cmsis/sam4l/source/templates/gcc/startup_sam4l.c **** 	DACC_Handler,         // 70
 161:../../../platform/sam/utils/cmsis/sam4l/source/templates/gcc/startup_sam4l.c **** 	ACIFC_Handler,        // 71
 162:../../../platform/sam/utils/cmsis/sam4l/source/templates/gcc/startup_sam4l.c **** 	ABDACB_Handler,       // 72
 163:../../../platform/sam/utils/cmsis/sam4l/source/templates/gcc/startup_sam4l.c **** 	TRNG_Handler,         // 73
 164:../../../platform/sam/utils/cmsis/sam4l/source/templates/gcc/startup_sam4l.c **** 	PARC_Handler,         // 74
 165:../../../platform/sam/utils/cmsis/sam4l/source/templates/gcc/startup_sam4l.c **** 	CATB_Handler,         // 75
 166:../../../platform/sam/utils/cmsis/sam4l/source/templates/gcc/startup_sam4l.c **** 	Dummy_Handler,        // one not used
 167:../../../platform/sam/utils/cmsis/sam4l/source/templates/gcc/startup_sam4l.c **** 	TWIM2_Handler,        // 77
 168:../../../platform/sam/utils/cmsis/sam4l/source/templates/gcc/startup_sam4l.c **** 	TWIM3_Handler,        // 78
 169:../../../platform/sam/utils/cmsis/sam4l/source/templates/gcc/startup_sam4l.c **** 	#ifdef LCDCA
 170:../../../platform/sam/utils/cmsis/sam4l/source/templates/gcc/startup_sam4l.c **** 	LCDCA_Handler         // 79
 171:../../../platform/sam/utils/cmsis/sam4l/source/templates/gcc/startup_sam4l.c **** 	#else
 172:../../../platform/sam/utils/cmsis/sam4l/source/templates/gcc/startup_sam4l.c **** 	Dummy_Handler
 173:../../../platform/sam/utils/cmsis/sam4l/source/templates/gcc/startup_sam4l.c **** 	#endif
 174:../../../platform/sam/utils/cmsis/sam4l/source/templates/gcc/startup_sam4l.c **** };
 175:../../../platform/sam/utils/cmsis/sam4l/source/templates/gcc/startup_sam4l.c **** 
 176:../../../platform/sam/utils/cmsis/sam4l/source/templates/gcc/startup_sam4l.c **** 
 177:../../../platform/sam/utils/cmsis/sam4l/source/templates/gcc/startup_sam4l.c **** /**
 178:../../../platform/sam/utils/cmsis/sam4l/source/templates/gcc/startup_sam4l.c ****  * \brief This is the code that gets called on processor reset.
 179:../../../platform/sam/utils/cmsis/sam4l/source/templates/gcc/startup_sam4l.c ****  * To initialize the device, and call the main() routine.
 180:../../../platform/sam/utils/cmsis/sam4l/source/templates/gcc/startup_sam4l.c ****  */
 181:../../../platform/sam/utils/cmsis/sam4l/source/templates/gcc/startup_sam4l.c **** void Reset_Handler(void)
 182:../../../platform/sam/utils/cmsis/sam4l/source/templates/gcc/startup_sam4l.c **** {
 128              	 .loc 1 182 0
 129              	 .cfi_startproc
 130              	 
 131              	 
 132 0000 80B5     	 push {r7,lr}
 133              	.LCFI0:
 134              	 .cfi_def_cfa_offset 8
 135              	 .cfi_offset 7,-8
 136              	 .cfi_offset 14,-4
 137 0002 82B0     	 sub sp,sp,#8
 138              	.LCFI1:
 139              	 .cfi_def_cfa_offset 16
 140 0004 00AF     	 add r7,sp,#0
 141              	.LCFI2:
 142              	 .cfi_def_cfa_register 7
 183:../../../platform/sam/utils/cmsis/sam4l/source/templates/gcc/startup_sam4l.c **** 	uint32_t *pSrc, *pDest;
 184:../../../platform/sam/utils/cmsis/sam4l/source/templates/gcc/startup_sam4l.c **** 
 185:../../../platform/sam/utils/cmsis/sam4l/source/templates/gcc/startup_sam4l.c **** 	/* Initialize the relocate segment */
 186:../../../platform/sam/utils/cmsis/sam4l/source/templates/gcc/startup_sam4l.c **** 	pSrc = &_etext;
 143              	 .loc 1 186 0
 144 0006 164B     	 ldr r3,.L8
 145 0008 7B60     	 str r3,[r7,#4]
 187:../../../platform/sam/utils/cmsis/sam4l/source/templates/gcc/startup_sam4l.c **** 	pDest = &_srelocate;
 146              	 .loc 1 187 0
 147 000a 164B     	 ldr r3,.L8+4
 148 000c 3B60     	 str r3,[r7]
 188:../../../platform/sam/utils/cmsis/sam4l/source/templates/gcc/startup_sam4l.c **** 
 189:../../../platform/sam/utils/cmsis/sam4l/source/templates/gcc/startup_sam4l.c **** 	if (pSrc != pDest) {
 149              	 .loc 1 189 0
 150 000e 7A68     	 ldr r2,[r7,#4]
 151 0010 3B68     	 ldr r3,[r7]
 152 0012 9A42     	 cmp r2,r3
 153 0014 0CD0     	 beq .L2
 190:../../../platform/sam/utils/cmsis/sam4l/source/templates/gcc/startup_sam4l.c **** 		for (; pDest < &_erelocate;) {
 154              	 .loc 1 190 0
 155 0016 07E0     	 b .L3
 156              	.L4:
 191:../../../platform/sam/utils/cmsis/sam4l/source/templates/gcc/startup_sam4l.c **** 			*pDest++ = *pSrc++;
 157              	 .loc 1 191 0
 158 0018 3B68     	 ldr r3,[r7]
 159 001a 1A1D     	 adds r2,r3,#4
 160 001c 3A60     	 str r2,[r7]
 161 001e 7A68     	 ldr r2,[r7,#4]
 162 0020 111D     	 adds r1,r2,#4
 163 0022 7960     	 str r1,[r7,#4]
 164 0024 1268     	 ldr r2,[r2]
 165 0026 1A60     	 str r2,[r3]
 166              	.L3:
 190:../../../platform/sam/utils/cmsis/sam4l/source/templates/gcc/startup_sam4l.c **** 		for (; pDest < &_erelocate;) {
 167              	 .loc 1 190 0
 168 0028 3B68     	 ldr r3,[r7]
 169 002a 0F4A     	 ldr r2,.L8+8
 170 002c 9342     	 cmp r3,r2
 171 002e F3D3     	 bcc .L4
 172              	.L2:
 192:../../../platform/sam/utils/cmsis/sam4l/source/templates/gcc/startup_sam4l.c **** 		}
 193:../../../platform/sam/utils/cmsis/sam4l/source/templates/gcc/startup_sam4l.c **** 	}
 194:../../../platform/sam/utils/cmsis/sam4l/source/templates/gcc/startup_sam4l.c **** 
 195:../../../platform/sam/utils/cmsis/sam4l/source/templates/gcc/startup_sam4l.c **** 	/* Clear the zero segment */
 196:../../../platform/sam/utils/cmsis/sam4l/source/templates/gcc/startup_sam4l.c **** 	for (pDest = &_szero; pDest < &_ezero;) {
 173              	 .loc 1 196 0
 174 0030 0E4B     	 ldr r3,.L8+12
 175 0032 3B60     	 str r3,[r7]
 176 0034 04E0     	 b .L5
 177              	.L6:
 197:../../../platform/sam/utils/cmsis/sam4l/source/templates/gcc/startup_sam4l.c **** 		*pDest++ = 0;
 178              	 .loc 1 197 0
 179 0036 3B68     	 ldr r3,[r7]
 180 0038 1A1D     	 adds r2,r3,#4
 181 003a 3A60     	 str r2,[r7]
 182 003c 0022     	 movs r2,#0
 183 003e 1A60     	 str r2,[r3]
 184              	.L5:
 196:../../../platform/sam/utils/cmsis/sam4l/source/templates/gcc/startup_sam4l.c **** 		*pDest++ = 0;
 185              	 .loc 1 196 0 discriminator 1
 186 0040 3B68     	 ldr r3,[r7]
 187 0042 0B4A     	 ldr r2,.L8+16
 188 0044 9342     	 cmp r3,r2
 189 0046 F6D3     	 bcc .L6
 198:../../../platform/sam/utils/cmsis/sam4l/source/templates/gcc/startup_sam4l.c **** 	}
 199:../../../platform/sam/utils/cmsis/sam4l/source/templates/gcc/startup_sam4l.c **** 
 200:../../../platform/sam/utils/cmsis/sam4l/source/templates/gcc/startup_sam4l.c **** 	/* Set the vector table base address */
 201:../../../platform/sam/utils/cmsis/sam4l/source/templates/gcc/startup_sam4l.c **** 	pSrc = (uint32_t *) &_sfixed;
 190              	 .loc 1 201 0
 191 0048 0A4B     	 ldr r3,.L8+20
 192 004a 7B60     	 str r3,[r7,#4]
 202:../../../platform/sam/utils/cmsis/sam4l/source/templates/gcc/startup_sam4l.c **** 	SCB->VTOR = ((uint32_t) pSrc & SCB_VTOR_TBLOFF_Msk);
 193              	 .loc 1 202 0
 194 004c 0A4A     	 ldr r2,.L8+24
 195 004e 7B68     	 ldr r3,[r7,#4]
 196 0050 23F07F03 	 bic r3,r3,#127
 197 0054 9360     	 str r3,[r2,#8]
 203:../../../platform/sam/utils/cmsis/sam4l/source/templates/gcc/startup_sam4l.c **** 
 204:../../../platform/sam/utils/cmsis/sam4l/source/templates/gcc/startup_sam4l.c **** 	/* Initialize the C library */
 205:../../../platform/sam/utils/cmsis/sam4l/source/templates/gcc/startup_sam4l.c **** 	__libc_init_array();
 198              	 .loc 1 205 0
 199 0056 094B     	 ldr r3,.L8+28
 200 0058 9847     	 blx r3
 201              	.LVL0:
 206:../../../platform/sam/utils/cmsis/sam4l/source/templates/gcc/startup_sam4l.c **** 
 207:../../../platform/sam/utils/cmsis/sam4l/source/templates/gcc/startup_sam4l.c **** 	/* Branch to main function */
 208:../../../platform/sam/utils/cmsis/sam4l/source/templates/gcc/startup_sam4l.c **** 	main();
 202              	 .loc 1 208 0
 203 005a 094B     	 ldr r3,.L8+32
 204 005c 9847     	 blx r3
 205              	.LVL1:
 206              	.L7:
 209:../../../platform/sam/utils/cmsis/sam4l/source/templates/gcc/startup_sam4l.c **** 
 210:../../../platform/sam/utils/cmsis/sam4l/source/templates/gcc/startup_sam4l.c **** 	/* Infinite loop */
 211:../../../platform/sam/utils/cmsis/sam4l/source/templates/gcc/startup_sam4l.c **** 	while (1);
 207              	 .loc 1 211 0 discriminator 1
 208 005e FEE7     	 b .L7
 209              	.L9:
 210              	 .align 2
 211              	.L8:
 212 0060 00000000 	 .word _etext
 213 0064 00000000 	 .word _srelocate
 214 0068 00000000 	 .word _erelocate
 215 006c 00000000 	 .word _szero
 216 0070 00000000 	 .word _ezero
 217 0074 00000000 	 .word _sfixed
 218 0078 00ED00E0 	 .word -536810240
 219 007c 00000000 	 .word __libc_init_array
 220 0080 00000000 	 .word main
 221              	 .cfi_endproc
 222              	.LFE111:
 224              	.Letext0:
 225              	 .file 2 "c:\\program files (x86)\\atmel\\studio\\7.0\\toolchain\\arm\\arm-gnu-toolchain\\arm-none-eabi\\include\\machine\\_default_types.h"
 226              	 .file 3 "c:\\program files (x86)\\atmel\\studio\\7.0\\toolchain\\arm\\arm-gnu-toolchain\\arm-none-eabi\\include\\sys\\_stdint.h"
 227              	 .file 4 "../../../platform/thirdparty/CMSIS/include/core_cm4.h"
 228              	 .file 5 "../../../platform/sam/utils/cmsis/sam4l/source/templates/system_sam4l.h"
 229              	 .file 6 "../../../platform/sam/utils/cmsis/sam4l/source/templates/exceptions.h"