   1               		.file	"nwkDataReq.c"
   2               	__SP_H__ = 0x3e
   3               	__SP_L__ = 0x3d
   4               	__SREG__ = 0x3f
   5               	__RAMPZ__ = 0x3b
   6               	__tmp_reg__ = 0
   7               	__zero_reg__ = 1
   8               		.text
   9               	.Ltext0:
  10               		.cfi_sections	.debug_frame
  11               		.section	.bss.nwkDataReqQueue,"aw",@nobits
  14               	nwkDataReqQueue:
  15 0000 0000      		.zero	2
  16               		.text
  17               	.global	nwkDataReqInit
  19               	nwkDataReqInit:
  20               	.LFB66:
  21               		.file 1 "../../../stack/LwMesh/TDMA/nwk/src/nwkDataReq.c"
   1:../../../stack/LwMesh/TDMA/nwk/src/nwkDataReq.c **** /**
   2:../../../stack/LwMesh/TDMA/nwk/src/nwkDataReq.c ****  * \file nwkDataReq.c
   3:../../../stack/LwMesh/TDMA/nwk/src/nwkDataReq.c ****  *
   4:../../../stack/LwMesh/TDMA/nwk/src/nwkDataReq.c ****  * \brief NWK_DataReq() implementation
   5:../../../stack/LwMesh/TDMA/nwk/src/nwkDataReq.c ****  *
   6:../../../stack/LwMesh/TDMA/nwk/src/nwkDataReq.c ****  * Copyright (C) 2014 Atmel Corporation. All rights reserved.
   7:../../../stack/LwMesh/TDMA/nwk/src/nwkDataReq.c ****  *
   8:../../../stack/LwMesh/TDMA/nwk/src/nwkDataReq.c ****  * \asf_license_start
   9:../../../stack/LwMesh/TDMA/nwk/src/nwkDataReq.c ****  *
  10:../../../stack/LwMesh/TDMA/nwk/src/nwkDataReq.c ****  * Redistribution and use in source and binary forms, with or without
  11:../../../stack/LwMesh/TDMA/nwk/src/nwkDataReq.c ****  * modification, are permitted provided that the following conditions are met:
  12:../../../stack/LwMesh/TDMA/nwk/src/nwkDataReq.c ****  *
  13:../../../stack/LwMesh/TDMA/nwk/src/nwkDataReq.c ****  * 1. Redistributions of source code must retain the above copyright notice,
  14:../../../stack/LwMesh/TDMA/nwk/src/nwkDataReq.c ****  *    this list of conditions and the following disclaimer.
  15:../../../stack/LwMesh/TDMA/nwk/src/nwkDataReq.c ****  *
  16:../../../stack/LwMesh/TDMA/nwk/src/nwkDataReq.c ****  * 2. Redistributions in binary form must reproduce the above copyright notice,
  17:../../../stack/LwMesh/TDMA/nwk/src/nwkDataReq.c ****  *    this list of conditions and the following disclaimer in the documentation
  18:../../../stack/LwMesh/TDMA/nwk/src/nwkDataReq.c ****  *    and/or other materials provided with the distribution.
  19:../../../stack/LwMesh/TDMA/nwk/src/nwkDataReq.c ****  *
  20:../../../stack/LwMesh/TDMA/nwk/src/nwkDataReq.c ****  * 3. The name of Atmel may not be used to endorse or promote products derived
  21:../../../stack/LwMesh/TDMA/nwk/src/nwkDataReq.c ****  *    from this software without specific prior written permission.
  22:../../../stack/LwMesh/TDMA/nwk/src/nwkDataReq.c ****  *
  23:../../../stack/LwMesh/TDMA/nwk/src/nwkDataReq.c ****  * 4. This software may only be redistributed and used in connection with an
  24:../../../stack/LwMesh/TDMA/nwk/src/nwkDataReq.c ****  *    Atmel microcontroller product.
  25:../../../stack/LwMesh/TDMA/nwk/src/nwkDataReq.c ****  *
  26:../../../stack/LwMesh/TDMA/nwk/src/nwkDataReq.c ****  * THIS SOFTWARE IS PROVIDED BY ATMEL "AS IS" AND ANY EXPRESS OR IMPLIED
  27:../../../stack/LwMesh/TDMA/nwk/src/nwkDataReq.c ****  * WARRANTIES, INCLUDING, BUT NOT LIMITED TO, THE IMPLIED WARRANTIES OF
  28:../../../stack/LwMesh/TDMA/nwk/src/nwkDataReq.c ****  * MERCHANTABILITY, FITNESS FOR A PARTICULAR PURPOSE AND NON-INFRINGEMENT ARE
  29:../../../stack/LwMesh/TDMA/nwk/src/nwkDataReq.c ****  * EXPRESSLY AND SPECIFICALLY DISCLAIMED. IN NO EVENT SHALL ATMEL BE LIABLE FOR
  30:../../../stack/LwMesh/TDMA/nwk/src/nwkDataReq.c ****  * ANY DIRECT, INDIRECT, INCIDENTAL, SPECIAL, EXEMPLARY, OR CONSEQUENTIAL
  31:../../../stack/LwMesh/TDMA/nwk/src/nwkDataReq.c ****  * DAMAGES (INCLUDING, BUT NOT LIMITED TO, PROCUREMENT OF SUBSTITUTE GOODS
  32:../../../stack/LwMesh/TDMA/nwk/src/nwkDataReq.c ****  * OR SERVICES; LOSS OF USE, DATA, OR PROFITS; OR BUSINESS INTERRUPTION)
  33:../../../stack/LwMesh/TDMA/nwk/src/nwkDataReq.c ****  * HOWEVER CAUSED AND ON ANY THEORY OF LIABILITY, WHETHER IN CONTRACT,
  34:../../../stack/LwMesh/TDMA/nwk/src/nwkDataReq.c ****  * STRICT LIABILITY, OR TORT (INCLUDING NEGLIGENCE OR OTHERWISE) ARISING IN
  35:../../../stack/LwMesh/TDMA/nwk/src/nwkDataReq.c ****  * ANY WAY OUT OF THE USE OF THIS SOFTWARE, EVEN IF ADVISED OF THE
  36:../../../stack/LwMesh/TDMA/nwk/src/nwkDataReq.c ****  * POSSIBILITY OF SUCH DAMAGE.
  37:../../../stack/LwMesh/TDMA/nwk/src/nwkDataReq.c ****  *
  38:../../../stack/LwMesh/TDMA/nwk/src/nwkDataReq.c ****  * \asf_license_stop
  39:../../../stack/LwMesh/TDMA/nwk/src/nwkDataReq.c ****  *
  40:../../../stack/LwMesh/TDMA/nwk/src/nwkDataReq.c ****  *
  41:../../../stack/LwMesh/TDMA/nwk/src/nwkDataReq.c ****  */
  42:../../../stack/LwMesh/TDMA/nwk/src/nwkDataReq.c **** 
  43:../../../stack/LwMesh/TDMA/nwk/src/nwkDataReq.c **** /*
  44:../../../stack/LwMesh/TDMA/nwk/src/nwkDataReq.c ****  * Copyright (c) 2014, Atmel Corporation All rights reserved.
  45:../../../stack/LwMesh/TDMA/nwk/src/nwkDataReq.c ****  *
  46:../../../stack/LwMesh/TDMA/nwk/src/nwkDataReq.c ****  * Licensed under Atmel's Limited License Agreement --> EULA.txt
  47:../../../stack/LwMesh/TDMA/nwk/src/nwkDataReq.c ****  */
  48:../../../stack/LwMesh/TDMA/nwk/src/nwkDataReq.c **** 
  49:../../../stack/LwMesh/TDMA/nwk/src/nwkDataReq.c **** /*- Includes ---------------------------------------------------------------*/
  50:../../../stack/LwMesh/TDMA/nwk/src/nwkDataReq.c **** #include <stdlib.h>
  51:../../../stack/LwMesh/TDMA/nwk/src/nwkDataReq.c **** #include <stdint.h>
  52:../../../stack/LwMesh/TDMA/nwk/src/nwkDataReq.c **** #include <stdbool.h>
  53:../../../stack/LwMesh/TDMA/nwk/src/nwkDataReq.c **** #include <string.h>
  54:../../../stack/LwMesh/TDMA/nwk/src/nwkDataReq.c **** #include "sysConfig.h"
  55:../../../stack/LwMesh/TDMA/nwk/src/nwkDataReq.c **** #include "nwk.h"
  56:../../../stack/LwMesh/TDMA/nwk/src/nwkDataReq.c **** #include "nwkTx.h"
  57:../../../stack/LwMesh/TDMA/nwk/src/nwkDataReq.c **** #include "nwkFrame.h"
  58:../../../stack/LwMesh/TDMA/nwk/src/nwkDataReq.c **** #include "nwkGroup.h"
  59:../../../stack/LwMesh/TDMA/nwk/src/nwkDataReq.c **** #include "nwkDataReq.h"
  60:../../../stack/LwMesh/TDMA/nwk/src/nwkDataReq.c **** 
  61:../../../stack/LwMesh/TDMA/nwk/src/nwkDataReq.c **** /*- Types ------------------------------------------------------------------*/
  62:../../../stack/LwMesh/TDMA/nwk/src/nwkDataReq.c **** enum {
  63:../../../stack/LwMesh/TDMA/nwk/src/nwkDataReq.c **** 	NWK_DATA_REQ_STATE_INITIAL,
  64:../../../stack/LwMesh/TDMA/nwk/src/nwkDataReq.c **** 	NWK_DATA_REQ_STATE_WAIT_CONF,
  65:../../../stack/LwMesh/TDMA/nwk/src/nwkDataReq.c **** 	NWK_DATA_REQ_STATE_CONFIRM,
  66:../../../stack/LwMesh/TDMA/nwk/src/nwkDataReq.c **** };
  67:../../../stack/LwMesh/TDMA/nwk/src/nwkDataReq.c **** 
  68:../../../stack/LwMesh/TDMA/nwk/src/nwkDataReq.c **** /*- Prototypes -------------------------------------------------------------*/
  69:../../../stack/LwMesh/TDMA/nwk/src/nwkDataReq.c **** static void nwkDataReqTxConf(NwkFrame_t *frame);
  70:../../../stack/LwMesh/TDMA/nwk/src/nwkDataReq.c **** 
  71:../../../stack/LwMesh/TDMA/nwk/src/nwkDataReq.c **** /*- Variables --------------------------------------------------------------*/
  72:../../../stack/LwMesh/TDMA/nwk/src/nwkDataReq.c **** static NWK_DataReq_t *nwkDataReqQueue;
  73:../../../stack/LwMesh/TDMA/nwk/src/nwkDataReq.c **** 
  74:../../../stack/LwMesh/TDMA/nwk/src/nwkDataReq.c **** /*- Implementations --------------------------------------------------------*/
  75:../../../stack/LwMesh/TDMA/nwk/src/nwkDataReq.c **** 
  76:../../../stack/LwMesh/TDMA/nwk/src/nwkDataReq.c **** /*************************************************************************//**
  77:../../../stack/LwMesh/TDMA/nwk/src/nwkDataReq.c **** *  @brief Initializes the Data Request module
  78:../../../stack/LwMesh/TDMA/nwk/src/nwkDataReq.c **** *****************************************************************************/
  79:../../../stack/LwMesh/TDMA/nwk/src/nwkDataReq.c **** void nwkDataReqInit(void)
  80:../../../stack/LwMesh/TDMA/nwk/src/nwkDataReq.c **** {
  22               		.loc 1 80 0
  23               		.cfi_startproc
  24 0000 CF93      		push r28
  25               	.LCFI0:
  26               		.cfi_def_cfa_offset 3
  27               		.cfi_offset 28, -2
  28 0002 DF93      		push r29
  29               	.LCFI1:
  30               		.cfi_def_cfa_offset 4
  31               		.cfi_offset 29, -3
  32 0004 CDB7      		in r28,__SP_L__
  33 0006 DEB7      		in r29,__SP_H__
  34               	.LCFI2:
  35               		.cfi_def_cfa_register 28
  36               	/* prologue: function */
  37               	/* frame size = 0 */
  38               	/* stack size = 2 */
  39               	.L__stack_usage = 2
  81:../../../stack/LwMesh/TDMA/nwk/src/nwkDataReq.c **** 	nwkDataReqQueue = NULL;
  40               		.loc 1 81 0
  41 0008 1092 0000 		sts nwkDataReqQueue+1,__zero_reg__
  42 000c 1092 0000 		sts nwkDataReqQueue,__zero_reg__
  82:../../../stack/LwMesh/TDMA/nwk/src/nwkDataReq.c **** }
  43               		.loc 1 82 0
  44 0010 0000      		nop
  45               	/* epilogue start */
  46 0012 DF91      		pop r29
  47 0014 CF91      		pop r28
  48 0016 0895      		ret
  49               		.cfi_endproc
  50               	.LFE66:
  52               	.global	NWK_DataReq
  54               	NWK_DataReq:
  55               	.LFB67:
  83:../../../stack/LwMesh/TDMA/nwk/src/nwkDataReq.c **** 
  84:../../../stack/LwMesh/TDMA/nwk/src/nwkDataReq.c **** /*************************************************************************//**
  85:../../../stack/LwMesh/TDMA/nwk/src/nwkDataReq.c **** *  @brief Adds request @a req to the queue of outgoing requests
  86:../../../stack/LwMesh/TDMA/nwk/src/nwkDataReq.c **** *  @param[in] req Pointer to the request parameters
  87:../../../stack/LwMesh/TDMA/nwk/src/nwkDataReq.c **** *****************************************************************************/
  88:../../../stack/LwMesh/TDMA/nwk/src/nwkDataReq.c **** void NWK_DataReq(NWK_DataReq_t *req)
  89:../../../stack/LwMesh/TDMA/nwk/src/nwkDataReq.c **** {
  56               		.loc 1 89 0
  57               		.cfi_startproc
  58 0018 CF93      		push r28
  59               	.LCFI3:
  60               		.cfi_def_cfa_offset 3
  61               		.cfi_offset 28, -2
  62 001a DF93      		push r29
  63               	.LCFI4:
  64               		.cfi_def_cfa_offset 4
  65               		.cfi_offset 29, -3
  66 001c 00D0      		rcall .
  67               	.LCFI5:
  68               		.cfi_def_cfa_offset 6
  69 001e CDB7      		in r28,__SP_L__
  70 0020 DEB7      		in r29,__SP_H__
  71               	.LCFI6:
  72               		.cfi_def_cfa_register 28
  73               	/* prologue: function */
  74               	/* frame size = 2 */
  75               	/* stack size = 4 */
  76               	.L__stack_usage = 4
  77 0022 9A83      		std Y+2,r25
  78 0024 8983      		std Y+1,r24
  90:../../../stack/LwMesh/TDMA/nwk/src/nwkDataReq.c **** 	req->state = NWK_DATA_REQ_STATE_INITIAL;
  79               		.loc 1 90 0
  80 0026 8981      		ldd r24,Y+1
  81 0028 9A81      		ldd r25,Y+2
  82 002a FC01      		movw r30,r24
  83 002c 1482      		std Z+4,__zero_reg__
  91:../../../stack/LwMesh/TDMA/nwk/src/nwkDataReq.c **** 	req->status = NWK_SUCCESS_STATUS;
  84               		.loc 1 91 0
  85 002e 8981      		ldd r24,Y+1
  86 0030 9A81      		ldd r25,Y+2
  87 0032 FC01      		movw r30,r24
  88 0034 108A      		std Z+16,__zero_reg__
  92:../../../stack/LwMesh/TDMA/nwk/src/nwkDataReq.c **** 	req->frame = NULL;
  89               		.loc 1 92 0
  90 0036 8981      		ldd r24,Y+1
  91 0038 9A81      		ldd r25,Y+2
  92 003a FC01      		movw r30,r24
  93 003c 1382      		std Z+3,__zero_reg__
  94 003e 1282      		std Z+2,__zero_reg__
  93:../../../stack/LwMesh/TDMA/nwk/src/nwkDataReq.c **** 
  94:../../../stack/LwMesh/TDMA/nwk/src/nwkDataReq.c **** 	nwkIb.lock++;
  95               		.loc 1 94 0
  96 0040 8091 0000 		lds r24,nwkIb+38
  97 0044 9091 0000 		lds r25,nwkIb+38+1
  98 0048 0196      		adiw r24,1
  99 004a 9093 0000 		sts nwkIb+38+1,r25
 100 004e 8093 0000 		sts nwkIb+38,r24
  95:../../../stack/LwMesh/TDMA/nwk/src/nwkDataReq.c **** 
  96:../../../stack/LwMesh/TDMA/nwk/src/nwkDataReq.c **** 	if (NULL == nwkDataReqQueue) {
 101               		.loc 1 96 0
 102 0052 8091 0000 		lds r24,nwkDataReqQueue
 103 0056 9091 0000 		lds r25,nwkDataReqQueue+1
 104 005a 892B      		or r24,r25
 105 005c 01F4      		brne .L3
  97:../../../stack/LwMesh/TDMA/nwk/src/nwkDataReq.c **** 		req->next = NULL;
 106               		.loc 1 97 0
 107 005e 8981      		ldd r24,Y+1
 108 0060 9A81      		ldd r25,Y+2
 109 0062 FC01      		movw r30,r24
 110 0064 1182      		std Z+1,__zero_reg__
 111 0066 1082      		st Z,__zero_reg__
  98:../../../stack/LwMesh/TDMA/nwk/src/nwkDataReq.c **** 		nwkDataReqQueue = req;
 112               		.loc 1 98 0
 113 0068 8981      		ldd r24,Y+1
 114 006a 9A81      		ldd r25,Y+2
 115 006c 9093 0000 		sts nwkDataReqQueue+1,r25
 116 0070 8093 0000 		sts nwkDataReqQueue,r24
  99:../../../stack/LwMesh/TDMA/nwk/src/nwkDataReq.c **** 	} else {
 100:../../../stack/LwMesh/TDMA/nwk/src/nwkDataReq.c **** 		req->next = nwkDataReqQueue;
 101:../../../stack/LwMesh/TDMA/nwk/src/nwkDataReq.c **** 		nwkDataReqQueue = req;
 102:../../../stack/LwMesh/TDMA/nwk/src/nwkDataReq.c **** 	}
 103:../../../stack/LwMesh/TDMA/nwk/src/nwkDataReq.c **** }
 117               		.loc 1 103 0
 118 0074 00C0      		rjmp .L5
 119               	.L3:
 100:../../../stack/LwMesh/TDMA/nwk/src/nwkDataReq.c **** 		nwkDataReqQueue = req;
 120               		.loc 1 100 0
 121 0076 2091 0000 		lds r18,nwkDataReqQueue
 122 007a 3091 0000 		lds r19,nwkDataReqQueue+1
 123 007e 8981      		ldd r24,Y+1
 124 0080 9A81      		ldd r25,Y+2
 125 0082 FC01      		movw r30,r24
 126 0084 3183      		std Z+1,r19
 127 0086 2083      		st Z,r18
 101:../../../stack/LwMesh/TDMA/nwk/src/nwkDataReq.c **** 	}
 128               		.loc 1 101 0
 129 0088 8981      		ldd r24,Y+1
 130 008a 9A81      		ldd r25,Y+2
 131 008c 9093 0000 		sts nwkDataReqQueue+1,r25
 132 0090 8093 0000 		sts nwkDataReqQueue,r24
 133               	.L5:
 134               		.loc 1 103 0
 135 0094 0000      		nop
 136               	/* epilogue start */
 137 0096 0F90      		pop __tmp_reg__
 138 0098 0F90      		pop __tmp_reg__
 139 009a DF91      		pop r29
 140 009c CF91      		pop r28
 141 009e 0895      		ret
 142               		.cfi_endproc
 143               	.LFE67:
 146               	nwkDataReqSendFrame:
 147               	.LFB68:
 104:../../../stack/LwMesh/TDMA/nwk/src/nwkDataReq.c **** 
 105:../../../stack/LwMesh/TDMA/nwk/src/nwkDataReq.c **** /*************************************************************************//**
 106:../../../stack/LwMesh/TDMA/nwk/src/nwkDataReq.c **** *  @brief Prepares and send outgoing frame based on the request @a req
 107:../../../stack/LwMesh/TDMA/nwk/src/nwkDataReq.c **** * parameters
 108:../../../stack/LwMesh/TDMA/nwk/src/nwkDataReq.c **** *  @param[in] req Pointer to the request parameters
 109:../../../stack/LwMesh/TDMA/nwk/src/nwkDataReq.c **** *****************************************************************************/
 110:../../../stack/LwMesh/TDMA/nwk/src/nwkDataReq.c **** static void nwkDataReqSendFrame(NWK_DataReq_t *req)
 111:../../../stack/LwMesh/TDMA/nwk/src/nwkDataReq.c **** {
 148               		.loc 1 111 0
 149               		.cfi_startproc
 150 00a0 CF93      		push r28
 151               	.LCFI7:
 152               		.cfi_def_cfa_offset 3
 153               		.cfi_offset 28, -2
 154 00a2 DF93      		push r29
 155               	.LCFI8:
 156               		.cfi_def_cfa_offset 4
 157               		.cfi_offset 29, -3
 158 00a4 00D0      		rcall .
 159 00a6 00D0      		rcall .
 160 00a8 00D0      		rcall .
 161               	.LCFI9:
 162               		.cfi_def_cfa_offset 10
 163 00aa CDB7      		in r28,__SP_L__
 164 00ac DEB7      		in r29,__SP_H__
 165               	.LCFI10:
 166               		.cfi_def_cfa_register 28
 167               	/* prologue: function */
 168               	/* frame size = 6 */
 169               	/* stack size = 8 */
 170               	.L__stack_usage = 8
 171 00ae 9E83      		std Y+6,r25
 172 00b0 8D83      		std Y+5,r24
 112:../../../stack/LwMesh/TDMA/nwk/src/nwkDataReq.c **** 	NwkFrame_t *frame;
 113:../../../stack/LwMesh/TDMA/nwk/src/nwkDataReq.c **** 	if(req->options < NWK_OPT_LLDN_BEACON ) // use original frame allocation
 173               		.loc 1 113 0
 174 00b2 8D81      		ldd r24,Y+5
 175 00b4 9E81      		ldd r25,Y+6
 176 00b6 FC01      		movw r30,r24
 177 00b8 8185      		ldd r24,Z+9
 178 00ba 9285      		ldd r25,Z+10
 179 00bc 8034      		cpi r24,64
 180 00be 9105      		cpc r25,__zero_reg__
 181 00c0 00F4      		brsh .L7
 114:../../../stack/LwMesh/TDMA/nwk/src/nwkDataReq.c **** 	{																			 	// this is not optimezed for
 115:../../../stack/LwMesh/TDMA/nwk/src/nwkDataReq.c **** 		if(NULL == (frame = nwkFrameAlloc()))	// NWK_OPT_BEACON
 182               		.loc 1 115 0
 183 00c2 0E94 0000 		call nwkFrameAlloc
 184 00c6 9A83      		std Y+2,r25
 185 00c8 8983      		std Y+1,r24
 186 00ca 8981      		ldd r24,Y+1
 187 00cc 9A81      		ldd r25,Y+2
 188 00ce 892B      		or r24,r25
 189 00d0 01F4      		brne .L8
 116:../../../stack/LwMesh/TDMA/nwk/src/nwkDataReq.c **** 		{
 117:../../../stack/LwMesh/TDMA/nwk/src/nwkDataReq.c **** 			req->state = NWK_DATA_REQ_STATE_CONFIRM;
 190               		.loc 1 117 0
 191 00d2 8D81      		ldd r24,Y+5
 192 00d4 9E81      		ldd r25,Y+6
 193 00d6 22E0      		ldi r18,lo8(2)
 194 00d8 FC01      		movw r30,r24
 195 00da 2483      		std Z+4,r18
 118:../../../stack/LwMesh/TDMA/nwk/src/nwkDataReq.c **** 			req->status = NWK_OUT_OF_MEMORY_STATUS;
 196               		.loc 1 118 0
 197 00dc 8D81      		ldd r24,Y+5
 198 00de 9E81      		ldd r25,Y+6
 199 00e0 22E0      		ldi r18,lo8(2)
 200 00e2 FC01      		movw r30,r24
 201 00e4 208B      		std Z+16,r18
 119:../../../stack/LwMesh/TDMA/nwk/src/nwkDataReq.c **** 			return;
 202               		.loc 1 119 0
 203 00e6 00C0      		rjmp .L6
 204               	.L7:
 120:../../../stack/LwMesh/TDMA/nwk/src/nwkDataReq.c **** 		}
 121:../../../stack/LwMesh/TDMA/nwk/src/nwkDataReq.c **** 	}	else {		// use LLDN allocation, alocattes depending on header size
 122:../../../stack/LwMesh/TDMA/nwk/src/nwkDataReq.c **** 		if( NULL == (frame = ((req->options & NWK_OPT_LLDN_BEACON) ? nwkFrameAlloc_LLDN(true) : nwkFrameA
 205               		.loc 1 122 0
 206 00e8 8D81      		ldd r24,Y+5
 207 00ea 9E81      		ldd r25,Y+6
 208 00ec FC01      		movw r30,r24
 209 00ee 8185      		ldd r24,Z+9
 210 00f0 9285      		ldd r25,Z+10
 211 00f2 8074      		andi r24,64
 212 00f4 9927      		clr r25
 213 00f6 892B      		or r24,r25
 214 00f8 01F0      		breq .L10
 215               		.loc 1 122 0 is_stmt 0 discriminator 1
 216 00fa 81E0      		ldi r24,lo8(1)
 217 00fc 0E94 0000 		call nwkFrameAlloc_LLDN
 218 0100 00C0      		rjmp .L11
 219               	.L10:
 220               		.loc 1 122 0 discriminator 2
 221 0102 80E0      		ldi r24,0
 222 0104 0E94 0000 		call nwkFrameAlloc_LLDN
 223               	.L11:
 224               		.loc 1 122 0 discriminator 4
 225 0108 9A83      		std Y+2,r25
 226 010a 8983      		std Y+1,r24
 227 010c 8981      		ldd r24,Y+1
 228 010e 9A81      		ldd r25,Y+2
 229 0110 892B      		or r24,r25
 230 0112 01F4      		brne .L8
 123:../../../stack/LwMesh/TDMA/nwk/src/nwkDataReq.c **** 		{
 124:../../../stack/LwMesh/TDMA/nwk/src/nwkDataReq.c **** 			// if there isn't space avaible in frame buffer queue, requested message
 125:../../../stack/LwMesh/TDMA/nwk/src/nwkDataReq.c **** 			// can't be process
 126:../../../stack/LwMesh/TDMA/nwk/src/nwkDataReq.c **** 			req->state = NWK_DATA_REQ_STATE_CONFIRM;
 231               		.loc 1 126 0 is_stmt 1
 232 0114 8D81      		ldd r24,Y+5
 233 0116 9E81      		ldd r25,Y+6
 234 0118 22E0      		ldi r18,lo8(2)
 235 011a FC01      		movw r30,r24
 236 011c 2483      		std Z+4,r18
 127:../../../stack/LwMesh/TDMA/nwk/src/nwkDataReq.c **** 			req->status = NWK_OUT_OF_MEMORY_STATUS;
 237               		.loc 1 127 0
 238 011e 8D81      		ldd r24,Y+5
 239 0120 9E81      		ldd r25,Y+6
 240 0122 22E0      		ldi r18,lo8(2)
 241 0124 FC01      		movw r30,r24
 242 0126 208B      		std Z+16,r18
 128:../../../stack/LwMesh/TDMA/nwk/src/nwkDataReq.c **** 			return;
 243               		.loc 1 128 0
 244 0128 00C0      		rjmp .L6
 245               	.L8:
 129:../../../stack/LwMesh/TDMA/nwk/src/nwkDataReq.c **** 		}
 130:../../../stack/LwMesh/TDMA/nwk/src/nwkDataReq.c **** 	}
 131:../../../stack/LwMesh/TDMA/nwk/src/nwkDataReq.c **** 
 132:../../../stack/LwMesh/TDMA/nwk/src/nwkDataReq.c **** 	if(req->options & NWK_OPT_LLDN_BEACON)
 246               		.loc 1 132 0
 247 012a 8D81      		ldd r24,Y+5
 248 012c 9E81      		ldd r25,Y+6
 249 012e FC01      		movw r30,r24
 250 0130 8185      		ldd r24,Z+9
 251 0132 9285      		ldd r25,Z+10
 252 0134 8074      		andi r24,64
 253 0136 9927      		clr r25
 254 0138 892B      		or r24,r25
 255 013a 01F4      		brne .+2
 256 013c 00C0      		rjmp .L12
 257               	.LBB2:
 133:../../../stack/LwMesh/TDMA/nwk/src/nwkDataReq.c **** 	{
 134:../../../stack/LwMesh/TDMA/nwk/src/nwkDataReq.c **** 		frame->tx.control = 0;
 258               		.loc 1 134 0
 259 013e 8981      		ldd r24,Y+1
 260 0140 9A81      		ldd r25,Y+2
 261 0142 8A57      		subi r24,122
 262 0144 9F4F      		sbci r25,-1
 263 0146 FC01      		movw r30,r24
 264 0148 1082      		st Z,__zero_reg__
 135:../../../stack/LwMesh/TDMA/nwk/src/nwkDataReq.c **** 		// Set Flag depending on current state of coordinator
 136:../../../stack/LwMesh/TDMA/nwk/src/nwkDataReq.c **** 		if (req->options & NWK_OPT_LLDN_BEACON_ONLINE)
 265               		.loc 1 136 0
 266 014a 8D81      		ldd r24,Y+5
 267 014c 9E81      		ldd r25,Y+6
 268 014e FC01      		movw r30,r24
 269 0150 8185      		ldd r24,Z+9
 270 0152 9285      		ldd r25,Z+10
 271 0154 8078      		andi r24,128
 272 0156 9927      		clr r25
 273 0158 892B      		or r24,r25
 274 015a 01F0      		breq .L13
 137:../../../stack/LwMesh/TDMA/nwk/src/nwkDataReq.c **** 			frame->LLbeacon.Flags.txState = 0b000; // online mode
 275               		.loc 1 137 0
 276 015c 8981      		ldd r24,Y+1
 277 015e 9A81      		ldd r25,Y+2
 278 0160 FC01      		movw r30,r24
 279 0162 2581      		ldd r18,Z+5
 280 0164 287F      		andi r18,lo8(-8)
 281 0166 FC01      		movw r30,r24
 282 0168 2583      		std Z+5,r18
 283 016a 00C0      		rjmp .L14
 284               	.L13:
 138:../../../stack/LwMesh/TDMA/nwk/src/nwkDataReq.c **** 		else if (req->options & NWK_OPT_LLDN_BEACON_DISCOVERY)
 285               		.loc 1 138 0
 286 016c 8D81      		ldd r24,Y+5
 287 016e 9E81      		ldd r25,Y+6
 288 0170 FC01      		movw r30,r24
 289 0172 8185      		ldd r24,Z+9
 290 0174 9285      		ldd r25,Z+10
 291 0176 8827      		clr r24
 292 0178 9170      		andi r25,1
 293 017a 892B      		or r24,r25
 294 017c 01F0      		breq .L15
 139:../../../stack/LwMesh/TDMA/nwk/src/nwkDataReq.c **** 			frame->LLbeacon.Flags.txState = 0b100; // discovery mode
 295               		.loc 1 139 0
 296 017e 8981      		ldd r24,Y+1
 297 0180 9A81      		ldd r25,Y+2
 298 0182 FC01      		movw r30,r24
 299 0184 2581      		ldd r18,Z+5
 300 0186 287F      		andi r18,lo8(-8)
 301 0188 2460      		ori r18,lo8(4)
 302 018a FC01      		movw r30,r24
 303 018c 2583      		std Z+5,r18
 304 018e 00C0      		rjmp .L14
 305               	.L15:
 140:../../../stack/LwMesh/TDMA/nwk/src/nwkDataReq.c **** 		else if (req->options & NWK_OPT_LLDN_BEACON_CONFIG)
 306               		.loc 1 140 0
 307 0190 8D81      		ldd r24,Y+5
 308 0192 9E81      		ldd r25,Y+6
 309 0194 FC01      		movw r30,r24
 310 0196 8185      		ldd r24,Z+9
 311 0198 9285      		ldd r25,Z+10
 312 019a 8827      		clr r24
 313 019c 9270      		andi r25,2
 314 019e 892B      		or r24,r25
 315 01a0 01F0      		breq .L16
 141:../../../stack/LwMesh/TDMA/nwk/src/nwkDataReq.c **** 			frame->LLbeacon.Flags.txState = 0b110; // configuration mode
 316               		.loc 1 141 0
 317 01a2 8981      		ldd r24,Y+1
 318 01a4 9A81      		ldd r25,Y+2
 319 01a6 FC01      		movw r30,r24
 320 01a8 2581      		ldd r18,Z+5
 321 01aa 287F      		andi r18,lo8(-8)
 322 01ac 2660      		ori r18,lo8(6)
 323 01ae FC01      		movw r30,r24
 324 01b0 2583      		std Z+5,r18
 325 01b2 00C0      		rjmp .L14
 326               	.L16:
 142:../../../stack/LwMesh/TDMA/nwk/src/nwkDataReq.c **** 		else if (req->options & NWK_OPT_LLDN_BEACON_RESET)
 327               		.loc 1 142 0
 328 01b4 8D81      		ldd r24,Y+5
 329 01b6 9E81      		ldd r25,Y+6
 330 01b8 FC01      		movw r30,r24
 331 01ba 8185      		ldd r24,Z+9
 332 01bc 9285      		ldd r25,Z+10
 333 01be 8827      		clr r24
 334 01c0 9470      		andi r25,4
 335 01c2 892B      		or r24,r25
 336 01c4 01F0      		breq .L14
 143:../../../stack/LwMesh/TDMA/nwk/src/nwkDataReq.c **** 			frame->LLbeacon.Flags.txState = 0b111; // full reset mode
 337               		.loc 1 143 0
 338 01c6 8981      		ldd r24,Y+1
 339 01c8 9A81      		ldd r25,Y+2
 340 01ca FC01      		movw r30,r24
 341 01cc 2581      		ldd r18,Z+5
 342 01ce 2760      		ori r18,lo8(7)
 343 01d0 FC01      		movw r30,r24
 344 01d2 2583      		std Z+5,r18
 345               	.L14:
 144:../../../stack/LwMesh/TDMA/nwk/src/nwkDataReq.c **** 
 145:../../../stack/LwMesh/TDMA/nwk/src/nwkDataReq.c **** 		// set biderectional time slots: 0 - downlink 1 - uplink
 146:../../../stack/LwMesh/TDMA/nwk/src/nwkDataReq.c **** 		frame->LLbeacon.Flags.txDir 		= 0b0;
 346               		.loc 1 146 0
 347 01d4 8981      		ldd r24,Y+1
 348 01d6 9A81      		ldd r25,Y+2
 349 01d8 FC01      		movw r30,r24
 350 01da 2581      		ldd r18,Z+5
 351 01dc 277F      		andi r18,lo8(-9)
 352 01de FC01      		movw r30,r24
 353 01e0 2583      		std Z+5,r18
 147:../../../stack/LwMesh/TDMA/nwk/src/nwkDataReq.c **** 		frame->LLbeacon.Flags.reserved 	= 0b0;
 354               		.loc 1 147 0
 355 01e2 8981      		ldd r24,Y+1
 356 01e4 9A81      		ldd r25,Y+2
 357 01e6 FC01      		movw r30,r24
 358 01e8 2581      		ldd r18,Z+5
 359 01ea 2F7E      		andi r18,lo8(-17)
 360 01ec FC01      		movw r30,r24
 361 01ee 2583      		std Z+5,r18
 148:../../../stack/LwMesh/TDMA/nwk/src/nwkDataReq.c **** 		// set number of managment timeslots
 149:../../../stack/LwMesh/TDMA/nwk/src/nwkDataReq.c **** 		frame->LLbeacon.Flags.numMgmtTimeslots = NWK_NUMBER_OF_MGMT_TIMESLOTS;
 362               		.loc 1 149 0
 363 01f0 8981      		ldd r24,Y+1
 364 01f2 9A81      		ldd r25,Y+2
 365 01f4 FC01      		movw r30,r24
 366 01f6 2581      		ldd r18,Z+5
 367 01f8 206E      		ori r18,lo8(-32)
 368 01fa FC01      		movw r30,r24
 369 01fc 2583      		std Z+5,r18
 150:../../../stack/LwMesh/TDMA/nwk/src/nwkDataReq.c **** 
 151:../../../stack/LwMesh/TDMA/nwk/src/nwkDataReq.c **** 		if (req->options & 	NWK_OPT_LLDN_BEACON_SECOND)
 370               		.loc 1 151 0
 371 01fe 8D81      		ldd r24,Y+5
 372 0200 9E81      		ldd r25,Y+6
 373 0202 FC01      		movw r30,r24
 374 0204 8185      		ldd r24,Z+9
 375 0206 9285      		ldd r25,Z+10
 376 0208 8827      		clr r24
 377 020a 9870      		andi r25,8
 378 020c 892B      		or r24,r25
 379 020e 01F0      		breq .L17
 152:../../../stack/LwMesh/TDMA/nwk/src/nwkDataReq.c **** 		 frame->LLbeacon.confSeqNumber = 0x01;
 380               		.loc 1 152 0
 381 0210 8981      		ldd r24,Y+1
 382 0212 9A81      		ldd r25,Y+2
 383 0214 21E0      		ldi r18,lo8(1)
 384 0216 FC01      		movw r30,r24
 385 0218 2783      		std Z+7,r18
 386 021a 00C0      		rjmp .L18
 387               	.L17:
 153:../../../stack/LwMesh/TDMA/nwk/src/nwkDataReq.c **** 		else if (req->options & 	NWK_OPT_LLDN_BEACON_THIRD)
 388               		.loc 1 153 0
 389 021c 8D81      		ldd r24,Y+5
 390 021e 9E81      		ldd r25,Y+6
 391 0220 FC01      		movw r30,r24
 392 0222 8185      		ldd r24,Z+9
 393 0224 9285      		ldd r25,Z+10
 394 0226 8827      		clr r24
 395 0228 9071      		andi r25,16
 396 022a 892B      		or r24,r25
 397 022c 01F0      		breq .L19
 154:../../../stack/LwMesh/TDMA/nwk/src/nwkDataReq.c **** 			frame->LLbeacon.confSeqNumber = 0x02;
 398               		.loc 1 154 0
 399 022e 8981      		ldd r24,Y+1
 400 0230 9A81      		ldd r25,Y+2
 401 0232 22E0      		ldi r18,lo8(2)
 402 0234 FC01      		movw r30,r24
 403 0236 2783      		std Z+7,r18
 404 0238 00C0      		rjmp .L18
 405               	.L19:
 155:../../../stack/LwMesh/TDMA/nwk/src/nwkDataReq.c **** 		else frame->LLbeacon.confSeqNumber = 0x00;
 406               		.loc 1 155 0
 407 023a 8981      		ldd r24,Y+1
 408 023c 9A81      		ldd r25,Y+2
 409 023e FC01      		movw r30,r24
 410 0240 1782      		std Z+7,__zero_reg__
 411               	.L18:
 156:../../../stack/LwMesh/TDMA/nwk/src/nwkDataReq.c **** 
 157:../../../stack/LwMesh/TDMA/nwk/src/nwkDataReq.c **** 		frame->LLbeacon.TimeSlotSize 	= 0xff; // calculation needs to be implemented, see timers first
 412               		.loc 1 157 0
 413 0242 8981      		ldd r24,Y+1
 414 0244 9A81      		ldd r25,Y+2
 415 0246 2FEF      		ldi r18,lo8(-1)
 416 0248 FC01      		movw r30,r24
 417 024a 2087      		std Z+8,r18
 158:../../../stack/LwMesh/TDMA/nwk/src/nwkDataReq.c **** 
 159:../../../stack/LwMesh/TDMA/nwk/src/nwkDataReq.c **** 		uint8_t* shortAddr = (uint8_t* )nwkIb.addr;
 418               		.loc 1 159 0
 419 024c 8091 0000 		lds r24,nwkIb
 420 0250 9091 0000 		lds r25,nwkIb+1
 421 0254 9C83      		std Y+4,r25
 422 0256 8B83      		std Y+3,r24
 160:../../../stack/LwMesh/TDMA/nwk/src/nwkDataReq.c **** 		frame->LLbeacon.PanId = shortAddr[0];
 423               		.loc 1 160 0
 424 0258 8B81      		ldd r24,Y+3
 425 025a 9C81      		ldd r25,Y+4
 426 025c FC01      		movw r30,r24
 427 025e 2081      		ld r18,Z
 428 0260 8981      		ldd r24,Y+1
 429 0262 9A81      		ldd r25,Y+2
 430 0264 FC01      		movw r30,r24
 431 0266 2683      		std Z+6,r18
 161:../../../stack/LwMesh/TDMA/nwk/src/nwkDataReq.c **** 		// set Frame Control, Security Header and Sequence Nuber fields
 162:../../../stack/LwMesh/TDMA/nwk/src/nwkDataReq.c **** 		nwkTxBeaconFrameLLDN(frame);
 432               		.loc 1 162 0
 433 0268 8981      		ldd r24,Y+1
 434 026a 9A81      		ldd r25,Y+2
 435 026c 0E94 0000 		call nwkTxBeaconFrameLLDN
 436               	.LBE2:
 437 0270 00C0      		rjmp .L20
 438               	.L12:
 163:../../../stack/LwMesh/TDMA/nwk/src/nwkDataReq.c **** 	}
 164:../../../stack/LwMesh/TDMA/nwk/src/nwkDataReq.c **** 	else if(req->options & NWK_OPT_MAC_COMMAND ||
 439               		.loc 1 164 0
 440 0272 8D81      		ldd r24,Y+5
 441 0274 9E81      		ldd r25,Y+6
 442 0276 FC01      		movw r30,r24
 443 0278 8185      		ldd r24,Z+9
 444 027a 9285      		ldd r25,Z+10
 445 027c 9923      		tst r25
 446 027e 04F0      		brlt .L21
 165:../../../stack/LwMesh/TDMA/nwk/src/nwkDataReq.c **** 					req->options & NWK_OPT_LLDN_DATA 	||
 447               		.loc 1 165 0 discriminator 1
 448 0280 8D81      		ldd r24,Y+5
 449 0282 9E81      		ldd r25,Y+6
 450 0284 FC01      		movw r30,r24
 451 0286 8185      		ldd r24,Z+9
 452 0288 9285      		ldd r25,Z+10
 453 028a 8827      		clr r24
 454 028c 9072      		andi r25,32
 164:../../../stack/LwMesh/TDMA/nwk/src/nwkDataReq.c **** 					req->options & NWK_OPT_LLDN_DATA 	||
 455               		.loc 1 164 0 discriminator 1
 456 028e 892B      		or r24,r25
 457 0290 01F4      		brne .L21
 166:../../../stack/LwMesh/TDMA/nwk/src/nwkDataReq.c **** 					req->options & NWK_OPT_LLDN_ACK )
 458               		.loc 1 166 0
 459 0292 8D81      		ldd r24,Y+5
 460 0294 9E81      		ldd r25,Y+6
 461 0296 FC01      		movw r30,r24
 462 0298 8185      		ldd r24,Z+9
 463 029a 9285      		ldd r25,Z+10
 464 029c 8827      		clr r24
 465 029e 9074      		andi r25,64
 165:../../../stack/LwMesh/TDMA/nwk/src/nwkDataReq.c **** 					req->options & NWK_OPT_LLDN_DATA 	||
 466               		.loc 1 165 0
 467 02a0 892B      		or r24,r25
 468 02a2 01F0      		breq .L22
 469               	.L21:
 167:../../../stack/LwMesh/TDMA/nwk/src/nwkDataReq.c **** 	{
 168:../../../stack/LwMesh/TDMA/nwk/src/nwkDataReq.c **** 		frame->tx.control = 0;
 470               		.loc 1 168 0
 471 02a4 8981      		ldd r24,Y+1
 472 02a6 9A81      		ldd r25,Y+2
 473 02a8 8A57      		subi r24,122
 474 02aa 9F4F      		sbci r25,-1
 475 02ac FC01      		movw r30,r24
 476 02ae 1082      		st Z,__zero_reg__
 169:../../../stack/LwMesh/TDMA/nwk/src/nwkDataReq.c **** 		memcpy(frame->payload, req->data, req->size);
 477               		.loc 1 169 0
 478 02b0 8D81      		ldd r24,Y+5
 479 02b2 9E81      		ldd r25,Y+6
 480 02b4 FC01      		movw r30,r24
 481 02b6 8585      		ldd r24,Z+13
 482 02b8 482F      		mov r20,r24
 483 02ba 50E0      		ldi r21,0
 484 02bc 8D81      		ldd r24,Y+5
 485 02be 9E81      		ldd r25,Y+6
 486 02c0 FC01      		movw r30,r24
 487 02c2 2385      		ldd r18,Z+11
 488 02c4 3485      		ldd r19,Z+12
 489 02c6 8981      		ldd r24,Y+1
 490 02c8 9A81      		ldd r25,Y+2
 491 02ca 8F57      		subi r24,127
 492 02cc 9F4F      		sbci r25,-1
 493 02ce FC01      		movw r30,r24
 494 02d0 8081      		ld r24,Z
 495 02d2 9181      		ldd r25,Z+1
 496 02d4 B901      		movw r22,r18
 497 02d6 0E94 0000 		call memcpy
 170:../../../stack/LwMesh/TDMA/nwk/src/nwkDataReq.c **** 		frame->size += req->size;
 498               		.loc 1 170 0
 499 02da 8981      		ldd r24,Y+1
 500 02dc 9A81      		ldd r25,Y+2
 501 02de FC01      		movw r30,r24
 502 02e0 2181      		ldd r18,Z+1
 503 02e2 8D81      		ldd r24,Y+5
 504 02e4 9E81      		ldd r25,Y+6
 505 02e6 FC01      		movw r30,r24
 506 02e8 8585      		ldd r24,Z+13
 507 02ea 280F      		add r18,r24
 508 02ec 8981      		ldd r24,Y+1
 509 02ee 9A81      		ldd r25,Y+2
 510 02f0 FC01      		movw r30,r24
 511 02f2 2183      		std Z+1,r18
 171:../../../stack/LwMesh/TDMA/nwk/src/nwkDataReq.c **** 		nwkTxMacCommandFrameLLDN(frame, req->options);
 512               		.loc 1 171 0
 513 02f4 8D81      		ldd r24,Y+5
 514 02f6 9E81      		ldd r25,Y+6
 515 02f8 FC01      		movw r30,r24
 516 02fa 2185      		ldd r18,Z+9
 517 02fc 3285      		ldd r19,Z+10
 518 02fe 8981      		ldd r24,Y+1
 519 0300 9A81      		ldd r25,Y+2
 520 0302 B901      		movw r22,r18
 521 0304 0E94 0000 		call nwkTxMacCommandFrameLLDN
 522 0308 00C0      		rjmp .L20
 523               	.L22:
 172:../../../stack/LwMesh/TDMA/nwk/src/nwkDataReq.c **** 	}
 173:../../../stack/LwMesh/TDMA/nwk/src/nwkDataReq.c **** 	else if(req->options & NWK_OPT_BEACON )
 524               		.loc 1 173 0
 525 030a 8D81      		ldd r24,Y+5
 526 030c 9E81      		ldd r25,Y+6
 527 030e FC01      		movw r30,r24
 528 0310 8185      		ldd r24,Z+9
 529 0312 9285      		ldd r25,Z+10
 530 0314 8072      		andi r24,32
 531 0316 9927      		clr r25
 532 0318 892B      		or r24,r25
 533 031a 01F4      		brne .+2
 534 031c 00C0      		rjmp .L23
 174:../../../stack/LwMesh/TDMA/nwk/src/nwkDataReq.c **** 	{
 175:../../../stack/LwMesh/TDMA/nwk/src/nwkDataReq.c **** 		frame->tx.control = 0;
 535               		.loc 1 175 0
 536 031e 8981      		ldd r24,Y+1
 537 0320 9A81      		ldd r25,Y+2
 538 0322 8A57      		subi r24,122
 539 0324 9F4F      		sbci r25,-1
 540 0326 FC01      		movw r30,r24
 541 0328 1082      		st Z,__zero_reg__
 176:../../../stack/LwMesh/TDMA/nwk/src/nwkDataReq.c **** 
 177:../../../stack/LwMesh/TDMA/nwk/src/nwkDataReq.c **** 		frame->beacon.macSFS.beaconOrder = BI_COEF;
 542               		.loc 1 177 0
 543 032a 8981      		ldd r24,Y+1
 544 032c 9A81      		ldd r25,Y+2
 545 032e FC01      		movw r30,r24
 546 0330 2185      		ldd r18,Z+9
 547 0332 207F      		andi r18,lo8(-16)
 548 0334 2860      		ori r18,lo8(8)
 549 0336 FC01      		movw r30,r24
 550 0338 2187      		std Z+9,r18
 178:../../../stack/LwMesh/TDMA/nwk/src/nwkDataReq.c **** 		frame->beacon.macSFS.superframeOrder = SD_COEF;
 551               		.loc 1 178 0
 552 033a 8981      		ldd r24,Y+1
 553 033c 9A81      		ldd r25,Y+2
 554 033e FC01      		movw r30,r24
 555 0340 2185      		ldd r18,Z+9
 556 0342 2F70      		andi r18,lo8(15)
 557 0344 2066      		ori r18,lo8(96)
 558 0346 FC01      		movw r30,r24
 559 0348 2187      		std Z+9,r18
 179:../../../stack/LwMesh/TDMA/nwk/src/nwkDataReq.c **** 		frame->beacon.macSFS.finalCAPslot = FINAL_CAP_SLOT;
 560               		.loc 1 179 0
 561 034a 8981      		ldd r24,Y+1
 562 034c 9A81      		ldd r25,Y+2
 563 034e FC01      		movw r30,r24
 564 0350 2285      		ldd r18,Z+10
 565 0352 207F      		andi r18,lo8(-16)
 566 0354 2160      		ori r18,lo8(1)
 567 0356 FC01      		movw r30,r24
 568 0358 2287      		std Z+10,r18
 180:../../../stack/LwMesh/TDMA/nwk/src/nwkDataReq.c **** 		frame->beacon.macSFS.BatteryLifeExtension = TDMA_BATTERY_EXTENSION;
 569               		.loc 1 180 0
 570 035a 8981      		ldd r24,Y+1
 571 035c 9A81      		ldd r25,Y+2
 572 035e FC01      		movw r30,r24
 573 0360 2285      		ldd r18,Z+10
 574 0362 2061      		ori r18,lo8(16)
 575 0364 FC01      		movw r30,r24
 576 0366 2287      		std Z+10,r18
 181:../../../stack/LwMesh/TDMA/nwk/src/nwkDataReq.c **** 		frame->beacon.macSFS.PANCoordinator = 1;
 577               		.loc 1 181 0
 578 0368 8981      		ldd r24,Y+1
 579 036a 9A81      		ldd r25,Y+2
 580 036c FC01      		movw r30,r24
 581 036e 2285      		ldd r18,Z+10
 582 0370 2064      		ori r18,lo8(64)
 583 0372 FC01      		movw r30,r24
 584 0374 2287      		std Z+10,r18
 182:../../../stack/LwMesh/TDMA/nwk/src/nwkDataReq.c **** 		frame->beacon.macSFS.AssociationPermit = 0;
 585               		.loc 1 182 0
 586 0376 8981      		ldd r24,Y+1
 587 0378 9A81      		ldd r25,Y+2
 588 037a FC01      		movw r30,r24
 589 037c 2285      		ldd r18,Z+10
 590 037e 2F77      		andi r18,lo8(127)
 591 0380 FC01      		movw r30,r24
 592 0382 2287      		std Z+10,r18
 183:../../../stack/LwMesh/TDMA/nwk/src/nwkDataReq.c **** 
 184:../../../stack/LwMesh/TDMA/nwk/src/nwkDataReq.c **** 		frame->beacon.macGTS = 0;
 593               		.loc 1 184 0
 594 0384 8981      		ldd r24,Y+1
 595 0386 9A81      		ldd r25,Y+2
 596 0388 FC01      		movw r30,r24
 597 038a 1386      		std Z+11,__zero_reg__
 185:../../../stack/LwMesh/TDMA/nwk/src/nwkDataReq.c **** 		frame->beacon.macPending = 0;
 598               		.loc 1 185 0
 599 038c 8981      		ldd r24,Y+1
 600 038e 9A81      		ldd r25,Y+2
 601 0390 FC01      		movw r30,r24
 602 0392 1486      		std Z+12,__zero_reg__
 186:../../../stack/LwMesh/TDMA/nwk/src/nwkDataReq.c **** 
 187:../../../stack/LwMesh/TDMA/nwk/src/nwkDataReq.c **** 		memcpy(frame->payload, req->data, req->size);
 603               		.loc 1 187 0
 604 0394 8D81      		ldd r24,Y+5
 605 0396 9E81      		ldd r25,Y+6
 606 0398 FC01      		movw r30,r24
 607 039a 8585      		ldd r24,Z+13
 608 039c 482F      		mov r20,r24
 609 039e 50E0      		ldi r21,0
 610 03a0 8D81      		ldd r24,Y+5
 611 03a2 9E81      		ldd r25,Y+6
 612 03a4 FC01      		movw r30,r24
 613 03a6 2385      		ldd r18,Z+11
 614 03a8 3485      		ldd r19,Z+12
 615 03aa 8981      		ldd r24,Y+1
 616 03ac 9A81      		ldd r25,Y+2
 617 03ae 8F57      		subi r24,127
 618 03b0 9F4F      		sbci r25,-1
 619 03b2 FC01      		movw r30,r24
 620 03b4 8081      		ld r24,Z
 621 03b6 9181      		ldd r25,Z+1
 622 03b8 B901      		movw r22,r18
 623 03ba 0E94 0000 		call memcpy
 188:../../../stack/LwMesh/TDMA/nwk/src/nwkDataReq.c **** 		frame->size += req->size;
 624               		.loc 1 188 0
 625 03be 8981      		ldd r24,Y+1
 626 03c0 9A81      		ldd r25,Y+2
 627 03c2 FC01      		movw r30,r24
 628 03c4 2181      		ldd r18,Z+1
 629 03c6 8D81      		ldd r24,Y+5
 630 03c8 9E81      		ldd r25,Y+6
 631 03ca FC01      		movw r30,r24
 632 03cc 8585      		ldd r24,Z+13
 633 03ce 280F      		add r18,r24
 634 03d0 8981      		ldd r24,Y+1
 635 03d2 9A81      		ldd r25,Y+2
 636 03d4 FC01      		movw r30,r24
 637 03d6 2183      		std Z+1,r18
 189:../../../stack/LwMesh/TDMA/nwk/src/nwkDataReq.c **** 
 190:../../../stack/LwMesh/TDMA/nwk/src/nwkDataReq.c **** 		nwkTxBeaconFrame(frame);
 638               		.loc 1 190 0
 639 03d8 8981      		ldd r24,Y+1
 640 03da 9A81      		ldd r25,Y+2
 641 03dc 0E94 0000 		call nwkTxBeaconFrame
 642 03e0 00C0      		rjmp .L20
 643               	.L23:
 191:../../../stack/LwMesh/TDMA/nwk/src/nwkDataReq.c **** 	}
 192:../../../stack/LwMesh/TDMA/nwk/src/nwkDataReq.c **** 	else
 193:../../../stack/LwMesh/TDMA/nwk/src/nwkDataReq.c **** 	{
 194:../../../stack/LwMesh/TDMA/nwk/src/nwkDataReq.c **** 		frame->tx.control = (req->options & NWK_OPT_BROADCAST_PAN_ID) ? NWK_TX_CONTROL_BROADCAST_PAN_ID :
 644               		.loc 1 194 0
 645 03e2 8D81      		ldd r24,Y+5
 646 03e4 9E81      		ldd r25,Y+6
 647 03e6 FC01      		movw r30,r24
 648 03e8 8185      		ldd r24,Z+9
 649 03ea 9285      		ldd r25,Z+10
 650 03ec 8470      		andi r24,4
 651 03ee 9927      		clr r25
 652 03f0 21E0      		ldi r18,lo8(1)
 653 03f2 892B      		or r24,r25
 654 03f4 01F4      		brne .L24
 655 03f6 20E0      		ldi r18,0
 656               	.L24:
 657 03f8 8981      		ldd r24,Y+1
 658 03fa 9A81      		ldd r25,Y+2
 659 03fc 8A57      		subi r24,122
 660 03fe 9F4F      		sbci r25,-1
 661 0400 FC01      		movw r30,r24
 662 0402 2083      		st Z,r18
 195:../../../stack/LwMesh/TDMA/nwk/src/nwkDataReq.c **** 
 196:../../../stack/LwMesh/TDMA/nwk/src/nwkDataReq.c **** 		frame->header.nwkFcf.ackRequest = (req->options & NWK_OPT_ACK_REQUEST) ? 1 : 0;
 663               		.loc 1 196 0
 664 0404 8D81      		ldd r24,Y+5
 665 0406 9E81      		ldd r25,Y+6
 666 0408 FC01      		movw r30,r24
 667 040a 8185      		ldd r24,Z+9
 668 040c 9285      		ldd r25,Z+10
 669 040e 8170      		andi r24,1
 670 0410 9927      		clr r25
 671 0412 21E0      		ldi r18,lo8(1)
 672 0414 892B      		or r24,r25
 673 0416 01F4      		brne .L25
 674 0418 20E0      		ldi r18,0
 675               	.L25:
 676 041a 8981      		ldd r24,Y+1
 677 041c 9A81      		ldd r25,Y+2
 678 041e 2170      		andi r18,lo8(1)
 679 0420 FC01      		movw r30,r24
 680 0422 3385      		ldd r19,Z+11
 681 0424 3E7F      		andi r19,lo8(-2)
 682 0426 232B      		or r18,r19
 683 0428 FC01      		movw r30,r24
 684 042a 2387      		std Z+11,r18
 197:../../../stack/LwMesh/TDMA/nwk/src/nwkDataReq.c **** 		frame->header.nwkFcf.linkLocal = (req->options & NWK_OPT_LINK_LOCAL) ? 1 : 0;
 685               		.loc 1 197 0
 686 042c 8D81      		ldd r24,Y+5
 687 042e 9E81      		ldd r25,Y+6
 688 0430 FC01      		movw r30,r24
 689 0432 8185      		ldd r24,Z+9
 690 0434 9285      		ldd r25,Z+10
 691 0436 8870      		andi r24,8
 692 0438 9927      		clr r25
 693 043a 21E0      		ldi r18,lo8(1)
 694 043c 892B      		or r24,r25
 695 043e 01F4      		brne .L26
 696 0440 20E0      		ldi r18,0
 697               	.L26:
 698 0442 8981      		ldd r24,Y+1
 699 0444 9A81      		ldd r25,Y+2
 700 0446 2170      		andi r18,lo8(1)
 701 0448 220F      		lsl r18
 702 044a 220F      		lsl r18
 703 044c FC01      		movw r30,r24
 704 044e 3385      		ldd r19,Z+11
 705 0450 3B7F      		andi r19,lo8(-5)
 706 0452 232B      		or r18,r19
 707 0454 FC01      		movw r30,r24
 708 0456 2387      		std Z+11,r18
 198:../../../stack/LwMesh/TDMA/nwk/src/nwkDataReq.c **** 		frame->header.nwkFcf.beacon = (req->options & NWK_OPT_BEACON) ? 1 : 0;
 709               		.loc 1 198 0
 710 0458 8D81      		ldd r24,Y+5
 711 045a 9E81      		ldd r25,Y+6
 712 045c FC01      		movw r30,r24
 713 045e 8185      		ldd r24,Z+9
 714 0460 9285      		ldd r25,Z+10
 715 0462 8072      		andi r24,32
 716 0464 9927      		clr r25
 717 0466 21E0      		ldi r18,lo8(1)
 718 0468 892B      		or r24,r25
 719 046a 01F4      		brne .L27
 720 046c 20E0      		ldi r18,0
 721               	.L27:
 722 046e 8981      		ldd r24,Y+1
 723 0470 9A81      		ldd r25,Y+2
 724 0472 2170      		andi r18,lo8(1)
 725 0474 2295      		swap r18
 726 0476 207F      		andi r18,lo8(-16)
 727 0478 FC01      		movw r30,r24
 728 047a 3385      		ldd r19,Z+11
 729 047c 3F7E      		andi r19,lo8(-17)
 730 047e 232B      		or r18,r19
 731 0480 FC01      		movw r30,r24
 732 0482 2387      		std Z+11,r18
 199:../../../stack/LwMesh/TDMA/nwk/src/nwkDataReq.c **** 
 200:../../../stack/LwMesh/TDMA/nwk/src/nwkDataReq.c **** #ifdef NWK_ENABLE_SECURITY
 201:../../../stack/LwMesh/TDMA/nwk/src/nwkDataReq.c **** 		frame->header.nwkFcf.security = (req->options & NWK_OPT_ENABLE_SECURITY) ? 1 : 0;
 202:../../../stack/LwMesh/TDMA/nwk/src/nwkDataReq.c **** #endif
 203:../../../stack/LwMesh/TDMA/nwk/src/nwkDataReq.c **** 
 204:../../../stack/LwMesh/TDMA/nwk/src/nwkDataReq.c **** #ifdef NWK_ENABLE_MULTICAST
 205:../../../stack/LwMesh/TDMA/nwk/src/nwkDataReq.c **** 		frame->header.nwkFcf.multicast = (req->options & NWK_OPT_MULTICAST) ? 1 : 0;
 206:../../../stack/LwMesh/TDMA/nwk/src/nwkDataReq.c **** 
 207:../../../stack/LwMesh/TDMA/nwk/src/nwkDataReq.c **** 		if(frame->header.nwkFcf.multicast)
 208:../../../stack/LwMesh/TDMA/nwk/src/nwkDataReq.c **** 		{
 209:../../../stack/LwMesh/TDMA/nwk/src/nwkDataReq.c **** 			NwkFrameMulticastHeader_t *mcHeader = (NwkFrameMulticastHeader_t *)frame->payload;
 210:../../../stack/LwMesh/TDMA/nwk/src/nwkDataReq.c **** 
 211:../../../stack/LwMesh/TDMA/nwk/src/nwkDataReq.c **** 			mcHeader->memberRadius = req->memberRadius;
 212:../../../stack/LwMesh/TDMA/nwk/src/nwkDataReq.c **** 			mcHeader->maxMemberRadius = req->memberRadius;
 213:../../../stack/LwMesh/TDMA/nwk/src/nwkDataReq.c **** 			mcHeader->nonMemberRadius = req->nonMemberRadius;
 214:../../../stack/LwMesh/TDMA/nwk/src/nwkDataReq.c **** 			mcHeader->maxNonMemberRadius = req->nonMemberRadius;
 215:../../../stack/LwMesh/TDMA/nwk/src/nwkDataReq.c **** 
 216:../../../stack/LwMesh/TDMA/nwk/src/nwkDataReq.c **** 			frame->payload += sizeof(NwkFrameMulticastHeader_t);
 217:../../../stack/LwMesh/TDMA/nwk/src/nwkDataReq.c **** 			frame->size += sizeof(NwkFrameMulticastHeader_t);
 218:../../../stack/LwMesh/TDMA/nwk/src/nwkDataReq.c **** 		}
 219:../../../stack/LwMesh/TDMA/nwk/src/nwkDataReq.c **** #endif
 220:../../../stack/LwMesh/TDMA/nwk/src/nwkDataReq.c **** 
 221:../../../stack/LwMesh/TDMA/nwk/src/nwkDataReq.c **** 		frame->header.nwkSeq = ++nwkIb.nwkSeqNum;
 733               		.loc 1 221 0
 734 0484 8091 0000 		lds r24,nwkIb+4
 735 0488 8F5F      		subi r24,lo8(-(1))
 736 048a 8093 0000 		sts nwkIb+4,r24
 737 048e 2091 0000 		lds r18,nwkIb+4
 738 0492 8981      		ldd r24,Y+1
 739 0494 9A81      		ldd r25,Y+2
 740 0496 FC01      		movw r30,r24
 741 0498 2487      		std Z+12,r18
 222:../../../stack/LwMesh/TDMA/nwk/src/nwkDataReq.c **** 		frame->header.nwkSrcAddr = nwkIb.addr;
 742               		.loc 1 222 0
 743 049a 2091 0000 		lds r18,nwkIb
 744 049e 3091 0000 		lds r19,nwkIb+1
 745 04a2 8981      		ldd r24,Y+1
 746 04a4 9A81      		ldd r25,Y+2
 747 04a6 FC01      		movw r30,r24
 748 04a8 3687      		std Z+14,r19
 749 04aa 2587      		std Z+13,r18
 223:../../../stack/LwMesh/TDMA/nwk/src/nwkDataReq.c **** 		frame->header.nwkDstAddr = req->dstAddr;
 750               		.loc 1 223 0
 751 04ac 8D81      		ldd r24,Y+5
 752 04ae 9E81      		ldd r25,Y+6
 753 04b0 FC01      		movw r30,r24
 754 04b2 2581      		ldd r18,Z+5
 755 04b4 3681      		ldd r19,Z+6
 756 04b6 8981      		ldd r24,Y+1
 757 04b8 9A81      		ldd r25,Y+2
 758 04ba FC01      		movw r30,r24
 759 04bc 308B      		std Z+16,r19
 760 04be 2787      		std Z+15,r18
 224:../../../stack/LwMesh/TDMA/nwk/src/nwkDataReq.c **** 		frame->header.nwkSrcEndpoint = req->srcEndpoint;
 761               		.loc 1 224 0
 762 04c0 8D81      		ldd r24,Y+5
 763 04c2 9E81      		ldd r25,Y+6
 764 04c4 FC01      		movw r30,r24
 765 04c6 8085      		ldd r24,Z+8
 766 04c8 282F      		mov r18,r24
 767 04ca 2F70      		andi r18,lo8(15)
 768 04cc 8981      		ldd r24,Y+1
 769 04ce 9A81      		ldd r25,Y+2
 770 04d0 2F70      		andi r18,lo8(15)
 771 04d2 FC01      		movw r30,r24
 772 04d4 3189      		ldd r19,Z+17
 773 04d6 307F      		andi r19,lo8(-16)
 774 04d8 232B      		or r18,r19
 775 04da FC01      		movw r30,r24
 776 04dc 218B      		std Z+17,r18
 225:../../../stack/LwMesh/TDMA/nwk/src/nwkDataReq.c **** 		frame->header.nwkDstEndpoint = req->dstEndpoint;
 777               		.loc 1 225 0
 778 04de 8D81      		ldd r24,Y+5
 779 04e0 9E81      		ldd r25,Y+6
 780 04e2 FC01      		movw r30,r24
 781 04e4 8781      		ldd r24,Z+7
 782 04e6 282F      		mov r18,r24
 783 04e8 2F70      		andi r18,lo8(15)
 784 04ea 8981      		ldd r24,Y+1
 785 04ec 9A81      		ldd r25,Y+2
 786 04ee 2295      		swap r18
 787 04f0 207F      		andi r18,lo8(-16)
 788 04f2 FC01      		movw r30,r24
 789 04f4 3189      		ldd r19,Z+17
 790 04f6 3F70      		andi r19,lo8(15)
 791 04f8 232B      		or r18,r19
 792 04fa FC01      		movw r30,r24
 793 04fc 218B      		std Z+17,r18
 226:../../../stack/LwMesh/TDMA/nwk/src/nwkDataReq.c **** 
 227:../../../stack/LwMesh/TDMA/nwk/src/nwkDataReq.c **** 		memcpy(frame->payload, req->data, req->size);
 794               		.loc 1 227 0
 795 04fe 8D81      		ldd r24,Y+5
 796 0500 9E81      		ldd r25,Y+6
 797 0502 FC01      		movw r30,r24
 798 0504 8585      		ldd r24,Z+13
 799 0506 482F      		mov r20,r24
 800 0508 50E0      		ldi r21,0
 801 050a 8D81      		ldd r24,Y+5
 802 050c 9E81      		ldd r25,Y+6
 803 050e FC01      		movw r30,r24
 804 0510 2385      		ldd r18,Z+11
 805 0512 3485      		ldd r19,Z+12
 806 0514 8981      		ldd r24,Y+1
 807 0516 9A81      		ldd r25,Y+2
 808 0518 8F57      		subi r24,127
 809 051a 9F4F      		sbci r25,-1
 810 051c FC01      		movw r30,r24
 811 051e 8081      		ld r24,Z
 812 0520 9181      		ldd r25,Z+1
 813 0522 B901      		movw r22,r18
 814 0524 0E94 0000 		call memcpy
 228:../../../stack/LwMesh/TDMA/nwk/src/nwkDataReq.c **** 		frame->size += req->size;
 815               		.loc 1 228 0
 816 0528 8981      		ldd r24,Y+1
 817 052a 9A81      		ldd r25,Y+2
 818 052c FC01      		movw r30,r24
 819 052e 2181      		ldd r18,Z+1
 820 0530 8D81      		ldd r24,Y+5
 821 0532 9E81      		ldd r25,Y+6
 822 0534 FC01      		movw r30,r24
 823 0536 8585      		ldd r24,Z+13
 824 0538 280F      		add r18,r24
 825 053a 8981      		ldd r24,Y+1
 826 053c 9A81      		ldd r25,Y+2
 827 053e FC01      		movw r30,r24
 828 0540 2183      		std Z+1,r18
 229:../../../stack/LwMesh/TDMA/nwk/src/nwkDataReq.c **** 
 230:../../../stack/LwMesh/TDMA/nwk/src/nwkDataReq.c **** 		nwkTxFrame(frame);
 829               		.loc 1 230 0
 830 0542 8981      		ldd r24,Y+1
 831 0544 9A81      		ldd r25,Y+2
 832 0546 0E94 0000 		call nwkTxFrame
 833               	.L20:
 231:../../../stack/LwMesh/TDMA/nwk/src/nwkDataReq.c **** 	}
 232:../../../stack/LwMesh/TDMA/nwk/src/nwkDataReq.c **** 	req->frame = frame;
 834               		.loc 1 232 0
 835 054a 8D81      		ldd r24,Y+5
 836 054c 9E81      		ldd r25,Y+6
 837 054e 2981      		ldd r18,Y+1
 838 0550 3A81      		ldd r19,Y+2
 839 0552 FC01      		movw r30,r24
 840 0554 3383      		std Z+3,r19
 841 0556 2283      		std Z+2,r18
 233:../../../stack/LwMesh/TDMA/nwk/src/nwkDataReq.c **** 	req->state = NWK_DATA_REQ_STATE_WAIT_CONF;
 842               		.loc 1 233 0
 843 0558 8D81      		ldd r24,Y+5
 844 055a 9E81      		ldd r25,Y+6
 845 055c 21E0      		ldi r18,lo8(1)
 846 055e FC01      		movw r30,r24
 847 0560 2483      		std Z+4,r18
 234:../../../stack/LwMesh/TDMA/nwk/src/nwkDataReq.c **** 
 235:../../../stack/LwMesh/TDMA/nwk/src/nwkDataReq.c **** 	frame->tx.confirm = nwkDataReqTxConf;
 848               		.loc 1 235 0
 849 0562 8981      		ldd r24,Y+1
 850 0564 9A81      		ldd r25,Y+2
 851 0566 8957      		subi r24,121
 852 0568 9F4F      		sbci r25,-1
 853 056a 20E0      		ldi r18,lo8(gs(nwkDataReqTxConf))
 854 056c 30E0      		ldi r19,hi8(gs(nwkDataReqTxConf))
 855 056e FC01      		movw r30,r24
 856 0570 3183      		std Z+1,r19
 857 0572 2083      		st Z,r18
 858               	.L6:
 859               	/* epilogue start */
 236:../../../stack/LwMesh/TDMA/nwk/src/nwkDataReq.c **** }
 860               		.loc 1 236 0
 861 0574 2696      		adiw r28,6
 862 0576 0FB6      		in __tmp_reg__,__SREG__
 863 0578 F894      		cli
 864 057a DEBF      		out __SP_H__,r29
 865 057c 0FBE      		out __SREG__,__tmp_reg__
 866 057e CDBF      		out __SP_L__,r28
 867 0580 DF91      		pop r29
 868 0582 CF91      		pop r28
 869 0584 0895      		ret
 870               		.cfi_endproc
 871               	.LFE68:
 874               	nwkDataReqTxConf:
 875               	.LFB69:
 237:../../../stack/LwMesh/TDMA/nwk/src/nwkDataReq.c **** 
 238:../../../stack/LwMesh/TDMA/nwk/src/nwkDataReq.c **** /*************************************************************************//**
 239:../../../stack/LwMesh/TDMA/nwk/src/nwkDataReq.c **** *  @brief Frame transmission confirmation handler
 240:../../../stack/LwMesh/TDMA/nwk/src/nwkDataReq.c **** *  @param[in] frame Pointer to the sent frame
 241:../../../stack/LwMesh/TDMA/nwk/src/nwkDataReq.c **** *****************************************************************************/
 242:../../../stack/LwMesh/TDMA/nwk/src/nwkDataReq.c **** static void nwkDataReqTxConf(NwkFrame_t *frame)
 243:../../../stack/LwMesh/TDMA/nwk/src/nwkDataReq.c **** {
 876               		.loc 1 243 0
 877               		.cfi_startproc
 878 0586 CF93      		push r28
 879               	.LCFI11:
 880               		.cfi_def_cfa_offset 3
 881               		.cfi_offset 28, -2
 882 0588 DF93      		push r29
 883               	.LCFI12:
 884               		.cfi_def_cfa_offset 4
 885               		.cfi_offset 29, -3
 886 058a 00D0      		rcall .
 887 058c 00D0      		rcall .
 888               	.LCFI13:
 889               		.cfi_def_cfa_offset 8
 890 058e CDB7      		in r28,__SP_L__
 891 0590 DEB7      		in r29,__SP_H__
 892               	.LCFI14:
 893               		.cfi_def_cfa_register 28
 894               	/* prologue: function */
 895               	/* frame size = 4 */
 896               	/* stack size = 6 */
 897               	.L__stack_usage = 6
 898 0592 9C83      		std Y+4,r25
 899 0594 8B83      		std Y+3,r24
 900               	.LBB3:
 244:../../../stack/LwMesh/TDMA/nwk/src/nwkDataReq.c **** 	for (NWK_DataReq_t *req = nwkDataReqQueue; req; req = req->next) {
 901               		.loc 1 244 0
 902 0596 8091 0000 		lds r24,nwkDataReqQueue
 903 059a 9091 0000 		lds r25,nwkDataReqQueue+1
 904 059e 9A83      		std Y+2,r25
 905 05a0 8983      		std Y+1,r24
 906 05a2 00C0      		rjmp .L29
 907               	.L32:
 245:../../../stack/LwMesh/TDMA/nwk/src/nwkDataReq.c **** 		if (req->frame == frame) {
 908               		.loc 1 245 0
 909 05a4 8981      		ldd r24,Y+1
 910 05a6 9A81      		ldd r25,Y+2
 911 05a8 FC01      		movw r30,r24
 912 05aa 2281      		ldd r18,Z+2
 913 05ac 3381      		ldd r19,Z+3
 914 05ae 8B81      		ldd r24,Y+3
 915 05b0 9C81      		ldd r25,Y+4
 916 05b2 2817      		cp r18,r24
 917 05b4 3907      		cpc r19,r25
 918 05b6 01F4      		brne .L30
 246:../../../stack/LwMesh/TDMA/nwk/src/nwkDataReq.c **** 			req->status = frame->tx.status;
 919               		.loc 1 246 0
 920 05b8 8B81      		ldd r24,Y+3
 921 05ba 9C81      		ldd r25,Y+4
 922 05bc 8D57      		subi r24,125
 923 05be 9F4F      		sbci r25,-1
 924 05c0 FC01      		movw r30,r24
 925 05c2 2081      		ld r18,Z
 926 05c4 8981      		ldd r24,Y+1
 927 05c6 9A81      		ldd r25,Y+2
 928 05c8 FC01      		movw r30,r24
 929 05ca 208B      		std Z+16,r18
 247:../../../stack/LwMesh/TDMA/nwk/src/nwkDataReq.c **** 			req->control = frame->tx.control;
 930               		.loc 1 247 0
 931 05cc 8B81      		ldd r24,Y+3
 932 05ce 9C81      		ldd r25,Y+4
 933 05d0 8A57      		subi r24,122
 934 05d2 9F4F      		sbci r25,-1
 935 05d4 FC01      		movw r30,r24
 936 05d6 2081      		ld r18,Z
 937 05d8 8981      		ldd r24,Y+1
 938 05da 9A81      		ldd r25,Y+2
 939 05dc FC01      		movw r30,r24
 940 05de 218B      		std Z+17,r18
 248:../../../stack/LwMesh/TDMA/nwk/src/nwkDataReq.c **** 			req->state = NWK_DATA_REQ_STATE_CONFIRM;
 941               		.loc 1 248 0
 942 05e0 8981      		ldd r24,Y+1
 943 05e2 9A81      		ldd r25,Y+2
 944 05e4 22E0      		ldi r18,lo8(2)
 945 05e6 FC01      		movw r30,r24
 946 05e8 2483      		std Z+4,r18
 249:../../../stack/LwMesh/TDMA/nwk/src/nwkDataReq.c **** 			break;
 947               		.loc 1 249 0
 948 05ea 00C0      		rjmp .L31
 949               	.L30:
 244:../../../stack/LwMesh/TDMA/nwk/src/nwkDataReq.c **** 		if (req->frame == frame) {
 950               		.loc 1 244 0 discriminator 2
 951 05ec 8981      		ldd r24,Y+1
 952 05ee 9A81      		ldd r25,Y+2
 953 05f0 FC01      		movw r30,r24
 954 05f2 8081      		ld r24,Z
 955 05f4 9181      		ldd r25,Z+1
 956 05f6 9A83      		std Y+2,r25
 957 05f8 8983      		std Y+1,r24
 958               	.L29:
 244:../../../stack/LwMesh/TDMA/nwk/src/nwkDataReq.c **** 		if (req->frame == frame) {
 959               		.loc 1 244 0 is_stmt 0 discriminator 1
 960 05fa 8981      		ldd r24,Y+1
 961 05fc 9A81      		ldd r25,Y+2
 962 05fe 892B      		or r24,r25
 963 0600 01F4      		brne .L32
 964               	.L31:
 965               	.LBE3:
 250:../../../stack/LwMesh/TDMA/nwk/src/nwkDataReq.c **** 		}
 251:../../../stack/LwMesh/TDMA/nwk/src/nwkDataReq.c **** 	}
 252:../../../stack/LwMesh/TDMA/nwk/src/nwkDataReq.c **** 
 253:../../../stack/LwMesh/TDMA/nwk/src/nwkDataReq.c **** 	nwkFrameFree(frame);
 966               		.loc 1 253 0 is_stmt 1
 967 0602 8B81      		ldd r24,Y+3
 968 0604 9C81      		ldd r25,Y+4
 969 0606 0E94 0000 		call nwkFrameFree
 254:../../../stack/LwMesh/TDMA/nwk/src/nwkDataReq.c **** }
 970               		.loc 1 254 0
 971 060a 0000      		nop
 972               	/* epilogue start */
 973 060c 0F90      		pop __tmp_reg__
 974 060e 0F90      		pop __tmp_reg__
 975 0610 0F90      		pop __tmp_reg__
 976 0612 0F90      		pop __tmp_reg__
 977 0614 DF91      		pop r29
 978 0616 CF91      		pop r28
 979 0618 0895      		ret
 980               		.cfi_endproc
 981               	.LFE69:
 984               	nwkDataReqConfirm:
 985               	.LFB70:
 255:../../../stack/LwMesh/TDMA/nwk/src/nwkDataReq.c **** 
 256:../../../stack/LwMesh/TDMA/nwk/src/nwkDataReq.c **** /*************************************************************************//**
 257:../../../stack/LwMesh/TDMA/nwk/src/nwkDataReq.c **** *  @brief Confirms request @req to the application and remove it from the queue
 258:../../../stack/LwMesh/TDMA/nwk/src/nwkDataReq.c **** *  @param[in] req Pointer to the request parameters
 259:../../../stack/LwMesh/TDMA/nwk/src/nwkDataReq.c **** *****************************************************************************/
 260:../../../stack/LwMesh/TDMA/nwk/src/nwkDataReq.c **** static void nwkDataReqConfirm(NWK_DataReq_t *req)
 261:../../../stack/LwMesh/TDMA/nwk/src/nwkDataReq.c **** {
 986               		.loc 1 261 0
 987               		.cfi_startproc
 988 061a CF93      		push r28
 989               	.LCFI15:
 990               		.cfi_def_cfa_offset 3
 991               		.cfi_offset 28, -2
 992 061c DF93      		push r29
 993               	.LCFI16:
 994               		.cfi_def_cfa_offset 4
 995               		.cfi_offset 29, -3
 996 061e 00D0      		rcall .
 997 0620 00D0      		rcall .
 998               	.LCFI17:
 999               		.cfi_def_cfa_offset 8
 1000 0622 CDB7      		in r28,__SP_L__
 1001 0624 DEB7      		in r29,__SP_H__
 1002               	.LCFI18:
 1003               		.cfi_def_cfa_register 28
 1004               	/* prologue: function */
 1005               	/* frame size = 4 */
 1006               	/* stack size = 6 */
 1007               	.L__stack_usage = 6
 1008 0626 9C83      		std Y+4,r25
 1009 0628 8B83      		std Y+3,r24
 262:../../../stack/LwMesh/TDMA/nwk/src/nwkDataReq.c **** 	if (nwkDataReqQueue == req) {
 1010               		.loc 1 262 0
 1011 062a 2091 0000 		lds r18,nwkDataReqQueue
 1012 062e 3091 0000 		lds r19,nwkDataReqQueue+1
 1013 0632 8B81      		ldd r24,Y+3
 1014 0634 9C81      		ldd r25,Y+4
 1015 0636 2817      		cp r18,r24
 1016 0638 3907      		cpc r19,r25
 1017 063a 01F4      		brne .L34
 263:../../../stack/LwMesh/TDMA/nwk/src/nwkDataReq.c **** 		nwkDataReqQueue = nwkDataReqQueue->next;
 1018               		.loc 1 263 0
 1019 063c 8091 0000 		lds r24,nwkDataReqQueue
 1020 0640 9091 0000 		lds r25,nwkDataReqQueue+1
 1021 0644 FC01      		movw r30,r24
 1022 0646 8081      		ld r24,Z
 1023 0648 9181      		ldd r25,Z+1
 1024 064a 9093 0000 		sts nwkDataReqQueue+1,r25
 1025 064e 8093 0000 		sts nwkDataReqQueue,r24
 1026 0652 00C0      		rjmp .L35
 1027               	.L34:
 1028               	.LBB4:
 264:../../../stack/LwMesh/TDMA/nwk/src/nwkDataReq.c **** 	} else {
 265:../../../stack/LwMesh/TDMA/nwk/src/nwkDataReq.c **** 		NWK_DataReq_t *prev = nwkDataReqQueue;
 1029               		.loc 1 265 0
 1030 0654 8091 0000 		lds r24,nwkDataReqQueue
 1031 0658 9091 0000 		lds r25,nwkDataReqQueue+1
 1032 065c 9A83      		std Y+2,r25
 1033 065e 8983      		std Y+1,r24
 266:../../../stack/LwMesh/TDMA/nwk/src/nwkDataReq.c **** 		while (prev->next != req) {
 1034               		.loc 1 266 0
 1035 0660 00C0      		rjmp .L36
 1036               	.L37:
 267:../../../stack/LwMesh/TDMA/nwk/src/nwkDataReq.c **** 			prev = prev->next;
 1037               		.loc 1 267 0
 1038 0662 8981      		ldd r24,Y+1
 1039 0664 9A81      		ldd r25,Y+2
 1040 0666 FC01      		movw r30,r24
 1041 0668 8081      		ld r24,Z
 1042 066a 9181      		ldd r25,Z+1
 1043 066c 9A83      		std Y+2,r25
 1044 066e 8983      		std Y+1,r24
 1045               	.L36:
 266:../../../stack/LwMesh/TDMA/nwk/src/nwkDataReq.c **** 		while (prev->next != req) {
 1046               		.loc 1 266 0
 1047 0670 8981      		ldd r24,Y+1
 1048 0672 9A81      		ldd r25,Y+2
 1049 0674 FC01      		movw r30,r24
 1050 0676 2081      		ld r18,Z
 1051 0678 3181      		ldd r19,Z+1
 1052 067a 8B81      		ldd r24,Y+3
 1053 067c 9C81      		ldd r25,Y+4
 1054 067e 2817      		cp r18,r24
 1055 0680 3907      		cpc r19,r25
 1056 0682 01F4      		brne .L37
 268:../../../stack/LwMesh/TDMA/nwk/src/nwkDataReq.c **** 		}
 269:../../../stack/LwMesh/TDMA/nwk/src/nwkDataReq.c **** 		prev->next = ((NWK_DataReq_t *)prev->next)->next;
 1057               		.loc 1 269 0
 1058 0684 8981      		ldd r24,Y+1
 1059 0686 9A81      		ldd r25,Y+2
 1060 0688 FC01      		movw r30,r24
 1061 068a 8081      		ld r24,Z
 1062 068c 9181      		ldd r25,Z+1
 1063 068e FC01      		movw r30,r24
 1064 0690 2081      		ld r18,Z
 1065 0692 3181      		ldd r19,Z+1
 1066 0694 8981      		ldd r24,Y+1
 1067 0696 9A81      		ldd r25,Y+2
 1068 0698 FC01      		movw r30,r24
 1069 069a 3183      		std Z+1,r19
 1070 069c 2083      		st Z,r18
 1071               	.L35:
 1072               	.LBE4:
 270:../../../stack/LwMesh/TDMA/nwk/src/nwkDataReq.c **** 	}
 271:../../../stack/LwMesh/TDMA/nwk/src/nwkDataReq.c **** 
 272:../../../stack/LwMesh/TDMA/nwk/src/nwkDataReq.c **** 	nwkIb.lock--;
 1073               		.loc 1 272 0
 1074 069e 8091 0000 		lds r24,nwkIb+38
 1075 06a2 9091 0000 		lds r25,nwkIb+38+1
 1076 06a6 0197      		sbiw r24,1
 1077 06a8 9093 0000 		sts nwkIb+38+1,r25
 1078 06ac 8093 0000 		sts nwkIb+38,r24
 273:../../../stack/LwMesh/TDMA/nwk/src/nwkDataReq.c **** 
 274:../../../stack/LwMesh/TDMA/nwk/src/nwkDataReq.c **** 	if(req->confirm != NULL)
 1079               		.loc 1 274 0
 1080 06b0 8B81      		ldd r24,Y+3
 1081 06b2 9C81      		ldd r25,Y+4
 1082 06b4 FC01      		movw r30,r24
 1083 06b6 8685      		ldd r24,Z+14
 1084 06b8 9785      		ldd r25,Z+15
 1085 06ba 892B      		or r24,r25
 1086 06bc 01F0      		breq .L39
 275:../../../stack/LwMesh/TDMA/nwk/src/nwkDataReq.c **** 	{
 276:../../../stack/LwMesh/TDMA/nwk/src/nwkDataReq.c **** 		req->confirm(req);
 1087               		.loc 1 276 0
 1088 06be 8B81      		ldd r24,Y+3
 1089 06c0 9C81      		ldd r25,Y+4
 1090 06c2 FC01      		movw r30,r24
 1091 06c4 2685      		ldd r18,Z+14
 1092 06c6 3785      		ldd r19,Z+15
 1093 06c8 8B81      		ldd r24,Y+3
 1094 06ca 9C81      		ldd r25,Y+4
 1095 06cc F901      		movw r30,r18
 1096 06ce 0995      		icall
 1097               	.L39:
 277:../../../stack/LwMesh/TDMA/nwk/src/nwkDataReq.c **** 	}
 278:../../../stack/LwMesh/TDMA/nwk/src/nwkDataReq.c **** }
 1098               		.loc 1 278 0
 1099 06d0 0000      		nop
 1100               	/* epilogue start */
 1101 06d2 0F90      		pop __tmp_reg__
 1102 06d4 0F90      		pop __tmp_reg__
 1103 06d6 0F90      		pop __tmp_reg__
 1104 06d8 0F90      		pop __tmp_reg__
 1105 06da DF91      		pop r29
 1106 06dc CF91      		pop r28
 1107 06de 0895      		ret
 1108               		.cfi_endproc
 1109               	.LFE70:
 1111               	.global	nwkDataReqTaskHandler
 1113               	nwkDataReqTaskHandler:
 1114               	.LFB71:
 279:../../../stack/LwMesh/TDMA/nwk/src/nwkDataReq.c **** 
 280:../../../stack/LwMesh/TDMA/nwk/src/nwkDataReq.c **** /*************************************************************************//**
 281:../../../stack/LwMesh/TDMA/nwk/src/nwkDataReq.c **** *  @brief Data Request module task handler
 282:../../../stack/LwMesh/TDMA/nwk/src/nwkDataReq.c **** *****************************************************************************/
 283:../../../stack/LwMesh/TDMA/nwk/src/nwkDataReq.c **** void nwkDataReqTaskHandler(void)
 284:../../../stack/LwMesh/TDMA/nwk/src/nwkDataReq.c **** {
 1115               		.loc 1 284 0
 1116               		.cfi_startproc
 1117 06e0 CF93      		push r28
 1118               	.LCFI19:
 1119               		.cfi_def_cfa_offset 3
 1120               		.cfi_offset 28, -2
 1121 06e2 DF93      		push r29
 1122               	.LCFI20:
 1123               		.cfi_def_cfa_offset 4
 1124               		.cfi_offset 29, -3
 1125 06e4 00D0      		rcall .
 1126               	.LCFI21:
 1127               		.cfi_def_cfa_offset 6
 1128 06e6 CDB7      		in r28,__SP_L__
 1129 06e8 DEB7      		in r29,__SP_H__
 1130               	.LCFI22:
 1131               		.cfi_def_cfa_register 28
 1132               	/* prologue: function */
 1133               	/* frame size = 2 */
 1134               	/* stack size = 4 */
 1135               	.L__stack_usage = 4
 1136               	.LBB5:
 285:../../../stack/LwMesh/TDMA/nwk/src/nwkDataReq.c **** 	for (NWK_DataReq_t *req = nwkDataReqQueue; req; req = req->next) {
 1137               		.loc 1 285 0
 1138 06ea 8091 0000 		lds r24,nwkDataReqQueue
 1139 06ee 9091 0000 		lds r25,nwkDataReqQueue+1
 1140 06f2 9A83      		std Y+2,r25
 1141 06f4 8983      		std Y+1,r24
 1142 06f6 00C0      		rjmp .L41
 1143               	.L48:
 286:../../../stack/LwMesh/TDMA/nwk/src/nwkDataReq.c **** 		switch (req->state) {
 1144               		.loc 1 286 0
 1145 06f8 8981      		ldd r24,Y+1
 1146 06fa 9A81      		ldd r25,Y+2
 1147 06fc FC01      		movw r30,r24
 1148 06fe 8481      		ldd r24,Z+4
 1149 0700 882F      		mov r24,r24
 1150 0702 90E0      		ldi r25,0
 1151 0704 8130      		cpi r24,1
 1152 0706 9105      		cpc r25,__zero_reg__
 1153 0708 01F0      		breq .L49
 1154 070a 8230      		cpi r24,2
 1155 070c 9105      		cpc r25,__zero_reg__
 1156 070e 01F0      		breq .L44
 1157 0710 892B      		or r24,r25
 1158 0712 01F0      		breq .L45
 287:../../../stack/LwMesh/TDMA/nwk/src/nwkDataReq.c **** 		case NWK_DATA_REQ_STATE_INITIAL:
 288:../../../stack/LwMesh/TDMA/nwk/src/nwkDataReq.c **** 		{
 289:../../../stack/LwMesh/TDMA/nwk/src/nwkDataReq.c **** 			nwkDataReqSendFrame(req);
 290:../../../stack/LwMesh/TDMA/nwk/src/nwkDataReq.c **** 			return;
 291:../../../stack/LwMesh/TDMA/nwk/src/nwkDataReq.c **** 		}
 292:../../../stack/LwMesh/TDMA/nwk/src/nwkDataReq.c **** 		break;
 293:../../../stack/LwMesh/TDMA/nwk/src/nwkDataReq.c **** 
 294:../../../stack/LwMesh/TDMA/nwk/src/nwkDataReq.c **** 		case NWK_DATA_REQ_STATE_WAIT_CONF:
 295:../../../stack/LwMesh/TDMA/nwk/src/nwkDataReq.c **** 			break;
 296:../../../stack/LwMesh/TDMA/nwk/src/nwkDataReq.c **** 
 297:../../../stack/LwMesh/TDMA/nwk/src/nwkDataReq.c **** 		case NWK_DATA_REQ_STATE_CONFIRM:
 298:../../../stack/LwMesh/TDMA/nwk/src/nwkDataReq.c **** 		{
 299:../../../stack/LwMesh/TDMA/nwk/src/nwkDataReq.c **** 			nwkDataReqConfirm(req);
 300:../../../stack/LwMesh/TDMA/nwk/src/nwkDataReq.c **** 			return;
 301:../../../stack/LwMesh/TDMA/nwk/src/nwkDataReq.c **** 		}
 302:../../../stack/LwMesh/TDMA/nwk/src/nwkDataReq.c **** 		break;
 303:../../../stack/LwMesh/TDMA/nwk/src/nwkDataReq.c **** 
 304:../../../stack/LwMesh/TDMA/nwk/src/nwkDataReq.c **** 		default:
 305:../../../stack/LwMesh/TDMA/nwk/src/nwkDataReq.c **** 			break;
 1159               		.loc 1 305 0
 1160 0714 00C0      		rjmp .L47
 1161               	.L45:
 289:../../../stack/LwMesh/TDMA/nwk/src/nwkDataReq.c **** 			return;
 1162               		.loc 1 289 0
 1163 0716 8981      		ldd r24,Y+1
 1164 0718 9A81      		ldd r25,Y+2
 1165 071a 0E94 0000 		call nwkDataReqSendFrame
 290:../../../stack/LwMesh/TDMA/nwk/src/nwkDataReq.c **** 		}
 1166               		.loc 1 290 0
 1167 071e 00C0      		rjmp .L40
 1168               	.L44:
 299:../../../stack/LwMesh/TDMA/nwk/src/nwkDataReq.c **** 			return;
 1169               		.loc 1 299 0
 1170 0720 8981      		ldd r24,Y+1
 1171 0722 9A81      		ldd r25,Y+2
 1172 0724 0E94 0000 		call nwkDataReqConfirm
 300:../../../stack/LwMesh/TDMA/nwk/src/nwkDataReq.c **** 		}
 1173               		.loc 1 300 0
 1174 0728 00C0      		rjmp .L40
 1175               	.L49:
 295:../../../stack/LwMesh/TDMA/nwk/src/nwkDataReq.c **** 
 1176               		.loc 1 295 0
 1177 072a 0000      		nop
 1178               	.L47:
 285:../../../stack/LwMesh/TDMA/nwk/src/nwkDataReq.c **** 		switch (req->state) {
 1179               		.loc 1 285 0 discriminator 2
 1180 072c 8981      		ldd r24,Y+1
 1181 072e 9A81      		ldd r25,Y+2
 1182 0730 FC01      		movw r30,r24
 1183 0732 8081      		ld r24,Z
 1184 0734 9181      		ldd r25,Z+1
 1185 0736 9A83      		std Y+2,r25
 1186 0738 8983      		std Y+1,r24
 1187               	.L41:
 285:../../../stack/LwMesh/TDMA/nwk/src/nwkDataReq.c **** 		switch (req->state) {
 1188               		.loc 1 285 0 is_stmt 0 discriminator 1
 1189 073a 8981      		ldd r24,Y+1
 1190 073c 9A81      		ldd r25,Y+2
 1191 073e 892B      		or r24,r25
 1192 0740 01F4      		brne .L48
 1193               	.L40:
 1194               	/* epilogue start */
 1195               	.LBE5:
 306:../../../stack/LwMesh/TDMA/nwk/src/nwkDataReq.c **** 		}
 307:../../../stack/LwMesh/TDMA/nwk/src/nwkDataReq.c **** 	}
 308:../../../stack/LwMesh/TDMA/nwk/src/nwkDataReq.c **** }
 1196               		.loc 1 308 0 is_stmt 1
 1197 0742 0F90      		pop __tmp_reg__
 1198 0744 0F90      		pop __tmp_reg__
 1199 0746 DF91      		pop r29
 1200 0748 CF91      		pop r28
 1201 074a 0895      		ret
 1202               		.cfi_endproc
 1203               	.LFE71:
 1205               	.Letext0:
 1206               		.file 2 "c:\\program files (x86)\\atmel\\studio\\7.0\\toolchain\\avr8\\avr8-gnu-toolchain\\avr\\in
 1207               		.file 3 "../../../stack/LwMesh/TDMA/nwk/inc/nwkFrame.h"
 1208               		.file 4 "../../../stack/LwMesh/TDMA/nwk/inc/nwkRx.h"
 1209               		.file 5 "../../../stack/LwMesh/TDMA/nwk/inc/nwkDataReq.h"
 1210               		.file 6 "../../../stack/LwMesh/TDMA/nwk/inc/nwk.h"
 1211               		.file 7 "../../../stack/LwMesh/TDMA/nwk/inc/nwkTx.h"
DEFINED SYMBOLS
                            *ABS*:00000000 nwkDataReq.c
C:\Users\guilh\AppData\Local\Temp\ccqj9HBD.s:2      *ABS*:0000003e __SP_H__
C:\Users\guilh\AppData\Local\Temp\ccqj9HBD.s:3      *ABS*:0000003d __SP_L__
C:\Users\guilh\AppData\Local\Temp\ccqj9HBD.s:4      *ABS*:0000003f __SREG__
C:\Users\guilh\AppData\Local\Temp\ccqj9HBD.s:5      *ABS*:0000003b __RAMPZ__
C:\Users\guilh\AppData\Local\Temp\ccqj9HBD.s:6      *ABS*:00000000 __tmp_reg__
C:\Users\guilh\AppData\Local\Temp\ccqj9HBD.s:7      *ABS*:00000001 __zero_reg__
C:\Users\guilh\AppData\Local\Temp\ccqj9HBD.s:14     .bss.nwkDataReqQueue:00000000 nwkDataReqQueue
C:\Users\guilh\AppData\Local\Temp\ccqj9HBD.s:19     .text:00000000 nwkDataReqInit
C:\Users\guilh\AppData\Local\Temp\ccqj9HBD.s:54     .text:00000018 NWK_DataReq
C:\Users\guilh\AppData\Local\Temp\ccqj9HBD.s:146    .text:000000a0 nwkDataReqSendFrame
C:\Users\guilh\AppData\Local\Temp\ccqj9HBD.s:874    .text:00000586 nwkDataReqTxConf
C:\Users\guilh\AppData\Local\Temp\ccqj9HBD.s:984    .text:0000061a nwkDataReqConfirm
C:\Users\guilh\AppData\Local\Temp\ccqj9HBD.s:1113   .text:000006e0 nwkDataReqTaskHandler

UNDEFINED SYMBOLS
nwkIb
nwkFrameAlloc
nwkFrameAlloc_LLDN
nwkTxBeaconFrameLLDN
memcpy
nwkTxMacCommandFrameLLDN
nwkTxBeaconFrame
nwkTxFrame
nwkFrameFree
__do_clear_bss
