   1               		.file	"nwkDataReq.c"
   2               	__SP_H__ = 0x3e
   3               	__SP_L__ = 0x3d
   4               	__SREG__ = 0x3f
   5               	__RAMPZ__ = 0x3b
   6               	__tmp_reg__ = 0
   7               	__zero_reg__ = 1
   8               		.text
   9               	.Ltext0:
  10               		.cfi_sections	.debug_frame
  11               		.section	.bss.nwkDataReqQueue,"aw",@nobits
  14               	nwkDataReqQueue:
  15 0000 0000      		.zero	2
  16               		.text
  17               	.global	nwkDataReqInit
  19               	nwkDataReqInit:
  20               	.LFB66:
  21               		.file 1 "../../../stack/LwMesh/TDMA/nwk/src/nwkDataReq.c"
   1:../../../stack/LwMesh/TDMA/nwk/src/nwkDataReq.c **** /**
   2:../../../stack/LwMesh/TDMA/nwk/src/nwkDataReq.c ****  * \file nwkDataReq.c
   3:../../../stack/LwMesh/TDMA/nwk/src/nwkDataReq.c ****  *
   4:../../../stack/LwMesh/TDMA/nwk/src/nwkDataReq.c ****  * \brief NWK_DataReq() implementation
   5:../../../stack/LwMesh/TDMA/nwk/src/nwkDataReq.c ****  *
   6:../../../stack/LwMesh/TDMA/nwk/src/nwkDataReq.c ****  * Copyright (C) 2014 Atmel Corporation. All rights reserved.
   7:../../../stack/LwMesh/TDMA/nwk/src/nwkDataReq.c ****  *
   8:../../../stack/LwMesh/TDMA/nwk/src/nwkDataReq.c ****  * \asf_license_start
   9:../../../stack/LwMesh/TDMA/nwk/src/nwkDataReq.c ****  *
  10:../../../stack/LwMesh/TDMA/nwk/src/nwkDataReq.c ****  * Redistribution and use in source and binary forms, with or without
  11:../../../stack/LwMesh/TDMA/nwk/src/nwkDataReq.c ****  * modification, are permitted provided that the following conditions are met:
  12:../../../stack/LwMesh/TDMA/nwk/src/nwkDataReq.c ****  *
  13:../../../stack/LwMesh/TDMA/nwk/src/nwkDataReq.c ****  * 1. Redistributions of source code must retain the above copyright notice,
  14:../../../stack/LwMesh/TDMA/nwk/src/nwkDataReq.c ****  *    this list of conditions and the following disclaimer.
  15:../../../stack/LwMesh/TDMA/nwk/src/nwkDataReq.c ****  *
  16:../../../stack/LwMesh/TDMA/nwk/src/nwkDataReq.c ****  * 2. Redistributions in binary form must reproduce the above copyright notice,
  17:../../../stack/LwMesh/TDMA/nwk/src/nwkDataReq.c ****  *    this list of conditions and the following disclaimer in the documentation
  18:../../../stack/LwMesh/TDMA/nwk/src/nwkDataReq.c ****  *    and/or other materials provided with the distribution.
  19:../../../stack/LwMesh/TDMA/nwk/src/nwkDataReq.c ****  *
  20:../../../stack/LwMesh/TDMA/nwk/src/nwkDataReq.c ****  * 3. The name of Atmel may not be used to endorse or promote products derived
  21:../../../stack/LwMesh/TDMA/nwk/src/nwkDataReq.c ****  *    from this software without specific prior written permission.
  22:../../../stack/LwMesh/TDMA/nwk/src/nwkDataReq.c ****  *
  23:../../../stack/LwMesh/TDMA/nwk/src/nwkDataReq.c ****  * 4. This software may only be redistributed and used in connection with an
  24:../../../stack/LwMesh/TDMA/nwk/src/nwkDataReq.c ****  *    Atmel microcontroller product.
  25:../../../stack/LwMesh/TDMA/nwk/src/nwkDataReq.c ****  *
  26:../../../stack/LwMesh/TDMA/nwk/src/nwkDataReq.c ****  * THIS SOFTWARE IS PROVIDED BY ATMEL "AS IS" AND ANY EXPRESS OR IMPLIED
  27:../../../stack/LwMesh/TDMA/nwk/src/nwkDataReq.c ****  * WARRANTIES, INCLUDING, BUT NOT LIMITED TO, THE IMPLIED WARRANTIES OF
  28:../../../stack/LwMesh/TDMA/nwk/src/nwkDataReq.c ****  * MERCHANTABILITY, FITNESS FOR A PARTICULAR PURPOSE AND NON-INFRINGEMENT ARE
  29:../../../stack/LwMesh/TDMA/nwk/src/nwkDataReq.c ****  * EXPRESSLY AND SPECIFICALLY DISCLAIMED. IN NO EVENT SHALL ATMEL BE LIABLE FOR
  30:../../../stack/LwMesh/TDMA/nwk/src/nwkDataReq.c ****  * ANY DIRECT, INDIRECT, INCIDENTAL, SPECIAL, EXEMPLARY, OR CONSEQUENTIAL
  31:../../../stack/LwMesh/TDMA/nwk/src/nwkDataReq.c ****  * DAMAGES (INCLUDING, BUT NOT LIMITED TO, PROCUREMENT OF SUBSTITUTE GOODS
  32:../../../stack/LwMesh/TDMA/nwk/src/nwkDataReq.c ****  * OR SERVICES; LOSS OF USE, DATA, OR PROFITS; OR BUSINESS INTERRUPTION)
  33:../../../stack/LwMesh/TDMA/nwk/src/nwkDataReq.c ****  * HOWEVER CAUSED AND ON ANY THEORY OF LIABILITY, WHETHER IN CONTRACT,
  34:../../../stack/LwMesh/TDMA/nwk/src/nwkDataReq.c ****  * STRICT LIABILITY, OR TORT (INCLUDING NEGLIGENCE OR OTHERWISE) ARISING IN
  35:../../../stack/LwMesh/TDMA/nwk/src/nwkDataReq.c ****  * ANY WAY OUT OF THE USE OF THIS SOFTWARE, EVEN IF ADVISED OF THE
  36:../../../stack/LwMesh/TDMA/nwk/src/nwkDataReq.c ****  * POSSIBILITY OF SUCH DAMAGE.
  37:../../../stack/LwMesh/TDMA/nwk/src/nwkDataReq.c ****  *
  38:../../../stack/LwMesh/TDMA/nwk/src/nwkDataReq.c ****  * \asf_license_stop
  39:../../../stack/LwMesh/TDMA/nwk/src/nwkDataReq.c ****  *
  40:../../../stack/LwMesh/TDMA/nwk/src/nwkDataReq.c ****  *
  41:../../../stack/LwMesh/TDMA/nwk/src/nwkDataReq.c ****  */
  42:../../../stack/LwMesh/TDMA/nwk/src/nwkDataReq.c **** 
  43:../../../stack/LwMesh/TDMA/nwk/src/nwkDataReq.c **** /*
  44:../../../stack/LwMesh/TDMA/nwk/src/nwkDataReq.c ****  * Copyright (c) 2014, Atmel Corporation All rights reserved.
  45:../../../stack/LwMesh/TDMA/nwk/src/nwkDataReq.c ****  *
  46:../../../stack/LwMesh/TDMA/nwk/src/nwkDataReq.c ****  * Licensed under Atmel's Limited License Agreement --> EULA.txt
  47:../../../stack/LwMesh/TDMA/nwk/src/nwkDataReq.c ****  */
  48:../../../stack/LwMesh/TDMA/nwk/src/nwkDataReq.c **** 
  49:../../../stack/LwMesh/TDMA/nwk/src/nwkDataReq.c **** /*- Includes ---------------------------------------------------------------*/
  50:../../../stack/LwMesh/TDMA/nwk/src/nwkDataReq.c **** #include <stdlib.h>
  51:../../../stack/LwMesh/TDMA/nwk/src/nwkDataReq.c **** #include <stdint.h>
  52:../../../stack/LwMesh/TDMA/nwk/src/nwkDataReq.c **** #include <stdbool.h>
  53:../../../stack/LwMesh/TDMA/nwk/src/nwkDataReq.c **** #include <string.h>
  54:../../../stack/LwMesh/TDMA/nwk/src/nwkDataReq.c **** #include "sysConfig.h"
  55:../../../stack/LwMesh/TDMA/nwk/src/nwkDataReq.c **** #include "nwk.h"
  56:../../../stack/LwMesh/TDMA/nwk/src/nwkDataReq.c **** #include "nwkTx.h"
  57:../../../stack/LwMesh/TDMA/nwk/src/nwkDataReq.c **** #include "nwkFrame.h"
  58:../../../stack/LwMesh/TDMA/nwk/src/nwkDataReq.c **** #include "nwkGroup.h"
  59:../../../stack/LwMesh/TDMA/nwk/src/nwkDataReq.c **** #include "nwkDataReq.h"
  60:../../../stack/LwMesh/TDMA/nwk/src/nwkDataReq.c **** 
  61:../../../stack/LwMesh/TDMA/nwk/src/nwkDataReq.c **** /*- Types ------------------------------------------------------------------*/
  62:../../../stack/LwMesh/TDMA/nwk/src/nwkDataReq.c **** enum {
  63:../../../stack/LwMesh/TDMA/nwk/src/nwkDataReq.c **** 	NWK_DATA_REQ_STATE_INITIAL,
  64:../../../stack/LwMesh/TDMA/nwk/src/nwkDataReq.c **** 	NWK_DATA_REQ_STATE_WAIT_CONF,
  65:../../../stack/LwMesh/TDMA/nwk/src/nwkDataReq.c **** 	NWK_DATA_REQ_STATE_CONFIRM,
  66:../../../stack/LwMesh/TDMA/nwk/src/nwkDataReq.c **** };
  67:../../../stack/LwMesh/TDMA/nwk/src/nwkDataReq.c **** 
  68:../../../stack/LwMesh/TDMA/nwk/src/nwkDataReq.c **** /*- Prototypes -------------------------------------------------------------*/
  69:../../../stack/LwMesh/TDMA/nwk/src/nwkDataReq.c **** static void nwkDataReqTxConf(NwkFrame_t *frame);
  70:../../../stack/LwMesh/TDMA/nwk/src/nwkDataReq.c **** 
  71:../../../stack/LwMesh/TDMA/nwk/src/nwkDataReq.c **** /*- Variables --------------------------------------------------------------*/
  72:../../../stack/LwMesh/TDMA/nwk/src/nwkDataReq.c **** static NWK_DataReq_t *nwkDataReqQueue;
  73:../../../stack/LwMesh/TDMA/nwk/src/nwkDataReq.c **** 
  74:../../../stack/LwMesh/TDMA/nwk/src/nwkDataReq.c **** /*- Implementations --------------------------------------------------------*/
  75:../../../stack/LwMesh/TDMA/nwk/src/nwkDataReq.c **** 
  76:../../../stack/LwMesh/TDMA/nwk/src/nwkDataReq.c **** /*************************************************************************//**
  77:../../../stack/LwMesh/TDMA/nwk/src/nwkDataReq.c **** *  @brief Initializes the Data Request module
  78:../../../stack/LwMesh/TDMA/nwk/src/nwkDataReq.c **** *****************************************************************************/
  79:../../../stack/LwMesh/TDMA/nwk/src/nwkDataReq.c **** void nwkDataReqInit(void)
  80:../../../stack/LwMesh/TDMA/nwk/src/nwkDataReq.c **** {
  22               		.loc 1 80 0
  23               		.cfi_startproc
  24 0000 CF93      		push r28
  25               	.LCFI0:
  26               		.cfi_def_cfa_offset 3
  27               		.cfi_offset 28, -2
  28 0002 DF93      		push r29
  29               	.LCFI1:
  30               		.cfi_def_cfa_offset 4
  31               		.cfi_offset 29, -3
  32 0004 CDB7      		in r28,__SP_L__
  33 0006 DEB7      		in r29,__SP_H__
  34               	.LCFI2:
  35               		.cfi_def_cfa_register 28
  36               	/* prologue: function */
  37               	/* frame size = 0 */
  38               	/* stack size = 2 */
  39               	.L__stack_usage = 2
  81:../../../stack/LwMesh/TDMA/nwk/src/nwkDataReq.c **** 	nwkDataReqQueue = NULL;
  40               		.loc 1 81 0
  41 0008 1092 0000 		sts nwkDataReqQueue+1,__zero_reg__
  42 000c 1092 0000 		sts nwkDataReqQueue,__zero_reg__
  82:../../../stack/LwMesh/TDMA/nwk/src/nwkDataReq.c **** }
  43               		.loc 1 82 0
  44 0010 0000      		nop
  45               	/* epilogue start */
  46 0012 DF91      		pop r29
  47 0014 CF91      		pop r28
  48 0016 0895      		ret
  49               		.cfi_endproc
  50               	.LFE66:
  52               	.global	NWK_DataReq
  54               	NWK_DataReq:
  55               	.LFB67:
  83:../../../stack/LwMesh/TDMA/nwk/src/nwkDataReq.c **** 
  84:../../../stack/LwMesh/TDMA/nwk/src/nwkDataReq.c **** /*************************************************************************//**
  85:../../../stack/LwMesh/TDMA/nwk/src/nwkDataReq.c **** *  @brief Adds request @a req to the queue of outgoing requests
  86:../../../stack/LwMesh/TDMA/nwk/src/nwkDataReq.c **** *  @param[in] req Pointer to the request parameters
  87:../../../stack/LwMesh/TDMA/nwk/src/nwkDataReq.c **** *****************************************************************************/
  88:../../../stack/LwMesh/TDMA/nwk/src/nwkDataReq.c **** void NWK_DataReq(NWK_DataReq_t *req)
  89:../../../stack/LwMesh/TDMA/nwk/src/nwkDataReq.c **** {
  56               		.loc 1 89 0
  57               		.cfi_startproc
  58 0018 CF93      		push r28
  59               	.LCFI3:
  60               		.cfi_def_cfa_offset 3
  61               		.cfi_offset 28, -2
  62 001a DF93      		push r29
  63               	.LCFI4:
  64               		.cfi_def_cfa_offset 4
  65               		.cfi_offset 29, -3
  66 001c 00D0      		rcall .
  67               	.LCFI5:
  68               		.cfi_def_cfa_offset 6
  69 001e CDB7      		in r28,__SP_L__
  70 0020 DEB7      		in r29,__SP_H__
  71               	.LCFI6:
  72               		.cfi_def_cfa_register 28
  73               	/* prologue: function */
  74               	/* frame size = 2 */
  75               	/* stack size = 4 */
  76               	.L__stack_usage = 4
  77 0022 9A83      		std Y+2,r25
  78 0024 8983      		std Y+1,r24
  90:../../../stack/LwMesh/TDMA/nwk/src/nwkDataReq.c **** 	req->state = NWK_DATA_REQ_STATE_INITIAL;
  79               		.loc 1 90 0
  80 0026 8981      		ldd r24,Y+1
  81 0028 9A81      		ldd r25,Y+2
  82 002a FC01      		movw r30,r24
  83 002c 1482      		std Z+4,__zero_reg__
  91:../../../stack/LwMesh/TDMA/nwk/src/nwkDataReq.c **** 	req->status = NWK_SUCCESS_STATUS;
  84               		.loc 1 91 0
  85 002e 8981      		ldd r24,Y+1
  86 0030 9A81      		ldd r25,Y+2
  87 0032 FC01      		movw r30,r24
  88 0034 118A      		std Z+17,__zero_reg__
  92:../../../stack/LwMesh/TDMA/nwk/src/nwkDataReq.c **** 	req->frame = NULL;
  89               		.loc 1 92 0
  90 0036 8981      		ldd r24,Y+1
  91 0038 9A81      		ldd r25,Y+2
  92 003a FC01      		movw r30,r24
  93 003c 1382      		std Z+3,__zero_reg__
  94 003e 1282      		std Z+2,__zero_reg__
  93:../../../stack/LwMesh/TDMA/nwk/src/nwkDataReq.c **** 
  94:../../../stack/LwMesh/TDMA/nwk/src/nwkDataReq.c **** 	nwkIb.lock++;
  95               		.loc 1 94 0
  96 0040 8091 0000 		lds r24,nwkIb+38
  97 0044 9091 0000 		lds r25,nwkIb+38+1
  98 0048 0196      		adiw r24,1
  99 004a 9093 0000 		sts nwkIb+38+1,r25
 100 004e 8093 0000 		sts nwkIb+38,r24
  95:../../../stack/LwMesh/TDMA/nwk/src/nwkDataReq.c **** 
  96:../../../stack/LwMesh/TDMA/nwk/src/nwkDataReq.c **** 	if (NULL == nwkDataReqQueue) {
 101               		.loc 1 96 0
 102 0052 8091 0000 		lds r24,nwkDataReqQueue
 103 0056 9091 0000 		lds r25,nwkDataReqQueue+1
 104 005a 892B      		or r24,r25
 105 005c 01F4      		brne .L3
  97:../../../stack/LwMesh/TDMA/nwk/src/nwkDataReq.c **** 		req->next = NULL;
 106               		.loc 1 97 0
 107 005e 8981      		ldd r24,Y+1
 108 0060 9A81      		ldd r25,Y+2
 109 0062 FC01      		movw r30,r24
 110 0064 1182      		std Z+1,__zero_reg__
 111 0066 1082      		st Z,__zero_reg__
  98:../../../stack/LwMesh/TDMA/nwk/src/nwkDataReq.c **** 		nwkDataReqQueue = req;
 112               		.loc 1 98 0
 113 0068 8981      		ldd r24,Y+1
 114 006a 9A81      		ldd r25,Y+2
 115 006c 9093 0000 		sts nwkDataReqQueue+1,r25
 116 0070 8093 0000 		sts nwkDataReqQueue,r24
  99:../../../stack/LwMesh/TDMA/nwk/src/nwkDataReq.c **** 	} else {
 100:../../../stack/LwMesh/TDMA/nwk/src/nwkDataReq.c **** 		req->next = nwkDataReqQueue;
 101:../../../stack/LwMesh/TDMA/nwk/src/nwkDataReq.c **** 		nwkDataReqQueue = req;
 102:../../../stack/LwMesh/TDMA/nwk/src/nwkDataReq.c **** 	}
 103:../../../stack/LwMesh/TDMA/nwk/src/nwkDataReq.c **** }
 117               		.loc 1 103 0
 118 0074 00C0      		rjmp .L5
 119               	.L3:
 100:../../../stack/LwMesh/TDMA/nwk/src/nwkDataReq.c **** 		nwkDataReqQueue = req;
 120               		.loc 1 100 0
 121 0076 2091 0000 		lds r18,nwkDataReqQueue
 122 007a 3091 0000 		lds r19,nwkDataReqQueue+1
 123 007e 8981      		ldd r24,Y+1
 124 0080 9A81      		ldd r25,Y+2
 125 0082 FC01      		movw r30,r24
 126 0084 3183      		std Z+1,r19
 127 0086 2083      		st Z,r18
 101:../../../stack/LwMesh/TDMA/nwk/src/nwkDataReq.c **** 	}
 128               		.loc 1 101 0
 129 0088 8981      		ldd r24,Y+1
 130 008a 9A81      		ldd r25,Y+2
 131 008c 9093 0000 		sts nwkDataReqQueue+1,r25
 132 0090 8093 0000 		sts nwkDataReqQueue,r24
 133               	.L5:
 134               		.loc 1 103 0
 135 0094 0000      		nop
 136               	/* epilogue start */
 137 0096 0F90      		pop __tmp_reg__
 138 0098 0F90      		pop __tmp_reg__
 139 009a DF91      		pop r29
 140 009c CF91      		pop r28
 141 009e 0895      		ret
 142               		.cfi_endproc
 143               	.LFE67:
 146               	nwkDataReqSendFrame:
 147               	.LFB68:
 104:../../../stack/LwMesh/TDMA/nwk/src/nwkDataReq.c **** 
 105:../../../stack/LwMesh/TDMA/nwk/src/nwkDataReq.c **** /*************************************************************************//**
 106:../../../stack/LwMesh/TDMA/nwk/src/nwkDataReq.c **** *  @brief Prepares and send outgoing frame based on the request @a req
 107:../../../stack/LwMesh/TDMA/nwk/src/nwkDataReq.c **** * parameters
 108:../../../stack/LwMesh/TDMA/nwk/src/nwkDataReq.c **** *  @param[in] req Pointer to the request parameters
 109:../../../stack/LwMesh/TDMA/nwk/src/nwkDataReq.c **** *****************************************************************************/
 110:../../../stack/LwMesh/TDMA/nwk/src/nwkDataReq.c **** static void nwkDataReqSendFrame(NWK_DataReq_t *req)
 111:../../../stack/LwMesh/TDMA/nwk/src/nwkDataReq.c **** {
 148               		.loc 1 111 0
 149               		.cfi_startproc
 150 00a0 CF93      		push r28
 151               	.LCFI7:
 152               		.cfi_def_cfa_offset 3
 153               		.cfi_offset 28, -2
 154 00a2 DF93      		push r29
 155               	.LCFI8:
 156               		.cfi_def_cfa_offset 4
 157               		.cfi_offset 29, -3
 158 00a4 00D0      		rcall .
 159 00a6 00D0      		rcall .
 160 00a8 00D0      		rcall .
 161               	.LCFI9:
 162               		.cfi_def_cfa_offset 10
 163 00aa CDB7      		in r28,__SP_L__
 164 00ac DEB7      		in r29,__SP_H__
 165               	.LCFI10:
 166               		.cfi_def_cfa_register 28
 167               	/* prologue: function */
 168               	/* frame size = 6 */
 169               	/* stack size = 8 */
 170               	.L__stack_usage = 8
 171 00ae 9E83      		std Y+6,r25
 172 00b0 8D83      		std Y+5,r24
 112:../../../stack/LwMesh/TDMA/nwk/src/nwkDataReq.c **** 	NwkFrame_t *frame;
 113:../../../stack/LwMesh/TDMA/nwk/src/nwkDataReq.c **** 
 114:../../../stack/LwMesh/TDMA/nwk/src/nwkDataReq.c **** 	if (NULL == (frame = nwkFrameAlloc())) {
 173               		.loc 1 114 0
 174 00b2 0E94 0000 		call nwkFrameAlloc
 175 00b6 9A83      		std Y+2,r25
 176 00b8 8983      		std Y+1,r24
 177 00ba 8981      		ldd r24,Y+1
 178 00bc 9A81      		ldd r25,Y+2
 179 00be 892B      		or r24,r25
 180 00c0 01F4      		brne .L7
 115:../../../stack/LwMesh/TDMA/nwk/src/nwkDataReq.c **** 		req->state = NWK_DATA_REQ_STATE_CONFIRM;
 181               		.loc 1 115 0
 182 00c2 8D81      		ldd r24,Y+5
 183 00c4 9E81      		ldd r25,Y+6
 184 00c6 22E0      		ldi r18,lo8(2)
 185 00c8 FC01      		movw r30,r24
 186 00ca 2483      		std Z+4,r18
 116:../../../stack/LwMesh/TDMA/nwk/src/nwkDataReq.c **** 		req->status = NWK_OUT_OF_MEMORY_STATUS;
 187               		.loc 1 116 0
 188 00cc 8D81      		ldd r24,Y+5
 189 00ce 9E81      		ldd r25,Y+6
 190 00d0 22E0      		ldi r18,lo8(2)
 191 00d2 FC01      		movw r30,r24
 192 00d4 218B      		std Z+17,r18
 117:../../../stack/LwMesh/TDMA/nwk/src/nwkDataReq.c **** 		return;
 193               		.loc 1 117 0
 194 00d6 00C0      		rjmp .L6
 195               	.L7:
 118:../../../stack/LwMesh/TDMA/nwk/src/nwkDataReq.c **** 	}
 119:../../../stack/LwMesh/TDMA/nwk/src/nwkDataReq.c **** 
 120:../../../stack/LwMesh/TDMA/nwk/src/nwkDataReq.c **** 	req->frame = frame;
 196               		.loc 1 120 0
 197 00d8 8D81      		ldd r24,Y+5
 198 00da 9E81      		ldd r25,Y+6
 199 00dc 2981      		ldd r18,Y+1
 200 00de 3A81      		ldd r19,Y+2
 201 00e0 FC01      		movw r30,r24
 202 00e2 3383      		std Z+3,r19
 203 00e4 2283      		std Z+2,r18
 121:../../../stack/LwMesh/TDMA/nwk/src/nwkDataReq.c **** 	req->state = NWK_DATA_REQ_STATE_WAIT_CONF;
 204               		.loc 1 121 0
 205 00e6 8D81      		ldd r24,Y+5
 206 00e8 9E81      		ldd r25,Y+6
 207 00ea 21E0      		ldi r18,lo8(1)
 208 00ec FC01      		movw r30,r24
 209 00ee 2483      		std Z+4,r18
 122:../../../stack/LwMesh/TDMA/nwk/src/nwkDataReq.c **** 
 123:../../../stack/LwMesh/TDMA/nwk/src/nwkDataReq.c **** 	frame->tx.confirm = nwkDataReqTxConf;
 210               		.loc 1 123 0
 211 00f0 8981      		ldd r24,Y+1
 212 00f2 9A81      		ldd r25,Y+2
 213 00f4 8957      		subi r24,121
 214 00f6 9F4F      		sbci r25,-1
 215 00f8 20E0      		ldi r18,lo8(gs(nwkDataReqTxConf))
 216 00fa 30E0      		ldi r19,hi8(gs(nwkDataReqTxConf))
 217 00fc FC01      		movw r30,r24
 218 00fe 3183      		std Z+1,r19
 219 0100 2083      		st Z,r18
 124:../../../stack/LwMesh/TDMA/nwk/src/nwkDataReq.c **** 
 125:../../../stack/LwMesh/TDMA/nwk/src/nwkDataReq.c **** 	if(req->options & NWK_OPT_BEACON)
 220               		.loc 1 125 0
 221 0102 8D81      		ldd r24,Y+5
 222 0104 9E81      		ldd r25,Y+6
 223 0106 FC01      		movw r30,r24
 224 0108 8185      		ldd r24,Z+9
 225 010a 882F      		mov r24,r24
 226 010c 90E0      		ldi r25,0
 227 010e 8072      		andi r24,32
 228 0110 9927      		clr r25
 229 0112 892B      		or r24,r25
 230 0114 01F4      		brne .+2
 231 0116 00C0      		rjmp .L9
 126:../../../stack/LwMesh/TDMA/nwk/src/nwkDataReq.c **** 	{
 127:../../../stack/LwMesh/TDMA/nwk/src/nwkDataReq.c **** 		frame->size += sizeof(NwkFrameBeaconHeader_t);
 232               		.loc 1 127 0
 233 0118 8981      		ldd r24,Y+1
 234 011a 9A81      		ldd r25,Y+2
 235 011c FC01      		movw r30,r24
 236 011e 8181      		ldd r24,Z+1
 237 0120 2BE0      		ldi r18,lo8(11)
 238 0122 280F      		add r18,r24
 239 0124 8981      		ldd r24,Y+1
 240 0126 9A81      		ldd r25,Y+2
 241 0128 FC01      		movw r30,r24
 242 012a 2183      		std Z+1,r18
 128:../../../stack/LwMesh/TDMA/nwk/src/nwkDataReq.c **** 		frame->payload += sizeof(NwkFrameBeaconHeader_t);
 243               		.loc 1 128 0
 244 012c 8981      		ldd r24,Y+1
 245 012e 9A81      		ldd r25,Y+2
 246 0130 8F57      		subi r24,127
 247 0132 9F4F      		sbci r25,-1
 248 0134 FC01      		movw r30,r24
 249 0136 8081      		ld r24,Z
 250 0138 9181      		ldd r25,Z+1
 251 013a 9C01      		movw r18,r24
 252 013c 255F      		subi r18,-11
 253 013e 3F4F      		sbci r19,-1
 254 0140 8981      		ldd r24,Y+1
 255 0142 9A81      		ldd r25,Y+2
 256 0144 8F57      		subi r24,127
 257 0146 9F4F      		sbci r25,-1
 258 0148 FC01      		movw r30,r24
 259 014a 3183      		std Z+1,r19
 260 014c 2083      		st Z,r18
 129:../../../stack/LwMesh/TDMA/nwk/src/nwkDataReq.c **** 		
 130:../../../stack/LwMesh/TDMA/nwk/src/nwkDataReq.c **** 		frame->tx.control = 0;
 261               		.loc 1 130 0
 262 014e 8981      		ldd r24,Y+1
 263 0150 9A81      		ldd r25,Y+2
 264 0152 8A57      		subi r24,122
 265 0154 9F4F      		sbci r25,-1
 266 0156 FC01      		movw r30,r24
 267 0158 1082      		st Z,__zero_reg__
 131:../../../stack/LwMesh/TDMA/nwk/src/nwkDataReq.c **** 		
 132:../../../stack/LwMesh/TDMA/nwk/src/nwkDataReq.c **** 		frame->beacon.macSFS.beaconOrder = BI_COEF;
 268               		.loc 1 132 0
 269 015a 8981      		ldd r24,Y+1
 270 015c 9A81      		ldd r25,Y+2
 271 015e FC01      		movw r30,r24
 272 0160 2185      		ldd r18,Z+9
 273 0162 207F      		andi r18,lo8(-16)
 274 0164 2860      		ori r18,lo8(8)
 275 0166 FC01      		movw r30,r24
 276 0168 2187      		std Z+9,r18
 133:../../../stack/LwMesh/TDMA/nwk/src/nwkDataReq.c **** 		frame->beacon.macSFS.superframeOrder = SD_COEF;
 277               		.loc 1 133 0
 278 016a 8981      		ldd r24,Y+1
 279 016c 9A81      		ldd r25,Y+2
 280 016e FC01      		movw r30,r24
 281 0170 2185      		ldd r18,Z+9
 282 0172 2F70      		andi r18,lo8(15)
 283 0174 2066      		ori r18,lo8(96)
 284 0176 FC01      		movw r30,r24
 285 0178 2187      		std Z+9,r18
 134:../../../stack/LwMesh/TDMA/nwk/src/nwkDataReq.c **** 		frame->beacon.macSFS.finalCAPslot = FINAL_CAP_SLOT;
 286               		.loc 1 134 0
 287 017a 8981      		ldd r24,Y+1
 288 017c 9A81      		ldd r25,Y+2
 289 017e FC01      		movw r30,r24
 290 0180 2285      		ldd r18,Z+10
 291 0182 207F      		andi r18,lo8(-16)
 292 0184 2160      		ori r18,lo8(1)
 293 0186 FC01      		movw r30,r24
 294 0188 2287      		std Z+10,r18
 135:../../../stack/LwMesh/TDMA/nwk/src/nwkDataReq.c **** 		frame->beacon.macSFS.BatteryLifeExtension = TDMA_BATTERY_EXTENSION;
 295               		.loc 1 135 0
 296 018a 8981      		ldd r24,Y+1
 297 018c 9A81      		ldd r25,Y+2
 298 018e FC01      		movw r30,r24
 299 0190 2285      		ldd r18,Z+10
 300 0192 2061      		ori r18,lo8(16)
 301 0194 FC01      		movw r30,r24
 302 0196 2287      		std Z+10,r18
 136:../../../stack/LwMesh/TDMA/nwk/src/nwkDataReq.c **** 		frame->beacon.macSFS.PANCoordinator = 1;
 303               		.loc 1 136 0
 304 0198 8981      		ldd r24,Y+1
 305 019a 9A81      		ldd r25,Y+2
 306 019c FC01      		movw r30,r24
 307 019e 2285      		ldd r18,Z+10
 308 01a0 2064      		ori r18,lo8(64)
 309 01a2 FC01      		movw r30,r24
 310 01a4 2287      		std Z+10,r18
 137:../../../stack/LwMesh/TDMA/nwk/src/nwkDataReq.c **** 		frame->beacon.macSFS.AssociationPermit = 0;
 311               		.loc 1 137 0
 312 01a6 8981      		ldd r24,Y+1
 313 01a8 9A81      		ldd r25,Y+2
 314 01aa FC01      		movw r30,r24
 315 01ac 2285      		ldd r18,Z+10
 316 01ae 2F77      		andi r18,lo8(127)
 317 01b0 FC01      		movw r30,r24
 318 01b2 2287      		std Z+10,r18
 138:../../../stack/LwMesh/TDMA/nwk/src/nwkDataReq.c **** 		
 139:../../../stack/LwMesh/TDMA/nwk/src/nwkDataReq.c **** 		frame->beacon.macGTS = 0;
 319               		.loc 1 139 0
 320 01b4 8981      		ldd r24,Y+1
 321 01b6 9A81      		ldd r25,Y+2
 322 01b8 FC01      		movw r30,r24
 323 01ba 1386      		std Z+11,__zero_reg__
 140:../../../stack/LwMesh/TDMA/nwk/src/nwkDataReq.c **** 		frame->beacon.macPending = 0;
 324               		.loc 1 140 0
 325 01bc 8981      		ldd r24,Y+1
 326 01be 9A81      		ldd r25,Y+2
 327 01c0 FC01      		movw r30,r24
 328 01c2 1486      		std Z+12,__zero_reg__
 141:../../../stack/LwMesh/TDMA/nwk/src/nwkDataReq.c **** 
 142:../../../stack/LwMesh/TDMA/nwk/src/nwkDataReq.c **** 		memcpy(frame->payload, req->data, req->size);
 329               		.loc 1 142 0
 330 01c4 8D81      		ldd r24,Y+5
 331 01c6 9E81      		ldd r25,Y+6
 332 01c8 FC01      		movw r30,r24
 333 01ca 8685      		ldd r24,Z+14
 334 01cc 482F      		mov r20,r24
 335 01ce 50E0      		ldi r21,0
 336 01d0 8D81      		ldd r24,Y+5
 337 01d2 9E81      		ldd r25,Y+6
 338 01d4 FC01      		movw r30,r24
 339 01d6 2485      		ldd r18,Z+12
 340 01d8 3585      		ldd r19,Z+13
 341 01da 8981      		ldd r24,Y+1
 342 01dc 9A81      		ldd r25,Y+2
 343 01de 8F57      		subi r24,127
 344 01e0 9F4F      		sbci r25,-1
 345 01e2 FC01      		movw r30,r24
 346 01e4 8081      		ld r24,Z
 347 01e6 9181      		ldd r25,Z+1
 348 01e8 B901      		movw r22,r18
 349 01ea 0E94 0000 		call memcpy
 143:../../../stack/LwMesh/TDMA/nwk/src/nwkDataReq.c **** 		frame->size += req->size;
 350               		.loc 1 143 0
 351 01ee 8981      		ldd r24,Y+1
 352 01f0 9A81      		ldd r25,Y+2
 353 01f2 FC01      		movw r30,r24
 354 01f4 2181      		ldd r18,Z+1
 355 01f6 8D81      		ldd r24,Y+5
 356 01f8 9E81      		ldd r25,Y+6
 357 01fa FC01      		movw r30,r24
 358 01fc 8685      		ldd r24,Z+14
 359 01fe 280F      		add r18,r24
 360 0200 8981      		ldd r24,Y+1
 361 0202 9A81      		ldd r25,Y+2
 362 0204 FC01      		movw r30,r24
 363 0206 2183      		std Z+1,r18
 144:../../../stack/LwMesh/TDMA/nwk/src/nwkDataReq.c **** 
 145:../../../stack/LwMesh/TDMA/nwk/src/nwkDataReq.c **** 		nwkTxBeaconFrame(frame);
 364               		.loc 1 145 0
 365 0208 8981      		ldd r24,Y+1
 366 020a 9A81      		ldd r25,Y+2
 367 020c 0E94 0000 		call nwkTxBeaconFrame
 368 0210 00C0      		rjmp .L6
 369               	.L9:
 146:../../../stack/LwMesh/TDMA/nwk/src/nwkDataReq.c **** 	}
 147:../../../stack/LwMesh/TDMA/nwk/src/nwkDataReq.c **** 	else
 148:../../../stack/LwMesh/TDMA/nwk/src/nwkDataReq.c **** 	{
 149:../../../stack/LwMesh/TDMA/nwk/src/nwkDataReq.c **** 		frame->size += sizeof(NwkFrameHeader_t);
 370               		.loc 1 149 0
 371 0212 8981      		ldd r24,Y+1
 372 0214 9A81      		ldd r25,Y+2
 373 0216 FC01      		movw r30,r24
 374 0218 8181      		ldd r24,Z+1
 375 021a 20E1      		ldi r18,lo8(16)
 376 021c 280F      		add r18,r24
 377 021e 8981      		ldd r24,Y+1
 378 0220 9A81      		ldd r25,Y+2
 379 0222 FC01      		movw r30,r24
 380 0224 2183      		std Z+1,r18
 150:../../../stack/LwMesh/TDMA/nwk/src/nwkDataReq.c **** 		frame->payload += sizeof(NwkFrameHeader_t);
 381               		.loc 1 150 0
 382 0226 8981      		ldd r24,Y+1
 383 0228 9A81      		ldd r25,Y+2
 384 022a 8F57      		subi r24,127
 385 022c 9F4F      		sbci r25,-1
 386 022e FC01      		movw r30,r24
 387 0230 8081      		ld r24,Z
 388 0232 9181      		ldd r25,Z+1
 389 0234 9C01      		movw r18,r24
 390 0236 205F      		subi r18,-16
 391 0238 3F4F      		sbci r19,-1
 392 023a 8981      		ldd r24,Y+1
 393 023c 9A81      		ldd r25,Y+2
 394 023e 8F57      		subi r24,127
 395 0240 9F4F      		sbci r25,-1
 396 0242 FC01      		movw r30,r24
 397 0244 3183      		std Z+1,r19
 398 0246 2083      		st Z,r18
 151:../../../stack/LwMesh/TDMA/nwk/src/nwkDataReq.c **** 
 152:../../../stack/LwMesh/TDMA/nwk/src/nwkDataReq.c **** 		frame->tx.control = (req->options & NWK_OPT_BROADCAST_PAN_ID) ? NWK_TX_CONTROL_BROADCAST_PAN_ID :
 399               		.loc 1 152 0
 400 0248 8D81      		ldd r24,Y+5
 401 024a 9E81      		ldd r25,Y+6
 402 024c FC01      		movw r30,r24
 403 024e 8185      		ldd r24,Z+9
 404 0250 882F      		mov r24,r24
 405 0252 90E0      		ldi r25,0
 406 0254 8470      		andi r24,4
 407 0256 9927      		clr r25
 408 0258 21E0      		ldi r18,lo8(1)
 409 025a 892B      		or r24,r25
 410 025c 01F4      		brne .L10
 411 025e 20E0      		ldi r18,0
 412               	.L10:
 413 0260 8981      		ldd r24,Y+1
 414 0262 9A81      		ldd r25,Y+2
 415 0264 8A57      		subi r24,122
 416 0266 9F4F      		sbci r25,-1
 417 0268 FC01      		movw r30,r24
 418 026a 2083      		st Z,r18
 153:../../../stack/LwMesh/TDMA/nwk/src/nwkDataReq.c **** 
 154:../../../stack/LwMesh/TDMA/nwk/src/nwkDataReq.c **** 		frame->header.nwkFcf.ackRequest = (req->options & NWK_OPT_ACK_REQUEST) ? 1 : 0;
 419               		.loc 1 154 0
 420 026c 8D81      		ldd r24,Y+5
 421 026e 9E81      		ldd r25,Y+6
 422 0270 FC01      		movw r30,r24
 423 0272 8185      		ldd r24,Z+9
 424 0274 882F      		mov r24,r24
 425 0276 90E0      		ldi r25,0
 426 0278 8170      		andi r24,1
 427 027a 9927      		clr r25
 428 027c 21E0      		ldi r18,lo8(1)
 429 027e 892B      		or r24,r25
 430 0280 01F4      		brne .L11
 431 0282 20E0      		ldi r18,0
 432               	.L11:
 433 0284 8981      		ldd r24,Y+1
 434 0286 9A81      		ldd r25,Y+2
 435 0288 2170      		andi r18,lo8(1)
 436 028a FC01      		movw r30,r24
 437 028c 3385      		ldd r19,Z+11
 438 028e 3E7F      		andi r19,lo8(-2)
 439 0290 232B      		or r18,r19
 440 0292 FC01      		movw r30,r24
 441 0294 2387      		std Z+11,r18
 155:../../../stack/LwMesh/TDMA/nwk/src/nwkDataReq.c **** 		frame->header.nwkFcf.linkLocal = (req->options & NWK_OPT_LINK_LOCAL) ? 1 : 0;
 442               		.loc 1 155 0
 443 0296 8D81      		ldd r24,Y+5
 444 0298 9E81      		ldd r25,Y+6
 445 029a FC01      		movw r30,r24
 446 029c 8185      		ldd r24,Z+9
 447 029e 882F      		mov r24,r24
 448 02a0 90E0      		ldi r25,0
 449 02a2 8870      		andi r24,8
 450 02a4 9927      		clr r25
 451 02a6 21E0      		ldi r18,lo8(1)
 452 02a8 892B      		or r24,r25
 453 02aa 01F4      		brne .L12
 454 02ac 20E0      		ldi r18,0
 455               	.L12:
 456 02ae 8981      		ldd r24,Y+1
 457 02b0 9A81      		ldd r25,Y+2
 458 02b2 2170      		andi r18,lo8(1)
 459 02b4 220F      		lsl r18
 460 02b6 220F      		lsl r18
 461 02b8 FC01      		movw r30,r24
 462 02ba 3385      		ldd r19,Z+11
 463 02bc 3B7F      		andi r19,lo8(-5)
 464 02be 232B      		or r18,r19
 465 02c0 FC01      		movw r30,r24
 466 02c2 2387      		std Z+11,r18
 156:../../../stack/LwMesh/TDMA/nwk/src/nwkDataReq.c **** 		frame->header.nwkFcf.beacon = (req->options & NWK_OPT_BEACON) ? 1 : 0;
 467               		.loc 1 156 0
 468 02c4 8D81      		ldd r24,Y+5
 469 02c6 9E81      		ldd r25,Y+6
 470 02c8 FC01      		movw r30,r24
 471 02ca 8185      		ldd r24,Z+9
 472 02cc 882F      		mov r24,r24
 473 02ce 90E0      		ldi r25,0
 474 02d0 8072      		andi r24,32
 475 02d2 9927      		clr r25
 476 02d4 21E0      		ldi r18,lo8(1)
 477 02d6 892B      		or r24,r25
 478 02d8 01F4      		brne .L13
 479 02da 20E0      		ldi r18,0
 480               	.L13:
 481 02dc 8981      		ldd r24,Y+1
 482 02de 9A81      		ldd r25,Y+2
 483 02e0 2170      		andi r18,lo8(1)
 484 02e2 2295      		swap r18
 485 02e4 207F      		andi r18,lo8(-16)
 486 02e6 FC01      		movw r30,r24
 487 02e8 3385      		ldd r19,Z+11
 488 02ea 3F7E      		andi r19,lo8(-17)
 489 02ec 232B      		or r18,r19
 490 02ee FC01      		movw r30,r24
 491 02f0 2387      		std Z+11,r18
 157:../../../stack/LwMesh/TDMA/nwk/src/nwkDataReq.c **** 
 158:../../../stack/LwMesh/TDMA/nwk/src/nwkDataReq.c **** #ifdef NWK_ENABLE_SECURITY
 159:../../../stack/LwMesh/TDMA/nwk/src/nwkDataReq.c **** 		frame->header.nwkFcf.security = (req->options & NWK_OPT_ENABLE_SECURITY) ? 1 : 0;
 160:../../../stack/LwMesh/TDMA/nwk/src/nwkDataReq.c **** #endif
 161:../../../stack/LwMesh/TDMA/nwk/src/nwkDataReq.c **** 
 162:../../../stack/LwMesh/TDMA/nwk/src/nwkDataReq.c **** #ifdef NWK_ENABLE_MULTICAST
 163:../../../stack/LwMesh/TDMA/nwk/src/nwkDataReq.c **** 		frame->header.nwkFcf.multicast = (req->options & NWK_OPT_MULTICAST) ? 1 : 0;
 492               		.loc 1 163 0
 493 02f2 8D81      		ldd r24,Y+5
 494 02f4 9E81      		ldd r25,Y+6
 495 02f6 FC01      		movw r30,r24
 496 02f8 8185      		ldd r24,Z+9
 497 02fa 882F      		mov r24,r24
 498 02fc 90E0      		ldi r25,0
 499 02fe 8071      		andi r24,16
 500 0300 9927      		clr r25
 501 0302 21E0      		ldi r18,lo8(1)
 502 0304 892B      		or r24,r25
 503 0306 01F4      		brne .L14
 504 0308 20E0      		ldi r18,0
 505               	.L14:
 506 030a 8981      		ldd r24,Y+1
 507 030c 9A81      		ldd r25,Y+2
 508 030e 2170      		andi r18,lo8(1)
 509 0310 220F      		lsl r18
 510 0312 220F      		lsl r18
 511 0314 220F      		lsl r18
 512 0316 FC01      		movw r30,r24
 513 0318 3385      		ldd r19,Z+11
 514 031a 377F      		andi r19,lo8(-9)
 515 031c 232B      		or r18,r19
 516 031e FC01      		movw r30,r24
 517 0320 2387      		std Z+11,r18
 164:../../../stack/LwMesh/TDMA/nwk/src/nwkDataReq.c **** 
 165:../../../stack/LwMesh/TDMA/nwk/src/nwkDataReq.c **** 		if (frame->header.nwkFcf.multicast)
 518               		.loc 1 165 0
 519 0322 8981      		ldd r24,Y+1
 520 0324 9A81      		ldd r25,Y+2
 521 0326 FC01      		movw r30,r24
 522 0328 8385      		ldd r24,Z+11
 523 032a 8870      		andi r24,lo8(8)
 524 032c 8823      		tst r24
 525 032e 01F4      		brne .+2
 526 0330 00C0      		rjmp .L15
 527               	.LBB2:
 166:../../../stack/LwMesh/TDMA/nwk/src/nwkDataReq.c **** 		{
 167:../../../stack/LwMesh/TDMA/nwk/src/nwkDataReq.c **** 			NwkFrameMulticastHeader_t *mcHeader = (NwkFrameMulticastHeader_t *)frame->payload;
 528               		.loc 1 167 0
 529 0332 8981      		ldd r24,Y+1
 530 0334 9A81      		ldd r25,Y+2
 531 0336 8F57      		subi r24,127
 532 0338 9F4F      		sbci r25,-1
 533 033a FC01      		movw r30,r24
 534 033c 8081      		ld r24,Z
 535 033e 9181      		ldd r25,Z+1
 536 0340 9C83      		std Y+4,r25
 537 0342 8B83      		std Y+3,r24
 168:../../../stack/LwMesh/TDMA/nwk/src/nwkDataReq.c **** 
 169:../../../stack/LwMesh/TDMA/nwk/src/nwkDataReq.c **** 			mcHeader->memberRadius = req->memberRadius;
 538               		.loc 1 169 0
 539 0344 8D81      		ldd r24,Y+5
 540 0346 9E81      		ldd r25,Y+6
 541 0348 FC01      		movw r30,r24
 542 034a 8285      		ldd r24,Z+10
 543 034c 282F      		mov r18,r24
 544 034e 2F70      		andi r18,lo8(15)
 545 0350 8B81      		ldd r24,Y+3
 546 0352 9C81      		ldd r25,Y+4
 547 0354 2F70      		andi r18,lo8(15)
 548 0356 FC01      		movw r30,r24
 549 0358 3181      		ldd r19,Z+1
 550 035a 307F      		andi r19,lo8(-16)
 551 035c 232B      		or r18,r19
 552 035e FC01      		movw r30,r24
 553 0360 2183      		std Z+1,r18
 170:../../../stack/LwMesh/TDMA/nwk/src/nwkDataReq.c **** 			mcHeader->maxMemberRadius = req->memberRadius;
 554               		.loc 1 170 0
 555 0362 8D81      		ldd r24,Y+5
 556 0364 9E81      		ldd r25,Y+6
 557 0366 FC01      		movw r30,r24
 558 0368 8285      		ldd r24,Z+10
 559 036a 282F      		mov r18,r24
 560 036c 2F70      		andi r18,lo8(15)
 561 036e 8B81      		ldd r24,Y+3
 562 0370 9C81      		ldd r25,Y+4
 563 0372 2295      		swap r18
 564 0374 207F      		andi r18,lo8(-16)
 565 0376 FC01      		movw r30,r24
 566 0378 3181      		ldd r19,Z+1
 567 037a 3F70      		andi r19,lo8(15)
 568 037c 232B      		or r18,r19
 569 037e FC01      		movw r30,r24
 570 0380 2183      		std Z+1,r18
 171:../../../stack/LwMesh/TDMA/nwk/src/nwkDataReq.c **** 			mcHeader->nonMemberRadius = req->nonMemberRadius;
 571               		.loc 1 171 0
 572 0382 8D81      		ldd r24,Y+5
 573 0384 9E81      		ldd r25,Y+6
 574 0386 FC01      		movw r30,r24
 575 0388 8385      		ldd r24,Z+11
 576 038a 282F      		mov r18,r24
 577 038c 2F70      		andi r18,lo8(15)
 578 038e 8B81      		ldd r24,Y+3
 579 0390 9C81      		ldd r25,Y+4
 580 0392 2F70      		andi r18,lo8(15)
 581 0394 FC01      		movw r30,r24
 582 0396 3081      		ld r19,Z
 583 0398 307F      		andi r19,lo8(-16)
 584 039a 232B      		or r18,r19
 585 039c FC01      		movw r30,r24
 586 039e 2083      		st Z,r18
 172:../../../stack/LwMesh/TDMA/nwk/src/nwkDataReq.c **** 			mcHeader->maxNonMemberRadius = req->nonMemberRadius;
 587               		.loc 1 172 0
 588 03a0 8D81      		ldd r24,Y+5
 589 03a2 9E81      		ldd r25,Y+6
 590 03a4 FC01      		movw r30,r24
 591 03a6 8385      		ldd r24,Z+11
 592 03a8 282F      		mov r18,r24
 593 03aa 2F70      		andi r18,lo8(15)
 594 03ac 8B81      		ldd r24,Y+3
 595 03ae 9C81      		ldd r25,Y+4
 596 03b0 2295      		swap r18
 597 03b2 207F      		andi r18,lo8(-16)
 598 03b4 FC01      		movw r30,r24
 599 03b6 3081      		ld r19,Z
 600 03b8 3F70      		andi r19,lo8(15)
 601 03ba 232B      		or r18,r19
 602 03bc FC01      		movw r30,r24
 603 03be 2083      		st Z,r18
 173:../../../stack/LwMesh/TDMA/nwk/src/nwkDataReq.c **** 
 174:../../../stack/LwMesh/TDMA/nwk/src/nwkDataReq.c **** 			frame->payload += sizeof(NwkFrameMulticastHeader_t);
 604               		.loc 1 174 0
 605 03c0 8981      		ldd r24,Y+1
 606 03c2 9A81      		ldd r25,Y+2
 607 03c4 8F57      		subi r24,127
 608 03c6 9F4F      		sbci r25,-1
 609 03c8 FC01      		movw r30,r24
 610 03ca 8081      		ld r24,Z
 611 03cc 9181      		ldd r25,Z+1
 612 03ce 9C01      		movw r18,r24
 613 03d0 2E5F      		subi r18,-2
 614 03d2 3F4F      		sbci r19,-1
 615 03d4 8981      		ldd r24,Y+1
 616 03d6 9A81      		ldd r25,Y+2
 617 03d8 8F57      		subi r24,127
 618 03da 9F4F      		sbci r25,-1
 619 03dc FC01      		movw r30,r24
 620 03de 3183      		std Z+1,r19
 621 03e0 2083      		st Z,r18
 175:../../../stack/LwMesh/TDMA/nwk/src/nwkDataReq.c **** 			frame->size += sizeof(NwkFrameMulticastHeader_t);
 622               		.loc 1 175 0
 623 03e2 8981      		ldd r24,Y+1
 624 03e4 9A81      		ldd r25,Y+2
 625 03e6 FC01      		movw r30,r24
 626 03e8 8181      		ldd r24,Z+1
 627 03ea 22E0      		ldi r18,lo8(2)
 628 03ec 280F      		add r18,r24
 629 03ee 8981      		ldd r24,Y+1
 630 03f0 9A81      		ldd r25,Y+2
 631 03f2 FC01      		movw r30,r24
 632 03f4 2183      		std Z+1,r18
 633               	.L15:
 634               	.LBE2:
 176:../../../stack/LwMesh/TDMA/nwk/src/nwkDataReq.c **** 		}
 177:../../../stack/LwMesh/TDMA/nwk/src/nwkDataReq.c **** 
 178:../../../stack/LwMesh/TDMA/nwk/src/nwkDataReq.c **** #endif
 179:../../../stack/LwMesh/TDMA/nwk/src/nwkDataReq.c **** 
 180:../../../stack/LwMesh/TDMA/nwk/src/nwkDataReq.c **** 		frame->header.nwkSeq = ++nwkIb.nwkSeqNum;
 635               		.loc 1 180 0
 636 03f6 8091 0000 		lds r24,nwkIb+4
 637 03fa 8F5F      		subi r24,lo8(-(1))
 638 03fc 8093 0000 		sts nwkIb+4,r24
 639 0400 2091 0000 		lds r18,nwkIb+4
 640 0404 8981      		ldd r24,Y+1
 641 0406 9A81      		ldd r25,Y+2
 642 0408 FC01      		movw r30,r24
 643 040a 2487      		std Z+12,r18
 181:../../../stack/LwMesh/TDMA/nwk/src/nwkDataReq.c **** 		frame->header.nwkSrcAddr = nwkIb.addr;
 644               		.loc 1 181 0
 645 040c 2091 0000 		lds r18,nwkIb
 646 0410 3091 0000 		lds r19,nwkIb+1
 647 0414 8981      		ldd r24,Y+1
 648 0416 9A81      		ldd r25,Y+2
 649 0418 FC01      		movw r30,r24
 650 041a 3687      		std Z+14,r19
 651 041c 2587      		std Z+13,r18
 182:../../../stack/LwMesh/TDMA/nwk/src/nwkDataReq.c **** 		frame->header.nwkDstAddr = req->dstAddr;
 652               		.loc 1 182 0
 653 041e 8D81      		ldd r24,Y+5
 654 0420 9E81      		ldd r25,Y+6
 655 0422 FC01      		movw r30,r24
 656 0424 2581      		ldd r18,Z+5
 657 0426 3681      		ldd r19,Z+6
 658 0428 8981      		ldd r24,Y+1
 659 042a 9A81      		ldd r25,Y+2
 660 042c FC01      		movw r30,r24
 661 042e 308B      		std Z+16,r19
 662 0430 2787      		std Z+15,r18
 183:../../../stack/LwMesh/TDMA/nwk/src/nwkDataReq.c **** 		frame->header.nwkSrcEndpoint = req->srcEndpoint;
 663               		.loc 1 183 0
 664 0432 8D81      		ldd r24,Y+5
 665 0434 9E81      		ldd r25,Y+6
 666 0436 FC01      		movw r30,r24
 667 0438 8085      		ldd r24,Z+8
 668 043a 282F      		mov r18,r24
 669 043c 2F70      		andi r18,lo8(15)
 670 043e 8981      		ldd r24,Y+1
 671 0440 9A81      		ldd r25,Y+2
 672 0442 2F70      		andi r18,lo8(15)
 673 0444 FC01      		movw r30,r24
 674 0446 3189      		ldd r19,Z+17
 675 0448 307F      		andi r19,lo8(-16)
 676 044a 232B      		or r18,r19
 677 044c FC01      		movw r30,r24
 678 044e 218B      		std Z+17,r18
 184:../../../stack/LwMesh/TDMA/nwk/src/nwkDataReq.c **** 		frame->header.nwkDstEndpoint = req->dstEndpoint;
 679               		.loc 1 184 0
 680 0450 8D81      		ldd r24,Y+5
 681 0452 9E81      		ldd r25,Y+6
 682 0454 FC01      		movw r30,r24
 683 0456 8781      		ldd r24,Z+7
 684 0458 282F      		mov r18,r24
 685 045a 2F70      		andi r18,lo8(15)
 686 045c 8981      		ldd r24,Y+1
 687 045e 9A81      		ldd r25,Y+2
 688 0460 2295      		swap r18
 689 0462 207F      		andi r18,lo8(-16)
 690 0464 FC01      		movw r30,r24
 691 0466 3189      		ldd r19,Z+17
 692 0468 3F70      		andi r19,lo8(15)
 693 046a 232B      		or r18,r19
 694 046c FC01      		movw r30,r24
 695 046e 218B      		std Z+17,r18
 185:../../../stack/LwMesh/TDMA/nwk/src/nwkDataReq.c **** 		
 186:../../../stack/LwMesh/TDMA/nwk/src/nwkDataReq.c **** 		memcpy(frame->payload, req->data, req->size);
 696               		.loc 1 186 0
 697 0470 8D81      		ldd r24,Y+5
 698 0472 9E81      		ldd r25,Y+6
 699 0474 FC01      		movw r30,r24
 700 0476 8685      		ldd r24,Z+14
 701 0478 482F      		mov r20,r24
 702 047a 50E0      		ldi r21,0
 703 047c 8D81      		ldd r24,Y+5
 704 047e 9E81      		ldd r25,Y+6
 705 0480 FC01      		movw r30,r24
 706 0482 2485      		ldd r18,Z+12
 707 0484 3585      		ldd r19,Z+13
 708 0486 8981      		ldd r24,Y+1
 709 0488 9A81      		ldd r25,Y+2
 710 048a 8F57      		subi r24,127
 711 048c 9F4F      		sbci r25,-1
 712 048e FC01      		movw r30,r24
 713 0490 8081      		ld r24,Z
 714 0492 9181      		ldd r25,Z+1
 715 0494 B901      		movw r22,r18
 716 0496 0E94 0000 		call memcpy
 187:../../../stack/LwMesh/TDMA/nwk/src/nwkDataReq.c **** 		frame->size += req->size;
 717               		.loc 1 187 0
 718 049a 8981      		ldd r24,Y+1
 719 049c 9A81      		ldd r25,Y+2
 720 049e FC01      		movw r30,r24
 721 04a0 2181      		ldd r18,Z+1
 722 04a2 8D81      		ldd r24,Y+5
 723 04a4 9E81      		ldd r25,Y+6
 724 04a6 FC01      		movw r30,r24
 725 04a8 8685      		ldd r24,Z+14
 726 04aa 280F      		add r18,r24
 727 04ac 8981      		ldd r24,Y+1
 728 04ae 9A81      		ldd r25,Y+2
 729 04b0 FC01      		movw r30,r24
 730 04b2 2183      		std Z+1,r18
 188:../../../stack/LwMesh/TDMA/nwk/src/nwkDataReq.c **** 		
 189:../../../stack/LwMesh/TDMA/nwk/src/nwkDataReq.c **** 		nwkTxFrame(frame);
 731               		.loc 1 189 0
 732 04b4 8981      		ldd r24,Y+1
 733 04b6 9A81      		ldd r25,Y+2
 734 04b8 0E94 0000 		call nwkTxFrame
 735               	.L6:
 736               	/* epilogue start */
 190:../../../stack/LwMesh/TDMA/nwk/src/nwkDataReq.c **** 	}
 191:../../../stack/LwMesh/TDMA/nwk/src/nwkDataReq.c **** }
 737               		.loc 1 191 0
 738 04bc 2696      		adiw r28,6
 739 04be 0FB6      		in __tmp_reg__,__SREG__
 740 04c0 F894      		cli
 741 04c2 DEBF      		out __SP_H__,r29
 742 04c4 0FBE      		out __SREG__,__tmp_reg__
 743 04c6 CDBF      		out __SP_L__,r28
 744 04c8 DF91      		pop r29
 745 04ca CF91      		pop r28
 746 04cc 0895      		ret
 747               		.cfi_endproc
 748               	.LFE68:
 751               	nwkDataReqTxConf:
 752               	.LFB69:
 192:../../../stack/LwMesh/TDMA/nwk/src/nwkDataReq.c **** 
 193:../../../stack/LwMesh/TDMA/nwk/src/nwkDataReq.c **** /*************************************************************************//**
 194:../../../stack/LwMesh/TDMA/nwk/src/nwkDataReq.c **** *  @brief Frame transmission confirmation handler
 195:../../../stack/LwMesh/TDMA/nwk/src/nwkDataReq.c **** *  @param[in] frame Pointer to the sent frame
 196:../../../stack/LwMesh/TDMA/nwk/src/nwkDataReq.c **** *****************************************************************************/
 197:../../../stack/LwMesh/TDMA/nwk/src/nwkDataReq.c **** static void nwkDataReqTxConf(NwkFrame_t *frame)
 198:../../../stack/LwMesh/TDMA/nwk/src/nwkDataReq.c **** {
 753               		.loc 1 198 0
 754               		.cfi_startproc
 755 04ce CF93      		push r28
 756               	.LCFI11:
 757               		.cfi_def_cfa_offset 3
 758               		.cfi_offset 28, -2
 759 04d0 DF93      		push r29
 760               	.LCFI12:
 761               		.cfi_def_cfa_offset 4
 762               		.cfi_offset 29, -3
 763 04d2 00D0      		rcall .
 764 04d4 00D0      		rcall .
 765               	.LCFI13:
 766               		.cfi_def_cfa_offset 8
 767 04d6 CDB7      		in r28,__SP_L__
 768 04d8 DEB7      		in r29,__SP_H__
 769               	.LCFI14:
 770               		.cfi_def_cfa_register 28
 771               	/* prologue: function */
 772               	/* frame size = 4 */
 773               	/* stack size = 6 */
 774               	.L__stack_usage = 6
 775 04da 9C83      		std Y+4,r25
 776 04dc 8B83      		std Y+3,r24
 777               	.LBB3:
 199:../../../stack/LwMesh/TDMA/nwk/src/nwkDataReq.c **** 	for (NWK_DataReq_t *req = nwkDataReqQueue; req; req = req->next) {
 778               		.loc 1 199 0
 779 04de 8091 0000 		lds r24,nwkDataReqQueue
 780 04e2 9091 0000 		lds r25,nwkDataReqQueue+1
 781 04e6 9A83      		std Y+2,r25
 782 04e8 8983      		std Y+1,r24
 783 04ea 00C0      		rjmp .L17
 784               	.L20:
 200:../../../stack/LwMesh/TDMA/nwk/src/nwkDataReq.c **** 		if (req->frame == frame) {
 785               		.loc 1 200 0
 786 04ec 8981      		ldd r24,Y+1
 787 04ee 9A81      		ldd r25,Y+2
 788 04f0 FC01      		movw r30,r24
 789 04f2 2281      		ldd r18,Z+2
 790 04f4 3381      		ldd r19,Z+3
 791 04f6 8B81      		ldd r24,Y+3
 792 04f8 9C81      		ldd r25,Y+4
 793 04fa 2817      		cp r18,r24
 794 04fc 3907      		cpc r19,r25
 795 04fe 01F4      		brne .L18
 201:../../../stack/LwMesh/TDMA/nwk/src/nwkDataReq.c **** 			req->status = frame->tx.status;
 796               		.loc 1 201 0
 797 0500 8B81      		ldd r24,Y+3
 798 0502 9C81      		ldd r25,Y+4
 799 0504 8D57      		subi r24,125
 800 0506 9F4F      		sbci r25,-1
 801 0508 FC01      		movw r30,r24
 802 050a 2081      		ld r18,Z
 803 050c 8981      		ldd r24,Y+1
 804 050e 9A81      		ldd r25,Y+2
 805 0510 FC01      		movw r30,r24
 806 0512 218B      		std Z+17,r18
 202:../../../stack/LwMesh/TDMA/nwk/src/nwkDataReq.c **** 			req->control = frame->tx.control;
 807               		.loc 1 202 0
 808 0514 8B81      		ldd r24,Y+3
 809 0516 9C81      		ldd r25,Y+4
 810 0518 8A57      		subi r24,122
 811 051a 9F4F      		sbci r25,-1
 812 051c FC01      		movw r30,r24
 813 051e 2081      		ld r18,Z
 814 0520 8981      		ldd r24,Y+1
 815 0522 9A81      		ldd r25,Y+2
 816 0524 FC01      		movw r30,r24
 817 0526 228B      		std Z+18,r18
 203:../../../stack/LwMesh/TDMA/nwk/src/nwkDataReq.c **** 			req->state = NWK_DATA_REQ_STATE_CONFIRM;
 818               		.loc 1 203 0
 819 0528 8981      		ldd r24,Y+1
 820 052a 9A81      		ldd r25,Y+2
 821 052c 22E0      		ldi r18,lo8(2)
 822 052e FC01      		movw r30,r24
 823 0530 2483      		std Z+4,r18
 204:../../../stack/LwMesh/TDMA/nwk/src/nwkDataReq.c **** 			break;
 824               		.loc 1 204 0
 825 0532 00C0      		rjmp .L19
 826               	.L18:
 199:../../../stack/LwMesh/TDMA/nwk/src/nwkDataReq.c **** 		if (req->frame == frame) {
 827               		.loc 1 199 0 discriminator 2
 828 0534 8981      		ldd r24,Y+1
 829 0536 9A81      		ldd r25,Y+2
 830 0538 FC01      		movw r30,r24
 831 053a 8081      		ld r24,Z
 832 053c 9181      		ldd r25,Z+1
 833 053e 9A83      		std Y+2,r25
 834 0540 8983      		std Y+1,r24
 835               	.L17:
 199:../../../stack/LwMesh/TDMA/nwk/src/nwkDataReq.c **** 		if (req->frame == frame) {
 836               		.loc 1 199 0 is_stmt 0 discriminator 1
 837 0542 8981      		ldd r24,Y+1
 838 0544 9A81      		ldd r25,Y+2
 839 0546 892B      		or r24,r25
 840 0548 01F4      		brne .L20
 841               	.L19:
 842               	.LBE3:
 205:../../../stack/LwMesh/TDMA/nwk/src/nwkDataReq.c **** 		}
 206:../../../stack/LwMesh/TDMA/nwk/src/nwkDataReq.c **** 	}
 207:../../../stack/LwMesh/TDMA/nwk/src/nwkDataReq.c **** 
 208:../../../stack/LwMesh/TDMA/nwk/src/nwkDataReq.c **** 	nwkFrameFree(frame);
 843               		.loc 1 208 0 is_stmt 1
 844 054a 8B81      		ldd r24,Y+3
 845 054c 9C81      		ldd r25,Y+4
 846 054e 0E94 0000 		call nwkFrameFree
 209:../../../stack/LwMesh/TDMA/nwk/src/nwkDataReq.c **** }
 847               		.loc 1 209 0
 848 0552 0000      		nop
 849               	/* epilogue start */
 850 0554 0F90      		pop __tmp_reg__
 851 0556 0F90      		pop __tmp_reg__
 852 0558 0F90      		pop __tmp_reg__
 853 055a 0F90      		pop __tmp_reg__
 854 055c DF91      		pop r29
 855 055e CF91      		pop r28
 856 0560 0895      		ret
 857               		.cfi_endproc
 858               	.LFE69:
 861               	nwkDataReqConfirm:
 862               	.LFB70:
 210:../../../stack/LwMesh/TDMA/nwk/src/nwkDataReq.c **** 
 211:../../../stack/LwMesh/TDMA/nwk/src/nwkDataReq.c **** /*************************************************************************//**
 212:../../../stack/LwMesh/TDMA/nwk/src/nwkDataReq.c **** *  @brief Confirms request @req to the application and remove it from the queue
 213:../../../stack/LwMesh/TDMA/nwk/src/nwkDataReq.c **** *  @param[in] req Pointer to the request parameters
 214:../../../stack/LwMesh/TDMA/nwk/src/nwkDataReq.c **** *****************************************************************************/
 215:../../../stack/LwMesh/TDMA/nwk/src/nwkDataReq.c **** static void nwkDataReqConfirm(NWK_DataReq_t *req)
 216:../../../stack/LwMesh/TDMA/nwk/src/nwkDataReq.c **** {
 863               		.loc 1 216 0
 864               		.cfi_startproc
 865 0562 CF93      		push r28
 866               	.LCFI15:
 867               		.cfi_def_cfa_offset 3
 868               		.cfi_offset 28, -2
 869 0564 DF93      		push r29
 870               	.LCFI16:
 871               		.cfi_def_cfa_offset 4
 872               		.cfi_offset 29, -3
 873 0566 00D0      		rcall .
 874 0568 00D0      		rcall .
 875               	.LCFI17:
 876               		.cfi_def_cfa_offset 8
 877 056a CDB7      		in r28,__SP_L__
 878 056c DEB7      		in r29,__SP_H__
 879               	.LCFI18:
 880               		.cfi_def_cfa_register 28
 881               	/* prologue: function */
 882               	/* frame size = 4 */
 883               	/* stack size = 6 */
 884               	.L__stack_usage = 6
 885 056e 9C83      		std Y+4,r25
 886 0570 8B83      		std Y+3,r24
 217:../../../stack/LwMesh/TDMA/nwk/src/nwkDataReq.c **** 	if (nwkDataReqQueue == req) {
 887               		.loc 1 217 0
 888 0572 2091 0000 		lds r18,nwkDataReqQueue
 889 0576 3091 0000 		lds r19,nwkDataReqQueue+1
 890 057a 8B81      		ldd r24,Y+3
 891 057c 9C81      		ldd r25,Y+4
 892 057e 2817      		cp r18,r24
 893 0580 3907      		cpc r19,r25
 894 0582 01F4      		brne .L22
 218:../../../stack/LwMesh/TDMA/nwk/src/nwkDataReq.c **** 		nwkDataReqQueue = nwkDataReqQueue->next;
 895               		.loc 1 218 0
 896 0584 8091 0000 		lds r24,nwkDataReqQueue
 897 0588 9091 0000 		lds r25,nwkDataReqQueue+1
 898 058c FC01      		movw r30,r24
 899 058e 8081      		ld r24,Z
 900 0590 9181      		ldd r25,Z+1
 901 0592 9093 0000 		sts nwkDataReqQueue+1,r25
 902 0596 8093 0000 		sts nwkDataReqQueue,r24
 903 059a 00C0      		rjmp .L23
 904               	.L22:
 905               	.LBB4:
 219:../../../stack/LwMesh/TDMA/nwk/src/nwkDataReq.c **** 	} else {
 220:../../../stack/LwMesh/TDMA/nwk/src/nwkDataReq.c **** 		NWK_DataReq_t *prev = nwkDataReqQueue;
 906               		.loc 1 220 0
 907 059c 8091 0000 		lds r24,nwkDataReqQueue
 908 05a0 9091 0000 		lds r25,nwkDataReqQueue+1
 909 05a4 9A83      		std Y+2,r25
 910 05a6 8983      		std Y+1,r24
 221:../../../stack/LwMesh/TDMA/nwk/src/nwkDataReq.c **** 		while (prev->next != req) {
 911               		.loc 1 221 0
 912 05a8 00C0      		rjmp .L24
 913               	.L25:
 222:../../../stack/LwMesh/TDMA/nwk/src/nwkDataReq.c **** 			prev = prev->next;
 914               		.loc 1 222 0
 915 05aa 8981      		ldd r24,Y+1
 916 05ac 9A81      		ldd r25,Y+2
 917 05ae FC01      		movw r30,r24
 918 05b0 8081      		ld r24,Z
 919 05b2 9181      		ldd r25,Z+1
 920 05b4 9A83      		std Y+2,r25
 921 05b6 8983      		std Y+1,r24
 922               	.L24:
 221:../../../stack/LwMesh/TDMA/nwk/src/nwkDataReq.c **** 		while (prev->next != req) {
 923               		.loc 1 221 0
 924 05b8 8981      		ldd r24,Y+1
 925 05ba 9A81      		ldd r25,Y+2
 926 05bc FC01      		movw r30,r24
 927 05be 2081      		ld r18,Z
 928 05c0 3181      		ldd r19,Z+1
 929 05c2 8B81      		ldd r24,Y+3
 930 05c4 9C81      		ldd r25,Y+4
 931 05c6 2817      		cp r18,r24
 932 05c8 3907      		cpc r19,r25
 933 05ca 01F4      		brne .L25
 223:../../../stack/LwMesh/TDMA/nwk/src/nwkDataReq.c **** 		}
 224:../../../stack/LwMesh/TDMA/nwk/src/nwkDataReq.c **** 		prev->next = ((NWK_DataReq_t *)prev->next)->next;
 934               		.loc 1 224 0
 935 05cc 8981      		ldd r24,Y+1
 936 05ce 9A81      		ldd r25,Y+2
 937 05d0 FC01      		movw r30,r24
 938 05d2 8081      		ld r24,Z
 939 05d4 9181      		ldd r25,Z+1
 940 05d6 FC01      		movw r30,r24
 941 05d8 2081      		ld r18,Z
 942 05da 3181      		ldd r19,Z+1
 943 05dc 8981      		ldd r24,Y+1
 944 05de 9A81      		ldd r25,Y+2
 945 05e0 FC01      		movw r30,r24
 946 05e2 3183      		std Z+1,r19
 947 05e4 2083      		st Z,r18
 948               	.L23:
 949               	.LBE4:
 225:../../../stack/LwMesh/TDMA/nwk/src/nwkDataReq.c **** 	}
 226:../../../stack/LwMesh/TDMA/nwk/src/nwkDataReq.c **** 
 227:../../../stack/LwMesh/TDMA/nwk/src/nwkDataReq.c **** 	nwkIb.lock--;
 950               		.loc 1 227 0
 951 05e6 8091 0000 		lds r24,nwkIb+38
 952 05ea 9091 0000 		lds r25,nwkIb+38+1
 953 05ee 0197      		sbiw r24,1
 954 05f0 9093 0000 		sts nwkIb+38+1,r25
 955 05f4 8093 0000 		sts nwkIb+38,r24
 228:../../../stack/LwMesh/TDMA/nwk/src/nwkDataReq.c **** 
 229:../../../stack/LwMesh/TDMA/nwk/src/nwkDataReq.c **** 	if(req->confirm != NULL)
 956               		.loc 1 229 0
 957 05f8 8B81      		ldd r24,Y+3
 958 05fa 9C81      		ldd r25,Y+4
 959 05fc FC01      		movw r30,r24
 960 05fe 8785      		ldd r24,Z+15
 961 0600 9089      		ldd r25,Z+16
 962 0602 892B      		or r24,r25
 963 0604 01F0      		breq .L27
 230:../../../stack/LwMesh/TDMA/nwk/src/nwkDataReq.c **** 	{
 231:../../../stack/LwMesh/TDMA/nwk/src/nwkDataReq.c **** 		req->confirm(req);
 964               		.loc 1 231 0
 965 0606 8B81      		ldd r24,Y+3
 966 0608 9C81      		ldd r25,Y+4
 967 060a FC01      		movw r30,r24
 968 060c 2785      		ldd r18,Z+15
 969 060e 3089      		ldd r19,Z+16
 970 0610 8B81      		ldd r24,Y+3
 971 0612 9C81      		ldd r25,Y+4
 972 0614 F901      		movw r30,r18
 973 0616 0995      		icall
 974               	.L27:
 232:../../../stack/LwMesh/TDMA/nwk/src/nwkDataReq.c **** 	}
 233:../../../stack/LwMesh/TDMA/nwk/src/nwkDataReq.c **** }
 975               		.loc 1 233 0
 976 0618 0000      		nop
 977               	/* epilogue start */
 978 061a 0F90      		pop __tmp_reg__
 979 061c 0F90      		pop __tmp_reg__
 980 061e 0F90      		pop __tmp_reg__
 981 0620 0F90      		pop __tmp_reg__
 982 0622 DF91      		pop r29
 983 0624 CF91      		pop r28
 984 0626 0895      		ret
 985               		.cfi_endproc
 986               	.LFE70:
 988               	.global	nwkDataReqTaskHandler
 990               	nwkDataReqTaskHandler:
 991               	.LFB71:
 234:../../../stack/LwMesh/TDMA/nwk/src/nwkDataReq.c **** 
 235:../../../stack/LwMesh/TDMA/nwk/src/nwkDataReq.c **** /*************************************************************************//**
 236:../../../stack/LwMesh/TDMA/nwk/src/nwkDataReq.c **** *  @brief Data Request module task handler
 237:../../../stack/LwMesh/TDMA/nwk/src/nwkDataReq.c **** *****************************************************************************/
 238:../../../stack/LwMesh/TDMA/nwk/src/nwkDataReq.c **** void nwkDataReqTaskHandler(void)
 239:../../../stack/LwMesh/TDMA/nwk/src/nwkDataReq.c **** {
 992               		.loc 1 239 0
 993               		.cfi_startproc
 994 0628 CF93      		push r28
 995               	.LCFI19:
 996               		.cfi_def_cfa_offset 3
 997               		.cfi_offset 28, -2
 998 062a DF93      		push r29
 999               	.LCFI20:
 1000               		.cfi_def_cfa_offset 4
 1001               		.cfi_offset 29, -3
 1002 062c 00D0      		rcall .
 1003               	.LCFI21:
 1004               		.cfi_def_cfa_offset 6
 1005 062e CDB7      		in r28,__SP_L__
 1006 0630 DEB7      		in r29,__SP_H__
 1007               	.LCFI22:
 1008               		.cfi_def_cfa_register 28
 1009               	/* prologue: function */
 1010               	/* frame size = 2 */
 1011               	/* stack size = 4 */
 1012               	.L__stack_usage = 4
 1013               	.LBB5:
 240:../../../stack/LwMesh/TDMA/nwk/src/nwkDataReq.c **** 	for (NWK_DataReq_t *req = nwkDataReqQueue; req; req = req->next) {
 1014               		.loc 1 240 0
 1015 0632 8091 0000 		lds r24,nwkDataReqQueue
 1016 0636 9091 0000 		lds r25,nwkDataReqQueue+1
 1017 063a 9A83      		std Y+2,r25
 1018 063c 8983      		std Y+1,r24
 1019 063e 00C0      		rjmp .L29
 1020               	.L36:
 241:../../../stack/LwMesh/TDMA/nwk/src/nwkDataReq.c **** 		switch (req->state) {
 1021               		.loc 1 241 0
 1022 0640 8981      		ldd r24,Y+1
 1023 0642 9A81      		ldd r25,Y+2
 1024 0644 FC01      		movw r30,r24
 1025 0646 8481      		ldd r24,Z+4
 1026 0648 882F      		mov r24,r24
 1027 064a 90E0      		ldi r25,0
 1028 064c 8130      		cpi r24,1
 1029 064e 9105      		cpc r25,__zero_reg__
 1030 0650 01F0      		breq .L37
 1031 0652 8230      		cpi r24,2
 1032 0654 9105      		cpc r25,__zero_reg__
 1033 0656 01F0      		breq .L32
 1034 0658 892B      		or r24,r25
 1035 065a 01F0      		breq .L33
 242:../../../stack/LwMesh/TDMA/nwk/src/nwkDataReq.c **** 		case NWK_DATA_REQ_STATE_INITIAL:
 243:../../../stack/LwMesh/TDMA/nwk/src/nwkDataReq.c **** 		{
 244:../../../stack/LwMesh/TDMA/nwk/src/nwkDataReq.c **** 			nwkDataReqSendFrame(req);
 245:../../../stack/LwMesh/TDMA/nwk/src/nwkDataReq.c **** 			return;
 246:../../../stack/LwMesh/TDMA/nwk/src/nwkDataReq.c **** 		}
 247:../../../stack/LwMesh/TDMA/nwk/src/nwkDataReq.c **** 		break;
 248:../../../stack/LwMesh/TDMA/nwk/src/nwkDataReq.c **** 
 249:../../../stack/LwMesh/TDMA/nwk/src/nwkDataReq.c **** 		case NWK_DATA_REQ_STATE_WAIT_CONF:
 250:../../../stack/LwMesh/TDMA/nwk/src/nwkDataReq.c **** 			break;
 251:../../../stack/LwMesh/TDMA/nwk/src/nwkDataReq.c **** 
 252:../../../stack/LwMesh/TDMA/nwk/src/nwkDataReq.c **** 		case NWK_DATA_REQ_STATE_CONFIRM:
 253:../../../stack/LwMesh/TDMA/nwk/src/nwkDataReq.c **** 		{
 254:../../../stack/LwMesh/TDMA/nwk/src/nwkDataReq.c **** 			nwkDataReqConfirm(req);
 255:../../../stack/LwMesh/TDMA/nwk/src/nwkDataReq.c **** 			return;
 256:../../../stack/LwMesh/TDMA/nwk/src/nwkDataReq.c **** 		}
 257:../../../stack/LwMesh/TDMA/nwk/src/nwkDataReq.c **** 		break;
 258:../../../stack/LwMesh/TDMA/nwk/src/nwkDataReq.c **** 
 259:../../../stack/LwMesh/TDMA/nwk/src/nwkDataReq.c **** 		default:
 260:../../../stack/LwMesh/TDMA/nwk/src/nwkDataReq.c **** 			break;
 1036               		.loc 1 260 0
 1037 065c 00C0      		rjmp .L35
 1038               	.L33:
 244:../../../stack/LwMesh/TDMA/nwk/src/nwkDataReq.c **** 			return;
 1039               		.loc 1 244 0
 1040 065e 8981      		ldd r24,Y+1
 1041 0660 9A81      		ldd r25,Y+2
 1042 0662 0E94 0000 		call nwkDataReqSendFrame
 245:../../../stack/LwMesh/TDMA/nwk/src/nwkDataReq.c **** 		}
 1043               		.loc 1 245 0
 1044 0666 00C0      		rjmp .L28
 1045               	.L32:
 254:../../../stack/LwMesh/TDMA/nwk/src/nwkDataReq.c **** 			return;
 1046               		.loc 1 254 0
 1047 0668 8981      		ldd r24,Y+1
 1048 066a 9A81      		ldd r25,Y+2
 1049 066c 0E94 0000 		call nwkDataReqConfirm
 255:../../../stack/LwMesh/TDMA/nwk/src/nwkDataReq.c **** 		}
 1050               		.loc 1 255 0
 1051 0670 00C0      		rjmp .L28
 1052               	.L37:
 250:../../../stack/LwMesh/TDMA/nwk/src/nwkDataReq.c **** 
 1053               		.loc 1 250 0
 1054 0672 0000      		nop
 1055               	.L35:
 240:../../../stack/LwMesh/TDMA/nwk/src/nwkDataReq.c **** 		switch (req->state) {
 1056               		.loc 1 240 0 discriminator 2
 1057 0674 8981      		ldd r24,Y+1
 1058 0676 9A81      		ldd r25,Y+2
 1059 0678 FC01      		movw r30,r24
 1060 067a 8081      		ld r24,Z
 1061 067c 9181      		ldd r25,Z+1
 1062 067e 9A83      		std Y+2,r25
 1063 0680 8983      		std Y+1,r24
 1064               	.L29:
 240:../../../stack/LwMesh/TDMA/nwk/src/nwkDataReq.c **** 		switch (req->state) {
 1065               		.loc 1 240 0 is_stmt 0 discriminator 1
 1066 0682 8981      		ldd r24,Y+1
 1067 0684 9A81      		ldd r25,Y+2
 1068 0686 892B      		or r24,r25
 1069 0688 01F4      		brne .L36
 1070               	.L28:
 1071               	/* epilogue start */
 1072               	.LBE5:
 261:../../../stack/LwMesh/TDMA/nwk/src/nwkDataReq.c **** 		}
 262:../../../stack/LwMesh/TDMA/nwk/src/nwkDataReq.c **** 	}
 263:../../../stack/LwMesh/TDMA/nwk/src/nwkDataReq.c **** }
 1073               		.loc 1 263 0 is_stmt 1
 1074 068a 0F90      		pop __tmp_reg__
 1075 068c 0F90      		pop __tmp_reg__
 1076 068e DF91      		pop r29
 1077 0690 CF91      		pop r28
 1078 0692 0895      		ret
 1079               		.cfi_endproc
 1080               	.LFE71:
 1082               	.Letext0:
 1083               		.file 2 "c:\\program files (x86)\\atmel\\studio\\7.0\\toolchain\\avr8\\avr8-gnu-toolchain\\avr\\in
 1084               		.file 3 "../../../stack/LwMesh/TDMA/nwk/inc/nwkFrame.h"
 1085               		.file 4 "../../../stack/LwMesh/TDMA/nwk/inc/nwkRx.h"
 1086               		.file 5 "../../../stack/LwMesh/TDMA/nwk/inc/nwkDataReq.h"
 1087               		.file 6 "../../../stack/LwMesh/TDMA/nwk/inc/nwk.h"
 1088               		.file 7 "../../../stack/LwMesh/TDMA/nwk/inc/nwkTx.h"