   1               		.file	"commonlib.c"
   2               	__SP_H__ = 0x3e
   3               	__SP_L__ = 0x3d
   4               	__SREG__ = 0x3f
   5               	__RAMPZ__ = 0x3b
   6               	__tmp_reg__ = 0
   7               	__zero_reg__ = 1
   8               		.text
   9               	.Ltext0:
  10               		.cfi_sections	.debug_frame
  11               	.global	intpow
  13               	intpow:
  14               	.LFB7:
  15               		.file 1 "lp_solve_5.5/shared/commonlib.c"
   1:lp_solve_5.5/shared/commonlib.c **** 
   2:lp_solve_5.5/shared/commonlib.c **** #include <sys/types.h>
   3:lp_solve_5.5/shared/commonlib.c **** 
   4:lp_solve_5.5/shared/commonlib.c **** #if defined INTEGERTIME || defined CLOCKTIME || defined PosixTime
   5:lp_solve_5.5/shared/commonlib.c **** # include <time.h>
   6:lp_solve_5.5/shared/commonlib.c **** #elif defined EnhTime
   7:lp_solve_5.5/shared/commonlib.c **** # include <windows.h>
   8:lp_solve_5.5/shared/commonlib.c **** #else
   9:lp_solve_5.5/shared/commonlib.c **** /*# include <sys/timeb.h>*/
  10:lp_solve_5.5/shared/commonlib.c **** #endif
  11:lp_solve_5.5/shared/commonlib.c **** 
  12:lp_solve_5.5/shared/commonlib.c **** #include <stdlib.h>
  13:lp_solve_5.5/shared/commonlib.c **** #include <stdio.h>
  14:lp_solve_5.5/shared/commonlib.c **** #ifdef WIN32
  15:lp_solve_5.5/shared/commonlib.c **** # include <io.h>       /* Used in file search functions */
  16:lp_solve_5.5/shared/commonlib.c **** #endif
  17:lp_solve_5.5/shared/commonlib.c **** #include <ctype.h>
  18:lp_solve_5.5/shared/commonlib.c **** #include <string.h>
  19:lp_solve_5.5/shared/commonlib.c **** #include <float.h>
  20:lp_solve_5.5/shared/commonlib.c **** #include <math.h>
  21:lp_solve_5.5/shared/commonlib.c **** #include "commonlib.h"
  22:lp_solve_5.5/shared/commonlib.c **** 
  23:lp_solve_5.5/shared/commonlib.c **** #ifdef FORTIFY
  24:lp_solve_5.5/shared/commonlib.c **** # include "lp_fortify.h"
  25:lp_solve_5.5/shared/commonlib.c **** #endif
  26:lp_solve_5.5/shared/commonlib.c **** 
  27:lp_solve_5.5/shared/commonlib.c **** #if defined FPUexception
  28:lp_solve_5.5/shared/commonlib.c **** /* FPU exception masks */
  29:lp_solve_5.5/shared/commonlib.c **** unsigned int clearFPU()
  30:lp_solve_5.5/shared/commonlib.c **** {
  31:lp_solve_5.5/shared/commonlib.c ****   return( _clearfp() );
  32:lp_solve_5.5/shared/commonlib.c **** }
  33:lp_solve_5.5/shared/commonlib.c **** unsigned int resetFPU(unsigned int mask)
  34:lp_solve_5.5/shared/commonlib.c **** {
  35:lp_solve_5.5/shared/commonlib.c ****   _clearfp();
  36:lp_solve_5.5/shared/commonlib.c ****   mask = _controlfp( mask, 0xfffff);
  37:lp_solve_5.5/shared/commonlib.c ****   return( mask );
  38:lp_solve_5.5/shared/commonlib.c **** }
  39:lp_solve_5.5/shared/commonlib.c **** unsigned int catchFPU(unsigned int mask)
  40:lp_solve_5.5/shared/commonlib.c **** {
  41:lp_solve_5.5/shared/commonlib.c ****   /* Always call _clearfp before enabling/unmasking a FPU exception */
  42:lp_solve_5.5/shared/commonlib.c ****   unsigned int u = _clearfp();
  43:lp_solve_5.5/shared/commonlib.c **** 
  44:lp_solve_5.5/shared/commonlib.c ****   /* Set the new mask by not-and'ing it with the previous settings */
  45:lp_solve_5.5/shared/commonlib.c ****   u = _controlfp(0, 0);
  46:lp_solve_5.5/shared/commonlib.c ****   mask = u & ~mask;
  47:lp_solve_5.5/shared/commonlib.c ****   mask = _controlfp(mask, _MCW_EM);
  48:lp_solve_5.5/shared/commonlib.c **** 
  49:lp_solve_5.5/shared/commonlib.c ****   /* Return the previous mask */
  50:lp_solve_5.5/shared/commonlib.c ****   return( u );
  51:lp_solve_5.5/shared/commonlib.c **** }
  52:lp_solve_5.5/shared/commonlib.c **** #endif
  53:lp_solve_5.5/shared/commonlib.c **** 
  54:lp_solve_5.5/shared/commonlib.c **** /* Math operator equivalence function */
  55:lp_solve_5.5/shared/commonlib.c **** int intpow(int base, int exponent)
  56:lp_solve_5.5/shared/commonlib.c **** {
  16               		.loc 1 56 0
  17               		.cfi_startproc
  18 0000 CF93      		push r28
  19               	.LCFI0:
  20               		.cfi_def_cfa_offset 3
  21               		.cfi_offset 28, -2
  22 0002 DF93      		push r29
  23               	.LCFI1:
  24               		.cfi_def_cfa_offset 4
  25               		.cfi_offset 29, -3
  26 0004 00D0      		rcall .
  27 0006 00D0      		rcall .
  28 0008 00D0      		rcall .
  29               	.LCFI2:
  30               		.cfi_def_cfa_offset 10
  31 000a CDB7      		in r28,__SP_L__
  32 000c DEB7      		in r29,__SP_H__
  33               	.LCFI3:
  34               		.cfi_def_cfa_register 28
  35               	/* prologue: function */
  36               	/* frame size = 6 */
  37               	/* stack size = 8 */
  38               	.L__stack_usage = 8
  39 000e 9C83      		std Y+4,r25
  40 0010 8B83      		std Y+3,r24
  41 0012 7E83      		std Y+6,r23
  42 0014 6D83      		std Y+5,r22
  57:lp_solve_5.5/shared/commonlib.c ****   int result = 1;
  43               		.loc 1 57 0
  44 0016 81E0      		ldi r24,lo8(1)
  45 0018 90E0      		ldi r25,0
  46 001a 9A83      		std Y+2,r25
  47 001c 8983      		std Y+1,r24
  58:lp_solve_5.5/shared/commonlib.c ****   while(exponent > 0) {
  48               		.loc 1 58 0
  49 001e 00C0      		rjmp .L2
  50               	.L3:
  59:lp_solve_5.5/shared/commonlib.c ****     result *= base;
  51               		.loc 1 59 0
  52 0020 4981      		ldd r20,Y+1
  53 0022 5A81      		ldd r21,Y+2
  54 0024 2B81      		ldd r18,Y+3
  55 0026 3C81      		ldd r19,Y+4
  56 0028 429F      		mul r20,r18
  57 002a C001      		movw r24,r0
  58 002c 439F      		mul r20,r19
  59 002e 900D      		add r25,r0
  60 0030 529F      		mul r21,r18
  61 0032 900D      		add r25,r0
  62 0034 1124      		clr r1
  63 0036 9A83      		std Y+2,r25
  64 0038 8983      		std Y+1,r24
  60:lp_solve_5.5/shared/commonlib.c ****     exponent--;
  65               		.loc 1 60 0
  66 003a 8D81      		ldd r24,Y+5
  67 003c 9E81      		ldd r25,Y+6
  68 003e 0197      		sbiw r24,1
  69 0040 9E83      		std Y+6,r25
  70 0042 8D83      		std Y+5,r24
  71               	.L2:
  58:lp_solve_5.5/shared/commonlib.c ****   while(exponent > 0) {
  72               		.loc 1 58 0
  73 0044 8D81      		ldd r24,Y+5
  74 0046 9E81      		ldd r25,Y+6
  75 0048 1816      		cp __zero_reg__,r24
  76 004a 1906      		cpc __zero_reg__,r25
  77 004c 04F0      		brlt .L3
  61:lp_solve_5.5/shared/commonlib.c ****   }
  62:lp_solve_5.5/shared/commonlib.c ****   while(exponent < 0) {
  78               		.loc 1 62 0
  79 004e 00C0      		rjmp .L4
  80               	.L5:
  63:lp_solve_5.5/shared/commonlib.c ****     result /= base;
  81               		.loc 1 63 0
  82 0050 8981      		ldd r24,Y+1
  83 0052 9A81      		ldd r25,Y+2
  84 0054 2B81      		ldd r18,Y+3
  85 0056 3C81      		ldd r19,Y+4
  86 0058 B901      		movw r22,r18
  87 005a 0E94 0000 		call __divmodhi4
  88 005e CB01      		movw r24,r22
  89 0060 9A83      		std Y+2,r25
  90 0062 8983      		std Y+1,r24
  64:lp_solve_5.5/shared/commonlib.c ****     exponent++;
  91               		.loc 1 64 0
  92 0064 8D81      		ldd r24,Y+5
  93 0066 9E81      		ldd r25,Y+6
  94 0068 0196      		adiw r24,1
  95 006a 9E83      		std Y+6,r25
  96 006c 8D83      		std Y+5,r24
  97               	.L4:
  62:lp_solve_5.5/shared/commonlib.c ****     result /= base;
  98               		.loc 1 62 0
  99 006e 8D81      		ldd r24,Y+5
 100 0070 9E81      		ldd r25,Y+6
 101 0072 9923      		tst r25
 102 0074 04F0      		brlt .L5
  65:lp_solve_5.5/shared/commonlib.c ****   }
  66:lp_solve_5.5/shared/commonlib.c ****   return( result );
 103               		.loc 1 66 0
 104 0076 8981      		ldd r24,Y+1
 105 0078 9A81      		ldd r25,Y+2
 106               	/* epilogue start */
  67:lp_solve_5.5/shared/commonlib.c **** }
 107               		.loc 1 67 0
 108 007a 2696      		adiw r28,6
 109 007c 0FB6      		in __tmp_reg__,__SREG__
 110 007e F894      		cli
 111 0080 DEBF      		out __SP_H__,r29
 112 0082 0FBE      		out __SREG__,__tmp_reg__
 113 0084 CDBF      		out __SP_L__,r28
 114 0086 DF91      		pop r29
 115 0088 CF91      		pop r28
 116 008a 0895      		ret
 117               		.cfi_endproc
 118               	.LFE7:
 120               	.global	mod
 122               	mod:
 123               	.LFB8:
  68:lp_solve_5.5/shared/commonlib.c **** int mod(int n, int d)
  69:lp_solve_5.5/shared/commonlib.c **** {
 124               		.loc 1 69 0
 125               		.cfi_startproc
 126 008c CF93      		push r28
 127               	.LCFI4:
 128               		.cfi_def_cfa_offset 3
 129               		.cfi_offset 28, -2
 130 008e DF93      		push r29
 131               	.LCFI5:
 132               		.cfi_def_cfa_offset 4
 133               		.cfi_offset 29, -3
 134 0090 00D0      		rcall .
 135 0092 00D0      		rcall .
 136               	.LCFI6:
 137               		.cfi_def_cfa_offset 8
 138 0094 CDB7      		in r28,__SP_L__
 139 0096 DEB7      		in r29,__SP_H__
 140               	.LCFI7:
 141               		.cfi_def_cfa_register 28
 142               	/* prologue: function */
 143               	/* frame size = 4 */
 144               	/* stack size = 6 */
 145               	.L__stack_usage = 6
 146 0098 9A83      		std Y+2,r25
 147 009a 8983      		std Y+1,r24
 148 009c 7C83      		std Y+4,r23
 149 009e 6B83      		std Y+3,r22
  70:lp_solve_5.5/shared/commonlib.c ****   return(n % d);
 150               		.loc 1 70 0
 151 00a0 8981      		ldd r24,Y+1
 152 00a2 9A81      		ldd r25,Y+2
 153 00a4 2B81      		ldd r18,Y+3
 154 00a6 3C81      		ldd r19,Y+4
 155 00a8 B901      		movw r22,r18
 156 00aa 0E94 0000 		call __divmodhi4
 157               	/* epilogue start */
  71:lp_solve_5.5/shared/commonlib.c **** }
 158               		.loc 1 71 0
 159 00ae 0F90      		pop __tmp_reg__
 160 00b0 0F90      		pop __tmp_reg__
 161 00b2 0F90      		pop __tmp_reg__
 162 00b4 0F90      		pop __tmp_reg__
 163 00b6 DF91      		pop r29
 164 00b8 CF91      		pop r28
 165 00ba 0895      		ret
 166               		.cfi_endproc
 167               	.LFE8:
 169               	.global	strtoup
 171               	strtoup:
 172               	.LFB9:
  72:lp_solve_5.5/shared/commonlib.c **** 
  73:lp_solve_5.5/shared/commonlib.c **** /* Some string functions */
  74:lp_solve_5.5/shared/commonlib.c **** void strtoup(char *s)
  75:lp_solve_5.5/shared/commonlib.c **** {
 173               		.loc 1 75 0
 174               		.cfi_startproc
 175 00bc CF93      		push r28
 176               	.LCFI8:
 177               		.cfi_def_cfa_offset 3
 178               		.cfi_offset 28, -2
 179 00be DF93      		push r29
 180               	.LCFI9:
 181               		.cfi_def_cfa_offset 4
 182               		.cfi_offset 29, -3
 183 00c0 00D0      		rcall .
 184               	.LCFI10:
 185               		.cfi_def_cfa_offset 6
 186 00c2 CDB7      		in r28,__SP_L__
 187 00c4 DEB7      		in r29,__SP_H__
 188               	.LCFI11:
 189               		.cfi_def_cfa_register 28
 190               	/* prologue: function */
 191               	/* frame size = 2 */
 192               	/* stack size = 4 */
 193               	.L__stack_usage = 4
 194 00c6 9A83      		std Y+2,r25
 195 00c8 8983      		std Y+1,r24
  76:lp_solve_5.5/shared/commonlib.c ****   if(s != NULL)
 196               		.loc 1 76 0
 197 00ca 8981      		ldd r24,Y+1
 198 00cc 9A81      		ldd r25,Y+2
 199 00ce 892B      		or r24,r25
 200 00d0 01F0      		breq .L13
  77:lp_solve_5.5/shared/commonlib.c ****   while (*s) {
 201               		.loc 1 77 0
 202 00d2 00C0      		rjmp .L11
 203               	.L12:
  78:lp_solve_5.5/shared/commonlib.c ****     *s = toupper(*s);
 204               		.loc 1 78 0
 205 00d4 8981      		ldd r24,Y+1
 206 00d6 9A81      		ldd r25,Y+2
 207 00d8 FC01      		movw r30,r24
 208 00da 8081      		ld r24,Z
 209 00dc 882F      		mov r24,r24
 210 00de 90E0      		ldi r25,0
 211 00e0 0E94 0000 		call toupper
 212 00e4 282F      		mov r18,r24
 213 00e6 8981      		ldd r24,Y+1
 214 00e8 9A81      		ldd r25,Y+2
 215 00ea FC01      		movw r30,r24
 216 00ec 2083      		st Z,r18
  79:lp_solve_5.5/shared/commonlib.c ****     s++;
 217               		.loc 1 79 0
 218 00ee 8981      		ldd r24,Y+1
 219 00f0 9A81      		ldd r25,Y+2
 220 00f2 0196      		adiw r24,1
 221 00f4 9A83      		std Y+2,r25
 222 00f6 8983      		std Y+1,r24
 223               	.L11:
  77:lp_solve_5.5/shared/commonlib.c ****   while (*s) {
 224               		.loc 1 77 0
 225 00f8 8981      		ldd r24,Y+1
 226 00fa 9A81      		ldd r25,Y+2
 227 00fc FC01      		movw r30,r24
 228 00fe 8081      		ld r24,Z
 229 0100 8823      		tst r24
 230 0102 01F4      		brne .L12
 231               	.L13:
  80:lp_solve_5.5/shared/commonlib.c ****   }
  81:lp_solve_5.5/shared/commonlib.c **** }
 232               		.loc 1 81 0
 233 0104 0000      		nop
 234               	/* epilogue start */
 235 0106 0F90      		pop __tmp_reg__
 236 0108 0F90      		pop __tmp_reg__
 237 010a DF91      		pop r29
 238 010c CF91      		pop r28
 239 010e 0895      		ret
 240               		.cfi_endproc
 241               	.LFE9:
 243               	.global	strtolo
 245               	strtolo:
 246               	.LFB10:
  82:lp_solve_5.5/shared/commonlib.c **** void strtolo(char *s)
  83:lp_solve_5.5/shared/commonlib.c **** {
 247               		.loc 1 83 0
 248               		.cfi_startproc
 249 0110 CF93      		push r28
 250               	.LCFI12:
 251               		.cfi_def_cfa_offset 3
 252               		.cfi_offset 28, -2
 253 0112 DF93      		push r29
 254               	.LCFI13:
 255               		.cfi_def_cfa_offset 4
 256               		.cfi_offset 29, -3
 257 0114 00D0      		rcall .
 258               	.LCFI14:
 259               		.cfi_def_cfa_offset 6
 260 0116 CDB7      		in r28,__SP_L__
 261 0118 DEB7      		in r29,__SP_H__
 262               	.LCFI15:
 263               		.cfi_def_cfa_register 28
 264               	/* prologue: function */
 265               	/* frame size = 2 */
 266               	/* stack size = 4 */
 267               	.L__stack_usage = 4
 268 011a 9A83      		std Y+2,r25
 269 011c 8983      		std Y+1,r24
  84:lp_solve_5.5/shared/commonlib.c ****   if(s != NULL)
 270               		.loc 1 84 0
 271 011e 8981      		ldd r24,Y+1
 272 0120 9A81      		ldd r25,Y+2
 273 0122 892B      		or r24,r25
 274 0124 01F0      		breq .L18
  85:lp_solve_5.5/shared/commonlib.c ****   while (*s) {
 275               		.loc 1 85 0
 276 0126 00C0      		rjmp .L16
 277               	.L17:
  86:lp_solve_5.5/shared/commonlib.c ****     *s = tolower(*s);
 278               		.loc 1 86 0
 279 0128 8981      		ldd r24,Y+1
 280 012a 9A81      		ldd r25,Y+2
 281 012c FC01      		movw r30,r24
 282 012e 8081      		ld r24,Z
 283 0130 882F      		mov r24,r24
 284 0132 90E0      		ldi r25,0
 285 0134 0E94 0000 		call tolower
 286 0138 282F      		mov r18,r24
 287 013a 8981      		ldd r24,Y+1
 288 013c 9A81      		ldd r25,Y+2
 289 013e FC01      		movw r30,r24
 290 0140 2083      		st Z,r18
  87:lp_solve_5.5/shared/commonlib.c ****     s++;
 291               		.loc 1 87 0
 292 0142 8981      		ldd r24,Y+1
 293 0144 9A81      		ldd r25,Y+2
 294 0146 0196      		adiw r24,1
 295 0148 9A83      		std Y+2,r25
 296 014a 8983      		std Y+1,r24
 297               	.L16:
  85:lp_solve_5.5/shared/commonlib.c ****   while (*s) {
 298               		.loc 1 85 0
 299 014c 8981      		ldd r24,Y+1
 300 014e 9A81      		ldd r25,Y+2
 301 0150 FC01      		movw r30,r24
 302 0152 8081      		ld r24,Z
 303 0154 8823      		tst r24
 304 0156 01F4      		brne .L17
 305               	.L18:
  88:lp_solve_5.5/shared/commonlib.c ****   }
  89:lp_solve_5.5/shared/commonlib.c **** }
 306               		.loc 1 89 0
 307 0158 0000      		nop
 308               	/* epilogue start */
 309 015a 0F90      		pop __tmp_reg__
 310 015c 0F90      		pop __tmp_reg__
 311 015e DF91      		pop r29
 312 0160 CF91      		pop r28
 313 0162 0895      		ret
 314               		.cfi_endproc
 315               	.LFE10:
 317               	.global	strcpyup
 319               	strcpyup:
 320               	.LFB11:
  90:lp_solve_5.5/shared/commonlib.c **** void strcpyup(char *t, char *s)
  91:lp_solve_5.5/shared/commonlib.c **** {
 321               		.loc 1 91 0
 322               		.cfi_startproc
 323 0164 CF93      		push r28
 324               	.LCFI16:
 325               		.cfi_def_cfa_offset 3
 326               		.cfi_offset 28, -2
 327 0166 DF93      		push r29
 328               	.LCFI17:
 329               		.cfi_def_cfa_offset 4
 330               		.cfi_offset 29, -3
 331 0168 00D0      		rcall .
 332 016a 00D0      		rcall .
 333               	.LCFI18:
 334               		.cfi_def_cfa_offset 8
 335 016c CDB7      		in r28,__SP_L__
 336 016e DEB7      		in r29,__SP_H__
 337               	.LCFI19:
 338               		.cfi_def_cfa_register 28
 339               	/* prologue: function */
 340               	/* frame size = 4 */
 341               	/* stack size = 6 */
 342               	.L__stack_usage = 6
 343 0170 9A83      		std Y+2,r25
 344 0172 8983      		std Y+1,r24
 345 0174 7C83      		std Y+4,r23
 346 0176 6B83      		std Y+3,r22
  92:lp_solve_5.5/shared/commonlib.c ****   if((s != NULL) && (t != NULL)) {
 347               		.loc 1 92 0
 348 0178 8B81      		ldd r24,Y+3
 349 017a 9C81      		ldd r25,Y+4
 350 017c 892B      		or r24,r25
 351 017e 01F0      		breq .L23
 352               		.loc 1 92 0 is_stmt 0 discriminator 1
 353 0180 8981      		ldd r24,Y+1
 354 0182 9A81      		ldd r25,Y+2
 355 0184 892B      		or r24,r25
 356 0186 01F0      		breq .L23
  93:lp_solve_5.5/shared/commonlib.c ****     while (*s) {
 357               		.loc 1 93 0 is_stmt 1
 358 0188 00C0      		rjmp .L21
 359               	.L22:
  94:lp_solve_5.5/shared/commonlib.c ****       *t = toupper(*s);
 360               		.loc 1 94 0
 361 018a 8B81      		ldd r24,Y+3
 362 018c 9C81      		ldd r25,Y+4
 363 018e FC01      		movw r30,r24
 364 0190 8081      		ld r24,Z
 365 0192 882F      		mov r24,r24
 366 0194 90E0      		ldi r25,0
 367 0196 0E94 0000 		call toupper
 368 019a 282F      		mov r18,r24
 369 019c 8981      		ldd r24,Y+1
 370 019e 9A81      		ldd r25,Y+2
 371 01a0 FC01      		movw r30,r24
 372 01a2 2083      		st Z,r18
  95:lp_solve_5.5/shared/commonlib.c ****       t++;
 373               		.loc 1 95 0
 374 01a4 8981      		ldd r24,Y+1
 375 01a6 9A81      		ldd r25,Y+2
 376 01a8 0196      		adiw r24,1
 377 01aa 9A83      		std Y+2,r25
 378 01ac 8983      		std Y+1,r24
  96:lp_solve_5.5/shared/commonlib.c ****       s++;
 379               		.loc 1 96 0
 380 01ae 8B81      		ldd r24,Y+3
 381 01b0 9C81      		ldd r25,Y+4
 382 01b2 0196      		adiw r24,1
 383 01b4 9C83      		std Y+4,r25
 384 01b6 8B83      		std Y+3,r24
 385               	.L21:
  93:lp_solve_5.5/shared/commonlib.c ****       *t = toupper(*s);
 386               		.loc 1 93 0
 387 01b8 8B81      		ldd r24,Y+3
 388 01ba 9C81      		ldd r25,Y+4
 389 01bc FC01      		movw r30,r24
 390 01be 8081      		ld r24,Z
 391 01c0 8823      		tst r24
 392 01c2 01F4      		brne .L22
  97:lp_solve_5.5/shared/commonlib.c ****     }
  98:lp_solve_5.5/shared/commonlib.c ****     *t = '\0';
 393               		.loc 1 98 0
 394 01c4 8981      		ldd r24,Y+1
 395 01c6 9A81      		ldd r25,Y+2
 396 01c8 FC01      		movw r30,r24
 397 01ca 1082      		st Z,__zero_reg__
 398               	.L23:
  99:lp_solve_5.5/shared/commonlib.c ****   }
 100:lp_solve_5.5/shared/commonlib.c **** }
 399               		.loc 1 100 0
 400 01cc 0000      		nop
 401               	/* epilogue start */
 402 01ce 0F90      		pop __tmp_reg__
 403 01d0 0F90      		pop __tmp_reg__
 404 01d2 0F90      		pop __tmp_reg__
 405 01d4 0F90      		pop __tmp_reg__
 406 01d6 DF91      		pop r29
 407 01d8 CF91      		pop r28
 408 01da 0895      		ret
 409               		.cfi_endproc
 410               	.LFE11:
 412               	.global	strcpylo
 414               	strcpylo:
 415               	.LFB12:
 101:lp_solve_5.5/shared/commonlib.c **** void strcpylo(char *t, char *s)
 102:lp_solve_5.5/shared/commonlib.c **** {
 416               		.loc 1 102 0
 417               		.cfi_startproc
 418 01dc CF93      		push r28
 419               	.LCFI20:
 420               		.cfi_def_cfa_offset 3
 421               		.cfi_offset 28, -2
 422 01de DF93      		push r29
 423               	.LCFI21:
 424               		.cfi_def_cfa_offset 4
 425               		.cfi_offset 29, -3
 426 01e0 00D0      		rcall .
 427 01e2 00D0      		rcall .
 428               	.LCFI22:
 429               		.cfi_def_cfa_offset 8
 430 01e4 CDB7      		in r28,__SP_L__
 431 01e6 DEB7      		in r29,__SP_H__
 432               	.LCFI23:
 433               		.cfi_def_cfa_register 28
 434               	/* prologue: function */
 435               	/* frame size = 4 */
 436               	/* stack size = 6 */
 437               	.L__stack_usage = 6
 438 01e8 9A83      		std Y+2,r25
 439 01ea 8983      		std Y+1,r24
 440 01ec 7C83      		std Y+4,r23
 441 01ee 6B83      		std Y+3,r22
 103:lp_solve_5.5/shared/commonlib.c ****   if((s != NULL) && (t != NULL)) {
 442               		.loc 1 103 0
 443 01f0 8B81      		ldd r24,Y+3
 444 01f2 9C81      		ldd r25,Y+4
 445 01f4 892B      		or r24,r25
 446 01f6 01F0      		breq .L28
 447               		.loc 1 103 0 is_stmt 0 discriminator 1
 448 01f8 8981      		ldd r24,Y+1
 449 01fa 9A81      		ldd r25,Y+2
 450 01fc 892B      		or r24,r25
 451 01fe 01F0      		breq .L28
 104:lp_solve_5.5/shared/commonlib.c ****     while (*s) {
 452               		.loc 1 104 0 is_stmt 1
 453 0200 00C0      		rjmp .L26
 454               	.L27:
 105:lp_solve_5.5/shared/commonlib.c ****       *t = tolower(*s);
 455               		.loc 1 105 0
 456 0202 8B81      		ldd r24,Y+3
 457 0204 9C81      		ldd r25,Y+4
 458 0206 FC01      		movw r30,r24
 459 0208 8081      		ld r24,Z
 460 020a 882F      		mov r24,r24
 461 020c 90E0      		ldi r25,0
 462 020e 0E94 0000 		call tolower
 463 0212 282F      		mov r18,r24
 464 0214 8981      		ldd r24,Y+1
 465 0216 9A81      		ldd r25,Y+2
 466 0218 FC01      		movw r30,r24
 467 021a 2083      		st Z,r18
 106:lp_solve_5.5/shared/commonlib.c ****       t++;
 468               		.loc 1 106 0
 469 021c 8981      		ldd r24,Y+1
 470 021e 9A81      		ldd r25,Y+2
 471 0220 0196      		adiw r24,1
 472 0222 9A83      		std Y+2,r25
 473 0224 8983      		std Y+1,r24
 107:lp_solve_5.5/shared/commonlib.c ****       s++;
 474               		.loc 1 107 0
 475 0226 8B81      		ldd r24,Y+3
 476 0228 9C81      		ldd r25,Y+4
 477 022a 0196      		adiw r24,1
 478 022c 9C83      		std Y+4,r25
 479 022e 8B83      		std Y+3,r24
 480               	.L26:
 104:lp_solve_5.5/shared/commonlib.c ****       *t = tolower(*s);
 481               		.loc 1 104 0
 482 0230 8B81      		ldd r24,Y+3
 483 0232 9C81      		ldd r25,Y+4
 484 0234 FC01      		movw r30,r24
 485 0236 8081      		ld r24,Z
 486 0238 8823      		tst r24
 487 023a 01F4      		brne .L27
 108:lp_solve_5.5/shared/commonlib.c ****     }
 109:lp_solve_5.5/shared/commonlib.c ****     *t = '\0';
 488               		.loc 1 109 0
 489 023c 8981      		ldd r24,Y+1
 490 023e 9A81      		ldd r25,Y+2
 491 0240 FC01      		movw r30,r24
 492 0242 1082      		st Z,__zero_reg__
 493               	.L28:
 110:lp_solve_5.5/shared/commonlib.c ****   }
 111:lp_solve_5.5/shared/commonlib.c **** }
 494               		.loc 1 111 0
 495 0244 0000      		nop
 496               	/* epilogue start */
 497 0246 0F90      		pop __tmp_reg__
 498 0248 0F90      		pop __tmp_reg__
 499 024a 0F90      		pop __tmp_reg__
 500 024c 0F90      		pop __tmp_reg__
 501 024e DF91      		pop r29
 502 0250 CF91      		pop r28
 503 0252 0895      		ret
 504               		.cfi_endproc
 505               	.LFE12:
 507               		.section	.rodata
 508               	.LC0:
 509 0000 6C69 6200 		.string	"lib"
 510               	.LC1:
 511 0004 2E73 6F00 		.string	".so"
 512               		.text
 513               	.global	so_stdname
 515               	so_stdname:
 516               	.LFB13:
 112:lp_solve_5.5/shared/commonlib.c **** 
 113:lp_solve_5.5/shared/commonlib.c **** /* Unix library naming utility function */
 114:lp_solve_5.5/shared/commonlib.c **** MYBOOL so_stdname(char *stdname, char *descname, int buflen)
 115:lp_solve_5.5/shared/commonlib.c **** {
 517               		.loc 1 115 0
 518               		.cfi_startproc
 519 0254 CF93      		push r28
 520               	.LCFI24:
 521               		.cfi_def_cfa_offset 3
 522               		.cfi_offset 28, -2
 523 0256 DF93      		push r29
 524               	.LCFI25:
 525               		.cfi_def_cfa_offset 4
 526               		.cfi_offset 29, -3
 527 0258 CDB7      		in r28,__SP_L__
 528 025a DEB7      		in r29,__SP_H__
 529               	.LCFI26:
 530               		.cfi_def_cfa_register 28
 531 025c 2897      		sbiw r28,8
 532               	.LCFI27:
 533               		.cfi_def_cfa_offset 12
 534 025e 0FB6      		in __tmp_reg__,__SREG__
 535 0260 F894      		cli
 536 0262 DEBF      		out __SP_H__,r29
 537 0264 0FBE      		out __SREG__,__tmp_reg__
 538 0266 CDBF      		out __SP_L__,r28
 539               	/* prologue: function */
 540               	/* frame size = 8 */
 541               	/* stack size = 10 */
 542               	.L__stack_usage = 10
 543 0268 9C83      		std Y+4,r25
 544 026a 8B83      		std Y+3,r24
 545 026c 7E83      		std Y+6,r23
 546 026e 6D83      		std Y+5,r22
 547 0270 5887      		std Y+8,r21
 548 0272 4F83      		std Y+7,r20
 116:lp_solve_5.5/shared/commonlib.c ****   char *ptr;
 117:lp_solve_5.5/shared/commonlib.c **** 
 118:lp_solve_5.5/shared/commonlib.c ****   if((descname == NULL) || (stdname == NULL) || (((int) strlen(descname)) >= buflen - 6))
 549               		.loc 1 118 0
 550 0274 8D81      		ldd r24,Y+5
 551 0276 9E81      		ldd r25,Y+6
 552 0278 892B      		or r24,r25
 553 027a 01F0      		breq .L30
 554               		.loc 1 118 0 is_stmt 0 discriminator 1
 555 027c 8B81      		ldd r24,Y+3
 556 027e 9C81      		ldd r25,Y+4
 557 0280 892B      		or r24,r25
 558 0282 01F0      		breq .L30
 559               		.loc 1 118 0 discriminator 2
 560 0284 8D81      		ldd r24,Y+5
 561 0286 9E81      		ldd r25,Y+6
 562 0288 0E94 0000 		call strlen
 563 028c 9C01      		movw r18,r24
 564 028e 8F81      		ldd r24,Y+7
 565 0290 9885      		ldd r25,Y+8
 566 0292 0697      		sbiw r24,6
 567 0294 2817      		cp r18,r24
 568 0296 3907      		cpc r19,r25
 569 0298 04F0      		brlt .L31
 570               	.L30:
 119:lp_solve_5.5/shared/commonlib.c ****     return( FALSE );
 571               		.loc 1 119 0 is_stmt 1
 572 029a 80E0      		ldi r24,0
 573 029c 00C0      		rjmp .L32
 574               	.L31:
 120:lp_solve_5.5/shared/commonlib.c **** 
 121:lp_solve_5.5/shared/commonlib.c ****   strcpy(stdname, descname);
 575               		.loc 1 121 0
 576 029e 2D81      		ldd r18,Y+5
 577 02a0 3E81      		ldd r19,Y+6
 578 02a2 8B81      		ldd r24,Y+3
 579 02a4 9C81      		ldd r25,Y+4
 580 02a6 B901      		movw r22,r18
 581 02a8 0E94 0000 		call strcpy
 122:lp_solve_5.5/shared/commonlib.c ****   if((ptr = strrchr(descname, '/')) == NULL)
 582               		.loc 1 122 0
 583 02ac 8D81      		ldd r24,Y+5
 584 02ae 9E81      		ldd r25,Y+6
 585 02b0 6FE2      		ldi r22,lo8(47)
 586 02b2 70E0      		ldi r23,0
 587 02b4 0E94 0000 		call strrchr
 588 02b8 9A83      		std Y+2,r25
 589 02ba 8983      		std Y+1,r24
 590 02bc 8981      		ldd r24,Y+1
 591 02be 9A81      		ldd r25,Y+2
 592 02c0 892B      		or r24,r25
 593 02c2 01F4      		brne .L33
 123:lp_solve_5.5/shared/commonlib.c ****     ptr = descname;
 594               		.loc 1 123 0
 595 02c4 8D81      		ldd r24,Y+5
 596 02c6 9E81      		ldd r25,Y+6
 597 02c8 9A83      		std Y+2,r25
 598 02ca 8983      		std Y+1,r24
 599 02cc 00C0      		rjmp .L34
 600               	.L33:
 124:lp_solve_5.5/shared/commonlib.c ****   else
 125:lp_solve_5.5/shared/commonlib.c ****     ptr++;
 601               		.loc 1 125 0
 602 02ce 8981      		ldd r24,Y+1
 603 02d0 9A81      		ldd r25,Y+2
 604 02d2 0196      		adiw r24,1
 605 02d4 9A83      		std Y+2,r25
 606 02d6 8983      		std Y+1,r24
 607               	.L34:
 126:lp_solve_5.5/shared/commonlib.c ****   stdname[(int) (ptr - descname)] = 0;
 608               		.loc 1 126 0
 609 02d8 2981      		ldd r18,Y+1
 610 02da 3A81      		ldd r19,Y+2
 611 02dc 8D81      		ldd r24,Y+5
 612 02de 9E81      		ldd r25,Y+6
 613 02e0 A901      		movw r20,r18
 614 02e2 481B      		sub r20,r24
 615 02e4 590B      		sbc r21,r25
 616 02e6 CA01      		movw r24,r20
 617 02e8 9C01      		movw r18,r24
 618 02ea 8B81      		ldd r24,Y+3
 619 02ec 9C81      		ldd r25,Y+4
 620 02ee 820F      		add r24,r18
 621 02f0 931F      		adc r25,r19
 622 02f2 FC01      		movw r30,r24
 623 02f4 1082      		st Z,__zero_reg__
 127:lp_solve_5.5/shared/commonlib.c ****   if(strncmp(ptr, "lib", 3))
 624               		.loc 1 127 0
 625 02f6 8981      		ldd r24,Y+1
 626 02f8 9A81      		ldd r25,Y+2
 627 02fa 43E0      		ldi r20,lo8(3)
 628 02fc 50E0      		ldi r21,0
 629 02fe 60E0      		ldi r22,lo8(.LC0)
 630 0300 70E0      		ldi r23,hi8(.LC0)
 631 0302 0E94 0000 		call strncmp
 632 0306 892B      		or r24,r25
 633 0308 01F0      		breq .L35
 128:lp_solve_5.5/shared/commonlib.c ****     strcat(stdname, "lib");
 634               		.loc 1 128 0
 635 030a 8B81      		ldd r24,Y+3
 636 030c 9C81      		ldd r25,Y+4
 637 030e 9C01      		movw r18,r24
 638 0310 F901      		movw r30,r18
 639               		0:
 640 0312 0190      		ld __tmp_reg__,Z+
 641 0314 0020      		tst __tmp_reg__
 642 0316 01F4      		brne 0b
 643 0318 CF01      		movw r24,r30
 644 031a 0197      		sbiw r24,1
 645 031c 821B      		sub r24,r18
 646 031e 930B      		sbc r25,r19
 647 0320 2B81      		ldd r18,Y+3
 648 0322 3C81      		ldd r19,Y+4
 649 0324 820F      		add r24,r18
 650 0326 931F      		adc r25,r19
 651 0328 2CE6      		ldi r18,lo8(108)
 652 032a 39E6      		ldi r19,lo8(105)
 653 032c FC01      		movw r30,r24
 654 032e 3183      		std Z+1,r19
 655 0330 2083      		st Z,r18
 656 0332 22E6      		ldi r18,lo8(98)
 657 0334 30E0      		ldi r19,0
 658 0336 FC01      		movw r30,r24
 659 0338 3383      		std Z+3,r19
 660 033a 2283      		std Z+2,r18
 661               	.L35:
 129:lp_solve_5.5/shared/commonlib.c ****   strcat(stdname, ptr);
 662               		.loc 1 129 0
 663 033c 2981      		ldd r18,Y+1
 664 033e 3A81      		ldd r19,Y+2
 665 0340 8B81      		ldd r24,Y+3
 666 0342 9C81      		ldd r25,Y+4
 667 0344 B901      		movw r22,r18
 668 0346 0E94 0000 		call strcat
 130:lp_solve_5.5/shared/commonlib.c ****   if(strcmp(stdname + strlen(stdname) - 3, ".so"))
 669               		.loc 1 130 0
 670 034a 8B81      		ldd r24,Y+3
 671 034c 9C81      		ldd r25,Y+4
 672 034e 0E94 0000 		call strlen
 673 0352 0397      		sbiw r24,3
 674 0354 2B81      		ldd r18,Y+3
 675 0356 3C81      		ldd r19,Y+4
 676 0358 820F      		add r24,r18
 677 035a 931F      		adc r25,r19
 678 035c 60E0      		ldi r22,lo8(.LC1)
 679 035e 70E0      		ldi r23,hi8(.LC1)
 680 0360 0E94 0000 		call strcmp
 681 0364 892B      		or r24,r25
 682 0366 01F0      		breq .L36
 131:lp_solve_5.5/shared/commonlib.c ****     strcat(stdname, ".so");
 683               		.loc 1 131 0
 684 0368 8B81      		ldd r24,Y+3
 685 036a 9C81      		ldd r25,Y+4
 686 036c 9C01      		movw r18,r24
 687 036e F901      		movw r30,r18
 688               		0:
 689 0370 0190      		ld __tmp_reg__,Z+
 690 0372 0020      		tst __tmp_reg__
 691 0374 01F4      		brne 0b
 692 0376 CF01      		movw r24,r30
 693 0378 0197      		sbiw r24,1
 694 037a 821B      		sub r24,r18
 695 037c 930B      		sbc r25,r19
 696 037e 2B81      		ldd r18,Y+3
 697 0380 3C81      		ldd r19,Y+4
 698 0382 820F      		add r24,r18
 699 0384 931F      		adc r25,r19
 700 0386 2EE2      		ldi r18,lo8(46)
 701 0388 33E7      		ldi r19,lo8(115)
 702 038a FC01      		movw r30,r24
 703 038c 3183      		std Z+1,r19
 704 038e 2083      		st Z,r18
 705 0390 2FE6      		ldi r18,lo8(111)
 706 0392 30E0      		ldi r19,0
 707 0394 FC01      		movw r30,r24
 708 0396 3383      		std Z+3,r19
 709 0398 2283      		std Z+2,r18
 710               	.L36:
 132:lp_solve_5.5/shared/commonlib.c ****   return( TRUE );
 711               		.loc 1 132 0
 712 039a 81E0      		ldi r24,lo8(1)
 713               	.L32:
 714               	/* epilogue start */
 133:lp_solve_5.5/shared/commonlib.c **** }
 715               		.loc 1 133 0
 716 039c 2896      		adiw r28,8
 717 039e 0FB6      		in __tmp_reg__,__SREG__
 718 03a0 F894      		cli
 719 03a2 DEBF      		out __SP_H__,r29
 720 03a4 0FBE      		out __SREG__,__tmp_reg__
 721 03a6 CDBF      		out __SP_L__,r28
 722 03a8 DF91      		pop r29
 723 03aa CF91      		pop r28
 724 03ac 0895      		ret
 725               		.cfi_endproc
 726               	.LFE13:
 728               	.global	__divdi3
 729               	.global	__muldi3
 730               	.global	gcd
 732               	gcd:
 733               	.LFB14:
 134:lp_solve_5.5/shared/commonlib.c **** 
 135:lp_solve_5.5/shared/commonlib.c **** /* Return the greatest common divisor of a and b, or -1 if it is
 136:lp_solve_5.5/shared/commonlib.c ****    not defined. Return through the pointer arguments the integers
 137:lp_solve_5.5/shared/commonlib.c ****    such that gcd(a,b) = c*a + b*d. */
 138:lp_solve_5.5/shared/commonlib.c **** int gcd(LLONG a, LLONG b, int *c, int *d)
 139:lp_solve_5.5/shared/commonlib.c **** {
 734               		.loc 1 139 0
 735               		.cfi_startproc
 736 03ae 2F92      		push r2
 737               	.LCFI28:
 738               		.cfi_def_cfa_offset 3
 739               		.cfi_offset 2, -2
 740 03b0 3F92      		push r3
 741               	.LCFI29:
 742               		.cfi_def_cfa_offset 4
 743               		.cfi_offset 3, -3
 744 03b2 4F92      		push r4
 745               	.LCFI30:
 746               		.cfi_def_cfa_offset 5
 747               		.cfi_offset 4, -4
 748 03b4 5F92      		push r5
 749               	.LCFI31:
 750               		.cfi_def_cfa_offset 6
 751               		.cfi_offset 5, -5
 752 03b6 6F92      		push r6
 753               	.LCFI32:
 754               		.cfi_def_cfa_offset 7
 755               		.cfi_offset 6, -6
 756 03b8 7F92      		push r7
 757               	.LCFI33:
 758               		.cfi_def_cfa_offset 8
 759               		.cfi_offset 7, -7
 760 03ba 8F92      		push r8
 761               	.LCFI34:
 762               		.cfi_def_cfa_offset 9
 763               		.cfi_offset 8, -8
 764 03bc 9F92      		push r9
 765               	.LCFI35:
 766               		.cfi_def_cfa_offset 10
 767               		.cfi_offset 9, -9
 768 03be AF92      		push r10
 769               	.LCFI36:
 770               		.cfi_def_cfa_offset 11
 771               		.cfi_offset 10, -10
 772 03c0 BF92      		push r11
 773               	.LCFI37:
 774               		.cfi_def_cfa_offset 12
 775               		.cfi_offset 11, -11
 776 03c2 CF92      		push r12
 777               	.LCFI38:
 778               		.cfi_def_cfa_offset 13
 779               		.cfi_offset 12, -12
 780 03c4 DF92      		push r13
 781               	.LCFI39:
 782               		.cfi_def_cfa_offset 14
 783               		.cfi_offset 13, -13
 784 03c6 EF92      		push r14
 785               	.LCFI40:
 786               		.cfi_def_cfa_offset 15
 787               		.cfi_offset 14, -14
 788 03c8 FF92      		push r15
 789               	.LCFI41:
 790               		.cfi_def_cfa_offset 16
 791               		.cfi_offset 15, -15
 792 03ca 0F93      		push r16
 793               	.LCFI42:
 794               		.cfi_def_cfa_offset 17
 795               		.cfi_offset 16, -16
 796 03cc 1F93      		push r17
 797               	.LCFI43:
 798               		.cfi_def_cfa_offset 18
 799               		.cfi_offset 17, -17
 800 03ce CF93      		push r28
 801               	.LCFI44:
 802               		.cfi_def_cfa_offset 19
 803               		.cfi_offset 28, -18
 804 03d0 DF93      		push r29
 805               	.LCFI45:
 806               		.cfi_def_cfa_offset 20
 807               		.cfi_offset 29, -19
 808 03d2 CDB7      		in r28,__SP_L__
 809 03d4 DEB7      		in r29,__SP_H__
 810               	.LCFI46:
 811               		.cfi_def_cfa_register 28
 812 03d6 C254      		subi r28,66
 813 03d8 D109      		sbc r29,__zero_reg__
 814               	.LCFI47:
 815               		.cfi_def_cfa_offset 86
 816 03da 0FB6      		in __tmp_reg__,__SREG__
 817 03dc F894      		cli
 818 03de DEBF      		out __SP_H__,r29
 819 03e0 0FBE      		out __SREG__,__tmp_reg__
 820 03e2 CDBF      		out __SP_L__,r28
 821               	/* prologue: function */
 822               	/* frame size = 66 */
 823               	/* stack size = 84 */
 824               	.L__stack_usage = 84
 825 03e4 29A7      		std Y+41,r18
 826 03e6 3AA7      		std Y+42,r19
 827 03e8 4BA7      		std Y+43,r20
 828 03ea 5CA7      		std Y+44,r21
 829 03ec 6DA7      		std Y+45,r22
 830 03ee 7EA7      		std Y+46,r23
 831 03f0 8FA7      		std Y+47,r24
 832 03f2 98AB      		std Y+48,r25
 833 03f4 A9AA      		std Y+49,r10
 834 03f6 BAAA      		std Y+50,r11
 835 03f8 CBAA      		std Y+51,r12
 836 03fa DCAA      		std Y+52,r13
 837 03fc EDAA      		std Y+53,r14
 838 03fe FEAA      		std Y+54,r15
 839 0400 0FAB      		std Y+55,r16
 840 0402 18AF      		std Y+56,r17
 841 0404 9AAE      		std Y+58,r9
 842 0406 89AE      		std Y+57,r8
 140:lp_solve_5.5/shared/commonlib.c ****   LLONG q,r,t;
 141:lp_solve_5.5/shared/commonlib.c ****   int   cret,dret,C,D,rval, sgn_a = 1,sgn_b = 1, swap = 0;
 843               		.loc 1 141 0
 844 0408 81E0      		ldi r24,lo8(1)
 845 040a 90E0      		ldi r25,0
 846 040c 9A83      		std Y+2,r25
 847 040e 8983      		std Y+1,r24
 848 0410 81E0      		ldi r24,lo8(1)
 849 0412 90E0      		ldi r25,0
 850 0414 9C83      		std Y+4,r25
 851 0416 8B83      		std Y+3,r24
 852 0418 1E82      		std Y+6,__zero_reg__
 853 041a 1D82      		std Y+5,__zero_reg__
 142:lp_solve_5.5/shared/commonlib.c **** 
 143:lp_solve_5.5/shared/commonlib.c ****   if((a == 0) || (b == 0))
 854               		.loc 1 143 0
 855 041c A9A4      		ldd r10,Y+41
 856 041e BAA4      		ldd r11,Y+42
 857 0420 CBA4      		ldd r12,Y+43
 858 0422 DCA4      		ldd r13,Y+44
 859 0424 EDA4      		ldd r14,Y+45
 860 0426 FEA4      		ldd r15,Y+46
 861 0428 0FA5      		ldd r16,Y+47
 862 042a 18A9      		ldd r17,Y+48
 863 042c 2A2D      		mov r18,r10
 864 042e 3B2D      		mov r19,r11
 865 0430 4C2D      		mov r20,r12
 866 0432 5D2D      		mov r21,r13
 867 0434 6E2D      		mov r22,r14
 868 0436 7F2D      		mov r23,r15
 869 0438 802F      		mov r24,r16
 870 043a 912F      		mov r25,r17
 871 043c A0E0      		ldi r26,0
 872 043e 0E94 0000 		call __cmpdi2_s8
 873 0442 01F0      		breq .L38
 874               		.loc 1 143 0 is_stmt 0 discriminator 1
 875 0444 A9A8      		ldd r10,Y+49
 876 0446 BAA8      		ldd r11,Y+50
 877 0448 CBA8      		ldd r12,Y+51
 878 044a DCA8      		ldd r13,Y+52
 879 044c EDA8      		ldd r14,Y+53
 880 044e FEA8      		ldd r15,Y+54
 881 0450 0FA9      		ldd r16,Y+55
 882 0452 18AD      		ldd r17,Y+56
 883 0454 2A2D      		mov r18,r10
 884 0456 3B2D      		mov r19,r11
 885 0458 4C2D      		mov r20,r12
 886 045a 5D2D      		mov r21,r13
 887 045c 6E2D      		mov r22,r14
 888 045e 7F2D      		mov r23,r15
 889 0460 802F      		mov r24,r16
 890 0462 912F      		mov r25,r17
 891 0464 A0E0      		ldi r26,0
 892 0466 0E94 0000 		call __cmpdi2_s8
 893 046a 01F4      		brne .L39
 894               	.L38:
 144:lp_solve_5.5/shared/commonlib.c ****     return( -1 );
 895               		.loc 1 144 0 is_stmt 1
 896 046c 8FEF      		ldi r24,lo8(-1)
 897 046e 9FEF      		ldi r25,lo8(-1)
 898 0470 00C0      		rjmp .L51
 899               	.L39:
 145:lp_solve_5.5/shared/commonlib.c **** 
 146:lp_solve_5.5/shared/commonlib.c ****   /* Use local multiplier instances, if necessary */
 147:lp_solve_5.5/shared/commonlib.c ****   if(c == NULL)
 900               		.loc 1 147 0
 901 0472 89AD      		ldd r24,Y+57
 902 0474 9AAD      		ldd r25,Y+58
 903 0476 892B      		or r24,r25
 904 0478 01F4      		brne .L41
 148:lp_solve_5.5/shared/commonlib.c ****     c = &cret;
 905               		.loc 1 148 0
 906 047a CE01      		movw r24,r28
 907 047c 8196      		adiw r24,33
 908 047e 9AAF      		std Y+58,r25
 909 0480 89AF      		std Y+57,r24
 910               	.L41:
 149:lp_solve_5.5/shared/commonlib.c ****   if(d == NULL)
 911               		.loc 1 149 0
 912 0482 6996      		adiw r28,87-62
 913 0484 8EAD      		ldd r24,Y+62
 914 0486 9FAD      		ldd r25,Y+63
 915 0488 6997      		sbiw r28,87-62
 916 048a 892B      		or r24,r25
 917 048c 01F4      		brne .L42
 150:lp_solve_5.5/shared/commonlib.c ****     d = &dret;
 918               		.loc 1 150 0
 919 048e CE01      		movw r24,r28
 920 0490 8396      		adiw r24,35
 921 0492 6996      		adiw r28,87-62
 922 0494 9FAF      		std Y+63,r25
 923 0496 8EAF      		std Y+62,r24
 924 0498 6997      		sbiw r28,87-62
 925               	.L42:
 151:lp_solve_5.5/shared/commonlib.c **** 
 152:lp_solve_5.5/shared/commonlib.c ****   /* Normalize so that 0 < a <= b */
 153:lp_solve_5.5/shared/commonlib.c ****   if(a < 0){
 926               		.loc 1 153 0
 927 049a A9A4      		ldd r10,Y+41
 928 049c BAA4      		ldd r11,Y+42
 929 049e CBA4      		ldd r12,Y+43
 930 04a0 DCA4      		ldd r13,Y+44
 931 04a2 EDA4      		ldd r14,Y+45
 932 04a4 FEA4      		ldd r15,Y+46
 933 04a6 0FA5      		ldd r16,Y+47
 934 04a8 18A9      		ldd r17,Y+48
 935 04aa 2A2D      		mov r18,r10
 936 04ac 3B2D      		mov r19,r11
 937 04ae 4C2D      		mov r20,r12
 938 04b0 5D2D      		mov r21,r13
 939 04b2 6E2D      		mov r22,r14
 940 04b4 7F2D      		mov r23,r15
 941 04b6 802F      		mov r24,r16
 942 04b8 912F      		mov r25,r17
 943 04ba A0E0      		ldi r26,0
 944 04bc 0E94 0000 		call __cmpdi2_s8
 945 04c0 04F4      		brge .L43
 154:lp_solve_5.5/shared/commonlib.c ****     a = -a;
 946               		.loc 1 154 0
 947 04c2 29A5      		ldd r18,Y+41
 948 04c4 3AA5      		ldd r19,Y+42
 949 04c6 4BA5      		ldd r20,Y+43
 950 04c8 5CA5      		ldd r21,Y+44
 951 04ca 6DA5      		ldd r22,Y+45
 952 04cc 7EA5      		ldd r23,Y+46
 953 04ce 8FA5      		ldd r24,Y+47
 954 04d0 98A9      		ldd r25,Y+48
 955 04d2 0E94 0000 		call __negdi2
 956 04d6 A22E      		mov r10,r18
 957 04d8 B32E      		mov r11,r19
 958 04da C42E      		mov r12,r20
 959 04dc D52E      		mov r13,r21
 960 04de E62E      		mov r14,r22
 961 04e0 F72E      		mov r15,r23
 962 04e2 082F      		mov r16,r24
 963 04e4 192F      		mov r17,r25
 964 04e6 A9A6      		std Y+41,r10
 965 04e8 BAA6      		std Y+42,r11
 966 04ea CBA6      		std Y+43,r12
 967 04ec DCA6      		std Y+44,r13
 968 04ee EDA6      		std Y+45,r14
 969 04f0 FEA6      		std Y+46,r15
 970 04f2 0FA7      		std Y+47,r16
 971 04f4 18AB      		std Y+48,r17
 155:lp_solve_5.5/shared/commonlib.c ****     sgn_a = -1;
 972               		.loc 1 155 0
 973 04f6 8FEF      		ldi r24,lo8(-1)
 974 04f8 9FEF      		ldi r25,lo8(-1)
 975 04fa 9A83      		std Y+2,r25
 976 04fc 8983      		std Y+1,r24
 977               	.L43:
 156:lp_solve_5.5/shared/commonlib.c ****   }
 157:lp_solve_5.5/shared/commonlib.c ****   if(b < 0){
 978               		.loc 1 157 0
 979 04fe A9A8      		ldd r10,Y+49
 980 0500 BAA8      		ldd r11,Y+50
 981 0502 CBA8      		ldd r12,Y+51
 982 0504 DCA8      		ldd r13,Y+52
 983 0506 EDA8      		ldd r14,Y+53
 984 0508 FEA8      		ldd r15,Y+54
 985 050a 0FA9      		ldd r16,Y+55
 986 050c 18AD      		ldd r17,Y+56
 987 050e 2A2D      		mov r18,r10
 988 0510 3B2D      		mov r19,r11
 989 0512 4C2D      		mov r20,r12
 990 0514 5D2D      		mov r21,r13
 991 0516 6E2D      		mov r22,r14
 992 0518 7F2D      		mov r23,r15
 993 051a 802F      		mov r24,r16
 994 051c 912F      		mov r25,r17
 995 051e A0E0      		ldi r26,0
 996 0520 0E94 0000 		call __cmpdi2_s8
 997 0524 04F4      		brge .L44
 158:lp_solve_5.5/shared/commonlib.c ****     b = -b;
 998               		.loc 1 158 0
 999 0526 29A9      		ldd r18,Y+49
 1000 0528 3AA9      		ldd r19,Y+50
 1001 052a 4BA9      		ldd r20,Y+51
 1002 052c 5CA9      		ldd r21,Y+52
 1003 052e 6DA9      		ldd r22,Y+53
 1004 0530 7EA9      		ldd r23,Y+54
 1005 0532 8FA9      		ldd r24,Y+55
 1006 0534 98AD      		ldd r25,Y+56
 1007 0536 0E94 0000 		call __negdi2
 1008 053a A22E      		mov r10,r18
 1009 053c B32E      		mov r11,r19
 1010 053e C42E      		mov r12,r20
 1011 0540 D52E      		mov r13,r21
 1012 0542 E62E      		mov r14,r22
 1013 0544 F72E      		mov r15,r23
 1014 0546 082F      		mov r16,r24
 1015 0548 192F      		mov r17,r25
 1016 054a A9AA      		std Y+49,r10
 1017 054c BAAA      		std Y+50,r11
 1018 054e CBAA      		std Y+51,r12
 1019 0550 DCAA      		std Y+52,r13
 1020 0552 EDAA      		std Y+53,r14
 1021 0554 FEAA      		std Y+54,r15
 1022 0556 0FAB      		std Y+55,r16
 1023 0558 18AF      		std Y+56,r17
 159:lp_solve_5.5/shared/commonlib.c ****     sgn_b = -1;
 1024               		.loc 1 159 0
 1025 055a 8FEF      		ldi r24,lo8(-1)
 1026 055c 9FEF      		ldi r25,lo8(-1)
 1027 055e 9C83      		std Y+4,r25
 1028 0560 8B83      		std Y+3,r24
 1029               	.L44:
 160:lp_solve_5.5/shared/commonlib.c ****   }
 161:lp_solve_5.5/shared/commonlib.c ****   if(b < a){
 1030               		.loc 1 161 0
 1031 0562 A9A8      		ldd r10,Y+49
 1032 0564 BAA8      		ldd r11,Y+50
 1033 0566 CBA8      		ldd r12,Y+51
 1034 0568 DCA8      		ldd r13,Y+52
 1035 056a EDA8      		ldd r14,Y+53
 1036 056c FEA8      		ldd r15,Y+54
 1037 056e 0FA9      		ldd r16,Y+55
 1038 0570 18AD      		ldd r17,Y+56
 1039 0572 29A4      		ldd r2,Y+41
 1040 0574 3AA4      		ldd r3,Y+42
 1041 0576 4BA4      		ldd r4,Y+43
 1042 0578 5CA4      		ldd r5,Y+44
 1043 057a 6DA4      		ldd r6,Y+45
 1044 057c 7EA4      		ldd r7,Y+46
 1045 057e 8FA4      		ldd r8,Y+47
 1046 0580 98A8      		ldd r9,Y+48
 1047 0582 2A2D      		mov r18,r10
 1048 0584 3B2D      		mov r19,r11
 1049 0586 4C2D      		mov r20,r12
 1050 0588 5D2D      		mov r21,r13
 1051 058a 6E2D      		mov r22,r14
 1052 058c 7F2D      		mov r23,r15
 1053 058e 802F      		mov r24,r16
 1054 0590 912F      		mov r25,r17
 1055 0592 A22C      		mov r10,r2
 1056 0594 B32C      		mov r11,r3
 1057 0596 C42C      		mov r12,r4
 1058 0598 D52C      		mov r13,r5
 1059 059a E62C      		mov r14,r6
 1060 059c F72C      		mov r15,r7
 1061 059e 082D      		mov r16,r8
 1062 05a0 192D      		mov r17,r9
 1063 05a2 0E94 0000 		call __cmpdi2
 1064 05a6 04F4      		brge .L45
 162:lp_solve_5.5/shared/commonlib.c ****     t = b;
 1065               		.loc 1 162 0
 1066 05a8 89A9      		ldd r24,Y+49
 1067 05aa 8F83      		std Y+7,r24
 1068 05ac 8AA9      		ldd r24,Y+50
 1069 05ae 8887      		std Y+8,r24
 1070 05b0 8BA9      		ldd r24,Y+51
 1071 05b2 8987      		std Y+9,r24
 1072 05b4 8CA9      		ldd r24,Y+52
 1073 05b6 8A87      		std Y+10,r24
 1074 05b8 8DA9      		ldd r24,Y+53
 1075 05ba 8B87      		std Y+11,r24
 1076 05bc 8EA9      		ldd r24,Y+54
 1077 05be 8C87      		std Y+12,r24
 1078 05c0 8FA9      		ldd r24,Y+55
 1079 05c2 8D87      		std Y+13,r24
 1080 05c4 88AD      		ldd r24,Y+56
 1081 05c6 8E87      		std Y+14,r24
 163:lp_solve_5.5/shared/commonlib.c ****     b = a;
 1082               		.loc 1 163 0
 1083 05c8 89A5      		ldd r24,Y+41
 1084 05ca 89AB      		std Y+49,r24
 1085 05cc 8AA5      		ldd r24,Y+42
 1086 05ce 8AAB      		std Y+50,r24
 1087 05d0 8BA5      		ldd r24,Y+43
 1088 05d2 8BAB      		std Y+51,r24
 1089 05d4 8CA5      		ldd r24,Y+44
 1090 05d6 8CAB      		std Y+52,r24
 1091 05d8 8DA5      		ldd r24,Y+45
 1092 05da 8DAB      		std Y+53,r24
 1093 05dc 8EA5      		ldd r24,Y+46
 1094 05de 8EAB      		std Y+54,r24
 1095 05e0 8FA5      		ldd r24,Y+47
 1096 05e2 8FAB      		std Y+55,r24
 1097 05e4 88A9      		ldd r24,Y+48
 1098 05e6 88AF      		std Y+56,r24
 164:lp_solve_5.5/shared/commonlib.c ****     a = t;
 1099               		.loc 1 164 0
 1100 05e8 8F81      		ldd r24,Y+7
 1101 05ea 89A7      		std Y+41,r24
 1102 05ec 8885      		ldd r24,Y+8
 1103 05ee 8AA7      		std Y+42,r24
 1104 05f0 8985      		ldd r24,Y+9
 1105 05f2 8BA7      		std Y+43,r24
 1106 05f4 8A85      		ldd r24,Y+10
 1107 05f6 8CA7      		std Y+44,r24
 1108 05f8 8B85      		ldd r24,Y+11
 1109 05fa 8DA7      		std Y+45,r24
 1110 05fc 8C85      		ldd r24,Y+12
 1111 05fe 8EA7      		std Y+46,r24
 1112 0600 8D85      		ldd r24,Y+13
 1113 0602 8FA7      		std Y+47,r24
 1114 0604 8E85      		ldd r24,Y+14
 1115 0606 88AB      		std Y+48,r24
 165:lp_solve_5.5/shared/commonlib.c ****     swap = 1;
 1116               		.loc 1 165 0
 1117 0608 81E0      		ldi r24,lo8(1)
 1118 060a 90E0      		ldi r25,0
 1119 060c 9E83      		std Y+6,r25
 1120 060e 8D83      		std Y+5,r24
 1121               	.L45:
 166:lp_solve_5.5/shared/commonlib.c ****   }
 167:lp_solve_5.5/shared/commonlib.c **** 
 168:lp_solve_5.5/shared/commonlib.c ****   /* Now a <= b and both >= 1. */
 169:lp_solve_5.5/shared/commonlib.c ****   q = b/a;
 1122               		.loc 1 169 0
 1123 0610 A9A4      		ldd r10,Y+41
 1124 0612 BAA4      		ldd r11,Y+42
 1125 0614 CBA4      		ldd r12,Y+43
 1126 0616 DCA4      		ldd r13,Y+44
 1127 0618 EDA4      		ldd r14,Y+45
 1128 061a FEA4      		ldd r15,Y+46
 1129 061c 0FA5      		ldd r16,Y+47
 1130 061e 18A9      		ldd r17,Y+48
 1131 0620 29A9      		ldd r18,Y+49
 1132 0622 3AA9      		ldd r19,Y+50
 1133 0624 4BA9      		ldd r20,Y+51
 1134 0626 5CA9      		ldd r21,Y+52
 1135 0628 6DA9      		ldd r22,Y+53
 1136 062a 7EA9      		ldd r23,Y+54
 1137 062c 8FA9      		ldd r24,Y+55
 1138 062e 98AD      		ldd r25,Y+56
 1139 0630 0E94 0000 		call __divdi3
 1140 0634 A22E      		mov r10,r18
 1141 0636 B32E      		mov r11,r19
 1142 0638 C42E      		mov r12,r20
 1143 063a D52E      		mov r13,r21
 1144 063c E62E      		mov r14,r22
 1145 063e F72E      		mov r15,r23
 1146 0640 082F      		mov r16,r24
 1147 0642 192F      		mov r17,r25
 1148 0644 AF86      		std Y+15,r10
 1149 0646 B88A      		std Y+16,r11
 1150 0648 C98A      		std Y+17,r12
 1151 064a DA8A      		std Y+18,r13
 1152 064c EB8A      		std Y+19,r14
 1153 064e FC8A      		std Y+20,r15
 1154 0650 0D8B      		std Y+21,r16
 1155 0652 1E8B      		std Y+22,r17
 170:lp_solve_5.5/shared/commonlib.c ****   r = b - a*q;
 1156               		.loc 1 170 0
 1157 0654 AF84      		ldd r10,Y+15
 1158 0656 B888      		ldd r11,Y+16
 1159 0658 C988      		ldd r12,Y+17
 1160 065a DA88      		ldd r13,Y+18
 1161 065c EB88      		ldd r14,Y+19
 1162 065e FC88      		ldd r15,Y+20
 1163 0660 0D89      		ldd r16,Y+21
 1164 0662 1E89      		ldd r17,Y+22
 1165 0664 29A5      		ldd r18,Y+41
 1166 0666 3AA5      		ldd r19,Y+42
 1167 0668 4BA5      		ldd r20,Y+43
 1168 066a 5CA5      		ldd r21,Y+44
 1169 066c 6DA5      		ldd r22,Y+45
 1170 066e 7EA5      		ldd r23,Y+46
 1171 0670 8FA5      		ldd r24,Y+47
 1172 0672 98A9      		ldd r25,Y+48
 1173 0674 0E94 0000 		call __muldi3
 1174 0678 A22E      		mov r10,r18
 1175 067a B32E      		mov r11,r19
 1176 067c C42E      		mov r12,r20
 1177 067e D52E      		mov r13,r21
 1178 0680 E62E      		mov r14,r22
 1179 0682 F72E      		mov r15,r23
 1180 0684 082F      		mov r16,r24
 1181 0686 192F      		mov r17,r25
 1182 0688 2A2C      		mov r2,r10
 1183 068a 3B2C      		mov r3,r11
 1184 068c 4C2C      		mov r4,r12
 1185 068e 5D2C      		mov r5,r13
 1186 0690 6E2C      		mov r6,r14
 1187 0692 7F2C      		mov r7,r15
 1188 0694 802E      		mov r8,r16
 1189 0696 912E      		mov r9,r17
 1190 0698 29A9      		ldd r18,Y+49
 1191 069a 3AA9      		ldd r19,Y+50
 1192 069c 4BA9      		ldd r20,Y+51
 1193 069e 5CA9      		ldd r21,Y+52
 1194 06a0 6DA9      		ldd r22,Y+53
 1195 06a2 7EA9      		ldd r23,Y+54
 1196 06a4 8FA9      		ldd r24,Y+55
 1197 06a6 98AD      		ldd r25,Y+56
 1198 06a8 A22C      		mov r10,r2
 1199 06aa B32C      		mov r11,r3
 1200 06ac C42C      		mov r12,r4
 1201 06ae D52C      		mov r13,r5
 1202 06b0 E62C      		mov r14,r6
 1203 06b2 F72C      		mov r15,r7
 1204 06b4 082D      		mov r16,r8
 1205 06b6 192D      		mov r17,r9
 1206 06b8 0E94 0000 		call __subdi3
 1207 06bc A22E      		mov r10,r18
 1208 06be B32E      		mov r11,r19
 1209 06c0 C42E      		mov r12,r20
 1210 06c2 D52E      		mov r13,r21
 1211 06c4 E62E      		mov r14,r22
 1212 06c6 F72E      		mov r15,r23
 1213 06c8 082F      		mov r16,r24
 1214 06ca 192F      		mov r17,r25
 1215 06cc AF8A      		std Y+23,r10
 1216 06ce B88E      		std Y+24,r11
 1217 06d0 C98E      		std Y+25,r12
 1218 06d2 DA8E      		std Y+26,r13
 1219 06d4 EB8E      		std Y+27,r14
 1220 06d6 FC8E      		std Y+28,r15
 1221 06d8 0D8F      		std Y+29,r16
 1222 06da 1E8F      		std Y+30,r17
 171:lp_solve_5.5/shared/commonlib.c ****   if(r == 0) {
 1223               		.loc 1 171 0
 1224 06dc AF88      		ldd r10,Y+23
 1225 06de B88C      		ldd r11,Y+24
 1226 06e0 C98C      		ldd r12,Y+25
 1227 06e2 DA8C      		ldd r13,Y+26
 1228 06e4 EB8C      		ldd r14,Y+27
 1229 06e6 FC8C      		ldd r15,Y+28
 1230 06e8 0D8D      		ldd r16,Y+29
 1231 06ea 1E8D      		ldd r17,Y+30
 1232 06ec 2A2D      		mov r18,r10
 1233 06ee 3B2D      		mov r19,r11
 1234 06f0 4C2D      		mov r20,r12
 1235 06f2 5D2D      		mov r21,r13
 1236 06f4 6E2D      		mov r22,r14
 1237 06f6 7F2D      		mov r23,r15
 1238 06f8 802F      		mov r24,r16
 1239 06fa 912F      		mov r25,r17
 1240 06fc A0E0      		ldi r26,0
 1241 06fe 0E94 0000 		call __cmpdi2_s8
 1242 0702 01F0      		breq .+2
 1243 0704 00C0      		rjmp .L46
 172:lp_solve_5.5/shared/commonlib.c ****     if(swap){
 1244               		.loc 1 172 0
 1245 0706 8D81      		ldd r24,Y+5
 1246 0708 9E81      		ldd r25,Y+6
 1247 070a 892B      		or r24,r25
 1248 070c 01F0      		breq .L47
 173:lp_solve_5.5/shared/commonlib.c ****       *d = 1;
 1249               		.loc 1 173 0
 1250 070e 6996      		adiw r28,87-62
 1251 0710 8EAD      		ldd r24,Y+62
 1252 0712 9FAD      		ldd r25,Y+63
 1253 0714 6997      		sbiw r28,87-62
 1254 0716 21E0      		ldi r18,lo8(1)
 1255 0718 30E0      		ldi r19,0
 1256 071a FC01      		movw r30,r24
 1257 071c 3183      		std Z+1,r19
 1258 071e 2083      		st Z,r18
 174:lp_solve_5.5/shared/commonlib.c ****       *c = 0;
 1259               		.loc 1 174 0
 1260 0720 89AD      		ldd r24,Y+57
 1261 0722 9AAD      		ldd r25,Y+58
 1262 0724 FC01      		movw r30,r24
 1263 0726 1182      		std Z+1,__zero_reg__
 1264 0728 1082      		st Z,__zero_reg__
 1265 072a 00C0      		rjmp .L48
 1266               	.L47:
 175:lp_solve_5.5/shared/commonlib.c ****     }
 176:lp_solve_5.5/shared/commonlib.c ****     else {
 177:lp_solve_5.5/shared/commonlib.c ****       *c = 1;
 1267               		.loc 1 177 0
 1268 072c 89AD      		ldd r24,Y+57
 1269 072e 9AAD      		ldd r25,Y+58
 1270 0730 21E0      		ldi r18,lo8(1)
 1271 0732 30E0      		ldi r19,0
 1272 0734 FC01      		movw r30,r24
 1273 0736 3183      		std Z+1,r19
 1274 0738 2083      		st Z,r18
 178:lp_solve_5.5/shared/commonlib.c ****       *d = 0;
 1275               		.loc 1 178 0
 1276 073a 6996      		adiw r28,87-62
 1277 073c 8EAD      		ldd r24,Y+62
 1278 073e 9FAD      		ldd r25,Y+63
 1279 0740 6997      		sbiw r28,87-62
 1280 0742 FC01      		movw r30,r24
 1281 0744 1182      		std Z+1,__zero_reg__
 1282 0746 1082      		st Z,__zero_reg__
 1283               	.L48:
 179:lp_solve_5.5/shared/commonlib.c ****     }
 180:lp_solve_5.5/shared/commonlib.c ****     *c = sgn_a*(*c);
 1284               		.loc 1 180 0
 1285 0748 89AD      		ldd r24,Y+57
 1286 074a 9AAD      		ldd r25,Y+58
 1287 074c FC01      		movw r30,r24
 1288 074e 4081      		ld r20,Z
 1289 0750 5181      		ldd r21,Z+1
 1290 0752 8981      		ldd r24,Y+1
 1291 0754 9A81      		ldd r25,Y+2
 1292 0756 489F      		mul r20,r24
 1293 0758 9001      		movw r18,r0
 1294 075a 499F      		mul r20,r25
 1295 075c 300D      		add r19,r0
 1296 075e 589F      		mul r21,r24
 1297 0760 300D      		add r19,r0
 1298 0762 1124      		clr r1
 1299 0764 89AD      		ldd r24,Y+57
 1300 0766 9AAD      		ldd r25,Y+58
 1301 0768 FC01      		movw r30,r24
 1302 076a 3183      		std Z+1,r19
 1303 076c 2083      		st Z,r18
 181:lp_solve_5.5/shared/commonlib.c ****     *d = sgn_b*(*d);
 1304               		.loc 1 181 0
 1305 076e 6996      		adiw r28,87-62
 1306 0770 8EAD      		ldd r24,Y+62
 1307 0772 9FAD      		ldd r25,Y+63
 1308 0774 6997      		sbiw r28,87-62
 1309 0776 FC01      		movw r30,r24
 1310 0778 4081      		ld r20,Z
 1311 077a 5181      		ldd r21,Z+1
 1312 077c 8B81      		ldd r24,Y+3
 1313 077e 9C81      		ldd r25,Y+4
 1314 0780 489F      		mul r20,r24
 1315 0782 9001      		movw r18,r0
 1316 0784 499F      		mul r20,r25
 1317 0786 300D      		add r19,r0
 1318 0788 589F      		mul r21,r24
 1319 078a 300D      		add r19,r0
 1320 078c 1124      		clr r1
 1321 078e 6996      		adiw r28,87-62
 1322 0790 8EAD      		ldd r24,Y+62
 1323 0792 9FAD      		ldd r25,Y+63
 1324 0794 6997      		sbiw r28,87-62
 1325 0796 FC01      		movw r30,r24
 1326 0798 3183      		std Z+1,r19
 1327 079a 2083      		st Z,r18
 182:lp_solve_5.5/shared/commonlib.c ****     return( (int) a );
 1328               		.loc 1 182 0
 1329 079c 89A5      		ldd r24,Y+41
 1330 079e 9AA5      		ldd r25,Y+42
 1331 07a0 00C0      		rjmp .L51
 1332               	.L46:
 183:lp_solve_5.5/shared/commonlib.c ****   }
 184:lp_solve_5.5/shared/commonlib.c **** 
 185:lp_solve_5.5/shared/commonlib.c ****   rval = gcd(a,r,&C,&D);
 1333               		.loc 1 185 0
 1334 07a2 DE01      		movw r26,r28
 1335 07a4 9596      		adiw r26,37
 1336 07a6 2F89      		ldd r18,Y+23
 1337 07a8 388D      		ldd r19,Y+24
 1338 07aa 498D      		ldd r20,Y+25
 1339 07ac 5A8D      		ldd r21,Y+26
 1340 07ae 6B8D      		ldd r22,Y+27
 1341 07b0 7C8D      		ldd r23,Y+28
 1342 07b2 8D8D      		ldd r24,Y+29
 1343 07b4 9E8D      		ldd r25,Y+30
 1344 07b6 F9A5      		ldd r31,Y+41
 1345 07b8 FBAF      		std Y+59,r31
 1346 07ba EAA5      		ldd r30,Y+42
 1347 07bc ECAF      		std Y+60,r30
 1348 07be FBA5      		ldd r31,Y+43
 1349 07c0 FDAF      		std Y+61,r31
 1350 07c2 ECA5      		ldd r30,Y+44
 1351 07c4 EEAF      		std Y+62,r30
 1352 07c6 FDA5      		ldd r31,Y+45
 1353 07c8 FFAF      		std Y+63,r31
 1354 07ca EEA5      		ldd r30,Y+46
 1355 07cc 2196      		adiw r28,64-63
 1356 07ce EFAF      		std Y+63,r30
 1357 07d0 2197      		sbiw r28,64-63
 1358 07d2 FFA5      		ldd r31,Y+47
 1359 07d4 2296      		adiw r28,65-63
 1360 07d6 FFAF      		std Y+63,r31
 1361 07d8 2297      		sbiw r28,65-63
 1362 07da E8A9      		ldd r30,Y+48
 1363 07dc 2396      		adiw r28,66-63
 1364 07de EFAF      		std Y+63,r30
 1365 07e0 2397      		sbiw r28,66-63
 1366 07e2 FE01      		movw r30,r28
 1367 07e4 B796      		adiw r30,39
 1368 07e6 1F2F      		mov r17,r31
 1369 07e8 1F93      		push r17
 1370 07ea EF93      		push r30
 1371 07ec 4D01      		movw r8,r26
 1372 07ee A22E      		mov r10,r18
 1373 07f0 B32E      		mov r11,r19
 1374 07f2 C42E      		mov r12,r20
 1375 07f4 D52E      		mov r13,r21
 1376 07f6 E62E      		mov r14,r22
 1377 07f8 F72E      		mov r15,r23
 1378 07fa 082F      		mov r16,r24
 1379 07fc 192F      		mov r17,r25
 1380 07fe 2BAD      		ldd r18,Y+59
 1381 0800 3CAD      		ldd r19,Y+60
 1382 0802 4DAD      		ldd r20,Y+61
 1383 0804 5EAD      		ldd r21,Y+62
 1384 0806 6FAD      		ldd r22,Y+63
 1385 0808 2196      		adiw r28,64-63
 1386 080a 7FAD      		ldd r23,Y+63
 1387 080c 2197      		sbiw r28,64-63
 1388 080e 2296      		adiw r28,65-63
 1389 0810 8FAD      		ldd r24,Y+63
 1390 0812 2297      		sbiw r28,65-63
 1391 0814 2396      		adiw r28,66-63
 1392 0816 9FAD      		ldd r25,Y+63
 1393 0818 2397      		sbiw r28,66-63
 1394 081a 0E94 0000 		call gcd
 1395 081e 0F90      		pop __tmp_reg__
 1396 0820 0F90      		pop __tmp_reg__
 1397 0822 98A3      		std Y+32,r25
 1398 0824 8F8F      		std Y+31,r24
 186:lp_solve_5.5/shared/commonlib.c ****   if(swap){
 1399               		.loc 1 186 0
 1400 0826 8D81      		ldd r24,Y+5
 1401 0828 9E81      		ldd r25,Y+6
 1402 082a 892B      		or r24,r25
 1403 082c 01F0      		breq .L49
 187:lp_solve_5.5/shared/commonlib.c ****     *d = (int) (C-D*q);
 1404               		.loc 1 187 0
 1405 082e 8DA1      		ldd r24,Y+37
 1406 0830 9EA1      		ldd r25,Y+38
 1407 0832 AC01      		movw r20,r24
 1408 0834 2F85      		ldd r18,Y+15
 1409 0836 3889      		ldd r19,Y+16
 1410 0838 8FA1      		ldd r24,Y+39
 1411 083a 98A5      		ldd r25,Y+40
 1412 083c BC01      		movw r22,r24
 1413 083e 269F      		mul r18,r22
 1414 0840 C001      		movw r24,r0
 1415 0842 279F      		mul r18,r23
 1416 0844 900D      		add r25,r0
 1417 0846 369F      		mul r19,r22
 1418 0848 900D      		add r25,r0
 1419 084a 1124      		clr r1
 1420 084c 9A01      		movw r18,r20
 1421 084e 281B      		sub r18,r24
 1422 0850 390B      		sbc r19,r25
 1423 0852 C901      		movw r24,r18
 1424 0854 9C01      		movw r18,r24
 1425 0856 6996      		adiw r28,87-62
 1426 0858 8EAD      		ldd r24,Y+62
 1427 085a 9FAD      		ldd r25,Y+63
 1428 085c 6997      		sbiw r28,87-62
 1429 085e FC01      		movw r30,r24
 1430 0860 3183      		std Z+1,r19
 1431 0862 2083      		st Z,r18
 188:lp_solve_5.5/shared/commonlib.c ****     *c = D;
 1432               		.loc 1 188 0
 1433 0864 2FA1      		ldd r18,Y+39
 1434 0866 38A5      		ldd r19,Y+40
 1435 0868 89AD      		ldd r24,Y+57
 1436 086a 9AAD      		ldd r25,Y+58
 1437 086c FC01      		movw r30,r24
 1438 086e 3183      		std Z+1,r19
 1439 0870 2083      		st Z,r18
 1440 0872 00C0      		rjmp .L50
 1441               	.L49:
 189:lp_solve_5.5/shared/commonlib.c ****   }
 190:lp_solve_5.5/shared/commonlib.c ****   else {
 191:lp_solve_5.5/shared/commonlib.c ****     *d = D;
 1442               		.loc 1 191 0
 1443 0874 2FA1      		ldd r18,Y+39
 1444 0876 38A5      		ldd r19,Y+40
 1445 0878 6996      		adiw r28,87-62
 1446 087a 8EAD      		ldd r24,Y+62
 1447 087c 9FAD      		ldd r25,Y+63
 1448 087e 6997      		sbiw r28,87-62
 1449 0880 FC01      		movw r30,r24
 1450 0882 3183      		std Z+1,r19
 1451 0884 2083      		st Z,r18
 192:lp_solve_5.5/shared/commonlib.c ****     *c = (int) (C-D*q);
 1452               		.loc 1 192 0
 1453 0886 8DA1      		ldd r24,Y+37
 1454 0888 9EA1      		ldd r25,Y+38
 1455 088a AC01      		movw r20,r24
 1456 088c 2F85      		ldd r18,Y+15
 1457 088e 3889      		ldd r19,Y+16
 1458 0890 8FA1      		ldd r24,Y+39
 1459 0892 98A5      		ldd r25,Y+40
 1460 0894 BC01      		movw r22,r24
 1461 0896 269F      		mul r18,r22
 1462 0898 C001      		movw r24,r0
 1463 089a 279F      		mul r18,r23
 1464 089c 900D      		add r25,r0
 1465 089e 369F      		mul r19,r22
 1466 08a0 900D      		add r25,r0
 1467 08a2 1124      		clr r1
 1468 08a4 9A01      		movw r18,r20
 1469 08a6 281B      		sub r18,r24
 1470 08a8 390B      		sbc r19,r25
 1471 08aa C901      		movw r24,r18
 1472 08ac 9C01      		movw r18,r24
 1473 08ae 89AD      		ldd r24,Y+57
 1474 08b0 9AAD      		ldd r25,Y+58
 1475 08b2 FC01      		movw r30,r24
 1476 08b4 3183      		std Z+1,r19
 1477 08b6 2083      		st Z,r18
 1478               	.L50:
 193:lp_solve_5.5/shared/commonlib.c ****   }
 194:lp_solve_5.5/shared/commonlib.c ****   *c = sgn_a*(*c);
 1479               		.loc 1 194 0
 1480 08b8 89AD      		ldd r24,Y+57
 1481 08ba 9AAD      		ldd r25,Y+58
 1482 08bc FC01      		movw r30,r24
 1483 08be 4081      		ld r20,Z
 1484 08c0 5181      		ldd r21,Z+1
 1485 08c2 8981      		ldd r24,Y+1
 1486 08c4 9A81      		ldd r25,Y+2
 1487 08c6 489F      		mul r20,r24
 1488 08c8 9001      		movw r18,r0
 1489 08ca 499F      		mul r20,r25
 1490 08cc 300D      		add r19,r0
 1491 08ce 589F      		mul r21,r24
 1492 08d0 300D      		add r19,r0
 1493 08d2 1124      		clr r1
 1494 08d4 89AD      		ldd r24,Y+57
 1495 08d6 9AAD      		ldd r25,Y+58
 1496 08d8 FC01      		movw r30,r24
 1497 08da 3183      		std Z+1,r19
 1498 08dc 2083      		st Z,r18
 195:lp_solve_5.5/shared/commonlib.c ****   *d = sgn_b*(*d);
 1499               		.loc 1 195 0
 1500 08de 6996      		adiw r28,87-62
 1501 08e0 8EAD      		ldd r24,Y+62
 1502 08e2 9FAD      		ldd r25,Y+63
 1503 08e4 6997      		sbiw r28,87-62
 1504 08e6 FC01      		movw r30,r24
 1505 08e8 4081      		ld r20,Z
 1506 08ea 5181      		ldd r21,Z+1
 1507 08ec 8B81      		ldd r24,Y+3
 1508 08ee 9C81      		ldd r25,Y+4
 1509 08f0 489F      		mul r20,r24
 1510 08f2 9001      		movw r18,r0
 1511 08f4 499F      		mul r20,r25
 1512 08f6 300D      		add r19,r0
 1513 08f8 589F      		mul r21,r24
 1514 08fa 300D      		add r19,r0
 1515 08fc 1124      		clr r1
 1516 08fe 6996      		adiw r28,87-62
 1517 0900 8EAD      		ldd r24,Y+62
 1518 0902 9FAD      		ldd r25,Y+63
 1519 0904 6997      		sbiw r28,87-62
 1520 0906 FC01      		movw r30,r24
 1521 0908 3183      		std Z+1,r19
 1522 090a 2083      		st Z,r18
 196:lp_solve_5.5/shared/commonlib.c ****   return( rval );
 1523               		.loc 1 196 0
 1524 090c 8F8D      		ldd r24,Y+31
 1525 090e 98A1      		ldd r25,Y+32
 1526               	.L51:
 1527               	/* epilogue start */
 197:lp_solve_5.5/shared/commonlib.c **** }
 1528               		.loc 1 197 0 discriminator 1
 1529 0910 CE5B      		subi r28,-66
 1530 0912 DF4F      		sbci r29,-1
 1531 0914 0FB6      		in __tmp_reg__,__SREG__
 1532 0916 F894      		cli
 1533 0918 DEBF      		out __SP_H__,r29
 1534 091a 0FBE      		out __SREG__,__tmp_reg__
 1535 091c CDBF      		out __SP_L__,r28
 1536 091e DF91      		pop r29
 1537 0920 CF91      		pop r28
 1538 0922 1F91      		pop r17
 1539 0924 0F91      		pop r16
 1540 0926 FF90      		pop r15
 1541 0928 EF90      		pop r14
 1542 092a DF90      		pop r13
 1543 092c CF90      		pop r12
 1544 092e BF90      		pop r11
 1545 0930 AF90      		pop r10
 1546 0932 9F90      		pop r9
 1547 0934 8F90      		pop r8
 1548 0936 7F90      		pop r7
 1549 0938 6F90      		pop r6
 1550 093a 5F90      		pop r5
 1551 093c 4F90      		pop r4
 1552 093e 3F90      		pop r3
 1553 0940 2F90      		pop r2
 1554 0942 0895      		ret
 1555               		.cfi_endproc
 1556               	.LFE14:
 1558               	.global	findIndex
 1560               	findIndex:
 1561               	.LFB15:
 198:lp_solve_5.5/shared/commonlib.c **** 
 199:lp_solve_5.5/shared/commonlib.c **** /* Array search functions */
 200:lp_solve_5.5/shared/commonlib.c **** int findIndex(int target, int *attributes, int count, int offset)
 201:lp_solve_5.5/shared/commonlib.c **** {
 1562               		.loc 1 201 0
 1563               		.cfi_startproc
 1564 0944 CF93      		push r28
 1565               	.LCFI48:
 1566               		.cfi_def_cfa_offset 3
 1567               		.cfi_offset 28, -2
 1568 0946 DF93      		push r29
 1569               	.LCFI49:
 1570               		.cfi_def_cfa_offset 4
 1571               		.cfi_offset 29, -3
 1572 0948 CDB7      		in r28,__SP_L__
 1573 094a DEB7      		in r29,__SP_H__
 1574               	.LCFI50:
 1575               		.cfi_def_cfa_register 28
 1576 094c 6697      		sbiw r28,22
 1577               	.LCFI51:
 1578               		.cfi_def_cfa_offset 26
 1579 094e 0FB6      		in __tmp_reg__,__SREG__
 1580 0950 F894      		cli
 1581 0952 DEBF      		out __SP_H__,r29
 1582 0954 0FBE      		out __SREG__,__tmp_reg__
 1583 0956 CDBF      		out __SP_L__,r28
 1584               	/* prologue: function */
 1585               	/* frame size = 22 */
 1586               	/* stack size = 24 */
 1587               	.L__stack_usage = 24
 1588 0958 988B      		std Y+16,r25
 1589 095a 8F87      		std Y+15,r24
 1590 095c 7A8B      		std Y+18,r23
 1591 095e 698B      		std Y+17,r22
 1592 0960 5C8B      		std Y+20,r21
 1593 0962 4B8B      		std Y+19,r20
 1594 0964 3E8B      		std Y+22,r19
 1595 0966 2D8B      		std Y+21,r18
 202:lp_solve_5.5/shared/commonlib.c ****   int focusPos, beginPos, endPos;
 203:lp_solve_5.5/shared/commonlib.c ****   int focusAttrib, beginAttrib, endAttrib;
 204:lp_solve_5.5/shared/commonlib.c **** 
 205:lp_solve_5.5/shared/commonlib.c ****  /* Set starting and ending index offsets */
 206:lp_solve_5.5/shared/commonlib.c ****   beginPos = offset;
 1596               		.loc 1 206 0
 1597 0968 8D89      		ldd r24,Y+21
 1598 096a 9E89      		ldd r25,Y+22
 1599 096c 9C83      		std Y+4,r25
 1600 096e 8B83      		std Y+3,r24
 207:lp_solve_5.5/shared/commonlib.c ****   endPos = beginPos + count - 1;
 1601               		.loc 1 207 0
 1602 0970 2B81      		ldd r18,Y+3
 1603 0972 3C81      		ldd r19,Y+4
 1604 0974 8B89      		ldd r24,Y+19
 1605 0976 9C89      		ldd r25,Y+20
 1606 0978 820F      		add r24,r18
 1607 097a 931F      		adc r25,r19
 1608 097c 0197      		sbiw r24,1
 1609 097e 9E83      		std Y+6,r25
 1610 0980 8D83      		std Y+5,r24
 208:lp_solve_5.5/shared/commonlib.c ****   if(endPos < beginPos)
 1611               		.loc 1 208 0
 1612 0982 2D81      		ldd r18,Y+5
 1613 0984 3E81      		ldd r19,Y+6
 1614 0986 8B81      		ldd r24,Y+3
 1615 0988 9C81      		ldd r25,Y+4
 1616 098a 2817      		cp r18,r24
 1617 098c 3907      		cpc r19,r25
 1618 098e 04F4      		brge .L53
 209:lp_solve_5.5/shared/commonlib.c ****     return(-1);
 1619               		.loc 1 209 0
 1620 0990 8FEF      		ldi r24,lo8(-1)
 1621 0992 9FEF      		ldi r25,lo8(-1)
 1622 0994 00C0      		rjmp .L54
 1623               	.L53:
 210:lp_solve_5.5/shared/commonlib.c **** 
 211:lp_solve_5.5/shared/commonlib.c ****  /* Do binary search logic based on a sorted (decending) attribute vector */
 212:lp_solve_5.5/shared/commonlib.c ****   focusPos = (beginPos + endPos) / 2;
 1624               		.loc 1 212 0
 1625 0996 2B81      		ldd r18,Y+3
 1626 0998 3C81      		ldd r19,Y+4
 1627 099a 8D81      		ldd r24,Y+5
 1628 099c 9E81      		ldd r25,Y+6
 1629 099e 820F      		add r24,r18
 1630 09a0 931F      		adc r25,r19
 1631 09a2 9923      		tst r25
 1632 09a4 04F4      		brge .L55
 1633 09a6 0196      		adiw r24,1
 1634               	.L55:
 1635 09a8 9595      		asr r25
 1636 09aa 8795      		ror r24
 1637 09ac 9A83      		std Y+2,r25
 1638 09ae 8983      		std Y+1,r24
 213:lp_solve_5.5/shared/commonlib.c ****   beginAttrib = attributes[beginPos];
 1639               		.loc 1 213 0
 1640 09b0 8B81      		ldd r24,Y+3
 1641 09b2 9C81      		ldd r25,Y+4
 1642 09b4 880F      		lsl r24
 1643 09b6 991F      		rol r25
 1644 09b8 2989      		ldd r18,Y+17
 1645 09ba 3A89      		ldd r19,Y+18
 1646 09bc 820F      		add r24,r18
 1647 09be 931F      		adc r25,r19
 1648 09c0 FC01      		movw r30,r24
 1649 09c2 8081      		ld r24,Z
 1650 09c4 9181      		ldd r25,Z+1
 1651 09c6 9A87      		std Y+10,r25
 1652 09c8 8987      		std Y+9,r24
 214:lp_solve_5.5/shared/commonlib.c ****   focusAttrib = attributes[focusPos];
 1653               		.loc 1 214 0
 1654 09ca 8981      		ldd r24,Y+1
 1655 09cc 9A81      		ldd r25,Y+2
 1656 09ce 880F      		lsl r24
 1657 09d0 991F      		rol r25
 1658 09d2 2989      		ldd r18,Y+17
 1659 09d4 3A89      		ldd r19,Y+18
 1660 09d6 820F      		add r24,r18
 1661 09d8 931F      		adc r25,r19
 1662 09da FC01      		movw r30,r24
 1663 09dc 8081      		ld r24,Z
 1664 09de 9181      		ldd r25,Z+1
 1665 09e0 9887      		std Y+8,r25
 1666 09e2 8F83      		std Y+7,r24
 215:lp_solve_5.5/shared/commonlib.c ****   endAttrib   = attributes[endPos];
 1667               		.loc 1 215 0
 1668 09e4 8D81      		ldd r24,Y+5
 1669 09e6 9E81      		ldd r25,Y+6
 1670 09e8 880F      		lsl r24
 1671 09ea 991F      		rol r25
 1672 09ec 2989      		ldd r18,Y+17
 1673 09ee 3A89      		ldd r19,Y+18
 1674 09f0 820F      		add r24,r18
 1675 09f2 931F      		adc r25,r19
 1676 09f4 FC01      		movw r30,r24
 1677 09f6 8081      		ld r24,Z
 1678 09f8 9181      		ldd r25,Z+1
 1679 09fa 9C87      		std Y+12,r25
 1680 09fc 8B87      		std Y+11,r24
 216:lp_solve_5.5/shared/commonlib.c **** 
 217:lp_solve_5.5/shared/commonlib.c ****   while(endPos - beginPos > LINEARSEARCH) {
 1681               		.loc 1 217 0
 1682 09fe 00C0      		rjmp .L56
 1683               	.L63:
 218:lp_solve_5.5/shared/commonlib.c ****     if(beginAttrib == target) {
 1684               		.loc 1 218 0
 1685 0a00 2985      		ldd r18,Y+9
 1686 0a02 3A85      		ldd r19,Y+10
 1687 0a04 8F85      		ldd r24,Y+15
 1688 0a06 9889      		ldd r25,Y+16
 1689 0a08 2817      		cp r18,r24
 1690 0a0a 3907      		cpc r19,r25
 1691 0a0c 01F4      		brne .L57
 219:lp_solve_5.5/shared/commonlib.c ****       focusAttrib = beginAttrib;
 1692               		.loc 1 219 0
 1693 0a0e 8985      		ldd r24,Y+9
 1694 0a10 9A85      		ldd r25,Y+10
 1695 0a12 9887      		std Y+8,r25
 1696 0a14 8F83      		std Y+7,r24
 220:lp_solve_5.5/shared/commonlib.c ****       endPos = beginPos;
 1697               		.loc 1 220 0
 1698 0a16 8B81      		ldd r24,Y+3
 1699 0a18 9C81      		ldd r25,Y+4
 1700 0a1a 9E83      		std Y+6,r25
 1701 0a1c 8D83      		std Y+5,r24
 1702 0a1e 00C0      		rjmp .L56
 1703               	.L57:
 221:lp_solve_5.5/shared/commonlib.c ****     }
 222:lp_solve_5.5/shared/commonlib.c ****     else if(endAttrib == target) {
 1704               		.loc 1 222 0
 1705 0a20 2B85      		ldd r18,Y+11
 1706 0a22 3C85      		ldd r19,Y+12
 1707 0a24 8F85      		ldd r24,Y+15
 1708 0a26 9889      		ldd r25,Y+16
 1709 0a28 2817      		cp r18,r24
 1710 0a2a 3907      		cpc r19,r25
 1711 0a2c 01F4      		brne .L58
 223:lp_solve_5.5/shared/commonlib.c ****       focusAttrib = endAttrib;
 1712               		.loc 1 223 0
 1713 0a2e 8B85      		ldd r24,Y+11
 1714 0a30 9C85      		ldd r25,Y+12
 1715 0a32 9887      		std Y+8,r25
 1716 0a34 8F83      		std Y+7,r24
 224:lp_solve_5.5/shared/commonlib.c ****       beginPos = endPos;
 1717               		.loc 1 224 0
 1718 0a36 8D81      		ldd r24,Y+5
 1719 0a38 9E81      		ldd r25,Y+6
 1720 0a3a 9C83      		std Y+4,r25
 1721 0a3c 8B83      		std Y+3,r24
 1722 0a3e 00C0      		rjmp .L56
 1723               	.L58:
 225:lp_solve_5.5/shared/commonlib.c ****     }
 226:lp_solve_5.5/shared/commonlib.c ****     else if(focusAttrib < target) {
 1724               		.loc 1 226 0
 1725 0a40 2F81      		ldd r18,Y+7
 1726 0a42 3885      		ldd r19,Y+8
 1727 0a44 8F85      		ldd r24,Y+15
 1728 0a46 9889      		ldd r25,Y+16
 1729 0a48 2817      		cp r18,r24
 1730 0a4a 3907      		cpc r19,r25
 1731 0a4c 04F4      		brge .L59
 227:lp_solve_5.5/shared/commonlib.c ****       beginPos = focusPos + 1;
 1732               		.loc 1 227 0
 1733 0a4e 8981      		ldd r24,Y+1
 1734 0a50 9A81      		ldd r25,Y+2
 1735 0a52 0196      		adiw r24,1
 1736 0a54 9C83      		std Y+4,r25
 1737 0a56 8B83      		std Y+3,r24
 228:lp_solve_5.5/shared/commonlib.c ****       beginAttrib = attributes[beginPos];
 1738               		.loc 1 228 0
 1739 0a58 8B81      		ldd r24,Y+3
 1740 0a5a 9C81      		ldd r25,Y+4
 1741 0a5c 880F      		lsl r24
 1742 0a5e 991F      		rol r25
 1743 0a60 2989      		ldd r18,Y+17
 1744 0a62 3A89      		ldd r19,Y+18
 1745 0a64 820F      		add r24,r18
 1746 0a66 931F      		adc r25,r19
 1747 0a68 FC01      		movw r30,r24
 1748 0a6a 8081      		ld r24,Z
 1749 0a6c 9181      		ldd r25,Z+1
 1750 0a6e 9A87      		std Y+10,r25
 1751 0a70 8987      		std Y+9,r24
 229:lp_solve_5.5/shared/commonlib.c ****       focusPos = (beginPos + endPos) / 2;
 1752               		.loc 1 229 0
 1753 0a72 2B81      		ldd r18,Y+3
 1754 0a74 3C81      		ldd r19,Y+4
 1755 0a76 8D81      		ldd r24,Y+5
 1756 0a78 9E81      		ldd r25,Y+6
 1757 0a7a 820F      		add r24,r18
 1758 0a7c 931F      		adc r25,r19
 1759 0a7e 9923      		tst r25
 1760 0a80 04F4      		brge .L60
 1761 0a82 0196      		adiw r24,1
 1762               	.L60:
 1763 0a84 9595      		asr r25
 1764 0a86 8795      		ror r24
 1765 0a88 9A83      		std Y+2,r25
 1766 0a8a 8983      		std Y+1,r24
 230:lp_solve_5.5/shared/commonlib.c ****       focusAttrib = attributes[focusPos];
 1767               		.loc 1 230 0
 1768 0a8c 8981      		ldd r24,Y+1
 1769 0a8e 9A81      		ldd r25,Y+2
 1770 0a90 880F      		lsl r24
 1771 0a92 991F      		rol r25
 1772 0a94 2989      		ldd r18,Y+17
 1773 0a96 3A89      		ldd r19,Y+18
 1774 0a98 820F      		add r24,r18
 1775 0a9a 931F      		adc r25,r19
 1776 0a9c FC01      		movw r30,r24
 1777 0a9e 8081      		ld r24,Z
 1778 0aa0 9181      		ldd r25,Z+1
 1779 0aa2 9887      		std Y+8,r25
 1780 0aa4 8F83      		std Y+7,r24
 1781 0aa6 00C0      		rjmp .L56
 1782               	.L59:
 231:lp_solve_5.5/shared/commonlib.c ****     }
 232:lp_solve_5.5/shared/commonlib.c ****     else if(focusAttrib > target) {
 1783               		.loc 1 232 0
 1784 0aa8 2F81      		ldd r18,Y+7
 1785 0aaa 3885      		ldd r19,Y+8
 1786 0aac 8F85      		ldd r24,Y+15
 1787 0aae 9889      		ldd r25,Y+16
 1788 0ab0 8217      		cp r24,r18
 1789 0ab2 9307      		cpc r25,r19
 1790 0ab4 04F4      		brge .L61
 233:lp_solve_5.5/shared/commonlib.c ****       endPos = focusPos - 1;
 1791               		.loc 1 233 0
 1792 0ab6 8981      		ldd r24,Y+1
 1793 0ab8 9A81      		ldd r25,Y+2
 1794 0aba 0197      		sbiw r24,1
 1795 0abc 9E83      		std Y+6,r25
 1796 0abe 8D83      		std Y+5,r24
 234:lp_solve_5.5/shared/commonlib.c ****       endAttrib = attributes[endPos];
 1797               		.loc 1 234 0
 1798 0ac0 8D81      		ldd r24,Y+5
 1799 0ac2 9E81      		ldd r25,Y+6
 1800 0ac4 880F      		lsl r24
 1801 0ac6 991F      		rol r25
 1802 0ac8 2989      		ldd r18,Y+17
 1803 0aca 3A89      		ldd r19,Y+18
 1804 0acc 820F      		add r24,r18
 1805 0ace 931F      		adc r25,r19
 1806 0ad0 FC01      		movw r30,r24
 1807 0ad2 8081      		ld r24,Z
 1808 0ad4 9181      		ldd r25,Z+1
 1809 0ad6 9C87      		std Y+12,r25
 1810 0ad8 8B87      		std Y+11,r24
 235:lp_solve_5.5/shared/commonlib.c ****       focusPos = (beginPos + endPos) / 2;
 1811               		.loc 1 235 0
 1812 0ada 2B81      		ldd r18,Y+3
 1813 0adc 3C81      		ldd r19,Y+4
 1814 0ade 8D81      		ldd r24,Y+5
 1815 0ae0 9E81      		ldd r25,Y+6
 1816 0ae2 820F      		add r24,r18
 1817 0ae4 931F      		adc r25,r19
 1818 0ae6 9923      		tst r25
 1819 0ae8 04F4      		brge .L62
 1820 0aea 0196      		adiw r24,1
 1821               	.L62:
 1822 0aec 9595      		asr r25
 1823 0aee 8795      		ror r24
 1824 0af0 9A83      		std Y+2,r25
 1825 0af2 8983      		std Y+1,r24
 236:lp_solve_5.5/shared/commonlib.c ****       focusAttrib = attributes[focusPos];
 1826               		.loc 1 236 0
 1827 0af4 8981      		ldd r24,Y+1
 1828 0af6 9A81      		ldd r25,Y+2
 1829 0af8 880F      		lsl r24
 1830 0afa 991F      		rol r25
 1831 0afc 2989      		ldd r18,Y+17
 1832 0afe 3A89      		ldd r19,Y+18
 1833 0b00 820F      		add r24,r18
 1834 0b02 931F      		adc r25,r19
 1835 0b04 FC01      		movw r30,r24
 1836 0b06 8081      		ld r24,Z
 1837 0b08 9181      		ldd r25,Z+1
 1838 0b0a 9887      		std Y+8,r25
 1839 0b0c 8F83      		std Y+7,r24
 1840 0b0e 00C0      		rjmp .L56
 1841               	.L61:
 237:lp_solve_5.5/shared/commonlib.c ****     }
 238:lp_solve_5.5/shared/commonlib.c ****     else {
 239:lp_solve_5.5/shared/commonlib.c ****       beginPos = focusPos;
 1842               		.loc 1 239 0
 1843 0b10 8981      		ldd r24,Y+1
 1844 0b12 9A81      		ldd r25,Y+2
 1845 0b14 9C83      		std Y+4,r25
 1846 0b16 8B83      		std Y+3,r24
 240:lp_solve_5.5/shared/commonlib.c ****       endPos = focusPos;
 1847               		.loc 1 240 0
 1848 0b18 8981      		ldd r24,Y+1
 1849 0b1a 9A81      		ldd r25,Y+2
 1850 0b1c 9E83      		std Y+6,r25
 1851 0b1e 8D83      		std Y+5,r24
 1852               	.L56:
 217:lp_solve_5.5/shared/commonlib.c ****     if(beginAttrib == target) {
 1853               		.loc 1 217 0
 1854 0b20 2D81      		ldd r18,Y+5
 1855 0b22 3E81      		ldd r19,Y+6
 1856 0b24 8B81      		ldd r24,Y+3
 1857 0b26 9C81      		ldd r25,Y+4
 1858 0b28 A901      		movw r20,r18
 1859 0b2a 481B      		sub r20,r24
 1860 0b2c 590B      		sbc r21,r25
 1861 0b2e CA01      		movw r24,r20
 1862 0b30 0697      		sbiw r24,6
 1863 0b32 04F0      		brlt .+2
 1864 0b34 00C0      		rjmp .L63
 241:lp_solve_5.5/shared/commonlib.c ****     }
 242:lp_solve_5.5/shared/commonlib.c ****   }
 243:lp_solve_5.5/shared/commonlib.c **** 
 244:lp_solve_5.5/shared/commonlib.c ****  /* Do linear (unsorted) search logic */
 245:lp_solve_5.5/shared/commonlib.c ****   if(endPos - beginPos <= LINEARSEARCH) {
 1865               		.loc 1 245 0
 1866 0b36 2D81      		ldd r18,Y+5
 1867 0b38 3E81      		ldd r19,Y+6
 1868 0b3a 8B81      		ldd r24,Y+3
 1869 0b3c 9C81      		ldd r25,Y+4
 1870 0b3e F901      		movw r30,r18
 1871 0b40 E81B      		sub r30,r24
 1872 0b42 F90B      		sbc r31,r25
 1873 0b44 CF01      		movw r24,r30
 1874 0b46 0697      		sbiw r24,6
 1875 0b48 04F4      		brge .L64
 1876               	.LBB2:
 246:lp_solve_5.5/shared/commonlib.c **** 
 247:lp_solve_5.5/shared/commonlib.c ****     /* CPU intensive loop; provide alternative evaluation models */
 248:lp_solve_5.5/shared/commonlib.c **** #if defined DOFASTMATH
 249:lp_solve_5.5/shared/commonlib.c ****     /* Do fast pointer arithmetic */
 250:lp_solve_5.5/shared/commonlib.c ****     int *attptr = attributes + beginPos;
 1877               		.loc 1 250 0
 1878 0b4a 8B81      		ldd r24,Y+3
 1879 0b4c 9C81      		ldd r25,Y+4
 1880 0b4e 880F      		lsl r24
 1881 0b50 991F      		rol r25
 1882 0b52 2989      		ldd r18,Y+17
 1883 0b54 3A89      		ldd r19,Y+18
 1884 0b56 820F      		add r24,r18
 1885 0b58 931F      		adc r25,r19
 1886 0b5a 9E87      		std Y+14,r25
 1887 0b5c 8D87      		std Y+13,r24
 251:lp_solve_5.5/shared/commonlib.c ****     while((beginPos < endPos) && ((*attptr) < target)) {
 1888               		.loc 1 251 0
 1889 0b5e 00C0      		rjmp .L65
 1890               	.L67:
 252:lp_solve_5.5/shared/commonlib.c ****       beginPos++;
 1891               		.loc 1 252 0
 1892 0b60 8B81      		ldd r24,Y+3
 1893 0b62 9C81      		ldd r25,Y+4
 1894 0b64 0196      		adiw r24,1
 1895 0b66 9C83      		std Y+4,r25
 1896 0b68 8B83      		std Y+3,r24
 253:lp_solve_5.5/shared/commonlib.c ****       attptr++;
 1897               		.loc 1 253 0
 1898 0b6a 8D85      		ldd r24,Y+13
 1899 0b6c 9E85      		ldd r25,Y+14
 1900 0b6e 0296      		adiw r24,2
 1901 0b70 9E87      		std Y+14,r25
 1902 0b72 8D87      		std Y+13,r24
 1903               	.L65:
 251:lp_solve_5.5/shared/commonlib.c ****     while((beginPos < endPos) && ((*attptr) < target)) {
 1904               		.loc 1 251 0
 1905 0b74 2B81      		ldd r18,Y+3
 1906 0b76 3C81      		ldd r19,Y+4
 1907 0b78 8D81      		ldd r24,Y+5
 1908 0b7a 9E81      		ldd r25,Y+6
 1909 0b7c 2817      		cp r18,r24
 1910 0b7e 3907      		cpc r19,r25
 1911 0b80 04F4      		brge .L66
 251:lp_solve_5.5/shared/commonlib.c ****     while((beginPos < endPos) && ((*attptr) < target)) {
 1912               		.loc 1 251 0 is_stmt 0 discriminator 1
 1913 0b82 8D85      		ldd r24,Y+13
 1914 0b84 9E85      		ldd r25,Y+14
 1915 0b86 FC01      		movw r30,r24
 1916 0b88 2081      		ld r18,Z
 1917 0b8a 3181      		ldd r19,Z+1
 1918 0b8c 8F85      		ldd r24,Y+15
 1919 0b8e 9889      		ldd r25,Y+16
 1920 0b90 2817      		cp r18,r24
 1921 0b92 3907      		cpc r19,r25
 1922 0b94 04F0      		brlt .L67
 1923               	.L66:
 254:lp_solve_5.5/shared/commonlib.c ****     }
 255:lp_solve_5.5/shared/commonlib.c ****     focusAttrib = (*attptr);
 1924               		.loc 1 255 0 is_stmt 1
 1925 0b96 8D85      		ldd r24,Y+13
 1926 0b98 9E85      		ldd r25,Y+14
 1927 0b9a FC01      		movw r30,r24
 1928 0b9c 8081      		ld r24,Z
 1929 0b9e 9181      		ldd r25,Z+1
 1930 0ba0 9887      		std Y+8,r25
 1931 0ba2 8F83      		std Y+7,r24
 1932               	.L64:
 1933               	.LBE2:
 256:lp_solve_5.5/shared/commonlib.c **** #else
 257:lp_solve_5.5/shared/commonlib.c ****     /* Do traditional indexed access */
 258:lp_solve_5.5/shared/commonlib.c ****     focusAttrib = attributes[beginPos];
 259:lp_solve_5.5/shared/commonlib.c ****     while((beginPos < endPos) && (focusAttrib < target)) {
 260:lp_solve_5.5/shared/commonlib.c ****       beginPos++;
 261:lp_solve_5.5/shared/commonlib.c ****       focusAttrib = attributes[beginPos];
 262:lp_solve_5.5/shared/commonlib.c ****     }
 263:lp_solve_5.5/shared/commonlib.c **** #endif
 264:lp_solve_5.5/shared/commonlib.c ****   }
 265:lp_solve_5.5/shared/commonlib.c **** 
 266:lp_solve_5.5/shared/commonlib.c ****  /* Return the index if a match was found, or signal failure with a -1        */
 267:lp_solve_5.5/shared/commonlib.c ****   if(focusAttrib == target)             /* Found; return retrieval index      */
 1934               		.loc 1 267 0
 1935 0ba4 2F81      		ldd r18,Y+7
 1936 0ba6 3885      		ldd r19,Y+8
 1937 0ba8 8F85      		ldd r24,Y+15
 1938 0baa 9889      		ldd r25,Y+16
 1939 0bac 2817      		cp r18,r24
 1940 0bae 3907      		cpc r19,r25
 1941 0bb0 01F4      		brne .L68
 268:lp_solve_5.5/shared/commonlib.c ****     return(beginPos);
 1942               		.loc 1 268 0
 1943 0bb2 8B81      		ldd r24,Y+3
 1944 0bb4 9C81      		ldd r25,Y+4
 1945 0bb6 00C0      		rjmp .L54
 1946               	.L68:
 269:lp_solve_5.5/shared/commonlib.c ****   else if(focusAttrib > target)         /* Not found; last item               */
 1947               		.loc 1 269 0
 1948 0bb8 2F81      		ldd r18,Y+7
 1949 0bba 3885      		ldd r19,Y+8
 1950 0bbc 8F85      		ldd r24,Y+15
 1951 0bbe 9889      		ldd r25,Y+16
 1952 0bc0 8217      		cp r24,r18
 1953 0bc2 9307      		cpc r25,r19
 1954 0bc4 04F4      		brge .L69
 270:lp_solve_5.5/shared/commonlib.c ****     return(-beginPos);
 1955               		.loc 1 270 0
 1956 0bc6 8B81      		ldd r24,Y+3
 1957 0bc8 9C81      		ldd r25,Y+4
 1958 0bca 9195      		neg r25
 1959 0bcc 8195      		neg r24
 1960 0bce 9109      		sbc r25,__zero_reg__
 1961 0bd0 00C0      		rjmp .L54
 1962               	.L69:
 271:lp_solve_5.5/shared/commonlib.c ****   else if(beginPos > offset+count-1)
 1963               		.loc 1 271 0
 1964 0bd2 2D89      		ldd r18,Y+21
 1965 0bd4 3E89      		ldd r19,Y+22
 1966 0bd6 8B89      		ldd r24,Y+19
 1967 0bd8 9C89      		ldd r25,Y+20
 1968 0bda 820F      		add r24,r18
 1969 0bdc 931F      		adc r25,r19
 1970 0bde 9C01      		movw r18,r24
 1971 0be0 2150      		subi r18,1
 1972 0be2 3109      		sbc r19,__zero_reg__
 1973 0be4 8B81      		ldd r24,Y+3
 1974 0be6 9C81      		ldd r25,Y+4
 1975 0be8 2817      		cp r18,r24
 1976 0bea 3907      		cpc r19,r25
 1977 0bec 04F4      		brge .L70
 272:lp_solve_5.5/shared/commonlib.c ****     return(-(endPos+1));                /* Not found; end of list             */
 1978               		.loc 1 272 0
 1979 0bee 8D81      		ldd r24,Y+5
 1980 0bf0 9E81      		ldd r25,Y+6
 1981 0bf2 8095      		com r24
 1982 0bf4 9095      		com r25
 1983 0bf6 00C0      		rjmp .L54
 1984               	.L70:
 273:lp_solve_5.5/shared/commonlib.c ****   else
 274:lp_solve_5.5/shared/commonlib.c ****     return(-(beginPos+1));              /* Not found; intermediate point      */
 1985               		.loc 1 274 0
 1986 0bf8 8B81      		ldd r24,Y+3
 1987 0bfa 9C81      		ldd r25,Y+4
 1988 0bfc 8095      		com r24
 1989 0bfe 9095      		com r25
 1990               	.L54:
 1991               	/* epilogue start */
 275:lp_solve_5.5/shared/commonlib.c **** 
 276:lp_solve_5.5/shared/commonlib.c **** }
 1992               		.loc 1 276 0
 1993 0c00 6696      		adiw r28,22
 1994 0c02 0FB6      		in __tmp_reg__,__SREG__
 1995 0c04 F894      		cli
 1996 0c06 DEBF      		out __SP_H__,r29
 1997 0c08 0FBE      		out __SREG__,__tmp_reg__
 1998 0c0a CDBF      		out __SP_L__,r28
 1999 0c0c DF91      		pop r29
 2000 0c0e CF91      		pop r28
 2001 0c10 0895      		ret
 2002               		.cfi_endproc
 2003               	.LFE15:
 2005               	.global	findIndexEx
 2007               	findIndexEx:
 2008               	.LFB16:
 277:lp_solve_5.5/shared/commonlib.c **** int findIndexEx(void *target, void *attributes, int count, int offset, int recsize, findCompare_fun
 278:lp_solve_5.5/shared/commonlib.c **** {
 2009               		.loc 1 278 0
 2010               		.cfi_startproc
 2011 0c12 CF92      		push r12
 2012               	.LCFI52:
 2013               		.cfi_def_cfa_offset 3
 2014               		.cfi_offset 12, -2
 2015 0c14 EF92      		push r14
 2016               	.LCFI53:
 2017               		.cfi_def_cfa_offset 4
 2018               		.cfi_offset 14, -3
 2019 0c16 FF92      		push r15
 2020               	.LCFI54:
 2021               		.cfi_def_cfa_offset 5
 2022               		.cfi_offset 15, -4
 2023 0c18 0F93      		push r16
 2024               	.LCFI55:
 2025               		.cfi_def_cfa_offset 6
 2026               		.cfi_offset 16, -5
 2027 0c1a 1F93      		push r17
 2028               	.LCFI56:
 2029               		.cfi_def_cfa_offset 7
 2030               		.cfi_offset 17, -6
 2031 0c1c CF93      		push r28
 2032               	.LCFI57:
 2033               		.cfi_def_cfa_offset 8
 2034               		.cfi_offset 28, -7
 2035 0c1e DF93      		push r29
 2036               	.LCFI58:
 2037               		.cfi_def_cfa_offset 9
 2038               		.cfi_offset 29, -8
 2039 0c20 CDB7      		in r28,__SP_L__
 2040 0c22 DEB7      		in r29,__SP_H__
 2041               	.LCFI59:
 2042               		.cfi_def_cfa_register 28
 2043 0c24 6D97      		sbiw r28,29
 2044               	.LCFI60:
 2045               		.cfi_def_cfa_offset 38
 2046 0c26 0FB6      		in __tmp_reg__,__SREG__
 2047 0c28 F894      		cli
 2048 0c2a DEBF      		out __SP_H__,r29
 2049 0c2c 0FBE      		out __SREG__,__tmp_reg__
 2050 0c2e CDBF      		out __SP_L__,r28
 2051               	/* prologue: function */
 2052               	/* frame size = 29 */
 2053               	/* stack size = 36 */
 2054               	.L__stack_usage = 36
 2055 0c30 9A8B      		std Y+18,r25
 2056 0c32 898B      		std Y+17,r24
 2057 0c34 7C8B      		std Y+20,r23
 2058 0c36 6B8B      		std Y+19,r22
 2059 0c38 5E8B      		std Y+22,r21
 2060 0c3a 4D8B      		std Y+21,r20
 2061 0c3c 388F      		std Y+24,r19
 2062 0c3e 2F8B      		std Y+23,r18
 2063 0c40 1A8F      		std Y+26,r17
 2064 0c42 098F      		std Y+25,r16
 2065 0c44 FC8E      		std Y+28,r15
 2066 0c46 EB8E      		std Y+27,r14
 2067 0c48 CD8E      		std Y+29,r12
 279:lp_solve_5.5/shared/commonlib.c ****   int  focusPos, beginPos, endPos, compare, order;
 280:lp_solve_5.5/shared/commonlib.c ****   void *focusAttrib, *beginAttrib, *endAttrib;
 281:lp_solve_5.5/shared/commonlib.c **** 
 282:lp_solve_5.5/shared/commonlib.c ****  /* Set starting and ending index offsets */
 283:lp_solve_5.5/shared/commonlib.c ****   beginPos = offset;
 2068               		.loc 1 283 0
 2069 0c4a 8F89      		ldd r24,Y+23
 2070 0c4c 988D      		ldd r25,Y+24
 2071 0c4e 9C83      		std Y+4,r25
 2072 0c50 8B83      		std Y+3,r24
 284:lp_solve_5.5/shared/commonlib.c ****   endPos = beginPos + count - 1;
 2073               		.loc 1 284 0
 2074 0c52 2B81      		ldd r18,Y+3
 2075 0c54 3C81      		ldd r19,Y+4
 2076 0c56 8D89      		ldd r24,Y+21
 2077 0c58 9E89      		ldd r25,Y+22
 2078 0c5a 820F      		add r24,r18
 2079 0c5c 931F      		adc r25,r19
 2080 0c5e 0197      		sbiw r24,1
 2081 0c60 9E83      		std Y+6,r25
 2082 0c62 8D83      		std Y+5,r24
 285:lp_solve_5.5/shared/commonlib.c ****   if(endPos < beginPos)
 2083               		.loc 1 285 0
 2084 0c64 2D81      		ldd r18,Y+5
 2085 0c66 3E81      		ldd r19,Y+6
 2086 0c68 8B81      		ldd r24,Y+3
 2087 0c6a 9C81      		ldd r25,Y+4
 2088 0c6c 2817      		cp r18,r24
 2089 0c6e 3907      		cpc r19,r25
 2090 0c70 04F4      		brge .L72
 286:lp_solve_5.5/shared/commonlib.c ****     return(-1);
 2091               		.loc 1 286 0
 2092 0c72 8FEF      		ldi r24,lo8(-1)
 2093 0c74 9FEF      		ldi r25,lo8(-1)
 2094 0c76 00C0      		rjmp .L73
 2095               	.L72:
 287:lp_solve_5.5/shared/commonlib.c ****   order = (ascending ? -1 : 1);
 2096               		.loc 1 287 0
 2097 0c78 8D8D      		ldd r24,Y+29
 2098 0c7a 8823      		tst r24
 2099 0c7c 01F0      		breq .L74
 2100               		.loc 1 287 0 is_stmt 0 discriminator 1
 2101 0c7e 8FEF      		ldi r24,lo8(-1)
 2102 0c80 9FEF      		ldi r25,lo8(-1)
 2103 0c82 00C0      		rjmp .L75
 2104               	.L74:
 2105               		.loc 1 287 0 discriminator 2
 2106 0c84 81E0      		ldi r24,lo8(1)
 2107 0c86 90E0      		ldi r25,0
 2108               	.L75:
 2109               		.loc 1 287 0 discriminator 4
 2110 0c88 988B      		std Y+16,r25
 2111 0c8a 8F87      		std Y+15,r24
 288:lp_solve_5.5/shared/commonlib.c **** 
 289:lp_solve_5.5/shared/commonlib.c ****  /* Do binary search logic based on a sorted attribute vector */
 290:lp_solve_5.5/shared/commonlib.c ****   focusPos = (beginPos + endPos) / 2;
 2112               		.loc 1 290 0 is_stmt 1 discriminator 4
 2113 0c8c 2B81      		ldd r18,Y+3
 2114 0c8e 3C81      		ldd r19,Y+4
 2115 0c90 8D81      		ldd r24,Y+5
 2116 0c92 9E81      		ldd r25,Y+6
 2117 0c94 820F      		add r24,r18
 2118 0c96 931F      		adc r25,r19
 2119 0c98 9923      		tst r25
 2120 0c9a 04F4      		brge .L76
 2121 0c9c 0196      		adiw r24,1
 2122               	.L76:
 2123 0c9e 9595      		asr r25
 2124 0ca0 8795      		ror r24
 2125 0ca2 9A83      		std Y+2,r25
 2126 0ca4 8983      		std Y+1,r24
 291:lp_solve_5.5/shared/commonlib.c ****   beginAttrib = CMP_ATTRIBUTES(beginPos);
 2127               		.loc 1 291 0 discriminator 4
 2128 0ca6 2B81      		ldd r18,Y+3
 2129 0ca8 3C81      		ldd r19,Y+4
 2130 0caa 898D      		ldd r24,Y+25
 2131 0cac 9A8D      		ldd r25,Y+26
 2132 0cae 289F      		mul r18,r24
 2133 0cb0 A001      		movw r20,r0
 2134 0cb2 299F      		mul r18,r25
 2135 0cb4 500D      		add r21,r0
 2136 0cb6 389F      		mul r19,r24
 2137 0cb8 500D      		add r21,r0
 2138 0cba 1124      		clr r1
 2139 0cbc 9A01      		movw r18,r20
 2140 0cbe 8B89      		ldd r24,Y+19
 2141 0cc0 9C89      		ldd r25,Y+20
 2142 0cc2 820F      		add r24,r18
 2143 0cc4 931F      		adc r25,r19
 2144 0cc6 9C87      		std Y+12,r25
 2145 0cc8 8B87      		std Y+11,r24
 292:lp_solve_5.5/shared/commonlib.c ****   focusAttrib = CMP_ATTRIBUTES(focusPos);
 2146               		.loc 1 292 0 discriminator 4
 2147 0cca 2981      		ldd r18,Y+1
 2148 0ccc 3A81      		ldd r19,Y+2
 2149 0cce 898D      		ldd r24,Y+25
 2150 0cd0 9A8D      		ldd r25,Y+26
 2151 0cd2 289F      		mul r18,r24
 2152 0cd4 A001      		movw r20,r0
 2153 0cd6 299F      		mul r18,r25
 2154 0cd8 500D      		add r21,r0
 2155 0cda 389F      		mul r19,r24
 2156 0cdc 500D      		add r21,r0
 2157 0cde 1124      		clr r1
 2158 0ce0 9A01      		movw r18,r20
 2159 0ce2 8B89      		ldd r24,Y+19
 2160 0ce4 9C89      		ldd r25,Y+20
 2161 0ce6 820F      		add r24,r18
 2162 0ce8 931F      		adc r25,r19
 2163 0cea 9A87      		std Y+10,r25
 2164 0cec 8987      		std Y+9,r24
 293:lp_solve_5.5/shared/commonlib.c ****   endAttrib   = CMP_ATTRIBUTES(endPos);
 2165               		.loc 1 293 0 discriminator 4
 2166 0cee 2D81      		ldd r18,Y+5
 2167 0cf0 3E81      		ldd r19,Y+6
 2168 0cf2 898D      		ldd r24,Y+25
 2169 0cf4 9A8D      		ldd r25,Y+26
 2170 0cf6 289F      		mul r18,r24
 2171 0cf8 A001      		movw r20,r0
 2172 0cfa 299F      		mul r18,r25
 2173 0cfc 500D      		add r21,r0
 2174 0cfe 389F      		mul r19,r24
 2175 0d00 500D      		add r21,r0
 2176 0d02 1124      		clr r1
 2177 0d04 9A01      		movw r18,r20
 2178 0d06 8B89      		ldd r24,Y+19
 2179 0d08 9C89      		ldd r25,Y+20
 2180 0d0a 820F      		add r24,r18
 2181 0d0c 931F      		adc r25,r19
 2182 0d0e 9E87      		std Y+14,r25
 2183 0d10 8D87      		std Y+13,r24
 294:lp_solve_5.5/shared/commonlib.c **** 
 295:lp_solve_5.5/shared/commonlib.c ****   compare = 0;
 2184               		.loc 1 295 0 discriminator 4
 2185 0d12 1886      		std Y+8,__zero_reg__
 2186 0d14 1F82      		std Y+7,__zero_reg__
 296:lp_solve_5.5/shared/commonlib.c ****   while(endPos - beginPos > LINEARSEARCH) {
 2187               		.loc 1 296 0 discriminator 4
 2188 0d16 00C0      		rjmp .L77
 2189               	.L84:
 297:lp_solve_5.5/shared/commonlib.c ****     if(findCompare(target, beginAttrib) == 0) {
 2190               		.loc 1 297 0
 2191 0d18 4B85      		ldd r20,Y+11
 2192 0d1a 5C85      		ldd r21,Y+12
 2193 0d1c 8989      		ldd r24,Y+17
 2194 0d1e 9A89      		ldd r25,Y+18
 2195 0d20 2B8D      		ldd r18,Y+27
 2196 0d22 3C8D      		ldd r19,Y+28
 2197 0d24 BA01      		movw r22,r20
 2198 0d26 F901      		movw r30,r18
 2199 0d28 0995      		icall
 2200 0d2a 892B      		or r24,r25
 2201 0d2c 01F4      		brne .L78
 298:lp_solve_5.5/shared/commonlib.c ****       focusAttrib = beginAttrib;
 2202               		.loc 1 298 0
 2203 0d2e 8B85      		ldd r24,Y+11
 2204 0d30 9C85      		ldd r25,Y+12
 2205 0d32 9A87      		std Y+10,r25
 2206 0d34 8987      		std Y+9,r24
 299:lp_solve_5.5/shared/commonlib.c ****       endPos = beginPos;
 2207               		.loc 1 299 0
 2208 0d36 8B81      		ldd r24,Y+3
 2209 0d38 9C81      		ldd r25,Y+4
 2210 0d3a 9E83      		std Y+6,r25
 2211 0d3c 8D83      		std Y+5,r24
 2212 0d3e 00C0      		rjmp .L77
 2213               	.L78:
 300:lp_solve_5.5/shared/commonlib.c ****     }
 301:lp_solve_5.5/shared/commonlib.c ****     else if(findCompare(target, endAttrib) == 0) {
 2214               		.loc 1 301 0
 2215 0d40 4D85      		ldd r20,Y+13
 2216 0d42 5E85      		ldd r21,Y+14
 2217 0d44 8989      		ldd r24,Y+17
 2218 0d46 9A89      		ldd r25,Y+18
 2219 0d48 2B8D      		ldd r18,Y+27
 2220 0d4a 3C8D      		ldd r19,Y+28
 2221 0d4c BA01      		movw r22,r20
 2222 0d4e F901      		movw r30,r18
 2223 0d50 0995      		icall
 2224 0d52 892B      		or r24,r25
 2225 0d54 01F4      		brne .L79
 302:lp_solve_5.5/shared/commonlib.c ****       focusAttrib = endAttrib;
 2226               		.loc 1 302 0
 2227 0d56 8D85      		ldd r24,Y+13
 2228 0d58 9E85      		ldd r25,Y+14
 2229 0d5a 9A87      		std Y+10,r25
 2230 0d5c 8987      		std Y+9,r24
 303:lp_solve_5.5/shared/commonlib.c ****       beginPos = endPos;
 2231               		.loc 1 303 0
 2232 0d5e 8D81      		ldd r24,Y+5
 2233 0d60 9E81      		ldd r25,Y+6
 2234 0d62 9C83      		std Y+4,r25
 2235 0d64 8B83      		std Y+3,r24
 2236 0d66 00C0      		rjmp .L77
 2237               	.L79:
 304:lp_solve_5.5/shared/commonlib.c ****     }
 305:lp_solve_5.5/shared/commonlib.c ****     else {
 306:lp_solve_5.5/shared/commonlib.c ****       compare = findCompare(target, focusAttrib)*order;
 2238               		.loc 1 306 0
 2239 0d68 4985      		ldd r20,Y+9
 2240 0d6a 5A85      		ldd r21,Y+10
 2241 0d6c 8989      		ldd r24,Y+17
 2242 0d6e 9A89      		ldd r25,Y+18
 2243 0d70 2B8D      		ldd r18,Y+27
 2244 0d72 3C8D      		ldd r19,Y+28
 2245 0d74 BA01      		movw r22,r20
 2246 0d76 F901      		movw r30,r18
 2247 0d78 0995      		icall
 2248 0d7a AC01      		movw r20,r24
 2249 0d7c 2F85      		ldd r18,Y+15
 2250 0d7e 3889      		ldd r19,Y+16
 2251 0d80 429F      		mul r20,r18
 2252 0d82 C001      		movw r24,r0
 2253 0d84 439F      		mul r20,r19
 2254 0d86 900D      		add r25,r0
 2255 0d88 529F      		mul r21,r18
 2256 0d8a 900D      		add r25,r0
 2257 0d8c 1124      		clr r1
 2258 0d8e 9887      		std Y+8,r25
 2259 0d90 8F83      		std Y+7,r24
 307:lp_solve_5.5/shared/commonlib.c ****       if(compare < 0) {
 2260               		.loc 1 307 0
 2261 0d92 8F81      		ldd r24,Y+7
 2262 0d94 9885      		ldd r25,Y+8
 2263 0d96 9923      		tst r25
 2264 0d98 04F4      		brge .L80
 308:lp_solve_5.5/shared/commonlib.c ****         beginPos = focusPos + 1;
 2265               		.loc 1 308 0
 2266 0d9a 8981      		ldd r24,Y+1
 2267 0d9c 9A81      		ldd r25,Y+2
 2268 0d9e 0196      		adiw r24,1
 2269 0da0 9C83      		std Y+4,r25
 2270 0da2 8B83      		std Y+3,r24
 309:lp_solve_5.5/shared/commonlib.c ****         beginAttrib = CMP_ATTRIBUTES(beginPos);
 2271               		.loc 1 309 0
 2272 0da4 2B81      		ldd r18,Y+3
 2273 0da6 3C81      		ldd r19,Y+4
 2274 0da8 898D      		ldd r24,Y+25
 2275 0daa 9A8D      		ldd r25,Y+26
 2276 0dac 289F      		mul r18,r24
 2277 0dae A001      		movw r20,r0
 2278 0db0 299F      		mul r18,r25
 2279 0db2 500D      		add r21,r0
 2280 0db4 389F      		mul r19,r24
 2281 0db6 500D      		add r21,r0
 2282 0db8 1124      		clr r1
 2283 0dba 9A01      		movw r18,r20
 2284 0dbc 8B89      		ldd r24,Y+19
 2285 0dbe 9C89      		ldd r25,Y+20
 2286 0dc0 820F      		add r24,r18
 2287 0dc2 931F      		adc r25,r19
 2288 0dc4 9C87      		std Y+12,r25
 2289 0dc6 8B87      		std Y+11,r24
 310:lp_solve_5.5/shared/commonlib.c ****         focusPos = (beginPos + endPos) / 2;
 2290               		.loc 1 310 0
 2291 0dc8 2B81      		ldd r18,Y+3
 2292 0dca 3C81      		ldd r19,Y+4
 2293 0dcc 8D81      		ldd r24,Y+5
 2294 0dce 9E81      		ldd r25,Y+6
 2295 0dd0 820F      		add r24,r18
 2296 0dd2 931F      		adc r25,r19
 2297 0dd4 9923      		tst r25
 2298 0dd6 04F4      		brge .L81
 2299 0dd8 0196      		adiw r24,1
 2300               	.L81:
 2301 0dda 9595      		asr r25
 2302 0ddc 8795      		ror r24
 2303 0dde 9A83      		std Y+2,r25
 2304 0de0 8983      		std Y+1,r24
 311:lp_solve_5.5/shared/commonlib.c ****         focusAttrib = CMP_ATTRIBUTES(focusPos);
 2305               		.loc 1 311 0
 2306 0de2 2981      		ldd r18,Y+1
 2307 0de4 3A81      		ldd r19,Y+2
 2308 0de6 898D      		ldd r24,Y+25
 2309 0de8 9A8D      		ldd r25,Y+26
 2310 0dea 289F      		mul r18,r24
 2311 0dec A001      		movw r20,r0
 2312 0dee 299F      		mul r18,r25
 2313 0df0 500D      		add r21,r0
 2314 0df2 389F      		mul r19,r24
 2315 0df4 500D      		add r21,r0
 2316 0df6 1124      		clr r1
 2317 0df8 9A01      		movw r18,r20
 2318 0dfa 8B89      		ldd r24,Y+19
 2319 0dfc 9C89      		ldd r25,Y+20
 2320 0dfe 820F      		add r24,r18
 2321 0e00 931F      		adc r25,r19
 2322 0e02 9A87      		std Y+10,r25
 2323 0e04 8987      		std Y+9,r24
 2324 0e06 00C0      		rjmp .L77
 2325               	.L80:
 312:lp_solve_5.5/shared/commonlib.c ****       }
 313:lp_solve_5.5/shared/commonlib.c ****       else if(compare > 0) {
 2326               		.loc 1 313 0
 2327 0e08 8F81      		ldd r24,Y+7
 2328 0e0a 9885      		ldd r25,Y+8
 2329 0e0c 1816      		cp __zero_reg__,r24
 2330 0e0e 1906      		cpc __zero_reg__,r25
 2331 0e10 04F4      		brge .L82
 314:lp_solve_5.5/shared/commonlib.c ****         endPos = focusPos - 1;
 2332               		.loc 1 314 0
 2333 0e12 8981      		ldd r24,Y+1
 2334 0e14 9A81      		ldd r25,Y+2
 2335 0e16 0197      		sbiw r24,1
 2336 0e18 9E83      		std Y+6,r25
 2337 0e1a 8D83      		std Y+5,r24
 315:lp_solve_5.5/shared/commonlib.c ****         endAttrib = CMP_ATTRIBUTES(endPos);
 2338               		.loc 1 315 0
 2339 0e1c 2D81      		ldd r18,Y+5
 2340 0e1e 3E81      		ldd r19,Y+6
 2341 0e20 898D      		ldd r24,Y+25
 2342 0e22 9A8D      		ldd r25,Y+26
 2343 0e24 289F      		mul r18,r24
 2344 0e26 A001      		movw r20,r0
 2345 0e28 299F      		mul r18,r25
 2346 0e2a 500D      		add r21,r0
 2347 0e2c 389F      		mul r19,r24
 2348 0e2e 500D      		add r21,r0
 2349 0e30 1124      		clr r1
 2350 0e32 9A01      		movw r18,r20
 2351 0e34 8B89      		ldd r24,Y+19
 2352 0e36 9C89      		ldd r25,Y+20
 2353 0e38 820F      		add r24,r18
 2354 0e3a 931F      		adc r25,r19
 2355 0e3c 9E87      		std Y+14,r25
 2356 0e3e 8D87      		std Y+13,r24
 316:lp_solve_5.5/shared/commonlib.c ****         focusPos = (beginPos + endPos) / 2;
 2357               		.loc 1 316 0
 2358 0e40 2B81      		ldd r18,Y+3
 2359 0e42 3C81      		ldd r19,Y+4
 2360 0e44 8D81      		ldd r24,Y+5
 2361 0e46 9E81      		ldd r25,Y+6
 2362 0e48 820F      		add r24,r18
 2363 0e4a 931F      		adc r25,r19
 2364 0e4c 9923      		tst r25
 2365 0e4e 04F4      		brge .L83
 2366 0e50 0196      		adiw r24,1
 2367               	.L83:
 2368 0e52 9595      		asr r25
 2369 0e54 8795      		ror r24
 2370 0e56 9A83      		std Y+2,r25
 2371 0e58 8983      		std Y+1,r24
 317:lp_solve_5.5/shared/commonlib.c ****         focusAttrib = CMP_ATTRIBUTES(focusPos);
 2372               		.loc 1 317 0
 2373 0e5a 2981      		ldd r18,Y+1
 2374 0e5c 3A81      		ldd r19,Y+2
 2375 0e5e 898D      		ldd r24,Y+25
 2376 0e60 9A8D      		ldd r25,Y+26
 2377 0e62 289F      		mul r18,r24
 2378 0e64 A001      		movw r20,r0
 2379 0e66 299F      		mul r18,r25
 2380 0e68 500D      		add r21,r0
 2381 0e6a 389F      		mul r19,r24
 2382 0e6c 500D      		add r21,r0
 2383 0e6e 1124      		clr r1
 2384 0e70 9A01      		movw r18,r20
 2385 0e72 8B89      		ldd r24,Y+19
 2386 0e74 9C89      		ldd r25,Y+20
 2387 0e76 820F      		add r24,r18
 2388 0e78 931F      		adc r25,r19
 2389 0e7a 9A87      		std Y+10,r25
 2390 0e7c 8987      		std Y+9,r24
 2391 0e7e 00C0      		rjmp .L77
 2392               	.L82:
 318:lp_solve_5.5/shared/commonlib.c ****       }
 319:lp_solve_5.5/shared/commonlib.c ****       else {
 320:lp_solve_5.5/shared/commonlib.c ****         beginPos = focusPos;
 2393               		.loc 1 320 0
 2394 0e80 8981      		ldd r24,Y+1
 2395 0e82 9A81      		ldd r25,Y+2
 2396 0e84 9C83      		std Y+4,r25
 2397 0e86 8B83      		std Y+3,r24
 321:lp_solve_5.5/shared/commonlib.c ****         endPos = focusPos;
 2398               		.loc 1 321 0
 2399 0e88 8981      		ldd r24,Y+1
 2400 0e8a 9A81      		ldd r25,Y+2
 2401 0e8c 9E83      		std Y+6,r25
 2402 0e8e 8D83      		std Y+5,r24
 2403               	.L77:
 296:lp_solve_5.5/shared/commonlib.c ****     if(findCompare(target, beginAttrib) == 0) {
 2404               		.loc 1 296 0
 2405 0e90 2D81      		ldd r18,Y+5
 2406 0e92 3E81      		ldd r19,Y+6
 2407 0e94 8B81      		ldd r24,Y+3
 2408 0e96 9C81      		ldd r25,Y+4
 2409 0e98 A901      		movw r20,r18
 2410 0e9a 481B      		sub r20,r24
 2411 0e9c 590B      		sbc r21,r25
 2412 0e9e CA01      		movw r24,r20
 2413 0ea0 0697      		sbiw r24,6
 2414 0ea2 04F0      		brlt .+2
 2415 0ea4 00C0      		rjmp .L84
 322:lp_solve_5.5/shared/commonlib.c ****       }
 323:lp_solve_5.5/shared/commonlib.c ****     }
 324:lp_solve_5.5/shared/commonlib.c ****   }
 325:lp_solve_5.5/shared/commonlib.c **** 
 326:lp_solve_5.5/shared/commonlib.c ****  /* Do linear (unsorted) search logic */
 327:lp_solve_5.5/shared/commonlib.c ****   if(endPos - beginPos <= LINEARSEARCH) {
 2416               		.loc 1 327 0
 2417 0ea6 2D81      		ldd r18,Y+5
 2418 0ea8 3E81      		ldd r19,Y+6
 2419 0eaa 8B81      		ldd r24,Y+3
 2420 0eac 9C81      		ldd r25,Y+4
 2421 0eae F901      		movw r30,r18
 2422 0eb0 E81B      		sub r30,r24
 2423 0eb2 F90B      		sbc r31,r25
 2424 0eb4 CF01      		movw r24,r30
 2425 0eb6 0697      		sbiw r24,6
 2426 0eb8 04F0      		brlt .+2
 2427 0eba 00C0      		rjmp .L85
 328:lp_solve_5.5/shared/commonlib.c **** 
 329:lp_solve_5.5/shared/commonlib.c ****     /* Do traditional indexed access */
 330:lp_solve_5.5/shared/commonlib.c ****     focusAttrib = CMP_ATTRIBUTES(beginPos);
 2428               		.loc 1 330 0
 2429 0ebc 2B81      		ldd r18,Y+3
 2430 0ebe 3C81      		ldd r19,Y+4
 2431 0ec0 898D      		ldd r24,Y+25
 2432 0ec2 9A8D      		ldd r25,Y+26
 2433 0ec4 289F      		mul r18,r24
 2434 0ec6 A001      		movw r20,r0
 2435 0ec8 299F      		mul r18,r25
 2436 0eca 500D      		add r21,r0
 2437 0ecc 389F      		mul r19,r24
 2438 0ece 500D      		add r21,r0
 2439 0ed0 1124      		clr r1
 2440 0ed2 9A01      		movw r18,r20
 2441 0ed4 8B89      		ldd r24,Y+19
 2442 0ed6 9C89      		ldd r25,Y+20
 2443 0ed8 820F      		add r24,r18
 2444 0eda 931F      		adc r25,r19
 2445 0edc 9A87      		std Y+10,r25
 2446 0ede 8987      		std Y+9,r24
 331:lp_solve_5.5/shared/commonlib.c ****     if(beginPos == endPos)
 2447               		.loc 1 331 0
 2448 0ee0 2B81      		ldd r18,Y+3
 2449 0ee2 3C81      		ldd r19,Y+4
 2450 0ee4 8D81      		ldd r24,Y+5
 2451 0ee6 9E81      		ldd r25,Y+6
 2452 0ee8 2817      		cp r18,r24
 2453 0eea 3907      		cpc r19,r25
 2454 0eec 01F4      		brne .L87
 332:lp_solve_5.5/shared/commonlib.c ****       compare = findCompare(target, focusAttrib)*order;
 2455               		.loc 1 332 0
 2456 0eee 4985      		ldd r20,Y+9
 2457 0ef0 5A85      		ldd r21,Y+10
 2458 0ef2 8989      		ldd r24,Y+17
 2459 0ef4 9A89      		ldd r25,Y+18
 2460 0ef6 2B8D      		ldd r18,Y+27
 2461 0ef8 3C8D      		ldd r19,Y+28
 2462 0efa BA01      		movw r22,r20
 2463 0efc F901      		movw r30,r18
 2464 0efe 0995      		icall
 2465 0f00 AC01      		movw r20,r24
 2466 0f02 2F85      		ldd r18,Y+15
 2467 0f04 3889      		ldd r19,Y+16
 2468 0f06 429F      		mul r20,r18
 2469 0f08 C001      		movw r24,r0
 2470 0f0a 439F      		mul r20,r19
 2471 0f0c 900D      		add r25,r0
 2472 0f0e 529F      		mul r21,r18
 2473 0f10 900D      		add r25,r0
 2474 0f12 1124      		clr r1
 2475 0f14 9887      		std Y+8,r25
 2476 0f16 8F83      		std Y+7,r24
 2477 0f18 00C0      		rjmp .L85
 2478               	.L88:
 333:lp_solve_5.5/shared/commonlib.c ****     else
 334:lp_solve_5.5/shared/commonlib.c ****     while((beginPos < endPos) &&
 335:lp_solve_5.5/shared/commonlib.c ****           ((compare = findCompare(target, focusAttrib)*order) < 0)) {
 336:lp_solve_5.5/shared/commonlib.c ****       beginPos++;
 2479               		.loc 1 336 0
 2480 0f1a 8B81      		ldd r24,Y+3
 2481 0f1c 9C81      		ldd r25,Y+4
 2482 0f1e 0196      		adiw r24,1
 2483 0f20 9C83      		std Y+4,r25
 2484 0f22 8B83      		std Y+3,r24
 337:lp_solve_5.5/shared/commonlib.c ****       focusAttrib = CMP_ATTRIBUTES(beginPos);
 2485               		.loc 1 337 0
 2486 0f24 2B81      		ldd r18,Y+3
 2487 0f26 3C81      		ldd r19,Y+4
 2488 0f28 898D      		ldd r24,Y+25
 2489 0f2a 9A8D      		ldd r25,Y+26
 2490 0f2c 289F      		mul r18,r24
 2491 0f2e A001      		movw r20,r0
 2492 0f30 299F      		mul r18,r25
 2493 0f32 500D      		add r21,r0
 2494 0f34 389F      		mul r19,r24
 2495 0f36 500D      		add r21,r0
 2496 0f38 1124      		clr r1
 2497 0f3a 9A01      		movw r18,r20
 2498 0f3c 8B89      		ldd r24,Y+19
 2499 0f3e 9C89      		ldd r25,Y+20
 2500 0f40 820F      		add r24,r18
 2501 0f42 931F      		adc r25,r19
 2502 0f44 9A87      		std Y+10,r25
 2503 0f46 8987      		std Y+9,r24
 2504               	.L87:
 334:lp_solve_5.5/shared/commonlib.c ****           ((compare = findCompare(target, focusAttrib)*order) < 0)) {
 2505               		.loc 1 334 0
 2506 0f48 2B81      		ldd r18,Y+3
 2507 0f4a 3C81      		ldd r19,Y+4
 2508 0f4c 8D81      		ldd r24,Y+5
 2509 0f4e 9E81      		ldd r25,Y+6
 2510 0f50 2817      		cp r18,r24
 2511 0f52 3907      		cpc r19,r25
 2512 0f54 04F4      		brge .L85
 335:lp_solve_5.5/shared/commonlib.c ****       beginPos++;
 2513               		.loc 1 335 0 discriminator 1
 2514 0f56 4985      		ldd r20,Y+9
 2515 0f58 5A85      		ldd r21,Y+10
 2516 0f5a 8989      		ldd r24,Y+17
 2517 0f5c 9A89      		ldd r25,Y+18
 2518 0f5e 2B8D      		ldd r18,Y+27
 2519 0f60 3C8D      		ldd r19,Y+28
 2520 0f62 BA01      		movw r22,r20
 2521 0f64 F901      		movw r30,r18
 2522 0f66 0995      		icall
 2523 0f68 AC01      		movw r20,r24
 2524 0f6a 2F85      		ldd r18,Y+15
 2525 0f6c 3889      		ldd r19,Y+16
 2526 0f6e 429F      		mul r20,r18
 2527 0f70 C001      		movw r24,r0
 2528 0f72 439F      		mul r20,r19
 2529 0f74 900D      		add r25,r0
 2530 0f76 529F      		mul r21,r18
 2531 0f78 900D      		add r25,r0
 2532 0f7a 1124      		clr r1
 2533 0f7c 9887      		std Y+8,r25
 2534 0f7e 8F83      		std Y+7,r24
 334:lp_solve_5.5/shared/commonlib.c ****           ((compare = findCompare(target, focusAttrib)*order) < 0)) {
 2535               		.loc 1 334 0 discriminator 1
 2536 0f80 8F81      		ldd r24,Y+7
 2537 0f82 9885      		ldd r25,Y+8
 2538 0f84 9923      		tst r25
 2539 0f86 04F0      		brlt .L88
 2540               	.L85:
 338:lp_solve_5.5/shared/commonlib.c ****     }
 339:lp_solve_5.5/shared/commonlib.c ****   }
 340:lp_solve_5.5/shared/commonlib.c **** 
 341:lp_solve_5.5/shared/commonlib.c ****  /* Return the index if a match was found, or signal failure with a -1        */
 342:lp_solve_5.5/shared/commonlib.c ****   if(compare == 0)                      /* Found; return retrieval index      */
 2541               		.loc 1 342 0
 2542 0f88 8F81      		ldd r24,Y+7
 2543 0f8a 9885      		ldd r25,Y+8
 2544 0f8c 892B      		or r24,r25
 2545 0f8e 01F4      		brne .L89
 343:lp_solve_5.5/shared/commonlib.c ****     return(beginPos);
 2546               		.loc 1 343 0
 2547 0f90 8B81      		ldd r24,Y+3
 2548 0f92 9C81      		ldd r25,Y+4
 2549 0f94 00C0      		rjmp .L73
 2550               	.L89:
 344:lp_solve_5.5/shared/commonlib.c ****   else if(compare > 0)                  /* Not found; last item               */
 2551               		.loc 1 344 0
 2552 0f96 8F81      		ldd r24,Y+7
 2553 0f98 9885      		ldd r25,Y+8
 2554 0f9a 1816      		cp __zero_reg__,r24
 2555 0f9c 1906      		cpc __zero_reg__,r25
 2556 0f9e 04F4      		brge .L90
 345:lp_solve_5.5/shared/commonlib.c ****     return(-beginPos);
 2557               		.loc 1 345 0
 2558 0fa0 8B81      		ldd r24,Y+3
 2559 0fa2 9C81      		ldd r25,Y+4
 2560 0fa4 9195      		neg r25
 2561 0fa6 8195      		neg r24
 2562 0fa8 9109      		sbc r25,__zero_reg__
 2563 0faa 00C0      		rjmp .L73
 2564               	.L90:
 346:lp_solve_5.5/shared/commonlib.c ****   else if(beginPos > offset+count-1)
 2565               		.loc 1 346 0
 2566 0fac 2F89      		ldd r18,Y+23
 2567 0fae 388D      		ldd r19,Y+24
 2568 0fb0 8D89      		ldd r24,Y+21
 2569 0fb2 9E89      		ldd r25,Y+22
 2570 0fb4 820F      		add r24,r18
 2571 0fb6 931F      		adc r25,r19
 2572 0fb8 9C01      		movw r18,r24
 2573 0fba 2150      		subi r18,1
 2574 0fbc 3109      		sbc r19,__zero_reg__
 2575 0fbe 8B81      		ldd r24,Y+3
 2576 0fc0 9C81      		ldd r25,Y+4
 2577 0fc2 2817      		cp r18,r24
 2578 0fc4 3907      		cpc r19,r25
 2579 0fc6 04F4      		brge .L91
 347:lp_solve_5.5/shared/commonlib.c ****     return(-(endPos+1));                /* Not found; end of list             */
 2580               		.loc 1 347 0
 2581 0fc8 8D81      		ldd r24,Y+5
 2582 0fca 9E81      		ldd r25,Y+6
 2583 0fcc 8095      		com r24
 2584 0fce 9095      		com r25
 2585 0fd0 00C0      		rjmp .L73
 2586               	.L91:
 348:lp_solve_5.5/shared/commonlib.c ****   else
 349:lp_solve_5.5/shared/commonlib.c ****     return(-(beginPos+1));              /* Not found; intermediate point      */
 2587               		.loc 1 349 0
 2588 0fd2 8B81      		ldd r24,Y+3
 2589 0fd4 9C81      		ldd r25,Y+4
 2590 0fd6 8095      		com r24
 2591 0fd8 9095      		com r25
 2592               	.L73:
 2593               	/* epilogue start */
 350:lp_solve_5.5/shared/commonlib.c **** 
 351:lp_solve_5.5/shared/commonlib.c **** }
 2594               		.loc 1 351 0
 2595 0fda 6D96      		adiw r28,29
 2596 0fdc 0FB6      		in __tmp_reg__,__SREG__
 2597 0fde F894      		cli
 2598 0fe0 DEBF      		out __SP_H__,r29
 2599 0fe2 0FBE      		out __SREG__,__tmp_reg__
 2600 0fe4 CDBF      		out __SP_L__,r28
 2601 0fe6 DF91      		pop r29
 2602 0fe8 CF91      		pop r28
 2603 0fea 1F91      		pop r17
 2604 0fec 0F91      		pop r16
 2605 0fee FF90      		pop r15
 2606 0ff0 EF90      		pop r14
 2607 0ff2 CF90      		pop r12
 2608 0ff4 0895      		ret
 2609               		.cfi_endproc
 2610               	.LFE16:
 2612               	.global	compareCHAR
 2614               	compareCHAR:
 2615               	.LFB17:
 352:lp_solve_5.5/shared/commonlib.c **** 
 353:lp_solve_5.5/shared/commonlib.c **** /* Simple sorting and searching comparison "operators" */
 354:lp_solve_5.5/shared/commonlib.c **** int CMP_CALLMODEL compareCHAR(const void *current, const void *candidate)
 355:lp_solve_5.5/shared/commonlib.c **** {
 2616               		.loc 1 355 0
 2617               		.cfi_startproc
 2618 0ff6 CF93      		push r28
 2619               	.LCFI61:
 2620               		.cfi_def_cfa_offset 3
 2621               		.cfi_offset 28, -2
 2622 0ff8 DF93      		push r29
 2623               	.LCFI62:
 2624               		.cfi_def_cfa_offset 4
 2625               		.cfi_offset 29, -3
 2626 0ffa 00D0      		rcall .
 2627 0ffc 00D0      		rcall .
 2628               	.LCFI63:
 2629               		.cfi_def_cfa_offset 8
 2630 0ffe CDB7      		in r28,__SP_L__
 2631 1000 DEB7      		in r29,__SP_H__
 2632               	.LCFI64:
 2633               		.cfi_def_cfa_register 28
 2634               	/* prologue: function */
 2635               	/* frame size = 4 */
 2636               	/* stack size = 6 */
 2637               	.L__stack_usage = 6
 2638 1002 9A83      		std Y+2,r25
 2639 1004 8983      		std Y+1,r24
 2640 1006 7C83      		std Y+4,r23
 2641 1008 6B83      		std Y+3,r22
 356:lp_solve_5.5/shared/commonlib.c ****   return( CMP_COMPARE( *(char *) current, *(char *) candidate ) );
 2642               		.loc 1 356 0
 2643 100a 8981      		ldd r24,Y+1
 2644 100c 9A81      		ldd r25,Y+2
 2645 100e FC01      		movw r30,r24
 2646 1010 2081      		ld r18,Z
 2647 1012 8B81      		ldd r24,Y+3
 2648 1014 9C81      		ldd r25,Y+4
 2649 1016 FC01      		movw r30,r24
 2650 1018 8081      		ld r24,Z
 2651 101a 2817      		cp r18,r24
 2652 101c 00F0      		brlo .L93
 2653               		.loc 1 356 0 is_stmt 0 discriminator 1
 2654 101e 8981      		ldd r24,Y+1
 2655 1020 9A81      		ldd r25,Y+2
 2656 1022 FC01      		movw r30,r24
 2657 1024 2081      		ld r18,Z
 2658 1026 8B81      		ldd r24,Y+3
 2659 1028 9C81      		ldd r25,Y+4
 2660 102a FC01      		movw r30,r24
 2661 102c 9081      		ld r25,Z
 2662 102e 81E0      		ldi r24,lo8(1)
 2663 1030 9217      		cp r25,r18
 2664 1032 00F0      		brlo .L94
 2665 1034 80E0      		ldi r24,0
 2666               	.L94:
 2667 1036 882F      		mov r24,r24
 2668 1038 90E0      		ldi r25,0
 2669 103a 00C0      		rjmp .L96
 2670               	.L93:
 2671               		.loc 1 356 0 discriminator 2
 2672 103c 8FEF      		ldi r24,lo8(-1)
 2673 103e 9FEF      		ldi r25,lo8(-1)
 2674               	.L96:
 2675               	/* epilogue start */
 357:lp_solve_5.5/shared/commonlib.c **** }
 2676               		.loc 1 357 0 is_stmt 1 discriminator 5
 2677 1040 0F90      		pop __tmp_reg__
 2678 1042 0F90      		pop __tmp_reg__
 2679 1044 0F90      		pop __tmp_reg__
 2680 1046 0F90      		pop __tmp_reg__
 2681 1048 DF91      		pop r29
 2682 104a CF91      		pop r28
 2683 104c 0895      		ret
 2684               		.cfi_endproc
 2685               	.LFE17:
 2687               	.global	compareINT
 2689               	compareINT:
 2690               	.LFB18:
 358:lp_solve_5.5/shared/commonlib.c **** int CMP_CALLMODEL compareINT(const void *current, const void *candidate)
 359:lp_solve_5.5/shared/commonlib.c **** {
 2691               		.loc 1 359 0
 2692               		.cfi_startproc
 2693 104e CF93      		push r28
 2694               	.LCFI65:
 2695               		.cfi_def_cfa_offset 3
 2696               		.cfi_offset 28, -2
 2697 1050 DF93      		push r29
 2698               	.LCFI66:
 2699               		.cfi_def_cfa_offset 4
 2700               		.cfi_offset 29, -3
 2701 1052 00D0      		rcall .
 2702 1054 00D0      		rcall .
 2703               	.LCFI67:
 2704               		.cfi_def_cfa_offset 8
 2705 1056 CDB7      		in r28,__SP_L__
 2706 1058 DEB7      		in r29,__SP_H__
 2707               	.LCFI68:
 2708               		.cfi_def_cfa_register 28
 2709               	/* prologue: function */
 2710               	/* frame size = 4 */
 2711               	/* stack size = 6 */
 2712               	.L__stack_usage = 6
 2713 105a 9A83      		std Y+2,r25
 2714 105c 8983      		std Y+1,r24
 2715 105e 7C83      		std Y+4,r23
 2716 1060 6B83      		std Y+3,r22
 360:lp_solve_5.5/shared/commonlib.c ****   return( CMP_COMPARE( *(int *) current, *(int *) candidate ) );
 2717               		.loc 1 360 0
 2718 1062 8981      		ldd r24,Y+1
 2719 1064 9A81      		ldd r25,Y+2
 2720 1066 FC01      		movw r30,r24
 2721 1068 2081      		ld r18,Z
 2722 106a 3181      		ldd r19,Z+1
 2723 106c 8B81      		ldd r24,Y+3
 2724 106e 9C81      		ldd r25,Y+4
 2725 1070 FC01      		movw r30,r24
 2726 1072 8081      		ld r24,Z
 2727 1074 9181      		ldd r25,Z+1
 2728 1076 2817      		cp r18,r24
 2729 1078 3907      		cpc r19,r25
 2730 107a 04F0      		brlt .L98
 2731               		.loc 1 360 0 is_stmt 0 discriminator 1
 2732 107c 8981      		ldd r24,Y+1
 2733 107e 9A81      		ldd r25,Y+2
 2734 1080 FC01      		movw r30,r24
 2735 1082 2081      		ld r18,Z
 2736 1084 3181      		ldd r19,Z+1
 2737 1086 8B81      		ldd r24,Y+3
 2738 1088 9C81      		ldd r25,Y+4
 2739 108a FC01      		movw r30,r24
 2740 108c 8081      		ld r24,Z
 2741 108e 9181      		ldd r25,Z+1
 2742 1090 41E0      		ldi r20,lo8(1)
 2743 1092 8217      		cp r24,r18
 2744 1094 9307      		cpc r25,r19
 2745 1096 04F0      		brlt .L99
 2746 1098 40E0      		ldi r20,0
 2747               	.L99:
 2748 109a 842F      		mov r24,r20
 2749 109c 90E0      		ldi r25,0
 2750 109e 00C0      		rjmp .L101
 2751               	.L98:
 2752               		.loc 1 360 0 discriminator 2
 2753 10a0 8FEF      		ldi r24,lo8(-1)
 2754 10a2 9FEF      		ldi r25,lo8(-1)
 2755               	.L101:
 2756               	/* epilogue start */
 361:lp_solve_5.5/shared/commonlib.c **** }
 2757               		.loc 1 361 0 is_stmt 1 discriminator 5
 2758 10a4 0F90      		pop __tmp_reg__
 2759 10a6 0F90      		pop __tmp_reg__
 2760 10a8 0F90      		pop __tmp_reg__
 2761 10aa 0F90      		pop __tmp_reg__
 2762 10ac DF91      		pop r29
 2763 10ae CF91      		pop r28
 2764 10b0 0895      		ret
 2765               		.cfi_endproc
 2766               	.LFE18:
 2768               	.global	__ltsf2
 2769               	.global	__gtsf2
 2770               	.global	compareREAL
 2772               	compareREAL:
 2773               	.LFB19:
 362:lp_solve_5.5/shared/commonlib.c **** int CMP_CALLMODEL compareREAL(const void *current, const void *candidate)
 363:lp_solve_5.5/shared/commonlib.c **** {
 2774               		.loc 1 363 0
 2775               		.cfi_startproc
 2776 10b2 1F93      		push r17
 2777               	.LCFI69:
 2778               		.cfi_def_cfa_offset 3
 2779               		.cfi_offset 17, -2
 2780 10b4 CF93      		push r28
 2781               	.LCFI70:
 2782               		.cfi_def_cfa_offset 4
 2783               		.cfi_offset 28, -3
 2784 10b6 DF93      		push r29
 2785               	.LCFI71:
 2786               		.cfi_def_cfa_offset 5
 2787               		.cfi_offset 29, -4
 2788 10b8 00D0      		rcall .
 2789 10ba 00D0      		rcall .
 2790               	.LCFI72:
 2791               		.cfi_def_cfa_offset 9
 2792 10bc CDB7      		in r28,__SP_L__
 2793 10be DEB7      		in r29,__SP_H__
 2794               	.LCFI73:
 2795               		.cfi_def_cfa_register 28
 2796               	/* prologue: function */
 2797               	/* frame size = 4 */
 2798               	/* stack size = 7 */
 2799               	.L__stack_usage = 7
 2800 10c0 9A83      		std Y+2,r25
 2801 10c2 8983      		std Y+1,r24
 2802 10c4 7C83      		std Y+4,r23
 2803 10c6 6B83      		std Y+3,r22
 364:lp_solve_5.5/shared/commonlib.c ****   return( CMP_COMPARE( *(REAL *) current, *(REAL *) candidate ) );
 2804               		.loc 1 364 0
 2805 10c8 8981      		ldd r24,Y+1
 2806 10ca 9A81      		ldd r25,Y+2
 2807 10cc FC01      		movw r30,r24
 2808 10ce 8081      		ld r24,Z
 2809 10d0 9181      		ldd r25,Z+1
 2810 10d2 A281      		ldd r26,Z+2
 2811 10d4 B381      		ldd r27,Z+3
 2812 10d6 2B81      		ldd r18,Y+3
 2813 10d8 3C81      		ldd r19,Y+4
 2814 10da F901      		movw r30,r18
 2815 10dc 2081      		ld r18,Z
 2816 10de 3181      		ldd r19,Z+1
 2817 10e0 4281      		ldd r20,Z+2
 2818 10e2 5381      		ldd r21,Z+3
 2819 10e4 BC01      		movw r22,r24
 2820 10e6 CD01      		movw r24,r26
 2821 10e8 0E94 0000 		call __ltsf2
 2822 10ec 8823      		tst r24
 2823 10ee 04F4      		brge .L109
 2824               		.loc 1 364 0 is_stmt 0 discriminator 1
 2825 10f0 8FEF      		ldi r24,lo8(-1)
 2826 10f2 9FEF      		ldi r25,lo8(-1)
 2827 10f4 00C0      		rjmp .L107
 2828               	.L109:
 2829               		.loc 1 364 0 discriminator 2
 2830 10f6 8981      		ldd r24,Y+1
 2831 10f8 9A81      		ldd r25,Y+2
 2832 10fa FC01      		movw r30,r24
 2833 10fc 8081      		ld r24,Z
 2834 10fe 9181      		ldd r25,Z+1
 2835 1100 A281      		ldd r26,Z+2
 2836 1102 B381      		ldd r27,Z+3
 2837 1104 2B81      		ldd r18,Y+3
 2838 1106 3C81      		ldd r19,Y+4
 2839 1108 F901      		movw r30,r18
 2840 110a 2081      		ld r18,Z
 2841 110c 3181      		ldd r19,Z+1
 2842 110e 4281      		ldd r20,Z+2
 2843 1110 5381      		ldd r21,Z+3
 2844 1112 11E0      		ldi r17,lo8(1)
 2845 1114 BC01      		movw r22,r24
 2846 1116 CD01      		movw r24,r26
 2847 1118 0E94 0000 		call __gtsf2
 2848 111c 1816      		cp __zero_reg__,r24
 2849 111e 04F0      		brlt .L106
 2850 1120 10E0      		ldi r17,0
 2851               	.L106:
 2852 1122 812F      		mov r24,r17
 2853 1124 90E0      		ldi r25,0
 2854               	.L107:
 2855               	/* epilogue start */
 365:lp_solve_5.5/shared/commonlib.c **** }
 2856               		.loc 1 365 0 is_stmt 1 discriminator 5
 2857 1126 0F90      		pop __tmp_reg__
 2858 1128 0F90      		pop __tmp_reg__
 2859 112a 0F90      		pop __tmp_reg__
 2860 112c 0F90      		pop __tmp_reg__
 2861 112e DF91      		pop r29
 2862 1130 CF91      		pop r28
 2863 1132 1F91      		pop r17
 2864 1134 0895      		ret
 2865               		.cfi_endproc
 2866               	.LFE19:
 2868               	.global	hpsort
 2870               	hpsort:
 2871               	.LFB20:
 366:lp_solve_5.5/shared/commonlib.c **** 
 367:lp_solve_5.5/shared/commonlib.c **** /* Heap sort function (procedurally based on the Numerical Recipes version,
 368:lp_solve_5.5/shared/commonlib.c ****    but expanded and generalized to hande any object with the use of
 369:lp_solve_5.5/shared/commonlib.c ****    qsort-style comparison operator).  An expanded version is also implemented,
 370:lp_solve_5.5/shared/commonlib.c ****    where interchanges are reflected in a caller-initialized integer "tags" list. */
 371:lp_solve_5.5/shared/commonlib.c **** void hpsort(void *attributes, int count, int offset, int recsize, MYBOOL descending, findCompare_fu
 372:lp_solve_5.5/shared/commonlib.c **** {
 2872               		.loc 1 372 0
 2873               		.cfi_startproc
 2874 1136 4F92      		push r4
 2875               	.LCFI74:
 2876               		.cfi_def_cfa_offset 3
 2877               		.cfi_offset 4, -2
 2878 1138 5F92      		push r5
 2879               	.LCFI75:
 2880               		.cfi_def_cfa_offset 4
 2881               		.cfi_offset 5, -3
 2882 113a 6F92      		push r6
 2883               	.LCFI76:
 2884               		.cfi_def_cfa_offset 5
 2885               		.cfi_offset 6, -4
 2886 113c 7F92      		push r7
 2887               	.LCFI77:
 2888               		.cfi_def_cfa_offset 6
 2889               		.cfi_offset 7, -5
 2890 113e 8F92      		push r8
 2891               	.LCFI78:
 2892               		.cfi_def_cfa_offset 7
 2893               		.cfi_offset 8, -6
 2894 1140 9F92      		push r9
 2895               	.LCFI79:
 2896               		.cfi_def_cfa_offset 8
 2897               		.cfi_offset 9, -7
 2898 1142 AF92      		push r10
 2899               	.LCFI80:
 2900               		.cfi_def_cfa_offset 9
 2901               		.cfi_offset 10, -8
 2902 1144 BF92      		push r11
 2903               	.LCFI81:
 2904               		.cfi_def_cfa_offset 10
 2905               		.cfi_offset 11, -9
 2906 1146 CF92      		push r12
 2907               	.LCFI82:
 2908               		.cfi_def_cfa_offset 11
 2909               		.cfi_offset 12, -10
 2910 1148 DF92      		push r13
 2911               	.LCFI83:
 2912               		.cfi_def_cfa_offset 12
 2913               		.cfi_offset 13, -11
 2914 114a EF92      		push r14
 2915               	.LCFI84:
 2916               		.cfi_def_cfa_offset 13
 2917               		.cfi_offset 14, -12
 2918 114c FF92      		push r15
 2919               	.LCFI85:
 2920               		.cfi_def_cfa_offset 14
 2921               		.cfi_offset 15, -13
 2922 114e 0F93      		push r16
 2923               	.LCFI86:
 2924               		.cfi_def_cfa_offset 15
 2925               		.cfi_offset 16, -14
 2926 1150 1F93      		push r17
 2927               	.LCFI87:
 2928               		.cfi_def_cfa_offset 16
 2929               		.cfi_offset 17, -15
 2930 1152 CF93      		push r28
 2931               	.LCFI88:
 2932               		.cfi_def_cfa_offset 17
 2933               		.cfi_offset 28, -16
 2934 1154 DF93      		push r29
 2935               	.LCFI89:
 2936               		.cfi_def_cfa_offset 18
 2937               		.cfi_offset 29, -17
 2938 1156 CDB7      		in r28,__SP_L__
 2939 1158 DEB7      		in r29,__SP_H__
 2940               	.LCFI90:
 2941               		.cfi_def_cfa_register 28
 2942 115a 2D97      		sbiw r28,13
 2943               	.LCFI91:
 2944               		.cfi_def_cfa_offset 31
 2945 115c 0FB6      		in __tmp_reg__,__SREG__
 2946 115e F894      		cli
 2947 1160 DEBF      		out __SP_H__,r29
 2948 1162 0FBE      		out __SREG__,__tmp_reg__
 2949 1164 CDBF      		out __SP_L__,r28
 2950               	/* prologue: function */
 2951               	/* frame size = 13 */
 2952               	/* stack size = 29 */
 2953               	.L__stack_usage = 29
 2954 1166 9C83      		std Y+4,r25
 2955 1168 8B83      		std Y+3,r24
 2956 116a 7E83      		std Y+6,r23
 2957 116c 6D83      		std Y+5,r22
 2958 116e 5887      		std Y+8,r21
 2959 1170 4F83      		std Y+7,r20
 2960 1172 3A87      		std Y+10,r19
 2961 1174 2987      		std Y+9,r18
 2962 1176 0B87      		std Y+11,r16
 2963 1178 FD86      		std Y+13,r15
 2964 117a EC86      		std Y+12,r14
 373:lp_solve_5.5/shared/commonlib.c ****   register int  i, j, k, ir, order;
 374:lp_solve_5.5/shared/commonlib.c ****   register char *hold, *base;
 375:lp_solve_5.5/shared/commonlib.c ****   char          *save;
 376:lp_solve_5.5/shared/commonlib.c **** 
 377:lp_solve_5.5/shared/commonlib.c ****   if(count < 2)
 2965               		.loc 1 377 0
 2966 117c 8D81      		ldd r24,Y+5
 2967 117e 9E81      		ldd r25,Y+6
 2968 1180 0297      		sbiw r24,2
 2969 1182 04F4      		brge .+2
 2970 1184 00C0      		rjmp .L125
 378:lp_solve_5.5/shared/commonlib.c ****     return;
 379:lp_solve_5.5/shared/commonlib.c ****   offset -= 1;
 2971               		.loc 1 379 0
 2972 1186 8F81      		ldd r24,Y+7
 2973 1188 9885      		ldd r25,Y+8
 2974 118a 0197      		sbiw r24,1
 2975 118c 9887      		std Y+8,r25
 2976 118e 8F83      		std Y+7,r24
 380:lp_solve_5.5/shared/commonlib.c ****   attributes = CMP_ATTRIBUTES(offset);
 2977               		.loc 1 380 0
 2978 1190 2F81      		ldd r18,Y+7
 2979 1192 3885      		ldd r19,Y+8
 2980 1194 8985      		ldd r24,Y+9
 2981 1196 9A85      		ldd r25,Y+10
 2982 1198 289F      		mul r18,r24
 2983 119a A001      		movw r20,r0
 2984 119c 299F      		mul r18,r25
 2985 119e 500D      		add r21,r0
 2986 11a0 389F      		mul r19,r24
 2987 11a2 500D      		add r21,r0
 2988 11a4 1124      		clr r1
 2989 11a6 9A01      		movw r18,r20
 2990 11a8 8B81      		ldd r24,Y+3
 2991 11aa 9C81      		ldd r25,Y+4
 2992 11ac 820F      		add r24,r18
 2993 11ae 931F      		adc r25,r19
 2994 11b0 9C83      		std Y+4,r25
 2995 11b2 8B83      		std Y+3,r24
 381:lp_solve_5.5/shared/commonlib.c ****   base = CMP_ATTRIBUTES(1);
 2996               		.loc 1 381 0
 2997 11b4 8985      		ldd r24,Y+9
 2998 11b6 9A85      		ldd r25,Y+10
 2999 11b8 2B81      		ldd r18,Y+3
 3000 11ba 3C81      		ldd r19,Y+4
 3001 11bc 2901      		movw r4,r18
 3002 11be 480E      		add r4,r24
 3003 11c0 591E      		adc r5,r25
 382:lp_solve_5.5/shared/commonlib.c ****   save = (char *) malloc(recsize);
 3004               		.loc 1 382 0
 3005 11c2 8985      		ldd r24,Y+9
 3006 11c4 9A85      		ldd r25,Y+10
 3007 11c6 0E94 0000 		call malloc
 3008 11ca 9A83      		std Y+2,r25
 3009 11cc 8983      		std Y+1,r24
 383:lp_solve_5.5/shared/commonlib.c ****   if(descending)
 3010               		.loc 1 383 0
 3011 11ce 8B85      		ldd r24,Y+11
 3012 11d0 8823      		tst r24
 3013 11d2 01F0      		breq .L113
 384:lp_solve_5.5/shared/commonlib.c ****     order = -1;
 3014               		.loc 1 384 0
 3015 11d4 8824      		clr r8
 3016 11d6 8A94      		dec r8
 3017 11d8 982C      		mov r9,r8
 3018 11da 00C0      		rjmp .L114
 3019               	.L113:
 385:lp_solve_5.5/shared/commonlib.c ****   else
 386:lp_solve_5.5/shared/commonlib.c ****     order = 1;
 3020               		.loc 1 386 0
 3021 11dc 8824      		clr r8
 3022 11de 8394      		inc r8
 3023 11e0 912C      		mov r9,__zero_reg__
 3024               	.L114:
 387:lp_solve_5.5/shared/commonlib.c **** 
 388:lp_solve_5.5/shared/commonlib.c ****   k = (count >> 1) + 1;
 3025               		.loc 1 388 0
 3026 11e2 8D81      		ldd r24,Y+5
 3027 11e4 9E81      		ldd r25,Y+6
 3028 11e6 9595      		asr r25
 3029 11e8 8795      		ror r24
 3030 11ea 5C01      		movw r10,r24
 3031 11ec 2FEF      		ldi r18,-1
 3032 11ee A21A      		sub r10,r18
 3033 11f0 B20A      		sbc r11,r18
 389:lp_solve_5.5/shared/commonlib.c ****   ir = count;
 3034               		.loc 1 389 0
 3035 11f2 ED80      		ldd r14,Y+5
 3036 11f4 FE80      		ldd r15,Y+6
 3037               	.L123:
 390:lp_solve_5.5/shared/commonlib.c **** 
 391:lp_solve_5.5/shared/commonlib.c ****   for(;;) {
 392:lp_solve_5.5/shared/commonlib.c ****     if(k > 1) {
 3038               		.loc 1 392 0
 3039 11f6 82E0      		ldi r24,2
 3040 11f8 A816      		cp r10,r24
 3041 11fa B104      		cpc r11,__zero_reg__
 3042 11fc 04F0      		brlt .L115
 393:lp_solve_5.5/shared/commonlib.c ****       MEMCOPY(save, CMP_ATTRIBUTES(--k), recsize);
 3043               		.loc 1 393 0
 3044 11fe 4985      		ldd r20,Y+9
 3045 1200 5A85      		ldd r21,Y+10
 3046 1202 E1E0      		ldi r30,1
 3047 1204 AE1A      		sub r10,r30
 3048 1206 B108      		sbc r11,__zero_reg__
 3049 1208 8985      		ldd r24,Y+9
 3050 120a 9A85      		ldd r25,Y+10
 3051 120c A89E      		mul r10,r24
 3052 120e 9001      		movw r18,r0
 3053 1210 A99E      		mul r10,r25
 3054 1212 300D      		add r19,r0
 3055 1214 B89E      		mul r11,r24
 3056 1216 300D      		add r19,r0
 3057 1218 1124      		clr r1
 3058 121a 8B81      		ldd r24,Y+3
 3059 121c 9C81      		ldd r25,Y+4
 3060 121e 280F      		add r18,r24
 3061 1220 391F      		adc r19,r25
 3062 1222 8981      		ldd r24,Y+1
 3063 1224 9A81      		ldd r25,Y+2
 3064 1226 B901      		movw r22,r18
 3065 1228 0E94 0000 		call memcpy
 3066 122c 00C0      		rjmp .L116
 3067               	.L115:
 394:lp_solve_5.5/shared/commonlib.c ****     }
 395:lp_solve_5.5/shared/commonlib.c ****     else {
 396:lp_solve_5.5/shared/commonlib.c ****       hold = CMP_ATTRIBUTES(ir);
 3068               		.loc 1 396 0
 3069 122e 8985      		ldd r24,Y+9
 3070 1230 9A85      		ldd r25,Y+10
 3071 1232 E89E      		mul r14,r24
 3072 1234 9001      		movw r18,r0
 3073 1236 E99E      		mul r14,r25
 3074 1238 300D      		add r19,r0
 3075 123a F89E      		mul r15,r24
 3076 123c 300D      		add r19,r0
 3077 123e 1124      		clr r1
 3078 1240 8B81      		ldd r24,Y+3
 3079 1242 9C81      		ldd r25,Y+4
 3080 1244 6C01      		movw r12,r24
 3081 1246 C20E      		add r12,r18
 3082 1248 D31E      		adc r13,r19
 397:lp_solve_5.5/shared/commonlib.c ****       MEMCOPY(save, hold, recsize);
 3083               		.loc 1 397 0
 3084 124a 2985      		ldd r18,Y+9
 3085 124c 3A85      		ldd r19,Y+10
 3086 124e 8981      		ldd r24,Y+1
 3087 1250 9A81      		ldd r25,Y+2
 3088 1252 A901      		movw r20,r18
 3089 1254 B601      		movw r22,r12
 3090 1256 0E94 0000 		call memcpy
 398:lp_solve_5.5/shared/commonlib.c ****       MEMCOPY(hold, base, recsize);
 3091               		.loc 1 398 0
 3092 125a 8985      		ldd r24,Y+9
 3093 125c 9A85      		ldd r25,Y+10
 3094 125e AC01      		movw r20,r24
 3095 1260 B201      		movw r22,r4
 3096 1262 C601      		movw r24,r12
 3097 1264 0E94 0000 		call memcpy
 399:lp_solve_5.5/shared/commonlib.c ****       if(--ir == 1) {
 3098               		.loc 1 399 0
 3099 1268 F1E0      		ldi r31,1
 3100 126a EF1A      		sub r14,r31
 3101 126c F108      		sbc r15,__zero_reg__
 3102 126e 21E0      		ldi r18,1
 3103 1270 E216      		cp r14,r18
 3104 1272 F104      		cpc r15,__zero_reg__
 3105 1274 01F4      		brne .L116
 400:lp_solve_5.5/shared/commonlib.c ****         MEMCOPY(base, save, recsize);
 3106               		.loc 1 400 0
 3107 1276 2985      		ldd r18,Y+9
 3108 1278 3A85      		ldd r19,Y+10
 3109 127a 8981      		ldd r24,Y+1
 3110 127c 9A81      		ldd r25,Y+2
 3111 127e A901      		movw r20,r18
 3112 1280 BC01      		movw r22,r24
 3113 1282 C201      		movw r24,r4
 3114 1284 0E94 0000 		call memcpy
 401:lp_solve_5.5/shared/commonlib.c ****         break;
 3115               		.loc 1 401 0
 3116 1288 0000      		nop
 402:lp_solve_5.5/shared/commonlib.c ****       }
 403:lp_solve_5.5/shared/commonlib.c ****     }
 404:lp_solve_5.5/shared/commonlib.c **** 
 405:lp_solve_5.5/shared/commonlib.c ****     i = k;
 406:lp_solve_5.5/shared/commonlib.c ****     j = k << 1;
 407:lp_solve_5.5/shared/commonlib.c ****     while(j <= ir) {
 408:lp_solve_5.5/shared/commonlib.c ****       hold = CMP_ATTRIBUTES(j);
 409:lp_solve_5.5/shared/commonlib.c ****       if( (j < ir) && (findCompare(hold, CMP_ATTRIBUTES(j+1))*order < 0) ) {
 410:lp_solve_5.5/shared/commonlib.c ****         hold += recsize;
 411:lp_solve_5.5/shared/commonlib.c ****         j++;
 412:lp_solve_5.5/shared/commonlib.c ****       }
 413:lp_solve_5.5/shared/commonlib.c ****       if(findCompare(save, hold)*order < 0) {
 414:lp_solve_5.5/shared/commonlib.c ****         MEMCOPY(CMP_ATTRIBUTES(i), hold, recsize);
 415:lp_solve_5.5/shared/commonlib.c ****         i = j;
 416:lp_solve_5.5/shared/commonlib.c ****         j <<= 1;
 417:lp_solve_5.5/shared/commonlib.c **** 	    }
 418:lp_solve_5.5/shared/commonlib.c ****       else
 419:lp_solve_5.5/shared/commonlib.c ****         break;
 420:lp_solve_5.5/shared/commonlib.c ****     }
 421:lp_solve_5.5/shared/commonlib.c ****     MEMCOPY(CMP_ATTRIBUTES(i), save, recsize);
 422:lp_solve_5.5/shared/commonlib.c ****   }
 423:lp_solve_5.5/shared/commonlib.c **** 
 424:lp_solve_5.5/shared/commonlib.c ****   FREE(save);
 3117               		.loc 1 424 0
 3118 128a 8981      		ldd r24,Y+1
 3119 128c 9A81      		ldd r25,Y+2
 3120 128e 892B      		or r24,r25
 3121 1290 01F4      		brne .+2
 3122 1292 00C0      		rjmp .L110
 3123 1294 00C0      		rjmp .L124
 3124               	.L116:
 405:lp_solve_5.5/shared/commonlib.c ****     j = k << 1;
 3125               		.loc 1 405 0
 3126 1296 3501      		movw r6,r10
 406:lp_solve_5.5/shared/commonlib.c ****     while(j <= ir) {
 3127               		.loc 1 406 0
 3128 1298 8501      		movw r16,r10
 3129 129a 000F      		lsl r16
 3130 129c 111F      		rol r17
 407:lp_solve_5.5/shared/commonlib.c ****       hold = CMP_ATTRIBUTES(j);
 3131               		.loc 1 407 0
 3132 129e 00C0      		rjmp .L118
 3133               	.L122:
 408:lp_solve_5.5/shared/commonlib.c ****       if( (j < ir) && (findCompare(hold, CMP_ATTRIBUTES(j+1))*order < 0) ) {
 3134               		.loc 1 408 0
 3135 12a0 8985      		ldd r24,Y+9
 3136 12a2 9A85      		ldd r25,Y+10
 3137 12a4 089F      		mul r16,r24
 3138 12a6 9001      		movw r18,r0
 3139 12a8 099F      		mul r16,r25
 3140 12aa 300D      		add r19,r0
 3141 12ac 189F      		mul r17,r24
 3142 12ae 300D      		add r19,r0
 3143 12b0 1124      		clr r1
 3144 12b2 8B81      		ldd r24,Y+3
 3145 12b4 9C81      		ldd r25,Y+4
 3146 12b6 6C01      		movw r12,r24
 3147 12b8 C20E      		add r12,r18
 3148 12ba D31E      		adc r13,r19
 409:lp_solve_5.5/shared/commonlib.c ****         hold += recsize;
 3149               		.loc 1 409 0
 3150 12bc 0E15      		cp r16,r14
 3151 12be 1F05      		cpc r17,r15
 3152 12c0 04F4      		brge .L119
 409:lp_solve_5.5/shared/commonlib.c ****         hold += recsize;
 3153               		.loc 1 409 0 is_stmt 0 discriminator 1
 3154 12c2 9801      		movw r18,r16
 3155 12c4 2F5F      		subi r18,-1
 3156 12c6 3F4F      		sbci r19,-1
 3157 12c8 8985      		ldd r24,Y+9
 3158 12ca 9A85      		ldd r25,Y+10
 3159 12cc 289F      		mul r18,r24
 3160 12ce A001      		movw r20,r0
 3161 12d0 299F      		mul r18,r25
 3162 12d2 500D      		add r21,r0
 3163 12d4 389F      		mul r19,r24
 3164 12d6 500D      		add r21,r0
 3165 12d8 1124      		clr r1
 3166 12da 9A01      		movw r18,r20
 3167 12dc 8B81      		ldd r24,Y+3
 3168 12de 9C81      		ldd r25,Y+4
 3169 12e0 820F      		add r24,r18
 3170 12e2 931F      		adc r25,r19
 3171 12e4 2C85      		ldd r18,Y+12
 3172 12e6 3D85      		ldd r19,Y+13
 3173 12e8 BC01      		movw r22,r24
 3174 12ea C601      		movw r24,r12
 3175 12ec F901      		movw r30,r18
 3176 12ee 0995      		icall
 3177 12f0 9C01      		movw r18,r24
 3178 12f2 289D      		mul r18,r8
 3179 12f4 C001      		movw r24,r0
 3180 12f6 299D      		mul r18,r9
 3181 12f8 900D      		add r25,r0
 3182 12fa 389D      		mul r19,r8
 3183 12fc 900D      		add r25,r0
 3184 12fe 1124      		clr r1
 3185 1300 9923      		tst r25
 3186 1302 04F4      		brge .L119
 410:lp_solve_5.5/shared/commonlib.c ****         j++;
 3187               		.loc 1 410 0 is_stmt 1
 3188 1304 8985      		ldd r24,Y+9
 3189 1306 9A85      		ldd r25,Y+10
 3190 1308 C80E      		add r12,r24
 3191 130a D91E      		adc r13,r25
 411:lp_solve_5.5/shared/commonlib.c ****       }
 3192               		.loc 1 411 0
 3193 130c 0F5F      		subi r16,-1
 3194 130e 1F4F      		sbci r17,-1
 3195               	.L119:
 413:lp_solve_5.5/shared/commonlib.c ****         MEMCOPY(CMP_ATTRIBUTES(i), hold, recsize);
 3196               		.loc 1 413 0
 3197 1310 8981      		ldd r24,Y+1
 3198 1312 9A81      		ldd r25,Y+2
 3199 1314 2C85      		ldd r18,Y+12
 3200 1316 3D85      		ldd r19,Y+13
 3201 1318 B601      		movw r22,r12
 3202 131a F901      		movw r30,r18
 3203 131c 0995      		icall
 3204 131e 9C01      		movw r18,r24
 3205 1320 289D      		mul r18,r8
 3206 1322 C001      		movw r24,r0
 3207 1324 299D      		mul r18,r9
 3208 1326 900D      		add r25,r0
 3209 1328 389D      		mul r19,r8
 3210 132a 900D      		add r25,r0
 3211 132c 1124      		clr r1
 3212 132e 9923      		tst r25
 3213 1330 04F4      		brge .L126
 414:lp_solve_5.5/shared/commonlib.c ****         i = j;
 3214               		.loc 1 414 0
 3215 1332 2985      		ldd r18,Y+9
 3216 1334 3A85      		ldd r19,Y+10
 3217 1336 8985      		ldd r24,Y+9
 3218 1338 9A85      		ldd r25,Y+10
 3219 133a 689E      		mul r6,r24
 3220 133c A001      		movw r20,r0
 3221 133e 699E      		mul r6,r25
 3222 1340 500D      		add r21,r0
 3223 1342 789E      		mul r7,r24
 3224 1344 500D      		add r21,r0
 3225 1346 1124      		clr r1
 3226 1348 8B81      		ldd r24,Y+3
 3227 134a 9C81      		ldd r25,Y+4
 3228 134c 840F      		add r24,r20
 3229 134e 951F      		adc r25,r21
 3230 1350 A901      		movw r20,r18
 3231 1352 B601      		movw r22,r12
 3232 1354 0E94 0000 		call memcpy
 415:lp_solve_5.5/shared/commonlib.c ****         j <<= 1;
 3233               		.loc 1 415 0
 3234 1358 3801      		movw r6,r16
 416:lp_solve_5.5/shared/commonlib.c **** 	    }
 3235               		.loc 1 416 0
 3236 135a 000F      		lsl r16
 3237 135c 111F      		rol r17
 3238               	.L118:
 407:lp_solve_5.5/shared/commonlib.c ****       hold = CMP_ATTRIBUTES(j);
 3239               		.loc 1 407 0
 3240 135e E016      		cp r14,r16
 3241 1360 F106      		cpc r15,r17
 3242 1362 04F0      		brlt .+2
 3243 1364 00C0      		rjmp .L122
 3244 1366 00C0      		rjmp .L121
 3245               	.L126:
 419:lp_solve_5.5/shared/commonlib.c ****     }
 3246               		.loc 1 419 0
 3247 1368 0000      		nop
 3248               	.L121:
 421:lp_solve_5.5/shared/commonlib.c ****   }
 3249               		.loc 1 421 0
 3250 136a 4985      		ldd r20,Y+9
 3251 136c 5A85      		ldd r21,Y+10
 3252 136e 8985      		ldd r24,Y+9
 3253 1370 9A85      		ldd r25,Y+10
 3254 1372 689E      		mul r6,r24
 3255 1374 9001      		movw r18,r0
 3256 1376 699E      		mul r6,r25
 3257 1378 300D      		add r19,r0
 3258 137a 789E      		mul r7,r24
 3259 137c 300D      		add r19,r0
 3260 137e 1124      		clr r1
 3261 1380 8B81      		ldd r24,Y+3
 3262 1382 9C81      		ldd r25,Y+4
 3263 1384 820F      		add r24,r18
 3264 1386 931F      		adc r25,r19
 3265 1388 2981      		ldd r18,Y+1
 3266 138a 3A81      		ldd r19,Y+2
 3267 138c B901      		movw r22,r18
 3268 138e 0E94 0000 		call memcpy
 422:lp_solve_5.5/shared/commonlib.c **** 
 3269               		.loc 1 422 0
 3270 1392 00C0      		rjmp .L123
 3271               	.L124:
 3272               		.loc 1 424 0 discriminator 1
 3273 1394 8981      		ldd r24,Y+1
 3274 1396 9A81      		ldd r25,Y+2
 3275 1398 0E94 0000 		call free
 3276 139c 1A82      		std Y+2,__zero_reg__
 3277 139e 1982      		std Y+1,__zero_reg__
 3278 13a0 00C0      		rjmp .L110
 3279               	.L125:
 378:lp_solve_5.5/shared/commonlib.c ****   offset -= 1;
 3280               		.loc 1 378 0
 3281 13a2 0000      		nop
 3282               	.L110:
 3283               	/* epilogue start */
 425:lp_solve_5.5/shared/commonlib.c **** }
 3284               		.loc 1 425 0
 3285 13a4 2D96      		adiw r28,13
 3286 13a6 0FB6      		in __tmp_reg__,__SREG__
 3287 13a8 F894      		cli
 3288 13aa DEBF      		out __SP_H__,r29
 3289 13ac 0FBE      		out __SREG__,__tmp_reg__
 3290 13ae CDBF      		out __SP_L__,r28
 3291 13b0 DF91      		pop r29
 3292 13b2 CF91      		pop r28
 3293 13b4 1F91      		pop r17
 3294 13b6 0F91      		pop r16
 3295 13b8 FF90      		pop r15
 3296 13ba EF90      		pop r14
 3297 13bc DF90      		pop r13
 3298 13be CF90      		pop r12
 3299 13c0 BF90      		pop r11
 3300 13c2 AF90      		pop r10
 3301 13c4 9F90      		pop r9
 3302 13c6 8F90      		pop r8
 3303 13c8 7F90      		pop r7
 3304 13ca 6F90      		pop r6
 3305 13cc 5F90      		pop r5
 3306 13ce 4F90      		pop r4
 3307 13d0 0895      		ret
 3308               		.cfi_endproc
 3309               	.LFE20:
 3311               	.global	hpsortex
 3313               	hpsortex:
 3314               	.LFB21:
 426:lp_solve_5.5/shared/commonlib.c **** void hpsortex(void *attributes, int count, int offset, int recsize, MYBOOL descending, findCompare_
 427:lp_solve_5.5/shared/commonlib.c **** {
 3315               		.loc 1 427 0
 3316               		.cfi_startproc
 3317 13d2 4F92      		push r4
 3318               	.LCFI92:
 3319               		.cfi_def_cfa_offset 3
 3320               		.cfi_offset 4, -2
 3321 13d4 5F92      		push r5
 3322               	.LCFI93:
 3323               		.cfi_def_cfa_offset 4
 3324               		.cfi_offset 5, -3
 3325 13d6 6F92      		push r6
 3326               	.LCFI94:
 3327               		.cfi_def_cfa_offset 5
 3328               		.cfi_offset 6, -4
 3329 13d8 7F92      		push r7
 3330               	.LCFI95:
 3331               		.cfi_def_cfa_offset 6
 3332               		.cfi_offset 7, -5
 3333 13da 8F92      		push r8
 3334               	.LCFI96:
 3335               		.cfi_def_cfa_offset 7
 3336               		.cfi_offset 8, -6
 3337 13dc 9F92      		push r9
 3338               	.LCFI97:
 3339               		.cfi_def_cfa_offset 8
 3340               		.cfi_offset 9, -7
 3341 13de AF92      		push r10
 3342               	.LCFI98:
 3343               		.cfi_def_cfa_offset 9
 3344               		.cfi_offset 10, -8
 3345 13e0 BF92      		push r11
 3346               	.LCFI99:
 3347               		.cfi_def_cfa_offset 10
 3348               		.cfi_offset 11, -9
 3349 13e2 CF92      		push r12
 3350               	.LCFI100:
 3351               		.cfi_def_cfa_offset 11
 3352               		.cfi_offset 12, -10
 3353 13e4 DF92      		push r13
 3354               	.LCFI101:
 3355               		.cfi_def_cfa_offset 12
 3356               		.cfi_offset 13, -11
 3357 13e6 EF92      		push r14
 3358               	.LCFI102:
 3359               		.cfi_def_cfa_offset 13
 3360               		.cfi_offset 14, -12
 3361 13e8 FF92      		push r15
 3362               	.LCFI103:
 3363               		.cfi_def_cfa_offset 14
 3364               		.cfi_offset 15, -13
 3365 13ea 0F93      		push r16
 3366               	.LCFI104:
 3367               		.cfi_def_cfa_offset 15
 3368               		.cfi_offset 16, -14
 3369 13ec 1F93      		push r17
 3370               	.LCFI105:
 3371               		.cfi_def_cfa_offset 16
 3372               		.cfi_offset 17, -15
 3373 13ee CF93      		push r28
 3374               	.LCFI106:
 3375               		.cfi_def_cfa_offset 17
 3376               		.cfi_offset 28, -16
 3377 13f0 DF93      		push r29
 3378               	.LCFI107:
 3379               		.cfi_def_cfa_offset 18
 3380               		.cfi_offset 29, -17
 3381 13f2 CDB7      		in r28,__SP_L__
 3382 13f4 DEB7      		in r29,__SP_H__
 3383               	.LCFI108:
 3384               		.cfi_def_cfa_register 28
 3385 13f6 6197      		sbiw r28,17
 3386               	.LCFI109:
 3387               		.cfi_def_cfa_offset 35
 3388 13f8 0FB6      		in __tmp_reg__,__SREG__
 3389 13fa F894      		cli
 3390 13fc DEBF      		out __SP_H__,r29
 3391 13fe 0FBE      		out __SREG__,__tmp_reg__
 3392 1400 CDBF      		out __SP_L__,r28
 3393               	/* prologue: function */
 3394               	/* frame size = 17 */
 3395               	/* stack size = 33 */
 3396               	.L__stack_usage = 33
 3397 1402 9E83      		std Y+6,r25
 3398 1404 8D83      		std Y+5,r24
 3399 1406 7887      		std Y+8,r23
 3400 1408 6F83      		std Y+7,r22
 3401 140a 5A87      		std Y+10,r21
 3402 140c 4987      		std Y+9,r20
 3403 140e 3C87      		std Y+12,r19
 3404 1410 2B87      		std Y+11,r18
 3405 1412 0D87      		std Y+13,r16
 3406 1414 FF86      		std Y+15,r15
 3407 1416 EE86      		std Y+14,r14
 3408 1418 D98A      		std Y+17,r13
 3409 141a C88A      		std Y+16,r12
 428:lp_solve_5.5/shared/commonlib.c ****   if(count < 2)
 3410               		.loc 1 428 0
 3411 141c 8F81      		ldd r24,Y+7
 3412 141e 9885      		ldd r25,Y+8
 3413 1420 0297      		sbiw r24,2
 3414 1422 04F4      		brge .+2
 3415 1424 00C0      		rjmp .L143
 429:lp_solve_5.5/shared/commonlib.c ****     return;
 430:lp_solve_5.5/shared/commonlib.c ****   if(tags == NULL) {
 3416               		.loc 1 430 0
 3417 1426 8889      		ldd r24,Y+16
 3418 1428 9989      		ldd r25,Y+17
 3419 142a 892B      		or r24,r25
 3420 142c 01F4      		brne .L130
 431:lp_solve_5.5/shared/commonlib.c ****     hpsort(attributes, count, offset, recsize, descending, findCompare);
 3421               		.loc 1 431 0
 3422 142e EE85      		ldd r30,Y+14
 3423 1430 FF85      		ldd r31,Y+15
 3424 1432 2B85      		ldd r18,Y+11
 3425 1434 3C85      		ldd r19,Y+12
 3426 1436 4985      		ldd r20,Y+9
 3427 1438 5A85      		ldd r21,Y+10
 3428 143a 6F81      		ldd r22,Y+7
 3429 143c 7885      		ldd r23,Y+8
 3430 143e 8D81      		ldd r24,Y+5
 3431 1440 9E81      		ldd r25,Y+6
 3432 1442 7F01      		movw r14,r30
 3433 1444 0D85      		ldd r16,Y+13
 3434 1446 0E94 0000 		call hpsort
 432:lp_solve_5.5/shared/commonlib.c ****     return;
 3435               		.loc 1 432 0
 3436 144a 00C0      		rjmp .L127
 3437               	.L130:
 3438               	.LBB3:
 433:lp_solve_5.5/shared/commonlib.c ****   }
 434:lp_solve_5.5/shared/commonlib.c ****   else {
 435:lp_solve_5.5/shared/commonlib.c ****     register int  i, j, k, ir, order;
 436:lp_solve_5.5/shared/commonlib.c ****     register char *hold, *base;
 437:lp_solve_5.5/shared/commonlib.c ****     char          *save;
 438:lp_solve_5.5/shared/commonlib.c ****     int           savetag;
 439:lp_solve_5.5/shared/commonlib.c **** 
 440:lp_solve_5.5/shared/commonlib.c ****     offset -= 1;
 3439               		.loc 1 440 0
 3440 144c 8985      		ldd r24,Y+9
 3441 144e 9A85      		ldd r25,Y+10
 3442 1450 0197      		sbiw r24,1
 3443 1452 9A87      		std Y+10,r25
 3444 1454 8987      		std Y+9,r24
 441:lp_solve_5.5/shared/commonlib.c ****     attributes = CMP_ATTRIBUTES(offset);
 3445               		.loc 1 441 0
 3446 1456 2985      		ldd r18,Y+9
 3447 1458 3A85      		ldd r19,Y+10
 3448 145a 8B85      		ldd r24,Y+11
 3449 145c 9C85      		ldd r25,Y+12
 3450 145e 289F      		mul r18,r24
 3451 1460 A001      		movw r20,r0
 3452 1462 299F      		mul r18,r25
 3453 1464 500D      		add r21,r0
 3454 1466 389F      		mul r19,r24
 3455 1468 500D      		add r21,r0
 3456 146a 1124      		clr r1
 3457 146c 9A01      		movw r18,r20
 3458 146e 8D81      		ldd r24,Y+5
 3459 1470 9E81      		ldd r25,Y+6
 3460 1472 820F      		add r24,r18
 3461 1474 931F      		adc r25,r19
 3462 1476 9E83      		std Y+6,r25
 3463 1478 8D83      		std Y+5,r24
 442:lp_solve_5.5/shared/commonlib.c ****     tags += offset;
 3464               		.loc 1 442 0
 3465 147a 8985      		ldd r24,Y+9
 3466 147c 9A85      		ldd r25,Y+10
 3467 147e 880F      		lsl r24
 3468 1480 991F      		rol r25
 3469 1482 2889      		ldd r18,Y+16
 3470 1484 3989      		ldd r19,Y+17
 3471 1486 820F      		add r24,r18
 3472 1488 931F      		adc r25,r19
 3473 148a 998B      		std Y+17,r25
 3474 148c 888B      		std Y+16,r24
 443:lp_solve_5.5/shared/commonlib.c ****     base = CMP_ATTRIBUTES(1);
 3475               		.loc 1 443 0
 3476 148e 8B85      		ldd r24,Y+11
 3477 1490 9C85      		ldd r25,Y+12
 3478 1492 2D81      		ldd r18,Y+5
 3479 1494 3E81      		ldd r19,Y+6
 3480 1496 2901      		movw r4,r18
 3481 1498 480E      		add r4,r24
 3482 149a 591E      		adc r5,r25
 444:lp_solve_5.5/shared/commonlib.c ****     save = (char *) malloc(recsize);
 3483               		.loc 1 444 0
 3484 149c 8B85      		ldd r24,Y+11
 3485 149e 9C85      		ldd r25,Y+12
 3486 14a0 0E94 0000 		call malloc
 3487 14a4 9C83      		std Y+4,r25
 3488 14a6 8B83      		std Y+3,r24
 445:lp_solve_5.5/shared/commonlib.c ****     if(descending)
 3489               		.loc 1 445 0
 3490 14a8 8D85      		ldd r24,Y+13
 3491 14aa 8823      		tst r24
 3492 14ac 01F0      		breq .L131
 446:lp_solve_5.5/shared/commonlib.c ****       order = -1;
 3493               		.loc 1 446 0
 3494 14ae 8824      		clr r8
 3495 14b0 8A94      		dec r8
 3496 14b2 982C      		mov r9,r8
 3497 14b4 00C0      		rjmp .L132
 3498               	.L131:
 447:lp_solve_5.5/shared/commonlib.c ****     else
 448:lp_solve_5.5/shared/commonlib.c ****       order = 1;
 3499               		.loc 1 448 0
 3500 14b6 8824      		clr r8
 3501 14b8 8394      		inc r8
 3502 14ba 912C      		mov r9,__zero_reg__
 3503               	.L132:
 449:lp_solve_5.5/shared/commonlib.c **** 
 450:lp_solve_5.5/shared/commonlib.c ****     k = (count >> 1) + 1;
 3504               		.loc 1 450 0
 3505 14bc 8F81      		ldd r24,Y+7
 3506 14be 9885      		ldd r25,Y+8
 3507 14c0 9595      		asr r25
 3508 14c2 8795      		ror r24
 3509 14c4 6C01      		movw r12,r24
 3510 14c6 2FEF      		ldi r18,-1
 3511 14c8 C21A      		sub r12,r18
 3512 14ca D20A      		sbc r13,r18
 451:lp_solve_5.5/shared/commonlib.c ****     ir = count;
 3513               		.loc 1 451 0
 3514 14cc EF80      		ldd r14,Y+7
 3515 14ce F884      		ldd r15,Y+8
 3516               	.L141:
 452:lp_solve_5.5/shared/commonlib.c **** 
 453:lp_solve_5.5/shared/commonlib.c ****     for(;;) {
 454:lp_solve_5.5/shared/commonlib.c ****       if(k > 1) {
 3517               		.loc 1 454 0
 3518 14d0 82E0      		ldi r24,2
 3519 14d2 C816      		cp r12,r24
 3520 14d4 D104      		cpc r13,__zero_reg__
 3521 14d6 04F0      		brlt .L133
 455:lp_solve_5.5/shared/commonlib.c ****         MEMCOPY(save, CMP_ATTRIBUTES(--k), recsize);
 3522               		.loc 1 455 0
 3523 14d8 4B85      		ldd r20,Y+11
 3524 14da 5C85      		ldd r21,Y+12
 3525 14dc E1E0      		ldi r30,1
 3526 14de CE1A      		sub r12,r30
 3527 14e0 D108      		sbc r13,__zero_reg__
 3528 14e2 8B85      		ldd r24,Y+11
 3529 14e4 9C85      		ldd r25,Y+12
 3530 14e6 C89E      		mul r12,r24
 3531 14e8 9001      		movw r18,r0
 3532 14ea C99E      		mul r12,r25
 3533 14ec 300D      		add r19,r0
 3534 14ee D89E      		mul r13,r24
 3535 14f0 300D      		add r19,r0
 3536 14f2 1124      		clr r1
 3537 14f4 8D81      		ldd r24,Y+5
 3538 14f6 9E81      		ldd r25,Y+6
 3539 14f8 280F      		add r18,r24
 3540 14fa 391F      		adc r19,r25
 3541 14fc 8B81      		ldd r24,Y+3
 3542 14fe 9C81      		ldd r25,Y+4
 3543 1500 B901      		movw r22,r18
 3544 1502 0E94 0000 		call memcpy
 456:lp_solve_5.5/shared/commonlib.c ****         savetag = tags[k];
 3545               		.loc 1 456 0
 3546 1506 C601      		movw r24,r12
 3547 1508 880F      		lsl r24
 3548 150a 991F      		rol r25
 3549 150c 2889      		ldd r18,Y+16
 3550 150e 3989      		ldd r19,Y+17
 3551 1510 820F      		add r24,r18
 3552 1512 931F      		adc r25,r19
 3553 1514 FC01      		movw r30,r24
 3554 1516 8081      		ld r24,Z
 3555 1518 9181      		ldd r25,Z+1
 3556 151a 9A83      		std Y+2,r25
 3557 151c 8983      		std Y+1,r24
 3558 151e 00C0      		rjmp .L134
 3559               	.L133:
 457:lp_solve_5.5/shared/commonlib.c ****       }
 458:lp_solve_5.5/shared/commonlib.c ****       else {
 459:lp_solve_5.5/shared/commonlib.c ****         hold = CMP_ATTRIBUTES(ir);
 3560               		.loc 1 459 0
 3561 1520 8B85      		ldd r24,Y+11
 3562 1522 9C85      		ldd r25,Y+12
 3563 1524 E89E      		mul r14,r24
 3564 1526 9001      		movw r18,r0
 3565 1528 E99E      		mul r14,r25
 3566 152a 300D      		add r19,r0
 3567 152c F89E      		mul r15,r24
 3568 152e 300D      		add r19,r0
 3569 1530 1124      		clr r1
 3570 1532 8D81      		ldd r24,Y+5
 3571 1534 9E81      		ldd r25,Y+6
 3572 1536 5C01      		movw r10,r24
 3573 1538 A20E      		add r10,r18
 3574 153a B31E      		adc r11,r19
 460:lp_solve_5.5/shared/commonlib.c ****         MEMCOPY(save, hold, recsize);
 3575               		.loc 1 460 0
 3576 153c 2B85      		ldd r18,Y+11
 3577 153e 3C85      		ldd r19,Y+12
 3578 1540 8B81      		ldd r24,Y+3
 3579 1542 9C81      		ldd r25,Y+4
 3580 1544 A901      		movw r20,r18
 3581 1546 B501      		movw r22,r10
 3582 1548 0E94 0000 		call memcpy
 461:lp_solve_5.5/shared/commonlib.c ****         MEMCOPY(hold, base, recsize);
 3583               		.loc 1 461 0
 3584 154c 8B85      		ldd r24,Y+11
 3585 154e 9C85      		ldd r25,Y+12
 3586 1550 AC01      		movw r20,r24
 3587 1552 B201      		movw r22,r4
 3588 1554 C501      		movw r24,r10
 3589 1556 0E94 0000 		call memcpy
 462:lp_solve_5.5/shared/commonlib.c ****         savetag = tags[ir];
 3590               		.loc 1 462 0
 3591 155a C701      		movw r24,r14
 3592 155c 880F      		lsl r24
 3593 155e 991F      		rol r25
 3594 1560 2889      		ldd r18,Y+16
 3595 1562 3989      		ldd r19,Y+17
 3596 1564 820F      		add r24,r18
 3597 1566 931F      		adc r25,r19
 3598 1568 FC01      		movw r30,r24
 3599 156a 8081      		ld r24,Z
 3600 156c 9181      		ldd r25,Z+1
 3601 156e 9A83      		std Y+2,r25
 3602 1570 8983      		std Y+1,r24
 463:lp_solve_5.5/shared/commonlib.c ****         tags[ir] = tags[1];
 3603               		.loc 1 463 0
 3604 1572 C701      		movw r24,r14
 3605 1574 880F      		lsl r24
 3606 1576 991F      		rol r25
 3607 1578 2889      		ldd r18,Y+16
 3608 157a 3989      		ldd r19,Y+17
 3609 157c 820F      		add r24,r18
 3610 157e 931F      		adc r25,r19
 3611 1580 2889      		ldd r18,Y+16
 3612 1582 3989      		ldd r19,Y+17
 3613 1584 F901      		movw r30,r18
 3614 1586 2281      		ldd r18,Z+2
 3615 1588 3381      		ldd r19,Z+3
 3616 158a FC01      		movw r30,r24
 3617 158c 3183      		std Z+1,r19
 3618 158e 2083      		st Z,r18
 464:lp_solve_5.5/shared/commonlib.c ****         if(--ir == 1) {
 3619               		.loc 1 464 0
 3620 1590 F1E0      		ldi r31,1
 3621 1592 EF1A      		sub r14,r31
 3622 1594 F108      		sbc r15,__zero_reg__
 3623 1596 21E0      		ldi r18,1
 3624 1598 E216      		cp r14,r18
 3625 159a F104      		cpc r15,__zero_reg__
 3626 159c 01F4      		brne .L134
 465:lp_solve_5.5/shared/commonlib.c ****           MEMCOPY(base, save, recsize);
 3627               		.loc 1 465 0
 3628 159e 2B85      		ldd r18,Y+11
 3629 15a0 3C85      		ldd r19,Y+12
 3630 15a2 8B81      		ldd r24,Y+3
 3631 15a4 9C81      		ldd r25,Y+4
 3632 15a6 A901      		movw r20,r18
 3633 15a8 BC01      		movw r22,r24
 3634 15aa C201      		movw r24,r4
 3635 15ac 0E94 0000 		call memcpy
 466:lp_solve_5.5/shared/commonlib.c ****           tags[1] = savetag;
 3636               		.loc 1 466 0
 3637 15b0 8889      		ldd r24,Y+16
 3638 15b2 9989      		ldd r25,Y+17
 3639 15b4 0296      		adiw r24,2
 3640 15b6 2981      		ldd r18,Y+1
 3641 15b8 3A81      		ldd r19,Y+2
 3642 15ba FC01      		movw r30,r24
 3643 15bc 3183      		std Z+1,r19
 3644 15be 2083      		st Z,r18
 467:lp_solve_5.5/shared/commonlib.c ****           break;
 3645               		.loc 1 467 0
 3646 15c0 0000      		nop
 468:lp_solve_5.5/shared/commonlib.c ****         }
 469:lp_solve_5.5/shared/commonlib.c ****       }
 470:lp_solve_5.5/shared/commonlib.c **** 
 471:lp_solve_5.5/shared/commonlib.c ****       i = k;
 472:lp_solve_5.5/shared/commonlib.c ****       j = k << 1;
 473:lp_solve_5.5/shared/commonlib.c ****       while(j <= ir) {
 474:lp_solve_5.5/shared/commonlib.c ****         hold = CMP_ATTRIBUTES(j);
 475:lp_solve_5.5/shared/commonlib.c ****         if( (j < ir) && (findCompare(hold, CMP_ATTRIBUTES(j+1))*order < 0) ) {
 476:lp_solve_5.5/shared/commonlib.c ****           hold += recsize;
 477:lp_solve_5.5/shared/commonlib.c ****           j++;
 478:lp_solve_5.5/shared/commonlib.c ****         }
 479:lp_solve_5.5/shared/commonlib.c ****         if(findCompare(save, hold)*order < 0) {
 480:lp_solve_5.5/shared/commonlib.c ****           MEMCOPY(CMP_ATTRIBUTES(i), hold, recsize);
 481:lp_solve_5.5/shared/commonlib.c ****           tags[i] = tags[j];
 482:lp_solve_5.5/shared/commonlib.c ****           i = j;
 483:lp_solve_5.5/shared/commonlib.c ****           j <<= 1;
 484:lp_solve_5.5/shared/commonlib.c ****   	    }
 485:lp_solve_5.5/shared/commonlib.c ****         else
 486:lp_solve_5.5/shared/commonlib.c ****           break;
 487:lp_solve_5.5/shared/commonlib.c ****       }
 488:lp_solve_5.5/shared/commonlib.c ****       MEMCOPY(CMP_ATTRIBUTES(i), save, recsize);
 489:lp_solve_5.5/shared/commonlib.c ****       tags[i] = savetag;
 490:lp_solve_5.5/shared/commonlib.c ****     }
 491:lp_solve_5.5/shared/commonlib.c **** 
 492:lp_solve_5.5/shared/commonlib.c ****     FREE(save);
 3647               		.loc 1 492 0
 3648 15c2 8B81      		ldd r24,Y+3
 3649 15c4 9C81      		ldd r25,Y+4
 3650 15c6 892B      		or r24,r25
 3651 15c8 01F4      		brne .+2
 3652 15ca 00C0      		rjmp .L127
 3653 15cc 00C0      		rjmp .L142
 3654               	.L134:
 471:lp_solve_5.5/shared/commonlib.c ****       j = k << 1;
 3655               		.loc 1 471 0
 3656 15ce 3601      		movw r6,r12
 472:lp_solve_5.5/shared/commonlib.c ****       while(j <= ir) {
 3657               		.loc 1 472 0
 3658 15d0 8601      		movw r16,r12
 3659 15d2 000F      		lsl r16
 3660 15d4 111F      		rol r17
 473:lp_solve_5.5/shared/commonlib.c ****         hold = CMP_ATTRIBUTES(j);
 3661               		.loc 1 473 0
 3662 15d6 00C0      		rjmp .L136
 3663               	.L140:
 474:lp_solve_5.5/shared/commonlib.c ****         if( (j < ir) && (findCompare(hold, CMP_ATTRIBUTES(j+1))*order < 0) ) {
 3664               		.loc 1 474 0
 3665 15d8 8B85      		ldd r24,Y+11
 3666 15da 9C85      		ldd r25,Y+12
 3667 15dc 089F      		mul r16,r24
 3668 15de 9001      		movw r18,r0
 3669 15e0 099F      		mul r16,r25
 3670 15e2 300D      		add r19,r0
 3671 15e4 189F      		mul r17,r24
 3672 15e6 300D      		add r19,r0
 3673 15e8 1124      		clr r1
 3674 15ea 8D81      		ldd r24,Y+5
 3675 15ec 9E81      		ldd r25,Y+6
 3676 15ee 5C01      		movw r10,r24
 3677 15f0 A20E      		add r10,r18
 3678 15f2 B31E      		adc r11,r19
 475:lp_solve_5.5/shared/commonlib.c ****           hold += recsize;
 3679               		.loc 1 475 0
 3680 15f4 0E15      		cp r16,r14
 3681 15f6 1F05      		cpc r17,r15
 3682 15f8 04F4      		brge .L137
 475:lp_solve_5.5/shared/commonlib.c ****           hold += recsize;
 3683               		.loc 1 475 0 is_stmt 0 discriminator 1
 3684 15fa 9801      		movw r18,r16
 3685 15fc 2F5F      		subi r18,-1
 3686 15fe 3F4F      		sbci r19,-1
 3687 1600 8B85      		ldd r24,Y+11
 3688 1602 9C85      		ldd r25,Y+12
 3689 1604 289F      		mul r18,r24
 3690 1606 A001      		movw r20,r0
 3691 1608 299F      		mul r18,r25
 3692 160a 500D      		add r21,r0
 3693 160c 389F      		mul r19,r24
 3694 160e 500D      		add r21,r0
 3695 1610 1124      		clr r1
 3696 1612 9A01      		movw r18,r20
 3697 1614 8D81      		ldd r24,Y+5
 3698 1616 9E81      		ldd r25,Y+6
 3699 1618 820F      		add r24,r18
 3700 161a 931F      		adc r25,r19
 3701 161c 2E85      		ldd r18,Y+14
 3702 161e 3F85      		ldd r19,Y+15
 3703 1620 BC01      		movw r22,r24
 3704 1622 C501      		movw r24,r10
 3705 1624 F901      		movw r30,r18
 3706 1626 0995      		icall
 3707 1628 9C01      		movw r18,r24
 3708 162a 289D      		mul r18,r8
 3709 162c C001      		movw r24,r0
 3710 162e 299D      		mul r18,r9
 3711 1630 900D      		add r25,r0
 3712 1632 389D      		mul r19,r8
 3713 1634 900D      		add r25,r0
 3714 1636 1124      		clr r1
 3715 1638 9923      		tst r25
 3716 163a 04F4      		brge .L137
 476:lp_solve_5.5/shared/commonlib.c ****           j++;
 3717               		.loc 1 476 0 is_stmt 1
 3718 163c 8B85      		ldd r24,Y+11
 3719 163e 9C85      		ldd r25,Y+12
 3720 1640 A80E      		add r10,r24
 3721 1642 B91E      		adc r11,r25
 477:lp_solve_5.5/shared/commonlib.c ****         }
 3722               		.loc 1 477 0
 3723 1644 0F5F      		subi r16,-1
 3724 1646 1F4F      		sbci r17,-1
 3725               	.L137:
 479:lp_solve_5.5/shared/commonlib.c ****           MEMCOPY(CMP_ATTRIBUTES(i), hold, recsize);
 3726               		.loc 1 479 0
 3727 1648 8B81      		ldd r24,Y+3
 3728 164a 9C81      		ldd r25,Y+4
 3729 164c 2E85      		ldd r18,Y+14
 3730 164e 3F85      		ldd r19,Y+15
 3731 1650 B501      		movw r22,r10
 3732 1652 F901      		movw r30,r18
 3733 1654 0995      		icall
 3734 1656 9C01      		movw r18,r24
 3735 1658 289D      		mul r18,r8
 3736 165a C001      		movw r24,r0
 3737 165c 299D      		mul r18,r9
 3738 165e 900D      		add r25,r0
 3739 1660 389D      		mul r19,r8
 3740 1662 900D      		add r25,r0
 3741 1664 1124      		clr r1
 3742 1666 9923      		tst r25
 3743 1668 04F4      		brge .L144
 480:lp_solve_5.5/shared/commonlib.c ****           tags[i] = tags[j];
 3744               		.loc 1 480 0
 3745 166a 2B85      		ldd r18,Y+11
 3746 166c 3C85      		ldd r19,Y+12
 3747 166e 8B85      		ldd r24,Y+11
 3748 1670 9C85      		ldd r25,Y+12
 3749 1672 689E      		mul r6,r24
 3750 1674 A001      		movw r20,r0
 3751 1676 699E      		mul r6,r25
 3752 1678 500D      		add r21,r0
 3753 167a 789E      		mul r7,r24
 3754 167c 500D      		add r21,r0
 3755 167e 1124      		clr r1
 3756 1680 8D81      		ldd r24,Y+5
 3757 1682 9E81      		ldd r25,Y+6
 3758 1684 840F      		add r24,r20
 3759 1686 951F      		adc r25,r21
 3760 1688 A901      		movw r20,r18
 3761 168a B501      		movw r22,r10
 3762 168c 0E94 0000 		call memcpy
 481:lp_solve_5.5/shared/commonlib.c ****           i = j;
 3763               		.loc 1 481 0
 3764 1690 C301      		movw r24,r6
 3765 1692 880F      		lsl r24
 3766 1694 991F      		rol r25
 3767 1696 2889      		ldd r18,Y+16
 3768 1698 3989      		ldd r19,Y+17
 3769 169a 820F      		add r24,r18
 3770 169c 931F      		adc r25,r19
 3771 169e 9801      		movw r18,r16
 3772 16a0 220F      		lsl r18
 3773 16a2 331F      		rol r19
 3774 16a4 4889      		ldd r20,Y+16
 3775 16a6 5989      		ldd r21,Y+17
 3776 16a8 240F      		add r18,r20
 3777 16aa 351F      		adc r19,r21
 3778 16ac F901      		movw r30,r18
 3779 16ae 2081      		ld r18,Z
 3780 16b0 3181      		ldd r19,Z+1
 3781 16b2 FC01      		movw r30,r24
 3782 16b4 3183      		std Z+1,r19
 3783 16b6 2083      		st Z,r18
 482:lp_solve_5.5/shared/commonlib.c ****           j <<= 1;
 3784               		.loc 1 482 0
 3785 16b8 3801      		movw r6,r16
 483:lp_solve_5.5/shared/commonlib.c ****   	    }
 3786               		.loc 1 483 0
 3787 16ba 000F      		lsl r16
 3788 16bc 111F      		rol r17
 3789               	.L136:
 473:lp_solve_5.5/shared/commonlib.c ****         hold = CMP_ATTRIBUTES(j);
 3790               		.loc 1 473 0
 3791 16be E016      		cp r14,r16
 3792 16c0 F106      		cpc r15,r17
 3793 16c2 04F0      		brlt .+2
 3794 16c4 00C0      		rjmp .L140
 3795 16c6 00C0      		rjmp .L139
 3796               	.L144:
 486:lp_solve_5.5/shared/commonlib.c ****       }
 3797               		.loc 1 486 0
 3798 16c8 0000      		nop
 3799               	.L139:
 488:lp_solve_5.5/shared/commonlib.c ****       tags[i] = savetag;
 3800               		.loc 1 488 0
 3801 16ca 4B85      		ldd r20,Y+11
 3802 16cc 5C85      		ldd r21,Y+12
 3803 16ce 8B85      		ldd r24,Y+11
 3804 16d0 9C85      		ldd r25,Y+12
 3805 16d2 689E      		mul r6,r24
 3806 16d4 9001      		movw r18,r0
 3807 16d6 699E      		mul r6,r25
 3808 16d8 300D      		add r19,r0
 3809 16da 789E      		mul r7,r24
 3810 16dc 300D      		add r19,r0
 3811 16de 1124      		clr r1
 3812 16e0 8D81      		ldd r24,Y+5
 3813 16e2 9E81      		ldd r25,Y+6
 3814 16e4 820F      		add r24,r18
 3815 16e6 931F      		adc r25,r19
 3816 16e8 2B81      		ldd r18,Y+3
 3817 16ea 3C81      		ldd r19,Y+4
 3818 16ec B901      		movw r22,r18
 3819 16ee 0E94 0000 		call memcpy
 489:lp_solve_5.5/shared/commonlib.c ****     }
 3820               		.loc 1 489 0
 3821 16f2 C301      		movw r24,r6
 3822 16f4 880F      		lsl r24
 3823 16f6 991F      		rol r25
 3824 16f8 2889      		ldd r18,Y+16
 3825 16fa 3989      		ldd r19,Y+17
 3826 16fc 820F      		add r24,r18
 3827 16fe 931F      		adc r25,r19
 3828 1700 2981      		ldd r18,Y+1
 3829 1702 3A81      		ldd r19,Y+2
 3830 1704 FC01      		movw r30,r24
 3831 1706 3183      		std Z+1,r19
 3832 1708 2083      		st Z,r18
 490:lp_solve_5.5/shared/commonlib.c **** 
 3833               		.loc 1 490 0
 3834 170a 00C0      		rjmp .L141
 3835               	.L142:
 3836               		.loc 1 492 0 discriminator 1
 3837 170c 8B81      		ldd r24,Y+3
 3838 170e 9C81      		ldd r25,Y+4
 3839 1710 0E94 0000 		call free
 3840 1714 1C82      		std Y+4,__zero_reg__
 3841 1716 1B82      		std Y+3,__zero_reg__
 3842 1718 00C0      		rjmp .L127
 3843               	.L143:
 3844               	.LBE3:
 429:lp_solve_5.5/shared/commonlib.c ****   if(tags == NULL) {
 3845               		.loc 1 429 0
 3846 171a 0000      		nop
 3847               	.L127:
 3848               	/* epilogue start */
 493:lp_solve_5.5/shared/commonlib.c ****   }
 494:lp_solve_5.5/shared/commonlib.c **** }
 3849               		.loc 1 494 0
 3850 171c 6196      		adiw r28,17
 3851 171e 0FB6      		in __tmp_reg__,__SREG__
 3852 1720 F894      		cli
 3853 1722 DEBF      		out __SP_H__,r29
 3854 1724 0FBE      		out __SREG__,__tmp_reg__
 3855 1726 CDBF      		out __SP_L__,r28
 3856 1728 DF91      		pop r29
 3857 172a CF91      		pop r28
 3858 172c 1F91      		pop r17
 3859 172e 0F91      		pop r16
 3860 1730 FF90      		pop r15
 3861 1732 EF90      		pop r14
 3862 1734 DF90      		pop r13
 3863 1736 CF90      		pop r12
 3864 1738 BF90      		pop r11
 3865 173a AF90      		pop r10
 3866 173c 9F90      		pop r9
 3867 173e 8F90      		pop r8
 3868 1740 7F90      		pop r7
 3869 1742 6F90      		pop r6
 3870 1744 5F90      		pop r5
 3871 1746 4F90      		pop r4
 3872 1748 0895      		ret
 3873               		.cfi_endproc
 3874               	.LFE21:
 3876               	.global	qsortex_swap
 3878               	qsortex_swap:
 3879               	.LFB22:
 495:lp_solve_5.5/shared/commonlib.c **** 
 496:lp_solve_5.5/shared/commonlib.c **** /* This is a "specialized generic" version of C.A.R Hoare's Quick Sort algorithm.
 497:lp_solve_5.5/shared/commonlib.c ****    It will handle arrays that are already sorted, and arrays with duplicate keys.
 498:lp_solve_5.5/shared/commonlib.c ****    There are two versions here; one extended conventional with optional tag data
 499:lp_solve_5.5/shared/commonlib.c ****    for each sortable value, and a version for the QSORTrec format.  The QSORTrec
 500:lp_solve_5.5/shared/commonlib.c ****    format i.a. includes the ability for to do linked list sorting. If the passed
 501:lp_solve_5.5/shared/commonlib.c ****    comparison operator is NULL, the comparison is assumed to be for integers. */
 502:lp_solve_5.5/shared/commonlib.c **** #define QS_IS_switch LINEARSEARCH    /* Threshold for switching to insertion sort */
 503:lp_solve_5.5/shared/commonlib.c **** 
 504:lp_solve_5.5/shared/commonlib.c **** void qsortex_swap(void *attributes, int l, int r, int recsize,
 505:lp_solve_5.5/shared/commonlib.c ****                          void *tags, int tagsize, char *save, char *savetag)
 506:lp_solve_5.5/shared/commonlib.c **** {
 3880               		.loc 1 506 0
 3881               		.cfi_startproc
 3882 174a AF92      		push r10
 3883               	.LCFI110:
 3884               		.cfi_def_cfa_offset 3
 3885               		.cfi_offset 10, -2
 3886 174c BF92      		push r11
 3887               	.LCFI111:
 3888               		.cfi_def_cfa_offset 4
 3889               		.cfi_offset 11, -3
 3890 174e CF92      		push r12
 3891               	.LCFI112:
 3892               		.cfi_def_cfa_offset 5
 3893               		.cfi_offset 12, -4
 3894 1750 DF92      		push r13
 3895               	.LCFI113:
 3896               		.cfi_def_cfa_offset 6
 3897               		.cfi_offset 13, -5
 3898 1752 EF92      		push r14
 3899               	.LCFI114:
 3900               		.cfi_def_cfa_offset 7
 3901               		.cfi_offset 14, -6
 3902 1754 FF92      		push r15
 3903               	.LCFI115:
 3904               		.cfi_def_cfa_offset 8
 3905               		.cfi_offset 15, -7
 3906 1756 0F93      		push r16
 3907               	.LCFI116:
 3908               		.cfi_def_cfa_offset 9
 3909               		.cfi_offset 16, -8
 3910 1758 1F93      		push r17
 3911               	.LCFI117:
 3912               		.cfi_def_cfa_offset 10
 3913               		.cfi_offset 17, -9
 3914 175a CF93      		push r28
 3915               	.LCFI118:
 3916               		.cfi_def_cfa_offset 11
 3917               		.cfi_offset 28, -10
 3918 175c DF93      		push r29
 3919               	.LCFI119:
 3920               		.cfi_def_cfa_offset 12
 3921               		.cfi_offset 29, -11
 3922 175e CDB7      		in r28,__SP_L__
 3923 1760 DEB7      		in r29,__SP_H__
 3924               	.LCFI120:
 3925               		.cfi_def_cfa_register 28
 3926 1762 6097      		sbiw r28,16
 3927               	.LCFI121:
 3928               		.cfi_def_cfa_offset 28
 3929 1764 0FB6      		in __tmp_reg__,__SREG__
 3930 1766 F894      		cli
 3931 1768 DEBF      		out __SP_H__,r29
 3932 176a 0FBE      		out __SREG__,__tmp_reg__
 3933 176c CDBF      		out __SP_L__,r28
 3934               	/* prologue: function */
 3935               	/* frame size = 16 */
 3936               	/* stack size = 26 */
 3937               	.L__stack_usage = 26
 3938 176e 9A83      		std Y+2,r25
 3939 1770 8983      		std Y+1,r24
 3940 1772 7C83      		std Y+4,r23
 3941 1774 6B83      		std Y+3,r22
 3942 1776 5E83      		std Y+6,r21
 3943 1778 4D83      		std Y+5,r20
 3944 177a 3887      		std Y+8,r19
 3945 177c 2F83      		std Y+7,r18
 3946 177e 1A87      		std Y+10,r17
 3947 1780 0987      		std Y+9,r16
 3948 1782 FC86      		std Y+12,r15
 3949 1784 EB86      		std Y+11,r14
 3950 1786 DE86      		std Y+14,r13
 3951 1788 CD86      		std Y+13,r12
 3952 178a B88A      		std Y+16,r11
 3953 178c AF86      		std Y+15,r10
 507:lp_solve_5.5/shared/commonlib.c ****    MEMCOPY(save, CMP_ATTRIBUTES(l), recsize);
 3954               		.loc 1 507 0
 3955 178e 4F81      		ldd r20,Y+7
 3956 1790 5885      		ldd r21,Y+8
 3957 1792 2B81      		ldd r18,Y+3
 3958 1794 3C81      		ldd r19,Y+4
 3959 1796 8F81      		ldd r24,Y+7
 3960 1798 9885      		ldd r25,Y+8
 3961 179a 289F      		mul r18,r24
 3962 179c B001      		movw r22,r0
 3963 179e 299F      		mul r18,r25
 3964 17a0 700D      		add r23,r0
 3965 17a2 389F      		mul r19,r24
 3966 17a4 700D      		add r23,r0
 3967 17a6 1124      		clr r1
 3968 17a8 9B01      		movw r18,r22
 3969 17aa 8981      		ldd r24,Y+1
 3970 17ac 9A81      		ldd r25,Y+2
 3971 17ae 280F      		add r18,r24
 3972 17b0 391F      		adc r19,r25
 3973 17b2 8D85      		ldd r24,Y+13
 3974 17b4 9E85      		ldd r25,Y+14
 3975 17b6 B901      		movw r22,r18
 3976 17b8 0E94 0000 		call memcpy
 508:lp_solve_5.5/shared/commonlib.c ****    MEMCOPY(CMP_ATTRIBUTES(l), CMP_ATTRIBUTES(r), recsize);
 3977               		.loc 1 508 0
 3978 17bc 4F81      		ldd r20,Y+7
 3979 17be 5885      		ldd r21,Y+8
 3980 17c0 2D81      		ldd r18,Y+5
 3981 17c2 3E81      		ldd r19,Y+6
 3982 17c4 8F81      		ldd r24,Y+7
 3983 17c6 9885      		ldd r25,Y+8
 3984 17c8 289F      		mul r18,r24
 3985 17ca B001      		movw r22,r0
 3986 17cc 299F      		mul r18,r25
 3987 17ce 700D      		add r23,r0
 3988 17d0 389F      		mul r19,r24
 3989 17d2 700D      		add r23,r0
 3990 17d4 1124      		clr r1
 3991 17d6 9B01      		movw r18,r22
 3992 17d8 8981      		ldd r24,Y+1
 3993 17da 9A81      		ldd r25,Y+2
 3994 17dc BC01      		movw r22,r24
 3995 17de 620F      		add r22,r18
 3996 17e0 731F      		adc r23,r19
 3997 17e2 2B81      		ldd r18,Y+3
 3998 17e4 3C81      		ldd r19,Y+4
 3999 17e6 8F81      		ldd r24,Y+7
 4000 17e8 9885      		ldd r25,Y+8
 4001 17ea 289F      		mul r18,r24
 4002 17ec F001      		movw r30,r0
 4003 17ee 299F      		mul r18,r25
 4004 17f0 F00D      		add r31,r0
 4005 17f2 389F      		mul r19,r24
 4006 17f4 F00D      		add r31,r0
 4007 17f6 1124      		clr r1
 4008 17f8 9F01      		movw r18,r30
 4009 17fa 8981      		ldd r24,Y+1
 4010 17fc 9A81      		ldd r25,Y+2
 4011 17fe 820F      		add r24,r18
 4012 1800 931F      		adc r25,r19
 4013 1802 0E94 0000 		call memcpy
 509:lp_solve_5.5/shared/commonlib.c ****    MEMCOPY(CMP_ATTRIBUTES(r), save, recsize);
 4014               		.loc 1 509 0
 4015 1806 4F81      		ldd r20,Y+7
 4016 1808 5885      		ldd r21,Y+8
 4017 180a 2D81      		ldd r18,Y+5
 4018 180c 3E81      		ldd r19,Y+6
 4019 180e 8F81      		ldd r24,Y+7
 4020 1810 9885      		ldd r25,Y+8
 4021 1812 289F      		mul r18,r24
 4022 1814 B001      		movw r22,r0
 4023 1816 299F      		mul r18,r25
 4024 1818 700D      		add r23,r0
 4025 181a 389F      		mul r19,r24
 4026 181c 700D      		add r23,r0
 4027 181e 1124      		clr r1
 4028 1820 9B01      		movw r18,r22
 4029 1822 8981      		ldd r24,Y+1
 4030 1824 9A81      		ldd r25,Y+2
 4031 1826 820F      		add r24,r18
 4032 1828 931F      		adc r25,r19
 4033 182a 2D85      		ldd r18,Y+13
 4034 182c 3E85      		ldd r19,Y+14
 4035 182e B901      		movw r22,r18
 4036 1830 0E94 0000 		call memcpy
 510:lp_solve_5.5/shared/commonlib.c ****    if(tags != NULL) {
 4037               		.loc 1 510 0
 4038 1834 8985      		ldd r24,Y+9
 4039 1836 9A85      		ldd r25,Y+10
 4040 1838 892B      		or r24,r25
 4041 183a 01F4      		brne .+2
 4042 183c 00C0      		rjmp .L147
 511:lp_solve_5.5/shared/commonlib.c ****      MEMCOPY(savetag, CMP_TAGS(l), tagsize);
 4043               		.loc 1 511 0
 4044 183e 4B85      		ldd r20,Y+11
 4045 1840 5C85      		ldd r21,Y+12
 4046 1842 2B81      		ldd r18,Y+3
 4047 1844 3C81      		ldd r19,Y+4
 4048 1846 8B85      		ldd r24,Y+11
 4049 1848 9C85      		ldd r25,Y+12
 4050 184a 289F      		mul r18,r24
 4051 184c B001      		movw r22,r0
 4052 184e 299F      		mul r18,r25
 4053 1850 700D      		add r23,r0
 4054 1852 389F      		mul r19,r24
 4055 1854 700D      		add r23,r0
 4056 1856 1124      		clr r1
 4057 1858 9B01      		movw r18,r22
 4058 185a 8985      		ldd r24,Y+9
 4059 185c 9A85      		ldd r25,Y+10
 4060 185e 280F      		add r18,r24
 4061 1860 391F      		adc r19,r25
 4062 1862 8F85      		ldd r24,Y+15
 4063 1864 9889      		ldd r25,Y+16
 4064 1866 B901      		movw r22,r18
 4065 1868 0E94 0000 		call memcpy
 512:lp_solve_5.5/shared/commonlib.c ****      MEMCOPY(CMP_TAGS(l), CMP_TAGS(r), tagsize);
 4066               		.loc 1 512 0
 4067 186c 4B85      		ldd r20,Y+11
 4068 186e 5C85      		ldd r21,Y+12
 4069 1870 2D81      		ldd r18,Y+5
 4070 1872 3E81      		ldd r19,Y+6
 4071 1874 8B85      		ldd r24,Y+11
 4072 1876 9C85      		ldd r25,Y+12
 4073 1878 289F      		mul r18,r24
 4074 187a B001      		movw r22,r0
 4075 187c 299F      		mul r18,r25
 4076 187e 700D      		add r23,r0
 4077 1880 389F      		mul r19,r24
 4078 1882 700D      		add r23,r0
 4079 1884 1124      		clr r1
 4080 1886 9B01      		movw r18,r22
 4081 1888 8985      		ldd r24,Y+9
 4082 188a 9A85      		ldd r25,Y+10
 4083 188c BC01      		movw r22,r24
 4084 188e 620F      		add r22,r18
 4085 1890 731F      		adc r23,r19
 4086 1892 2B81      		ldd r18,Y+3
 4087 1894 3C81      		ldd r19,Y+4
 4088 1896 8B85      		ldd r24,Y+11
 4089 1898 9C85      		ldd r25,Y+12
 4090 189a 289F      		mul r18,r24
 4091 189c F001      		movw r30,r0
 4092 189e 299F      		mul r18,r25
 4093 18a0 F00D      		add r31,r0
 4094 18a2 389F      		mul r19,r24
 4095 18a4 F00D      		add r31,r0
 4096 18a6 1124      		clr r1
 4097 18a8 9F01      		movw r18,r30
 4098 18aa 8985      		ldd r24,Y+9
 4099 18ac 9A85      		ldd r25,Y+10
 4100 18ae 820F      		add r24,r18
 4101 18b0 931F      		adc r25,r19
 4102 18b2 0E94 0000 		call memcpy
 513:lp_solve_5.5/shared/commonlib.c ****      MEMCOPY(CMP_TAGS(r), savetag, tagsize);
 4103               		.loc 1 513 0
 4104 18b6 4B85      		ldd r20,Y+11
 4105 18b8 5C85      		ldd r21,Y+12
 4106 18ba 2D81      		ldd r18,Y+5
 4107 18bc 3E81      		ldd r19,Y+6
 4108 18be 8B85      		ldd r24,Y+11
 4109 18c0 9C85      		ldd r25,Y+12
 4110 18c2 289F      		mul r18,r24
 4111 18c4 B001      		movw r22,r0
 4112 18c6 299F      		mul r18,r25
 4113 18c8 700D      		add r23,r0
 4114 18ca 389F      		mul r19,r24
 4115 18cc 700D      		add r23,r0
 4116 18ce 1124      		clr r1
 4117 18d0 9B01      		movw r18,r22
 4118 18d2 8985      		ldd r24,Y+9
 4119 18d4 9A85      		ldd r25,Y+10
 4120 18d6 820F      		add r24,r18
 4121 18d8 931F      		adc r25,r19
 4122 18da 2F85      		ldd r18,Y+15
 4123 18dc 3889      		ldd r19,Y+16
 4124 18de B901      		movw r22,r18
 4125 18e0 0E94 0000 		call memcpy
 4126               	.L147:
 514:lp_solve_5.5/shared/commonlib.c ****    }
 515:lp_solve_5.5/shared/commonlib.c **** }
 4127               		.loc 1 515 0
 4128 18e4 0000      		nop
 4129               	/* epilogue start */
 4130 18e6 6096      		adiw r28,16
 4131 18e8 0FB6      		in __tmp_reg__,__SREG__
 4132 18ea F894      		cli
 4133 18ec DEBF      		out __SP_H__,r29
 4134 18ee 0FBE      		out __SREG__,__tmp_reg__
 4135 18f0 CDBF      		out __SP_L__,r28
 4136 18f2 DF91      		pop r29
 4137 18f4 CF91      		pop r28
 4138 18f6 1F91      		pop r17
 4139 18f8 0F91      		pop r16
 4140 18fa FF90      		pop r15
 4141 18fc EF90      		pop r14
 4142 18fe DF90      		pop r13
 4143 1900 CF90      		pop r12
 4144 1902 BF90      		pop r11
 4145 1904 AF90      		pop r10
 4146 1906 0895      		ret
 4147               		.cfi_endproc
 4148               	.LFE22:
 4150               	.global	qsortex_sort
 4152               	qsortex_sort:
 4153               	.LFB23:
 516:lp_solve_5.5/shared/commonlib.c **** 
 517:lp_solve_5.5/shared/commonlib.c **** int qsortex_sort(void *attributes, int l, int r, int recsize, int sortorder, findCompare_func findC
 518:lp_solve_5.5/shared/commonlib.c ****                         void *tags, int tagsize, char *save, char *savetag)
 519:lp_solve_5.5/shared/commonlib.c **** {
 4154               		.loc 1 519 0
 4155               		.cfi_startproc
 4156 1908 2F92      		push r2
 4157               	.LCFI122:
 4158               		.cfi_def_cfa_offset 3
 4159               		.cfi_offset 2, -2
 4160 190a 3F92      		push r3
 4161               	.LCFI123:
 4162               		.cfi_def_cfa_offset 4
 4163               		.cfi_offset 3, -3
 4164 190c 4F92      		push r4
 4165               	.LCFI124:
 4166               		.cfi_def_cfa_offset 5
 4167               		.cfi_offset 4, -4
 4168 190e 5F92      		push r5
 4169               	.LCFI125:
 4170               		.cfi_def_cfa_offset 6
 4171               		.cfi_offset 5, -5
 4172 1910 6F92      		push r6
 4173               	.LCFI126:
 4174               		.cfi_def_cfa_offset 7
 4175               		.cfi_offset 6, -6
 4176 1912 7F92      		push r7
 4177               	.LCFI127:
 4178               		.cfi_def_cfa_offset 8
 4179               		.cfi_offset 7, -7
 4180 1914 8F92      		push r8
 4181               	.LCFI128:
 4182               		.cfi_def_cfa_offset 9
 4183               		.cfi_offset 8, -8
 4184 1916 9F92      		push r9
 4185               	.LCFI129:
 4186               		.cfi_def_cfa_offset 10
 4187               		.cfi_offset 9, -9
 4188 1918 AF92      		push r10
 4189               	.LCFI130:
 4190               		.cfi_def_cfa_offset 11
 4191               		.cfi_offset 10, -10
 4192 191a BF92      		push r11
 4193               	.LCFI131:
 4194               		.cfi_def_cfa_offset 12
 4195               		.cfi_offset 11, -11
 4196 191c CF92      		push r12
 4197               	.LCFI132:
 4198               		.cfi_def_cfa_offset 13
 4199               		.cfi_offset 12, -12
 4200 191e DF92      		push r13
 4201               	.LCFI133:
 4202               		.cfi_def_cfa_offset 14
 4203               		.cfi_offset 13, -13
 4204 1920 EF92      		push r14
 4205               	.LCFI134:
 4206               		.cfi_def_cfa_offset 15
 4207               		.cfi_offset 14, -14
 4208 1922 FF92      		push r15
 4209               	.LCFI135:
 4210               		.cfi_def_cfa_offset 16
 4211               		.cfi_offset 15, -15
 4212 1924 0F93      		push r16
 4213               	.LCFI136:
 4214               		.cfi_def_cfa_offset 17
 4215               		.cfi_offset 16, -16
 4216 1926 1F93      		push r17
 4217               	.LCFI137:
 4218               		.cfi_def_cfa_offset 18
 4219               		.cfi_offset 17, -17
 4220 1928 CF93      		push r28
 4221               	.LCFI138:
 4222               		.cfi_def_cfa_offset 19
 4223               		.cfi_offset 28, -18
 4224 192a DF93      		push r29
 4225               	.LCFI139:
 4226               		.cfi_def_cfa_offset 20
 4227               		.cfi_offset 29, -19
 4228 192c CDB7      		in r28,__SP_L__
 4229 192e DEB7      		in r29,__SP_H__
 4230               	.LCFI140:
 4231               		.cfi_def_cfa_register 28
 4232 1930 6497      		sbiw r28,20
 4233               	.LCFI141:
 4234               		.cfi_def_cfa_offset 40
 4235 1932 0FB6      		in __tmp_reg__,__SREG__
 4236 1934 F894      		cli
 4237 1936 DEBF      		out __SP_H__,r29
 4238 1938 0FBE      		out __SREG__,__tmp_reg__
 4239 193a CDBF      		out __SP_L__,r28
 4240               	/* prologue: function */
 4241               	/* frame size = 20 */
 4242               	/* stack size = 38 */
 4243               	.L__stack_usage = 38
 4244 193c 9C83      		std Y+4,r25
 4245 193e 8B83      		std Y+3,r24
 4246 1940 7E83      		std Y+6,r23
 4247 1942 6D83      		std Y+5,r22
 4248 1944 5887      		std Y+8,r21
 4249 1946 4F83      		std Y+7,r20
 4250 1948 3A87      		std Y+10,r19
 4251 194a 2987      		std Y+9,r18
 4252 194c 1C87      		std Y+12,r17
 4253 194e 0B87      		std Y+11,r16
 4254 1950 FE86      		std Y+14,r15
 4255 1952 ED86      		std Y+13,r14
 4256 1954 D88A      		std Y+16,r13
 4257 1956 CF86      		std Y+15,r12
 4258 1958 BA8A      		std Y+18,r11
 4259 195a A98A      		std Y+17,r10
 4260 195c 9C8A      		std Y+20,r9
 4261 195e 8B8A      		std Y+19,r8
 520:lp_solve_5.5/shared/commonlib.c ****   register int i, j, nmove = 0;
 4262               		.loc 1 520 0
 4263 1960 612C      		mov r6,__zero_reg__
 4264 1962 712C      		mov r7,__zero_reg__
 521:lp_solve_5.5/shared/commonlib.c ****   char     *v;
 522:lp_solve_5.5/shared/commonlib.c **** 
 523:lp_solve_5.5/shared/commonlib.c ****   /* Perform the a fast QuickSort */
 524:lp_solve_5.5/shared/commonlib.c ****   if((r-l) > QS_IS_switch) {
 4265               		.loc 1 524 0
 4266 1964 2F81      		ldd r18,Y+7
 4267 1966 3885      		ldd r19,Y+8
 4268 1968 8D81      		ldd r24,Y+5
 4269 196a 9E81      		ldd r25,Y+6
 4270 196c A901      		movw r20,r18
 4271 196e 481B      		sub r20,r24
 4272 1970 590B      		sbc r21,r25
 4273 1972 CA01      		movw r24,r20
 4274 1974 0697      		sbiw r24,6
 4275 1976 04F4      		brge .+2
 4276 1978 00C0      		rjmp .L149
 525:lp_solve_5.5/shared/commonlib.c ****     i = (r+l)/2;
 4277               		.loc 1 525 0
 4278 197a 2F81      		ldd r18,Y+7
 4279 197c 3885      		ldd r19,Y+8
 4280 197e 8D81      		ldd r24,Y+5
 4281 1980 9E81      		ldd r25,Y+6
 4282 1982 820F      		add r24,r18
 4283 1984 931F      		adc r25,r19
 4284 1986 9923      		tst r25
 4285 1988 04F4      		brge .L150
 4286 198a 0196      		adiw r24,1
 4287               	.L150:
 4288 198c 9595      		asr r25
 4289 198e 8795      		ror r24
 4290 1990 2C01      		movw r4,r24
 526:lp_solve_5.5/shared/commonlib.c **** 
 527:lp_solve_5.5/shared/commonlib.c ****     /* Tri-Median Method */
 528:lp_solve_5.5/shared/commonlib.c ****     if(sortorder*findCompare(CMP_ATTRIBUTES(l), CMP_ATTRIBUTES(i)) > 0)
 4291               		.loc 1 528 0
 4292 1992 8985      		ldd r24,Y+9
 4293 1994 9A85      		ldd r25,Y+10
 4294 1996 489E      		mul r4,r24
 4295 1998 9001      		movw r18,r0
 4296 199a 499E      		mul r4,r25
 4297 199c 300D      		add r19,r0
 4298 199e 589E      		mul r5,r24
 4299 19a0 300D      		add r19,r0
 4300 19a2 1124      		clr r1
 4301 19a4 8B81      		ldd r24,Y+3
 4302 19a6 9C81      		ldd r25,Y+4
 4303 19a8 AC01      		movw r20,r24
 4304 19aa 420F      		add r20,r18
 4305 19ac 531F      		adc r21,r19
 4306 19ae 2D81      		ldd r18,Y+5
 4307 19b0 3E81      		ldd r19,Y+6
 4308 19b2 8985      		ldd r24,Y+9
 4309 19b4 9A85      		ldd r25,Y+10
 4310 19b6 289F      		mul r18,r24
 4311 19b8 B001      		movw r22,r0
 4312 19ba 299F      		mul r18,r25
 4313 19bc 700D      		add r23,r0
 4314 19be 389F      		mul r19,r24
 4315 19c0 700D      		add r23,r0
 4316 19c2 1124      		clr r1
 4317 19c4 9B01      		movw r18,r22
 4318 19c6 8B81      		ldd r24,Y+3
 4319 19c8 9C81      		ldd r25,Y+4
 4320 19ca 820F      		add r24,r18
 4321 19cc 931F      		adc r25,r19
 4322 19ce 2D85      		ldd r18,Y+13
 4323 19d0 3E85      		ldd r19,Y+14
 4324 19d2 BA01      		movw r22,r20
 4325 19d4 F901      		movw r30,r18
 4326 19d6 0995      		icall
 4327 19d8 AC01      		movw r20,r24
 4328 19da 2B85      		ldd r18,Y+11
 4329 19dc 3C85      		ldd r19,Y+12
 4330 19de 429F      		mul r20,r18
 4331 19e0 C001      		movw r24,r0
 4332 19e2 439F      		mul r20,r19
 4333 19e4 900D      		add r25,r0
 4334 19e6 529F      		mul r21,r18
 4335 19e8 900D      		add r25,r0
 4336 19ea 1124      		clr r1
 4337 19ec 1816      		cp __zero_reg__,r24
 4338 19ee 1906      		cpc __zero_reg__,r25
 4339 19f0 04F4      		brge .L151
 529:lp_solve_5.5/shared/commonlib.c ****       { nmove++; qsortex_swap(attributes, l,i, recsize, tags, tagsize, save, savetag); }
 4340               		.loc 1 529 0
 4341 19f2 FFEF      		ldi r31,-1
 4342 19f4 6F1A      		sub r6,r31
 4343 19f6 7F0A      		sbc r7,r31
 4344 19f8 09A5      		ldd r16,Y+41
 4345 19fa 1AA5      		ldd r17,Y+42
 4346 19fc AB89      		ldd r26,Y+19
 4347 19fe BC89      		ldd r27,Y+20
 4348 1a00 E989      		ldd r30,Y+17
 4349 1a02 FA89      		ldd r31,Y+18
 4350 1a04 4F85      		ldd r20,Y+15
 4351 1a06 5889      		ldd r21,Y+16
 4352 1a08 2985      		ldd r18,Y+9
 4353 1a0a 3A85      		ldd r19,Y+10
 4354 1a0c 6D81      		ldd r22,Y+5
 4355 1a0e 7E81      		ldd r23,Y+6
 4356 1a10 8B81      		ldd r24,Y+3
 4357 1a12 9C81      		ldd r25,Y+4
 4358 1a14 5801      		movw r10,r16
 4359 1a16 6D01      		movw r12,r26
 4360 1a18 7F01      		movw r14,r30
 4361 1a1a 8A01      		movw r16,r20
 4362 1a1c A201      		movw r20,r4
 4363 1a1e 0E94 0000 		call qsortex_swap
 4364               	.L151:
 530:lp_solve_5.5/shared/commonlib.c ****     if(sortorder*findCompare(CMP_ATTRIBUTES(l), CMP_ATTRIBUTES(r)) > 0)
 4365               		.loc 1 530 0
 4366 1a22 2F81      		ldd r18,Y+7
 4367 1a24 3885      		ldd r19,Y+8
 4368 1a26 8985      		ldd r24,Y+9
 4369 1a28 9A85      		ldd r25,Y+10
 4370 1a2a 289F      		mul r18,r24
 4371 1a2c A001      		movw r20,r0
 4372 1a2e 299F      		mul r18,r25
 4373 1a30 500D      		add r21,r0
 4374 1a32 389F      		mul r19,r24
 4375 1a34 500D      		add r21,r0
 4376 1a36 1124      		clr r1
 4377 1a38 9A01      		movw r18,r20
 4378 1a3a 8B81      		ldd r24,Y+3
 4379 1a3c 9C81      		ldd r25,Y+4
 4380 1a3e AC01      		movw r20,r24
 4381 1a40 420F      		add r20,r18
 4382 1a42 531F      		adc r21,r19
 4383 1a44 2D81      		ldd r18,Y+5
 4384 1a46 3E81      		ldd r19,Y+6
 4385 1a48 8985      		ldd r24,Y+9
 4386 1a4a 9A85      		ldd r25,Y+10
 4387 1a4c 289F      		mul r18,r24
 4388 1a4e B001      		movw r22,r0
 4389 1a50 299F      		mul r18,r25
 4390 1a52 700D      		add r23,r0
 4391 1a54 389F      		mul r19,r24
 4392 1a56 700D      		add r23,r0
 4393 1a58 1124      		clr r1
 4394 1a5a 9B01      		movw r18,r22
 4395 1a5c 8B81      		ldd r24,Y+3
 4396 1a5e 9C81      		ldd r25,Y+4
 4397 1a60 820F      		add r24,r18
 4398 1a62 931F      		adc r25,r19
 4399 1a64 2D85      		ldd r18,Y+13
 4400 1a66 3E85      		ldd r19,Y+14
 4401 1a68 BA01      		movw r22,r20
 4402 1a6a F901      		movw r30,r18
 4403 1a6c 0995      		icall
 4404 1a6e AC01      		movw r20,r24
 4405 1a70 2B85      		ldd r18,Y+11
 4406 1a72 3C85      		ldd r19,Y+12
 4407 1a74 429F      		mul r20,r18
 4408 1a76 C001      		movw r24,r0
 4409 1a78 439F      		mul r20,r19
 4410 1a7a 900D      		add r25,r0
 4411 1a7c 529F      		mul r21,r18
 4412 1a7e 900D      		add r25,r0
 4413 1a80 1124      		clr r1
 4414 1a82 1816      		cp __zero_reg__,r24
 4415 1a84 1906      		cpc __zero_reg__,r25
 4416 1a86 04F4      		brge .L152
 531:lp_solve_5.5/shared/commonlib.c ****       { nmove++; qsortex_swap(attributes, l,r, recsize, tags, tagsize, save, savetag); }
 4417               		.loc 1 531 0
 4418 1a88 FFEF      		ldi r31,-1
 4419 1a8a 6F1A      		sub r6,r31
 4420 1a8c 7F0A      		sbc r7,r31
 4421 1a8e E9A4      		ldd r14,Y+41
 4422 1a90 FAA4      		ldd r15,Y+42
 4423 1a92 0B89      		ldd r16,Y+19
 4424 1a94 1C89      		ldd r17,Y+20
 4425 1a96 A989      		ldd r26,Y+17
 4426 1a98 BA89      		ldd r27,Y+18
 4427 1a9a EF85      		ldd r30,Y+15
 4428 1a9c F889      		ldd r31,Y+16
 4429 1a9e 2985      		ldd r18,Y+9
 4430 1aa0 3A85      		ldd r19,Y+10
 4431 1aa2 4F81      		ldd r20,Y+7
 4432 1aa4 5885      		ldd r21,Y+8
 4433 1aa6 6D81      		ldd r22,Y+5
 4434 1aa8 7E81      		ldd r23,Y+6
 4435 1aaa 8B81      		ldd r24,Y+3
 4436 1aac 9C81      		ldd r25,Y+4
 4437 1aae 5701      		movw r10,r14
 4438 1ab0 6801      		movw r12,r16
 4439 1ab2 7D01      		movw r14,r26
 4440 1ab4 8F01      		movw r16,r30
 4441 1ab6 0E94 0000 		call qsortex_swap
 4442               	.L152:
 532:lp_solve_5.5/shared/commonlib.c ****     if(sortorder*findCompare(CMP_ATTRIBUTES(i), CMP_ATTRIBUTES(r)) > 0)
 4443               		.loc 1 532 0
 4444 1aba 2F81      		ldd r18,Y+7
 4445 1abc 3885      		ldd r19,Y+8
 4446 1abe 8985      		ldd r24,Y+9
 4447 1ac0 9A85      		ldd r25,Y+10
 4448 1ac2 289F      		mul r18,r24
 4449 1ac4 A001      		movw r20,r0
 4450 1ac6 299F      		mul r18,r25
 4451 1ac8 500D      		add r21,r0
 4452 1aca 389F      		mul r19,r24
 4453 1acc 500D      		add r21,r0
 4454 1ace 1124      		clr r1
 4455 1ad0 9A01      		movw r18,r20
 4456 1ad2 8B81      		ldd r24,Y+3
 4457 1ad4 9C81      		ldd r25,Y+4
 4458 1ad6 AC01      		movw r20,r24
 4459 1ad8 420F      		add r20,r18
 4460 1ada 531F      		adc r21,r19
 4461 1adc 8985      		ldd r24,Y+9
 4462 1ade 9A85      		ldd r25,Y+10
 4463 1ae0 489E      		mul r4,r24
 4464 1ae2 9001      		movw r18,r0
 4465 1ae4 499E      		mul r4,r25
 4466 1ae6 300D      		add r19,r0
 4467 1ae8 589E      		mul r5,r24
 4468 1aea 300D      		add r19,r0
 4469 1aec 1124      		clr r1
 4470 1aee 8B81      		ldd r24,Y+3
 4471 1af0 9C81      		ldd r25,Y+4
 4472 1af2 820F      		add r24,r18
 4473 1af4 931F      		adc r25,r19
 4474 1af6 2D85      		ldd r18,Y+13
 4475 1af8 3E85      		ldd r19,Y+14
 4476 1afa BA01      		movw r22,r20
 4477 1afc F901      		movw r30,r18
 4478 1afe 0995      		icall
 4479 1b00 AC01      		movw r20,r24
 4480 1b02 2B85      		ldd r18,Y+11
 4481 1b04 3C85      		ldd r19,Y+12
 4482 1b06 429F      		mul r20,r18
 4483 1b08 C001      		movw r24,r0
 4484 1b0a 439F      		mul r20,r19
 4485 1b0c 900D      		add r25,r0
 4486 1b0e 529F      		mul r21,r18
 4487 1b10 900D      		add r25,r0
 4488 1b12 1124      		clr r1
 4489 1b14 1816      		cp __zero_reg__,r24
 4490 1b16 1906      		cpc __zero_reg__,r25
 4491 1b18 04F4      		brge .L153
 533:lp_solve_5.5/shared/commonlib.c ****       { nmove++; qsortex_swap(attributes, i,r, recsize, tags, tagsize, save, savetag); }
 4492               		.loc 1 533 0
 4493 1b1a FFEF      		ldi r31,-1
 4494 1b1c 6F1A      		sub r6,r31
 4495 1b1e 7F0A      		sbc r7,r31
 4496 1b20 09A5      		ldd r16,Y+41
 4497 1b22 1AA5      		ldd r17,Y+42
 4498 1b24 AB89      		ldd r26,Y+19
 4499 1b26 BC89      		ldd r27,Y+20
 4500 1b28 E989      		ldd r30,Y+17
 4501 1b2a FA89      		ldd r31,Y+18
 4502 1b2c 6F85      		ldd r22,Y+15
 4503 1b2e 7889      		ldd r23,Y+16
 4504 1b30 2985      		ldd r18,Y+9
 4505 1b32 3A85      		ldd r19,Y+10
 4506 1b34 4F81      		ldd r20,Y+7
 4507 1b36 5885      		ldd r21,Y+8
 4508 1b38 8B81      		ldd r24,Y+3
 4509 1b3a 9C81      		ldd r25,Y+4
 4510 1b3c 5801      		movw r10,r16
 4511 1b3e 6D01      		movw r12,r26
 4512 1b40 7F01      		movw r14,r30
 4513 1b42 8B01      		movw r16,r22
 4514 1b44 B201      		movw r22,r4
 4515 1b46 0E94 0000 		call qsortex_swap
 4516               	.L153:
 534:lp_solve_5.5/shared/commonlib.c **** 
 535:lp_solve_5.5/shared/commonlib.c ****     j = r-1;
 4517               		.loc 1 535 0
 4518 1b4a 8F81      		ldd r24,Y+7
 4519 1b4c 9885      		ldd r25,Y+8
 4520 1b4e 1C01      		movw r2,r24
 4521 1b50 21E0      		ldi r18,1
 4522 1b52 221A      		sub r2,r18
 4523 1b54 3108      		sbc r3,__zero_reg__
 536:lp_solve_5.5/shared/commonlib.c ****     qsortex_swap(attributes, i,j, recsize, tags, tagsize, save, savetag);
 4524               		.loc 1 536 0
 4525 1b56 A9A5      		ldd r26,Y+41
 4526 1b58 BAA5      		ldd r27,Y+42
 4527 1b5a EB89      		ldd r30,Y+19
 4528 1b5c FC89      		ldd r31,Y+20
 4529 1b5e 6989      		ldd r22,Y+17
 4530 1b60 7A89      		ldd r23,Y+18
 4531 1b62 4F85      		ldd r20,Y+15
 4532 1b64 5889      		ldd r21,Y+16
 4533 1b66 2985      		ldd r18,Y+9
 4534 1b68 3A85      		ldd r19,Y+10
 4535 1b6a 8B81      		ldd r24,Y+3
 4536 1b6c 9C81      		ldd r25,Y+4
 4537 1b6e 5D01      		movw r10,r26
 4538 1b70 6F01      		movw r12,r30
 4539 1b72 7B01      		movw r14,r22
 4540 1b74 8A01      		movw r16,r20
 4541 1b76 A101      		movw r20,r2
 4542 1b78 B201      		movw r22,r4
 4543 1b7a 0E94 0000 		call qsortex_swap
 537:lp_solve_5.5/shared/commonlib.c ****     i = l;
 4544               		.loc 1 537 0
 4545 1b7e 4D80      		ldd r4,Y+5
 4546 1b80 5E80      		ldd r5,Y+6
 538:lp_solve_5.5/shared/commonlib.c ****     v = CMP_ATTRIBUTES(j);
 4547               		.loc 1 538 0
 4548 1b82 8985      		ldd r24,Y+9
 4549 1b84 9A85      		ldd r25,Y+10
 4550 1b86 289E      		mul r2,r24
 4551 1b88 9001      		movw r18,r0
 4552 1b8a 299E      		mul r2,r25
 4553 1b8c 300D      		add r19,r0
 4554 1b8e 389E      		mul r3,r24
 4555 1b90 300D      		add r19,r0
 4556 1b92 1124      		clr r1
 4557 1b94 8B81      		ldd r24,Y+3
 4558 1b96 9C81      		ldd r25,Y+4
 4559 1b98 820F      		add r24,r18
 4560 1b9a 931F      		adc r25,r19
 4561 1b9c 9A83      		std Y+2,r25
 4562 1b9e 8983      		std Y+1,r24
 4563               	.L158:
 4564               	.L154:
 539:lp_solve_5.5/shared/commonlib.c ****     for(;;) {
 540:lp_solve_5.5/shared/commonlib.c ****       while(sortorder*findCompare(CMP_ATTRIBUTES(++i), v) < 0);
 4565               		.loc 1 540 0 discriminator 1
 4566 1ba0 4FEF      		ldi r20,-1
 4567 1ba2 441A      		sub r4,r20
 4568 1ba4 540A      		sbc r5,r20
 4569 1ba6 8985      		ldd r24,Y+9
 4570 1ba8 9A85      		ldd r25,Y+10
 4571 1baa 489E      		mul r4,r24
 4572 1bac 9001      		movw r18,r0
 4573 1bae 499E      		mul r4,r25
 4574 1bb0 300D      		add r19,r0
 4575 1bb2 589E      		mul r5,r24
 4576 1bb4 300D      		add r19,r0
 4577 1bb6 1124      		clr r1
 4578 1bb8 8B81      		ldd r24,Y+3
 4579 1bba 9C81      		ldd r25,Y+4
 4580 1bbc 820F      		add r24,r18
 4581 1bbe 931F      		adc r25,r19
 4582 1bc0 4981      		ldd r20,Y+1
 4583 1bc2 5A81      		ldd r21,Y+2
 4584 1bc4 2D85      		ldd r18,Y+13
 4585 1bc6 3E85      		ldd r19,Y+14
 4586 1bc8 BA01      		movw r22,r20
 4587 1bca F901      		movw r30,r18
 4588 1bcc 0995      		icall
 4589 1bce AC01      		movw r20,r24
 4590 1bd0 2B85      		ldd r18,Y+11
 4591 1bd2 3C85      		ldd r19,Y+12
 4592 1bd4 429F      		mul r20,r18
 4593 1bd6 C001      		movw r24,r0
 4594 1bd8 439F      		mul r20,r19
 4595 1bda 900D      		add r25,r0
 4596 1bdc 529F      		mul r21,r18
 4597 1bde 900D      		add r25,r0
 4598 1be0 1124      		clr r1
 4599 1be2 9923      		tst r25
 4600 1be4 04F0      		brlt .L154
 4601               	.L155:
 541:lp_solve_5.5/shared/commonlib.c ****       while(sortorder*findCompare(CMP_ATTRIBUTES(--j), v) > 0);
 4602               		.loc 1 541 0 discriminator 1
 4603 1be6 F1E0      		ldi r31,1
 4604 1be8 2F1A      		sub r2,r31
 4605 1bea 3108      		sbc r3,__zero_reg__
 4606 1bec 8985      		ldd r24,Y+9
 4607 1bee 9A85      		ldd r25,Y+10
 4608 1bf0 289E      		mul r2,r24
 4609 1bf2 9001      		movw r18,r0
 4610 1bf4 299E      		mul r2,r25
 4611 1bf6 300D      		add r19,r0
 4612 1bf8 389E      		mul r3,r24
 4613 1bfa 300D      		add r19,r0
 4614 1bfc 1124      		clr r1
 4615 1bfe 8B81      		ldd r24,Y+3
 4616 1c00 9C81      		ldd r25,Y+4
 4617 1c02 820F      		add r24,r18
 4618 1c04 931F      		adc r25,r19
 4619 1c06 4981      		ldd r20,Y+1
 4620 1c08 5A81      		ldd r21,Y+2
 4621 1c0a 2D85      		ldd r18,Y+13
 4622 1c0c 3E85      		ldd r19,Y+14
 4623 1c0e BA01      		movw r22,r20
 4624 1c10 F901      		movw r30,r18
 4625 1c12 0995      		icall
 4626 1c14 AC01      		movw r20,r24
 4627 1c16 2B85      		ldd r18,Y+11
 4628 1c18 3C85      		ldd r19,Y+12
 4629 1c1a 429F      		mul r20,r18
 4630 1c1c C001      		movw r24,r0
 4631 1c1e 439F      		mul r20,r19
 4632 1c20 900D      		add r25,r0
 4633 1c22 529F      		mul r21,r18
 4634 1c24 900D      		add r25,r0
 4635 1c26 1124      		clr r1
 4636 1c28 1816      		cp __zero_reg__,r24
 4637 1c2a 1906      		cpc __zero_reg__,r25
 4638 1c2c 04F0      		brlt .L155
 542:lp_solve_5.5/shared/commonlib.c ****       if(j < i) break;
 4639               		.loc 1 542 0
 4640 1c2e 2414      		cp r2,r4
 4641 1c30 3504      		cpc r3,r5
 4642 1c32 04F0      		brlt .L161
 543:lp_solve_5.5/shared/commonlib.c ****       nmove++; qsortex_swap(attributes, i,j, recsize, tags, tagsize, save, savetag);
 4643               		.loc 1 543 0
 4644 1c34 FFEF      		ldi r31,-1
 4645 1c36 6F1A      		sub r6,r31
 4646 1c38 7F0A      		sbc r7,r31
 4647 1c3a A9A5      		ldd r26,Y+41
 4648 1c3c BAA5      		ldd r27,Y+42
 4649 1c3e EB89      		ldd r30,Y+19
 4650 1c40 FC89      		ldd r31,Y+20
 4651 1c42 6989      		ldd r22,Y+17
 4652 1c44 7A89      		ldd r23,Y+18
 4653 1c46 4F85      		ldd r20,Y+15
 4654 1c48 5889      		ldd r21,Y+16
 4655 1c4a 2985      		ldd r18,Y+9
 4656 1c4c 3A85      		ldd r19,Y+10
 4657 1c4e 8B81      		ldd r24,Y+3
 4658 1c50 9C81      		ldd r25,Y+4
 4659 1c52 5D01      		movw r10,r26
 4660 1c54 6F01      		movw r12,r30
 4661 1c56 7B01      		movw r14,r22
 4662 1c58 8A01      		movw r16,r20
 4663 1c5a A101      		movw r20,r2
 4664 1c5c B201      		movw r22,r4
 4665 1c5e 0E94 0000 		call qsortex_swap
 544:lp_solve_5.5/shared/commonlib.c ****     }
 4666               		.loc 1 544 0
 4667 1c62 00C0      		rjmp .L158
 4668               	.L161:
 542:lp_solve_5.5/shared/commonlib.c ****       if(j < i) break;
 4669               		.loc 1 542 0
 4670 1c64 0000      		nop
 545:lp_solve_5.5/shared/commonlib.c ****     nmove++; qsortex_swap(attributes, i,r-1, recsize, tags, tagsize, save, savetag);
 4671               		.loc 1 545 0
 4672 1c66 2FEF      		ldi r18,-1
 4673 1c68 621A      		sub r6,r18
 4674 1c6a 720A      		sbc r7,r18
 4675 1c6c 8F81      		ldd r24,Y+7
 4676 1c6e 9885      		ldd r25,Y+8
 4677 1c70 AC01      		movw r20,r24
 4678 1c72 4150      		subi r20,1
 4679 1c74 5109      		sbc r21,__zero_reg__
 4680 1c76 09A5      		ldd r16,Y+41
 4681 1c78 1AA5      		ldd r17,Y+42
 4682 1c7a AB89      		ldd r26,Y+19
 4683 1c7c BC89      		ldd r27,Y+20
 4684 1c7e E989      		ldd r30,Y+17
 4685 1c80 FA89      		ldd r31,Y+18
 4686 1c82 6F85      		ldd r22,Y+15
 4687 1c84 7889      		ldd r23,Y+16
 4688 1c86 2985      		ldd r18,Y+9
 4689 1c88 3A85      		ldd r19,Y+10
 4690 1c8a 8B81      		ldd r24,Y+3
 4691 1c8c 9C81      		ldd r25,Y+4
 4692 1c8e 5801      		movw r10,r16
 4693 1c90 6D01      		movw r12,r26
 4694 1c92 7F01      		movw r14,r30
 4695 1c94 8B01      		movw r16,r22
 4696 1c96 B201      		movw r22,r4
 4697 1c98 0E94 0000 		call qsortex_swap
 546:lp_solve_5.5/shared/commonlib.c ****     nmove += qsortex_sort(attributes, l,j,   recsize, sortorder, findCompare, tags, tagsize, save, 
 4698               		.loc 1 546 0
 4699 1c9c EB88      		ldd r14,Y+19
 4700 1c9e FC88      		ldd r15,Y+20
 4701 1ca0 0989      		ldd r16,Y+17
 4702 1ca2 1A89      		ldd r17,Y+18
 4703 1ca4 AF85      		ldd r26,Y+15
 4704 1ca6 B889      		ldd r27,Y+16
 4705 1ca8 ED85      		ldd r30,Y+13
 4706 1caa FE85      		ldd r31,Y+14
 4707 1cac 4B85      		ldd r20,Y+11
 4708 1cae 5C85      		ldd r21,Y+12
 4709 1cb0 2985      		ldd r18,Y+9
 4710 1cb2 3A85      		ldd r19,Y+10
 4711 1cb4 6D81      		ldd r22,Y+5
 4712 1cb6 7E81      		ldd r23,Y+6
 4713 1cb8 8B81      		ldd r24,Y+3
 4714 1cba 9C81      		ldd r25,Y+4
 4715 1cbc DAA4      		ldd r13,Y+42
 4716 1cbe DF92      		push r13
 4717 1cc0 D9A4      		ldd r13,Y+41
 4718 1cc2 DF92      		push r13
 4719 1cc4 4701      		movw r8,r14
 4720 1cc6 5801      		movw r10,r16
 4721 1cc8 6D01      		movw r12,r26
 4722 1cca 7F01      		movw r14,r30
 4723 1ccc 8A01      		movw r16,r20
 4724 1cce A101      		movw r20,r2
 4725 1cd0 0E94 0000 		call qsortex_sort
 4726 1cd4 0F90      		pop __tmp_reg__
 4727 1cd6 0F90      		pop __tmp_reg__
 4728 1cd8 680E      		add r6,r24
 4729 1cda 791E      		adc r7,r25
 547:lp_solve_5.5/shared/commonlib.c ****     nmove += qsortex_sort(attributes, i+1,r, recsize, sortorder, findCompare, tags, tagsize, save, 
 4730               		.loc 1 547 0
 4731 1cdc B201      		movw r22,r4
 4732 1cde 6F5F      		subi r22,-1
 4733 1ce0 7F4F      		sbci r23,-1
 4734 1ce2 CB88      		ldd r12,Y+19
 4735 1ce4 DC88      		ldd r13,Y+20
 4736 1ce6 E988      		ldd r14,Y+17
 4737 1ce8 FA88      		ldd r15,Y+18
 4738 1cea 0F85      		ldd r16,Y+15
 4739 1cec 1889      		ldd r17,Y+16
 4740 1cee AD85      		ldd r26,Y+13
 4741 1cf0 BE85      		ldd r27,Y+14
 4742 1cf2 EB85      		ldd r30,Y+11
 4743 1cf4 FC85      		ldd r31,Y+12
 4744 1cf6 2985      		ldd r18,Y+9
 4745 1cf8 3A85      		ldd r19,Y+10
 4746 1cfa 4F81      		ldd r20,Y+7
 4747 1cfc 5885      		ldd r21,Y+8
 4748 1cfe 8B81      		ldd r24,Y+3
 4749 1d00 9C81      		ldd r25,Y+4
 4750 1d02 BAA4      		ldd r11,Y+42
 4751 1d04 BF92      		push r11
 4752 1d06 B9A4      		ldd r11,Y+41
 4753 1d08 BF92      		push r11
 4754 1d0a 4601      		movw r8,r12
 4755 1d0c 5701      		movw r10,r14
 4756 1d0e 6801      		movw r12,r16
 4757 1d10 7D01      		movw r14,r26
 4758 1d12 8F01      		movw r16,r30
 4759 1d14 0E94 0000 		call qsortex_sort
 4760 1d18 0F90      		pop __tmp_reg__
 4761 1d1a 0F90      		pop __tmp_reg__
 4762 1d1c 680E      		add r6,r24
 4763 1d1e 791E      		adc r7,r25
 4764               	.L149:
 548:lp_solve_5.5/shared/commonlib.c ****   }
 549:lp_solve_5.5/shared/commonlib.c ****   return( nmove );
 4765               		.loc 1 549 0
 4766 1d20 C301      		movw r24,r6
 4767               	/* epilogue start */
 550:lp_solve_5.5/shared/commonlib.c **** }
 4768               		.loc 1 550 0
 4769 1d22 6496      		adiw r28,20
 4770 1d24 0FB6      		in __tmp_reg__,__SREG__
 4771 1d26 F894      		cli
 4772 1d28 DEBF      		out __SP_H__,r29
 4773 1d2a 0FBE      		out __SREG__,__tmp_reg__
 4774 1d2c CDBF      		out __SP_L__,r28
 4775 1d2e DF91      		pop r29
 4776 1d30 CF91      		pop r28
 4777 1d32 1F91      		pop r17
 4778 1d34 0F91      		pop r16
 4779 1d36 FF90      		pop r15
 4780 1d38 EF90      		pop r14
 4781 1d3a DF90      		pop r13
 4782 1d3c CF90      		pop r12
 4783 1d3e BF90      		pop r11
 4784 1d40 AF90      		pop r10
 4785 1d42 9F90      		pop r9
 4786 1d44 8F90      		pop r8
 4787 1d46 7F90      		pop r7
 4788 1d48 6F90      		pop r6
 4789 1d4a 5F90      		pop r5
 4790 1d4c 4F90      		pop r4
 4791 1d4e 3F90      		pop r3
 4792 1d50 2F90      		pop r2
 4793 1d52 0895      		ret
 4794               		.cfi_endproc
 4795               	.LFE23:
 4797               	.global	qsortex_finish
 4799               	qsortex_finish:
 4800               	.LFB24:
 551:lp_solve_5.5/shared/commonlib.c **** 
 552:lp_solve_5.5/shared/commonlib.c **** int qsortex_finish(void *attributes, int lo0, int hi0, int recsize, int sortorder, findCompare_func
 553:lp_solve_5.5/shared/commonlib.c ****                           void *tags, int tagsize, char *save, char *savetag)
 554:lp_solve_5.5/shared/commonlib.c **** {
 4801               		.loc 1 554 0
 4802               		.cfi_startproc
 4803 1d54 8F92      		push r8
 4804               	.LCFI142:
 4805               		.cfi_def_cfa_offset 3
 4806               		.cfi_offset 8, -2
 4807 1d56 9F92      		push r9
 4808               	.LCFI143:
 4809               		.cfi_def_cfa_offset 4
 4810               		.cfi_offset 9, -3
 4811 1d58 AF92      		push r10
 4812               	.LCFI144:
 4813               		.cfi_def_cfa_offset 5
 4814               		.cfi_offset 10, -4
 4815 1d5a BF92      		push r11
 4816               	.LCFI145:
 4817               		.cfi_def_cfa_offset 6
 4818               		.cfi_offset 11, -5
 4819 1d5c CF92      		push r12
 4820               	.LCFI146:
 4821               		.cfi_def_cfa_offset 7
 4822               		.cfi_offset 12, -6
 4823 1d5e DF92      		push r13
 4824               	.LCFI147:
 4825               		.cfi_def_cfa_offset 8
 4826               		.cfi_offset 13, -7
 4827 1d60 EF92      		push r14
 4828               	.LCFI148:
 4829               		.cfi_def_cfa_offset 9
 4830               		.cfi_offset 14, -8
 4831 1d62 FF92      		push r15
 4832               	.LCFI149:
 4833               		.cfi_def_cfa_offset 10
 4834               		.cfi_offset 15, -9
 4835 1d64 0F93      		push r16
 4836               	.LCFI150:
 4837               		.cfi_def_cfa_offset 11
 4838               		.cfi_offset 16, -10
 4839 1d66 1F93      		push r17
 4840               	.LCFI151:
 4841               		.cfi_def_cfa_offset 12
 4842               		.cfi_offset 17, -11
 4843 1d68 CF93      		push r28
 4844               	.LCFI152:
 4845               		.cfi_def_cfa_offset 13
 4846               		.cfi_offset 28, -12
 4847 1d6a DF93      		push r29
 4848               	.LCFI153:
 4849               		.cfi_def_cfa_offset 14
 4850               		.cfi_offset 29, -13
 4851 1d6c CDB7      		in r28,__SP_L__
 4852 1d6e DEB7      		in r29,__SP_H__
 4853               	.LCFI154:
 4854               		.cfi_def_cfa_register 28
 4855 1d70 6897      		sbiw r28,24
 4856               	.LCFI155:
 4857               		.cfi_def_cfa_offset 38
 4858 1d72 0FB6      		in __tmp_reg__,__SREG__
 4859 1d74 F894      		cli
 4860 1d76 DEBF      		out __SP_H__,r29
 4861 1d78 0FBE      		out __SREG__,__tmp_reg__
 4862 1d7a CDBF      		out __SP_L__,r28
 4863               	/* prologue: function */
 4864               	/* frame size = 24 */
 4865               	/* stack size = 36 */
 4866               	.L__stack_usage = 36
 4867 1d7c 9887      		std Y+8,r25
 4868 1d7e 8F83      		std Y+7,r24
 4869 1d80 7A87      		std Y+10,r23
 4870 1d82 6987      		std Y+9,r22
 4871 1d84 5C87      		std Y+12,r21
 4872 1d86 4B87      		std Y+11,r20
 4873 1d88 3E87      		std Y+14,r19
 4874 1d8a 2D87      		std Y+13,r18
 4875 1d8c 188B      		std Y+16,r17
 4876 1d8e 0F87      		std Y+15,r16
 4877 1d90 FA8A      		std Y+18,r15
 4878 1d92 E98A      		std Y+17,r14
 4879 1d94 DC8A      		std Y+20,r13
 4880 1d96 CB8A      		std Y+19,r12
 4881 1d98 BE8A      		std Y+22,r11
 4882 1d9a AD8A      		std Y+21,r10
 4883 1d9c 988E      		std Y+24,r9
 4884 1d9e 8F8A      		std Y+23,r8
 555:lp_solve_5.5/shared/commonlib.c ****   int i, j, nmove = 0;
 4885               		.loc 1 555 0
 4886 1da0 1E82      		std Y+6,__zero_reg__
 4887 1da2 1D82      		std Y+5,__zero_reg__
 556:lp_solve_5.5/shared/commonlib.c **** 
 557:lp_solve_5.5/shared/commonlib.c ****   /* This is actually InsertionSort, which is faster for local sorts */
 558:lp_solve_5.5/shared/commonlib.c ****   for(i = lo0+1; i <= hi0; i++) {
 4888               		.loc 1 558 0
 4889 1da4 8985      		ldd r24,Y+9
 4890 1da6 9A85      		ldd r25,Y+10
 4891 1da8 0196      		adiw r24,1
 4892 1daa 9A83      		std Y+2,r25
 4893 1dac 8983      		std Y+1,r24
 4894 1dae 00C0      		rjmp .L163
 4895               	.L170:
 559:lp_solve_5.5/shared/commonlib.c **** 
 560:lp_solve_5.5/shared/commonlib.c ****     /* Save bottom-most item */
 561:lp_solve_5.5/shared/commonlib.c ****     MEMCOPY(save, CMP_ATTRIBUTES(i), recsize);
 4896               		.loc 1 561 0
 4897 1db0 4D85      		ldd r20,Y+13
 4898 1db2 5E85      		ldd r21,Y+14
 4899 1db4 2981      		ldd r18,Y+1
 4900 1db6 3A81      		ldd r19,Y+2
 4901 1db8 8D85      		ldd r24,Y+13
 4902 1dba 9E85      		ldd r25,Y+14
 4903 1dbc 289F      		mul r18,r24
 4904 1dbe B001      		movw r22,r0
 4905 1dc0 299F      		mul r18,r25
 4906 1dc2 700D      		add r23,r0
 4907 1dc4 389F      		mul r19,r24
 4908 1dc6 700D      		add r23,r0
 4909 1dc8 1124      		clr r1
 4910 1dca 9B01      		movw r18,r22
 4911 1dcc 8F81      		ldd r24,Y+7
 4912 1dce 9885      		ldd r25,Y+8
 4913 1dd0 280F      		add r18,r24
 4914 1dd2 391F      		adc r19,r25
 4915 1dd4 8F89      		ldd r24,Y+23
 4916 1dd6 988D      		ldd r25,Y+24
 4917 1dd8 B901      		movw r22,r18
 4918 1dda 0E94 0000 		call memcpy
 562:lp_solve_5.5/shared/commonlib.c ****     if(tags != NULL)
 4919               		.loc 1 562 0
 4920 1dde 8B89      		ldd r24,Y+19
 4921 1de0 9C89      		ldd r25,Y+20
 4922 1de2 892B      		or r24,r25
 4923 1de4 01F0      		breq .L164
 563:lp_solve_5.5/shared/commonlib.c ****       MEMCOPY(savetag, CMP_TAGS(i), tagsize);
 4924               		.loc 1 563 0
 4925 1de6 4D89      		ldd r20,Y+21
 4926 1de8 5E89      		ldd r21,Y+22
 4927 1dea 2981      		ldd r18,Y+1
 4928 1dec 3A81      		ldd r19,Y+2
 4929 1dee 8D89      		ldd r24,Y+21
 4930 1df0 9E89      		ldd r25,Y+22
 4931 1df2 289F      		mul r18,r24
 4932 1df4 B001      		movw r22,r0
 4933 1df6 299F      		mul r18,r25
 4934 1df8 700D      		add r23,r0
 4935 1dfa 389F      		mul r19,r24
 4936 1dfc 700D      		add r23,r0
 4937 1dfe 1124      		clr r1
 4938 1e00 9B01      		movw r18,r22
 4939 1e02 8B89      		ldd r24,Y+19
 4940 1e04 9C89      		ldd r25,Y+20
 4941 1e06 280F      		add r18,r24
 4942 1e08 391F      		adc r19,r25
 4943 1e0a 8FA1      		ldd r24,Y+39
 4944 1e0c 98A5      		ldd r25,Y+40
 4945 1e0e B901      		movw r22,r18
 4946 1e10 0E94 0000 		call memcpy
 4947               	.L164:
 564:lp_solve_5.5/shared/commonlib.c **** 
 565:lp_solve_5.5/shared/commonlib.c ****     /* Shift down! */
 566:lp_solve_5.5/shared/commonlib.c ****     j = i;
 4948               		.loc 1 566 0
 4949 1e14 8981      		ldd r24,Y+1
 4950 1e16 9A81      		ldd r25,Y+2
 4951 1e18 9C83      		std Y+4,r25
 4952 1e1a 8B83      		std Y+3,r24
 567:lp_solve_5.5/shared/commonlib.c ****     while ((j > lo0) && (sortorder*findCompare(CMP_ATTRIBUTES(j-1), save) > 0)) {
 4953               		.loc 1 567 0
 4954 1e1c 00C0      		rjmp .L165
 4955               	.L168:
 568:lp_solve_5.5/shared/commonlib.c ****       MEMCOPY(CMP_ATTRIBUTES(j), CMP_ATTRIBUTES(j-1), recsize);
 4956               		.loc 1 568 0
 4957 1e1e 4D85      		ldd r20,Y+13
 4958 1e20 5E85      		ldd r21,Y+14
 4959 1e22 8B81      		ldd r24,Y+3
 4960 1e24 9C81      		ldd r25,Y+4
 4961 1e26 9C01      		movw r18,r24
 4962 1e28 2150      		subi r18,1
 4963 1e2a 3109      		sbc r19,__zero_reg__
 4964 1e2c 8D85      		ldd r24,Y+13
 4965 1e2e 9E85      		ldd r25,Y+14
 4966 1e30 289F      		mul r18,r24
 4967 1e32 B001      		movw r22,r0
 4968 1e34 299F      		mul r18,r25
 4969 1e36 700D      		add r23,r0
 4970 1e38 389F      		mul r19,r24
 4971 1e3a 700D      		add r23,r0
 4972 1e3c 1124      		clr r1
 4973 1e3e 9B01      		movw r18,r22
 4974 1e40 8F81      		ldd r24,Y+7
 4975 1e42 9885      		ldd r25,Y+8
 4976 1e44 BC01      		movw r22,r24
 4977 1e46 620F      		add r22,r18
 4978 1e48 731F      		adc r23,r19
 4979 1e4a 2B81      		ldd r18,Y+3
 4980 1e4c 3C81      		ldd r19,Y+4
 4981 1e4e 8D85      		ldd r24,Y+13
 4982 1e50 9E85      		ldd r25,Y+14
 4983 1e52 289F      		mul r18,r24
 4984 1e54 F001      		movw r30,r0
 4985 1e56 299F      		mul r18,r25
 4986 1e58 F00D      		add r31,r0
 4987 1e5a 389F      		mul r19,r24
 4988 1e5c F00D      		add r31,r0
 4989 1e5e 1124      		clr r1
 4990 1e60 9F01      		movw r18,r30
 4991 1e62 8F81      		ldd r24,Y+7
 4992 1e64 9885      		ldd r25,Y+8
 4993 1e66 820F      		add r24,r18
 4994 1e68 931F      		adc r25,r19
 4995 1e6a 0E94 0000 		call memcpy
 569:lp_solve_5.5/shared/commonlib.c ****       if(tags != NULL)
 4996               		.loc 1 569 0
 4997 1e6e 8B89      		ldd r24,Y+19
 4998 1e70 9C89      		ldd r25,Y+20
 4999 1e72 892B      		or r24,r25
 5000 1e74 01F0      		breq .L166
 570:lp_solve_5.5/shared/commonlib.c ****         MEMCOPY(CMP_TAGS(j), CMP_TAGS(j-1), tagsize);
 5001               		.loc 1 570 0
 5002 1e76 4D89      		ldd r20,Y+21
 5003 1e78 5E89      		ldd r21,Y+22
 5004 1e7a 8B81      		ldd r24,Y+3
 5005 1e7c 9C81      		ldd r25,Y+4
 5006 1e7e 9C01      		movw r18,r24
 5007 1e80 2150      		subi r18,1
 5008 1e82 3109      		sbc r19,__zero_reg__
 5009 1e84 8D89      		ldd r24,Y+21
 5010 1e86 9E89      		ldd r25,Y+22
 5011 1e88 289F      		mul r18,r24
 5012 1e8a B001      		movw r22,r0
 5013 1e8c 299F      		mul r18,r25
 5014 1e8e 700D      		add r23,r0
 5015 1e90 389F      		mul r19,r24
 5016 1e92 700D      		add r23,r0
 5017 1e94 1124      		clr r1
 5018 1e96 9B01      		movw r18,r22
 5019 1e98 8B89      		ldd r24,Y+19
 5020 1e9a 9C89      		ldd r25,Y+20
 5021 1e9c BC01      		movw r22,r24
 5022 1e9e 620F      		add r22,r18
 5023 1ea0 731F      		adc r23,r19
 5024 1ea2 2B81      		ldd r18,Y+3
 5025 1ea4 3C81      		ldd r19,Y+4
 5026 1ea6 8D89      		ldd r24,Y+21
 5027 1ea8 9E89      		ldd r25,Y+22
 5028 1eaa 289F      		mul r18,r24
 5029 1eac F001      		movw r30,r0
 5030 1eae 299F      		mul r18,r25
 5031 1eb0 F00D      		add r31,r0
 5032 1eb2 389F      		mul r19,r24
 5033 1eb4 F00D      		add r31,r0
 5034 1eb6 1124      		clr r1
 5035 1eb8 9F01      		movw r18,r30
 5036 1eba 8B89      		ldd r24,Y+19
 5037 1ebc 9C89      		ldd r25,Y+20
 5038 1ebe 820F      		add r24,r18
 5039 1ec0 931F      		adc r25,r19
 5040 1ec2 0E94 0000 		call memcpy
 5041               	.L166:
 571:lp_solve_5.5/shared/commonlib.c ****       j--;
 5042               		.loc 1 571 0
 5043 1ec6 8B81      		ldd r24,Y+3
 5044 1ec8 9C81      		ldd r25,Y+4
 5045 1eca 0197      		sbiw r24,1
 5046 1ecc 9C83      		std Y+4,r25
 5047 1ece 8B83      		std Y+3,r24
 572:lp_solve_5.5/shared/commonlib.c ****       nmove++;
 5048               		.loc 1 572 0
 5049 1ed0 8D81      		ldd r24,Y+5
 5050 1ed2 9E81      		ldd r25,Y+6
 5051 1ed4 0196      		adiw r24,1
 5052 1ed6 9E83      		std Y+6,r25
 5053 1ed8 8D83      		std Y+5,r24
 5054               	.L165:
 567:lp_solve_5.5/shared/commonlib.c ****       MEMCOPY(CMP_ATTRIBUTES(j), CMP_ATTRIBUTES(j-1), recsize);
 5055               		.loc 1 567 0
 5056 1eda 2B81      		ldd r18,Y+3
 5057 1edc 3C81      		ldd r19,Y+4
 5058 1ede 8985      		ldd r24,Y+9
 5059 1ee0 9A85      		ldd r25,Y+10
 5060 1ee2 8217      		cp r24,r18
 5061 1ee4 9307      		cpc r25,r19
 5062 1ee6 04F4      		brge .L167
 567:lp_solve_5.5/shared/commonlib.c ****       MEMCOPY(CMP_ATTRIBUTES(j), CMP_ATTRIBUTES(j-1), recsize);
 5063               		.loc 1 567 0 is_stmt 0 discriminator 1
 5064 1ee8 8B81      		ldd r24,Y+3
 5065 1eea 9C81      		ldd r25,Y+4
 5066 1eec 9C01      		movw r18,r24
 5067 1eee 2150      		subi r18,1
 5068 1ef0 3109      		sbc r19,__zero_reg__
 5069 1ef2 8D85      		ldd r24,Y+13
 5070 1ef4 9E85      		ldd r25,Y+14
 5071 1ef6 289F      		mul r18,r24
 5072 1ef8 A001      		movw r20,r0
 5073 1efa 299F      		mul r18,r25
 5074 1efc 500D      		add r21,r0
 5075 1efe 389F      		mul r19,r24
 5076 1f00 500D      		add r21,r0
 5077 1f02 1124      		clr r1
 5078 1f04 9A01      		movw r18,r20
 5079 1f06 8F81      		ldd r24,Y+7
 5080 1f08 9885      		ldd r25,Y+8
 5081 1f0a 820F      		add r24,r18
 5082 1f0c 931F      		adc r25,r19
 5083 1f0e 4F89      		ldd r20,Y+23
 5084 1f10 588D      		ldd r21,Y+24
 5085 1f12 2989      		ldd r18,Y+17
 5086 1f14 3A89      		ldd r19,Y+18
 5087 1f16 BA01      		movw r22,r20
 5088 1f18 F901      		movw r30,r18
 5089 1f1a 0995      		icall
 5090 1f1c AC01      		movw r20,r24
 5091 1f1e 2F85      		ldd r18,Y+15
 5092 1f20 3889      		ldd r19,Y+16
 5093 1f22 429F      		mul r20,r18
 5094 1f24 C001      		movw r24,r0
 5095 1f26 439F      		mul r20,r19
 5096 1f28 900D      		add r25,r0
 5097 1f2a 529F      		mul r21,r18
 5098 1f2c 900D      		add r25,r0
 5099 1f2e 1124      		clr r1
 5100 1f30 1816      		cp __zero_reg__,r24
 5101 1f32 1906      		cpc __zero_reg__,r25
 5102 1f34 04F4      		brge .+2
 5103 1f36 00C0      		rjmp .L168
 5104               	.L167:
 573:lp_solve_5.5/shared/commonlib.c ****     }
 574:lp_solve_5.5/shared/commonlib.c **** 
 575:lp_solve_5.5/shared/commonlib.c ****     /* Store bottom-most item at the top */
 576:lp_solve_5.5/shared/commonlib.c ****     MEMCOPY(CMP_ATTRIBUTES(j), save, recsize);
 5105               		.loc 1 576 0 is_stmt 1
 5106 1f38 4D85      		ldd r20,Y+13
 5107 1f3a 5E85      		ldd r21,Y+14
 5108 1f3c 2B81      		ldd r18,Y+3
 5109 1f3e 3C81      		ldd r19,Y+4
 5110 1f40 8D85      		ldd r24,Y+13
 5111 1f42 9E85      		ldd r25,Y+14
 5112 1f44 289F      		mul r18,r24
 5113 1f46 B001      		movw r22,r0
 5114 1f48 299F      		mul r18,r25
 5115 1f4a 700D      		add r23,r0
 5116 1f4c 389F      		mul r19,r24
 5117 1f4e 700D      		add r23,r0
 5118 1f50 1124      		clr r1
 5119 1f52 9B01      		movw r18,r22
 5120 1f54 8F81      		ldd r24,Y+7
 5121 1f56 9885      		ldd r25,Y+8
 5122 1f58 820F      		add r24,r18
 5123 1f5a 931F      		adc r25,r19
 5124 1f5c 2F89      		ldd r18,Y+23
 5125 1f5e 388D      		ldd r19,Y+24
 5126 1f60 B901      		movw r22,r18
 5127 1f62 0E94 0000 		call memcpy
 577:lp_solve_5.5/shared/commonlib.c ****     if(tags != NULL)
 5128               		.loc 1 577 0
 5129 1f66 8B89      		ldd r24,Y+19
 5130 1f68 9C89      		ldd r25,Y+20
 5131 1f6a 892B      		or r24,r25
 5132 1f6c 01F0      		breq .L169
 578:lp_solve_5.5/shared/commonlib.c ****       MEMCOPY(CMP_TAGS(j), savetag, tagsize);
 5133               		.loc 1 578 0
 5134 1f6e 4D89      		ldd r20,Y+21
 5135 1f70 5E89      		ldd r21,Y+22
 5136 1f72 2B81      		ldd r18,Y+3
 5137 1f74 3C81      		ldd r19,Y+4
 5138 1f76 8D89      		ldd r24,Y+21
 5139 1f78 9E89      		ldd r25,Y+22
 5140 1f7a 289F      		mul r18,r24
 5141 1f7c B001      		movw r22,r0
 5142 1f7e 299F      		mul r18,r25
 5143 1f80 700D      		add r23,r0
 5144 1f82 389F      		mul r19,r24
 5145 1f84 700D      		add r23,r0
 5146 1f86 1124      		clr r1
 5147 1f88 9B01      		movw r18,r22
 5148 1f8a 8B89      		ldd r24,Y+19
 5149 1f8c 9C89      		ldd r25,Y+20
 5150 1f8e 820F      		add r24,r18
 5151 1f90 931F      		adc r25,r19
 5152 1f92 2FA1      		ldd r18,Y+39
 5153 1f94 38A5      		ldd r19,Y+40
 5154 1f96 B901      		movw r22,r18
 5155 1f98 0E94 0000 		call memcpy
 5156               	.L169:
 558:lp_solve_5.5/shared/commonlib.c **** 
 5157               		.loc 1 558 0 discriminator 2
 5158 1f9c 8981      		ldd r24,Y+1
 5159 1f9e 9A81      		ldd r25,Y+2
 5160 1fa0 0196      		adiw r24,1
 5161 1fa2 9A83      		std Y+2,r25
 5162 1fa4 8983      		std Y+1,r24
 5163               	.L163:
 558:lp_solve_5.5/shared/commonlib.c **** 
 5164               		.loc 1 558 0 is_stmt 0 discriminator 1
 5165 1fa6 2981      		ldd r18,Y+1
 5166 1fa8 3A81      		ldd r19,Y+2
 5167 1faa 8B85      		ldd r24,Y+11
 5168 1fac 9C85      		ldd r25,Y+12
 5169 1fae 8217      		cp r24,r18
 5170 1fb0 9307      		cpc r25,r19
 5171 1fb2 04F0      		brlt .+2
 5172 1fb4 00C0      		rjmp .L170
 579:lp_solve_5.5/shared/commonlib.c ****   }
 580:lp_solve_5.5/shared/commonlib.c ****   return( nmove );
 5173               		.loc 1 580 0 is_stmt 1
 5174 1fb6 8D81      		ldd r24,Y+5
 5175 1fb8 9E81      		ldd r25,Y+6
 5176               	/* epilogue start */
 581:lp_solve_5.5/shared/commonlib.c **** }
 5177               		.loc 1 581 0
 5178 1fba 6896      		adiw r28,24
 5179 1fbc 0FB6      		in __tmp_reg__,__SREG__
 5180 1fbe F894      		cli
 5181 1fc0 DEBF      		out __SP_H__,r29
 5182 1fc2 0FBE      		out __SREG__,__tmp_reg__
 5183 1fc4 CDBF      		out __SP_L__,r28
 5184 1fc6 DF91      		pop r29
 5185 1fc8 CF91      		pop r28
 5186 1fca 1F91      		pop r17
 5187 1fcc 0F91      		pop r16
 5188 1fce FF90      		pop r15
 5189 1fd0 EF90      		pop r14
 5190 1fd2 DF90      		pop r13
 5191 1fd4 CF90      		pop r12
 5192 1fd6 BF90      		pop r11
 5193 1fd8 AF90      		pop r10
 5194 1fda 9F90      		pop r9
 5195 1fdc 8F90      		pop r8
 5196 1fde 0895      		ret
 5197               		.cfi_endproc
 5198               	.LFE24:
 5200               	.global	qsortex
 5202               	qsortex:
 5203               	.LFB25:
 582:lp_solve_5.5/shared/commonlib.c **** 
 583:lp_solve_5.5/shared/commonlib.c **** int qsortex(void *attributes, int count, int offset, int recsize, MYBOOL descending, findCompare_fu
 584:lp_solve_5.5/shared/commonlib.c **** {
 5204               		.loc 1 584 0
 5205               		.cfi_startproc
 5206 1fe0 8F92      		push r8
 5207               	.LCFI156:
 5208               		.cfi_def_cfa_offset 3
 5209               		.cfi_offset 8, -2
 5210 1fe2 9F92      		push r9
 5211               	.LCFI157:
 5212               		.cfi_def_cfa_offset 4
 5213               		.cfi_offset 9, -3
 5214 1fe4 AF92      		push r10
 5215               	.LCFI158:
 5216               		.cfi_def_cfa_offset 5
 5217               		.cfi_offset 10, -4
 5218 1fe6 BF92      		push r11
 5219               	.LCFI159:
 5220               		.cfi_def_cfa_offset 6
 5221               		.cfi_offset 11, -5
 5222 1fe8 CF92      		push r12
 5223               	.LCFI160:
 5224               		.cfi_def_cfa_offset 7
 5225               		.cfi_offset 12, -6
 5226 1fea DF92      		push r13
 5227               	.LCFI161:
 5228               		.cfi_def_cfa_offset 8
 5229               		.cfi_offset 13, -7
 5230 1fec EF92      		push r14
 5231               	.LCFI162:
 5232               		.cfi_def_cfa_offset 9
 5233               		.cfi_offset 14, -8
 5234 1fee FF92      		push r15
 5235               	.LCFI163:
 5236               		.cfi_def_cfa_offset 10
 5237               		.cfi_offset 15, -9
 5238 1ff0 0F93      		push r16
 5239               	.LCFI164:
 5240               		.cfi_def_cfa_offset 11
 5241               		.cfi_offset 16, -10
 5242 1ff2 1F93      		push r17
 5243               	.LCFI165:
 5244               		.cfi_def_cfa_offset 12
 5245               		.cfi_offset 17, -11
 5246 1ff4 CF93      		push r28
 5247               	.LCFI166:
 5248               		.cfi_def_cfa_offset 13
 5249               		.cfi_offset 28, -12
 5250 1ff6 DF93      		push r29
 5251               	.LCFI167:
 5252               		.cfi_def_cfa_offset 14
 5253               		.cfi_offset 29, -13
 5254 1ff8 CDB7      		in r28,__SP_L__
 5255 1ffa DEB7      		in r29,__SP_H__
 5256               	.LCFI168:
 5257               		.cfi_def_cfa_register 28
 5258 1ffc 6797      		sbiw r28,23
 5259               	.LCFI169:
 5260               		.cfi_def_cfa_offset 37
 5261 1ffe 0FB6      		in __tmp_reg__,__SREG__
 5262 2000 F894      		cli
 5263 2002 DEBF      		out __SP_H__,r29
 5264 2004 0FBE      		out __SREG__,__tmp_reg__
 5265 2006 CDBF      		out __SP_L__,r28
 5266               	/* prologue: function */
 5267               	/* frame size = 23 */
 5268               	/* stack size = 35 */
 5269               	.L__stack_usage = 35
 5270 2008 9A87      		std Y+10,r25
 5271 200a 8987      		std Y+9,r24
 5272 200c 7C87      		std Y+12,r23
 5273 200e 6B87      		std Y+11,r22
 5274 2010 5E87      		std Y+14,r21
 5275 2012 4D87      		std Y+13,r20
 5276 2014 388B      		std Y+16,r19
 5277 2016 2F87      		std Y+15,r18
 5278 2018 098B      		std Y+17,r16
 5279 201a FB8A      		std Y+19,r15
 5280 201c EA8A      		std Y+18,r14
 5281 201e DD8A      		std Y+21,r13
 5282 2020 CC8A      		std Y+20,r12
 5283 2022 BF8A      		std Y+23,r11
 5284 2024 AE8A      		std Y+22,r10
 585:lp_solve_5.5/shared/commonlib.c ****   int  iswaps = 0, sortorder = (descending ? -1 : 1);
 5285               		.loc 1 585 0
 5286 2026 1A82      		std Y+2,__zero_reg__
 5287 2028 1982      		std Y+1,__zero_reg__
 5288 202a 8989      		ldd r24,Y+17
 5289 202c 8823      		tst r24
 5290 202e 01F0      		breq .L173
 5291               		.loc 1 585 0 is_stmt 0 discriminator 1
 5292 2030 8FEF      		ldi r24,lo8(-1)
 5293 2032 9FEF      		ldi r25,lo8(-1)
 5294 2034 00C0      		rjmp .L174
 5295               	.L173:
 5296               		.loc 1 585 0 discriminator 2
 5297 2036 81E0      		ldi r24,lo8(1)
 5298 2038 90E0      		ldi r25,0
 5299               	.L174:
 5300               		.loc 1 585 0 discriminator 4
 5301 203a 9887      		std Y+8,r25
 5302 203c 8F83      		std Y+7,r24
 586:lp_solve_5.5/shared/commonlib.c ****   char *save = NULL, *savetag = NULL;
 5303               		.loc 1 586 0 is_stmt 1 discriminator 4
 5304 203e 1C82      		std Y+4,__zero_reg__
 5305 2040 1B82      		std Y+3,__zero_reg__
 5306 2042 1E82      		std Y+6,__zero_reg__
 5307 2044 1D82      		std Y+5,__zero_reg__
 587:lp_solve_5.5/shared/commonlib.c **** 
 588:lp_solve_5.5/shared/commonlib.c ****   /* Check and initialize to zero-based arrays */
 589:lp_solve_5.5/shared/commonlib.c ****   if(count <= 1)
 5308               		.loc 1 589 0 discriminator 4
 5309 2046 8B85      		ldd r24,Y+11
 5310 2048 9C85      		ldd r25,Y+12
 5311 204a 0297      		sbiw r24,2
 5312 204c 04F4      		brge .+2
 5313 204e 00C0      		rjmp .L182
 590:lp_solve_5.5/shared/commonlib.c ****     goto Finish;
 591:lp_solve_5.5/shared/commonlib.c ****   attributes = (void *) CMP_ATTRIBUTES(offset);
 5314               		.loc 1 591 0
 5315 2050 2D85      		ldd r18,Y+13
 5316 2052 3E85      		ldd r19,Y+14
 5317 2054 8F85      		ldd r24,Y+15
 5318 2056 9889      		ldd r25,Y+16
 5319 2058 289F      		mul r18,r24
 5320 205a A001      		movw r20,r0
 5321 205c 299F      		mul r18,r25
 5322 205e 500D      		add r21,r0
 5323 2060 389F      		mul r19,r24
 5324 2062 500D      		add r21,r0
 5325 2064 1124      		clr r1
 5326 2066 9A01      		movw r18,r20
 5327 2068 8985      		ldd r24,Y+9
 5328 206a 9A85      		ldd r25,Y+10
 5329 206c 820F      		add r24,r18
 5330 206e 931F      		adc r25,r19
 5331 2070 9A87      		std Y+10,r25
 5332 2072 8987      		std Y+9,r24
 592:lp_solve_5.5/shared/commonlib.c ****   save = (char *) malloc(recsize);
 5333               		.loc 1 592 0
 5334 2074 8F85      		ldd r24,Y+15
 5335 2076 9889      		ldd r25,Y+16
 5336 2078 0E94 0000 		call malloc
 5337 207c 9C83      		std Y+4,r25
 5338 207e 8B83      		std Y+3,r24
 593:lp_solve_5.5/shared/commonlib.c ****   if((tagsize <= 0) && (tags != NULL))
 5339               		.loc 1 593 0
 5340 2080 8E89      		ldd r24,Y+22
 5341 2082 9F89      		ldd r25,Y+23
 5342 2084 1816      		cp __zero_reg__,r24
 5343 2086 1906      		cpc __zero_reg__,r25
 5344 2088 04F0      		brlt .L177
 5345               		.loc 1 593 0 is_stmt 0 discriminator 1
 5346 208a 8C89      		ldd r24,Y+20
 5347 208c 9D89      		ldd r25,Y+21
 5348 208e 892B      		or r24,r25
 5349 2090 01F0      		breq .L177
 594:lp_solve_5.5/shared/commonlib.c ****     tags = NULL;
 5350               		.loc 1 594 0 is_stmt 1
 5351 2092 1D8A      		std Y+21,__zero_reg__
 5352 2094 1C8A      		std Y+20,__zero_reg__
 5353 2096 00C0      		rjmp .L178
 5354               	.L177:
 595:lp_solve_5.5/shared/commonlib.c ****   else if(tags != NULL) {
 5355               		.loc 1 595 0
 5356 2098 8C89      		ldd r24,Y+20
 5357 209a 9D89      		ldd r25,Y+21
 5358 209c 892B      		or r24,r25
 5359 209e 01F0      		breq .L178
 596:lp_solve_5.5/shared/commonlib.c ****     tags = (void *) CMP_TAGS(offset);
 5360               		.loc 1 596 0
 5361 20a0 2D85      		ldd r18,Y+13
 5362 20a2 3E85      		ldd r19,Y+14
 5363 20a4 8E89      		ldd r24,Y+22
 5364 20a6 9F89      		ldd r25,Y+23
 5365 20a8 289F      		mul r18,r24
 5366 20aa A001      		movw r20,r0
 5367 20ac 299F      		mul r18,r25
 5368 20ae 500D      		add r21,r0
 5369 20b0 389F      		mul r19,r24
 5370 20b2 500D      		add r21,r0
 5371 20b4 1124      		clr r1
 5372 20b6 9A01      		movw r18,r20
 5373 20b8 8C89      		ldd r24,Y+20
 5374 20ba 9D89      		ldd r25,Y+21
 5375 20bc 820F      		add r24,r18
 5376 20be 931F      		adc r25,r19
 5377 20c0 9D8B      		std Y+21,r25
 5378 20c2 8C8B      		std Y+20,r24
 597:lp_solve_5.5/shared/commonlib.c ****     savetag = (char *) malloc(tagsize);
 5379               		.loc 1 597 0
 5380 20c4 8E89      		ldd r24,Y+22
 5381 20c6 9F89      		ldd r25,Y+23
 5382 20c8 0E94 0000 		call malloc
 5383 20cc 9E83      		std Y+6,r25
 5384 20ce 8D83      		std Y+5,r24
 5385               	.L178:
 598:lp_solve_5.5/shared/commonlib.c ****   }
 599:lp_solve_5.5/shared/commonlib.c ****   count--;
 5386               		.loc 1 599 0
 5387 20d0 8B85      		ldd r24,Y+11
 5388 20d2 9C85      		ldd r25,Y+12
 5389 20d4 0197      		sbiw r24,1
 5390 20d6 9C87      		std Y+12,r25
 5391 20d8 8B87      		std Y+11,r24
 600:lp_solve_5.5/shared/commonlib.c **** 
 601:lp_solve_5.5/shared/commonlib.c ****   /* Perform sort */
 602:lp_solve_5.5/shared/commonlib.c ****   iswaps = qsortex_sort(attributes, 0, count, recsize, sortorder, findCompare, tags, tagsize, save,
 5392               		.loc 1 602 0
 5393 20da EB80      		ldd r14,Y+3
 5394 20dc FC80      		ldd r15,Y+4
 5395 20de 0E89      		ldd r16,Y+22
 5396 20e0 1F89      		ldd r17,Y+23
 5397 20e2 AC89      		ldd r26,Y+20
 5398 20e4 BD89      		ldd r27,Y+21
 5399 20e6 EA89      		ldd r30,Y+18
 5400 20e8 FB89      		ldd r31,Y+19
 5401 20ea 6F81      		ldd r22,Y+7
 5402 20ec 7885      		ldd r23,Y+8
 5403 20ee 2F85      		ldd r18,Y+15
 5404 20f0 3889      		ldd r19,Y+16
 5405 20f2 4B85      		ldd r20,Y+11
 5406 20f4 5C85      		ldd r21,Y+12
 5407 20f6 8985      		ldd r24,Y+9
 5408 20f8 9A85      		ldd r25,Y+10
 5409 20fa DE80      		ldd r13,Y+6
 5410 20fc DF92      		push r13
 5411 20fe DD80      		ldd r13,Y+5
 5412 2100 DF92      		push r13
 5413 2102 4701      		movw r8,r14
 5414 2104 5801      		movw r10,r16
 5415 2106 6D01      		movw r12,r26
 5416 2108 7F01      		movw r14,r30
 5417 210a 8B01      		movw r16,r22
 5418 210c 60E0      		ldi r22,0
 5419 210e 70E0      		ldi r23,0
 5420 2110 0E94 0000 		call qsortex_sort
 5421 2114 0F90      		pop __tmp_reg__
 5422 2116 0F90      		pop __tmp_reg__
 5423 2118 9A83      		std Y+2,r25
 5424 211a 8983      		std Y+1,r24
 603:lp_solve_5.5/shared/commonlib.c **** #if QS_IS_switch > 0
 604:lp_solve_5.5/shared/commonlib.c ****   iswaps += qsortex_finish(attributes, 0, count, recsize, sortorder, findCompare, tags, tagsize, sa
 5425               		.loc 1 604 0
 5426 211c EB80      		ldd r14,Y+3
 5427 211e FC80      		ldd r15,Y+4
 5428 2120 0E89      		ldd r16,Y+22
 5429 2122 1F89      		ldd r17,Y+23
 5430 2124 AC89      		ldd r26,Y+20
 5431 2126 BD89      		ldd r27,Y+21
 5432 2128 EA89      		ldd r30,Y+18
 5433 212a FB89      		ldd r31,Y+19
 5434 212c 6F81      		ldd r22,Y+7
 5435 212e 7885      		ldd r23,Y+8
 5436 2130 2F85      		ldd r18,Y+15
 5437 2132 3889      		ldd r19,Y+16
 5438 2134 4B85      		ldd r20,Y+11
 5439 2136 5C85      		ldd r21,Y+12
 5440 2138 8985      		ldd r24,Y+9
 5441 213a 9A85      		ldd r25,Y+10
 5442 213c DE80      		ldd r13,Y+6
 5443 213e DF92      		push r13
 5444 2140 DD80      		ldd r13,Y+5
 5445 2142 DF92      		push r13
 5446 2144 4701      		movw r8,r14
 5447 2146 5801      		movw r10,r16
 5448 2148 6D01      		movw r12,r26
 5449 214a 7F01      		movw r14,r30
 5450 214c 8B01      		movw r16,r22
 5451 214e 60E0      		ldi r22,0
 5452 2150 70E0      		ldi r23,0
 5453 2152 0E94 0000 		call qsortex_finish
 5454 2156 0F90      		pop __tmp_reg__
 5455 2158 0F90      		pop __tmp_reg__
 5456 215a 9C01      		movw r18,r24
 5457 215c 8981      		ldd r24,Y+1
 5458 215e 9A81      		ldd r25,Y+2
 5459 2160 820F      		add r24,r18
 5460 2162 931F      		adc r25,r19
 5461 2164 9A83      		std Y+2,r25
 5462 2166 8983      		std Y+1,r24
 5463 2168 00C0      		rjmp .L176
 5464               	.L182:
 590:lp_solve_5.5/shared/commonlib.c ****   attributes = (void *) CMP_ATTRIBUTES(offset);
 5465               		.loc 1 590 0
 5466 216a 0000      		nop
 5467               	.L176:
 605:lp_solve_5.5/shared/commonlib.c **** #endif
 606:lp_solve_5.5/shared/commonlib.c **** 
 607:lp_solve_5.5/shared/commonlib.c **** Finish:
 608:lp_solve_5.5/shared/commonlib.c ****   FREE(save);
 5468               		.loc 1 608 0
 5469 216c 8B81      		ldd r24,Y+3
 5470 216e 9C81      		ldd r25,Y+4
 5471 2170 892B      		or r24,r25
 5472 2172 01F0      		breq .L179
 5473               		.loc 1 608 0 is_stmt 0 discriminator 1
 5474 2174 8B81      		ldd r24,Y+3
 5475 2176 9C81      		ldd r25,Y+4
 5476 2178 0E94 0000 		call free
 5477 217c 1C82      		std Y+4,__zero_reg__
 5478 217e 1B82      		std Y+3,__zero_reg__
 5479               	.L179:
 609:lp_solve_5.5/shared/commonlib.c ****   FREE(savetag);
 5480               		.loc 1 609 0 is_stmt 1
 5481 2180 8D81      		ldd r24,Y+5
 5482 2182 9E81      		ldd r25,Y+6
 5483 2184 892B      		or r24,r25
 5484 2186 01F0      		breq .L180
 5485               		.loc 1 609 0 is_stmt 0 discriminator 1
 5486 2188 8D81      		ldd r24,Y+5
 5487 218a 9E81      		ldd r25,Y+6
 5488 218c 0E94 0000 		call free
 5489 2190 1E82      		std Y+6,__zero_reg__
 5490 2192 1D82      		std Y+5,__zero_reg__
 5491               	.L180:
 610:lp_solve_5.5/shared/commonlib.c ****   return( iswaps );
 5492               		.loc 1 610 0 is_stmt 1
 5493 2194 8981      		ldd r24,Y+1
 5494 2196 9A81      		ldd r25,Y+2
 5495               	/* epilogue start */
 611:lp_solve_5.5/shared/commonlib.c **** }
 5496               		.loc 1 611 0
 5497 2198 6796      		adiw r28,23
 5498 219a 0FB6      		in __tmp_reg__,__SREG__
 5499 219c F894      		cli
 5500 219e DEBF      		out __SP_H__,r29
 5501 21a0 0FBE      		out __SREG__,__tmp_reg__
 5502 21a2 CDBF      		out __SP_L__,r28
 5503 21a4 DF91      		pop r29
 5504 21a6 CF91      		pop r28
 5505 21a8 1F91      		pop r17
 5506 21aa 0F91      		pop r16
 5507 21ac FF90      		pop r15
 5508 21ae EF90      		pop r14
 5509 21b0 DF90      		pop r13
 5510 21b2 CF90      		pop r12
 5511 21b4 BF90      		pop r11
 5512 21b6 AF90      		pop r10
 5513 21b8 9F90      		pop r9
 5514 21ba 8F90      		pop r8
 5515 21bc 0895      		ret
 5516               		.cfi_endproc
 5517               	.LFE25:
 5519               	.global	QS_swap
 5521               	QS_swap:
 5522               	.LFB26:
 612:lp_solve_5.5/shared/commonlib.c **** 
 613:lp_solve_5.5/shared/commonlib.c **** #undef QS_IS_switch
 614:lp_solve_5.5/shared/commonlib.c **** 
 615:lp_solve_5.5/shared/commonlib.c **** /* This is a "specialized generic" version of C.A.R Hoare's Quick Sort algorithm.
 616:lp_solve_5.5/shared/commonlib.c ****    It will handle arrays that are already sorted, and arrays with duplicate keys.
 617:lp_solve_5.5/shared/commonlib.c ****    The implementation here requires the user to pass a comparison operator and
 618:lp_solve_5.5/shared/commonlib.c ****    assumes that the array passed has the QSORTrec format, which i.a. includes
 619:lp_solve_5.5/shared/commonlib.c ****    the ability for to do linked list sorting. If the passed comparison operator
 620:lp_solve_5.5/shared/commonlib.c ****    is NULL, the comparison is assumed to be for integers. */
 621:lp_solve_5.5/shared/commonlib.c **** #define QS_IS_switch 4    /* Threshold for switching to insertion sort */
 622:lp_solve_5.5/shared/commonlib.c **** 
 623:lp_solve_5.5/shared/commonlib.c **** void QS_swap(UNIONTYPE QSORTrec a[], int i, int j)
 624:lp_solve_5.5/shared/commonlib.c **** {
 5523               		.loc 1 624 0
 5524               		.cfi_startproc
 5525 21be CF93      		push r28
 5526               	.LCFI170:
 5527               		.cfi_def_cfa_offset 3
 5528               		.cfi_offset 28, -2
 5529 21c0 DF93      		push r29
 5530               	.LCFI171:
 5531               		.cfi_def_cfa_offset 4
 5532               		.cfi_offset 29, -3
 5533 21c2 CDB7      		in r28,__SP_L__
 5534 21c4 DEB7      		in r29,__SP_H__
 5535               	.LCFI172:
 5536               		.cfi_def_cfa_register 28
 5537 21c6 2E97      		sbiw r28,14
 5538               	.LCFI173:
 5539               		.cfi_def_cfa_offset 18
 5540 21c8 0FB6      		in __tmp_reg__,__SREG__
 5541 21ca F894      		cli
 5542 21cc DEBF      		out __SP_H__,r29
 5543 21ce 0FBE      		out __SREG__,__tmp_reg__
 5544 21d0 CDBF      		out __SP_L__,r28
 5545               	/* prologue: function */
 5546               	/* frame size = 14 */
 5547               	/* stack size = 16 */
 5548               	.L__stack_usage = 16
 5549 21d2 9A87      		std Y+10,r25
 5550 21d4 8987      		std Y+9,r24
 5551 21d6 7C87      		std Y+12,r23
 5552 21d8 6B87      		std Y+11,r22
 5553 21da 5E87      		std Y+14,r21
 5554 21dc 4D87      		std Y+13,r20
 625:lp_solve_5.5/shared/commonlib.c ****   UNIONTYPE QSORTrec T = a[i];
 5555               		.loc 1 625 0
 5556 21de 8B85      		ldd r24,Y+11
 5557 21e0 9C85      		ldd r25,Y+12
 5558 21e2 880F      		lsl r24
 5559 21e4 991F      		rol r25
 5560 21e6 880F      		lsl r24
 5561 21e8 991F      		rol r25
 5562 21ea 880F      		lsl r24
 5563 21ec 991F      		rol r25
 5564 21ee 2985      		ldd r18,Y+9
 5565 21f0 3A85      		ldd r19,Y+10
 5566 21f2 820F      		add r24,r18
 5567 21f4 931F      		adc r25,r19
 5568 21f6 28E0      		ldi r18,lo8(8)
 5569 21f8 FC01      		movw r30,r24
 5570 21fa CE01      		movw r24,r28
 5571 21fc 0196      		adiw r24,1
 5572 21fe DC01      		movw r26,r24
 5573               		0:
 5574 2200 0190      		ld r0,Z+
 5575 2202 0D92      		st X+,r0
 5576 2204 2A95      		dec r18
 5577 2206 01F4      		brne 0b
 626:lp_solve_5.5/shared/commonlib.c ****   a[i] = a[j];
 5578               		.loc 1 626 0
 5579 2208 8B85      		ldd r24,Y+11
 5580 220a 9C85      		ldd r25,Y+12
 5581 220c 880F      		lsl r24
 5582 220e 991F      		rol r25
 5583 2210 880F      		lsl r24
 5584 2212 991F      		rol r25
 5585 2214 880F      		lsl r24
 5586 2216 991F      		rol r25
 5587 2218 2985      		ldd r18,Y+9
 5588 221a 3A85      		ldd r19,Y+10
 5589 221c A901      		movw r20,r18
 5590 221e 480F      		add r20,r24
 5591 2220 591F      		adc r21,r25
 5592 2222 8D85      		ldd r24,Y+13
 5593 2224 9E85      		ldd r25,Y+14
 5594 2226 880F      		lsl r24
 5595 2228 991F      		rol r25
 5596 222a 880F      		lsl r24
 5597 222c 991F      		rol r25
 5598 222e 880F      		lsl r24
 5599 2230 991F      		rol r25
 5600 2232 2985      		ldd r18,Y+9
 5601 2234 3A85      		ldd r19,Y+10
 5602 2236 820F      		add r24,r18
 5603 2238 931F      		adc r25,r19
 5604 223a 28E0      		ldi r18,lo8(8)
 5605 223c FC01      		movw r30,r24
 5606 223e DA01      		movw r26,r20
 5607               		0:
 5608 2240 0190      		ld r0,Z+
 5609 2242 0D92      		st X+,r0
 5610 2244 2A95      		dec r18
 5611 2246 01F4      		brne 0b
 627:lp_solve_5.5/shared/commonlib.c ****   a[j] = T;
 5612               		.loc 1 627 0
 5613 2248 8D85      		ldd r24,Y+13
 5614 224a 9E85      		ldd r25,Y+14
 5615 224c 880F      		lsl r24
 5616 224e 991F      		rol r25
 5617 2250 880F      		lsl r24
 5618 2252 991F      		rol r25
 5619 2254 880F      		lsl r24
 5620 2256 991F      		rol r25
 5621 2258 2985      		ldd r18,Y+9
 5622 225a 3A85      		ldd r19,Y+10
 5623 225c 820F      		add r24,r18
 5624 225e 931F      		adc r25,r19
 5625 2260 48E0      		ldi r20,lo8(8)
 5626 2262 9E01      		movw r18,r28
 5627 2264 2F5F      		subi r18,-1
 5628 2266 3F4F      		sbci r19,-1
 5629 2268 F901      		movw r30,r18
 5630 226a DC01      		movw r26,r24
 5631               		0:
 5632 226c 0190      		ld r0,Z+
 5633 226e 0D92      		st X+,r0
 5634 2270 4A95      		dec r20
 5635 2272 01F4      		brne 0b
 628:lp_solve_5.5/shared/commonlib.c **** }
 5636               		.loc 1 628 0
 5637 2274 0000      		nop
 5638               	/* epilogue start */
 5639 2276 2E96      		adiw r28,14
 5640 2278 0FB6      		in __tmp_reg__,__SREG__
 5641 227a F894      		cli
 5642 227c DEBF      		out __SP_H__,r29
 5643 227e 0FBE      		out __SREG__,__tmp_reg__
 5644 2280 CDBF      		out __SP_L__,r28
 5645 2282 DF91      		pop r29
 5646 2284 CF91      		pop r28
 5647 2286 0895      		ret
 5648               		.cfi_endproc
 5649               	.LFE26:
 5651               	.global	QS_addfirst
 5653               	QS_addfirst:
 5654               	.LFB27:
 629:lp_solve_5.5/shared/commonlib.c **** int QS_addfirst(UNIONTYPE QSORTrec a[], void *mydata)
 630:lp_solve_5.5/shared/commonlib.c **** {
 5655               		.loc 1 630 0
 5656               		.cfi_startproc
 5657 2288 CF93      		push r28
 5658               	.LCFI174:
 5659               		.cfi_def_cfa_offset 3
 5660               		.cfi_offset 28, -2
 5661 228a DF93      		push r29
 5662               	.LCFI175:
 5663               		.cfi_def_cfa_offset 4
 5664               		.cfi_offset 29, -3
 5665 228c 00D0      		rcall .
 5666 228e 00D0      		rcall .
 5667               	.LCFI176:
 5668               		.cfi_def_cfa_offset 8
 5669 2290 CDB7      		in r28,__SP_L__
 5670 2292 DEB7      		in r29,__SP_H__
 5671               	.LCFI177:
 5672               		.cfi_def_cfa_register 28
 5673               	/* prologue: function */
 5674               	/* frame size = 4 */
 5675               	/* stack size = 6 */
 5676               	.L__stack_usage = 6
 5677 2294 9A83      		std Y+2,r25
 5678 2296 8983      		std Y+1,r24
 5679 2298 7C83      		std Y+4,r23
 5680 229a 6B83      		std Y+3,r22
 631:lp_solve_5.5/shared/commonlib.c ****   a[0].pvoid2.ptr = mydata;
 5681               		.loc 1 631 0
 5682 229c 8981      		ldd r24,Y+1
 5683 229e 9A81      		ldd r25,Y+2
 5684 22a0 2B81      		ldd r18,Y+3
 5685 22a2 3C81      		ldd r19,Y+4
 5686 22a4 FC01      		movw r30,r24
 5687 22a6 3183      		std Z+1,r19
 5688 22a8 2083      		st Z,r18
 632:lp_solve_5.5/shared/commonlib.c ****   return( 0 );
 5689               		.loc 1 632 0
 5690 22aa 80E0      		ldi r24,0
 5691 22ac 90E0      		ldi r25,0
 5692               	/* epilogue start */
 633:lp_solve_5.5/shared/commonlib.c **** }
 5693               		.loc 1 633 0
 5694 22ae 0F90      		pop __tmp_reg__
 5695 22b0 0F90      		pop __tmp_reg__
 5696 22b2 0F90      		pop __tmp_reg__
 5697 22b4 0F90      		pop __tmp_reg__
 5698 22b6 DF91      		pop r29
 5699 22b8 CF91      		pop r28
 5700 22ba 0895      		ret
 5701               		.cfi_endproc
 5702               	.LFE27:
 5704               	.global	QS_append
 5706               	QS_append:
 5707               	.LFB28:
 634:lp_solve_5.5/shared/commonlib.c **** int QS_append(UNIONTYPE QSORTrec a[], int ipos, void *mydata)
 635:lp_solve_5.5/shared/commonlib.c **** {
 5708               		.loc 1 635 0
 5709               		.cfi_startproc
 5710 22bc CF93      		push r28
 5711               	.LCFI178:
 5712               		.cfi_def_cfa_offset 3
 5713               		.cfi_offset 28, -2
 5714 22be DF93      		push r29
 5715               	.LCFI179:
 5716               		.cfi_def_cfa_offset 4
 5717               		.cfi_offset 29, -3
 5718 22c0 00D0      		rcall .
 5719 22c2 00D0      		rcall .
 5720 22c4 00D0      		rcall .
 5721               	.LCFI180:
 5722               		.cfi_def_cfa_offset 10
 5723 22c6 CDB7      		in r28,__SP_L__
 5724 22c8 DEB7      		in r29,__SP_H__
 5725               	.LCFI181:
 5726               		.cfi_def_cfa_register 28
 5727               	/* prologue: function */
 5728               	/* frame size = 6 */
 5729               	/* stack size = 8 */
 5730               	.L__stack_usage = 8
 5731 22ca 9A83      		std Y+2,r25
 5732 22cc 8983      		std Y+1,r24
 5733 22ce 7C83      		std Y+4,r23
 5734 22d0 6B83      		std Y+3,r22
 5735 22d2 5E83      		std Y+6,r21
 5736 22d4 4D83      		std Y+5,r20
 636:lp_solve_5.5/shared/commonlib.c ****   if(ipos <= 0)
 5737               		.loc 1 636 0
 5738 22d6 8B81      		ldd r24,Y+3
 5739 22d8 9C81      		ldd r25,Y+4
 5740 22da 1816      		cp __zero_reg__,r24
 5741 22dc 1906      		cpc __zero_reg__,r25
 5742 22de 04F0      		brlt .L187
 637:lp_solve_5.5/shared/commonlib.c ****     ipos = QS_addfirst(a, mydata);
 5743               		.loc 1 637 0
 5744 22e0 2D81      		ldd r18,Y+5
 5745 22e2 3E81      		ldd r19,Y+6
 5746 22e4 8981      		ldd r24,Y+1
 5747 22e6 9A81      		ldd r25,Y+2
 5748 22e8 B901      		movw r22,r18
 5749 22ea 0E94 0000 		call QS_addfirst
 5750 22ee 9C83      		std Y+4,r25
 5751 22f0 8B83      		std Y+3,r24
 5752 22f2 00C0      		rjmp .L188
 5753               	.L187:
 638:lp_solve_5.5/shared/commonlib.c ****   else
 639:lp_solve_5.5/shared/commonlib.c ****     a[ipos].pvoid2.ptr = mydata;
 5754               		.loc 1 639 0
 5755 22f4 8B81      		ldd r24,Y+3
 5756 22f6 9C81      		ldd r25,Y+4
 5757 22f8 880F      		lsl r24
 5758 22fa 991F      		rol r25
 5759 22fc 880F      		lsl r24
 5760 22fe 991F      		rol r25
 5761 2300 880F      		lsl r24
 5762 2302 991F      		rol r25
 5763 2304 2981      		ldd r18,Y+1
 5764 2306 3A81      		ldd r19,Y+2
 5765 2308 820F      		add r24,r18
 5766 230a 931F      		adc r25,r19
 5767 230c 2D81      		ldd r18,Y+5
 5768 230e 3E81      		ldd r19,Y+6
 5769 2310 FC01      		movw r30,r24
 5770 2312 3183      		std Z+1,r19
 5771 2314 2083      		st Z,r18
 5772               	.L188:
 640:lp_solve_5.5/shared/commonlib.c ****   return( ipos );
 5773               		.loc 1 640 0
 5774 2316 8B81      		ldd r24,Y+3
 5775 2318 9C81      		ldd r25,Y+4
 5776               	/* epilogue start */
 641:lp_solve_5.5/shared/commonlib.c **** }
 5777               		.loc 1 641 0
 5778 231a 2696      		adiw r28,6
 5779 231c 0FB6      		in __tmp_reg__,__SREG__
 5780 231e F894      		cli
 5781 2320 DEBF      		out __SP_H__,r29
 5782 2322 0FBE      		out __SREG__,__tmp_reg__
 5783 2324 CDBF      		out __SP_L__,r28
 5784 2326 DF91      		pop r29
 5785 2328 CF91      		pop r28
 5786 232a 0895      		ret
