   1               		.file	"myblas.c"
   2               	__SP_H__ = 0x3e
   3               	__SP_L__ = 0x3d
   4               	__SREG__ = 0x3f
   5               	__RAMPZ__ = 0x3b
   6               	__tmp_reg__ = 0
   7               	__zero_reg__ = 1
   8               		.text
   9               	.Ltext0:
  10               		.cfi_sections	.debug_frame
  11               	.global	mustinitBLAS
  12               		.section	.data.mustinitBLAS,"aw",@progbits
  15               	mustinitBLAS:
  16 0000 01        		.byte	1
  17               	.global	hBLAS
  18               		.section	.bss.hBLAS,"aw",@nobits
  21               	hBLAS:
  22 0000 0000      		.zero	2
  23               		.comm	BLAS_dscal,2,1
  24               		.comm	BLAS_dcopy,2,1
  25               		.comm	BLAS_daxpy,2,1
  26               		.comm	BLAS_dswap,2,1
  27               		.comm	BLAS_ddot,2,1
  28               		.comm	BLAS_idamax,2,1
  29               		.comm	BLAS_dload,2,1
  30               		.comm	BLAS_dnormi,2,1
  31               		.text
  32               	.global	init_BLAS
  34               	init_BLAS:
  35               	.LFB7:
  36               		.file 1 "lp_solve_5.5/shared/myblas.c"
   1:lp_solve_5.5/shared/myblas.c **** 
   2:lp_solve_5.5/shared/myblas.c **** #include <stdlib.h>
   3:lp_solve_5.5/shared/myblas.c **** #include <stdio.h>
   4:lp_solve_5.5/shared/myblas.c **** /*#include <memory.h>*/
   5:lp_solve_5.5/shared/myblas.c **** #include <string.h>
   6:lp_solve_5.5/shared/myblas.c **** #include <math.h>
   7:lp_solve_5.5/shared/myblas.c **** #include "myblas.h"
   8:lp_solve_5.5/shared/myblas.c **** 
   9:lp_solve_5.5/shared/myblas.c **** #ifdef FORTIFY
  10:lp_solve_5.5/shared/myblas.c **** # include "lp_fortify.h"
  11:lp_solve_5.5/shared/myblas.c **** #endif
  12:lp_solve_5.5/shared/myblas.c **** 
  13:lp_solve_5.5/shared/myblas.c **** /* ************************************************************************ */
  14:lp_solve_5.5/shared/myblas.c **** /* Initialize BLAS interfacing routines                                     */
  15:lp_solve_5.5/shared/myblas.c **** /* ************************************************************************ */
  16:lp_solve_5.5/shared/myblas.c **** MYBOOL mustinitBLAS = TRUE;
  17:lp_solve_5.5/shared/myblas.c **** #ifdef WIN32
  18:lp_solve_5.5/shared/myblas.c ****   HINSTANCE hBLAS = NULL;
  19:lp_solve_5.5/shared/myblas.c **** #else
  20:lp_solve_5.5/shared/myblas.c ****   void      *hBLAS = NULL;
  21:lp_solve_5.5/shared/myblas.c **** #endif
  22:lp_solve_5.5/shared/myblas.c **** 
  23:lp_solve_5.5/shared/myblas.c **** 
  24:lp_solve_5.5/shared/myblas.c **** /* ************************************************************************ */
  25:lp_solve_5.5/shared/myblas.c **** /* Function pointers for external BLAS library (C base 0)                   */
  26:lp_solve_5.5/shared/myblas.c **** /* ************************************************************************ */
  27:lp_solve_5.5/shared/myblas.c **** BLAS_dscal_func  *BLAS_dscal;
  28:lp_solve_5.5/shared/myblas.c **** BLAS_dcopy_func  *BLAS_dcopy;
  29:lp_solve_5.5/shared/myblas.c **** BLAS_daxpy_func  *BLAS_daxpy;
  30:lp_solve_5.5/shared/myblas.c **** BLAS_dswap_func  *BLAS_dswap;
  31:lp_solve_5.5/shared/myblas.c **** BLAS_ddot_func   *BLAS_ddot;
  32:lp_solve_5.5/shared/myblas.c **** BLAS_idamax_func *BLAS_idamax;
  33:lp_solve_5.5/shared/myblas.c **** BLAS_dload_func  *BLAS_dload;
  34:lp_solve_5.5/shared/myblas.c **** BLAS_dnormi_func *BLAS_dnormi;
  35:lp_solve_5.5/shared/myblas.c **** 
  36:lp_solve_5.5/shared/myblas.c **** 
  37:lp_solve_5.5/shared/myblas.c **** /* ************************************************************************ */
  38:lp_solve_5.5/shared/myblas.c **** /* Define the BLAS interfacing routines                                     */
  39:lp_solve_5.5/shared/myblas.c **** /* ************************************************************************ */
  40:lp_solve_5.5/shared/myblas.c **** 
  41:lp_solve_5.5/shared/myblas.c **** void init_BLAS(void)
  42:lp_solve_5.5/shared/myblas.c **** {
  37               		.loc 1 42 0
  38               		.cfi_startproc
  39 0000 CF93      		push r28
  40               	.LCFI0:
  41               		.cfi_def_cfa_offset 3
  42               		.cfi_offset 28, -2
  43 0002 DF93      		push r29
  44               	.LCFI1:
  45               		.cfi_def_cfa_offset 4
  46               		.cfi_offset 29, -3
  47 0004 CDB7      		in r28,__SP_L__
  48 0006 DEB7      		in r29,__SP_H__
  49               	.LCFI2:
  50               		.cfi_def_cfa_register 28
  51               	/* prologue: function */
  52               	/* frame size = 0 */
  53               	/* stack size = 2 */
  54               	.L__stack_usage = 2
  43:lp_solve_5.5/shared/myblas.c ****   if(mustinitBLAS) {
  55               		.loc 1 43 0
  56 0008 8091 0000 		lds r24,mustinitBLAS
  57 000c 8823      		tst r24
  58 000e 01F0      		breq .L3
  44:lp_solve_5.5/shared/myblas.c ****     load_BLAS(NULL);
  59               		.loc 1 44 0
  60 0010 80E0      		ldi r24,0
  61 0012 90E0      		ldi r25,0
  62 0014 0E94 0000 		call load_BLAS
  45:lp_solve_5.5/shared/myblas.c ****     mustinitBLAS = FALSE;
  63               		.loc 1 45 0
  64 0018 1092 0000 		sts mustinitBLAS,__zero_reg__
  65               	.L3:
  46:lp_solve_5.5/shared/myblas.c ****   }
  47:lp_solve_5.5/shared/myblas.c **** }
  66               		.loc 1 47 0
  67 001c 0000      		nop
  68               	/* epilogue start */
  69 001e DF91      		pop r29
  70 0020 CF91      		pop r28
  71 0022 0895      		ret
  72               		.cfi_endproc
  73               	.LFE7:
  75               	.global	is_nativeBLAS
  77               	is_nativeBLAS:
  78               	.LFB8:
  48:lp_solve_5.5/shared/myblas.c **** 
  49:lp_solve_5.5/shared/myblas.c **** MYBOOL is_nativeBLAS(void)
  50:lp_solve_5.5/shared/myblas.c **** {
  79               		.loc 1 50 0
  80               		.cfi_startproc
  81 0024 CF93      		push r28
  82               	.LCFI3:
  83               		.cfi_def_cfa_offset 3
  84               		.cfi_offset 28, -2
  85 0026 DF93      		push r29
  86               	.LCFI4:
  87               		.cfi_def_cfa_offset 4
  88               		.cfi_offset 29, -3
  89 0028 CDB7      		in r28,__SP_L__
  90 002a DEB7      		in r29,__SP_H__
  91               	.LCFI5:
  92               		.cfi_def_cfa_register 28
  93               	/* prologue: function */
  94               	/* frame size = 0 */
  95               	/* stack size = 2 */
  96               	.L__stack_usage = 2
  51:lp_solve_5.5/shared/myblas.c **** #ifdef LoadableBlasLib
  52:lp_solve_5.5/shared/myblas.c ****   return( (MYBOOL) (hBLAS == NULL) );
  97               		.loc 1 52 0
  98 002c 8091 0000 		lds r24,hBLAS
  99 0030 9091 0000 		lds r25,hBLAS+1
 100 0034 21E0      		ldi r18,lo8(1)
 101 0036 892B      		or r24,r25
 102 0038 01F0      		breq .L5
 103 003a 20E0      		ldi r18,0
 104               	.L5:
 105 003c 822F      		mov r24,r18
 106               	/* epilogue start */
  53:lp_solve_5.5/shared/myblas.c **** #else
  54:lp_solve_5.5/shared/myblas.c ****   return( TRUE );
  55:lp_solve_5.5/shared/myblas.c **** #endif
  56:lp_solve_5.5/shared/myblas.c **** }
 107               		.loc 1 56 0
 108 003e DF91      		pop r29
 109 0040 CF91      		pop r28
 110 0042 0895      		ret
 111               		.cfi_endproc
 112               	.LFE8:
 114               		.section	.rodata
 115               	.LC0:
 116 0000 6C69 6200 		.string	"lib"
 117               	.LC1:
 118 0004 2E73 6F00 		.string	".so"
 119               	.LC2:
 120 0008 6473 6361 		.string	"dscal"
 120      6C00 
 121               	.LC3:
 122 000e 6463 6F70 		.string	"dcopy"
 122      7900 
 123               	.LC4:
 124 0014 6461 7870 		.string	"daxpy"
 124      7900 
 125               	.LC5:
 126 001a 6473 7761 		.string	"dswap"
 126      7000 
 127               	.LC6:
 128 0020 6464 6F74 		.string	"ddot"
 128      00
 129               	.LC7:
 130 0025 6964 616D 		.string	"idamax"
 130      6178 00
 131               		.text
 132               	.global	load_BLAS
 134               	load_BLAS:
 135               	.LFB9:
  57:lp_solve_5.5/shared/myblas.c **** 
  58:lp_solve_5.5/shared/myblas.c **** MYBOOL load_BLAS(char *libname)
  59:lp_solve_5.5/shared/myblas.c **** {
 136               		.loc 1 59 0
 137               		.cfi_startproc
 138 0044 CF93      		push r28
 139               	.LCFI6:
 140               		.cfi_def_cfa_offset 3
 141               		.cfi_offset 28, -2
 142 0046 DF93      		push r29
 143               	.LCFI7:
 144               		.cfi_def_cfa_offset 4
 145               		.cfi_offset 29, -3
 146 0048 CDB7      		in r28,__SP_L__
 147 004a DEB7      		in r29,__SP_H__
 148               	.LCFI8:
 149               		.cfi_def_cfa_register 28
 150 004c C950      		subi r28,9
 151 004e D140      		sbci r29,1
 152               	.LCFI9:
 153               		.cfi_def_cfa_offset 269
 154 0050 0FB6      		in __tmp_reg__,__SREG__
 155 0052 F894      		cli
 156 0054 DEBF      		out __SP_H__,r29
 157 0056 0FBE      		out __SREG__,__tmp_reg__
 158 0058 CDBF      		out __SP_L__,r28
 159               	/* prologue: function */
 160               	/* frame size = 265 */
 161               	/* stack size = 267 */
 162               	.L__stack_usage = 267
 163 005a 9E01      		movw r18,r28
 164 005c 285F      		subi r18,-8
 165 005e 3E4F      		sbci r19,-2
 166 0060 F901      		movw r30,r18
 167 0062 9183      		std Z+1,r25
 168 0064 8083      		st Z,r24
  60:lp_solve_5.5/shared/myblas.c ****   MYBOOL result = TRUE;
 169               		.loc 1 60 0
 170 0066 81E0      		ldi r24,lo8(1)
 171 0068 8983      		std Y+1,r24
  61:lp_solve_5.5/shared/myblas.c **** 
  62:lp_solve_5.5/shared/myblas.c **** #ifdef LoadableBlasLib
  63:lp_solve_5.5/shared/myblas.c ****   if(hBLAS != NULL) {
 172               		.loc 1 63 0
 173 006a 8091 0000 		lds r24,hBLAS
 174 006e 9091 0000 		lds r25,hBLAS+1
 175 0072 892B      		or r24,r25
 176 0074 01F0      		breq .L8
  64:lp_solve_5.5/shared/myblas.c ****   #ifdef WIN32
  65:lp_solve_5.5/shared/myblas.c ****     FreeLibrary(hBLAS);
  66:lp_solve_5.5/shared/myblas.c ****   #else
  67:lp_solve_5.5/shared/myblas.c ****     dlclose(hBLAS);
 177               		.loc 1 67 0
 178 0076 8091 0000 		lds r24,hBLAS
 179 007a 9091 0000 		lds r25,hBLAS+1
 180 007e 0E94 0000 		call dlclose
  68:lp_solve_5.5/shared/myblas.c ****   #endif
  69:lp_solve_5.5/shared/myblas.c ****     hBLAS = NULL;
 181               		.loc 1 69 0
 182 0082 1092 0000 		sts hBLAS+1,__zero_reg__
 183 0086 1092 0000 		sts hBLAS,__zero_reg__
 184               	.L8:
  70:lp_solve_5.5/shared/myblas.c ****   }
  71:lp_solve_5.5/shared/myblas.c **** #endif
  72:lp_solve_5.5/shared/myblas.c **** 
  73:lp_solve_5.5/shared/myblas.c ****   if(libname == NULL) {
 185               		.loc 1 73 0
 186 008a CE01      		movw r24,r28
 187 008c 885F      		subi r24,-8
 188 008e 9E4F      		sbci r25,-2
 189 0090 FC01      		movw r30,r24
 190 0092 8081      		ld r24,Z
 191 0094 9181      		ldd r25,Z+1
 192 0096 892B      		or r24,r25
 193 0098 01F0      		breq .+2
 194 009a 00C0      		rjmp .L9
  74:lp_solve_5.5/shared/myblas.c ****     if(!mustinitBLAS && is_nativeBLAS())
 195               		.loc 1 74 0
 196 009c 8091 0000 		lds r24,mustinitBLAS
 197 00a0 8823      		tst r24
 198 00a2 01F4      		brne .L10
 199               		.loc 1 74 0 is_stmt 0 discriminator 1
 200 00a4 0E94 0000 		call is_nativeBLAS
 201 00a8 8823      		tst r24
 202 00aa 01F0      		breq .L10
  75:lp_solve_5.5/shared/myblas.c ****       return( FALSE );
 203               		.loc 1 75 0 is_stmt 1
 204 00ac 80E0      		ldi r24,0
 205 00ae 00C0      		rjmp .L11
 206               	.L10:
  76:lp_solve_5.5/shared/myblas.c ****     BLAS_dscal = my_dscal;
 207               		.loc 1 76 0
 208 00b0 80E0      		ldi r24,lo8(gs(my_dscal))
 209 00b2 90E0      		ldi r25,hi8(gs(my_dscal))
 210 00b4 9093 0000 		sts BLAS_dscal+1,r25
 211 00b8 8093 0000 		sts BLAS_dscal,r24
  77:lp_solve_5.5/shared/myblas.c ****     BLAS_dcopy = my_dcopy;
 212               		.loc 1 77 0
 213 00bc 80E0      		ldi r24,lo8(gs(my_dcopy))
 214 00be 90E0      		ldi r25,hi8(gs(my_dcopy))
 215 00c0 9093 0000 		sts BLAS_dcopy+1,r25
 216 00c4 8093 0000 		sts BLAS_dcopy,r24
  78:lp_solve_5.5/shared/myblas.c ****     BLAS_daxpy = my_daxpy;
 217               		.loc 1 78 0
 218 00c8 80E0      		ldi r24,lo8(gs(my_daxpy))
 219 00ca 90E0      		ldi r25,hi8(gs(my_daxpy))
 220 00cc 9093 0000 		sts BLAS_daxpy+1,r25
 221 00d0 8093 0000 		sts BLAS_daxpy,r24
  79:lp_solve_5.5/shared/myblas.c ****     BLAS_dswap = my_dswap;
 222               		.loc 1 79 0
 223 00d4 80E0      		ldi r24,lo8(gs(my_dswap))
 224 00d6 90E0      		ldi r25,hi8(gs(my_dswap))
 225 00d8 9093 0000 		sts BLAS_dswap+1,r25
 226 00dc 8093 0000 		sts BLAS_dswap,r24
  80:lp_solve_5.5/shared/myblas.c ****     BLAS_ddot  = my_ddot;
 227               		.loc 1 80 0
 228 00e0 80E0      		ldi r24,lo8(gs(my_ddot))
 229 00e2 90E0      		ldi r25,hi8(gs(my_ddot))
 230 00e4 9093 0000 		sts BLAS_ddot+1,r25
 231 00e8 8093 0000 		sts BLAS_ddot,r24
  81:lp_solve_5.5/shared/myblas.c ****     BLAS_idamax = my_idamax;
 232               		.loc 1 81 0
 233 00ec 80E0      		ldi r24,lo8(gs(my_idamax))
 234 00ee 90E0      		ldi r25,hi8(gs(my_idamax))
 235 00f0 9093 0000 		sts BLAS_idamax+1,r25
 236 00f4 8093 0000 		sts BLAS_idamax,r24
  82:lp_solve_5.5/shared/myblas.c ****     BLAS_dload = my_dload;
 237               		.loc 1 82 0
 238 00f8 80E0      		ldi r24,lo8(gs(my_dload))
 239 00fa 90E0      		ldi r25,hi8(gs(my_dload))
 240 00fc 9093 0000 		sts BLAS_dload+1,r25
 241 0100 8093 0000 		sts BLAS_dload,r24
  83:lp_solve_5.5/shared/myblas.c ****     BLAS_dnormi = my_dnormi;
 242               		.loc 1 83 0
 243 0104 80E0      		ldi r24,lo8(gs(my_dnormi))
 244 0106 90E0      		ldi r25,hi8(gs(my_dnormi))
 245 0108 9093 0000 		sts BLAS_dnormi+1,r25
 246 010c 8093 0000 		sts BLAS_dnormi,r24
  84:lp_solve_5.5/shared/myblas.c ****     if(mustinitBLAS)
 247               		.loc 1 84 0
 248 0110 8091 0000 		lds r24,mustinitBLAS
 249 0114 8823      		tst r24
 250 0116 01F4      		brne .+2
 251 0118 00C0      		rjmp .L13
  85:lp_solve_5.5/shared/myblas.c ****       mustinitBLAS = FALSE;
 252               		.loc 1 85 0
 253 011a 1092 0000 		sts mustinitBLAS,__zero_reg__
 254 011e 00C0      		rjmp .L13
 255               	.L9:
 256               	.LBB2:
  86:lp_solve_5.5/shared/myblas.c ****   }
  87:lp_solve_5.5/shared/myblas.c ****   else {
  88:lp_solve_5.5/shared/myblas.c **** #ifdef LoadableBlasLib
  89:lp_solve_5.5/shared/myblas.c ****   #ifdef WIN32
  90:lp_solve_5.5/shared/myblas.c ****    /* Get a handle to the Windows DLL module. */
  91:lp_solve_5.5/shared/myblas.c ****     hBLAS = LoadLibrary(libname);
  92:lp_solve_5.5/shared/myblas.c **** 
  93:lp_solve_5.5/shared/myblas.c ****    /* If the handle is valid, try to get the function addresses. */
  94:lp_solve_5.5/shared/myblas.c ****     result = (MYBOOL) (hBLAS != NULL);
  95:lp_solve_5.5/shared/myblas.c ****     if(result) {
  96:lp_solve_5.5/shared/myblas.c ****       BLAS_dscal  = (BLAS_dscal_func *)  GetProcAddress(hBLAS, BLAS_prec "scal");
  97:lp_solve_5.5/shared/myblas.c ****       BLAS_dcopy  = (BLAS_dcopy_func *)  GetProcAddress(hBLAS, BLAS_prec "copy");
  98:lp_solve_5.5/shared/myblas.c ****       BLAS_daxpy  = (BLAS_daxpy_func *)  GetProcAddress(hBLAS, BLAS_prec "axpy");
  99:lp_solve_5.5/shared/myblas.c ****       BLAS_dswap  = (BLAS_dswap_func *)  GetProcAddress(hBLAS, BLAS_prec "swap");
 100:lp_solve_5.5/shared/myblas.c ****       BLAS_ddot   = (BLAS_ddot_func *)   GetProcAddress(hBLAS, BLAS_prec "dot");
 101:lp_solve_5.5/shared/myblas.c ****       BLAS_idamax = (BLAS_idamax_func *) GetProcAddress(hBLAS, "i" BLAS_prec "amax");
 102:lp_solve_5.5/shared/myblas.c **** #if 0      
 103:lp_solve_5.5/shared/myblas.c ****       BLAS_dload  = (BLAS_dload_func *)  GetProcAddress(hBLAS, BLAS_prec "load");
 104:lp_solve_5.5/shared/myblas.c ****       BLAS_dnormi = (BLAS_dnormi_func *) GetProcAddress(hBLAS, BLAS_prec "normi");
 105:lp_solve_5.5/shared/myblas.c **** #endif      
 106:lp_solve_5.5/shared/myblas.c ****     }
 107:lp_solve_5.5/shared/myblas.c ****   #else
 108:lp_solve_5.5/shared/myblas.c ****    /* First standardize UNIX .SO library name format. */
 109:lp_solve_5.5/shared/myblas.c ****     char blasname[260], *ptr;
 110:lp_solve_5.5/shared/myblas.c **** 
 111:lp_solve_5.5/shared/myblas.c ****     strcpy(blasname, libname);
 257               		.loc 1 111 0
 258 0120 CE01      		movw r24,r28
 259 0122 885F      		subi r24,-8
 260 0124 9E4F      		sbci r25,-2
 261 0126 FC01      		movw r30,r24
 262 0128 2081      		ld r18,Z
 263 012a 3181      		ldd r19,Z+1
 264 012c CE01      		movw r24,r28
 265 012e 0496      		adiw r24,4
 266 0130 B901      		movw r22,r18
 267 0132 0E94 0000 		call strcpy
 112:lp_solve_5.5/shared/myblas.c ****     if((ptr = strrchr(libname, '/')) == NULL)
 268               		.loc 1 112 0
 269 0136 CE01      		movw r24,r28
 270 0138 885F      		subi r24,-8
 271 013a 9E4F      		sbci r25,-2
 272 013c FC01      		movw r30,r24
 273 013e 8081      		ld r24,Z
 274 0140 9181      		ldd r25,Z+1
 275 0142 6FE2      		ldi r22,lo8(47)
 276 0144 70E0      		ldi r23,0
 277 0146 0E94 0000 		call strrchr
 278 014a 9B83      		std Y+3,r25
 279 014c 8A83      		std Y+2,r24
 280 014e 8A81      		ldd r24,Y+2
 281 0150 9B81      		ldd r25,Y+3
 282 0152 892B      		or r24,r25
 283 0154 01F4      		brne .L14
 113:lp_solve_5.5/shared/myblas.c ****       ptr = libname;
 284               		.loc 1 113 0
 285 0156 CE01      		movw r24,r28
 286 0158 885F      		subi r24,-8
 287 015a 9E4F      		sbci r25,-2
 288 015c FC01      		movw r30,r24
 289 015e 8081      		ld r24,Z
 290 0160 9181      		ldd r25,Z+1
 291 0162 9B83      		std Y+3,r25
 292 0164 8A83      		std Y+2,r24
 293 0166 00C0      		rjmp .L15
 294               	.L14:
 114:lp_solve_5.5/shared/myblas.c ****     else
 115:lp_solve_5.5/shared/myblas.c ****       ptr++;
 295               		.loc 1 115 0
 296 0168 8A81      		ldd r24,Y+2
 297 016a 9B81      		ldd r25,Y+3
 298 016c 0196      		adiw r24,1
 299 016e 9B83      		std Y+3,r25
 300 0170 8A83      		std Y+2,r24
 301               	.L15:
 116:lp_solve_5.5/shared/myblas.c ****     blasname[(int) (ptr - libname)] = 0;
 302               		.loc 1 116 0
 303 0172 2A81      		ldd r18,Y+2
 304 0174 3B81      		ldd r19,Y+3
 305 0176 CE01      		movw r24,r28
 306 0178 885F      		subi r24,-8
 307 017a 9E4F      		sbci r25,-2
 308 017c FC01      		movw r30,r24
 309 017e 8081      		ld r24,Z
 310 0180 9181      		ldd r25,Z+1
 311 0182 A901      		movw r20,r18
 312 0184 481B      		sub r20,r24
 313 0186 590B      		sbc r21,r25
 314 0188 CA01      		movw r24,r20
 315 018a 9E01      		movw r18,r28
 316 018c 2C5F      		subi r18,-4
 317 018e 3F4F      		sbci r19,-1
 318 0190 820F      		add r24,r18
 319 0192 931F      		adc r25,r19
 320 0194 FC01      		movw r30,r24
 321 0196 1082      		st Z,__zero_reg__
 117:lp_solve_5.5/shared/myblas.c ****     if(strncmp(ptr, "lib", 3))
 322               		.loc 1 117 0
 323 0198 8A81      		ldd r24,Y+2
 324 019a 9B81      		ldd r25,Y+3
 325 019c 43E0      		ldi r20,lo8(3)
 326 019e 50E0      		ldi r21,0
 327 01a0 60E0      		ldi r22,lo8(.LC0)
 328 01a2 70E0      		ldi r23,hi8(.LC0)
 329 01a4 0E94 0000 		call strncmp
 330 01a8 892B      		or r24,r25
 331 01aa 01F0      		breq .L16
 118:lp_solve_5.5/shared/myblas.c ****       strcat(blasname, "lib");
 332               		.loc 1 118 0
 333 01ac CE01      		movw r24,r28
 334 01ae 0496      		adiw r24,4
 335 01b0 9C01      		movw r18,r24
 336 01b2 F901      		movw r30,r18
 337               		0:
 338 01b4 0190      		ld __tmp_reg__,Z+
 339 01b6 0020      		tst __tmp_reg__
 340 01b8 01F4      		brne 0b
 341 01ba CF01      		movw r24,r30
 342 01bc 0197      		sbiw r24,1
 343 01be 821B      		sub r24,r18
 344 01c0 930B      		sbc r25,r19
 345 01c2 9E01      		movw r18,r28
 346 01c4 2C5F      		subi r18,-4
 347 01c6 3F4F      		sbci r19,-1
 348 01c8 820F      		add r24,r18
 349 01ca 931F      		adc r25,r19
 350 01cc 2CE6      		ldi r18,lo8(108)
 351 01ce 39E6      		ldi r19,lo8(105)
 352 01d0 FC01      		movw r30,r24
 353 01d2 3183      		std Z+1,r19
 354 01d4 2083      		st Z,r18
 355 01d6 22E6      		ldi r18,lo8(98)
 356 01d8 30E0      		ldi r19,0
 357 01da FC01      		movw r30,r24
 358 01dc 3383      		std Z+3,r19
 359 01de 2283      		std Z+2,r18
 360               	.L16:
 119:lp_solve_5.5/shared/myblas.c ****     strcat(blasname, ptr);
 361               		.loc 1 119 0
 362 01e0 2A81      		ldd r18,Y+2
 363 01e2 3B81      		ldd r19,Y+3
 364 01e4 CE01      		movw r24,r28
 365 01e6 0496      		adiw r24,4
 366 01e8 B901      		movw r22,r18
 367 01ea 0E94 0000 		call strcat
 120:lp_solve_5.5/shared/myblas.c ****     if(strcmp(blasname + strlen(blasname) - 3, ".so"))
 368               		.loc 1 120 0
 369 01ee CE01      		movw r24,r28
 370 01f0 0496      		adiw r24,4
 371 01f2 0E94 0000 		call strlen
 372 01f6 0397      		sbiw r24,3
 373 01f8 9E01      		movw r18,r28
 374 01fa 2C5F      		subi r18,-4
 375 01fc 3F4F      		sbci r19,-1
 376 01fe 820F      		add r24,r18
 377 0200 931F      		adc r25,r19
 378 0202 60E0      		ldi r22,lo8(.LC1)
 379 0204 70E0      		ldi r23,hi8(.LC1)
 380 0206 0E94 0000 		call strcmp
 381 020a 892B      		or r24,r25
 382 020c 01F0      		breq .L17
 121:lp_solve_5.5/shared/myblas.c ****       strcat(blasname, ".so");
 383               		.loc 1 121 0
 384 020e CE01      		movw r24,r28
 385 0210 0496      		adiw r24,4
 386 0212 9C01      		movw r18,r24
 387 0214 F901      		movw r30,r18
 388               		0:
 389 0216 0190      		ld __tmp_reg__,Z+
 390 0218 0020      		tst __tmp_reg__
 391 021a 01F4      		brne 0b
 392 021c CF01      		movw r24,r30
 393 021e 0197      		sbiw r24,1
 394 0220 821B      		sub r24,r18
 395 0222 930B      		sbc r25,r19
 396 0224 9E01      		movw r18,r28
 397 0226 2C5F      		subi r18,-4
 398 0228 3F4F      		sbci r19,-1
 399 022a 820F      		add r24,r18
 400 022c 931F      		adc r25,r19
 401 022e 2EE2      		ldi r18,lo8(46)
 402 0230 33E7      		ldi r19,lo8(115)
 403 0232 FC01      		movw r30,r24
 404 0234 3183      		std Z+1,r19
 405 0236 2083      		st Z,r18
 406 0238 2FE6      		ldi r18,lo8(111)
 407 023a 30E0      		ldi r19,0
 408 023c FC01      		movw r30,r24
 409 023e 3383      		std Z+3,r19
 410 0240 2283      		std Z+2,r18
 411               	.L17:
 122:lp_solve_5.5/shared/myblas.c **** 
 123:lp_solve_5.5/shared/myblas.c ****    /* Get a handle to the module. */
 124:lp_solve_5.5/shared/myblas.c ****     hBLAS = dlopen(blasname, RTLD_LAZY);
 412               		.loc 1 124 0
 413 0242 CE01      		movw r24,r28
 414 0244 0496      		adiw r24,4
 415 0246 60E0      		ldi r22,0
 416 0248 70E0      		ldi r23,0
 417 024a 0E94 0000 		call dlopen
 418 024e 9093 0000 		sts hBLAS+1,r25
 419 0252 8093 0000 		sts hBLAS,r24
 125:lp_solve_5.5/shared/myblas.c **** 
 126:lp_solve_5.5/shared/myblas.c ****    /* If the handle is valid, try to get the function addresses. */
 127:lp_solve_5.5/shared/myblas.c ****     result = (MYBOOL) (hBLAS != NULL);
 420               		.loc 1 127 0
 421 0256 8091 0000 		lds r24,hBLAS
 422 025a 9091 0000 		lds r25,hBLAS+1
 423 025e 21E0      		ldi r18,lo8(1)
 424 0260 892B      		or r24,r25
 425 0262 01F4      		brne .L18
 426 0264 20E0      		ldi r18,0
 427               	.L18:
 428 0266 2983      		std Y+1,r18
 128:lp_solve_5.5/shared/myblas.c ****     if(result) {
 429               		.loc 1 128 0
 430 0268 8981      		ldd r24,Y+1
 431 026a 8823      		tst r24
 432 026c 01F4      		brne .+2
 433 026e 00C0      		rjmp .L19
 129:lp_solve_5.5/shared/myblas.c ****       BLAS_dscal  = (BLAS_dscal_func *)  dlsym(hBLAS, BLAS_prec "scal");
 434               		.loc 1 129 0
 435 0270 8091 0000 		lds r24,hBLAS
 436 0274 9091 0000 		lds r25,hBLAS+1
 437 0278 60E0      		ldi r22,lo8(.LC2)
 438 027a 70E0      		ldi r23,hi8(.LC2)
 439 027c 0E94 0000 		call dlsym
 440 0280 9093 0000 		sts BLAS_dscal+1,r25
 441 0284 8093 0000 		sts BLAS_dscal,r24
 130:lp_solve_5.5/shared/myblas.c ****       BLAS_dcopy  = (BLAS_dcopy_func *)  dlsym(hBLAS, BLAS_prec "copy");
 442               		.loc 1 130 0
 443 0288 8091 0000 		lds r24,hBLAS
 444 028c 9091 0000 		lds r25,hBLAS+1
 445 0290 60E0      		ldi r22,lo8(.LC3)
 446 0292 70E0      		ldi r23,hi8(.LC3)
 447 0294 0E94 0000 		call dlsym
 448 0298 9093 0000 		sts BLAS_dcopy+1,r25
 449 029c 8093 0000 		sts BLAS_dcopy,r24
 131:lp_solve_5.5/shared/myblas.c ****       BLAS_daxpy  = (BLAS_daxpy_func *)  dlsym(hBLAS, BLAS_prec "axpy");
 450               		.loc 1 131 0
 451 02a0 8091 0000 		lds r24,hBLAS
 452 02a4 9091 0000 		lds r25,hBLAS+1
 453 02a8 60E0      		ldi r22,lo8(.LC4)
 454 02aa 70E0      		ldi r23,hi8(.LC4)
 455 02ac 0E94 0000 		call dlsym
 456 02b0 9093 0000 		sts BLAS_daxpy+1,r25
 457 02b4 8093 0000 		sts BLAS_daxpy,r24
 132:lp_solve_5.5/shared/myblas.c ****       BLAS_dswap  = (BLAS_dswap_func *)  dlsym(hBLAS, BLAS_prec "swap");
 458               		.loc 1 132 0
 459 02b8 8091 0000 		lds r24,hBLAS
 460 02bc 9091 0000 		lds r25,hBLAS+1
 461 02c0 60E0      		ldi r22,lo8(.LC5)
 462 02c2 70E0      		ldi r23,hi8(.LC5)
 463 02c4 0E94 0000 		call dlsym
 464 02c8 9093 0000 		sts BLAS_dswap+1,r25
 465 02cc 8093 0000 		sts BLAS_dswap,r24
 133:lp_solve_5.5/shared/myblas.c ****       BLAS_ddot   = (BLAS_ddot_func *)   dlsym(hBLAS, BLAS_prec "dot");
 466               		.loc 1 133 0
 467 02d0 8091 0000 		lds r24,hBLAS
 468 02d4 9091 0000 		lds r25,hBLAS+1
 469 02d8 60E0      		ldi r22,lo8(.LC6)
 470 02da 70E0      		ldi r23,hi8(.LC6)
 471 02dc 0E94 0000 		call dlsym
 472 02e0 9093 0000 		sts BLAS_ddot+1,r25
 473 02e4 8093 0000 		sts BLAS_ddot,r24
 134:lp_solve_5.5/shared/myblas.c ****       BLAS_idamax = (BLAS_idamax_func *) dlsym(hBLAS, "i" BLAS_prec "amax");
 474               		.loc 1 134 0
 475 02e8 8091 0000 		lds r24,hBLAS
 476 02ec 9091 0000 		lds r25,hBLAS+1
 477 02f0 60E0      		ldi r22,lo8(.LC7)
 478 02f2 70E0      		ldi r23,hi8(.LC7)
 479 02f4 0E94 0000 		call dlsym
 480 02f8 9093 0000 		sts BLAS_idamax+1,r25
 481 02fc 8093 0000 		sts BLAS_idamax,r24
 482               	.L19:
 135:lp_solve_5.5/shared/myblas.c **** #if 0      
 136:lp_solve_5.5/shared/myblas.c ****       BLAS_dload  = (BLAS_dload_func *)  dlsym(hBLAS, BLAS_prec "load");
 137:lp_solve_5.5/shared/myblas.c ****       BLAS_dnormi = (BLAS_dnormi_func *) dlsym(hBLAS, BLAS_prec "normi");
 138:lp_solve_5.5/shared/myblas.c **** #endif      
 139:lp_solve_5.5/shared/myblas.c ****     }
 140:lp_solve_5.5/shared/myblas.c ****   #endif
 141:lp_solve_5.5/shared/myblas.c **** #endif
 142:lp_solve_5.5/shared/myblas.c ****     /* Do validation */
 143:lp_solve_5.5/shared/myblas.c ****     if(!result ||
 483               		.loc 1 143 0
 484 0300 8981      		ldd r24,Y+1
 485 0302 8823      		tst r24
 486 0304 01F0      		breq .L20
 144:lp_solve_5.5/shared/myblas.c ****        ((BLAS_dscal  == NULL) ||
 487               		.loc 1 144 0 discriminator 1
 488 0306 8091 0000 		lds r24,BLAS_dscal
 489 030a 9091 0000 		lds r25,BLAS_dscal+1
 143:lp_solve_5.5/shared/myblas.c ****        ((BLAS_dscal  == NULL) ||
 490               		.loc 1 143 0 discriminator 1
 491 030e 892B      		or r24,r25
 492 0310 01F0      		breq .L20
 145:lp_solve_5.5/shared/myblas.c ****         (BLAS_dcopy  == NULL) ||
 493               		.loc 1 145 0
 494 0312 8091 0000 		lds r24,BLAS_dcopy
 495 0316 9091 0000 		lds r25,BLAS_dcopy+1
 144:lp_solve_5.5/shared/myblas.c ****        ((BLAS_dscal  == NULL) ||
 496               		.loc 1 144 0
 497 031a 892B      		or r24,r25
 498 031c 01F0      		breq .L20
 146:lp_solve_5.5/shared/myblas.c ****         (BLAS_daxpy  == NULL) ||
 499               		.loc 1 146 0
 500 031e 8091 0000 		lds r24,BLAS_daxpy
 501 0322 9091 0000 		lds r25,BLAS_daxpy+1
 145:lp_solve_5.5/shared/myblas.c ****         (BLAS_dcopy  == NULL) ||
 502               		.loc 1 145 0
 503 0326 892B      		or r24,r25
 504 0328 01F0      		breq .L20
 147:lp_solve_5.5/shared/myblas.c ****         (BLAS_dswap  == NULL) ||
 505               		.loc 1 147 0
 506 032a 8091 0000 		lds r24,BLAS_dswap
 507 032e 9091 0000 		lds r25,BLAS_dswap+1
 146:lp_solve_5.5/shared/myblas.c ****         (BLAS_daxpy  == NULL) ||
 508               		.loc 1 146 0
 509 0332 892B      		or r24,r25
 510 0334 01F0      		breq .L20
 148:lp_solve_5.5/shared/myblas.c ****         (BLAS_ddot   == NULL) ||
 511               		.loc 1 148 0
 512 0336 8091 0000 		lds r24,BLAS_ddot
 513 033a 9091 0000 		lds r25,BLAS_ddot+1
 147:lp_solve_5.5/shared/myblas.c ****         (BLAS_dswap  == NULL) ||
 514               		.loc 1 147 0
 515 033e 892B      		or r24,r25
 516 0340 01F0      		breq .L20
 149:lp_solve_5.5/shared/myblas.c ****         (BLAS_idamax == NULL) ||
 517               		.loc 1 149 0
 518 0342 8091 0000 		lds r24,BLAS_idamax
 519 0346 9091 0000 		lds r25,BLAS_idamax+1
 148:lp_solve_5.5/shared/myblas.c ****         (BLAS_ddot   == NULL) ||
 520               		.loc 1 148 0
 521 034a 892B      		or r24,r25
 522 034c 01F0      		breq .L20
 150:lp_solve_5.5/shared/myblas.c ****         (BLAS_dload  == NULL) ||
 523               		.loc 1 150 0
 524 034e 8091 0000 		lds r24,BLAS_dload
 525 0352 9091 0000 		lds r25,BLAS_dload+1
 149:lp_solve_5.5/shared/myblas.c ****         (BLAS_idamax == NULL) ||
 526               		.loc 1 149 0
 527 0356 892B      		or r24,r25
 528 0358 01F0      		breq .L20
 151:lp_solve_5.5/shared/myblas.c ****         (BLAS_dnormi == NULL))
 529               		.loc 1 151 0
 530 035a 8091 0000 		lds r24,BLAS_dnormi
 531 035e 9091 0000 		lds r25,BLAS_dnormi+1
 150:lp_solve_5.5/shared/myblas.c ****         (BLAS_dload  == NULL) ||
 532               		.loc 1 150 0
 533 0362 892B      		or r24,r25
 534 0364 01F4      		brne .L13
 535               	.L20:
 152:lp_solve_5.5/shared/myblas.c ****       ) {
 153:lp_solve_5.5/shared/myblas.c ****       load_BLAS(NULL);
 536               		.loc 1 153 0
 537 0366 80E0      		ldi r24,0
 538 0368 90E0      		ldi r25,0
 539 036a 0E94 0000 		call load_BLAS
 154:lp_solve_5.5/shared/myblas.c ****       result = FALSE;
 540               		.loc 1 154 0
 541 036e 1982      		std Y+1,__zero_reg__
 542               	.L13:
 543               	.LBE2:
 155:lp_solve_5.5/shared/myblas.c ****     }
 156:lp_solve_5.5/shared/myblas.c ****   }
 157:lp_solve_5.5/shared/myblas.c ****   return( result );
 544               		.loc 1 157 0
 545 0370 8981      		ldd r24,Y+1
 546               	.L11:
 547               	/* epilogue start */
 158:lp_solve_5.5/shared/myblas.c **** }
 548               		.loc 1 158 0
 549 0372 C75F      		subi r28,-9
 550 0374 DE4F      		sbci r29,-2
 551 0376 0FB6      		in __tmp_reg__,__SREG__
 552 0378 F894      		cli
 553 037a DEBF      		out __SP_H__,r29
 554 037c 0FBE      		out __SREG__,__tmp_reg__
 555 037e CDBF      		out __SP_L__,r28
 556 0380 DF91      		pop r29
 557 0382 CF91      		pop r28
 558 0384 0895      		ret
 559               		.cfi_endproc
 560               	.LFE9:
 562               	.global	unload_BLAS
 564               	unload_BLAS:
 565               	.LFB10:
 159:lp_solve_5.5/shared/myblas.c **** MYBOOL unload_BLAS(void)
 160:lp_solve_5.5/shared/myblas.c **** {
 566               		.loc 1 160 0
 567               		.cfi_startproc
 568 0386 CF93      		push r28
 569               	.LCFI10:
 570               		.cfi_def_cfa_offset 3
 571               		.cfi_offset 28, -2
 572 0388 DF93      		push r29
 573               	.LCFI11:
 574               		.cfi_def_cfa_offset 4
 575               		.cfi_offset 29, -3
 576 038a CDB7      		in r28,__SP_L__
 577 038c DEB7      		in r29,__SP_H__
 578               	.LCFI12:
 579               		.cfi_def_cfa_register 28
 580               	/* prologue: function */
 581               	/* frame size = 0 */
 582               	/* stack size = 2 */
 583               	.L__stack_usage = 2
 161:lp_solve_5.5/shared/myblas.c ****   return( load_BLAS(NULL) );
 584               		.loc 1 161 0
 585 038e 80E0      		ldi r24,0
 586 0390 90E0      		ldi r25,0
 587 0392 0E94 0000 		call load_BLAS
 588               	/* epilogue start */
 162:lp_solve_5.5/shared/myblas.c **** }
 589               		.loc 1 162 0
 590 0396 DF91      		pop r29
 591 0398 CF91      		pop r28
 592 039a 0895      		ret
 593               		.cfi_endproc
 594               	.LFE10:
 596               	.global	daxpy
 598               	daxpy:
 599               	.LFB11:
 163:lp_solve_5.5/shared/myblas.c **** 
 164:lp_solve_5.5/shared/myblas.c **** 
 165:lp_solve_5.5/shared/myblas.c **** /* ************************************************************************ */
 166:lp_solve_5.5/shared/myblas.c **** /* Now define the unoptimized local BLAS functions                          */
 167:lp_solve_5.5/shared/myblas.c **** /* ************************************************************************ */
 168:lp_solve_5.5/shared/myblas.c **** void daxpy( int n, REAL da, REAL *dx, int incx, REAL *dy, int incy)
 169:lp_solve_5.5/shared/myblas.c **** {
 600               		.loc 1 169 0
 601               		.cfi_startproc
 602 039c CF92      		push r12
 603               	.LCFI13:
 604               		.cfi_def_cfa_offset 3
 605               		.cfi_offset 12, -2
 606 039e DF92      		push r13
 607               	.LCFI14:
 608               		.cfi_def_cfa_offset 4
 609               		.cfi_offset 13, -3
 610 03a0 EF92      		push r14
 611               	.LCFI15:
 612               		.cfi_def_cfa_offset 5
 613               		.cfi_offset 14, -4
 614 03a2 FF92      		push r15
 615               	.LCFI16:
 616               		.cfi_def_cfa_offset 6
 617               		.cfi_offset 15, -5
 618 03a4 0F93      		push r16
 619               	.LCFI17:
 620               		.cfi_def_cfa_offset 7
 621               		.cfi_offset 16, -6
 622 03a6 1F93      		push r17
 623               	.LCFI18:
 624               		.cfi_def_cfa_offset 8
 625               		.cfi_offset 17, -7
 626 03a8 CF93      		push r28
 627               	.LCFI19:
 628               		.cfi_def_cfa_offset 9
 629               		.cfi_offset 28, -8
 630 03aa DF93      		push r29
 631               	.LCFI20:
 632               		.cfi_def_cfa_offset 10
 633               		.cfi_offset 29, -9
 634 03ac CDB7      		in r28,__SP_L__
 635 03ae DEB7      		in r29,__SP_H__
 636               	.LCFI21:
 637               		.cfi_def_cfa_register 28
 638 03b0 2E97      		sbiw r28,14
 639               	.LCFI22:
 640               		.cfi_def_cfa_offset 24
 641 03b2 0FB6      		in __tmp_reg__,__SREG__
 642 03b4 F894      		cli
 643 03b6 DEBF      		out __SP_H__,r29
 644 03b8 0FBE      		out __SREG__,__tmp_reg__
 645 03ba CDBF      		out __SP_L__,r28
 646               	/* prologue: function */
 647               	/* frame size = 14 */
 648               	/* stack size = 22 */
 649               	.L__stack_usage = 22
 650 03bc 9A83      		std Y+2,r25
 651 03be 8983      		std Y+1,r24
 652 03c0 4B83      		std Y+3,r20
 653 03c2 5C83      		std Y+4,r21
 654 03c4 6D83      		std Y+5,r22
 655 03c6 7E83      		std Y+6,r23
 656 03c8 3887      		std Y+8,r19
 657 03ca 2F83      		std Y+7,r18
 658 03cc 1A87      		std Y+10,r17
 659 03ce 0987      		std Y+9,r16
 660 03d0 FC86      		std Y+12,r15
 661 03d2 EB86      		std Y+11,r14
 662 03d4 DE86      		std Y+14,r13
 663 03d6 CD86      		std Y+13,r12
 170:lp_solve_5.5/shared/myblas.c ****   dx++;
 664               		.loc 1 170 0
 665 03d8 8F81      		ldd r24,Y+7
 666 03da 9885      		ldd r25,Y+8
 667 03dc 0496      		adiw r24,4
 668 03de 9887      		std Y+8,r25
 669 03e0 8F83      		std Y+7,r24
 171:lp_solve_5.5/shared/myblas.c ****   dy++;
 670               		.loc 1 171 0
 671 03e2 8B85      		ldd r24,Y+11
 672 03e4 9C85      		ldd r25,Y+12
 673 03e6 0496      		adiw r24,4
 674 03e8 9C87      		std Y+12,r25
 675 03ea 8B87      		std Y+11,r24
 172:lp_solve_5.5/shared/myblas.c ****   BLAS_daxpy( &n, &da, dx, &incx, dy, &incy);
 676               		.loc 1 172 0
 677 03ec E091 0000 		lds r30,BLAS_daxpy
 678 03f0 F091 0000 		lds r31,BLAS_daxpy+1
 679 03f4 DE01      		movw r26,r28
 680 03f6 1D96      		adiw r26,13
 681 03f8 6B85      		ldd r22,Y+11
 682 03fa 7C85      		ldd r23,Y+12
 683 03fc 9E01      		movw r18,r28
 684 03fe 275F      		subi r18,-9
 685 0400 3F4F      		sbci r19,-1
 686 0402 4F81      		ldd r20,Y+7
 687 0404 5885      		ldd r21,Y+8
 688 0406 CE01      		movw r24,r28
 689 0408 0396      		adiw r24,3
 690 040a 7D01      		movw r14,r26
 691 040c 8B01      		movw r16,r22
 692 040e BC01      		movw r22,r24
 693 0410 CE01      		movw r24,r28
 694 0412 0196      		adiw r24,1
 695 0414 0995      		icall
 173:lp_solve_5.5/shared/myblas.c **** }
 696               		.loc 1 173 0
 697 0416 0000      		nop
 698               	/* epilogue start */
 699 0418 2E96      		adiw r28,14
 700 041a 0FB6      		in __tmp_reg__,__SREG__
 701 041c F894      		cli
 702 041e DEBF      		out __SP_H__,r29
 703 0420 0FBE      		out __SREG__,__tmp_reg__
 704 0422 CDBF      		out __SP_L__,r28
 705 0424 DF91      		pop r29
 706 0426 CF91      		pop r28
 707 0428 1F91      		pop r17
 708 042a 0F91      		pop r16
 709 042c FF90      		pop r15
 710 042e EF90      		pop r14
 711 0430 DF90      		pop r13
 712 0432 CF90      		pop r12
 713 0434 0895      		ret
 714               		.cfi_endproc
 715               	.LFE11:
 717               	.global	__eqsf2
 718               	.global	__mulsf3
 719               	.global	__addsf3
 720               	.global	my_daxpy
 722               	my_daxpy:
 723               	.LFB12:
 174:lp_solve_5.5/shared/myblas.c **** void BLAS_CALLMODEL my_daxpy( int *_n, REAL *_da, REAL *dx, int *_incx, REAL *dy, int *_incy)
 175:lp_solve_5.5/shared/myblas.c **** {
 724               		.loc 1 175 0
 725               		.cfi_startproc
 726 0436 8F92      		push r8
 727               	.LCFI23:
 728               		.cfi_def_cfa_offset 3
 729               		.cfi_offset 8, -2
 730 0438 9F92      		push r9
 731               	.LCFI24:
 732               		.cfi_def_cfa_offset 4
 733               		.cfi_offset 9, -3
 734 043a AF92      		push r10
 735               	.LCFI25:
 736               		.cfi_def_cfa_offset 5
 737               		.cfi_offset 10, -4
 738 043c BF92      		push r11
 739               	.LCFI26:
 740               		.cfi_def_cfa_offset 6
 741               		.cfi_offset 11, -5
 742 043e CF92      		push r12
 743               	.LCFI27:
 744               		.cfi_def_cfa_offset 7
 745               		.cfi_offset 12, -6
 746 0440 DF92      		push r13
 747               	.LCFI28:
 748               		.cfi_def_cfa_offset 8
 749               		.cfi_offset 13, -7
 750 0442 EF92      		push r14
 751               	.LCFI29:
 752               		.cfi_def_cfa_offset 9
 753               		.cfi_offset 14, -8
 754 0444 FF92      		push r15
 755               	.LCFI30:
 756               		.cfi_def_cfa_offset 10
 757               		.cfi_offset 15, -9
 758 0446 0F93      		push r16
 759               	.LCFI31:
 760               		.cfi_def_cfa_offset 11
 761               		.cfi_offset 16, -10
 762 0448 1F93      		push r17
 763               	.LCFI32:
 764               		.cfi_def_cfa_offset 12
 765               		.cfi_offset 17, -11
 766 044a CF93      		push r28
 767               	.LCFI33:
 768               		.cfi_def_cfa_offset 13
 769               		.cfi_offset 28, -12
 770 044c DF93      		push r29
 771               	.LCFI34:
 772               		.cfi_def_cfa_offset 14
 773               		.cfi_offset 29, -13
 774 044e CDB7      		in r28,__SP_L__
 775 0450 DEB7      		in r29,__SP_H__
 776               	.LCFI35:
 777               		.cfi_def_cfa_register 28
 778 0452 A097      		sbiw r28,32
 779               	.LCFI36:
 780               		.cfi_def_cfa_offset 46
 781 0454 0FB6      		in __tmp_reg__,__SREG__
 782 0456 F894      		cli
 783 0458 DEBF      		out __SP_H__,r29
 784 045a 0FBE      		out __SREG__,__tmp_reg__
 785 045c CDBF      		out __SP_L__,r28
 786               	/* prologue: function */
 787               	/* frame size = 32 */
 788               	/* stack size = 44 */
 789               	.L__stack_usage = 44
 790 045e 9E8B      		std Y+22,r25
 791 0460 8D8B      		std Y+21,r24
 792 0462 788F      		std Y+24,r23
 793 0464 6F8B      		std Y+23,r22
 794 0466 5A8F      		std Y+26,r21
 795 0468 498F      		std Y+25,r20
 796 046a 3C8F      		std Y+28,r19
 797 046c 2B8F      		std Y+27,r18
 798 046e 1E8F      		std Y+30,r17
 799 0470 0D8F      		std Y+29,r16
 800 0472 F8A2      		std Y+32,r15
 801 0474 EF8E      		std Y+31,r14
 176:lp_solve_5.5/shared/myblas.c **** 
 177:lp_solve_5.5/shared/myblas.c **** /* constant times a vector plus a vector.
 178:lp_solve_5.5/shared/myblas.c ****    uses unrolled loops for increments equal to one.
 179:lp_solve_5.5/shared/myblas.c ****    jack dongarra, linpack, 3/11/78.
 180:lp_solve_5.5/shared/myblas.c ****    modified 12/3/93, array[1] declarations changed to array[*] */
 181:lp_solve_5.5/shared/myblas.c **** 
 182:lp_solve_5.5/shared/myblas.c ****   int      i, ix, iy;
 183:lp_solve_5.5/shared/myblas.c **** #if !defined DOFASTMATH
 184:lp_solve_5.5/shared/myblas.c ****   int      m, mp1;
 185:lp_solve_5.5/shared/myblas.c **** #endif
 186:lp_solve_5.5/shared/myblas.c ****   register REAL rda;
 187:lp_solve_5.5/shared/myblas.c ****   REAL     da = *_da;
 802               		.loc 1 187 0
 803 0476 8F89      		ldd r24,Y+23
 804 0478 988D      		ldd r25,Y+24
 805 047a FC01      		movw r30,r24
 806 047c 8081      		ld r24,Z
 807 047e 9181      		ldd r25,Z+1
 808 0480 A281      		ldd r26,Z+2
 809 0482 B381      		ldd r27,Z+3
 810 0484 8B87      		std Y+11,r24
 811 0486 9C87      		std Y+12,r25
 812 0488 AD87      		std Y+13,r26
 813 048a BE87      		std Y+14,r27
 188:lp_solve_5.5/shared/myblas.c ****   int      n = *_n, incx = *_incx, incy = *_incy;
 814               		.loc 1 188 0
 815 048c 8D89      		ldd r24,Y+21
 816 048e 9E89      		ldd r25,Y+22
 817 0490 FC01      		movw r30,r24
 818 0492 8081      		ld r24,Z
 819 0494 9181      		ldd r25,Z+1
 820 0496 988B      		std Y+16,r25
 821 0498 8F87      		std Y+15,r24
 822 049a 8B8D      		ldd r24,Y+27
 823 049c 9C8D      		ldd r25,Y+28
 824 049e FC01      		movw r30,r24
 825 04a0 8081      		ld r24,Z
 826 04a2 9181      		ldd r25,Z+1
 827 04a4 9A8B      		std Y+18,r25
 828 04a6 898B      		std Y+17,r24
 829 04a8 8F8D      		ldd r24,Y+31
 830 04aa 98A1      		ldd r25,Y+32
 831 04ac FC01      		movw r30,r24
 832 04ae 8081      		ld r24,Z
 833 04b0 9181      		ldd r25,Z+1
 834 04b2 9C8B      		std Y+20,r25
 835 04b4 8B8B      		std Y+19,r24
 189:lp_solve_5.5/shared/myblas.c **** 
 190:lp_solve_5.5/shared/myblas.c ****   if (n <= 0) return;
 836               		.loc 1 190 0
 837 04b6 8F85      		ldd r24,Y+15
 838 04b8 9889      		ldd r25,Y+16
 839 04ba 1816      		cp __zero_reg__,r24
 840 04bc 1906      		cpc __zero_reg__,r25
 841 04be 04F0      		brlt .+2
 842 04c0 00C0      		rjmp .L34
 191:lp_solve_5.5/shared/myblas.c ****   if (da == 0.0) return;
 843               		.loc 1 191 0
 844 04c2 20E0      		ldi r18,0
 845 04c4 30E0      		ldi r19,0
 846 04c6 A901      		movw r20,r18
 847 04c8 6B85      		ldd r22,Y+11
 848 04ca 7C85      		ldd r23,Y+12
 849 04cc 8D85      		ldd r24,Y+13
 850 04ce 9E85      		ldd r25,Y+14
 851 04d0 0E94 0000 		call __eqsf2
 852 04d4 8823      		tst r24
 853 04d6 01F4      		brne .+2
 854 04d8 00C0      		rjmp .L35
 192:lp_solve_5.5/shared/myblas.c **** 
 193:lp_solve_5.5/shared/myblas.c ****   dx--;
 855               		.loc 1 193 0
 856 04da 898D      		ldd r24,Y+25
 857 04dc 9A8D      		ldd r25,Y+26
 858 04de 0497      		sbiw r24,4
 859 04e0 9A8F      		std Y+26,r25
 860 04e2 898F      		std Y+25,r24
 194:lp_solve_5.5/shared/myblas.c ****   dy--;
 861               		.loc 1 194 0
 862 04e4 8D8D      		ldd r24,Y+29
 863 04e6 9E8D      		ldd r25,Y+30
 864 04e8 0497      		sbiw r24,4
 865 04ea 9E8F      		std Y+30,r25
 866 04ec 8D8F      		std Y+29,r24
 195:lp_solve_5.5/shared/myblas.c ****   ix = 1;
 867               		.loc 1 195 0
 868 04ee 81E0      		ldi r24,lo8(1)
 869 04f0 90E0      		ldi r25,0
 870 04f2 9C83      		std Y+4,r25
 871 04f4 8B83      		std Y+3,r24
 196:lp_solve_5.5/shared/myblas.c ****   iy = 1;
 872               		.loc 1 196 0
 873 04f6 81E0      		ldi r24,lo8(1)
 874 04f8 90E0      		ldi r25,0
 875 04fa 9E83      		std Y+6,r25
 876 04fc 8D83      		std Y+5,r24
 197:lp_solve_5.5/shared/myblas.c ****   if (incx < 0)
 877               		.loc 1 197 0
 878 04fe 8989      		ldd r24,Y+17
 879 0500 9A89      		ldd r25,Y+18
 880 0502 9923      		tst r25
 881 0504 04F4      		brge .L30
 198:lp_solve_5.5/shared/myblas.c ****      ix = (-n+1)*incx + 1;
 882               		.loc 1 198 0
 883 0506 21E0      		ldi r18,lo8(1)
 884 0508 30E0      		ldi r19,0
 885 050a 8F85      		ldd r24,Y+15
 886 050c 9889      		ldd r25,Y+16
 887 050e A901      		movw r20,r18
 888 0510 481B      		sub r20,r24
 889 0512 590B      		sbc r21,r25
 890 0514 2989      		ldd r18,Y+17
 891 0516 3A89      		ldd r19,Y+18
 892 0518 429F      		mul r20,r18
 893 051a C001      		movw r24,r0
 894 051c 439F      		mul r20,r19
 895 051e 900D      		add r25,r0
 896 0520 529F      		mul r21,r18
 897 0522 900D      		add r25,r0
 898 0524 1124      		clr r1
 899 0526 0196      		adiw r24,1
 900 0528 9C83      		std Y+4,r25
 901 052a 8B83      		std Y+3,r24
 902               	.L30:
 199:lp_solve_5.5/shared/myblas.c ****   if (incy < 0)
 903               		.loc 1 199 0
 904 052c 8B89      		ldd r24,Y+19
 905 052e 9C89      		ldd r25,Y+20
 906 0530 9923      		tst r25
 907 0532 04F4      		brge .L31
 200:lp_solve_5.5/shared/myblas.c ****      iy = (-n+1)*incy + 1;
 908               		.loc 1 200 0
 909 0534 21E0      		ldi r18,lo8(1)
 910 0536 30E0      		ldi r19,0
 911 0538 8F85      		ldd r24,Y+15
 912 053a 9889      		ldd r25,Y+16
 913 053c A901      		movw r20,r18
 914 053e 481B      		sub r20,r24
 915 0540 590B      		sbc r21,r25
 916 0542 2B89      		ldd r18,Y+19
 917 0544 3C89      		ldd r19,Y+20
 918 0546 429F      		mul r20,r18
 919 0548 C001      		movw r24,r0
 920 054a 439F      		mul r20,r19
 921 054c 900D      		add r25,r0
 922 054e 529F      		mul r21,r18
 923 0550 900D      		add r25,r0
 924 0552 1124      		clr r1
 925 0554 0196      		adiw r24,1
 926 0556 9E83      		std Y+6,r25
 927 0558 8D83      		std Y+5,r24
 928               	.L31:
 201:lp_solve_5.5/shared/myblas.c ****   rda = da;
 929               		.loc 1 201 0
 930 055a CB84      		ldd r12,Y+11
 931 055c DC84      		ldd r13,Y+12
 932 055e ED84      		ldd r14,Y+13
 933 0560 FE84      		ldd r15,Y+14
 934               	.LBB3:
 202:lp_solve_5.5/shared/myblas.c **** 
 203:lp_solve_5.5/shared/myblas.c **** /* CPU intensive loop; option to do pointer arithmetic */
 204:lp_solve_5.5/shared/myblas.c **** #if defined DOFASTMATH
 205:lp_solve_5.5/shared/myblas.c ****   {
 206:lp_solve_5.5/shared/myblas.c ****     REAL *xptr, *yptr;
 207:lp_solve_5.5/shared/myblas.c ****     for (i = 1, xptr = dx + ix, yptr = dy + iy;
 935               		.loc 1 207 0
 936 0562 81E0      		ldi r24,lo8(1)
 937 0564 90E0      		ldi r25,0
 938 0566 9A83      		std Y+2,r25
 939 0568 8983      		std Y+1,r24
 940 056a 8B81      		ldd r24,Y+3
 941 056c 9C81      		ldd r25,Y+4
 942 056e 880F      		lsl r24
 943 0570 991F      		rol r25
 944 0572 880F      		lsl r24
 945 0574 991F      		rol r25
 946 0576 298D      		ldd r18,Y+25
 947 0578 3A8D      		ldd r19,Y+26
 948 057a 820F      		add r24,r18
 949 057c 931F      		adc r25,r19
 950 057e 9887      		std Y+8,r25
 951 0580 8F83      		std Y+7,r24
 952 0582 8D81      		ldd r24,Y+5
 953 0584 9E81      		ldd r25,Y+6
 954 0586 880F      		lsl r24
 955 0588 991F      		rol r25
 956 058a 880F      		lsl r24
 957 058c 991F      		rol r25
 958 058e 2D8D      		ldd r18,Y+29
 959 0590 3E8D      		ldd r19,Y+30
 960 0592 820F      		add r24,r18
 961 0594 931F      		adc r25,r19
 962 0596 9A87      		std Y+10,r25
 963 0598 8987      		std Y+9,r24
 964 059a 00C0      		rjmp .L32
 965               	.L33:
 208:lp_solve_5.5/shared/myblas.c ****          i <= n; i++, xptr += incx, yptr += incy)
 209:lp_solve_5.5/shared/myblas.c ****       (*yptr) += rda*(*xptr);
 966               		.loc 1 209 0
 967 059c 8985      		ldd r24,Y+9
 968 059e 9A85      		ldd r25,Y+10
 969 05a0 FC01      		movw r30,r24
 970 05a2 8080      		ld r8,Z
 971 05a4 9180      		ldd r9,Z+1
 972 05a6 A280      		ldd r10,Z+2
 973 05a8 B380      		ldd r11,Z+3
 974 05aa 8F81      		ldd r24,Y+7
 975 05ac 9885      		ldd r25,Y+8
 976 05ae FC01      		movw r30,r24
 977 05b0 8081      		ld r24,Z
 978 05b2 9181      		ldd r25,Z+1
 979 05b4 A281      		ldd r26,Z+2
 980 05b6 B381      		ldd r27,Z+3
 981 05b8 A701      		movw r20,r14
 982 05ba 9601      		movw r18,r12
 983 05bc BC01      		movw r22,r24
 984 05be CD01      		movw r24,r26
 985 05c0 0E94 0000 		call __mulsf3
 986 05c4 DC01      		movw r26,r24
 987 05c6 CB01      		movw r24,r22
 988 05c8 9C01      		movw r18,r24
 989 05ca AD01      		movw r20,r26
 990 05cc C501      		movw r24,r10
 991 05ce B401      		movw r22,r8
 992 05d0 0E94 0000 		call __addsf3
 993 05d4 DC01      		movw r26,r24
 994 05d6 CB01      		movw r24,r22
 995 05d8 2985      		ldd r18,Y+9
 996 05da 3A85      		ldd r19,Y+10
 997 05dc F901      		movw r30,r18
 998 05de 8083      		st Z,r24
 999 05e0 9183      		std Z+1,r25
 1000 05e2 A283      		std Z+2,r26
 1001 05e4 B383      		std Z+3,r27
 208:lp_solve_5.5/shared/myblas.c ****          i <= n; i++, xptr += incx, yptr += incy)
 1002               		.loc 1 208 0
 1003 05e6 8981      		ldd r24,Y+1
 1004 05e8 9A81      		ldd r25,Y+2
 1005 05ea 0196      		adiw r24,1
 1006 05ec 9A83      		std Y+2,r25
 1007 05ee 8983      		std Y+1,r24
 1008 05f0 8989      		ldd r24,Y+17
 1009 05f2 9A89      		ldd r25,Y+18
 1010 05f4 880F      		lsl r24
 1011 05f6 991F      		rol r25
 1012 05f8 880F      		lsl r24
 1013 05fa 991F      		rol r25
 1014 05fc 2F81      		ldd r18,Y+7
 1015 05fe 3885      		ldd r19,Y+8
 1016 0600 820F      		add r24,r18
 1017 0602 931F      		adc r25,r19
 1018 0604 9887      		std Y+8,r25
 1019 0606 8F83      		std Y+7,r24
 1020 0608 8B89      		ldd r24,Y+19
 1021 060a 9C89      		ldd r25,Y+20
 1022 060c 880F      		lsl r24
 1023 060e 991F      		rol r25
 1024 0610 880F      		lsl r24
 1025 0612 991F      		rol r25
 1026 0614 2985      		ldd r18,Y+9
 1027 0616 3A85      		ldd r19,Y+10
 1028 0618 820F      		add r24,r18
 1029 061a 931F      		adc r25,r19
 1030 061c 9A87      		std Y+10,r25
 1031 061e 8987      		std Y+9,r24
 1032               	.L32:
 207:lp_solve_5.5/shared/myblas.c ****          i <= n; i++, xptr += incx, yptr += incy)
 1033               		.loc 1 207 0 discriminator 1
 1034 0620 2981      		ldd r18,Y+1
 1035 0622 3A81      		ldd r19,Y+2
 1036 0624 8F85      		ldd r24,Y+15
 1037 0626 9889      		ldd r25,Y+16
 1038 0628 8217      		cp r24,r18
 1039 062a 9307      		cpc r25,r19
 1040 062c 04F0      		brlt .+2
 1041 062e 00C0      		rjmp .L33
 210:lp_solve_5.5/shared/myblas.c ****     return;
 1042               		.loc 1 210 0 discriminator 3
 1043 0630 0000      		nop
 1044 0632 00C0      		rjmp .L25
 1045               	.L34:
 1046               	.LBE3:
 190:lp_solve_5.5/shared/myblas.c ****   if (da == 0.0) return;
 1047               		.loc 1 190 0
 1048 0634 0000      		nop
 1049 0636 00C0      		rjmp .L25
 1050               	.L35:
 191:lp_solve_5.5/shared/myblas.c **** 
 1051               		.loc 1 191 0
 1052 0638 0000      		nop
 1053               	.L25:
 1054               	/* epilogue start */
 211:lp_solve_5.5/shared/myblas.c ****   }
 212:lp_solve_5.5/shared/myblas.c **** #else  
 213:lp_solve_5.5/shared/myblas.c **** 
 214:lp_solve_5.5/shared/myblas.c ****   if (incx==1 && incy==1) goto x20;
 215:lp_solve_5.5/shared/myblas.c **** 
 216:lp_solve_5.5/shared/myblas.c **** /* code for unequal increments or equal increments not equal to 1 */
 217:lp_solve_5.5/shared/myblas.c ****   for (i = 1; i<=n; i++) {
 218:lp_solve_5.5/shared/myblas.c ****      dy[iy]+= rda*dx[ix];
 219:lp_solve_5.5/shared/myblas.c ****      ix+= incx;
 220:lp_solve_5.5/shared/myblas.c ****      iy+= incy;
 221:lp_solve_5.5/shared/myblas.c ****   }
 222:lp_solve_5.5/shared/myblas.c ****   return;
 223:lp_solve_5.5/shared/myblas.c **** 
 224:lp_solve_5.5/shared/myblas.c **** /*  code for both increments equal to 1 */
 225:lp_solve_5.5/shared/myblas.c **** 
 226:lp_solve_5.5/shared/myblas.c **** /*  clean-up loop */
 227:lp_solve_5.5/shared/myblas.c **** x20:
 228:lp_solve_5.5/shared/myblas.c ****   m = n % 4;
 229:lp_solve_5.5/shared/myblas.c ****   if (m == 0) goto x40;
 230:lp_solve_5.5/shared/myblas.c ****   for (i = 1; i<=m; i++)
 231:lp_solve_5.5/shared/myblas.c ****      dy[i]+= rda*dx[i];
 232:lp_solve_5.5/shared/myblas.c ****   if(n < 4) return;
 233:lp_solve_5.5/shared/myblas.c **** x40:
 234:lp_solve_5.5/shared/myblas.c ****   mp1 = m + 1;
 235:lp_solve_5.5/shared/myblas.c ****   for (i = mp1; i<=n; i=i+4) {
 236:lp_solve_5.5/shared/myblas.c ****     dy[i]+= rda*dx[i];
 237:lp_solve_5.5/shared/myblas.c ****     dy[i + 1]+= rda*dx[i + 1];
 238:lp_solve_5.5/shared/myblas.c ****     dy[i + 2]+= rda*dx[i + 2];
 239:lp_solve_5.5/shared/myblas.c ****     dy[i + 3]+= rda*dx[i + 3];
 240:lp_solve_5.5/shared/myblas.c ****   }
 241:lp_solve_5.5/shared/myblas.c **** #endif
 242:lp_solve_5.5/shared/myblas.c **** }
 1055               		.loc 1 242 0
 1056 063a A096      		adiw r28,32
 1057 063c 0FB6      		in __tmp_reg__,__SREG__
 1058 063e F894      		cli
 1059 0640 DEBF      		out __SP_H__,r29
 1060 0642 0FBE      		out __SREG__,__tmp_reg__
 1061 0644 CDBF      		out __SP_L__,r28
 1062 0646 DF91      		pop r29
 1063 0648 CF91      		pop r28
 1064 064a 1F91      		pop r17
 1065 064c 0F91      		pop r16
 1066 064e FF90      		pop r15
 1067 0650 EF90      		pop r14
 1068 0652 DF90      		pop r13
 1069 0654 CF90      		pop r12
 1070 0656 BF90      		pop r11
 1071 0658 AF90      		pop r10
 1072 065a 9F90      		pop r9
 1073 065c 8F90      		pop r8
 1074 065e 0895      		ret
 1075               		.cfi_endproc
 1076               	.LFE12:
 1078               	.global	dcopy
 1080               	dcopy:
 1081               	.LFB13:
 243:lp_solve_5.5/shared/myblas.c **** 
 244:lp_solve_5.5/shared/myblas.c **** 
 245:lp_solve_5.5/shared/myblas.c **** /* ************************************************************************ */
 246:lp_solve_5.5/shared/myblas.c **** void dcopy( int n, REAL *dx, int incx, REAL *dy, int incy)
 247:lp_solve_5.5/shared/myblas.c **** {
 1082               		.loc 1 247 0
 1083               		.cfi_startproc
 1084 0660 0F93      		push r16
 1085               	.LCFI37:
 1086               		.cfi_def_cfa_offset 3
 1087               		.cfi_offset 16, -2
 1088 0662 1F93      		push r17
 1089               	.LCFI38:
 1090               		.cfi_def_cfa_offset 4
 1091               		.cfi_offset 17, -3
 1092 0664 CF93      		push r28
 1093               	.LCFI39:
 1094               		.cfi_def_cfa_offset 5
 1095               		.cfi_offset 28, -4
 1096 0666 DF93      		push r29
 1097               	.LCFI40:
 1098               		.cfi_def_cfa_offset 6
 1099               		.cfi_offset 29, -5
 1100 0668 CDB7      		in r28,__SP_L__
 1101 066a DEB7      		in r29,__SP_H__
 1102               	.LCFI41:
 1103               		.cfi_def_cfa_register 28
 1104 066c 2A97      		sbiw r28,10
 1105               	.LCFI42:
 1106               		.cfi_def_cfa_offset 16
 1107 066e 0FB6      		in __tmp_reg__,__SREG__
 1108 0670 F894      		cli
 1109 0672 DEBF      		out __SP_H__,r29
 1110 0674 0FBE      		out __SREG__,__tmp_reg__
 1111 0676 CDBF      		out __SP_L__,r28
 1112               	/* prologue: function */
 1113               	/* frame size = 10 */
 1114               	/* stack size = 14 */
 1115               	.L__stack_usage = 14
 1116 0678 9A83      		std Y+2,r25
 1117 067a 8983      		std Y+1,r24
 1118 067c 7C83      		std Y+4,r23
 1119 067e 6B83      		std Y+3,r22
 1120 0680 5E83      		std Y+6,r21
 1121 0682 4D83      		std Y+5,r20
 1122 0684 3887      		std Y+8,r19
 1123 0686 2F83      		std Y+7,r18
 1124 0688 1A87      		std Y+10,r17
 1125 068a 0987      		std Y+9,r16
 248:lp_solve_5.5/shared/myblas.c ****   dx++;
 1126               		.loc 1 248 0
 1127 068c 8B81      		ldd r24,Y+3
 1128 068e 9C81      		ldd r25,Y+4
 1129 0690 0496      		adiw r24,4
 1130 0692 9C83      		std Y+4,r25
 1131 0694 8B83      		std Y+3,r24
 249:lp_solve_5.5/shared/myblas.c ****   dy++;
 1132               		.loc 1 249 0
 1133 0696 8F81      		ldd r24,Y+7
 1134 0698 9885      		ldd r25,Y+8
 1135 069a 0496      		adiw r24,4
 1136 069c 9887      		std Y+8,r25
 1137 069e 8F83      		std Y+7,r24
 250:lp_solve_5.5/shared/myblas.c ****   BLAS_dcopy( &n, dx, &incx, dy, &incy);
 1138               		.loc 1 250 0
 1139 06a0 E091 0000 		lds r30,BLAS_dcopy
 1140 06a4 F091 0000 		lds r31,BLAS_dcopy+1
 1141 06a8 BE01      		movw r22,r28
 1142 06aa 675F      		subi r22,-9
 1143 06ac 7F4F      		sbci r23,-1
 1144 06ae 2F81      		ldd r18,Y+7
 1145 06b0 3885      		ldd r19,Y+8
 1146 06b2 AE01      		movw r20,r28
 1147 06b4 4B5F      		subi r20,-5
 1148 06b6 5F4F      		sbci r21,-1
 1149 06b8 8B81      		ldd r24,Y+3
 1150 06ba 9C81      		ldd r25,Y+4
 1151 06bc 8B01      		movw r16,r22
 1152 06be BC01      		movw r22,r24
 1153 06c0 CE01      		movw r24,r28
 1154 06c2 0196      		adiw r24,1
 1155 06c4 0995      		icall
 251:lp_solve_5.5/shared/myblas.c **** }
 1156               		.loc 1 251 0
 1157 06c6 0000      		nop
 1158               	/* epilogue start */
 1159 06c8 2A96      		adiw r28,10
 1160 06ca 0FB6      		in __tmp_reg__,__SREG__
 1161 06cc F894      		cli
 1162 06ce DEBF      		out __SP_H__,r29
 1163 06d0 0FBE      		out __SREG__,__tmp_reg__
 1164 06d2 CDBF      		out __SP_L__,r28
 1165 06d4 DF91      		pop r29
 1166 06d6 CF91      		pop r28
 1167 06d8 1F91      		pop r17
 1168 06da 0F91      		pop r16
 1169 06dc 0895      		ret
 1170               		.cfi_endproc
 1171               	.LFE13:
 1173               	.global	my_dcopy
 1175               	my_dcopy:
 1176               	.LFB14:
 252:lp_solve_5.5/shared/myblas.c **** 
 253:lp_solve_5.5/shared/myblas.c **** void BLAS_CALLMODEL my_dcopy (int *_n, REAL *dx, int *_incx, REAL *dy, int *_incy)
 254:lp_solve_5.5/shared/myblas.c **** {
 1177               		.loc 1 254 0
 1178               		.cfi_startproc
 1179 06de 0F93      		push r16
 1180               	.LCFI43:
 1181               		.cfi_def_cfa_offset 3
 1182               		.cfi_offset 16, -2
 1183 06e0 1F93      		push r17
 1184               	.LCFI44:
 1185               		.cfi_def_cfa_offset 4
 1186               		.cfi_offset 17, -3
 1187 06e2 CF93      		push r28
 1188               	.LCFI45:
 1189               		.cfi_def_cfa_offset 5
 1190               		.cfi_offset 28, -4
 1191 06e4 DF93      		push r29
 1192               	.LCFI46:
 1193               		.cfi_def_cfa_offset 6
 1194               		.cfi_offset 29, -5
 1195 06e6 CDB7      		in r28,__SP_L__
 1196 06e8 DEB7      		in r29,__SP_H__
 1197               	.LCFI47:
 1198               		.cfi_def_cfa_register 28
 1199 06ea 6A97      		sbiw r28,26
 1200               	.LCFI48:
 1201               		.cfi_def_cfa_offset 32
 1202 06ec 0FB6      		in __tmp_reg__,__SREG__
 1203 06ee F894      		cli
 1204 06f0 DEBF      		out __SP_H__,r29
 1205 06f2 0FBE      		out __SREG__,__tmp_reg__
 1206 06f4 CDBF      		out __SP_L__,r28
 1207               	/* prologue: function */
 1208               	/* frame size = 26 */
 1209               	/* stack size = 30 */
 1210               	.L__stack_usage = 30
 1211 06f6 9A8B      		std Y+18,r25
 1212 06f8 898B      		std Y+17,r24
 1213 06fa 7C8B      		std Y+20,r23
 1214 06fc 6B8B      		std Y+19,r22
 1215 06fe 5E8B      		std Y+22,r21
 1216 0700 4D8B      		std Y+21,r20
 1217 0702 388F      		std Y+24,r19
 1218 0704 2F8B      		std Y+23,r18
 1219 0706 1A8F      		std Y+26,r17
 1220 0708 098F      		std Y+25,r16
 255:lp_solve_5.5/shared/myblas.c **** 
 256:lp_solve_5.5/shared/myblas.c **** /* copies a vector, x, to a vector, y.
 257:lp_solve_5.5/shared/myblas.c ****    uses unrolled loops for increments equal to one.
 258:lp_solve_5.5/shared/myblas.c ****    jack dongarra, linpack, 3/11/78.
 259:lp_solve_5.5/shared/myblas.c ****    modified 12/3/93, array[1] declarations changed to array[*] */
 260:lp_solve_5.5/shared/myblas.c **** 
 261:lp_solve_5.5/shared/myblas.c ****   int      i, ix, iy;
 262:lp_solve_5.5/shared/myblas.c **** #if !defined DOFASTMATH
 263:lp_solve_5.5/shared/myblas.c ****   int      m, mp1;
 264:lp_solve_5.5/shared/myblas.c **** #endif
 265:lp_solve_5.5/shared/myblas.c ****   int      n = *_n, incx = *_incx, incy = *_incy;
 1221               		.loc 1 265 0
 1222 070a 8989      		ldd r24,Y+17
 1223 070c 9A89      		ldd r25,Y+18
 1224 070e FC01      		movw r30,r24
 1225 0710 8081      		ld r24,Z
 1226 0712 9181      		ldd r25,Z+1
 1227 0714 9C87      		std Y+12,r25
 1228 0716 8B87      		std Y+11,r24
 1229 0718 8D89      		ldd r24,Y+21
 1230 071a 9E89      		ldd r25,Y+22
 1231 071c FC01      		movw r30,r24
 1232 071e 8081      		ld r24,Z
 1233 0720 9181      		ldd r25,Z+1
 1234 0722 9E87      		std Y+14,r25
 1235 0724 8D87      		std Y+13,r24
 1236 0726 898D      		ldd r24,Y+25
 1237 0728 9A8D      		ldd r25,Y+26
 1238 072a FC01      		movw r30,r24
 1239 072c 8081      		ld r24,Z
 1240 072e 9181      		ldd r25,Z+1
 1241 0730 988B      		std Y+16,r25
 1242 0732 8F87      		std Y+15,r24
 266:lp_solve_5.5/shared/myblas.c **** 
 267:lp_solve_5.5/shared/myblas.c ****   if (n<=0) return;
 1243               		.loc 1 267 0
 1244 0734 8B85      		ldd r24,Y+11
 1245 0736 9C85      		ldd r25,Y+12
 1246 0738 1816      		cp __zero_reg__,r24
 1247 073a 1906      		cpc __zero_reg__,r25
 1248 073c 04F0      		brlt .+2
 1249 073e 00C0      		rjmp .L44
 268:lp_solve_5.5/shared/myblas.c **** 
 269:lp_solve_5.5/shared/myblas.c ****   dx--;
 1250               		.loc 1 269 0
 1251 0740 8B89      		ldd r24,Y+19
 1252 0742 9C89      		ldd r25,Y+20
 1253 0744 0497      		sbiw r24,4
 1254 0746 9C8B      		std Y+20,r25
 1255 0748 8B8B      		std Y+19,r24
 270:lp_solve_5.5/shared/myblas.c ****   dy--;
 1256               		.loc 1 270 0
 1257 074a 8F89      		ldd r24,Y+23
 1258 074c 988D      		ldd r25,Y+24
 1259 074e 0497      		sbiw r24,4
 1260 0750 988F      		std Y+24,r25
 1261 0752 8F8B      		std Y+23,r24
 271:lp_solve_5.5/shared/myblas.c ****   ix = 1;
 1262               		.loc 1 271 0
 1263 0754 81E0      		ldi r24,lo8(1)
 1264 0756 90E0      		ldi r25,0
 1265 0758 9C83      		std Y+4,r25
 1266 075a 8B83      		std Y+3,r24
 272:lp_solve_5.5/shared/myblas.c ****   iy = 1;
 1267               		.loc 1 272 0
 1268 075c 81E0      		ldi r24,lo8(1)
 1269 075e 90E0      		ldi r25,0
 1270 0760 9E83      		std Y+6,r25
 1271 0762 8D83      		std Y+5,r24
 273:lp_solve_5.5/shared/myblas.c ****   if (incx<0)
 1272               		.loc 1 273 0
 1273 0764 8D85      		ldd r24,Y+13
 1274 0766 9E85      		ldd r25,Y+14
 1275 0768 9923      		tst r25
 1276 076a 04F4      		brge .L40
 274:lp_solve_5.5/shared/myblas.c ****     ix = (-n+1)*incx + 1;
 1277               		.loc 1 274 0
 1278 076c 21E0      		ldi r18,lo8(1)
 1279 076e 30E0      		ldi r19,0
 1280 0770 8B85      		ldd r24,Y+11
 1281 0772 9C85      		ldd r25,Y+12
 1282 0774 A901      		movw r20,r18
 1283 0776 481B      		sub r20,r24
 1284 0778 590B      		sbc r21,r25
 1285 077a 2D85      		ldd r18,Y+13
 1286 077c 3E85      		ldd r19,Y+14
 1287 077e 429F      		mul r20,r18
 1288 0780 C001      		movw r24,r0
 1289 0782 439F      		mul r20,r19
 1290 0784 900D      		add r25,r0
 1291 0786 529F      		mul r21,r18
 1292 0788 900D      		add r25,r0
 1293 078a 1124      		clr r1
 1294 078c 0196      		adiw r24,1
 1295 078e 9C83      		std Y+4,r25
 1296 0790 8B83      		std Y+3,r24
 1297               	.L40:
 275:lp_solve_5.5/shared/myblas.c ****   if (incy<0)
 1298               		.loc 1 275 0
 1299 0792 8F85      		ldd r24,Y+15
 1300 0794 9889      		ldd r25,Y+16
 1301 0796 9923      		tst r25
 1302 0798 04F4      		brge .L41
 276:lp_solve_5.5/shared/myblas.c ****     iy = (-n+1)*incy + 1;
 1303               		.loc 1 276 0
 1304 079a 21E0      		ldi r18,lo8(1)
 1305 079c 30E0      		ldi r19,0
 1306 079e 8B85      		ldd r24,Y+11
 1307 07a0 9C85      		ldd r25,Y+12
 1308 07a2 A901      		movw r20,r18
 1309 07a4 481B      		sub r20,r24
 1310 07a6 590B      		sbc r21,r25
 1311 07a8 2F85      		ldd r18,Y+15
 1312 07aa 3889      		ldd r19,Y+16
 1313 07ac 429F      		mul r20,r18
 1314 07ae C001      		movw r24,r0
 1315 07b0 439F      		mul r20,r19
 1316 07b2 900D      		add r25,r0
 1317 07b4 529F      		mul r21,r18
 1318 07b6 900D      		add r25,r0
 1319 07b8 1124      		clr r1
 1320 07ba 0196      		adiw r24,1
 1321 07bc 9E83      		std Y+6,r25
 1322 07be 8D83      		std Y+5,r24
 1323               	.L41:
 1324               	.LBB4:
 277:lp_solve_5.5/shared/myblas.c **** 
 278:lp_solve_5.5/shared/myblas.c **** 
 279:lp_solve_5.5/shared/myblas.c **** /* CPU intensive loop; option to do pointer arithmetic */
 280:lp_solve_5.5/shared/myblas.c **** #if defined DOFASTMATH
 281:lp_solve_5.5/shared/myblas.c ****   {
 282:lp_solve_5.5/shared/myblas.c ****     REAL *xptr, *yptr;
 283:lp_solve_5.5/shared/myblas.c ****     for (i = 1, xptr = dx + ix, yptr = dy + iy;
 1325               		.loc 1 283 0
 1326 07c0 81E0      		ldi r24,lo8(1)
 1327 07c2 90E0      		ldi r25,0
 1328 07c4 9A83      		std Y+2,r25
 1329 07c6 8983      		std Y+1,r24
 1330 07c8 8B81      		ldd r24,Y+3
 1331 07ca 9C81      		ldd r25,Y+4
 1332 07cc 880F      		lsl r24
 1333 07ce 991F      		rol r25
 1334 07d0 880F      		lsl r24
 1335 07d2 991F      		rol r25
 1336 07d4 2B89      		ldd r18,Y+19
 1337 07d6 3C89      		ldd r19,Y+20
 1338 07d8 820F      		add r24,r18
 1339 07da 931F      		adc r25,r19
 1340 07dc 9887      		std Y+8,r25
 1341 07de 8F83      		std Y+7,r24
 1342 07e0 8D81      		ldd r24,Y+5
 1343 07e2 9E81      		ldd r25,Y+6
 1344 07e4 880F      		lsl r24
 1345 07e6 991F      		rol r25
 1346 07e8 880F      		lsl r24
 1347 07ea 991F      		rol r25
 1348 07ec 2F89      		ldd r18,Y+23
 1349 07ee 388D      		ldd r19,Y+24
 1350 07f0 820F      		add r24,r18
 1351 07f2 931F      		adc r25,r19
 1352 07f4 9A87      		std Y+10,r25
 1353 07f6 8987      		std Y+9,r24
 1354 07f8 00C0      		rjmp .L42
 1355               	.L43:
 284:lp_solve_5.5/shared/myblas.c ****          i <= n; i++, xptr += incx, yptr += incy)
 285:lp_solve_5.5/shared/myblas.c ****       (*yptr) = (*xptr);
 1356               		.loc 1 285 0
 1357 07fa 8F81      		ldd r24,Y+7
 1358 07fc 9885      		ldd r25,Y+8
 1359 07fe FC01      		movw r30,r24
 1360 0800 8081      		ld r24,Z
 1361 0802 9181      		ldd r25,Z+1
 1362 0804 A281      		ldd r26,Z+2
 1363 0806 B381      		ldd r27,Z+3
 1364 0808 2985      		ldd r18,Y+9
 1365 080a 3A85      		ldd r19,Y+10
 1366 080c F901      		movw r30,r18
 1367 080e 8083      		st Z,r24
 1368 0810 9183      		std Z+1,r25
 1369 0812 A283      		std Z+2,r26
 1370 0814 B383      		std Z+3,r27
 284:lp_solve_5.5/shared/myblas.c ****          i <= n; i++, xptr += incx, yptr += incy)
 1371               		.loc 1 284 0
 1372 0816 8981      		ldd r24,Y+1
 1373 0818 9A81      		ldd r25,Y+2
 1374 081a 0196      		adiw r24,1
 1375 081c 9A83      		std Y+2,r25
 1376 081e 8983      		std Y+1,r24
 1377 0820 8D85      		ldd r24,Y+13
 1378 0822 9E85      		ldd r25,Y+14
 1379 0824 880F      		lsl r24
 1380 0826 991F      		rol r25
 1381 0828 880F      		lsl r24
 1382 082a 991F      		rol r25
 1383 082c 2F81      		ldd r18,Y+7
 1384 082e 3885      		ldd r19,Y+8
 1385 0830 820F      		add r24,r18
 1386 0832 931F      		adc r25,r19
 1387 0834 9887      		std Y+8,r25
 1388 0836 8F83      		std Y+7,r24
 1389 0838 8F85      		ldd r24,Y+15
 1390 083a 9889      		ldd r25,Y+16
 1391 083c 880F      		lsl r24
 1392 083e 991F      		rol r25
 1393 0840 880F      		lsl r24
 1394 0842 991F      		rol r25
 1395 0844 2985      		ldd r18,Y+9
 1396 0846 3A85      		ldd r19,Y+10
 1397 0848 820F      		add r24,r18
 1398 084a 931F      		adc r25,r19
 1399 084c 9A87      		std Y+10,r25
 1400 084e 8987      		std Y+9,r24
 1401               	.L42:
 283:lp_solve_5.5/shared/myblas.c ****          i <= n; i++, xptr += incx, yptr += incy)
 1402               		.loc 1 283 0 discriminator 1
 1403 0850 2981      		ldd r18,Y+1
 1404 0852 3A81      		ldd r19,Y+2
 1405 0854 8B85      		ldd r24,Y+11
 1406 0856 9C85      		ldd r25,Y+12
 1407 0858 8217      		cp r24,r18
 1408 085a 9307      		cpc r25,r19
 1409 085c 04F4      		brge .L43
 286:lp_solve_5.5/shared/myblas.c ****     return;
 1410               		.loc 1 286 0 discriminator 2
 1411 085e 0000      		nop
 1412 0860 00C0      		rjmp .L37
 1413               	.L44:
 1414               	.LBE4:
 267:lp_solve_5.5/shared/myblas.c **** 
 1415               		.loc 1 267 0
 1416 0862 0000      		nop
 1417               	.L37:
 1418               	/* epilogue start */
 287:lp_solve_5.5/shared/myblas.c ****   }
 288:lp_solve_5.5/shared/myblas.c **** #else
 289:lp_solve_5.5/shared/myblas.c **** 
 290:lp_solve_5.5/shared/myblas.c ****   if (incx==1 && incy==1) goto x20;
 291:lp_solve_5.5/shared/myblas.c **** 
 292:lp_solve_5.5/shared/myblas.c **** /* code for unequal increments or equal increments not equal to 1 */
 293:lp_solve_5.5/shared/myblas.c **** 
 294:lp_solve_5.5/shared/myblas.c ****   for (i = 1; i<=n; i++) {
 295:lp_solve_5.5/shared/myblas.c ****     dy[iy] = dx[ix];
 296:lp_solve_5.5/shared/myblas.c ****     ix+= incx;
 297:lp_solve_5.5/shared/myblas.c ****     iy+= incy;
 298:lp_solve_5.5/shared/myblas.c ****   }
 299:lp_solve_5.5/shared/myblas.c ****   return;
 300:lp_solve_5.5/shared/myblas.c **** 
 301:lp_solve_5.5/shared/myblas.c **** /* code for both increments equal to 1 */
 302:lp_solve_5.5/shared/myblas.c **** 
 303:lp_solve_5.5/shared/myblas.c **** /* version with fast machine copy logic (requires memory.h or string.h) */
 304:lp_solve_5.5/shared/myblas.c **** x20:
 305:lp_solve_5.5/shared/myblas.c **** #if defined DOFASTMATH
 306:lp_solve_5.5/shared/myblas.c ****   MEMCOPY(&dy[1], &dx[1], n);
 307:lp_solve_5.5/shared/myblas.c ****   return;
 308:lp_solve_5.5/shared/myblas.c **** #else
 309:lp_solve_5.5/shared/myblas.c **** 
 310:lp_solve_5.5/shared/myblas.c ****   m = n % 7;
 311:lp_solve_5.5/shared/myblas.c ****   if (m == 0) goto x40;
 312:lp_solve_5.5/shared/myblas.c ****   for (i = 1; i<=m; i++)
 313:lp_solve_5.5/shared/myblas.c ****      dy[i] = dx[i];
 314:lp_solve_5.5/shared/myblas.c ****   if (n < 7) return;
 315:lp_solve_5.5/shared/myblas.c **** 
 316:lp_solve_5.5/shared/myblas.c **** x40:
 317:lp_solve_5.5/shared/myblas.c ****   mp1 = m + 1;
 318:lp_solve_5.5/shared/myblas.c ****   for (i = mp1; i<=n; i=i+7) {
 319:lp_solve_5.5/shared/myblas.c ****      dy[i] = dx[i];
 320:lp_solve_5.5/shared/myblas.c ****      dy[i + 1] = dx[i + 1];
 321:lp_solve_5.5/shared/myblas.c ****      dy[i + 2] = dx[i + 2];
 322:lp_solve_5.5/shared/myblas.c ****      dy[i + 3] = dx[i + 3];
 323:lp_solve_5.5/shared/myblas.c ****      dy[i + 4] = dx[i + 4];
 324:lp_solve_5.5/shared/myblas.c ****      dy[i + 5] = dx[i + 5];
 325:lp_solve_5.5/shared/myblas.c ****      dy[i + 6] = dx[i + 6];
 326:lp_solve_5.5/shared/myblas.c ****   }
 327:lp_solve_5.5/shared/myblas.c **** #endif
 328:lp_solve_5.5/shared/myblas.c **** #endif
 329:lp_solve_5.5/shared/myblas.c **** }
 1419               		.loc 1 329 0
 1420 0864 6A96      		adiw r28,26
 1421 0866 0FB6      		in __tmp_reg__,__SREG__
 1422 0868 F894      		cli
 1423 086a DEBF      		out __SP_H__,r29
 1424 086c 0FBE      		out __SREG__,__tmp_reg__
 1425 086e CDBF      		out __SP_L__,r28
 1426 0870 DF91      		pop r29
 1427 0872 CF91      		pop r28
 1428 0874 1F91      		pop r17
 1429 0876 0F91      		pop r16
 1430 0878 0895      		ret
 1431               		.cfi_endproc
 1432               	.LFE14:
 1434               	.global	dscal
 1436               	dscal:
 1437               	.LFB15:
 330:lp_solve_5.5/shared/myblas.c **** 
 331:lp_solve_5.5/shared/myblas.c **** 
 332:lp_solve_5.5/shared/myblas.c **** /* ************************************************************************ */
 333:lp_solve_5.5/shared/myblas.c **** 
 334:lp_solve_5.5/shared/myblas.c **** void dscal (int n, REAL da, REAL *dx, int incx)
 335:lp_solve_5.5/shared/myblas.c **** {
 1438               		.loc 1 335 0
 1439               		.cfi_startproc
 1440 087a 0F93      		push r16
 1441               	.LCFI49:
 1442               		.cfi_def_cfa_offset 3
 1443               		.cfi_offset 16, -2
 1444 087c 1F93      		push r17
 1445               	.LCFI50:
 1446               		.cfi_def_cfa_offset 4
 1447               		.cfi_offset 17, -3
 1448 087e CF93      		push r28
 1449               	.LCFI51:
 1450               		.cfi_def_cfa_offset 5
 1451               		.cfi_offset 28, -4
 1452 0880 DF93      		push r29
 1453               	.LCFI52:
 1454               		.cfi_def_cfa_offset 6
 1455               		.cfi_offset 29, -5
 1456 0882 CDB7      		in r28,__SP_L__
 1457 0884 DEB7      		in r29,__SP_H__
 1458               	.LCFI53:
 1459               		.cfi_def_cfa_register 28
 1460 0886 2A97      		sbiw r28,10
 1461               	.LCFI54:
 1462               		.cfi_def_cfa_offset 16
 1463 0888 0FB6      		in __tmp_reg__,__SREG__
 1464 088a F894      		cli
 1465 088c DEBF      		out __SP_H__,r29
 1466 088e 0FBE      		out __SREG__,__tmp_reg__
 1467 0890 CDBF      		out __SP_L__,r28
 1468               	/* prologue: function */
 1469               	/* frame size = 10 */
 1470               	/* stack size = 14 */
 1471               	.L__stack_usage = 14
 1472 0892 9A83      		std Y+2,r25
 1473 0894 8983      		std Y+1,r24
 1474 0896 4B83      		std Y+3,r20
 1475 0898 5C83      		std Y+4,r21
 1476 089a 6D83      		std Y+5,r22
 1477 089c 7E83      		std Y+6,r23
 1478 089e 3887      		std Y+8,r19
 1479 08a0 2F83      		std Y+7,r18
 1480 08a2 1A87      		std Y+10,r17
 1481 08a4 0987      		std Y+9,r16
 336:lp_solve_5.5/shared/myblas.c ****   dx++;
 1482               		.loc 1 336 0
 1483 08a6 8F81      		ldd r24,Y+7
 1484 08a8 9885      		ldd r25,Y+8
 1485 08aa 0496      		adiw r24,4
 1486 08ac 9887      		std Y+8,r25
 1487 08ae 8F83      		std Y+7,r24
 337:lp_solve_5.5/shared/myblas.c ****   BLAS_dscal (&n, &da, dx, &incx);
 1488               		.loc 1 337 0
 1489 08b0 E091 0000 		lds r30,BLAS_dscal
 1490 08b4 F091 0000 		lds r31,BLAS_dscal+1
 1491 08b8 9E01      		movw r18,r28
 1492 08ba 275F      		subi r18,-9
 1493 08bc 3F4F      		sbci r19,-1
 1494 08be 4F81      		ldd r20,Y+7
 1495 08c0 5885      		ldd r21,Y+8
 1496 08c2 CE01      		movw r24,r28
 1497 08c4 0396      		adiw r24,3
 1498 08c6 BC01      		movw r22,r24
 1499 08c8 CE01      		movw r24,r28
 1500 08ca 0196      		adiw r24,1
 1501 08cc 0995      		icall
 338:lp_solve_5.5/shared/myblas.c **** }
 1502               		.loc 1 338 0
 1503 08ce 0000      		nop
 1504               	/* epilogue start */
 1505 08d0 2A96      		adiw r28,10
 1506 08d2 0FB6      		in __tmp_reg__,__SREG__
 1507 08d4 F894      		cli
 1508 08d6 DEBF      		out __SP_H__,r29
 1509 08d8 0FBE      		out __SREG__,__tmp_reg__
 1510 08da CDBF      		out __SP_L__,r28
 1511 08dc DF91      		pop r29
 1512 08de CF91      		pop r28
 1513 08e0 1F91      		pop r17
 1514 08e2 0F91      		pop r16
 1515 08e4 0895      		ret
 1516               		.cfi_endproc
 1517               	.LFE15:
 1519               	.global	my_dscal
 1521               	my_dscal:
 1522               	.LFB16:
 339:lp_solve_5.5/shared/myblas.c **** 
 340:lp_solve_5.5/shared/myblas.c **** void BLAS_CALLMODEL my_dscal (int *_n, REAL *_da, REAL *dx, int *_incx)
 341:lp_solve_5.5/shared/myblas.c **** {
 1523               		.loc 1 341 0
 1524               		.cfi_startproc
 1525 08e6 CF92      		push r12
 1526               	.LCFI55:
 1527               		.cfi_def_cfa_offset 3
 1528               		.cfi_offset 12, -2
 1529 08e8 DF92      		push r13
 1530               	.LCFI56:
 1531               		.cfi_def_cfa_offset 4
 1532               		.cfi_offset 13, -3
 1533 08ea EF92      		push r14
 1534               	.LCFI57:
 1535               		.cfi_def_cfa_offset 5
 1536               		.cfi_offset 14, -4
 1537 08ec FF92      		push r15
 1538               	.LCFI58:
 1539               		.cfi_def_cfa_offset 6
 1540               		.cfi_offset 15, -5
 1541 08ee CF93      		push r28
 1542               	.LCFI59:
 1543               		.cfi_def_cfa_offset 7
 1544               		.cfi_offset 28, -6
 1545 08f0 DF93      		push r29
 1546               	.LCFI60:
 1547               		.cfi_def_cfa_offset 8
 1548               		.cfi_offset 29, -7
 1549 08f2 CDB7      		in r28,__SP_L__
 1550 08f4 DEB7      		in r29,__SP_H__
 1551               	.LCFI61:
 1552               		.cfi_def_cfa_register 28
 1553 08f6 6497      		sbiw r28,20
 1554               	.LCFI62:
 1555               		.cfi_def_cfa_offset 28
 1556 08f8 0FB6      		in __tmp_reg__,__SREG__
 1557 08fa F894      		cli
 1558 08fc DEBF      		out __SP_H__,r29
 1559 08fe 0FBE      		out __SREG__,__tmp_reg__
 1560 0900 CDBF      		out __SP_L__,r28
 1561               	/* prologue: function */
 1562               	/* frame size = 20 */
 1563               	/* stack size = 26 */
 1564               	.L__stack_usage = 26
 1565 0902 9E87      		std Y+14,r25
 1566 0904 8D87      		std Y+13,r24
 1567 0906 788B      		std Y+16,r23
 1568 0908 6F87      		std Y+15,r22
 1569 090a 5A8B      		std Y+18,r21
 1570 090c 498B      		std Y+17,r20
 1571 090e 3C8B      		std Y+20,r19
 1572 0910 2B8B      		std Y+19,r18
 342:lp_solve_5.5/shared/myblas.c **** 
 343:lp_solve_5.5/shared/myblas.c **** /* Multiply a vector by a constant.
 344:lp_solve_5.5/shared/myblas.c **** 
 345:lp_solve_5.5/shared/myblas.c ****      --Input--
 346:lp_solve_5.5/shared/myblas.c ****         N  number of elements in input vector(s)
 347:lp_solve_5.5/shared/myblas.c ****        DA  double precision scale factor
 348:lp_solve_5.5/shared/myblas.c ****        DX  double precision vector with N elements
 349:lp_solve_5.5/shared/myblas.c ****      INCX  storage spacing between elements of DX
 350:lp_solve_5.5/shared/myblas.c **** 
 351:lp_solve_5.5/shared/myblas.c ****      --Output--
 352:lp_solve_5.5/shared/myblas.c ****        DX  double precision result (unchanged if N.LE.0)
 353:lp_solve_5.5/shared/myblas.c **** 
 354:lp_solve_5.5/shared/myblas.c ****      Replace double precision DX by double precision DA*DX.
 355:lp_solve_5.5/shared/myblas.c ****      For I = 0 to N-1, replace DX(IX+I*INCX) with  DA * DX(IX+I*INCX),
 356:lp_solve_5.5/shared/myblas.c ****      where IX = 1 if INCX .GE. 0, else IX = 1+(1-N)*INCX. */
 357:lp_solve_5.5/shared/myblas.c **** 
 358:lp_solve_5.5/shared/myblas.c ****   int      i;
 359:lp_solve_5.5/shared/myblas.c **** #if !defined DOFASTMATH
 360:lp_solve_5.5/shared/myblas.c ****   int      ix, m, mp1;
 361:lp_solve_5.5/shared/myblas.c **** #endif
 362:lp_solve_5.5/shared/myblas.c ****   register REAL rda;
 363:lp_solve_5.5/shared/myblas.c ****   REAL      da = *_da;
 1573               		.loc 1 363 0
 1574 0912 8F85      		ldd r24,Y+15
 1575 0914 9889      		ldd r25,Y+16
 1576 0916 FC01      		movw r30,r24
 1577 0918 8081      		ld r24,Z
 1578 091a 9181      		ldd r25,Z+1
 1579 091c A281      		ldd r26,Z+2
 1580 091e B381      		ldd r27,Z+3
 1581 0920 8D83      		std Y+5,r24
 1582 0922 9E83      		std Y+6,r25
 1583 0924 AF83      		std Y+7,r26
 1584 0926 B887      		std Y+8,r27
 364:lp_solve_5.5/shared/myblas.c ****   int      n = *_n, incx = *_incx;
 1585               		.loc 1 364 0
 1586 0928 8D85      		ldd r24,Y+13
 1587 092a 9E85      		ldd r25,Y+14
 1588 092c FC01      		movw r30,r24
 1589 092e 8081      		ld r24,Z
 1590 0930 9181      		ldd r25,Z+1
 1591 0932 9A87      		std Y+10,r25
 1592 0934 8987      		std Y+9,r24
 1593 0936 8B89      		ldd r24,Y+19
 1594 0938 9C89      		ldd r25,Y+20
 1595 093a FC01      		movw r30,r24
 1596 093c 8081      		ld r24,Z
 1597 093e 9181      		ldd r25,Z+1
 1598 0940 9C87      		std Y+12,r25
 1599 0942 8B87      		std Y+11,r24
 365:lp_solve_5.5/shared/myblas.c **** 
 366:lp_solve_5.5/shared/myblas.c ****   if (n <= 0)
 1600               		.loc 1 366 0
 1601 0944 8985      		ldd r24,Y+9
 1602 0946 9A85      		ldd r25,Y+10
 1603 0948 1816      		cp __zero_reg__,r24
 1604 094a 1906      		cpc __zero_reg__,r25
 1605 094c 04F0      		brlt .+2
 1606 094e 00C0      		rjmp .L51
 367:lp_solve_5.5/shared/myblas.c ****     return;
 368:lp_solve_5.5/shared/myblas.c ****   rda = da;  
 1607               		.loc 1 368 0
 1608 0950 CD80      		ldd r12,Y+5
 1609 0952 DE80      		ldd r13,Y+6
 1610 0954 EF80      		ldd r14,Y+7
 1611 0956 F884      		ldd r15,Y+8
 369:lp_solve_5.5/shared/myblas.c ****   
 370:lp_solve_5.5/shared/myblas.c ****   dx--;
 1612               		.loc 1 370 0
 1613 0958 8989      		ldd r24,Y+17
 1614 095a 9A89      		ldd r25,Y+18
 1615 095c 0497      		sbiw r24,4
 1616 095e 9A8B      		std Y+18,r25
 1617 0960 898B      		std Y+17,r24
 1618               	.LBB5:
 371:lp_solve_5.5/shared/myblas.c **** 
 372:lp_solve_5.5/shared/myblas.c **** /* Optionally do fast pointer arithmetic */
 373:lp_solve_5.5/shared/myblas.c **** #if defined DOFASTMATH
 374:lp_solve_5.5/shared/myblas.c ****   {
 375:lp_solve_5.5/shared/myblas.c ****     REAL *xptr;
 376:lp_solve_5.5/shared/myblas.c ****     for (i = 1, xptr = dx + 1; i <= n; i++, xptr += incx)
 1619               		.loc 1 376 0
 1620 0962 81E0      		ldi r24,lo8(1)
 1621 0964 90E0      		ldi r25,0
 1622 0966 9A83      		std Y+2,r25
 1623 0968 8983      		std Y+1,r24
 1624 096a 8989      		ldd r24,Y+17
 1625 096c 9A89      		ldd r25,Y+18
 1626 096e 0496      		adiw r24,4
 1627 0970 9C83      		std Y+4,r25
 1628 0972 8B83      		std Y+3,r24
 1629 0974 00C0      		rjmp .L49
 1630               	.L50:
 377:lp_solve_5.5/shared/myblas.c ****       (*xptr) *= rda;
 1631               		.loc 1 377 0 discriminator 3
 1632 0976 8B81      		ldd r24,Y+3
 1633 0978 9C81      		ldd r25,Y+4
 1634 097a FC01      		movw r30,r24
 1635 097c 8081      		ld r24,Z
 1636 097e 9181      		ldd r25,Z+1
 1637 0980 A281      		ldd r26,Z+2
 1638 0982 B381      		ldd r27,Z+3
 1639 0984 A701      		movw r20,r14
 1640 0986 9601      		movw r18,r12
 1641 0988 BC01      		movw r22,r24
 1642 098a CD01      		movw r24,r26
 1643 098c 0E94 0000 		call __mulsf3
 1644 0990 DC01      		movw r26,r24
 1645 0992 CB01      		movw r24,r22
 1646 0994 2B81      		ldd r18,Y+3
 1647 0996 3C81      		ldd r19,Y+4
 1648 0998 F901      		movw r30,r18
 1649 099a 8083      		st Z,r24
 1650 099c 9183      		std Z+1,r25
 1651 099e A283      		std Z+2,r26
 1652 09a0 B383      		std Z+3,r27
 376:lp_solve_5.5/shared/myblas.c ****       (*xptr) *= rda;
 1653               		.loc 1 376 0 discriminator 3
 1654 09a2 8981      		ldd r24,Y+1
 1655 09a4 9A81      		ldd r25,Y+2
 1656 09a6 0196      		adiw r24,1
 1657 09a8 9A83      		std Y+2,r25
 1658 09aa 8983      		std Y+1,r24
 1659 09ac 8B85      		ldd r24,Y+11
 1660 09ae 9C85      		ldd r25,Y+12
 1661 09b0 880F      		lsl r24
 1662 09b2 991F      		rol r25
 1663 09b4 880F      		lsl r24
 1664 09b6 991F      		rol r25
 1665 09b8 2B81      		ldd r18,Y+3
 1666 09ba 3C81      		ldd r19,Y+4
 1667 09bc 820F      		add r24,r18
 1668 09be 931F      		adc r25,r19
 1669 09c0 9C83      		std Y+4,r25
 1670 09c2 8B83      		std Y+3,r24
 1671               	.L49:
 376:lp_solve_5.5/shared/myblas.c ****       (*xptr) *= rda;
 1672               		.loc 1 376 0 is_stmt 0 discriminator 1
 1673 09c4 2981      		ldd r18,Y+1
 1674 09c6 3A81      		ldd r19,Y+2
 1675 09c8 8985      		ldd r24,Y+9
 1676 09ca 9A85      		ldd r25,Y+10
 1677 09cc 8217      		cp r24,r18
 1678 09ce 9307      		cpc r25,r19
 1679 09d0 04F4      		brge .L50
 378:lp_solve_5.5/shared/myblas.c ****     return;
 1680               		.loc 1 378 0 is_stmt 1 discriminator 2
 1681 09d2 0000      		nop
 1682 09d4 00C0      		rjmp .L46
 1683               	.L51:
 1684               	.LBE5:
 367:lp_solve_5.5/shared/myblas.c ****   rda = da;  
 1685               		.loc 1 367 0
 1686 09d6 0000      		nop
 1687               	.L46:
 1688               	/* epilogue start */
 379:lp_solve_5.5/shared/myblas.c ****   }
 380:lp_solve_5.5/shared/myblas.c **** #else
 381:lp_solve_5.5/shared/myblas.c **** 
 382:lp_solve_5.5/shared/myblas.c ****   if (incx == 1)
 383:lp_solve_5.5/shared/myblas.c ****     goto x20;
 384:lp_solve_5.5/shared/myblas.c **** 
 385:lp_solve_5.5/shared/myblas.c **** /* Code for increment not equal to 1 */
 386:lp_solve_5.5/shared/myblas.c ****   ix = 1;
 387:lp_solve_5.5/shared/myblas.c ****   if (incx < 0)
 388:lp_solve_5.5/shared/myblas.c ****     ix = (-n+1)*incx + 1;
 389:lp_solve_5.5/shared/myblas.c ****   for(i = 1; i <= n; i++, ix += incx)
 390:lp_solve_5.5/shared/myblas.c ****     dx[ix] *= rda;
 391:lp_solve_5.5/shared/myblas.c ****   return;
 392:lp_solve_5.5/shared/myblas.c **** 
 393:lp_solve_5.5/shared/myblas.c **** /* Code for increment equal to 1. */
 394:lp_solve_5.5/shared/myblas.c **** /* Clean-up loop so remaining vector length is a multiple of 5. */
 395:lp_solve_5.5/shared/myblas.c **** x20:
 396:lp_solve_5.5/shared/myblas.c ****   m = n % 5;
 397:lp_solve_5.5/shared/myblas.c ****   if (m == 0) goto x40;
 398:lp_solve_5.5/shared/myblas.c ****   for( i = 1; i <= m; i++)
 399:lp_solve_5.5/shared/myblas.c ****     dx[i] *= rda;
 400:lp_solve_5.5/shared/myblas.c ****   if (n < 5)
 401:lp_solve_5.5/shared/myblas.c ****     return;
 402:lp_solve_5.5/shared/myblas.c **** x40:
 403:lp_solve_5.5/shared/myblas.c ****   mp1 = m + 1;
 404:lp_solve_5.5/shared/myblas.c ****   for(i = mp1; i <= n; i += 5) {
 405:lp_solve_5.5/shared/myblas.c ****     dx[i]   *= rda;
 406:lp_solve_5.5/shared/myblas.c ****     dx[i+1] *= rda;
 407:lp_solve_5.5/shared/myblas.c ****     dx[i+2] *= rda;
 408:lp_solve_5.5/shared/myblas.c ****     dx[i+3] *= rda;
 409:lp_solve_5.5/shared/myblas.c ****     dx[i+4] *= rda;
 410:lp_solve_5.5/shared/myblas.c ****   }
 411:lp_solve_5.5/shared/myblas.c **** #endif
 412:lp_solve_5.5/shared/myblas.c **** }
 1689               		.loc 1 412 0
 1690 09d8 6496      		adiw r28,20
 1691 09da 0FB6      		in __tmp_reg__,__SREG__
 1692 09dc F894      		cli
 1693 09de DEBF      		out __SP_H__,r29
 1694 09e0 0FBE      		out __SREG__,__tmp_reg__
 1695 09e2 CDBF      		out __SP_L__,r28
 1696 09e4 DF91      		pop r29
 1697 09e6 CF91      		pop r28
 1698 09e8 FF90      		pop r15
 1699 09ea EF90      		pop r14
 1700 09ec DF90      		pop r13
 1701 09ee CF90      		pop r12
 1702 09f0 0895      		ret
 1703               		.cfi_endproc
 1704               	.LFE16:
 1706               	.global	ddot
 1708               	ddot:
 1709               	.LFB17:
 413:lp_solve_5.5/shared/myblas.c **** 
 414:lp_solve_5.5/shared/myblas.c **** 
 415:lp_solve_5.5/shared/myblas.c **** /* ************************************************************************ */
 416:lp_solve_5.5/shared/myblas.c **** 
 417:lp_solve_5.5/shared/myblas.c **** REAL ddot(int n, REAL *dx, int incx, REAL *dy, int incy)
 418:lp_solve_5.5/shared/myblas.c **** {
 1710               		.loc 1 418 0
 1711               		.cfi_startproc
 1712 09f2 0F93      		push r16
 1713               	.LCFI63:
 1714               		.cfi_def_cfa_offset 3
 1715               		.cfi_offset 16, -2
 1716 09f4 1F93      		push r17
 1717               	.LCFI64:
 1718               		.cfi_def_cfa_offset 4
 1719               		.cfi_offset 17, -3
 1720 09f6 CF93      		push r28
 1721               	.LCFI65:
 1722               		.cfi_def_cfa_offset 5
 1723               		.cfi_offset 28, -4
 1724 09f8 DF93      		push r29
 1725               	.LCFI66:
 1726               		.cfi_def_cfa_offset 6
 1727               		.cfi_offset 29, -5
 1728 09fa CDB7      		in r28,__SP_L__
 1729 09fc DEB7      		in r29,__SP_H__
 1730               	.LCFI67:
 1731               		.cfi_def_cfa_register 28
 1732 09fe 2A97      		sbiw r28,10
 1733               	.LCFI68:
 1734               		.cfi_def_cfa_offset 16
 1735 0a00 0FB6      		in __tmp_reg__,__SREG__
 1736 0a02 F894      		cli
 1737 0a04 DEBF      		out __SP_H__,r29
 1738 0a06 0FBE      		out __SREG__,__tmp_reg__
 1739 0a08 CDBF      		out __SP_L__,r28
 1740               	/* prologue: function */
 1741               	/* frame size = 10 */
 1742               	/* stack size = 14 */
 1743               	.L__stack_usage = 14
 1744 0a0a 9A83      		std Y+2,r25
 1745 0a0c 8983      		std Y+1,r24
 1746 0a0e 7C83      		std Y+4,r23
 1747 0a10 6B83      		std Y+3,r22
 1748 0a12 5E83      		std Y+6,r21
 1749 0a14 4D83      		std Y+5,r20
 1750 0a16 3887      		std Y+8,r19
 1751 0a18 2F83      		std Y+7,r18
 1752 0a1a 1A87      		std Y+10,r17
 1753 0a1c 0987      		std Y+9,r16
 419:lp_solve_5.5/shared/myblas.c ****   dx++;
 1754               		.loc 1 419 0
 1755 0a1e 8B81      		ldd r24,Y+3
 1756 0a20 9C81      		ldd r25,Y+4
 1757 0a22 0496      		adiw r24,4
 1758 0a24 9C83      		std Y+4,r25
 1759 0a26 8B83      		std Y+3,r24
 420:lp_solve_5.5/shared/myblas.c ****   dy++;
 1760               		.loc 1 420 0
 1761 0a28 8F81      		ldd r24,Y+7
 1762 0a2a 9885      		ldd r25,Y+8
 1763 0a2c 0496      		adiw r24,4
 1764 0a2e 9887      		std Y+8,r25
 1765 0a30 8F83      		std Y+7,r24
 421:lp_solve_5.5/shared/myblas.c ****   return( BLAS_ddot (&n, dx, &incx, dy, &incy) );
 1766               		.loc 1 421 0
 1767 0a32 E091 0000 		lds r30,BLAS_ddot
 1768 0a36 F091 0000 		lds r31,BLAS_ddot+1
 1769 0a3a BE01      		movw r22,r28
 1770 0a3c 675F      		subi r22,-9
 1771 0a3e 7F4F      		sbci r23,-1
 1772 0a40 2F81      		ldd r18,Y+7
 1773 0a42 3885      		ldd r19,Y+8
 1774 0a44 AE01      		movw r20,r28
 1775 0a46 4B5F      		subi r20,-5
 1776 0a48 5F4F      		sbci r21,-1
 1777 0a4a 8B81      		ldd r24,Y+3
 1778 0a4c 9C81      		ldd r25,Y+4
 1779 0a4e 8B01      		movw r16,r22
 1780 0a50 BC01      		movw r22,r24
 1781 0a52 CE01      		movw r24,r28
 1782 0a54 0196      		adiw r24,1
 1783 0a56 0995      		icall
 1784 0a58 DC01      		movw r26,r24
 1785 0a5a CB01      		movw r24,r22
 422:lp_solve_5.5/shared/myblas.c **** }
 1786               		.loc 1 422 0
 1787 0a5c BC01      		movw r22,r24
 1788 0a5e CD01      		movw r24,r26
 1789               	/* epilogue start */
 1790 0a60 2A96      		adiw r28,10
 1791 0a62 0FB6      		in __tmp_reg__,__SREG__
 1792 0a64 F894      		cli
 1793 0a66 DEBF      		out __SP_H__,r29
 1794 0a68 0FBE      		out __SREG__,__tmp_reg__
 1795 0a6a CDBF      		out __SP_L__,r28
 1796 0a6c DF91      		pop r29
 1797 0a6e CF91      		pop r28
 1798 0a70 1F91      		pop r17
 1799 0a72 0F91      		pop r16
 1800 0a74 0895      		ret
 1801               		.cfi_endproc
 1802               	.LFE17:
 1804               	.global	my_ddot
 1806               	my_ddot:
 1807               	.LFB18:
 423:lp_solve_5.5/shared/myblas.c **** 
 424:lp_solve_5.5/shared/myblas.c **** REAL BLAS_CALLMODEL my_ddot(int *_n, REAL *dx, int *_incx, REAL *dy, int *_incy)
 425:lp_solve_5.5/shared/myblas.c **** {
 1808               		.loc 1 425 0
 1809               		.cfi_startproc
 1810 0a76 CF92      		push r12
 1811               	.LCFI69:
 1812               		.cfi_def_cfa_offset 3
 1813               		.cfi_offset 12, -2
 1814 0a78 DF92      		push r13
 1815               	.LCFI70:
 1816               		.cfi_def_cfa_offset 4
 1817               		.cfi_offset 13, -3
 1818 0a7a EF92      		push r14
 1819               	.LCFI71:
 1820               		.cfi_def_cfa_offset 5
 1821               		.cfi_offset 14, -4
 1822 0a7c FF92      		push r15
 1823               	.LCFI72:
 1824               		.cfi_def_cfa_offset 6
 1825               		.cfi_offset 15, -5
 1826 0a7e 0F93      		push r16
 1827               	.LCFI73:
 1828               		.cfi_def_cfa_offset 7
 1829               		.cfi_offset 16, -6
 1830 0a80 1F93      		push r17
 1831               	.LCFI74:
 1832               		.cfi_def_cfa_offset 8
 1833               		.cfi_offset 17, -7
 1834 0a82 CF93      		push r28
 1835               	.LCFI75:
 1836               		.cfi_def_cfa_offset 9
 1837               		.cfi_offset 28, -8
 1838 0a84 DF93      		push r29
 1839               	.LCFI76:
 1840               		.cfi_def_cfa_offset 10
 1841               		.cfi_offset 29, -9
 1842 0a86 CDB7      		in r28,__SP_L__
 1843 0a88 DEB7      		in r29,__SP_H__
 1844               	.LCFI77:
 1845               		.cfi_def_cfa_register 28
 1846 0a8a 6A97      		sbiw r28,26
 1847               	.LCFI78:
 1848               		.cfi_def_cfa_offset 36
 1849 0a8c 0FB6      		in __tmp_reg__,__SREG__
 1850 0a8e F894      		cli
 1851 0a90 DEBF      		out __SP_H__,r29
 1852 0a92 0FBE      		out __SREG__,__tmp_reg__
 1853 0a94 CDBF      		out __SP_L__,r28
 1854               	/* prologue: function */
 1855               	/* frame size = 26 */
 1856               	/* stack size = 34 */
 1857               	.L__stack_usage = 34
 1858 0a96 9A8B      		std Y+18,r25
 1859 0a98 898B      		std Y+17,r24
 1860 0a9a 7C8B      		std Y+20,r23
 1861 0a9c 6B8B      		std Y+19,r22
 1862 0a9e 5E8B      		std Y+22,r21
 1863 0aa0 4D8B      		std Y+21,r20
 1864 0aa2 388F      		std Y+24,r19
 1865 0aa4 2F8B      		std Y+23,r18
 1866 0aa6 1A8F      		std Y+26,r17
 1867 0aa8 098F      		std Y+25,r16
 426:lp_solve_5.5/shared/myblas.c **** 
 427:lp_solve_5.5/shared/myblas.c **** /* forms the dot product of two vectors.
 428:lp_solve_5.5/shared/myblas.c ****    uses unrolled loops for increments equal to one.
 429:lp_solve_5.5/shared/myblas.c ****    jack dongarra, linpack, 3/11/78.
 430:lp_solve_5.5/shared/myblas.c ****    modified 12/3/93, array[1] declarations changed to array[*] */
 431:lp_solve_5.5/shared/myblas.c **** 
 432:lp_solve_5.5/shared/myblas.c ****   register REAL dtemp;
 433:lp_solve_5.5/shared/myblas.c ****   int      i, ix, iy;
 434:lp_solve_5.5/shared/myblas.c **** #if !defined DOFASTMATH
 435:lp_solve_5.5/shared/myblas.c ****   int      m, mp1;
 436:lp_solve_5.5/shared/myblas.c **** #endif
 437:lp_solve_5.5/shared/myblas.c ****   int      n = *_n, incx = *_incx, incy = *_incy;
 1868               		.loc 1 437 0
 1869 0aaa 8989      		ldd r24,Y+17
 1870 0aac 9A89      		ldd r25,Y+18
 1871 0aae FC01      		movw r30,r24
 1872 0ab0 8081      		ld r24,Z
 1873 0ab2 9181      		ldd r25,Z+1
 1874 0ab4 9C87      		std Y+12,r25
 1875 0ab6 8B87      		std Y+11,r24
 1876 0ab8 8D89      		ldd r24,Y+21
 1877 0aba 9E89      		ldd r25,Y+22
 1878 0abc FC01      		movw r30,r24
 1879 0abe 8081      		ld r24,Z
 1880 0ac0 9181      		ldd r25,Z+1
 1881 0ac2 9E87      		std Y+14,r25
 1882 0ac4 8D87      		std Y+13,r24
 1883 0ac6 898D      		ldd r24,Y+25
 1884 0ac8 9A8D      		ldd r25,Y+26
 1885 0aca FC01      		movw r30,r24
 1886 0acc 8081      		ld r24,Z
 1887 0ace 9181      		ldd r25,Z+1
 1888 0ad0 988B      		std Y+16,r25
 1889 0ad2 8F87      		std Y+15,r24
 438:lp_solve_5.5/shared/myblas.c **** 
 439:lp_solve_5.5/shared/myblas.c ****   dtemp = 0.0;
 1890               		.loc 1 439 0
 1891 0ad4 C12C      		mov r12,__zero_reg__
 1892 0ad6 D12C      		mov r13,__zero_reg__
 1893 0ad8 7601      		movw r14,r12
 440:lp_solve_5.5/shared/myblas.c ****   if (n<=0)
 1894               		.loc 1 440 0
 1895 0ada 8B85      		ldd r24,Y+11
 1896 0adc 9C85      		ldd r25,Y+12
 1897 0ade 1816      		cp __zero_reg__,r24
 1898 0ae0 1906      		cpc __zero_reg__,r25
 1899 0ae2 04F0      		brlt .L55
 441:lp_solve_5.5/shared/myblas.c ****     return( (REAL) dtemp);
 1900               		.loc 1 441 0
 1901 0ae4 D701      		movw r26,r14
 1902 0ae6 C601      		movw r24,r12
 1903 0ae8 00C0      		rjmp .L56
 1904               	.L55:
 442:lp_solve_5.5/shared/myblas.c **** 
 443:lp_solve_5.5/shared/myblas.c ****   dx--;
 1905               		.loc 1 443 0
 1906 0aea 8B89      		ldd r24,Y+19
 1907 0aec 9C89      		ldd r25,Y+20
 1908 0aee 0497      		sbiw r24,4
 1909 0af0 9C8B      		std Y+20,r25
 1910 0af2 8B8B      		std Y+19,r24
 444:lp_solve_5.5/shared/myblas.c ****   dy--;
 1911               		.loc 1 444 0
 1912 0af4 8F89      		ldd r24,Y+23
 1913 0af6 988D      		ldd r25,Y+24
 1914 0af8 0497      		sbiw r24,4
 1915 0afa 988F      		std Y+24,r25
 1916 0afc 8F8B      		std Y+23,r24
 445:lp_solve_5.5/shared/myblas.c ****   ix = 1;
 1917               		.loc 1 445 0
 1918 0afe 81E0      		ldi r24,lo8(1)
 1919 0b00 90E0      		ldi r25,0
 1920 0b02 9C83      		std Y+4,r25
 1921 0b04 8B83      		std Y+3,r24
 446:lp_solve_5.5/shared/myblas.c ****   iy = 1;
 1922               		.loc 1 446 0
 1923 0b06 81E0      		ldi r24,lo8(1)
 1924 0b08 90E0      		ldi r25,0
 1925 0b0a 9E83      		std Y+6,r25
 1926 0b0c 8D83      		std Y+5,r24
 447:lp_solve_5.5/shared/myblas.c ****   if (incx<0)
 1927               		.loc 1 447 0
 1928 0b0e 8D85      		ldd r24,Y+13
 1929 0b10 9E85      		ldd r25,Y+14
 1930 0b12 9923      		tst r25
 1931 0b14 04F4      		brge .L57
 448:lp_solve_5.5/shared/myblas.c ****      ix = (-n+1)*incx + 1;
 1932               		.loc 1 448 0
 1933 0b16 21E0      		ldi r18,lo8(1)
 1934 0b18 30E0      		ldi r19,0
 1935 0b1a 8B85      		ldd r24,Y+11
 1936 0b1c 9C85      		ldd r25,Y+12
 1937 0b1e A901      		movw r20,r18
 1938 0b20 481B      		sub r20,r24
 1939 0b22 590B      		sbc r21,r25
 1940 0b24 2D85      		ldd r18,Y+13
 1941 0b26 3E85      		ldd r19,Y+14
 1942 0b28 429F      		mul r20,r18
 1943 0b2a C001      		movw r24,r0
 1944 0b2c 439F      		mul r20,r19
 1945 0b2e 900D      		add r25,r0
 1946 0b30 529F      		mul r21,r18
 1947 0b32 900D      		add r25,r0
 1948 0b34 1124      		clr r1
 1949 0b36 0196      		adiw r24,1
 1950 0b38 9C83      		std Y+4,r25
 1951 0b3a 8B83      		std Y+3,r24
 1952               	.L57:
 449:lp_solve_5.5/shared/myblas.c ****   if (incy<0)
 1953               		.loc 1 449 0
 1954 0b3c 8F85      		ldd r24,Y+15
 1955 0b3e 9889      		ldd r25,Y+16
 1956 0b40 9923      		tst r25
 1957 0b42 04F4      		brge .L58
 450:lp_solve_5.5/shared/myblas.c ****      iy = (-n+1)*incy + 1;
 1958               		.loc 1 450 0
 1959 0b44 21E0      		ldi r18,lo8(1)
 1960 0b46 30E0      		ldi r19,0
 1961 0b48 8B85      		ldd r24,Y+11
 1962 0b4a 9C85      		ldd r25,Y+12
 1963 0b4c A901      		movw r20,r18
 1964 0b4e 481B      		sub r20,r24
 1965 0b50 590B      		sbc r21,r25
 1966 0b52 2F85      		ldd r18,Y+15
 1967 0b54 3889      		ldd r19,Y+16
 1968 0b56 429F      		mul r20,r18
 1969 0b58 C001      		movw r24,r0
 1970 0b5a 439F      		mul r20,r19
 1971 0b5c 900D      		add r25,r0
 1972 0b5e 529F      		mul r21,r18
 1973 0b60 900D      		add r25,r0
 1974 0b62 1124      		clr r1
 1975 0b64 0196      		adiw r24,1
 1976 0b66 9E83      		std Y+6,r25
 1977 0b68 8D83      		std Y+5,r24
 1978               	.L58:
 1979               	.LBB6:
 451:lp_solve_5.5/shared/myblas.c **** 
 452:lp_solve_5.5/shared/myblas.c **** /* CPU intensive loop; option to do pointer arithmetic */
 453:lp_solve_5.5/shared/myblas.c **** 
 454:lp_solve_5.5/shared/myblas.c **** #if defined DOFASTMATH
 455:lp_solve_5.5/shared/myblas.c ****   {
 456:lp_solve_5.5/shared/myblas.c ****     REAL *xptr, *yptr;
 457:lp_solve_5.5/shared/myblas.c ****     for (i = 1, xptr = dx + ix, yptr = dy + iy;
 1980               		.loc 1 457 0
 1981 0b6a 81E0      		ldi r24,lo8(1)
 1982 0b6c 90E0      		ldi r25,0
 1983 0b6e 9A83      		std Y+2,r25
 1984 0b70 8983      		std Y+1,r24
 1985 0b72 8B81      		ldd r24,Y+3
 1986 0b74 9C81      		ldd r25,Y+4
 1987 0b76 880F      		lsl r24
 1988 0b78 991F      		rol r25
 1989 0b7a 880F      		lsl r24
 1990 0b7c 991F      		rol r25
 1991 0b7e 2B89      		ldd r18,Y+19
 1992 0b80 3C89      		ldd r19,Y+20
 1993 0b82 820F      		add r24,r18
 1994 0b84 931F      		adc r25,r19
 1995 0b86 9887      		std Y+8,r25
 1996 0b88 8F83      		std Y+7,r24
 1997 0b8a 8D81      		ldd r24,Y+5
 1998 0b8c 9E81      		ldd r25,Y+6
 1999 0b8e 880F      		lsl r24
 2000 0b90 991F      		rol r25
 2001 0b92 880F      		lsl r24
 2002 0b94 991F      		rol r25
 2003 0b96 2F89      		ldd r18,Y+23
 2004 0b98 388D      		ldd r19,Y+24
 2005 0b9a 820F      		add r24,r18
 2006 0b9c 931F      		adc r25,r19
 2007 0b9e 9A87      		std Y+10,r25
 2008 0ba0 8987      		std Y+9,r24
 2009 0ba2 00C0      		rjmp .L59
 2010               	.L60:
 458:lp_solve_5.5/shared/myblas.c ****          i <= n; i++, xptr += incx, yptr += incy)
 459:lp_solve_5.5/shared/myblas.c ****       dtemp+= (*yptr)*(*xptr);
 2011               		.loc 1 459 0
 2012 0ba4 8985      		ldd r24,Y+9
 2013 0ba6 9A85      		ldd r25,Y+10
 2014 0ba8 FC01      		movw r30,r24
 2015 0baa 8081      		ld r24,Z
 2016 0bac 9181      		ldd r25,Z+1
 2017 0bae A281      		ldd r26,Z+2
 2018 0bb0 B381      		ldd r27,Z+3
 2019 0bb2 2F81      		ldd r18,Y+7
 2020 0bb4 3885      		ldd r19,Y+8
 2021 0bb6 F901      		movw r30,r18
 2022 0bb8 2081      		ld r18,Z
 2023 0bba 3181      		ldd r19,Z+1
 2024 0bbc 4281      		ldd r20,Z+2
 2025 0bbe 5381      		ldd r21,Z+3
 2026 0bc0 BC01      		movw r22,r24
 2027 0bc2 CD01      		movw r24,r26
 2028 0bc4 0E94 0000 		call __mulsf3
 2029 0bc8 DC01      		movw r26,r24
 2030 0bca CB01      		movw r24,r22
 2031 0bcc 9C01      		movw r18,r24
 2032 0bce AD01      		movw r20,r26
 2033 0bd0 C701      		movw r24,r14
 2034 0bd2 B601      		movw r22,r12
 2035 0bd4 0E94 0000 		call __addsf3
 2036 0bd8 DC01      		movw r26,r24
 2037 0bda CB01      		movw r24,r22
 2038 0bdc 6C01      		movw r12,r24
 2039 0bde 7D01      		movw r14,r26
 458:lp_solve_5.5/shared/myblas.c ****          i <= n; i++, xptr += incx, yptr += incy)
 2040               		.loc 1 458 0
 2041 0be0 8981      		ldd r24,Y+1
 2042 0be2 9A81      		ldd r25,Y+2
 2043 0be4 0196      		adiw r24,1
 2044 0be6 9A83      		std Y+2,r25
 2045 0be8 8983      		std Y+1,r24
 2046 0bea 8D85      		ldd r24,Y+13
 2047 0bec 9E85      		ldd r25,Y+14
 2048 0bee 880F      		lsl r24
 2049 0bf0 991F      		rol r25
 2050 0bf2 880F      		lsl r24
 2051 0bf4 991F      		rol r25
 2052 0bf6 2F81      		ldd r18,Y+7
 2053 0bf8 3885      		ldd r19,Y+8
 2054 0bfa 820F      		add r24,r18
 2055 0bfc 931F      		adc r25,r19
 2056 0bfe 9887      		std Y+8,r25
 2057 0c00 8F83      		std Y+7,r24
 2058 0c02 8F85      		ldd r24,Y+15
 2059 0c04 9889      		ldd r25,Y+16
 2060 0c06 880F      		lsl r24
 2061 0c08 991F      		rol r25
 2062 0c0a 880F      		lsl r24
 2063 0c0c 991F      		rol r25
 2064 0c0e 2985      		ldd r18,Y+9
 2065 0c10 3A85      		ldd r19,Y+10
 2066 0c12 820F      		add r24,r18
 2067 0c14 931F      		adc r25,r19
 2068 0c16 9A87      		std Y+10,r25
 2069 0c18 8987      		std Y+9,r24
 2070               	.L59:
 457:lp_solve_5.5/shared/myblas.c ****          i <= n; i++, xptr += incx, yptr += incy)
 2071               		.loc 1 457 0 discriminator 1
 2072 0c1a 2981      		ldd r18,Y+1
 2073 0c1c 3A81      		ldd r19,Y+2
 2074 0c1e 8B85      		ldd r24,Y+11
 2075 0c20 9C85      		ldd r25,Y+12
 2076 0c22 8217      		cp r24,r18
 2077 0c24 9307      		cpc r25,r19
 2078 0c26 04F0      		brlt .+2
 2079 0c28 00C0      		rjmp .L60
 460:lp_solve_5.5/shared/myblas.c ****     return(dtemp);
 2080               		.loc 1 460 0
 2081 0c2a D701      		movw r26,r14
 2082 0c2c C601      		movw r24,r12
 2083               	.L56:
 2084               	.LBE6:
 461:lp_solve_5.5/shared/myblas.c ****   }
 462:lp_solve_5.5/shared/myblas.c **** #else
 463:lp_solve_5.5/shared/myblas.c **** 
 464:lp_solve_5.5/shared/myblas.c ****   if (incx==1 && incy==1) goto x20;
 465:lp_solve_5.5/shared/myblas.c **** 
 466:lp_solve_5.5/shared/myblas.c **** /* code for unequal increments or equal increments not equal to 1 */
 467:lp_solve_5.5/shared/myblas.c **** 
 468:lp_solve_5.5/shared/myblas.c ****   for (i = 1; i<=n; i++) {
 469:lp_solve_5.5/shared/myblas.c ****      dtemp+= dx[ix]*dy[iy];
 470:lp_solve_5.5/shared/myblas.c ****      ix+= incx;
 471:lp_solve_5.5/shared/myblas.c ****      iy+= incy;
 472:lp_solve_5.5/shared/myblas.c ****   }
 473:lp_solve_5.5/shared/myblas.c ****   return(dtemp);
 474:lp_solve_5.5/shared/myblas.c **** 
 475:lp_solve_5.5/shared/myblas.c **** /* code for both increments equal to 1 */
 476:lp_solve_5.5/shared/myblas.c **** 
 477:lp_solve_5.5/shared/myblas.c **** /* clean-up loop */
 478:lp_solve_5.5/shared/myblas.c **** 
 479:lp_solve_5.5/shared/myblas.c **** x20:
 480:lp_solve_5.5/shared/myblas.c ****   m = n % 5;
 481:lp_solve_5.5/shared/myblas.c ****   if (m == 0) goto x40;
 482:lp_solve_5.5/shared/myblas.c ****   for (i = 1; i<=m; i++)
 483:lp_solve_5.5/shared/myblas.c ****      dtemp+= dx[i]*dy[i];
 484:lp_solve_5.5/shared/myblas.c ****   if (n < 5) goto x60;
 485:lp_solve_5.5/shared/myblas.c **** 
 486:lp_solve_5.5/shared/myblas.c **** x40:
 487:lp_solve_5.5/shared/myblas.c ****   mp1 = m + 1;
 488:lp_solve_5.5/shared/myblas.c ****   for (i = mp1; i<=n; i=i+5)
 489:lp_solve_5.5/shared/myblas.c ****      dtemp+= dx[i]*dy[i] + dx[i + 1]*dy[i + 1] +
 490:lp_solve_5.5/shared/myblas.c ****              dx[i + 2]*dy[i + 2] + dx[i + 3]*dy[i + 3] + dx[i + 4]*dy[i + 4];
 491:lp_solve_5.5/shared/myblas.c **** 
 492:lp_solve_5.5/shared/myblas.c **** x60:
 493:lp_solve_5.5/shared/myblas.c ****   return(dtemp);
 494:lp_solve_5.5/shared/myblas.c **** #endif
 495:lp_solve_5.5/shared/myblas.c **** }
 2085               		.loc 1 495 0
 2086 0c2e BC01      		movw r22,r24
 2087 0c30 CD01      		movw r24,r26
 2088               	/* epilogue start */
 2089 0c32 6A96      		adiw r28,26
 2090 0c34 0FB6      		in __tmp_reg__,__SREG__
 2091 0c36 F894      		cli
 2092 0c38 DEBF      		out __SP_H__,r29
 2093 0c3a 0FBE      		out __SREG__,__tmp_reg__
 2094 0c3c CDBF      		out __SP_L__,r28
 2095 0c3e DF91      		pop r29
 2096 0c40 CF91      		pop r28
 2097 0c42 1F91      		pop r17
 2098 0c44 0F91      		pop r16
 2099 0c46 FF90      		pop r15
 2100 0c48 EF90      		pop r14
 2101 0c4a DF90      		pop r13
 2102 0c4c CF90      		pop r12
 2103 0c4e 0895      		ret
 2104               		.cfi_endproc
 2105               	.LFE18:
 2107               	.global	dswap
 2109               	dswap:
 2110               	.LFB19:
 496:lp_solve_5.5/shared/myblas.c **** 
 497:lp_solve_5.5/shared/myblas.c **** 
 498:lp_solve_5.5/shared/myblas.c **** /* ************************************************************************ */
 499:lp_solve_5.5/shared/myblas.c **** 
 500:lp_solve_5.5/shared/myblas.c **** void dswap( int n, REAL *dx, int incx, REAL *dy, int incy )
 501:lp_solve_5.5/shared/myblas.c **** {
 2111               		.loc 1 501 0
 2112               		.cfi_startproc
 2113 0c50 0F93      		push r16
 2114               	.LCFI79:
 2115               		.cfi_def_cfa_offset 3
 2116               		.cfi_offset 16, -2
 2117 0c52 1F93      		push r17
 2118               	.LCFI80:
 2119               		.cfi_def_cfa_offset 4
 2120               		.cfi_offset 17, -3
 2121 0c54 CF93      		push r28
 2122               	.LCFI81:
 2123               		.cfi_def_cfa_offset 5
 2124               		.cfi_offset 28, -4
 2125 0c56 DF93      		push r29
 2126               	.LCFI82:
 2127               		.cfi_def_cfa_offset 6
 2128               		.cfi_offset 29, -5
 2129 0c58 CDB7      		in r28,__SP_L__
 2130 0c5a DEB7      		in r29,__SP_H__
 2131               	.LCFI83:
 2132               		.cfi_def_cfa_register 28
 2133 0c5c 2A97      		sbiw r28,10
 2134               	.LCFI84:
 2135               		.cfi_def_cfa_offset 16
 2136 0c5e 0FB6      		in __tmp_reg__,__SREG__
 2137 0c60 F894      		cli
 2138 0c62 DEBF      		out __SP_H__,r29
 2139 0c64 0FBE      		out __SREG__,__tmp_reg__
 2140 0c66 CDBF      		out __SP_L__,r28
 2141               	/* prologue: function */
 2142               	/* frame size = 10 */
 2143               	/* stack size = 14 */
 2144               	.L__stack_usage = 14
 2145 0c68 9A83      		std Y+2,r25
 2146 0c6a 8983      		std Y+1,r24
 2147 0c6c 7C83      		std Y+4,r23
 2148 0c6e 6B83      		std Y+3,r22
 2149 0c70 5E83      		std Y+6,r21
 2150 0c72 4D83      		std Y+5,r20
 2151 0c74 3887      		std Y+8,r19
 2152 0c76 2F83      		std Y+7,r18
 2153 0c78 1A87      		std Y+10,r17
 2154 0c7a 0987      		std Y+9,r16
 502:lp_solve_5.5/shared/myblas.c ****   dx++;
 2155               		.loc 1 502 0
 2156 0c7c 8B81      		ldd r24,Y+3
 2157 0c7e 9C81      		ldd r25,Y+4
 2158 0c80 0496      		adiw r24,4
 2159 0c82 9C83      		std Y+4,r25
 2160 0c84 8B83      		std Y+3,r24
 503:lp_solve_5.5/shared/myblas.c ****   dy++;
 2161               		.loc 1 503 0
 2162 0c86 8F81      		ldd r24,Y+7
 2163 0c88 9885      		ldd r25,Y+8
 2164 0c8a 0496      		adiw r24,4
 2165 0c8c 9887      		std Y+8,r25
 2166 0c8e 8F83      		std Y+7,r24
 504:lp_solve_5.5/shared/myblas.c ****   BLAS_dswap( &n, dx, &incx, dy, &incy );
 2167               		.loc 1 504 0
 2168 0c90 E091 0000 		lds r30,BLAS_dswap
 2169 0c94 F091 0000 		lds r31,BLAS_dswap+1
 2170 0c98 BE01      		movw r22,r28
 2171 0c9a 675F      		subi r22,-9
 2172 0c9c 7F4F      		sbci r23,-1
 2173 0c9e 2F81      		ldd r18,Y+7
 2174 0ca0 3885      		ldd r19,Y+8
 2175 0ca2 AE01      		movw r20,r28
 2176 0ca4 4B5F      		subi r20,-5
 2177 0ca6 5F4F      		sbci r21,-1
 2178 0ca8 8B81      		ldd r24,Y+3
 2179 0caa 9C81      		ldd r25,Y+4
 2180 0cac 8B01      		movw r16,r22
 2181 0cae BC01      		movw r22,r24
 2182 0cb0 CE01      		movw r24,r28
 2183 0cb2 0196      		adiw r24,1
 2184 0cb4 0995      		icall
 505:lp_solve_5.5/shared/myblas.c **** }
 2185               		.loc 1 505 0
 2186 0cb6 0000      		nop
 2187               	/* epilogue start */
 2188 0cb8 2A96      		adiw r28,10
 2189 0cba 0FB6      		in __tmp_reg__,__SREG__
 2190 0cbc F894      		cli
 2191 0cbe DEBF      		out __SP_H__,r29
 2192 0cc0 0FBE      		out __SREG__,__tmp_reg__
 2193 0cc2 CDBF      		out __SP_L__,r28
 2194 0cc4 DF91      		pop r29
 2195 0cc6 CF91      		pop r28
 2196 0cc8 1F91      		pop r17
 2197 0cca 0F91      		pop r16
 2198 0ccc 0895      		ret
 2199               		.cfi_endproc
 2200               	.LFE19:
 2202               	.global	my_dswap
 2204               	my_dswap:
 2205               	.LFB20:
 506:lp_solve_5.5/shared/myblas.c **** 
 507:lp_solve_5.5/shared/myblas.c **** void BLAS_CALLMODEL my_dswap( int *_n, REAL *dx, int *_incx, REAL *dy, int *_incy )
 508:lp_solve_5.5/shared/myblas.c **** {
 2206               		.loc 1 508 0
 2207               		.cfi_startproc
 2208 0cce 0F93      		push r16
 2209               	.LCFI85:
 2210               		.cfi_def_cfa_offset 3
 2211               		.cfi_offset 16, -2
 2212 0cd0 1F93      		push r17
 2213               	.LCFI86:
 2214               		.cfi_def_cfa_offset 4
 2215               		.cfi_offset 17, -3
 2216 0cd2 CF93      		push r28
 2217               	.LCFI87:
 2218               		.cfi_def_cfa_offset 5
 2219               		.cfi_offset 28, -4
 2220 0cd4 DF93      		push r29
 2221               	.LCFI88:
 2222               		.cfi_def_cfa_offset 6
 2223               		.cfi_offset 29, -5
 2224 0cd6 CDB7      		in r28,__SP_L__
 2225 0cd8 DEB7      		in r29,__SP_H__
 2226               	.LCFI89:
 2227               		.cfi_def_cfa_register 28
 2228 0cda 6E97      		sbiw r28,30
 2229               	.LCFI90:
 2230               		.cfi_def_cfa_offset 36
 2231 0cdc 0FB6      		in __tmp_reg__,__SREG__
 2232 0cde F894      		cli
 2233 0ce0 DEBF      		out __SP_H__,r29
 2234 0ce2 0FBE      		out __SREG__,__tmp_reg__
 2235 0ce4 CDBF      		out __SP_L__,r28
 2236               	/* prologue: function */
 2237               	/* frame size = 30 */
 2238               	/* stack size = 34 */
 2239               	.L__stack_usage = 34
 2240 0ce6 9E8B      		std Y+22,r25
 2241 0ce8 8D8B      		std Y+21,r24
 2242 0cea 788F      		std Y+24,r23
 2243 0cec 6F8B      		std Y+23,r22
 2244 0cee 5A8F      		std Y+26,r21
 2245 0cf0 498F      		std Y+25,r20
 2246 0cf2 3C8F      		std Y+28,r19
 2247 0cf4 2B8F      		std Y+27,r18
 2248 0cf6 1E8F      		std Y+30,r17
 2249 0cf8 0D8F      		std Y+29,r16
 509:lp_solve_5.5/shared/myblas.c ****   int   i, ix, iy;
 510:lp_solve_5.5/shared/myblas.c **** #if !defined DOFASTMATH
 511:lp_solve_5.5/shared/myblas.c ****   int   m, mp1, ns;
 512:lp_solve_5.5/shared/myblas.c ****   REAL  dtemp2, dtemp3;
 513:lp_solve_5.5/shared/myblas.c **** #endif
 514:lp_solve_5.5/shared/myblas.c ****   REAL  dtemp1;
 515:lp_solve_5.5/shared/myblas.c ****   int   n = *_n, incx = *_incx, incy = *_incy;
 2250               		.loc 1 515 0
 2251 0cfa 8D89      		ldd r24,Y+21
 2252 0cfc 9E89      		ldd r25,Y+22
 2253 0cfe FC01      		movw r30,r24
 2254 0d00 8081      		ld r24,Z
 2255 0d02 9181      		ldd r25,Z+1
 2256 0d04 9C87      		std Y+12,r25
 2257 0d06 8B87      		std Y+11,r24
 2258 0d08 898D      		ldd r24,Y+25
 2259 0d0a 9A8D      		ldd r25,Y+26
 2260 0d0c FC01      		movw r30,r24
 2261 0d0e 8081      		ld r24,Z
 2262 0d10 9181      		ldd r25,Z+1
 2263 0d12 9E87      		std Y+14,r25
 2264 0d14 8D87      		std Y+13,r24
 2265 0d16 8D8D      		ldd r24,Y+29
 2266 0d18 9E8D      		ldd r25,Y+30
 2267 0d1a FC01      		movw r30,r24
 2268 0d1c 8081      		ld r24,Z
 2269 0d1e 9181      		ldd r25,Z+1
 2270 0d20 988B      		std Y+16,r25
 2271 0d22 8F87      		std Y+15,r24
 516:lp_solve_5.5/shared/myblas.c **** 
 517:lp_solve_5.5/shared/myblas.c ****   if (n <= 0) return;
 2272               		.loc 1 517 0
 2273 0d24 8B85      		ldd r24,Y+11
 2274 0d26 9C85      		ldd r25,Y+12
 2275 0d28 1816      		cp __zero_reg__,r24
 2276 0d2a 1906      		cpc __zero_reg__,r25
 2277 0d2c 04F0      		brlt .+2
 2278 0d2e 00C0      		rjmp .L69
 518:lp_solve_5.5/shared/myblas.c **** 
 519:lp_solve_5.5/shared/myblas.c ****   dx--;
 2279               		.loc 1 519 0
 2280 0d30 8F89      		ldd r24,Y+23
 2281 0d32 988D      		ldd r25,Y+24
 2282 0d34 0497      		sbiw r24,4
 2283 0d36 988F      		std Y+24,r25
 2284 0d38 8F8B      		std Y+23,r24
 520:lp_solve_5.5/shared/myblas.c ****   dy--;
 2285               		.loc 1 520 0
 2286 0d3a 8B8D      		ldd r24,Y+27
 2287 0d3c 9C8D      		ldd r25,Y+28
 2288 0d3e 0497      		sbiw r24,4
 2289 0d40 9C8F      		std Y+28,r25
 2290 0d42 8B8F      		std Y+27,r24
 521:lp_solve_5.5/shared/myblas.c ****   ix = 1;
 2291               		.loc 1 521 0
 2292 0d44 81E0      		ldi r24,lo8(1)
 2293 0d46 90E0      		ldi r25,0
 2294 0d48 9C83      		std Y+4,r25
 2295 0d4a 8B83      		std Y+3,r24
 522:lp_solve_5.5/shared/myblas.c ****   iy = 1;
 2296               		.loc 1 522 0
 2297 0d4c 81E0      		ldi r24,lo8(1)
 2298 0d4e 90E0      		ldi r25,0
 2299 0d50 9E83      		std Y+6,r25
 2300 0d52 8D83      		std Y+5,r24
 523:lp_solve_5.5/shared/myblas.c ****   if (incx < 0)
 2301               		.loc 1 523 0
 2302 0d54 8D85      		ldd r24,Y+13
 2303 0d56 9E85      		ldd r25,Y+14
 2304 0d58 9923      		tst r25
 2305 0d5a 04F4      		brge .L65
 524:lp_solve_5.5/shared/myblas.c ****     ix = (-n+1)*incx + 1;
 2306               		.loc 1 524 0
 2307 0d5c 21E0      		ldi r18,lo8(1)
 2308 0d5e 30E0      		ldi r19,0
 2309 0d60 8B85      		ldd r24,Y+11
 2310 0d62 9C85      		ldd r25,Y+12
 2311 0d64 A901      		movw r20,r18
 2312 0d66 481B      		sub r20,r24
 2313 0d68 590B      		sbc r21,r25
 2314 0d6a 2D85      		ldd r18,Y+13
 2315 0d6c 3E85      		ldd r19,Y+14
 2316 0d6e 429F      		mul r20,r18
 2317 0d70 C001      		movw r24,r0
 2318 0d72 439F      		mul r20,r19
 2319 0d74 900D      		add r25,r0
 2320 0d76 529F      		mul r21,r18
 2321 0d78 900D      		add r25,r0
 2322 0d7a 1124      		clr r1
 2323 0d7c 0196      		adiw r24,1
 2324 0d7e 9C83      		std Y+4,r25
 2325 0d80 8B83      		std Y+3,r24
 2326               	.L65:
 525:lp_solve_5.5/shared/myblas.c ****   if (incy < 0)
 2327               		.loc 1 525 0
 2328 0d82 8F85      		ldd r24,Y+15
 2329 0d84 9889      		ldd r25,Y+16
 2330 0d86 9923      		tst r25
 2331 0d88 04F4      		brge .L66
 526:lp_solve_5.5/shared/myblas.c ****     iy = (-n+1)*incy + 1;
 2332               		.loc 1 526 0
 2333 0d8a 21E0      		ldi r18,lo8(1)
 2334 0d8c 30E0      		ldi r19,0
 2335 0d8e 8B85      		ldd r24,Y+11
 2336 0d90 9C85      		ldd r25,Y+12
 2337 0d92 A901      		movw r20,r18
 2338 0d94 481B      		sub r20,r24
 2339 0d96 590B      		sbc r21,r25
 2340 0d98 2F85      		ldd r18,Y+15
 2341 0d9a 3889      		ldd r19,Y+16
 2342 0d9c 429F      		mul r20,r18
 2343 0d9e C001      		movw r24,r0
 2344 0da0 439F      		mul r20,r19
 2345 0da2 900D      		add r25,r0
 2346 0da4 529F      		mul r21,r18
 2347 0da6 900D      		add r25,r0
 2348 0da8 1124      		clr r1
 2349 0daa 0196      		adiw r24,1
 2350 0dac 9E83      		std Y+6,r25
 2351 0dae 8D83      		std Y+5,r24
 2352               	.L66:
 2353               	.LBB7:
 527:lp_solve_5.5/shared/myblas.c **** 
 528:lp_solve_5.5/shared/myblas.c **** /* CPU intensive loop; option to do pointer arithmetic */
 529:lp_solve_5.5/shared/myblas.c **** #if defined DOFASTMATH
 530:lp_solve_5.5/shared/myblas.c ****   {
 531:lp_solve_5.5/shared/myblas.c ****     REAL *xptr, *yptr;
 532:lp_solve_5.5/shared/myblas.c ****     for (i = 1, xptr = dx + ix, yptr = dy + iy;
 2354               		.loc 1 532 0
 2355 0db0 81E0      		ldi r24,lo8(1)
 2356 0db2 90E0      		ldi r25,0
 2357 0db4 9A83      		std Y+2,r25
 2358 0db6 8983      		std Y+1,r24
 2359 0db8 8B81      		ldd r24,Y+3
 2360 0dba 9C81      		ldd r25,Y+4
 2361 0dbc 880F      		lsl r24
 2362 0dbe 991F      		rol r25
 2363 0dc0 880F      		lsl r24
 2364 0dc2 991F      		rol r25
 2365 0dc4 2F89      		ldd r18,Y+23
 2366 0dc6 388D      		ldd r19,Y+24
 2367 0dc8 820F      		add r24,r18
 2368 0dca 931F      		adc r25,r19
 2369 0dcc 9887      		std Y+8,r25
 2370 0dce 8F83      		std Y+7,r24
 2371 0dd0 8D81      		ldd r24,Y+5
 2372 0dd2 9E81      		ldd r25,Y+6
 2373 0dd4 880F      		lsl r24
 2374 0dd6 991F      		rol r25
 2375 0dd8 880F      		lsl r24
 2376 0dda 991F      		rol r25
 2377 0ddc 2B8D      		ldd r18,Y+27
 2378 0dde 3C8D      		ldd r19,Y+28
 2379 0de0 820F      		add r24,r18
 2380 0de2 931F      		adc r25,r19
 2381 0de4 9A87      		std Y+10,r25
 2382 0de6 8987      		std Y+9,r24
 2383 0de8 00C0      		rjmp .L67
 2384               	.L68:
 533:lp_solve_5.5/shared/myblas.c ****          i <= n; i++, xptr += incx, yptr += incy) {
 534:lp_solve_5.5/shared/myblas.c ****       dtemp1 = (*xptr);
 2385               		.loc 1 534 0
 2386 0dea 8F81      		ldd r24,Y+7
 2387 0dec 9885      		ldd r25,Y+8
 2388 0dee FC01      		movw r30,r24
 2389 0df0 8081      		ld r24,Z
 2390 0df2 9181      		ldd r25,Z+1
 2391 0df4 A281      		ldd r26,Z+2
 2392 0df6 B381      		ldd r27,Z+3
 2393 0df8 898B      		std Y+17,r24
 2394 0dfa 9A8B      		std Y+18,r25
 2395 0dfc AB8B      		std Y+19,r26
 2396 0dfe BC8B      		std Y+20,r27
 535:lp_solve_5.5/shared/myblas.c ****      (*xptr) = (*yptr);
 2397               		.loc 1 535 0
 2398 0e00 8985      		ldd r24,Y+9
 2399 0e02 9A85      		ldd r25,Y+10
 2400 0e04 FC01      		movw r30,r24
 2401 0e06 8081      		ld r24,Z
 2402 0e08 9181      		ldd r25,Z+1
 2403 0e0a A281      		ldd r26,Z+2
 2404 0e0c B381      		ldd r27,Z+3
 2405 0e0e 2F81      		ldd r18,Y+7
 2406 0e10 3885      		ldd r19,Y+8
 2407 0e12 F901      		movw r30,r18
 2408 0e14 8083      		st Z,r24
 2409 0e16 9183      		std Z+1,r25
 2410 0e18 A283      		std Z+2,r26
 2411 0e1a B383      		std Z+3,r27
 536:lp_solve_5.5/shared/myblas.c ****      (*yptr) = dtemp1;
 2412               		.loc 1 536 0
 2413 0e1c 2985      		ldd r18,Y+9
 2414 0e1e 3A85      		ldd r19,Y+10
 2415 0e20 8989      		ldd r24,Y+17
 2416 0e22 9A89      		ldd r25,Y+18
 2417 0e24 AB89      		ldd r26,Y+19
 2418 0e26 BC89      		ldd r27,Y+20
 2419 0e28 F901      		movw r30,r18
 2420 0e2a 8083      		st Z,r24
 2421 0e2c 9183      		std Z+1,r25
 2422 0e2e A283      		std Z+2,r26
 2423 0e30 B383      		std Z+3,r27
 533:lp_solve_5.5/shared/myblas.c ****          i <= n; i++, xptr += incx, yptr += incy) {
 2424               		.loc 1 533 0
 2425 0e32 8981      		ldd r24,Y+1
 2426 0e34 9A81      		ldd r25,Y+2
 2427 0e36 0196      		adiw r24,1
 2428 0e38 9A83      		std Y+2,r25
 2429 0e3a 8983      		std Y+1,r24
 2430 0e3c 8D85      		ldd r24,Y+13
 2431 0e3e 9E85      		ldd r25,Y+14
 2432 0e40 880F      		lsl r24
 2433 0e42 991F      		rol r25
 2434 0e44 880F      		lsl r24
 2435 0e46 991F      		rol r25
 2436 0e48 2F81      		ldd r18,Y+7
 2437 0e4a 3885      		ldd r19,Y+8
 2438 0e4c 820F      		add r24,r18
 2439 0e4e 931F      		adc r25,r19
 2440 0e50 9887      		std Y+8,r25
 2441 0e52 8F83      		std Y+7,r24
 2442 0e54 8F85      		ldd r24,Y+15
 2443 0e56 9889      		ldd r25,Y+16
 2444 0e58 880F      		lsl r24
 2445 0e5a 991F      		rol r25
 2446 0e5c 880F      		lsl r24
 2447 0e5e 991F      		rol r25
 2448 0e60 2985      		ldd r18,Y+9
 2449 0e62 3A85      		ldd r19,Y+10
 2450 0e64 820F      		add r24,r18
 2451 0e66 931F      		adc r25,r19
 2452 0e68 9A87      		std Y+10,r25
 2453 0e6a 8987      		std Y+9,r24
 2454               	.L67:
 532:lp_solve_5.5/shared/myblas.c ****          i <= n; i++, xptr += incx, yptr += incy) {
 2455               		.loc 1 532 0 discriminator 1
 2456 0e6c 2981      		ldd r18,Y+1
 2457 0e6e 3A81      		ldd r19,Y+2
 2458 0e70 8B85      		ldd r24,Y+11
 2459 0e72 9C85      		ldd r25,Y+12
 2460 0e74 8217      		cp r24,r18
 2461 0e76 9307      		cpc r25,r19
 2462 0e78 04F0      		brlt .+2
 2463 0e7a 00C0      		rjmp .L68
 537:lp_solve_5.5/shared/myblas.c ****     }
 538:lp_solve_5.5/shared/myblas.c ****     return;
 2464               		.loc 1 538 0 discriminator 2
 2465 0e7c 0000      		nop
 2466 0e7e 00C0      		rjmp .L62
 2467               	.L69:
 2468               	.LBE7:
 517:lp_solve_5.5/shared/myblas.c **** 
 2469               		.loc 1 517 0
 2470 0e80 0000      		nop
 2471               	.L62:
 2472               	/* epilogue start */
 539:lp_solve_5.5/shared/myblas.c ****   }
 540:lp_solve_5.5/shared/myblas.c **** #else  
 541:lp_solve_5.5/shared/myblas.c **** 
 542:lp_solve_5.5/shared/myblas.c ****   if (incx == incy) {
 543:lp_solve_5.5/shared/myblas.c ****     if (incx <= 0) goto x5;
 544:lp_solve_5.5/shared/myblas.c ****     if (incx == 1) goto x20;
 545:lp_solve_5.5/shared/myblas.c ****     goto x60;
 546:lp_solve_5.5/shared/myblas.c ****   }
 547:lp_solve_5.5/shared/myblas.c **** 
 548:lp_solve_5.5/shared/myblas.c **** /* code for unequal or nonpositive increments. */
 549:lp_solve_5.5/shared/myblas.c **** x5:
 550:lp_solve_5.5/shared/myblas.c ****   for (i = 1; i<=n; i++) {
 551:lp_solve_5.5/shared/myblas.c ****      dtemp1 = dx[ix];
 552:lp_solve_5.5/shared/myblas.c ****      dx[ix] = dy[iy];
 553:lp_solve_5.5/shared/myblas.c ****      dy[iy] = dtemp1;
 554:lp_solve_5.5/shared/myblas.c ****      ix+= incx;
 555:lp_solve_5.5/shared/myblas.c ****      iy+= incy;
 556:lp_solve_5.5/shared/myblas.c ****   }
 557:lp_solve_5.5/shared/myblas.c ****   return;
 558:lp_solve_5.5/shared/myblas.c **** 
 559:lp_solve_5.5/shared/myblas.c **** /* code for both increments equal to 1.
 560:lp_solve_5.5/shared/myblas.c ****    clean-up loop so remaining vector length is a multiple of 3. */
 561:lp_solve_5.5/shared/myblas.c **** x20:
 562:lp_solve_5.5/shared/myblas.c ****   m = n % 3;
 563:lp_solve_5.5/shared/myblas.c ****   if (m == 0) goto x40;
 564:lp_solve_5.5/shared/myblas.c ****   for (i = 1; i<=m; i++) {
 565:lp_solve_5.5/shared/myblas.c ****      dtemp1 = dx[i];
 566:lp_solve_5.5/shared/myblas.c ****      dx[i] = dy[i];
 567:lp_solve_5.5/shared/myblas.c ****      dy[i] = dtemp1;
 568:lp_solve_5.5/shared/myblas.c ****   }
 569:lp_solve_5.5/shared/myblas.c ****   if (n < 3) return;
 570:lp_solve_5.5/shared/myblas.c **** 
 571:lp_solve_5.5/shared/myblas.c **** x40:
 572:lp_solve_5.5/shared/myblas.c ****   mp1 = m + 1;
 573:lp_solve_5.5/shared/myblas.c ****   for (i = mp1; i<=n; i=i+3) {
 574:lp_solve_5.5/shared/myblas.c ****      dtemp1 = dx[i];
 575:lp_solve_5.5/shared/myblas.c ****      dtemp2 = dx[i+1];
 576:lp_solve_5.5/shared/myblas.c ****      dtemp3 = dx[i+2];
 577:lp_solve_5.5/shared/myblas.c ****      dx[i] = dy[i];
 578:lp_solve_5.5/shared/myblas.c ****      dx[i+1] = dy[i+1];
 579:lp_solve_5.5/shared/myblas.c ****      dx[i+2] = dy[i+2];
 580:lp_solve_5.5/shared/myblas.c ****      dy[i] = dtemp1;
 581:lp_solve_5.5/shared/myblas.c ****      dy[i+1] = dtemp2;
 582:lp_solve_5.5/shared/myblas.c ****      dy[i+2] = dtemp3;
 583:lp_solve_5.5/shared/myblas.c ****   }
 584:lp_solve_5.5/shared/myblas.c ****   return;
 585:lp_solve_5.5/shared/myblas.c **** 
 586:lp_solve_5.5/shared/myblas.c **** /* code for equal, positive, non-unit increments. */
 587:lp_solve_5.5/shared/myblas.c **** x60:
 588:lp_solve_5.5/shared/myblas.c ****   ns = n*incx;
 589:lp_solve_5.5/shared/myblas.c ****   for (i = 1; i<=ns; i=i+incx) {
 590:lp_solve_5.5/shared/myblas.c ****      dtemp1 = dx[i];
 591:lp_solve_5.5/shared/myblas.c ****      dx[i] = dy[i];
 592:lp_solve_5.5/shared/myblas.c ****      dy[i] = dtemp1;
 593:lp_solve_5.5/shared/myblas.c ****   }
 594:lp_solve_5.5/shared/myblas.c **** #endif
 595:lp_solve_5.5/shared/myblas.c **** }
 2473               		.loc 1 595 0
 2474 0e82 6E96      		adiw r28,30
 2475 0e84 0FB6      		in __tmp_reg__,__SREG__
 2476 0e86 F894      		cli
 2477 0e88 DEBF      		out __SP_H__,r29
 2478 0e8a 0FBE      		out __SREG__,__tmp_reg__
 2479 0e8c CDBF      		out __SP_L__,r28
 2480 0e8e DF91      		pop r29
 2481 0e90 CF91      		pop r28
 2482 0e92 1F91      		pop r17
 2483 0e94 0F91      		pop r16
 2484 0e96 0895      		ret
 2485               		.cfi_endproc
 2486               	.LFE20:
 2488               	.global	dload
 2490               	dload:
 2491               	.LFB21:
 596:lp_solve_5.5/shared/myblas.c **** 
 597:lp_solve_5.5/shared/myblas.c **** 
 598:lp_solve_5.5/shared/myblas.c **** /* ************************************************************************ */
 599:lp_solve_5.5/shared/myblas.c **** 
 600:lp_solve_5.5/shared/myblas.c **** void dload(int n, REAL da, REAL *dx, int incx)
 601:lp_solve_5.5/shared/myblas.c **** {
 2492               		.loc 1 601 0
 2493               		.cfi_startproc
 2494 0e98 0F93      		push r16
 2495               	.LCFI91:
 2496               		.cfi_def_cfa_offset 3
 2497               		.cfi_offset 16, -2
 2498 0e9a 1F93      		push r17
 2499               	.LCFI92:
 2500               		.cfi_def_cfa_offset 4
 2501               		.cfi_offset 17, -3
 2502 0e9c CF93      		push r28
 2503               	.LCFI93:
 2504               		.cfi_def_cfa_offset 5
 2505               		.cfi_offset 28, -4
 2506 0e9e DF93      		push r29
 2507               	.LCFI94:
 2508               		.cfi_def_cfa_offset 6
 2509               		.cfi_offset 29, -5
 2510 0ea0 CDB7      		in r28,__SP_L__
 2511 0ea2 DEB7      		in r29,__SP_H__
 2512               	.LCFI95:
 2513               		.cfi_def_cfa_register 28
 2514 0ea4 2A97      		sbiw r28,10
 2515               	.LCFI96:
 2516               		.cfi_def_cfa_offset 16
 2517 0ea6 0FB6      		in __tmp_reg__,__SREG__
 2518 0ea8 F894      		cli
 2519 0eaa DEBF      		out __SP_H__,r29
 2520 0eac 0FBE      		out __SREG__,__tmp_reg__
 2521 0eae CDBF      		out __SP_L__,r28
 2522               	/* prologue: function */
 2523               	/* frame size = 10 */
 2524               	/* stack size = 14 */
 2525               	.L__stack_usage = 14
 2526 0eb0 9A83      		std Y+2,r25
 2527 0eb2 8983      		std Y+1,r24
 2528 0eb4 4B83      		std Y+3,r20
 2529 0eb6 5C83      		std Y+4,r21
 2530 0eb8 6D83      		std Y+5,r22
 2531 0eba 7E83      		std Y+6,r23
 2532 0ebc 3887      		std Y+8,r19
 2533 0ebe 2F83      		std Y+7,r18
 2534 0ec0 1A87      		std Y+10,r17
 2535 0ec2 0987      		std Y+9,r16
 602:lp_solve_5.5/shared/myblas.c ****   dx++;
 2536               		.loc 1 602 0
 2537 0ec4 8F81      		ldd r24,Y+7
 2538 0ec6 9885      		ldd r25,Y+8
 2539 0ec8 0496      		adiw r24,4
 2540 0eca 9887      		std Y+8,r25
 2541 0ecc 8F83      		std Y+7,r24
 603:lp_solve_5.5/shared/myblas.c ****   BLAS_dload (&n, &da, dx, &incx);
 2542               		.loc 1 603 0
 2543 0ece E091 0000 		lds r30,BLAS_dload
 2544 0ed2 F091 0000 		lds r31,BLAS_dload+1
 2545 0ed6 9E01      		movw r18,r28
 2546 0ed8 275F      		subi r18,-9
 2547 0eda 3F4F      		sbci r19,-1
 2548 0edc 4F81      		ldd r20,Y+7
 2549 0ede 5885      		ldd r21,Y+8
 2550 0ee0 CE01      		movw r24,r28
 2551 0ee2 0396      		adiw r24,3
 2552 0ee4 BC01      		movw r22,r24
 2553 0ee6 CE01      		movw r24,r28
 2554 0ee8 0196      		adiw r24,1
 2555 0eea 0995      		icall
 604:lp_solve_5.5/shared/myblas.c **** }
 2556               		.loc 1 604 0
 2557 0eec 0000      		nop
 2558               	/* epilogue start */
 2559 0eee 2A96      		adiw r28,10
 2560 0ef0 0FB6      		in __tmp_reg__,__SREG__
 2561 0ef2 F894      		cli
 2562 0ef4 DEBF      		out __SP_H__,r29
 2563 0ef6 0FBE      		out __SREG__,__tmp_reg__
 2564 0ef8 CDBF      		out __SP_L__,r28
 2565 0efa DF91      		pop r29
 2566 0efc CF91      		pop r28
 2567 0efe 1F91      		pop r17
 2568 0f00 0F91      		pop r16
 2569 0f02 0895      		ret
 2570               		.cfi_endproc
 2571               	.LFE21:
 2573               	.global	my_dload
 2575               	my_dload:
 2576               	.LFB22:
 605:lp_solve_5.5/shared/myblas.c **** 
 606:lp_solve_5.5/shared/myblas.c **** void BLAS_CALLMODEL my_dload (int *_n, REAL *_da, REAL *dx, int *_incx)
 607:lp_solve_5.5/shared/myblas.c **** {
 2577               		.loc 1 607 0
 2578               		.cfi_startproc
 2579 0f04 CF93      		push r28
 2580               	.LCFI97:
 2581               		.cfi_def_cfa_offset 3
 2582               		.cfi_offset 28, -2
 2583 0f06 DF93      		push r29
 2584               	.LCFI98:
 2585               		.cfi_def_cfa_offset 4
 2586               		.cfi_offset 29, -3
 2587 0f08 CDB7      		in r28,__SP_L__
 2588 0f0a DEB7      		in r29,__SP_H__
 2589               	.LCFI99:
 2590               		.cfi_def_cfa_register 28
 2591 0f0c 6897      		sbiw r28,24
 2592               	.LCFI100:
 2593               		.cfi_def_cfa_offset 28
 2594 0f0e 0FB6      		in __tmp_reg__,__SREG__
 2595 0f10 F894      		cli
 2596 0f12 DEBF      		out __SP_H__,r29
 2597 0f14 0FBE      		out __SREG__,__tmp_reg__
 2598 0f16 CDBF      		out __SP_L__,r28
 2599               	/* prologue: function */
 2600               	/* frame size = 24 */
 2601               	/* stack size = 26 */
 2602               	.L__stack_usage = 26
 2603 0f18 9A8B      		std Y+18,r25
 2604 0f1a 898B      		std Y+17,r24
 2605 0f1c 7C8B      		std Y+20,r23
 2606 0f1e 6B8B      		std Y+19,r22
 2607 0f20 5E8B      		std Y+22,r21
 2608 0f22 4D8B      		std Y+21,r20
 2609 0f24 388F      		std Y+24,r19
 2610 0f26 2F8B      		std Y+23,r18
 608:lp_solve_5.5/shared/myblas.c **** /* copies a scalar, a, to a vector, x.
 609:lp_solve_5.5/shared/myblas.c ****    uses unrolled loops when incx equals one.
 610:lp_solve_5.5/shared/myblas.c **** 
 611:lp_solve_5.5/shared/myblas.c ****    To change the precision of this program, run the change
 612:lp_solve_5.5/shared/myblas.c ****    program on dload.f
 613:lp_solve_5.5/shared/myblas.c ****    Alternatively, to make a single precision version append a
 614:lp_solve_5.5/shared/myblas.c ****    comment character to the start of all lines between sequential
 615:lp_solve_5.5/shared/myblas.c ****       precision > double
 616:lp_solve_5.5/shared/myblas.c ****    and
 617:lp_solve_5.5/shared/myblas.c ****       end precision > double
 618:lp_solve_5.5/shared/myblas.c ****    comments and delete the comment character at the start of all
 619:lp_solve_5.5/shared/myblas.c ****    lines between sequential
 620:lp_solve_5.5/shared/myblas.c ****       precision > single
 621:lp_solve_5.5/shared/myblas.c ****    and
 622:lp_solve_5.5/shared/myblas.c ****       end precision > single
 623:lp_solve_5.5/shared/myblas.c ****    comments.  To make a double precision version interchange
 624:lp_solve_5.5/shared/myblas.c ****     the append and delete operations in these instructions. */
 625:lp_solve_5.5/shared/myblas.c **** 
 626:lp_solve_5.5/shared/myblas.c ****   int    i, ix, m, mp1;
 627:lp_solve_5.5/shared/myblas.c ****   REAL   da = *_da;
 2611               		.loc 1 627 0
 2612 0f28 8B89      		ldd r24,Y+19
 2613 0f2a 9C89      		ldd r25,Y+20
 2614 0f2c FC01      		movw r30,r24
 2615 0f2e 8081      		ld r24,Z
 2616 0f30 9181      		ldd r25,Z+1
 2617 0f32 A281      		ldd r26,Z+2
 2618 0f34 B381      		ldd r27,Z+3
 2619 0f36 8D83      		std Y+5,r24
 2620 0f38 9E83      		std Y+6,r25
 2621 0f3a AF83      		std Y+7,r26
 2622 0f3c B887      		std Y+8,r27
 628:lp_solve_5.5/shared/myblas.c ****   int    n = *_n, incx = *_incx;
 2623               		.loc 1 628 0
 2624 0f3e 8989      		ldd r24,Y+17
 2625 0f40 9A89      		ldd r25,Y+18
 2626 0f42 FC01      		movw r30,r24
 2627 0f44 8081      		ld r24,Z
 2628 0f46 9181      		ldd r25,Z+1
 2629 0f48 9A87      		std Y+10,r25
 2630 0f4a 8987      		std Y+9,r24
 2631 0f4c 8F89      		ldd r24,Y+23
 2632 0f4e 988D      		ldd r25,Y+24
 2633 0f50 FC01      		movw r30,r24
 2634 0f52 8081      		ld r24,Z
 2635 0f54 9181      		ldd r25,Z+1
 2636 0f56 9C87      		std Y+12,r25
 2637 0f58 8B87      		std Y+11,r24
 629:lp_solve_5.5/shared/myblas.c **** 
 630:lp_solve_5.5/shared/myblas.c ****   if (n<=0) return;
 2638               		.loc 1 630 0
 2639 0f5a 8985      		ldd r24,Y+9
 2640 0f5c 9A85      		ldd r25,Y+10
 2641 0f5e 1816      		cp __zero_reg__,r24
 2642 0f60 1906      		cpc __zero_reg__,r25
 2643 0f62 04F0      		brlt .+2
 2644 0f64 00C0      		rjmp .L86
 631:lp_solve_5.5/shared/myblas.c ****   dx--;
 2645               		.loc 1 631 0
 2646 0f66 8D89      		ldd r24,Y+21
 2647 0f68 9E89      		ldd r25,Y+22
 2648 0f6a 0497      		sbiw r24,4
 2649 0f6c 9E8B      		std Y+22,r25
 2650 0f6e 8D8B      		std Y+21,r24
 632:lp_solve_5.5/shared/myblas.c ****   if (incx==1) goto x20;
 2651               		.loc 1 632 0
 2652 0f70 8B85      		ldd r24,Y+11
 2653 0f72 9C85      		ldd r25,Y+12
 2654 0f74 0197      		sbiw r24,1
 2655 0f76 01F4      		brne .+2
 2656 0f78 00C0      		rjmp .L87
 633:lp_solve_5.5/shared/myblas.c **** 
 634:lp_solve_5.5/shared/myblas.c **** /* code for incx not equal to 1 */
 635:lp_solve_5.5/shared/myblas.c **** 
 636:lp_solve_5.5/shared/myblas.c ****   ix = 1;
 2657               		.loc 1 636 0
 2658 0f7a 81E0      		ldi r24,lo8(1)
 2659 0f7c 90E0      		ldi r25,0
 2660 0f7e 9C83      		std Y+4,r25
 2661 0f80 8B83      		std Y+3,r24
 637:lp_solve_5.5/shared/myblas.c ****   if (incx<0)
 2662               		.loc 1 637 0
 2663 0f82 8B85      		ldd r24,Y+11
 2664 0f84 9C85      		ldd r25,Y+12
 2665 0f86 9923      		tst r25
 2666 0f88 04F4      		brge .L76
 638:lp_solve_5.5/shared/myblas.c ****      ix = (-n+1)*incx + 1;
 2667               		.loc 1 638 0
 2668 0f8a 21E0      		ldi r18,lo8(1)
 2669 0f8c 30E0      		ldi r19,0
 2670 0f8e 8985      		ldd r24,Y+9
 2671 0f90 9A85      		ldd r25,Y+10
 2672 0f92 A901      		movw r20,r18
 2673 0f94 481B      		sub r20,r24
 2674 0f96 590B      		sbc r21,r25
 2675 0f98 2B85      		ldd r18,Y+11
 2676 0f9a 3C85      		ldd r19,Y+12
 2677 0f9c 429F      		mul r20,r18
 2678 0f9e C001      		movw r24,r0
 2679 0fa0 439F      		mul r20,r19
 2680 0fa2 900D      		add r25,r0
 2681 0fa4 529F      		mul r21,r18
 2682 0fa6 900D      		add r25,r0
 2683 0fa8 1124      		clr r1
 2684 0faa 0196      		adiw r24,1
 2685 0fac 9C83      		std Y+4,r25
 2686 0fae 8B83      		std Y+3,r24
 2687               	.L76:
 639:lp_solve_5.5/shared/myblas.c ****   for (i = 1; i<=n; i++) {
 2688               		.loc 1 639 0
 2689 0fb0 81E0      		ldi r24,lo8(1)
 2690 0fb2 90E0      		ldi r25,0
 2691 0fb4 9A83      		std Y+2,r25
 2692 0fb6 8983      		std Y+1,r24
 2693 0fb8 00C0      		rjmp .L77
 2694               	.L78:
 640:lp_solve_5.5/shared/myblas.c ****      dx[ix] = da;
 2695               		.loc 1 640 0 discriminator 3
 2696 0fba 8B81      		ldd r24,Y+3
 2697 0fbc 9C81      		ldd r25,Y+4
 2698 0fbe 880F      		lsl r24
 2699 0fc0 991F      		rol r25
 2700 0fc2 880F      		lsl r24
 2701 0fc4 991F      		rol r25
 2702 0fc6 2D89      		ldd r18,Y+21
 2703 0fc8 3E89      		ldd r19,Y+22
 2704 0fca 280F      		add r18,r24
 2705 0fcc 391F      		adc r19,r25
 2706 0fce 8D81      		ldd r24,Y+5
 2707 0fd0 9E81      		ldd r25,Y+6
 2708 0fd2 AF81      		ldd r26,Y+7
 2709 0fd4 B885      		ldd r27,Y+8
 2710 0fd6 F901      		movw r30,r18
 2711 0fd8 8083      		st Z,r24
 2712 0fda 9183      		std Z+1,r25
 2713 0fdc A283      		std Z+2,r26
 2714 0fde B383      		std Z+3,r27
 641:lp_solve_5.5/shared/myblas.c ****      ix+= incx;
 2715               		.loc 1 641 0 discriminator 3
 2716 0fe0 2B81      		ldd r18,Y+3
 2717 0fe2 3C81      		ldd r19,Y+4
 2718 0fe4 8B85      		ldd r24,Y+11
 2719 0fe6 9C85      		ldd r25,Y+12
 2720 0fe8 820F      		add r24,r18
 2721 0fea 931F      		adc r25,r19
 2722 0fec 9C83      		std Y+4,r25
 2723 0fee 8B83      		std Y+3,r24
 639:lp_solve_5.5/shared/myblas.c ****   for (i = 1; i<=n; i++) {
 2724               		.loc 1 639 0 discriminator 3
 2725 0ff0 8981      		ldd r24,Y+1
 2726 0ff2 9A81      		ldd r25,Y+2
 2727 0ff4 0196      		adiw r24,1
 2728 0ff6 9A83      		std Y+2,r25
 2729 0ff8 8983      		std Y+1,r24
 2730               	.L77:
 639:lp_solve_5.5/shared/myblas.c ****   for (i = 1; i<=n; i++) {
 2731               		.loc 1 639 0 is_stmt 0 discriminator 1
 2732 0ffa 2981      		ldd r18,Y+1
 2733 0ffc 3A81      		ldd r19,Y+2
 2734 0ffe 8985      		ldd r24,Y+9
 2735 1000 9A85      		ldd r25,Y+10
 2736 1002 8217      		cp r24,r18
 2737 1004 9307      		cpc r25,r19
 2738 1006 04F4      		brge .L78
 642:lp_solve_5.5/shared/myblas.c ****   }
 643:lp_solve_5.5/shared/myblas.c ****   return;
 2739               		.loc 1 643 0 is_stmt 1
 2740 1008 00C0      		rjmp .L71
 2741               	.L87:
 632:lp_solve_5.5/shared/myblas.c **** 
 2742               		.loc 1 632 0
 2743 100a 0000      		nop
 2744               	.L75:
 644:lp_solve_5.5/shared/myblas.c **** 
 645:lp_solve_5.5/shared/myblas.c **** /* code for incx equal to 1 and clean-up loop */
 646:lp_solve_5.5/shared/myblas.c **** 
 647:lp_solve_5.5/shared/myblas.c **** x20:
 648:lp_solve_5.5/shared/myblas.c ****   m = n % 7;
 2745               		.loc 1 648 0
 2746 100c 8985      		ldd r24,Y+9
 2747 100e 9A85      		ldd r25,Y+10
 2748 1010 27E0      		ldi r18,lo8(7)
 2749 1012 30E0      		ldi r19,0
 2750 1014 B901      		movw r22,r18
 2751 1016 0E94 0000 		call __divmodhi4
 2752 101a 9E87      		std Y+14,r25
 2753 101c 8D87      		std Y+13,r24
 649:lp_solve_5.5/shared/myblas.c ****   if (m == 0) goto x40;
 2754               		.loc 1 649 0
 2755 101e 8D85      		ldd r24,Y+13
 2756 1020 9E85      		ldd r25,Y+14
 2757 1022 892B      		or r24,r25
 2758 1024 01F0      		breq .L88
 650:lp_solve_5.5/shared/myblas.c ****   for (i = 1; i<=m; i++)
 2759               		.loc 1 650 0
 2760 1026 81E0      		ldi r24,lo8(1)
 2761 1028 90E0      		ldi r25,0
 2762 102a 9A83      		std Y+2,r25
 2763 102c 8983      		std Y+1,r24
 2764 102e 00C0      		rjmp .L81
 2765               	.L82:
 651:lp_solve_5.5/shared/myblas.c ****      dx[i] = da;
 2766               		.loc 1 651 0 discriminator 3
 2767 1030 8981      		ldd r24,Y+1
 2768 1032 9A81      		ldd r25,Y+2
 2769 1034 880F      		lsl r24
 2770 1036 991F      		rol r25
 2771 1038 880F      		lsl r24
 2772 103a 991F      		rol r25
 2773 103c 2D89      		ldd r18,Y+21
 2774 103e 3E89      		ldd r19,Y+22
 2775 1040 280F      		add r18,r24
 2776 1042 391F      		adc r19,r25
 2777 1044 8D81      		ldd r24,Y+5
 2778 1046 9E81      		ldd r25,Y+6
 2779 1048 AF81      		ldd r26,Y+7
 2780 104a B885      		ldd r27,Y+8
 2781 104c F901      		movw r30,r18
 2782 104e 8083      		st Z,r24
 2783 1050 9183      		std Z+1,r25
 2784 1052 A283      		std Z+2,r26
 2785 1054 B383      		std Z+3,r27
 650:lp_solve_5.5/shared/myblas.c ****   for (i = 1; i<=m; i++)
 2786               		.loc 1 650 0 discriminator 3
 2787 1056 8981      		ldd r24,Y+1
 2788 1058 9A81      		ldd r25,Y+2
 2789 105a 0196      		adiw r24,1
 2790 105c 9A83      		std Y+2,r25
 2791 105e 8983      		std Y+1,r24
 2792               	.L81:
 650:lp_solve_5.5/shared/myblas.c ****   for (i = 1; i<=m; i++)
 2793               		.loc 1 650 0 is_stmt 0 discriminator 1
 2794 1060 2981      		ldd r18,Y+1
 2795 1062 3A81      		ldd r19,Y+2
 2796 1064 8D85      		ldd r24,Y+13
 2797 1066 9E85      		ldd r25,Y+14
 2798 1068 8217      		cp r24,r18
 2799 106a 9307      		cpc r25,r19
 2800 106c 04F4      		brge .L82
 652:lp_solve_5.5/shared/myblas.c ****   if (n < 7) return;
 2801               		.loc 1 652 0 is_stmt 1
 2802 106e 8985      		ldd r24,Y+9
 2803 1070 9A85      		ldd r25,Y+10
 2804 1072 0797      		sbiw r24,7
 2805 1074 04F4      		brge .+2
 2806 1076 00C0      		rjmp .L89
 2807 1078 00C0      		rjmp .L80
 2808               	.L88:
 649:lp_solve_5.5/shared/myblas.c ****   for (i = 1; i<=m; i++)
 2809               		.loc 1 649 0
 2810 107a 0000      		nop
 2811               	.L80:
 653:lp_solve_5.5/shared/myblas.c **** 
 654:lp_solve_5.5/shared/myblas.c **** x40:
 655:lp_solve_5.5/shared/myblas.c ****   mp1 = m + 1;
 2812               		.loc 1 655 0
 2813 107c 8D85      		ldd r24,Y+13
 2814 107e 9E85      		ldd r25,Y+14
 2815 1080 0196      		adiw r24,1
 2816 1082 988B      		std Y+16,r25
 2817 1084 8F87      		std Y+15,r24
 656:lp_solve_5.5/shared/myblas.c ****   for (i = mp1; i<=n; i=i+7) {
 2818               		.loc 1 656 0
 2819 1086 8F85      		ldd r24,Y+15
 2820 1088 9889      		ldd r25,Y+16
 2821 108a 9A83      		std Y+2,r25
 2822 108c 8983      		std Y+1,r24
 2823 108e 00C0      		rjmp .L83
 2824               	.L84:
 657:lp_solve_5.5/shared/myblas.c ****      dx[i] = da;
 2825               		.loc 1 657 0 discriminator 3
 2826 1090 8981      		ldd r24,Y+1
 2827 1092 9A81      		ldd r25,Y+2
 2828 1094 880F      		lsl r24
 2829 1096 991F      		rol r25
 2830 1098 880F      		lsl r24
 2831 109a 991F      		rol r25
 2832 109c 2D89      		ldd r18,Y+21
 2833 109e 3E89      		ldd r19,Y+22
 2834 10a0 280F      		add r18,r24
 2835 10a2 391F      		adc r19,r25
 2836 10a4 8D81      		ldd r24,Y+5
 2837 10a6 9E81      		ldd r25,Y+6
 2838 10a8 AF81      		ldd r26,Y+7
 2839 10aa B885      		ldd r27,Y+8
 2840 10ac F901      		movw r30,r18
 2841 10ae 8083      		st Z,r24
 2842 10b0 9183      		std Z+1,r25
 2843 10b2 A283      		std Z+2,r26
 2844 10b4 B383      		std Z+3,r27
 658:lp_solve_5.5/shared/myblas.c ****      dx[i + 1] = da;
 2845               		.loc 1 658 0 discriminator 3
 2846 10b6 8981      		ldd r24,Y+1
 2847 10b8 9A81      		ldd r25,Y+2
 2848 10ba 0196      		adiw r24,1
 2849 10bc 880F      		lsl r24
 2850 10be 991F      		rol r25
 2851 10c0 880F      		lsl r24
 2852 10c2 991F      		rol r25
 2853 10c4 2D89      		ldd r18,Y+21
 2854 10c6 3E89      		ldd r19,Y+22
 2855 10c8 280F      		add r18,r24
 2856 10ca 391F      		adc r19,r25
 2857 10cc 8D81      		ldd r24,Y+5
 2858 10ce 9E81      		ldd r25,Y+6
 2859 10d0 AF81      		ldd r26,Y+7
 2860 10d2 B885      		ldd r27,Y+8
 2861 10d4 F901      		movw r30,r18
 2862 10d6 8083      		st Z,r24
 2863 10d8 9183      		std Z+1,r25
 2864 10da A283      		std Z+2,r26
 2865 10dc B383      		std Z+3,r27
 659:lp_solve_5.5/shared/myblas.c ****      dx[i + 2] = da;
 2866               		.loc 1 659 0 discriminator 3
 2867 10de 8981      		ldd r24,Y+1
 2868 10e0 9A81      		ldd r25,Y+2
 2869 10e2 0296      		adiw r24,2
 2870 10e4 880F      		lsl r24
 2871 10e6 991F      		rol r25
 2872 10e8 880F      		lsl r24
 2873 10ea 991F      		rol r25
 2874 10ec 2D89      		ldd r18,Y+21
 2875 10ee 3E89      		ldd r19,Y+22
 2876 10f0 280F      		add r18,r24
 2877 10f2 391F      		adc r19,r25
 2878 10f4 8D81      		ldd r24,Y+5
 2879 10f6 9E81      		ldd r25,Y+6
 2880 10f8 AF81      		ldd r26,Y+7
 2881 10fa B885      		ldd r27,Y+8
 2882 10fc F901      		movw r30,r18
 2883 10fe 8083      		st Z,r24
 2884 1100 9183      		std Z+1,r25
 2885 1102 A283      		std Z+2,r26
 2886 1104 B383      		std Z+3,r27
 660:lp_solve_5.5/shared/myblas.c ****      dx[i + 3] = da;
 2887               		.loc 1 660 0 discriminator 3
 2888 1106 8981      		ldd r24,Y+1
 2889 1108 9A81      		ldd r25,Y+2
 2890 110a 0396      		adiw r24,3
 2891 110c 880F      		lsl r24
 2892 110e 991F      		rol r25
 2893 1110 880F      		lsl r24
 2894 1112 991F      		rol r25
 2895 1114 2D89      		ldd r18,Y+21
 2896 1116 3E89      		ldd r19,Y+22
 2897 1118 280F      		add r18,r24
 2898 111a 391F      		adc r19,r25
 2899 111c 8D81      		ldd r24,Y+5
 2900 111e 9E81      		ldd r25,Y+6
 2901 1120 AF81      		ldd r26,Y+7
 2902 1122 B885      		ldd r27,Y+8
 2903 1124 F901      		movw r30,r18
 2904 1126 8083      		st Z,r24
 2905 1128 9183      		std Z+1,r25
 2906 112a A283      		std Z+2,r26
 2907 112c B383      		std Z+3,r27
 661:lp_solve_5.5/shared/myblas.c ****      dx[i + 4] = da;
 2908               		.loc 1 661 0 discriminator 3
 2909 112e 8981      		ldd r24,Y+1
 2910 1130 9A81      		ldd r25,Y+2
 2911 1132 0496      		adiw r24,4
 2912 1134 880F      		lsl r24
 2913 1136 991F      		rol r25
 2914 1138 880F      		lsl r24
 2915 113a 991F      		rol r25
 2916 113c 2D89      		ldd r18,Y+21
 2917 113e 3E89      		ldd r19,Y+22
 2918 1140 280F      		add r18,r24
 2919 1142 391F      		adc r19,r25
 2920 1144 8D81      		ldd r24,Y+5
 2921 1146 9E81      		ldd r25,Y+6
 2922 1148 AF81      		ldd r26,Y+7
 2923 114a B885      		ldd r27,Y+8
 2924 114c F901      		movw r30,r18
 2925 114e 8083      		st Z,r24
 2926 1150 9183      		std Z+1,r25
 2927 1152 A283      		std Z+2,r26
 2928 1154 B383      		std Z+3,r27
 662:lp_solve_5.5/shared/myblas.c ****      dx[i + 5] = da;
 2929               		.loc 1 662 0 discriminator 3
 2930 1156 8981      		ldd r24,Y+1
 2931 1158 9A81      		ldd r25,Y+2
 2932 115a 0596      		adiw r24,5
 2933 115c 880F      		lsl r24
 2934 115e 991F      		rol r25
 2935 1160 880F      		lsl r24
 2936 1162 991F      		rol r25
 2937 1164 2D89      		ldd r18,Y+21
 2938 1166 3E89      		ldd r19,Y+22
 2939 1168 280F      		add r18,r24
 2940 116a 391F      		adc r19,r25
 2941 116c 8D81      		ldd r24,Y+5
 2942 116e 9E81      		ldd r25,Y+6
 2943 1170 AF81      		ldd r26,Y+7
 2944 1172 B885      		ldd r27,Y+8
 2945 1174 F901      		movw r30,r18
 2946 1176 8083      		st Z,r24
 2947 1178 9183      		std Z+1,r25
 2948 117a A283      		std Z+2,r26
 2949 117c B383      		std Z+3,r27
 663:lp_solve_5.5/shared/myblas.c ****      dx[i + 6] = da;
 2950               		.loc 1 663 0 discriminator 3
 2951 117e 8981      		ldd r24,Y+1
 2952 1180 9A81      		ldd r25,Y+2
 2953 1182 0696      		adiw r24,6
 2954 1184 880F      		lsl r24
 2955 1186 991F      		rol r25
 2956 1188 880F      		lsl r24
 2957 118a 991F      		rol r25
 2958 118c 2D89      		ldd r18,Y+21
 2959 118e 3E89      		ldd r19,Y+22
 2960 1190 280F      		add r18,r24
 2961 1192 391F      		adc r19,r25
 2962 1194 8D81      		ldd r24,Y+5
 2963 1196 9E81      		ldd r25,Y+6
 2964 1198 AF81      		ldd r26,Y+7
 2965 119a B885      		ldd r27,Y+8
 2966 119c F901      		movw r30,r18
 2967 119e 8083      		st Z,r24
 2968 11a0 9183      		std Z+1,r25
 2969 11a2 A283      		std Z+2,r26
 2970 11a4 B383      		std Z+3,r27
 656:lp_solve_5.5/shared/myblas.c ****      dx[i] = da;
 2971               		.loc 1 656 0 discriminator 3
 2972 11a6 8981      		ldd r24,Y+1
 2973 11a8 9A81      		ldd r25,Y+2
 2974 11aa 0796      		adiw r24,7
 2975 11ac 9A83      		std Y+2,r25
 2976 11ae 8983      		std Y+1,r24
 2977               	.L83:
 656:lp_solve_5.5/shared/myblas.c ****      dx[i] = da;
 2978               		.loc 1 656 0 is_stmt 0 discriminator 1
 2979 11b0 2981      		ldd r18,Y+1
 2980 11b2 3A81      		ldd r19,Y+2
 2981 11b4 8985      		ldd r24,Y+9
 2982 11b6 9A85      		ldd r25,Y+10
 2983 11b8 8217      		cp r24,r18
 2984 11ba 9307      		cpc r25,r19
 2985 11bc 04F0      		brlt .+2
 2986 11be 00C0      		rjmp .L84
 2987 11c0 00C0      		rjmp .L71
 2988               	.L86:
 630:lp_solve_5.5/shared/myblas.c ****   dx--;
 2989               		.loc 1 630 0 is_stmt 1
 2990 11c2 0000      		nop
 2991 11c4 00C0      		rjmp .L71
 2992               	.L89:
 652:lp_solve_5.5/shared/myblas.c **** 
 2993               		.loc 1 652 0
 2994 11c6 0000      		nop
 2995               	.L71:
 2996               	/* epilogue start */
 664:lp_solve_5.5/shared/myblas.c ****   }
 665:lp_solve_5.5/shared/myblas.c **** }
 2997               		.loc 1 665 0
 2998 11c8 6896      		adiw r28,24
 2999 11ca 0FB6      		in __tmp_reg__,__SREG__
 3000 11cc F894      		cli
 3001 11ce DEBF      		out __SP_H__,r29
 3002 11d0 0FBE      		out __SREG__,__tmp_reg__
 3003 11d2 CDBF      		out __SP_L__,r28
 3004 11d4 DF91      		pop r29
 3005 11d6 CF91      		pop r28
 3006 11d8 0895      		ret
 3007               		.cfi_endproc
 3008               	.LFE22:
 3010               	.global	idamax
 3012               	idamax:
 3013               	.LFB23:
 666:lp_solve_5.5/shared/myblas.c **** 
 667:lp_solve_5.5/shared/myblas.c **** /* ************************************************************************ */
 668:lp_solve_5.5/shared/myblas.c **** int idamax( int n, REAL *x, int is )
 669:lp_solve_5.5/shared/myblas.c **** {
 3014               		.loc 1 669 0
 3015               		.cfi_startproc
 3016 11da CF93      		push r28
 3017               	.LCFI101:
 3018               		.cfi_def_cfa_offset 3
 3019               		.cfi_offset 28, -2
 3020 11dc DF93      		push r29
 3021               	.LCFI102:
 3022               		.cfi_def_cfa_offset 4
 3023               		.cfi_offset 29, -3
 3024 11de 00D0      		rcall .
 3025 11e0 00D0      		rcall .
 3026 11e2 00D0      		rcall .
 3027               	.LCFI103:
 3028               		.cfi_def_cfa_offset 10
 3029 11e4 CDB7      		in r28,__SP_L__
 3030 11e6 DEB7      		in r29,__SP_H__
 3031               	.LCFI104:
 3032               		.cfi_def_cfa_register 28
 3033               	/* prologue: function */
 3034               	/* frame size = 6 */
 3035               	/* stack size = 8 */
 3036               	.L__stack_usage = 8
 3037 11e8 9A83      		std Y+2,r25
 3038 11ea 8983      		std Y+1,r24
 3039 11ec 7C83      		std Y+4,r23
 3040 11ee 6B83      		std Y+3,r22
 3041 11f0 5E83      		std Y+6,r21
 3042 11f2 4D83      		std Y+5,r20
 670:lp_solve_5.5/shared/myblas.c ****   x++;
 3043               		.loc 1 670 0
 3044 11f4 8B81      		ldd r24,Y+3
 3045 11f6 9C81      		ldd r25,Y+4
 3046 11f8 0496      		adiw r24,4
 3047 11fa 9C83      		std Y+4,r25
 3048 11fc 8B83      		std Y+3,r24
 671:lp_solve_5.5/shared/myblas.c ****   return ( BLAS_idamax( &n, x, &is ) );
 3049               		.loc 1 671 0
 3050 11fe 2091 0000 		lds r18,BLAS_idamax
 3051 1202 3091 0000 		lds r19,BLAS_idamax+1
 3052 1206 AE01      		movw r20,r28
 3053 1208 4B5F      		subi r20,-5
 3054 120a 5F4F      		sbci r21,-1
 3055 120c 8B81      		ldd r24,Y+3
 3056 120e 9C81      		ldd r25,Y+4
 3057 1210 BC01      		movw r22,r24
 3058 1212 CE01      		movw r24,r28
 3059 1214 0196      		adiw r24,1
 3060 1216 F901      		movw r30,r18
 3061 1218 0995      		icall
 3062               	/* epilogue start */
 672:lp_solve_5.5/shared/myblas.c **** }
 3063               		.loc 1 672 0
 3064 121a 2696      		adiw r28,6
 3065 121c 0FB6      		in __tmp_reg__,__SREG__
 3066 121e F894      		cli
 3067 1220 DEBF      		out __SP_H__,r29
 3068 1222 0FBE      		out __SREG__,__tmp_reg__
 3069 1224 CDBF      		out __SP_L__,r28
 3070 1226 DF91      		pop r29
 3071 1228 CF91      		pop r28
 3072 122a 0895      		ret
 3073               		.cfi_endproc
 3074               	.LFE23:
 3076               	.global	__gtsf2
 3077               	.global	my_idamax
 3079               	my_idamax:
 3080               	.LFB24:
 673:lp_solve_5.5/shared/myblas.c **** 
 674:lp_solve_5.5/shared/myblas.c **** int BLAS_CALLMODEL my_idamax( int *_n, REAL *x, int *_is )
 675:lp_solve_5.5/shared/myblas.c **** {
 3081               		.loc 1 675 0
 3082               		.cfi_startproc
 3083 122c 8F92      		push r8
 3084               	.LCFI105:
 3085               		.cfi_def_cfa_offset 3
 3086               		.cfi_offset 8, -2
 3087 122e 9F92      		push r9
 3088               	.LCFI106:
 3089               		.cfi_def_cfa_offset 4
 3090               		.cfi_offset 9, -3
 3091 1230 AF92      		push r10
 3092               	.LCFI107:
 3093               		.cfi_def_cfa_offset 5
 3094               		.cfi_offset 10, -4
 3095 1232 BF92      		push r11
 3096               	.LCFI108:
 3097               		.cfi_def_cfa_offset 6
 3098               		.cfi_offset 11, -5
 3099 1234 CF92      		push r12
 3100               	.LCFI109:
 3101               		.cfi_def_cfa_offset 7
 3102               		.cfi_offset 12, -6
 3103 1236 DF92      		push r13
 3104               	.LCFI110:
 3105               		.cfi_def_cfa_offset 8
 3106               		.cfi_offset 13, -7
 3107 1238 EF92      		push r14
 3108               	.LCFI111:
 3109               		.cfi_def_cfa_offset 9
 3110               		.cfi_offset 14, -8
 3111 123a FF92      		push r15
 3112               	.LCFI112:
 3113               		.cfi_def_cfa_offset 10
 3114               		.cfi_offset 15, -9
 3115 123c CF93      		push r28
 3116               	.LCFI113:
 3117               		.cfi_def_cfa_offset 11
 3118               		.cfi_offset 28, -10
 3119 123e DF93      		push r29
 3120               	.LCFI114:
 3121               		.cfi_def_cfa_offset 12
 3122               		.cfi_offset 29, -11
 3123 1240 CDB7      		in r28,__SP_L__
 3124 1242 DEB7      		in r29,__SP_H__
 3125               	.LCFI115:
 3126               		.cfi_def_cfa_register 28
 3127 1244 2E97      		sbiw r28,14
 3128               	.LCFI116:
 3129               		.cfi_def_cfa_offset 26
 3130 1246 0FB6      		in __tmp_reg__,__SREG__
 3131 1248 F894      		cli
 3132 124a DEBF      		out __SP_H__,r29
 3133 124c 0FBE      		out __SREG__,__tmp_reg__
 3134 124e CDBF      		out __SP_L__,r28
 3135               	/* prologue: function */
 3136               	/* frame size = 14 */
 3137               	/* stack size = 24 */
 3138               	.L__stack_usage = 24
 3139 1250 9A87      		std Y+10,r25
 3140 1252 8987      		std Y+9,r24
 3141 1254 7C87      		std Y+12,r23
 3142 1256 6B87      		std Y+11,r22
 3143 1258 5E87      		std Y+14,r21
 3144 125a 4D87      		std Y+13,r20
 676:lp_solve_5.5/shared/myblas.c ****   register REAL xmax, xtest;
 677:lp_solve_5.5/shared/myblas.c ****   int    i, imax = 0;
 3145               		.loc 1 677 0
 3146 125c 1C82      		std Y+4,__zero_reg__
 3147 125e 1B82      		std Y+3,__zero_reg__
 678:lp_solve_5.5/shared/myblas.c **** #if !defined DOFASTMATH
 679:lp_solve_5.5/shared/myblas.c ****   int    ii;
 680:lp_solve_5.5/shared/myblas.c **** #endif
 681:lp_solve_5.5/shared/myblas.c ****   int    n = *_n, is = *_is;
 3148               		.loc 1 681 0
 3149 1260 8985      		ldd r24,Y+9
 3150 1262 9A85      		ldd r25,Y+10
 3151 1264 FC01      		movw r30,r24
 3152 1266 8081      		ld r24,Z
 3153 1268 9181      		ldd r25,Z+1
 3154 126a 9E83      		std Y+6,r25
 3155 126c 8D83      		std Y+5,r24
 3156 126e 8D85      		ldd r24,Y+13
 3157 1270 9E85      		ldd r25,Y+14
 3158 1272 FC01      		movw r30,r24
 3159 1274 8081      		ld r24,Z
 3160 1276 9181      		ldd r25,Z+1
 3161 1278 9887      		std Y+8,r25
 3162 127a 8F83      		std Y+7,r24
 682:lp_solve_5.5/shared/myblas.c **** 
 683:lp_solve_5.5/shared/myblas.c ****   if((n < 1) || (is <= 0))
 3163               		.loc 1 683 0
 3164 127c 8D81      		ldd r24,Y+5
 3165 127e 9E81      		ldd r25,Y+6
 3166 1280 1816      		cp __zero_reg__,r24
 3167 1282 1906      		cpc __zero_reg__,r25
 3168 1284 04F4      		brge .L93
 3169               		.loc 1 683 0 is_stmt 0 discriminator 1
 3170 1286 8F81      		ldd r24,Y+7
 3171 1288 9885      		ldd r25,Y+8
 3172 128a 1816      		cp __zero_reg__,r24
 3173 128c 1906      		cpc __zero_reg__,r25
 3174 128e 04F0      		brlt .L94
 3175               	.L93:
 684:lp_solve_5.5/shared/myblas.c ****     return(imax);
 3176               		.loc 1 684 0 is_stmt 1
 3177 1290 8B81      		ldd r24,Y+3
 3178 1292 9C81      		ldd r25,Y+4
 3179 1294 00C0      		rjmp .L95
 3180               	.L94:
 685:lp_solve_5.5/shared/myblas.c ****   imax = 1;
 3181               		.loc 1 685 0
 3182 1296 81E0      		ldi r24,lo8(1)
 3183 1298 90E0      		ldi r25,0
 3184 129a 9C83      		std Y+4,r25
 3185 129c 8B83      		std Y+3,r24
 686:lp_solve_5.5/shared/myblas.c ****   if(n == 1)
 3186               		.loc 1 686 0
 3187 129e 8D81      		ldd r24,Y+5
 3188 12a0 9E81      		ldd r25,Y+6
 3189 12a2 0197      		sbiw r24,1
 3190 12a4 01F4      		brne .L96
 687:lp_solve_5.5/shared/myblas.c ****     return(imax);
 3191               		.loc 1 687 0
 3192 12a6 8B81      		ldd r24,Y+3
 3193 12a8 9C81      		ldd r25,Y+4
 3194 12aa 00C0      		rjmp .L95
 3195               	.L96:
 688:lp_solve_5.5/shared/myblas.c **** 
 689:lp_solve_5.5/shared/myblas.c **** #if defined DOFASTMATH
 690:lp_solve_5.5/shared/myblas.c ****   xmax = fabs(*x);
 3196               		.loc 1 690 0
 3197 12ac 8B85      		ldd r24,Y+11
 3198 12ae 9C85      		ldd r25,Y+12
 3199 12b0 FC01      		movw r30,r24
 3200 12b2 8081      		ld r24,Z
 3201 12b4 9181      		ldd r25,Z+1
 3202 12b6 A281      		ldd r26,Z+2
 3203 12b8 B381      		ldd r27,Z+3
 3204 12ba 6C01      		movw r12,r24
 3205 12bc 7D01      		movw r14,r26
 3206 12be E894      		clt
 3207 12c0 F7F8      		bld r15,7
 691:lp_solve_5.5/shared/myblas.c ****   for (i = 2, x += is; i <= n; i++, x += is) {
 3208               		.loc 1 691 0
 3209 12c2 82E0      		ldi r24,lo8(2)
 3210 12c4 90E0      		ldi r25,0
 3211 12c6 9A83      		std Y+2,r25
 3212 12c8 8983      		std Y+1,r24
 3213 12ca 8F81      		ldd r24,Y+7
 3214 12cc 9885      		ldd r25,Y+8
 3215 12ce 880F      		lsl r24
 3216 12d0 991F      		rol r25
 3217 12d2 880F      		lsl r24
 3218 12d4 991F      		rol r25
 3219 12d6 2B85      		ldd r18,Y+11
 3220 12d8 3C85      		ldd r19,Y+12
 3221 12da 820F      		add r24,r18
 3222 12dc 931F      		adc r25,r19
 3223 12de 9C87      		std Y+12,r25
 3224 12e0 8B87      		std Y+11,r24
 3225 12e2 00C0      		rjmp .L97
 3226               	.L100:
 692:lp_solve_5.5/shared/myblas.c ****     xtest = fabs(*x);
 3227               		.loc 1 692 0
 3228 12e4 8B85      		ldd r24,Y+11
 3229 12e6 9C85      		ldd r25,Y+12
 3230 12e8 FC01      		movw r30,r24
 3231 12ea 8081      		ld r24,Z
 3232 12ec 9181      		ldd r25,Z+1
 3233 12ee A281      		ldd r26,Z+2
 3234 12f0 B381      		ldd r27,Z+3
 3235 12f2 4C01      		movw r8,r24
 3236 12f4 5D01      		movw r10,r26
 3237 12f6 E894      		clt
 3238 12f8 B7F8      		bld r11,7
 693:lp_solve_5.5/shared/myblas.c ****     if(xtest > xmax) {
 3239               		.loc 1 693 0
 3240 12fa A701      		movw r20,r14
 3241 12fc 9601      		movw r18,r12
 3242 12fe C501      		movw r24,r10
 3243 1300 B401      		movw r22,r8
 3244 1302 0E94 0000 		call __gtsf2
 3245 1306 1816      		cp __zero_reg__,r24
 3246 1308 04F4      		brge .L98
 694:lp_solve_5.5/shared/myblas.c ****       xmax = xtest;
 3247               		.loc 1 694 0
 3248 130a 7501      		movw r14,r10
 3249 130c 6401      		movw r12,r8
 695:lp_solve_5.5/shared/myblas.c ****       imax = i;
 3250               		.loc 1 695 0
 3251 130e 8981      		ldd r24,Y+1
 3252 1310 9A81      		ldd r25,Y+2
 3253 1312 9C83      		std Y+4,r25
 3254 1314 8B83      		std Y+3,r24
 3255               	.L98:
 691:lp_solve_5.5/shared/myblas.c ****     xtest = fabs(*x);
 3256               		.loc 1 691 0 discriminator 2
 3257 1316 8981      		ldd r24,Y+1
 3258 1318 9A81      		ldd r25,Y+2
 3259 131a 0196      		adiw r24,1
 3260 131c 9A83      		std Y+2,r25
 3261 131e 8983      		std Y+1,r24
 3262 1320 8F81      		ldd r24,Y+7
 3263 1322 9885      		ldd r25,Y+8
 3264 1324 880F      		lsl r24
 3265 1326 991F      		rol r25
 3266 1328 880F      		lsl r24
 3267 132a 991F      		rol r25
 3268 132c 2B85      		ldd r18,Y+11
 3269 132e 3C85      		ldd r19,Y+12
 3270 1330 820F      		add r24,r18
 3271 1332 931F      		adc r25,r19
 3272 1334 9C87      		std Y+12,r25
 3273 1336 8B87      		std Y+11,r24
 3274               	.L97:
 691:lp_solve_5.5/shared/myblas.c ****     xtest = fabs(*x);
 3275               		.loc 1 691 0 is_stmt 0 discriminator 1
 3276 1338 2981      		ldd r18,Y+1
 3277 133a 3A81      		ldd r19,Y+2
 3278 133c 8D81      		ldd r24,Y+5
 3279 133e 9E81      		ldd r25,Y+6
 3280 1340 8217      		cp r24,r18
 3281 1342 9307      		cpc r25,r19
 3282 1344 04F4      		brge .L100
 696:lp_solve_5.5/shared/myblas.c ****     }
 697:lp_solve_5.5/shared/myblas.c ****   }
 698:lp_solve_5.5/shared/myblas.c **** #else
 699:lp_solve_5.5/shared/myblas.c ****   x--;
 700:lp_solve_5.5/shared/myblas.c ****   ii = 1;
 701:lp_solve_5.5/shared/myblas.c ****   xmax = fabs(x[ii]);
 702:lp_solve_5.5/shared/myblas.c ****   for(i = 2, ii+ = is; i <= n; i++, ii+ = is) {
 703:lp_solve_5.5/shared/myblas.c ****     xtest = fabs(x[ii]);
 704:lp_solve_5.5/shared/myblas.c **** 	  if(xtest > xmax) {
 705:lp_solve_5.5/shared/myblas.c ****       xmax = xtest;
 706:lp_solve_5.5/shared/myblas.c **** 		  imax = i;
 707:lp_solve_5.5/shared/myblas.c ****     }
 708:lp_solve_5.5/shared/myblas.c ****   }
 709:lp_solve_5.5/shared/myblas.c **** #endif  
 710:lp_solve_5.5/shared/myblas.c ****   return(imax);
 3283               		.loc 1 710 0 is_stmt 1
 3284 1346 8B81      		ldd r24,Y+3
 3285 1348 9C81      		ldd r25,Y+4
 3286               	.L95:
 3287               	/* epilogue start */
 711:lp_solve_5.5/shared/myblas.c **** }
 3288               		.loc 1 711 0
 3289 134a 2E96      		adiw r28,14
 3290 134c 0FB6      		in __tmp_reg__,__SREG__
 3291 134e F894      		cli
 3292 1350 DEBF      		out __SP_H__,r29
 3293 1352 0FBE      		out __SREG__,__tmp_reg__
 3294 1354 CDBF      		out __SP_L__,r28
 3295 1356 DF91      		pop r29
 3296 1358 CF91      		pop r28
 3297 135a FF90      		pop r15
 3298 135c EF90      		pop r14
 3299 135e DF90      		pop r13
 3300 1360 CF90      		pop r12
 3301 1362 BF90      		pop r11
 3302 1364 AF90      		pop r10
 3303 1366 9F90      		pop r9
 3304 1368 8F90      		pop r8
 3305 136a 0895      		ret
 3306               		.cfi_endproc
 3307               	.LFE24:
 3309               	.global	dnormi
 3311               	dnormi:
 3312               	.LFB25:
 712:lp_solve_5.5/shared/myblas.c **** 
 713:lp_solve_5.5/shared/myblas.c **** 
 714:lp_solve_5.5/shared/myblas.c **** /* ************************************************************************ */
 715:lp_solve_5.5/shared/myblas.c **** REAL dnormi( int n, REAL *x )
 716:lp_solve_5.5/shared/myblas.c **** {
 3313               		.loc 1 716 0
 3314               		.cfi_startproc
 3315 136c CF93      		push r28
 3316               	.LCFI117:
 3317               		.cfi_def_cfa_offset 3
 3318               		.cfi_offset 28, -2
 3319 136e DF93      		push r29
 3320               	.LCFI118:
 3321               		.cfi_def_cfa_offset 4
 3322               		.cfi_offset 29, -3
 3323 1370 00D0      		rcall .
 3324 1372 00D0      		rcall .
 3325               	.LCFI119:
 3326               		.cfi_def_cfa_offset 8
 3327 1374 CDB7      		in r28,__SP_L__
 3328 1376 DEB7      		in r29,__SP_H__
 3329               	.LCFI120:
 3330               		.cfi_def_cfa_register 28
 3331               	/* prologue: function */
 3332               	/* frame size = 4 */
 3333               	/* stack size = 6 */
 3334               	.L__stack_usage = 6
 3335 1378 9A83      		std Y+2,r25
 3336 137a 8983      		std Y+1,r24
 3337 137c 7C83      		std Y+4,r23
 3338 137e 6B83      		std Y+3,r22
 717:lp_solve_5.5/shared/myblas.c ****   x++;
 3339               		.loc 1 717 0
 3340 1380 8B81      		ldd r24,Y+3
 3341 1382 9C81      		ldd r25,Y+4
 3342 1384 0496      		adiw r24,4
 3343 1386 9C83      		std Y+4,r25
 3344 1388 8B83      		std Y+3,r24
 718:lp_solve_5.5/shared/myblas.c ****   return( BLAS_dnormi( &n, x ) );
 3345               		.loc 1 718 0
 3346 138a 2091 0000 		lds r18,BLAS_dnormi
 3347 138e 3091 0000 		lds r19,BLAS_dnormi+1
 3348 1392 8B81      		ldd r24,Y+3
 3349 1394 9C81      		ldd r25,Y+4
 3350 1396 BC01      		movw r22,r24
 3351 1398 CE01      		movw r24,r28
 3352 139a 0196      		adiw r24,1
 3353 139c F901      		movw r30,r18
 3354 139e 0995      		icall
 3355 13a0 DC01      		movw r26,r24
 3356 13a2 CB01      		movw r24,r22
 719:lp_solve_5.5/shared/myblas.c **** }
 3357               		.loc 1 719 0
 3358 13a4 BC01      		movw r22,r24
 3359 13a6 CD01      		movw r24,r26
 3360               	/* epilogue start */
 3361 13a8 0F90      		pop __tmp_reg__
 3362 13aa 0F90      		pop __tmp_reg__
 3363 13ac 0F90      		pop __tmp_reg__
 3364 13ae 0F90      		pop __tmp_reg__
 3365 13b0 DF91      		pop r29
 3366 13b2 CF91      		pop r28
 3367 13b4 0895      		ret
 3368               		.cfi_endproc
 3369               	.LFE25:
 3371               	.global	my_dnormi
 3373               	my_dnormi:
 3374               	.LFB26:
 720:lp_solve_5.5/shared/myblas.c **** 
 721:lp_solve_5.5/shared/myblas.c **** REAL BLAS_CALLMODEL my_dnormi( int *_n, REAL *x )
 722:lp_solve_5.5/shared/myblas.c **** {
 3375               		.loc 1 722 0
 3376               		.cfi_startproc
 3377 13b6 8F92      		push r8
 3378               	.LCFI121:
 3379               		.cfi_def_cfa_offset 3
 3380               		.cfi_offset 8, -2
 3381 13b8 9F92      		push r9
 3382               	.LCFI122:
 3383               		.cfi_def_cfa_offset 4
 3384               		.cfi_offset 9, -3
 3385 13ba AF92      		push r10
 3386               	.LCFI123:
 3387               		.cfi_def_cfa_offset 5
 3388               		.cfi_offset 10, -4
 3389 13bc BF92      		push r11
 3390               	.LCFI124:
 3391               		.cfi_def_cfa_offset 6
 3392               		.cfi_offset 11, -5
 3393 13be CF92      		push r12
 3394               	.LCFI125:
 3395               		.cfi_def_cfa_offset 7
 3396               		.cfi_offset 12, -6
 3397 13c0 DF92      		push r13
 3398               	.LCFI126:
 3399               		.cfi_def_cfa_offset 8
 3400               		.cfi_offset 13, -7
 3401 13c2 EF92      		push r14
 3402               	.LCFI127:
 3403               		.cfi_def_cfa_offset 9
 3404               		.cfi_offset 14, -8
 3405 13c4 FF92      		push r15
 3406               	.LCFI128:
 3407               		.cfi_def_cfa_offset 10
 3408               		.cfi_offset 15, -9
 3409 13c6 CF93      		push r28
 3410               	.LCFI129:
 3411               		.cfi_def_cfa_offset 11
 3412               		.cfi_offset 28, -10
 3413 13c8 DF93      		push r29
 3414               	.LCFI130:
 3415               		.cfi_def_cfa_offset 12
 3416               		.cfi_offset 29, -11
 3417 13ca CDB7      		in r28,__SP_L__
 3418 13cc DEB7      		in r29,__SP_H__
 3419               	.LCFI131:
 3420               		.cfi_def_cfa_register 28
 3421 13ce 2897      		sbiw r28,8
 3422               	.LCFI132:
 3423               		.cfi_def_cfa_offset 20
 3424 13d0 0FB6      		in __tmp_reg__,__SREG__
 3425 13d2 F894      		cli
 3426 13d4 DEBF      		out __SP_H__,r29
 3427 13d6 0FBE      		out __SREG__,__tmp_reg__
 3428 13d8 CDBF      		out __SP_L__,r28
 3429               	/* prologue: function */
 3430               	/* frame size = 8 */
 3431               	/* stack size = 18 */
 3432               	.L__stack_usage = 18
 3433 13da 9E83      		std Y+6,r25
 3434 13dc 8D83      		std Y+5,r24
 3435 13de 7887      		std Y+8,r23
 3436 13e0 6F83      		std Y+7,r22
 723:lp_solve_5.5/shared/myblas.c **** /* ===============================================================
 724:lp_solve_5.5/shared/myblas.c ****    dnormi  returns the infinity-norm of the vector x.
 725:lp_solve_5.5/shared/myblas.c ****    =============================================================== */
 726:lp_solve_5.5/shared/myblas.c ****    int      j;
 727:lp_solve_5.5/shared/myblas.c ****    register REAL hold, absval;
 728:lp_solve_5.5/shared/myblas.c ****    int      n = *_n;
 3437               		.loc 1 728 0
 3438 13e2 8D81      		ldd r24,Y+5
 3439 13e4 9E81      		ldd r25,Y+6
 3440 13e6 FC01      		movw r30,r24
 3441 13e8 8081      		ld r24,Z
 3442 13ea 9181      		ldd r25,Z+1
 3443 13ec 9C83      		std Y+4,r25
 3444 13ee 8B83      		std Y+3,r24
 729:lp_solve_5.5/shared/myblas.c **** 
 730:lp_solve_5.5/shared/myblas.c ****    x--;
 3445               		.loc 1 730 0
 3446 13f0 8F81      		ldd r24,Y+7
 3447 13f2 9885      		ldd r25,Y+8
 3448 13f4 0497      		sbiw r24,4
 3449 13f6 9887      		std Y+8,r25
 3450 13f8 8F83      		std Y+7,r24
 731:lp_solve_5.5/shared/myblas.c ****    hold = 0.0;
 3451               		.loc 1 731 0
 3452 13fa 812C      		mov r8,__zero_reg__
 3453 13fc 912C      		mov r9,__zero_reg__
 3454 13fe 5401      		movw r10,r8
 732:lp_solve_5.5/shared/myblas.c **** /*   for(j = 1; j <= n; j++) */
 733:lp_solve_5.5/shared/myblas.c ****    for(j = n; j > 0; j--) {
 3455               		.loc 1 733 0
 3456 1400 8B81      		ldd r24,Y+3
 3457 1402 9C81      		ldd r25,Y+4
 3458 1404 9A83      		std Y+2,r25
 3459 1406 8983      		std Y+1,r24
 3460 1408 00C0      		rjmp .L105
 3461               	.L109:
 734:lp_solve_5.5/shared/myblas.c ****      absval = fabs(x[j]);
 3462               		.loc 1 734 0
 3463 140a 8981      		ldd r24,Y+1
 3464 140c 9A81      		ldd r25,Y+2
 3465 140e 880F      		lsl r24
 3466 1410 991F      		rol r25
 3467 1412 880F      		lsl r24
 3468 1414 991F      		rol r25
 3469 1416 2F81      		ldd r18,Y+7
 3470 1418 3885      		ldd r19,Y+8
 3471 141a 820F      		add r24,r18
 3472 141c 931F      		adc r25,r19
 3473 141e FC01      		movw r30,r24
 3474 1420 8081      		ld r24,Z
 3475 1422 9181      		ldd r25,Z+1
 3476 1424 A281      		ldd r26,Z+2
 3477 1426 B381      		ldd r27,Z+3
 3478 1428 6C01      		movw r12,r24
 3479 142a 7D01      		movw r14,r26
 3480 142c E894      		clt
 3481 142e F7F8      		bld r15,7
 735:lp_solve_5.5/shared/myblas.c ****      hold = MAX( hold, absval );
 3482               		.loc 1 735 0
 3483 1430 A701      		movw r20,r14
 3484 1432 9601      		movw r18,r12
 3485 1434 C501      		movw r24,r10
 3486 1436 B401      		movw r22,r8
 3487 1438 0E94 0000 		call __gtsf2
 3488 143c 1816      		cp __zero_reg__,r24
 3489 143e 04F4      		brge .L112
 3490               		.loc 1 735 0 is_stmt 0 discriminator 1
 3491 1440 D501      		movw r26,r10
 3492 1442 C401      		movw r24,r8
 3493 1444 00C0      		rjmp .L108
 3494               	.L112:
 3495               		.loc 1 735 0 discriminator 2
 3496 1446 D701      		movw r26,r14
 3497 1448 C601      		movw r24,r12
 3498               	.L108:
 3499               		.loc 1 735 0 discriminator 4
 3500 144a 4C01      		movw r8,r24
 3501 144c 5D01      		movw r10,r26
 733:lp_solve_5.5/shared/myblas.c ****      absval = fabs(x[j]);
 3502               		.loc 1 733 0 is_stmt 1 discriminator 4
 3503 144e 8981      		ldd r24,Y+1
 3504 1450 9A81      		ldd r25,Y+2
 3505 1452 0197      		sbiw r24,1
 3506 1454 9A83      		std Y+2,r25
 3507 1456 8983      		std Y+1,r24
 3508               	.L105:
 733:lp_solve_5.5/shared/myblas.c ****      absval = fabs(x[j]);
 3509               		.loc 1 733 0 is_stmt 0 discriminator 2
 3510 1458 8981      		ldd r24,Y+1
 3511 145a 9A81      		ldd r25,Y+2
 3512 145c 1816      		cp __zero_reg__,r24
 3513 145e 1906      		cpc __zero_reg__,r25
 3514 1460 04F0      		brlt .L109
 736:lp_solve_5.5/shared/myblas.c ****    }
 737:lp_solve_5.5/shared/myblas.c **** 
 738:lp_solve_5.5/shared/myblas.c ****    return( hold );
 3515               		.loc 1 738 0 is_stmt 1
 3516 1462 D501      		movw r26,r10
 3517 1464 C401      		movw r24,r8
 739:lp_solve_5.5/shared/myblas.c **** }
 3518               		.loc 1 739 0
 3519 1466 BC01      		movw r22,r24
 3520 1468 CD01      		movw r24,r26
 3521               	/* epilogue start */
 3522 146a 2896      		adiw r28,8
 3523 146c 0FB6      		in __tmp_reg__,__SREG__
 3524 146e F894      		cli
 3525 1470 DEBF      		out __SP_H__,r29
 3526 1472 0FBE      		out __SREG__,__tmp_reg__
 3527 1474 CDBF      		out __SP_L__,r28
 3528 1476 DF91      		pop r29
 3529 1478 CF91      		pop r28
 3530 147a FF90      		pop r15
 3531 147c EF90      		pop r14
 3532 147e DF90      		pop r13
 3533 1480 CF90      		pop r12
 3534 1482 BF90      		pop r11
 3535 1484 AF90      		pop r10
 3536 1486 9F90      		pop r9
 3537 1488 8F90      		pop r8
 3538 148a 0895      		ret
 3539               		.cfi_endproc
 3540               	.LFE26:
 3542               	.global	submat
 3544               	submat:
 3545               	.LFB27:
 740:lp_solve_5.5/shared/myblas.c **** 
 741:lp_solve_5.5/shared/myblas.c **** 
 742:lp_solve_5.5/shared/myblas.c **** /* ************************************************************************ */
 743:lp_solve_5.5/shared/myblas.c **** /* Subvector and submatrix access routines (Fortran compatibility)          */
 744:lp_solve_5.5/shared/myblas.c **** /* ************************************************************************ */
 745:lp_solve_5.5/shared/myblas.c **** 
 746:lp_solve_5.5/shared/myblas.c **** #ifndef UseMacroVector
 747:lp_solve_5.5/shared/myblas.c **** int  subvec( int item)
 748:lp_solve_5.5/shared/myblas.c **** {
 749:lp_solve_5.5/shared/myblas.c ****   return( item-1 );
 750:lp_solve_5.5/shared/myblas.c **** }
 751:lp_solve_5.5/shared/myblas.c **** #endif
 752:lp_solve_5.5/shared/myblas.c **** 
 753:lp_solve_5.5/shared/myblas.c **** int submat( int nrowb, int row, int col)
 754:lp_solve_5.5/shared/myblas.c **** {
 3546               		.loc 1 754 0
 3547               		.cfi_startproc
 3548 148c CF93      		push r28
 3549               	.LCFI133:
 3550               		.cfi_def_cfa_offset 3
 3551               		.cfi_offset 28, -2
 3552 148e DF93      		push r29
 3553               	.LCFI134:
 3554               		.cfi_def_cfa_offset 4
 3555               		.cfi_offset 29, -3
 3556 1490 00D0      		rcall .
 3557 1492 00D0      		rcall .
 3558 1494 00D0      		rcall .
 3559               	.LCFI135:
 3560               		.cfi_def_cfa_offset 10
 3561 1496 CDB7      		in r28,__SP_L__
 3562 1498 DEB7      		in r29,__SP_H__
 3563               	.LCFI136:
 3564               		.cfi_def_cfa_register 28
 3565               	/* prologue: function */
 3566               	/* frame size = 6 */
 3567               	/* stack size = 8 */
 3568               	.L__stack_usage = 8
 3569 149a 9A83      		std Y+2,r25
 3570 149c 8983      		std Y+1,r24
 3571 149e 7C83      		std Y+4,r23
 3572 14a0 6B83      		std Y+3,r22
 3573 14a2 5E83      		std Y+6,r21
 3574 14a4 4D83      		std Y+5,r20
 755:lp_solve_5.5/shared/myblas.c ****   return( nrowb*(col-1) + subvec(row) );
 3575               		.loc 1 755 0
 3576 14a6 8D81      		ldd r24,Y+5
 3577 14a8 9E81      		ldd r25,Y+6
 3578 14aa AC01      		movw r20,r24
 3579 14ac 4150      		subi r20,1
 3580 14ae 5109      		sbc r21,__zero_reg__
 3581 14b0 8981      		ldd r24,Y+1
 3582 14b2 9A81      		ldd r25,Y+2
 3583 14b4 489F      		mul r20,r24
 3584 14b6 9001      		movw r18,r0
 3585 14b8 499F      		mul r20,r25
 3586 14ba 300D      		add r19,r0
 3587 14bc 589F      		mul r21,r24
 3588 14be 300D      		add r19,r0
 3589 14c0 1124      		clr r1
 3590 14c2 8B81      		ldd r24,Y+3
 3591 14c4 9C81      		ldd r25,Y+4
 3592 14c6 0197      		sbiw r24,1
 3593 14c8 820F      		add r24,r18
 3594 14ca 931F      		adc r25,r19
 3595               	/* epilogue start */
 756:lp_solve_5.5/shared/myblas.c **** }
 3596               		.loc 1 756 0
 3597 14cc 2696      		adiw r28,6
 3598 14ce 0FB6      		in __tmp_reg__,__SREG__
 3599 14d0 F894      		cli
 3600 14d2 DEBF      		out __SP_H__,r29
 3601 14d4 0FBE      		out __SREG__,__tmp_reg__
 3602 14d6 CDBF      		out __SP_L__,r28
 3603 14d8 DF91      		pop r29
 3604 14da CF91      		pop r28
 3605 14dc 0895      		ret
 3606               		.cfi_endproc
 3607               	.LFE27:
 3609               	.global	posmat
 3611               	posmat:
 3612               	.LFB28:
 757:lp_solve_5.5/shared/myblas.c **** 
 758:lp_solve_5.5/shared/myblas.c **** int posmat( int nrowb, int row, int col)
 759:lp_solve_5.5/shared/myblas.c **** {
 3613               		.loc 1 759 0
 3614               		.cfi_startproc
 3615 14de CF93      		push r28
 3616               	.LCFI137:
 3617               		.cfi_def_cfa_offset 3
 3618               		.cfi_offset 28, -2
 3619 14e0 DF93      		push r29
 3620               	.LCFI138:
 3621               		.cfi_def_cfa_offset 4
 3622               		.cfi_offset 29, -3
 3623 14e2 00D0      		rcall .
 3624 14e4 00D0      		rcall .
 3625 14e6 00D0      		rcall .
 3626               	.LCFI139:
 3627               		.cfi_def_cfa_offset 10
 3628 14e8 CDB7      		in r28,__SP_L__
 3629 14ea DEB7      		in r29,__SP_H__
 3630               	.LCFI140:
 3631               		.cfi_def_cfa_register 28
 3632               	/* prologue: function */
 3633               	/* frame size = 6 */
 3634               	/* stack size = 8 */
 3635               	.L__stack_usage = 8
 3636 14ec 9A83      		std Y+2,r25
 3637 14ee 8983      		std Y+1,r24
 3638 14f0 7C83      		std Y+4,r23
 3639 14f2 6B83      		std Y+3,r22
 3640 14f4 5E83      		std Y+6,r21
 3641 14f6 4D83      		std Y+5,r20
 760:lp_solve_5.5/shared/myblas.c ****   return( submat(nrowb, row, col)+BLAS_BASE );
 3642               		.loc 1 760 0
 3643 14f8 4D81      		ldd r20,Y+5
 3644 14fa 5E81      		ldd r21,Y+6
 3645 14fc 2B81      		ldd r18,Y+3
 3646 14fe 3C81      		ldd r19,Y+4
 3647 1500 8981      		ldd r24,Y+1
 3648 1502 9A81      		ldd r25,Y+2
 3649 1504 B901      		movw r22,r18
 3650 1506 0E94 0000 		call submat
 3651 150a 0196      		adiw r24,1
 3652               	/* epilogue start */
 761:lp_solve_5.5/shared/myblas.c **** }
 3653               		.loc 1 761 0
 3654 150c 2696      		adiw r28,6
 3655 150e 0FB6      		in __tmp_reg__,__SREG__
 3656 1510 F894      		cli
 3657 1512 DEBF      		out __SP_H__,r29
 3658 1514 0FBE      		out __SREG__,__tmp_reg__
 3659 1516 CDBF      		out __SP_L__,r28
 3660 1518 DF91      		pop r29
 3661 151a CF91      		pop r28
 3662 151c 0895      		ret
 3663               		.cfi_endproc
 3664               	.LFE28:
 3666               	.global	randomseed
 3668               	randomseed:
 3669               	.LFB29:
 762:lp_solve_5.5/shared/myblas.c **** 
 763:lp_solve_5.5/shared/myblas.c **** /* ************************************************************************ */
 764:lp_solve_5.5/shared/myblas.c **** /* Randomization functions                                                  */
 765:lp_solve_5.5/shared/myblas.c **** /* ************************************************************************ */
 766:lp_solve_5.5/shared/myblas.c **** 
 767:lp_solve_5.5/shared/myblas.c **** void randomseed(int seeds[])
 768:lp_solve_5.5/shared/myblas.c **** /* Simply create some default seed values */
 769:lp_solve_5.5/shared/myblas.c **** {
 3670               		.loc 1 769 0
 3671               		.cfi_startproc
 3672 151e CF93      		push r28
 3673               	.LCFI141:
 3674               		.cfi_def_cfa_offset 3
 3675               		.cfi_offset 28, -2
 3676 1520 DF93      		push r29
 3677               	.LCFI142:
 3678               		.cfi_def_cfa_offset 4
 3679               		.cfi_offset 29, -3
 3680 1522 00D0      		rcall .
 3681               	.LCFI143:
 3682               		.cfi_def_cfa_offset 6
 3683 1524 CDB7      		in r28,__SP_L__
 3684 1526 DEB7      		in r29,__SP_H__
 3685               	.LCFI144:
 3686               		.cfi_def_cfa_register 28
 3687               	/* prologue: function */
 3688               	/* frame size = 2 */
 3689               	/* stack size = 4 */
 3690               	.L__stack_usage = 4
 3691 1528 9A83      		std Y+2,r25
 3692 152a 8983      		std Y+1,r24
 770:lp_solve_5.5/shared/myblas.c ****   seeds[1] = 123456;
 3693               		.loc 1 770 0
 3694 152c 8981      		ldd r24,Y+1
 3695 152e 9A81      		ldd r25,Y+2
 3696 1530 0296      		adiw r24,2
 3697 1532 20E4      		ldi r18,lo8(64)
 3698 1534 32EE      		ldi r19,lo8(-30)
 3699 1536 FC01      		movw r30,r24
 3700 1538 3183      		std Z+1,r19
 3701 153a 2083      		st Z,r18
 771:lp_solve_5.5/shared/myblas.c ****   seeds[2] = 234567;
 3702               		.loc 1 771 0
 3703 153c 8981      		ldd r24,Y+1
 3704 153e 9A81      		ldd r25,Y+2
 3705 1540 0496      		adiw r24,4
 3706 1542 27E4      		ldi r18,lo8(71)
 3707 1544 34E9      		ldi r19,lo8(-108)
 3708 1546 FC01      		movw r30,r24
 3709 1548 3183      		std Z+1,r19
 3710 154a 2083      		st Z,r18
 772:lp_solve_5.5/shared/myblas.c ****   seeds[3] = 345678;
 3711               		.loc 1 772 0
 3712 154c 8981      		ldd r24,Y+1
 3713 154e 9A81      		ldd r25,Y+2
 3714 1550 0696      		adiw r24,6
 3715 1552 2EE4      		ldi r18,lo8(78)
 3716 1554 36E4      		ldi r19,lo8(70)
 3717 1556 FC01      		movw r30,r24
 3718 1558 3183      		std Z+1,r19
 3719 155a 2083      		st Z,r18
 773:lp_solve_5.5/shared/myblas.c **** }
 3720               		.loc 1 773 0
 3721 155c 0000      		nop
 3722               	/* epilogue start */
 3723 155e 0F90      		pop __tmp_reg__
 3724 1560 0F90      		pop __tmp_reg__
 3725 1562 DF91      		pop r29
 3726 1564 CF91      		pop r28
 3727 1566 0895      		ret
 3728               		.cfi_endproc
 3729               	.LFE29:
 3731               	.global	__ltsf2
 3732               	.global	__subsf3
 3733               	.global	randomdens
 3735               	randomdens:
 3736               	.LFB30:
 774:lp_solve_5.5/shared/myblas.c **** 
 775:lp_solve_5.5/shared/myblas.c **** void randomdens( int n, REAL *x, REAL r1, REAL r2, REAL densty, int *seeds )
 776:lp_solve_5.5/shared/myblas.c **** {
 3737               		.loc 1 776 0
 3738               		.cfi_startproc
 3739 1568 8F92      		push r8
 3740               	.LCFI145:
 3741               		.cfi_def_cfa_offset 3
 3742               		.cfi_offset 8, -2
 3743 156a 9F92      		push r9
 3744               	.LCFI146:
 3745               		.cfi_def_cfa_offset 4
 3746               		.cfi_offset 9, -3
 3747 156c AF92      		push r10
 3748               	.LCFI147:
 3749               		.cfi_def_cfa_offset 5
 3750               		.cfi_offset 10, -4
 3751 156e BF92      		push r11
 3752               	.LCFI148:
 3753               		.cfi_def_cfa_offset 6
 3754               		.cfi_offset 11, -5
 3755 1570 CF92      		push r12
 3756               	.LCFI149:
 3757               		.cfi_def_cfa_offset 7
 3758               		.cfi_offset 12, -6
 3759 1572 DF92      		push r13
 3760               	.LCFI150:
 3761               		.cfi_def_cfa_offset 8
 3762               		.cfi_offset 13, -7
 3763 1574 EF92      		push r14
 3764               	.LCFI151:
 3765               		.cfi_def_cfa_offset 9
 3766               		.cfi_offset 14, -8
 3767 1576 FF92      		push r15
 3768               	.LCFI152:
 3769               		.cfi_def_cfa_offset 10
 3770               		.cfi_offset 15, -9
 3771 1578 0F93      		push r16
 3772               	.LCFI153:
 3773               		.cfi_def_cfa_offset 11
 3774               		.cfi_offset 16, -10
 3775 157a 1F93      		push r17
 3776               	.LCFI154:
 3777               		.cfi_def_cfa_offset 12
 3778               		.cfi_offset 17, -11
 3779 157c CF93      		push r28
 3780               	.LCFI155:
 3781               		.cfi_def_cfa_offset 13
 3782               		.cfi_offset 28, -12
 3783 157e DF93      		push r29
 3784               	.LCFI156:
 3785               		.cfi_def_cfa_offset 14
 3786               		.cfi_offset 29, -13
 3787 1580 CDB7      		in r28,__SP_L__
 3788 1582 DEB7      		in r29,__SP_H__
 3789               	.LCFI157:
 3790               		.cfi_def_cfa_register 28
 3791 1584 6697      		sbiw r28,22
 3792               	.LCFI158:
 3793               		.cfi_def_cfa_offset 36
 3794 1586 0FB6      		in __tmp_reg__,__SREG__
 3795 1588 F894      		cli
 3796 158a DEBF      		out __SP_H__,r29
 3797 158c 0FBE      		out __SREG__,__tmp_reg__
 3798 158e CDBF      		out __SP_L__,r28
 3799               	/* prologue: function */
 3800               	/* frame size = 22 */
 3801               	/* stack size = 34 */
 3802               	.L__stack_usage = 34
 3803 1590 9E83      		std Y+6,r25
 3804 1592 8D83      		std Y+5,r24
 3805 1594 7887      		std Y+8,r23
 3806 1596 6F83      		std Y+7,r22
 3807 1598 2987      		std Y+9,r18
 3808 159a 3A87      		std Y+10,r19
 3809 159c 4B87      		std Y+11,r20
 3810 159e 5C87      		std Y+12,r21
 3811 15a0 ED86      		std Y+13,r14
 3812 15a2 FE86      		std Y+14,r15
 3813 15a4 0F87      		std Y+15,r16
 3814 15a6 188B      		std Y+16,r17
 3815 15a8 A98A      		std Y+17,r10
 3816 15aa BA8A      		std Y+18,r11
 3817 15ac CB8A      		std Y+19,r12
 3818 15ae DC8A      		std Y+20,r13
 3819 15b0 9E8A      		std Y+22,r9
 3820 15b2 8D8A      		std Y+21,r8
 777:lp_solve_5.5/shared/myblas.c **** /* ------------------------------------------------------------------
 778:lp_solve_5.5/shared/myblas.c ****    random  generates a vector x[*] of random numbers
 779:lp_solve_5.5/shared/myblas.c ****    in the range (r1, r2) with (approximate) specified density.
 780:lp_solve_5.5/shared/myblas.c ****    seeds[*] must be initialized before the first call.
 781:lp_solve_5.5/shared/myblas.c ****    ------------------------------------------------------------------ */
 782:lp_solve_5.5/shared/myblas.c **** 
 783:lp_solve_5.5/shared/myblas.c ****   int   i;
 784:lp_solve_5.5/shared/myblas.c ****   REAL  *y;
 785:lp_solve_5.5/shared/myblas.c **** 
 786:lp_solve_5.5/shared/myblas.c ****   y = (REAL *) malloc(sizeof(*y) * (n+1));
 3821               		.loc 1 786 0
 3822 15b4 8D81      		ldd r24,Y+5
 3823 15b6 9E81      		ldd r25,Y+6
 3824 15b8 0196      		adiw r24,1
 3825 15ba 880F      		lsl r24
 3826 15bc 991F      		rol r25
 3827 15be 880F      		lsl r24
 3828 15c0 991F      		rol r25
 3829 15c2 0E94 0000 		call malloc
 3830 15c6 9C83      		std Y+4,r25
 3831 15c8 8B83      		std Y+3,r24
 787:lp_solve_5.5/shared/myblas.c ****   ddrand( n, x, 1, seeds );
 3832               		.loc 1 787 0
 3833 15ca 2D89      		ldd r18,Y+21
 3834 15cc 3E89      		ldd r19,Y+22
 3835 15ce 6F81      		ldd r22,Y+7
 3836 15d0 7885      		ldd r23,Y+8
 3837 15d2 8D81      		ldd r24,Y+5
 3838 15d4 9E81      		ldd r25,Y+6
 3839 15d6 41E0      		ldi r20,lo8(1)
 3840 15d8 50E0      		ldi r21,0
 3841 15da 0E94 0000 		call ddrand
 788:lp_solve_5.5/shared/myblas.c ****   ddrand( n, y, 1, seeds );
 3842               		.loc 1 788 0
 3843 15de 2D89      		ldd r18,Y+21
 3844 15e0 3E89      		ldd r19,Y+22
 3845 15e2 6B81      		ldd r22,Y+3
 3846 15e4 7C81      		ldd r23,Y+4
 3847 15e6 8D81      		ldd r24,Y+5
 3848 15e8 9E81      		ldd r25,Y+6
 3849 15ea 41E0      		ldi r20,lo8(1)
 3850 15ec 50E0      		ldi r21,0
 3851 15ee 0E94 0000 		call ddrand
 789:lp_solve_5.5/shared/myblas.c **** 
 790:lp_solve_5.5/shared/myblas.c ****   for (i = 1; i<=n; i++) {
 3852               		.loc 1 790 0
 3853 15f2 81E0      		ldi r24,lo8(1)
 3854 15f4 90E0      		ldi r25,0
 3855 15f6 9A83      		std Y+2,r25
 3856 15f8 8983      		std Y+1,r24
 3857 15fa 00C0      		rjmp .L119
 3858               	.L123:
 791:lp_solve_5.5/shared/myblas.c ****      if (y[i] < densty)
 3859               		.loc 1 791 0
 3860 15fc 8981      		ldd r24,Y+1
 3861 15fe 9A81      		ldd r25,Y+2
 3862 1600 880F      		lsl r24
 3863 1602 991F      		rol r25
 3864 1604 880F      		lsl r24
 3865 1606 991F      		rol r25
 3866 1608 2B81      		ldd r18,Y+3
 3867 160a 3C81      		ldd r19,Y+4
 3868 160c 820F      		add r24,r18
 3869 160e 931F      		adc r25,r19
 3870 1610 FC01      		movw r30,r24
 3871 1612 8081      		ld r24,Z
 3872 1614 9181      		ldd r25,Z+1
 3873 1616 A281      		ldd r26,Z+2
 3874 1618 B381      		ldd r27,Z+3
 3875 161a 2989      		ldd r18,Y+17
 3876 161c 3A89      		ldd r19,Y+18
 3877 161e 4B89      		ldd r20,Y+19
 3878 1620 5C89      		ldd r21,Y+20
 3879 1622 BC01      		movw r22,r24
 3880 1624 CD01      		movw r24,r26
 3881 1626 0E94 0000 		call __ltsf2
 3882 162a 8823      		tst r24
 3883 162c 04F0      		brlt .+2
 3884 162e 00C0      		rjmp .L125
 792:lp_solve_5.5/shared/myblas.c ****         x[i] = r1  +  (r2 - r1) * x[i];
 3885               		.loc 1 792 0
 3886 1630 8981      		ldd r24,Y+1
 3887 1632 9A81      		ldd r25,Y+2
 3888 1634 880F      		lsl r24
 3889 1636 991F      		rol r25
 3890 1638 880F      		lsl r24
 3891 163a 991F      		rol r25
 3892 163c 2F81      		ldd r18,Y+7
 3893 163e 3885      		ldd r19,Y+8
 3894 1640 8901      		movw r16,r18
 3895 1642 080F      		add r16,r24
 3896 1644 191F      		adc r17,r25
 3897 1646 2985      		ldd r18,Y+9
 3898 1648 3A85      		ldd r19,Y+10
 3899 164a 4B85      		ldd r20,Y+11
 3900 164c 5C85      		ldd r21,Y+12
 3901 164e 6D85      		ldd r22,Y+13
 3902 1650 7E85      		ldd r23,Y+14
 3903 1652 8F85      		ldd r24,Y+15
 3904 1654 9889      		ldd r25,Y+16
 3905 1656 0E94 0000 		call __subsf3
 3906 165a DC01      		movw r26,r24
 3907 165c CB01      		movw r24,r22
 3908 165e 6C01      		movw r12,r24
 3909 1660 7D01      		movw r14,r26
 3910 1662 8981      		ldd r24,Y+1
 3911 1664 9A81      		ldd r25,Y+2
 3912 1666 880F      		lsl r24
 3913 1668 991F      		rol r25
 3914 166a 880F      		lsl r24
 3915 166c 991F      		rol r25
 3916 166e 2F81      		ldd r18,Y+7
 3917 1670 3885      		ldd r19,Y+8
 3918 1672 820F      		add r24,r18
 3919 1674 931F      		adc r25,r19
 3920 1676 FC01      		movw r30,r24
 3921 1678 8081      		ld r24,Z
 3922 167a 9181      		ldd r25,Z+1
 3923 167c A281      		ldd r26,Z+2
 3924 167e B381      		ldd r27,Z+3
 3925 1680 9C01      		movw r18,r24
 3926 1682 AD01      		movw r20,r26
 3927 1684 C701      		movw r24,r14
 3928 1686 B601      		movw r22,r12
 3929 1688 0E94 0000 		call __mulsf3
 3930 168c DC01      		movw r26,r24
 3931 168e CB01      		movw r24,r22
 3932 1690 2985      		ldd r18,Y+9
 3933 1692 3A85      		ldd r19,Y+10
 3934 1694 4B85      		ldd r20,Y+11
 3935 1696 5C85      		ldd r21,Y+12
 3936 1698 BC01      		movw r22,r24
 3937 169a CD01      		movw r24,r26
 3938 169c 0E94 0000 		call __addsf3
 3939 16a0 DC01      		movw r26,r24
 3940 16a2 CB01      		movw r24,r22
 3941 16a4 F801      		movw r30,r16
 3942 16a6 8083      		st Z,r24
 3943 16a8 9183      		std Z+1,r25
 3944 16aa A283      		std Z+2,r26
 3945 16ac B383      		std Z+3,r27
 3946 16ae 00C0      		rjmp .L122
 3947               	.L125:
 793:lp_solve_5.5/shared/myblas.c ****      else
 794:lp_solve_5.5/shared/myblas.c ****         x[i] = 0.0;
 3948               		.loc 1 794 0
 3949 16b0 8981      		ldd r24,Y+1
 3950 16b2 9A81      		ldd r25,Y+2
 3951 16b4 880F      		lsl r24
 3952 16b6 991F      		rol r25
 3953 16b8 880F      		lsl r24
 3954 16ba 991F      		rol r25
 3955 16bc 2F81      		ldd r18,Y+7
 3956 16be 3885      		ldd r19,Y+8
 3957 16c0 820F      		add r24,r18
 3958 16c2 931F      		adc r25,r19
 3959 16c4 FC01      		movw r30,r24
 3960 16c6 1082      		st Z,__zero_reg__
 3961 16c8 1182      		std Z+1,__zero_reg__
 3962 16ca 1282      		std Z+2,__zero_reg__
 3963 16cc 1382      		std Z+3,__zero_reg__
 3964               	.L122:
 790:lp_solve_5.5/shared/myblas.c ****      if (y[i] < densty)
 3965               		.loc 1 790 0 discriminator 2
 3966 16ce 8981      		ldd r24,Y+1
 3967 16d0 9A81      		ldd r25,Y+2
 3968 16d2 0196      		adiw r24,1
 3969 16d4 9A83      		std Y+2,r25
 3970 16d6 8983      		std Y+1,r24
 3971               	.L119:
 790:lp_solve_5.5/shared/myblas.c ****      if (y[i] < densty)
 3972               		.loc 1 790 0 is_stmt 0 discriminator 1
 3973 16d8 2981      		ldd r18,Y+1
 3974 16da 3A81      		ldd r19,Y+2
 3975 16dc 8D81      		ldd r24,Y+5
 3976 16de 9E81      		ldd r25,Y+6
 3977 16e0 8217      		cp r24,r18
 3978 16e2 9307      		cpc r25,r19
 3979 16e4 04F0      		brlt .+2
 3980 16e6 00C0      		rjmp .L123
 795:lp_solve_5.5/shared/myblas.c ****   }
 796:lp_solve_5.5/shared/myblas.c ****   free(y);
 3981               		.loc 1 796 0 is_stmt 1
 3982 16e8 8B81      		ldd r24,Y+3
 3983 16ea 9C81      		ldd r25,Y+4
 3984 16ec 0E94 0000 		call free
 797:lp_solve_5.5/shared/myblas.c **** }
 3985               		.loc 1 797 0
 3986 16f0 0000      		nop
 3987               	/* epilogue start */
 3988 16f2 6696      		adiw r28,22
 3989 16f4 0FB6      		in __tmp_reg__,__SREG__
 3990 16f6 F894      		cli
 3991 16f8 DEBF      		out __SP_H__,r29
 3992 16fa 0FBE      		out __SREG__,__tmp_reg__
 3993 16fc CDBF      		out __SP_L__,r28
 3994 16fe DF91      		pop r29
 3995 1700 CF91      		pop r28
 3996 1702 1F91      		pop r17
 3997 1704 0F91      		pop r16
 3998 1706 FF90      		pop r15
 3999 1708 EF90      		pop r14
 4000 170a DF90      		pop r13
 4001 170c CF90      		pop r12
 4002 170e BF90      		pop r11
 4003 1710 AF90      		pop r10
 4004 1712 9F90      		pop r9
 4005 1714 8F90      		pop r8
 4006 1716 0895      		ret
 4007               		.cfi_endproc
 4008               	.LFE30:
 4010               	.global	__floatsisf
 4011               	.global	__divsf3
 4012               	.global	__fixsfsi
 4013               	.global	ddrand
 4015               	ddrand:
 4016               	.LFB31:
 798:lp_solve_5.5/shared/myblas.c **** 
 799:lp_solve_5.5/shared/myblas.c **** 
 800:lp_solve_5.5/shared/myblas.c **** /* ++++++++++++++++++++++++++++++++++++++++++++++++++++++++++++++++++ */
 801:lp_solve_5.5/shared/myblas.c **** 
 802:lp_solve_5.5/shared/myblas.c **** void ddrand( int n, REAL *x, int incx, int *seeds )
 803:lp_solve_5.5/shared/myblas.c **** {
 4017               		.loc 1 803 0
 4018               		.cfi_startproc
 4019 1718 CF92      		push r12
 4020               	.LCFI159:
 4021               		.cfi_def_cfa_offset 3
 4022               		.cfi_offset 12, -2
 4023 171a DF92      		push r13
 4024               	.LCFI160:
 4025               		.cfi_def_cfa_offset 4
 4026               		.cfi_offset 13, -3
 4027 171c EF92      		push r14
 4028               	.LCFI161:
 4029               		.cfi_def_cfa_offset 5
 4030               		.cfi_offset 14, -4
 4031 171e FF92      		push r15
 4032               	.LCFI162:
 4033               		.cfi_def_cfa_offset 6
 4034               		.cfi_offset 15, -5
 4035 1720 0F93      		push r16
 4036               	.LCFI163:
 4037               		.cfi_def_cfa_offset 7
 4038               		.cfi_offset 16, -6
 4039 1722 1F93      		push r17
 4040               	.LCFI164:
 4041               		.cfi_def_cfa_offset 8
 4042               		.cfi_offset 17, -7
 4043 1724 CF93      		push r28
 4044               	.LCFI165:
 4045               		.cfi_def_cfa_offset 9
 4046               		.cfi_offset 28, -8
 4047 1726 DF93      		push r29
 4048               	.LCFI166:
 4049               		.cfi_def_cfa_offset 10
 4050               		.cfi_offset 29, -9
 4051 1728 CDB7      		in r28,__SP_L__
 4052 172a DEB7      		in r29,__SP_H__
 4053               	.LCFI167:
 4054               		.cfi_def_cfa_register 28
 4055 172c 2C97      		sbiw r28,12
 4056               	.LCFI168:
 4057               		.cfi_def_cfa_offset 22
 4058 172e 0FB6      		in __tmp_reg__,__SREG__
 4059 1730 F894      		cli
 4060 1732 DEBF      		out __SP_H__,r29
 4061 1734 0FBE      		out __SREG__,__tmp_reg__
 4062 1736 CDBF      		out __SP_L__,r28
 4063               	/* prologue: function */
 4064               	/* frame size = 12 */
 4065               	/* stack size = 20 */
 4066               	.L__stack_usage = 20
 4067 1738 9E83      		std Y+6,r25
 4068 173a 8D83      		std Y+5,r24
 4069 173c 7887      		std Y+8,r23
 4070 173e 6F83      		std Y+7,r22
 4071 1740 5A87      		std Y+10,r21
 4072 1742 4987      		std Y+9,r20
 4073 1744 3C87      		std Y+12,r19
 4074 1746 2B87      		std Y+11,r18
 804:lp_solve_5.5/shared/myblas.c **** 
 805:lp_solve_5.5/shared/myblas.c **** /* ------------------------------------------------------------------
 806:lp_solve_5.5/shared/myblas.c ****    ddrand fills a vector x with uniformly distributed random numbers
 807:lp_solve_5.5/shared/myblas.c ****    in the interval (0, 1) using a method due to  Wichman and Hill.
 808:lp_solve_5.5/shared/myblas.c **** 
 809:lp_solve_5.5/shared/myblas.c ****    seeds[1..3] should be set to integer values
 810:lp_solve_5.5/shared/myblas.c ****    between 1 and 30000 before the first entry.
 811:lp_solve_5.5/shared/myblas.c **** 
 812:lp_solve_5.5/shared/myblas.c ****    Integer arithmetic up to 30323 is required.
 813:lp_solve_5.5/shared/myblas.c **** 
 814:lp_solve_5.5/shared/myblas.c ****    Blatantly copied from Wichman and Hill 19-January-1987.
 815:lp_solve_5.5/shared/myblas.c ****    14-Feb-94. Original version.
 816:lp_solve_5.5/shared/myblas.c ****    30 Jun 1999. seeds stored in an array.
 817:lp_solve_5.5/shared/myblas.c ****    30 Jun 1999. This version of ddrand.
 818:lp_solve_5.5/shared/myblas.c ****    ------------------------------------------------------------------ */
 819:lp_solve_5.5/shared/myblas.c **** 
 820:lp_solve_5.5/shared/myblas.c ****   int    ix, xix;
 821:lp_solve_5.5/shared/myblas.c **** 
 822:lp_solve_5.5/shared/myblas.c ****   if (n < 1) return;
 4075               		.loc 1 822 0
 4076 1748 8D81      		ldd r24,Y+5
 4077 174a 9E81      		ldd r25,Y+6
 4078 174c 1816      		cp __zero_reg__,r24
 4079 174e 1906      		cpc __zero_reg__,r25
 4080 1750 04F0      		brlt .+2
 4081 1752 00C0      		rjmp .L134
 823:lp_solve_5.5/shared/myblas.c **** 
 824:lp_solve_5.5/shared/myblas.c ****   for (ix = 1; ix<=1+(n-1)*incx; ix=ix+incx) {
 4082               		.loc 1 824 0
 4083 1754 81E0      		ldi r24,lo8(1)
 4084 1756 90E0      		ldi r25,0
 4085 1758 9A83      		std Y+2,r25
 4086 175a 8983      		std Y+1,r24
 4087 175c 00C0      		rjmp .L129
 4088               	.L133:
 825:lp_solve_5.5/shared/myblas.c ****      seeds[1]     = 171*(seeds[1] % 177) -  2*(seeds[1]/177);
 4089               		.loc 1 825 0
 4090 175e 8B85      		ldd r24,Y+11
 4091 1760 9C85      		ldd r25,Y+12
 4092 1762 9C01      		movw r18,r24
 4093 1764 2E5F      		subi r18,-2
 4094 1766 3F4F      		sbci r19,-1
 4095 1768 8B85      		ldd r24,Y+11
 4096 176a 9C85      		ldd r25,Y+12
 4097 176c 0296      		adiw r24,2
 4098 176e DC01      		movw r26,r24
 4099 1770 8D91      		ld r24,X+
 4100 1772 9C91      		ld r25,X
 4101 1774 41EB      		ldi r20,lo8(-79)
 4102 1776 50E0      		ldi r21,0
 4103 1778 BA01      		movw r22,r20
 4104 177a 0E94 0000 		call __divmodhi4
 4105 177e 4BEA      		ldi r20,lo8(-85)
 4106 1780 489F      		mul r20,r24
 4107 1782 F001      		movw r30,r0
 4108 1784 499F      		mul r20,r25
 4109 1786 F00D      		add r31,r0
 4110 1788 1124      		clr __zero_reg__
 4111 178a 8B85      		ldd r24,Y+11
 4112 178c 9C85      		ldd r25,Y+12
 4113 178e 0296      		adiw r24,2
 4114 1790 DC01      		movw r26,r24
 4115 1792 8D91      		ld r24,X+
 4116 1794 9C91      		ld r25,X
 4117 1796 41EB      		ldi r20,lo8(-79)
 4118 1798 50E0      		ldi r21,0
 4119 179a BA01      		movw r22,r20
 4120 179c 0E94 0000 		call __divmodhi4
 4121 17a0 CB01      		movw r24,r22
 4122 17a2 880F      		lsl r24
 4123 17a4 991F      		rol r25
 4124 17a6 AF01      		movw r20,r30
 4125 17a8 481B      		sub r20,r24
 4126 17aa 590B      		sbc r21,r25
 4127 17ac CA01      		movw r24,r20
 4128 17ae D901      		movw r26,r18
 4129 17b0 8D93      		st X+,r24
 4130 17b2 9C93      		st X,r25
 826:lp_solve_5.5/shared/myblas.c ****      seeds[2]     = 172*(seeds[2] % 176) - 35*(seeds[2]/176);
 4131               		.loc 1 826 0
 4132 17b4 8B85      		ldd r24,Y+11
 4133 17b6 9C85      		ldd r25,Y+12
 4134 17b8 9C01      		movw r18,r24
 4135 17ba 2C5F      		subi r18,-4
 4136 17bc 3F4F      		sbci r19,-1
 4137 17be 8B85      		ldd r24,Y+11
 4138 17c0 9C85      		ldd r25,Y+12
 4139 17c2 0496      		adiw r24,4
 4140 17c4 FC01      		movw r30,r24
 4141 17c6 8081      		ld r24,Z
 4142 17c8 9181      		ldd r25,Z+1
 4143 17ca 40EB      		ldi r20,lo8(-80)
 4144 17cc 50E0      		ldi r21,0
 4145 17ce BA01      		movw r22,r20
 4146 17d0 0E94 0000 		call __divmodhi4
 4147 17d4 4CEA      		ldi r20,lo8(-84)
 4148 17d6 489F      		mul r20,r24
 4149 17d8 F001      		movw r30,r0
 4150 17da 499F      		mul r20,r25
 4151 17dc F00D      		add r31,r0
 4152 17de 1124      		clr __zero_reg__
 4153 17e0 8B85      		ldd r24,Y+11
 4154 17e2 9C85      		ldd r25,Y+12
 4155 17e4 0496      		adiw r24,4
 4156 17e6 DC01      		movw r26,r24
 4157 17e8 8D91      		ld r24,X+
 4158 17ea 9C91      		ld r25,X
 4159 17ec 40EB      		ldi r20,lo8(-80)
 4160 17ee 50E0      		ldi r21,0
 4161 17f0 BA01      		movw r22,r20
 4162 17f2 0E94 0000 		call __divmodhi4
 4163 17f6 CB01      		movw r24,r22
 4164 17f8 AC01      		movw r20,r24
 4165 17fa 6DED      		ldi r22,lo8(-35)
 4166 17fc 6403      		mulsu r22,r20
 4167 17fe C001      		movw r24,r0
 4168 1800 659F      		mul r22,r21
 4169 1802 900D      		add r25,r0
 4170 1804 1124      		clr __zero_reg__
 4171 1806 8E0F      		add r24,r30
 4172 1808 9F1F      		adc r25,r31
 4173 180a F901      		movw r30,r18
 4174 180c 9183      		std Z+1,r25
 4175 180e 8083      		st Z,r24
 827:lp_solve_5.5/shared/myblas.c ****      seeds[3]     = 170*(seeds[3] % 178) - 63*(seeds[3]/178);
 4176               		.loc 1 827 0
 4177 1810 8B85      		ldd r24,Y+11
 4178 1812 9C85      		ldd r25,Y+12
 4179 1814 9C01      		movw r18,r24
 4180 1816 2A5F      		subi r18,-6
 4181 1818 3F4F      		sbci r19,-1
 4182 181a 8B85      		ldd r24,Y+11
 4183 181c 9C85      		ldd r25,Y+12
 4184 181e 0696      		adiw r24,6
 4185 1820 DC01      		movw r26,r24
 4186 1822 8D91      		ld r24,X+
 4187 1824 9C91      		ld r25,X
 4188 1826 42EB      		ldi r20,lo8(-78)
 4189 1828 50E0      		ldi r21,0
 4190 182a BA01      		movw r22,r20
 4191 182c 0E94 0000 		call __divmodhi4
 4192 1830 4AEA      		ldi r20,lo8(-86)
 4193 1832 489F      		mul r20,r24
 4194 1834 F001      		movw r30,r0
 4195 1836 499F      		mul r20,r25
 4196 1838 F00D      		add r31,r0
 4197 183a 1124      		clr __zero_reg__
 4198 183c 8B85      		ldd r24,Y+11
 4199 183e 9C85      		ldd r25,Y+12
 4200 1840 0696      		adiw r24,6
 4201 1842 DC01      		movw r26,r24
 4202 1844 8D91      		ld r24,X+
 4203 1846 9C91      		ld r25,X
 4204 1848 42EB      		ldi r20,lo8(-78)
 4205 184a 50E0      		ldi r21,0
 4206 184c BA01      		movw r22,r20
 4207 184e 0E94 0000 		call __divmodhi4
 4208 1852 CB01      		movw r24,r22
 4209 1854 AC01      		movw r20,r24
 4210 1856 61EC      		ldi r22,lo8(-63)
 4211 1858 6403      		mulsu r22,r20
 4212 185a C001      		movw r24,r0
 4213 185c 659F      		mul r22,r21
 4214 185e 900D      		add r25,r0
 4215 1860 1124      		clr __zero_reg__
 4216 1862 8E0F      		add r24,r30
 4217 1864 9F1F      		adc r25,r31
 4218 1866 F901      		movw r30,r18
 4219 1868 9183      		std Z+1,r25
 4220 186a 8083      		st Z,r24
 828:lp_solve_5.5/shared/myblas.c **** 
 829:lp_solve_5.5/shared/myblas.c ****      if (seeds[1] < 0) seeds[1] = seeds[1] + 30269;
 4221               		.loc 1 829 0
 4222 186c 8B85      		ldd r24,Y+11
 4223 186e 9C85      		ldd r25,Y+12
 4224 1870 0296      		adiw r24,2
 4225 1872 DC01      		movw r26,r24
 4226 1874 8D91      		ld r24,X+
 4227 1876 9C91      		ld r25,X
 4228 1878 9923      		tst r25
 4229 187a 04F4      		brge .L130
 4230               		.loc 1 829 0 is_stmt 0 discriminator 1
 4231 187c 8B85      		ldd r24,Y+11
 4232 187e 9C85      		ldd r25,Y+12
 4233 1880 0296      		adiw r24,2
 4234 1882 2B85      		ldd r18,Y+11
 4235 1884 3C85      		ldd r19,Y+12
 4236 1886 2E5F      		subi r18,-2
 4237 1888 3F4F      		sbci r19,-1
 4238 188a F901      		movw r30,r18
 4239 188c 2081      		ld r18,Z
 4240 188e 3181      		ldd r19,Z+1
 4241 1890 235C      		subi r18,-61
 4242 1892 3948      		sbci r19,-119
 4243 1894 DC01      		movw r26,r24
 4244 1896 2D93      		st X+,r18
 4245 1898 3C93      		st X,r19
 4246               	.L130:
 830:lp_solve_5.5/shared/myblas.c ****      if (seeds[2] < 0) seeds[2] = seeds[2] + 30307;
 4247               		.loc 1 830 0 is_stmt 1
 4248 189a 8B85      		ldd r24,Y+11
 4249 189c 9C85      		ldd r25,Y+12
 4250 189e 0496      		adiw r24,4
 4251 18a0 FC01      		movw r30,r24
 4252 18a2 8081      		ld r24,Z
 4253 18a4 9181      		ldd r25,Z+1
 4254 18a6 9923      		tst r25
 4255 18a8 04F4      		brge .L131
 4256               		.loc 1 830 0 is_stmt 0 discriminator 1
 4257 18aa 8B85      		ldd r24,Y+11
 4258 18ac 9C85      		ldd r25,Y+12
 4259 18ae 0496      		adiw r24,4
 4260 18b0 2B85      		ldd r18,Y+11
 4261 18b2 3C85      		ldd r19,Y+12
 4262 18b4 2C5F      		subi r18,-4
 4263 18b6 3F4F      		sbci r19,-1
 4264 18b8 D901      		movw r26,r18
 4265 18ba 2D91      		ld r18,X+
 4266 18bc 3C91      		ld r19,X
 4267 18be 2D59      		subi r18,-99
 4268 18c0 3948      		sbci r19,-119
 4269 18c2 FC01      		movw r30,r24
 4270 18c4 3183      		std Z+1,r19
 4271 18c6 2083      		st Z,r18
 4272               	.L131:
 831:lp_solve_5.5/shared/myblas.c ****      if (seeds[3] < 0) seeds[3] = seeds[3] + 30323;
 4273               		.loc 1 831 0 is_stmt 1
 4274 18c8 8B85      		ldd r24,Y+11
 4275 18ca 9C85      		ldd r25,Y+12
 4276 18cc 0696      		adiw r24,6
 4277 18ce DC01      		movw r26,r24
 4278 18d0 8D91      		ld r24,X+
 4279 18d2 9C91      		ld r25,X
 4280 18d4 9923      		tst r25
 4281 18d6 04F4      		brge .L132
 4282               		.loc 1 831 0 is_stmt 0 discriminator 1
 4283 18d8 8B85      		ldd r24,Y+11
 4284 18da 9C85      		ldd r25,Y+12
 4285 18dc 0696      		adiw r24,6
 4286 18de 2B85      		ldd r18,Y+11
 4287 18e0 3C85      		ldd r19,Y+12
 4288 18e2 2A5F      		subi r18,-6
 4289 18e4 3F4F      		sbci r19,-1
 4290 18e6 F901      		movw r30,r18
 4291 18e8 2081      		ld r18,Z
 4292 18ea 3181      		ldd r19,Z+1
 4293 18ec 2D58      		subi r18,-115
 4294 18ee 3948      		sbci r19,-119
 4295 18f0 DC01      		movw r26,r24
 4296 18f2 2D93      		st X+,r18
 4297 18f4 3C93      		st X,r19
 4298               	.L132:
 832:lp_solve_5.5/shared/myblas.c **** 
 833:lp_solve_5.5/shared/myblas.c **** 	 x[ix]  = ((REAL) seeds[1])/30269.0 +
 4299               		.loc 1 833 0 is_stmt 1 discriminator 2
 4300 18f6 8981      		ldd r24,Y+1
 4301 18f8 9A81      		ldd r25,Y+2
 4302 18fa 880F      		lsl r24
 4303 18fc 991F      		rol r25
 4304 18fe 880F      		lsl r24
 4305 1900 991F      		rol r25
 4306 1902 2F81      		ldd r18,Y+7
 4307 1904 3885      		ldd r19,Y+8
 4308 1906 8901      		movw r16,r18
 4309 1908 080F      		add r16,r24
 4310 190a 191F      		adc r17,r25
 4311 190c 8B85      		ldd r24,Y+11
 4312 190e 9C85      		ldd r25,Y+12
 4313 1910 0296      		adiw r24,2
 4314 1912 FC01      		movw r30,r24
 4315 1914 8081      		ld r24,Z
 4316 1916 9181      		ldd r25,Z+1
 4317 1918 092E      		mov __tmp_reg__,r25
 4318 191a 000C      		lsl r0
 4319 191c AA0B      		sbc r26,r26
 4320 191e BB0B      		sbc r27,r27
 4321 1920 BC01      		movw r22,r24
 4322 1922 CD01      		movw r24,r26
 4323 1924 0E94 0000 		call __floatsisf
 4324 1928 DC01      		movw r26,r24
 4325 192a CB01      		movw r24,r22
 4326 192c 20E0      		ldi r18,0
 4327 192e 3AE7      		ldi r19,lo8(122)
 4328 1930 4CEE      		ldi r20,lo8(-20)
 4329 1932 56E4      		ldi r21,lo8(70)
 4330 1934 BC01      		movw r22,r24
 4331 1936 CD01      		movw r24,r26
 4332 1938 0E94 0000 		call __divsf3
 4333 193c DC01      		movw r26,r24
 4334 193e CB01      		movw r24,r22
 4335 1940 6C01      		movw r12,r24
 4336 1942 7D01      		movw r14,r26
 834:lp_solve_5.5/shared/myblas.c ****              ((REAL) seeds[2])/30307.0 +
 4337               		.loc 1 834 0 discriminator 2
 4338 1944 8B85      		ldd r24,Y+11
 4339 1946 9C85      		ldd r25,Y+12
 4340 1948 0496      		adiw r24,4
 4341 194a DC01      		movw r26,r24
 4342 194c 8D91      		ld r24,X+
 4343 194e 9C91      		ld r25,X
 4344 1950 092E      		mov __tmp_reg__,r25
 4345 1952 000C      		lsl r0
 4346 1954 AA0B      		sbc r26,r26
 4347 1956 BB0B      		sbc r27,r27
 4348 1958 BC01      		movw r22,r24
 4349 195a CD01      		movw r24,r26
 4350 195c 0E94 0000 		call __floatsisf
 4351 1960 DC01      		movw r26,r24
 4352 1962 CB01      		movw r24,r22
 4353 1964 20E0      		ldi r18,0
 4354 1966 36EC      		ldi r19,lo8(-58)
 4355 1968 4CEE      		ldi r20,lo8(-20)
 4356 196a 56E4      		ldi r21,lo8(70)
 4357 196c BC01      		movw r22,r24
 4358 196e CD01      		movw r24,r26
 4359 1970 0E94 0000 		call __divsf3
 4360 1974 DC01      		movw r26,r24
 4361 1976 CB01      		movw r24,r22
 833:lp_solve_5.5/shared/myblas.c ****              ((REAL) seeds[2])/30307.0 +
 4362               		.loc 1 833 0 discriminator 2
 4363 1978 9C01      		movw r18,r24
 4364 197a AD01      		movw r20,r26
 4365 197c C701      		movw r24,r14
 4366 197e B601      		movw r22,r12
 4367 1980 0E94 0000 		call __addsf3
 4368 1984 DC01      		movw r26,r24
 4369 1986 CB01      		movw r24,r22
 4370 1988 6C01      		movw r12,r24
 4371 198a 7D01      		movw r14,r26
 835:lp_solve_5.5/shared/myblas.c ****              ((REAL) seeds[3])/30323.0;
 4372               		.loc 1 835 0 discriminator 2
 4373 198c 8B85      		ldd r24,Y+11
 4374 198e 9C85      		ldd r25,Y+12
 4375 1990 0696      		adiw r24,6
 4376 1992 FC01      		movw r30,r24
 4377 1994 8081      		ld r24,Z
 4378 1996 9181      		ldd r25,Z+1
 4379 1998 092E      		mov __tmp_reg__,r25
 4380 199a 000C      		lsl r0
 4381 199c AA0B      		sbc r26,r26
 4382 199e BB0B      		sbc r27,r27
 4383 19a0 BC01      		movw r22,r24
 4384 19a2 CD01      		movw r24,r26
 4385 19a4 0E94 0000 		call __floatsisf
 4386 19a8 DC01      		movw r26,r24
 4387 19aa CB01      		movw r24,r22
 4388 19ac 20E0      		ldi r18,0
 4389 19ae 36EE      		ldi r19,lo8(-26)
 4390 19b0 4CEE      		ldi r20,lo8(-20)
 4391 19b2 56E4      		ldi r21,lo8(70)
 4392 19b4 BC01      		movw r22,r24
 4393 19b6 CD01      		movw r24,r26
 4394 19b8 0E94 0000 		call __divsf3
 4395 19bc DC01      		movw r26,r24
 4396 19be CB01      		movw r24,r22
 834:lp_solve_5.5/shared/myblas.c ****              ((REAL) seeds[2])/30307.0 +
 4397               		.loc 1 834 0 discriminator 2
 4398 19c0 9C01      		movw r18,r24
 4399 19c2 AD01      		movw r20,r26
 4400 19c4 C701      		movw r24,r14
 4401 19c6 B601      		movw r22,r12
 4402 19c8 0E94 0000 		call __addsf3
 4403 19cc DC01      		movw r26,r24
 4404 19ce CB01      		movw r24,r22
 833:lp_solve_5.5/shared/myblas.c ****              ((REAL) seeds[2])/30307.0 +
 4405               		.loc 1 833 0 discriminator 2
 4406 19d0 F801      		movw r30,r16
 4407 19d2 8083      		st Z,r24
 4408 19d4 9183      		std Z+1,r25
 4409 19d6 A283      		std Z+2,r26
 4410 19d8 B383      		std Z+3,r27
 836:lp_solve_5.5/shared/myblas.c ****      xix    = (int) x[ix];
 4411               		.loc 1 836 0 discriminator 2
 4412 19da 8981      		ldd r24,Y+1
 4413 19dc 9A81      		ldd r25,Y+2
 4414 19de 880F      		lsl r24
 4415 19e0 991F      		rol r25
 4416 19e2 880F      		lsl r24
 4417 19e4 991F      		rol r25
 4418 19e6 2F81      		ldd r18,Y+7
 4419 19e8 3885      		ldd r19,Y+8
 4420 19ea 820F      		add r24,r18
 4421 19ec 931F      		adc r25,r19
 4422 19ee FC01      		movw r30,r24
 4423 19f0 8081      		ld r24,Z
 4424 19f2 9181      		ldd r25,Z+1
 4425 19f4 A281      		ldd r26,Z+2
 4426 19f6 B381      		ldd r27,Z+3
 4427 19f8 BC01      		movw r22,r24
 4428 19fa CD01      		movw r24,r26
 4429 19fc 0E94 0000 		call __fixsfsi
 4430 1a00 DC01      		movw r26,r24
 4431 1a02 CB01      		movw r24,r22
 4432 1a04 9C83      		std Y+4,r25
 4433 1a06 8B83      		std Y+3,r24
 837:lp_solve_5.5/shared/myblas.c **** 	 x[ix]  = fabs(x[ix] - xix);
 4434               		.loc 1 837 0 discriminator 2
 4435 1a08 8981      		ldd r24,Y+1
 4436 1a0a 9A81      		ldd r25,Y+2
 4437 1a0c 880F      		lsl r24
 4438 1a0e 991F      		rol r25
 4439 1a10 880F      		lsl r24
 4440 1a12 991F      		rol r25
 4441 1a14 2F81      		ldd r18,Y+7
 4442 1a16 3885      		ldd r19,Y+8
 4443 1a18 8901      		movw r16,r18
 4444 1a1a 080F      		add r16,r24
 4445 1a1c 191F      		adc r17,r25
 4446 1a1e 8981      		ldd r24,Y+1
 4447 1a20 9A81      		ldd r25,Y+2
 4448 1a22 880F      		lsl r24
 4449 1a24 991F      		rol r25
 4450 1a26 880F      		lsl r24
 4451 1a28 991F      		rol r25
 4452 1a2a 2F81      		ldd r18,Y+7
 4453 1a2c 3885      		ldd r19,Y+8
 4454 1a2e 820F      		add r24,r18
 4455 1a30 931F      		adc r25,r19
 4456 1a32 DC01      		movw r26,r24
 4457 1a34 CD90      		ld r12,X+
 4458 1a36 DD90      		ld r13,X+
 4459 1a38 ED90      		ld r14,X+
 4460 1a3a FC90      		ld r15,X
 4461 1a3c 8B81      		ldd r24,Y+3
 4462 1a3e 9C81      		ldd r25,Y+4
 4463 1a40 092E      		mov __tmp_reg__,r25
 4464 1a42 000C      		lsl r0
 4465 1a44 AA0B      		sbc r26,r26
 4466 1a46 BB0B      		sbc r27,r27
 4467 1a48 BC01      		movw r22,r24
 4468 1a4a CD01      		movw r24,r26
 4469 1a4c 0E94 0000 		call __floatsisf
 4470 1a50 DC01      		movw r26,r24
 4471 1a52 CB01      		movw r24,r22
 4472 1a54 9C01      		movw r18,r24
 4473 1a56 AD01      		movw r20,r26
 4474 1a58 C701      		movw r24,r14
 4475 1a5a B601      		movw r22,r12
 4476 1a5c 0E94 0000 		call __subsf3
 4477 1a60 DC01      		movw r26,r24
 4478 1a62 CB01      		movw r24,r22
 4479 1a64 BF77      		andi r27,0x7f
 4480 1a66 F801      		movw r30,r16
 4481 1a68 8083      		st Z,r24
 4482 1a6a 9183      		std Z+1,r25
 4483 1a6c A283      		std Z+2,r26
 4484 1a6e B383      		std Z+3,r27
 824:lp_solve_5.5/shared/myblas.c ****      seeds[1]     = 171*(seeds[1] % 177) -  2*(seeds[1]/177);
 4485               		.loc 1 824 0 discriminator 2
 4486 1a70 2981      		ldd r18,Y+1
 4487 1a72 3A81      		ldd r19,Y+2
 4488 1a74 8985      		ldd r24,Y+9
 4489 1a76 9A85      		ldd r25,Y+10
 4490 1a78 820F      		add r24,r18
 4491 1a7a 931F      		adc r25,r19
 4492 1a7c 9A83      		std Y+2,r25
 4493 1a7e 8983      		std Y+1,r24
 4494               	.L129:
 824:lp_solve_5.5/shared/myblas.c ****      seeds[1]     = 171*(seeds[1] % 177) -  2*(seeds[1]/177);
 4495               		.loc 1 824 0 is_stmt 0 discriminator 1
 4496 1a80 8D81      		ldd r24,Y+5
 4497 1a82 9E81      		ldd r25,Y+6
 4498 1a84 AC01      		movw r20,r24
 4499 1a86 4150      		subi r20,1
 4500 1a88 5109      		sbc r21,__zero_reg__
 4501 1a8a 2985      		ldd r18,Y+9
 4502 1a8c 3A85      		ldd r19,Y+10
 4503 1a8e 429F      		mul r20,r18
 4504 1a90 C001      		movw r24,r0
 4505 1a92 439F      		mul r20,r19
 4506 1a94 900D      		add r25,r0
 4507 1a96 529F      		mul r21,r18
 4508 1a98 900D      		add r25,r0
 4509 1a9a 1124      		clr r1
 4510 1a9c 9C01      		movw r18,r24
 4511 1a9e 2F5F      		subi r18,-1
 4512 1aa0 3F4F      		sbci r19,-1
 4513 1aa2 8981      		ldd r24,Y+1
 4514 1aa4 9A81      		ldd r25,Y+2
 4515 1aa6 2817      		cp r18,r24
 4516 1aa8 3907      		cpc r19,r25
 4517 1aaa 04F0      		brlt .+2
 4518 1aac 00C0      		rjmp .L133
 4519 1aae 00C0      		rjmp .L126
 4520               	.L134:
 822:lp_solve_5.5/shared/myblas.c **** 
 4521               		.loc 1 822 0 is_stmt 1
 4522 1ab0 0000      		nop
 4523               	.L126:
 4524               	/* epilogue start */
 838:lp_solve_5.5/shared/myblas.c ****    }
 839:lp_solve_5.5/shared/myblas.c **** 
 840:lp_solve_5.5/shared/myblas.c **** }
 4525               		.loc 1 840 0
 4526 1ab2 2C96      		adiw r28,12
 4527 1ab4 0FB6      		in __tmp_reg__,__SREG__
 4528 1ab6 F894      		cli
 4529 1ab8 DEBF      		out __SP_H__,r29
 4530 1aba 0FBE      		out __SREG__,__tmp_reg__
 4531 1abc CDBF      		out __SP_L__,r28
 4532 1abe DF91      		pop r29
 4533 1ac0 CF91      		pop r28
 4534 1ac2 1F91      		pop r17
 4535 1ac4 0F91      		pop r16
 4536 1ac6 FF90      		pop r15
 4537 1ac8 EF90      		pop r14
 4538 1aca DF90      		pop r13
 4539 1acc CF90      		pop r12
 4540 1ace 0895      		ret
 4541               		.cfi_endproc
 4542               	.LFE31:
 4544               	.Letext0:
 4545               		.file 2 "lp_solve_5.5/shared/myblas.h"